(lp0
VABDERA-696
p1
aVABDERA-695
p2
aVABDERA-439
p3
aVABDERA-438
p4
aVABDERA-437
p5
aVABDERA-428
p6
aVABDERA-418
p7
aVABDERA-401
p8
aVABDERA-400
p9
aVABDERA-398
p10
aVABDERA-397
p11
aVABDERA-390
p12
aVABDERA-388
p13
aVABDERA-387
p14
aVABDERA-386
p15
aVABDERA-371
p16
aVABDERA-360
p17
aVABDERA-354
p18
aVABDERA-352
p19
aVABDERA-351
p20
aVABDERA-350
p21
aVABDERA-318
p22
aVABDERA-311
p23
aVABDERA-310
p24
aVABDERA-309
p25
aVABDERA-308
p26
aVABDERA-307
p27
aVABDERA-306
p28
aVABDERA-305
p29
aVABDERA-304
p30
aVABDERA-303
p31
aVABDERA-302
p32
aVABDERA-301
p33
aVABDERA-300
p34
aVABDERA-299
p35
aVABDERA-298
p36
aVABDERA-297
p37
aVABDERA-295
p38
aVABDERA-294
p39
aVABDERA-293
p40
aVABDERA-292
p41
aVABDERA-290
p42
aVABDERA-289
p43
aVABDERA-288
p44
aVABDERA-287
p45
aVABDERA-286
p46
aVABDERA-285
p47
aVABDERA-284
p48
aVABDERA-283
p49
aVABDERA-282
p50
aVABDERA-281
p51
aVABDERA-280
p52
aVABDERA-279
p53
aVABDERA-278
p54
aVABDERA-277
p55
aVABDERA-276
p56
aVABDERA-275
p57
aVABDERA-274
p58
aVABDERA-273
p59
aVABDERA-272
p60
aVABDERA-271
p61
aVABDERA-270
p62
aVABDERA-269
p63
aVABDERA-268
p64
aVABDERA-267
p65
aVABDERA-266
p66
aVABDERA-264
p67
aVABDERA-263
p68
aVABDERA-262
p69
aVABDERA-261
p70
aVABDERA-260
p71
aVABDERA-259
p72
aVABDERA-258
p73
aVABDERA-257
p74
aVABDERA-256
p75
aVABDERA-255
p76
aVABDERA-254
p77
aVABDERA-253
p78
aVABDERA-252
p79
aVABDERA-251
p80
aVABDERA-250
p81
aVABDERA-249
p82
aVABDERA-248
p83
aVABDERA-247
p84
aVABDERA-246
p85
aVABDERA-245
p86
aVABDERA-244
p87
aVABDERA-243
p88
aVABDERA-242
p89
aVABDERA-241
p90
aVABDERA-240
p91
aVABDERA-239
p92
aVABDERA-238
p93
aVABDERA-237
p94
aVABDERA-236
p95
aVABDERA-235
p96
aVABDERA-234
p97
aVABDERA-233
p98
aVABDERA-232
p99
aVABDERA-231
p100
aVABDERA-230
p101
aVABDERA-229
p102
aVABDERA-228
p103
aVABDERA-227
p104
aVABDERA-226
p105
aVABDERA-225
p106
aVABDERA-224
p107
aVABDERA-222
p108
aVABDERA-221
p109
aVABDERA-220
p110
aVABDERA-219
p111
aVABDERA-218
p112
aVABDERA-217
p113
aVABDERA-216
p114
aVABDERA-215
p115
aVABDERA-214
p116
aVABDERA-213
p117
aVABDERA-212
p118
aVABDERA-211
p119
aVABDERA-210
p120
aVABDERA-209
p121
aVABDERA-208
p122
aVABDERA-207
p123
aVABDERA-206
p124
aVABDERA-205
p125
aVABDERA-204
p126
aVABDERA-203
p127
aVABDERA-202
p128
aVABDERA-201
p129
aVABDERA-200
p130
aVABDERA-199
p131
aVABDERA-198
p132
aVABDERA-197
p133
aVABDERA-196
p134
aVABDERA-195
p135
aVABDERA-194
p136
aVABDERA-193
p137
aVABDERA-192
p138
aVABDERA-191
p139
aVABDERA-190
p140
aVABDERA-189
p141
aVABDERA-188
p142
aVABDERA-187
p143
aVABDERA-186
p144
aVABDERA-185
p145
aVABDERA-184
p146
aVABDERA-183
p147
aVABDERA-182
p148
aVABDERA-181
p149
aVABDERA-180
p150
aVABDERA-179
p151
aVABDERA-178
p152
aVABDERA-177
p153
aVABDERA-176
p154
aVABDERA-175
p155
aVABDERA-174
p156
aVABDERA-173
p157
aVABDERA-172
p158
aVABDERA-171
p159
aVABDERA-170
p160
aVABDERA-169
p161
aVABDERA-168
p162
aVABDERA-167
p163
aVABDERA-166
p164
aVABDERA-165
p165
aVABDERA-164
p166
aVABDERA-163
p167
aVABDERA-162
p168
aVABDERA-161
p169
aVABDERA-160
p170
aVABDERA-159
p171
aVABDERA-158
p172
aVABDERA-157
p173
aVABDERA-156
p174
aVABDERA-155
p175
aVABDERA-154
p176
aVABDERA-153
p177
aVABDERA-152
p178
aVABDERA-151
p179
aVABDERA-150
p180
aVABDERA-149
p181
aVABDERA-148
p182
aVABDERA-147
p183
aVABDERA-146
p184
aVABDERA-145
p185
aVABDERA-144
p186
aVABDERA-143
p187
aVABDERA-142
p188
aVABDERA-141
p189
aVABDERA-140
p190
aVABDERA-139
p191
aVABDERA-137
p192
aVABDERA-136
p193
aVABDERA-135
p194
aVABDERA-134
p195
aVABDERA-133
p196
aVABDERA-132
p197
aVABDERA-131
p198
aVABDERA-130
p199
aVABDERA-129
p200
aVABDERA-128
p201
aVABDERA-127
p202
aVABDERA-126
p203
aVABDERA-125
p204
aVABDERA-124
p205
aVABDERA-123
p206
aVABDERA-122
p207
aVABDERA-121
p208
aVABDERA-120
p209
aVABDERA-119
p210
aVABDERA-118
p211
aVABDERA-117
p212
aVABDERA-116
p213
aVABDERA-115
p214
aVABDERA-114
p215
aVABDERA-113
p216
aVABDERA-112
p217
aVABDERA-111
p218
aVABDERA-110
p219
aVABDERA-109
p220
aVABDERA-108
p221
aVABDERA-107
p222
aVABDERA-106
p223
aVABDERA-105
p224
aVABDERA-104
p225
aVABDERA-103
p226
aVABDERA-102
p227
aVABDERA-101
p228
aVABDERA-100
p229
aVABDERA-99
p230
aVABDERA-98
p231
aVABDERA-97
p232
aVABDERA-96
p233
aVABDERA-95
p234
aVABDERA-94
p235
aVABDERA-93
p236
aVABDERA-92
p237
aVABDERA-91
p238
aVABDERA-90
p239
aVABDERA-89
p240
aVABDERA-88
p241
aVABDERA-87
p242
aVABDERA-86
p243
aVABDERA-85
p244
aVABDERA-84
p245
aVABDERA-83
p246
aVABDERA-82
p247
aVABDERA-81
p248
aVABDERA-80
p249
aVABDERA-79
p250
aVABDERA-76
p251
aVABDERA-75
p252
aVABDERA-74
p253
aVABDERA-73
p254
aVABDERA-72
p255
aVABDERA-71
p256
aVABDERA-70
p257
aVABDERA-69
p258
aVABDERA-68
p259
aVABDERA-67
p260
aVABDERA-66
p261
aVABDERA-63
p262
aVABDERA-62
p263
aVABDERA-61
p264
aVABDERA-60
p265
aVABDERA-59
p266
aVABDERA-58
p267
aVABDERA-57
p268
aVABDERA-56
p269
aVABDERA-55
p270
aVABDERA-54
p271
aVABDERA-53
p272
aVABDERA-52
p273
aVABDERA-51
p274
aVABDERA-50
p275
aVABDERA-49
p276
aVABDERA-48
p277
aVABDERA-47
p278
aVABDERA-46
p279
aVABDERA-45
p280
aVABDERA-44
p281
aVABDERA-43
p282
aVABDERA-42
p283
aVABDERA-41
p284
aVABDERA-40
p285
aVABDERA-39
p286
aVABDERA-38
p287
aVABDERA-37
p288
aVABDERA-36
p289
aVABDERA-35
p290
aVABDERA-34
p291
aVABDERA-32
p292
aVABDERA-30
p293
aVABDERA-29
p294
aVABDERA-27
p295
aVABDERA-26
p296
aVABDERA-24
p297
aVABDERA-23
p298
aVABDERA-22
p299
aVABDERA-20
p300
aVABDERA-19
p301
aVABDERA-18
p302
aVABDERA-17
p303
aVABDERA-15
p304
aVABDERA-13
p305
aVABDERA-12
p306
aVABDERA-10
p307
aVABDERA-9
p308
aVABDERA-7
p309
aVABDERA-5
p310
aVABDERA-2
p311
a.