(lp0
VACCUMULO-4852
p1
aVACCUMULO-4851
p2
aVACCUMULO-4850
p3
aVACCUMULO-4849
p4
aVACCUMULO-4848
p5
aVACCUMULO-4847
p6
aVACCUMULO-4838
p7
aVACCUMULO-4837
p8
aVACCUMULO-4836
p9
aVACCUMULO-4835
p10
aVACCUMULO-4834
p11
aVACCUMULO-4833
p12
aVACCUMULO-4832
p13
aVACCUMULO-4831
p14
aVACCUMULO-4830
p15
aVACCUMULO-4829
p16
aVACCUMULO-4828
p17
aVACCUMULO-4827
p18
aVACCUMULO-4826
p19
aVACCUMULO-4825
p20
aVACCUMULO-4824
p21
aVACCUMULO-4823
p22
aVACCUMULO-4822
p23
aVACCUMULO-4821
p24
aVACCUMULO-4820
p25
aVACCUMULO-4819
p26
aVACCUMULO-4818
p27
aVACCUMULO-4817
p28
aVACCUMULO-4816
p29
aVACCUMULO-4815
p30
aVACCUMULO-4814
p31
aVACCUMULO-4813
p32
aVACCUMULO-4812
p33
aVACCUMULO-4811
p34
aVACCUMULO-4810
p35
aVACCUMULO-4809
p36
aVACCUMULO-4808
p37
aVACCUMULO-4807
p38
aVACCUMULO-4806
p39
aVACCUMULO-4805
p40
aVACCUMULO-4804
p41
aVACCUMULO-4803
p42
aVACCUMULO-4802
p43
aVACCUMULO-4801
p44
aVACCUMULO-4800
p45
aVACCUMULO-4799
p46
aVACCUMULO-4798
p47
aVACCUMULO-4797
p48
aVACCUMULO-4796
p49
aVACCUMULO-4795
p50
aVACCUMULO-4794
p51
aVACCUMULO-4793
p52
aVACCUMULO-4792
p53
aVACCUMULO-4791
p54
aVACCUMULO-4790
p55
aVACCUMULO-4789
p56
aVACCUMULO-4788
p57
aVACCUMULO-4787
p58
aVACCUMULO-4786
p59
aVACCUMULO-4785
p60
aVACCUMULO-4784
p61
aVACCUMULO-4783
p62
aVACCUMULO-4782
p63
aVACCUMULO-4781
p64
aVACCUMULO-4780
p65
aVACCUMULO-4779
p66
aVACCUMULO-4778
p67
aVACCUMULO-4777
p68
aVACCUMULO-4776
p69
aVACCUMULO-4775
p70
aVACCUMULO-4774
p71
aVACCUMULO-4773
p72
aVACCUMULO-4772
p73
aVACCUMULO-4771
p74
aVACCUMULO-4770
p75
aVACCUMULO-4769
p76
aVACCUMULO-4768
p77
aVACCUMULO-4767
p78
aVACCUMULO-4766
p79
aVACCUMULO-4765
p80
aVACCUMULO-4764
p81
aVACCUMULO-4763
p82
aVACCUMULO-4762
p83
aVACCUMULO-4761
p84
aVACCUMULO-4760
p85
aVACCUMULO-4759
p86
aVACCUMULO-4758
p87
aVACCUMULO-4757
p88
aVACCUMULO-4756
p89
aVACCUMULO-4755
p90
aVACCUMULO-4754
p91
aVACCUMULO-4753
p92
aVACCUMULO-4752
p93
aVACCUMULO-4751
p94
aVACCUMULO-4750
p95
aVACCUMULO-4749
p96
aVACCUMULO-4748
p97
aVACCUMULO-4747
p98
aVACCUMULO-4746
p99
aVACCUMULO-4745
p100
aVACCUMULO-4744
p101
aVACCUMULO-4743
p102
aVACCUMULO-4742
p103
aVACCUMULO-4741
p104
aVACCUMULO-4740
p105
aVACCUMULO-4739
p106
aVACCUMULO-4738
p107
aVACCUMULO-4737
p108
aVACCUMULO-4736
p109
aVACCUMULO-4735
p110
aVACCUMULO-4734
p111
aVACCUMULO-4733
p112
aVACCUMULO-4732
p113
aVACCUMULO-4731
p114
aVACCUMULO-4730
p115
aVACCUMULO-4729
p116
aVACCUMULO-4728
p117
aVACCUMULO-4727
p118
aVACCUMULO-4726
p119
aVACCUMULO-4725
p120
aVACCUMULO-4724
p121
aVACCUMULO-4723
p122
aVACCUMULO-4722
p123
aVACCUMULO-4721
p124
aVACCUMULO-4720
p125
aVACCUMULO-4719
p126
aVACCUMULO-4718
p127
aVACCUMULO-4717
p128
aVACCUMULO-4716
p129
aVACCUMULO-4715
p130
aVACCUMULO-4714
p131
aVACCUMULO-4713
p132
aVACCUMULO-4712
p133
aVACCUMULO-4711
p134
aVACCUMULO-4710
p135
aVACCUMULO-4709
p136
aVACCUMULO-4708
p137
aVACCUMULO-4707
p138
aVACCUMULO-4706
p139
aVACCUMULO-4705
p140
aVACCUMULO-4704
p141
aVACCUMULO-4703
p142
aVACCUMULO-4702
p143
aVACCUMULO-4701
p144
aVACCUMULO-4700
p145
aVACCUMULO-4699
p146
aVACCUMULO-4698
p147
aVACCUMULO-4697
p148
aVACCUMULO-4696
p149
aVACCUMULO-4695
p150
aVACCUMULO-4694
p151
aVACCUMULO-4693
p152
aVACCUMULO-4692
p153
aVACCUMULO-4691
p154
aVACCUMULO-4690
p155
aVACCUMULO-4689
p156
aVACCUMULO-4688
p157
aVACCUMULO-4687
p158
aVACCUMULO-4686
p159
aVACCUMULO-4685
p160
aVACCUMULO-4684
p161
aVACCUMULO-4683
p162
aVACCUMULO-4682
p163
aVACCUMULO-4681
p164
aVACCUMULO-4680
p165
aVACCUMULO-4679
p166
aVACCUMULO-4678
p167
aVACCUMULO-4677
p168
aVACCUMULO-4676
p169
aVACCUMULO-4675
p170
aVACCUMULO-4674
p171
aVACCUMULO-4673
p172
aVACCUMULO-4672
p173
aVACCUMULO-4671
p174
aVACCUMULO-4670
p175
aVACCUMULO-4669
p176
aVACCUMULO-4668
p177
aVACCUMULO-4667
p178
aVACCUMULO-4666
p179
aVACCUMULO-4665
p180
aVACCUMULO-4664
p181
aVACCUMULO-4663
p182
aVACCUMULO-4662
p183
aVACCUMULO-4661
p184
aVACCUMULO-4660
p185
aVACCUMULO-4659
p186
aVACCUMULO-4658
p187
aVACCUMULO-4657
p188
aVACCUMULO-4656
p189
aVACCUMULO-4655
p190
aVACCUMULO-4654
p191
aVACCUMULO-4653
p192
aVACCUMULO-4652
p193
aVACCUMULO-4651
p194
aVACCUMULO-4650
p195
aVACCUMULO-4649
p196
aVACCUMULO-4648
p197
aVACCUMULO-4647
p198
aVACCUMULO-4646
p199
aVACCUMULO-4645
p200
aVACCUMULO-4644
p201
aVACCUMULO-4643
p202
aVACCUMULO-4642
p203
aVACCUMULO-4641
p204
aVACCUMULO-4640
p205
aVACCUMULO-4639
p206
aVACCUMULO-4638
p207
aVACCUMULO-4637
p208
aVACCUMULO-4636
p209
aVACCUMULO-4635
p210
aVACCUMULO-4634
p211
aVACCUMULO-4633
p212
aVACCUMULO-4632
p213
aVACCUMULO-4631
p214
aVACCUMULO-4630
p215
aVACCUMULO-4629
p216
aVACCUMULO-4628
p217
aVACCUMULO-4627
p218
aVACCUMULO-4626
p219
aVACCUMULO-4625
p220
aVACCUMULO-4624
p221
aVACCUMULO-4623
p222
aVACCUMULO-4622
p223
aVACCUMULO-4621
p224
aVACCUMULO-4620
p225
aVACCUMULO-4619
p226
aVACCUMULO-4618
p227
aVACCUMULO-4617
p228
aVACCUMULO-4616
p229
aVACCUMULO-4615
p230
aVACCUMULO-4614
p231
aVACCUMULO-4613
p232
aVACCUMULO-4612
p233
aVACCUMULO-4611
p234
aVACCUMULO-4610
p235
aVACCUMULO-4609
p236
aVACCUMULO-4608
p237
aVACCUMULO-4607
p238
aVACCUMULO-4606
p239
aVACCUMULO-4605
p240
aVACCUMULO-4604
p241
aVACCUMULO-4603
p242
aVACCUMULO-4602
p243
aVACCUMULO-4601
p244
aVACCUMULO-4600
p245
aVACCUMULO-4599
p246
aVACCUMULO-4598
p247
aVACCUMULO-4597
p248
aVACCUMULO-4596
p249
aVACCUMULO-4595
p250
aVACCUMULO-4594
p251
aVACCUMULO-4593
p252
aVACCUMULO-4592
p253
aVACCUMULO-4591
p254
aVACCUMULO-4590
p255
aVACCUMULO-4589
p256
aVACCUMULO-4588
p257
aVACCUMULO-4587
p258
aVACCUMULO-4586
p259
aVACCUMULO-4585
p260
aVACCUMULO-4584
p261
aVACCUMULO-4583
p262
aVACCUMULO-4582
p263
aVACCUMULO-4581
p264
aVACCUMULO-4580
p265
aVACCUMULO-4579
p266
aVACCUMULO-4578
p267
aVACCUMULO-4577
p268
aVACCUMULO-4576
p269
aVACCUMULO-4575
p270
aVACCUMULO-4574
p271
aVACCUMULO-4573
p272
aVACCUMULO-4572
p273
aVACCUMULO-4571
p274
aVACCUMULO-4570
p275
aVACCUMULO-4569
p276
aVACCUMULO-4568
p277
aVACCUMULO-4567
p278
aVACCUMULO-4566
p279
aVACCUMULO-4565
p280
aVACCUMULO-4564
p281
aVACCUMULO-4563
p282
aVACCUMULO-4562
p283
aVACCUMULO-4561
p284
aVACCUMULO-4560
p285
aVACCUMULO-4559
p286
aVACCUMULO-4558
p287
aVACCUMULO-4557
p288
aVACCUMULO-4556
p289
aVACCUMULO-4555
p290
aVACCUMULO-4554
p291
aVACCUMULO-4553
p292
aVACCUMULO-4552
p293
aVACCUMULO-4551
p294
aVACCUMULO-4550
p295
aVACCUMULO-4549
p296
aVACCUMULO-4548
p297
aVACCUMULO-4547
p298
aVACCUMULO-4546
p299
aVACCUMULO-4545
p300
aVACCUMULO-4544
p301
aVACCUMULO-4543
p302
aVACCUMULO-4542
p303
aVACCUMULO-4541
p304
aVACCUMULO-4540
p305
aVACCUMULO-4539
p306
aVACCUMULO-4538
p307
aVACCUMULO-4537
p308
aVACCUMULO-4536
p309
aVACCUMULO-4535
p310
aVACCUMULO-4534
p311
aVACCUMULO-4533
p312
aVACCUMULO-4532
p313
aVACCUMULO-4531
p314
aVACCUMULO-4530
p315
aVACCUMULO-4529
p316
aVACCUMULO-4528
p317
aVACCUMULO-4527
p318
aVACCUMULO-4526
p319
aVACCUMULO-4525
p320
aVACCUMULO-4524
p321
aVACCUMULO-4523
p322
aVACCUMULO-4522
p323
aVACCUMULO-4521
p324
aVACCUMULO-4520
p325
aVACCUMULO-4519
p326
aVACCUMULO-4518
p327
aVACCUMULO-4517
p328
aVACCUMULO-4516
p329
aVACCUMULO-4515
p330
aVACCUMULO-4514
p331
aVACCUMULO-4513
p332
aVACCUMULO-4512
p333
aVACCUMULO-4511
p334
aVACCUMULO-4510
p335
aVACCUMULO-4509
p336
aVACCUMULO-4508
p337
aVACCUMULO-4507
p338
aVACCUMULO-4506
p339
aVACCUMULO-4505
p340
aVACCUMULO-4504
p341
aVACCUMULO-4503
p342
aVACCUMULO-4502
p343
aVACCUMULO-4501
p344
aVACCUMULO-4500
p345
aVACCUMULO-4499
p346
aVACCUMULO-4498
p347
aVACCUMULO-4497
p348
aVACCUMULO-4496
p349
aVACCUMULO-4495
p350
aVACCUMULO-4494
p351
aVACCUMULO-4493
p352
aVACCUMULO-4492
p353
aVACCUMULO-4491
p354
aVACCUMULO-4490
p355
aVACCUMULO-4489
p356
aVACCUMULO-4488
p357
aVACCUMULO-4487
p358
aVACCUMULO-4486
p359
aVACCUMULO-4485
p360
aVACCUMULO-4484
p361
aVACCUMULO-4483
p362
aVACCUMULO-4482
p363
aVACCUMULO-4481
p364
aVACCUMULO-4480
p365
aVACCUMULO-4479
p366
aVACCUMULO-4478
p367
aVACCUMULO-4477
p368
aVACCUMULO-4476
p369
aVACCUMULO-4475
p370
aVACCUMULO-4474
p371
aVACCUMULO-4473
p372
aVACCUMULO-4472
p373
aVACCUMULO-4471
p374
aVACCUMULO-4470
p375
aVACCUMULO-4469
p376
aVACCUMULO-4468
p377
aVACCUMULO-4467
p378
aVACCUMULO-4466
p379
aVACCUMULO-4465
p380
aVACCUMULO-4464
p381
aVACCUMULO-4463
p382
aVACCUMULO-4462
p383
aVACCUMULO-4461
p384
aVACCUMULO-4460
p385
aVACCUMULO-4459
p386
aVACCUMULO-4458
p387
aVACCUMULO-4457
p388
aVACCUMULO-4456
p389
aVACCUMULO-4455
p390
aVACCUMULO-4454
p391
aVACCUMULO-4453
p392
aVACCUMULO-4452
p393
aVACCUMULO-4451
p394
aVACCUMULO-4450
p395
aVACCUMULO-4449
p396
aVACCUMULO-4448
p397
aVACCUMULO-4447
p398
aVACCUMULO-4446
p399
aVACCUMULO-4445
p400
aVACCUMULO-4444
p401
aVACCUMULO-4443
p402
aVACCUMULO-4442
p403
aVACCUMULO-4441
p404
aVACCUMULO-4440
p405
aVACCUMULO-4439
p406
aVACCUMULO-4438
p407
aVACCUMULO-4437
p408
aVACCUMULO-4436
p409
aVACCUMULO-4435
p410
aVACCUMULO-4434
p411
aVACCUMULO-4433
p412
aVACCUMULO-4432
p413
aVACCUMULO-4431
p414
aVACCUMULO-4430
p415
aVACCUMULO-4429
p416
aVACCUMULO-4428
p417
aVACCUMULO-4427
p418
aVACCUMULO-4426
p419
aVACCUMULO-4425
p420
aVACCUMULO-4424
p421
aVACCUMULO-4423
p422
aVACCUMULO-4422
p423
aVACCUMULO-4421
p424
aVACCUMULO-4420
p425
aVACCUMULO-4419
p426
aVACCUMULO-4418
p427
aVACCUMULO-4417
p428
aVACCUMULO-4416
p429
aVACCUMULO-4415
p430
aVACCUMULO-4414
p431
aVACCUMULO-4413
p432
aVACCUMULO-4412
p433
aVACCUMULO-4411
p434
aVACCUMULO-4410
p435
aVACCUMULO-4409
p436
aVACCUMULO-4408
p437
aVACCUMULO-4407
p438
aVACCUMULO-4406
p439
aVACCUMULO-4405
p440
aVACCUMULO-4404
p441
aVACCUMULO-4403
p442
aVACCUMULO-4402
p443
aVACCUMULO-4401
p444
aVACCUMULO-4400
p445
aVACCUMULO-4399
p446
aVACCUMULO-4398
p447
aVACCUMULO-4397
p448
aVACCUMULO-4396
p449
aVACCUMULO-4395
p450
aVACCUMULO-4394
p451
aVACCUMULO-4393
p452
aVACCUMULO-4392
p453
aVACCUMULO-4391
p454
aVACCUMULO-4390
p455
aVACCUMULO-4389
p456
aVACCUMULO-4388
p457
aVACCUMULO-4387
p458
aVACCUMULO-4386
p459
aVACCUMULO-4385
p460
aVACCUMULO-4384
p461
aVACCUMULO-4383
p462
aVACCUMULO-4382
p463
aVACCUMULO-4381
p464
aVACCUMULO-4380
p465
aVACCUMULO-4379
p466
aVACCUMULO-4378
p467
aVACCUMULO-4377
p468
aVACCUMULO-4376
p469
aVACCUMULO-4375
p470
aVACCUMULO-4374
p471
aVACCUMULO-4373
p472
aVACCUMULO-4372
p473
aVACCUMULO-4371
p474
aVACCUMULO-4370
p475
aVACCUMULO-4369
p476
aVACCUMULO-4368
p477
aVACCUMULO-4367
p478
aVACCUMULO-4366
p479
aVACCUMULO-4365
p480
aVACCUMULO-4364
p481
aVACCUMULO-4363
p482
aVACCUMULO-4362
p483
aVACCUMULO-4361
p484
aVACCUMULO-4360
p485
aVACCUMULO-4359
p486
aVACCUMULO-4358
p487
aVACCUMULO-4357
p488
aVACCUMULO-4356
p489
aVACCUMULO-4355
p490
aVACCUMULO-4354
p491
aVACCUMULO-4353
p492
aVACCUMULO-4352
p493
aVACCUMULO-4351
p494
aVACCUMULO-4350
p495
aVACCUMULO-4349
p496
aVACCUMULO-4348
p497
aVACCUMULO-4347
p498
aVACCUMULO-4346
p499
aVACCUMULO-4345
p500
aVACCUMULO-4344
p501
aVACCUMULO-4343
p502
aVACCUMULO-4342
p503
aVACCUMULO-4341
p504
aVACCUMULO-4340
p505
aVACCUMULO-4339
p506
aVACCUMULO-4338
p507
aVACCUMULO-4337
p508
aVACCUMULO-4336
p509
aVACCUMULO-4335
p510
aVACCUMULO-4334
p511
aVACCUMULO-4333
p512
aVACCUMULO-4332
p513
aVACCUMULO-4331
p514
aVACCUMULO-4330
p515
aVACCUMULO-4329
p516
aVACCUMULO-4328
p517
aVACCUMULO-4327
p518
aVACCUMULO-4326
p519
aVACCUMULO-4325
p520
aVACCUMULO-4324
p521
aVACCUMULO-4323
p522
aVACCUMULO-4322
p523
aVACCUMULO-4321
p524
aVACCUMULO-4320
p525
aVACCUMULO-4319
p526
aVACCUMULO-4318
p527
aVACCUMULO-4317
p528
aVACCUMULO-4316
p529
aVACCUMULO-4315
p530
aVACCUMULO-4314
p531
aVACCUMULO-4313
p532
aVACCUMULO-4312
p533
aVACCUMULO-4311
p534
aVACCUMULO-4310
p535
aVACCUMULO-4309
p536
aVACCUMULO-4308
p537
aVACCUMULO-4307
p538
aVACCUMULO-4306
p539
aVACCUMULO-4305
p540
aVACCUMULO-4304
p541
aVACCUMULO-4299
p542
aVACCUMULO-4298
p543
aVACCUMULO-4243
p544
aVACCUMULO-4229
p545
aVACCUMULO-4197
p546
aVACCUMULO-4196
p547
aVACCUMULO-4195
p548
aVACCUMULO-4194
p549
aVACCUMULO-4193
p550
aVACCUMULO-4192
p551
aVACCUMULO-4191
p552
aVACCUMULO-4190
p553
aVACCUMULO-4189
p554
aVACCUMULO-4188
p555
aVACCUMULO-4187
p556
aVACCUMULO-4186
p557
aVACCUMULO-4185
p558
aVACCUMULO-4184
p559
aVACCUMULO-4183
p560
aVACCUMULO-4182
p561
aVACCUMULO-4181
p562
aVACCUMULO-4180
p563
aVACCUMULO-4179
p564
aVACCUMULO-4178
p565
aVACCUMULO-4177
p566
aVACCUMULO-4176
p567
aVACCUMULO-4175
p568
aVACCUMULO-4174
p569
aVACCUMULO-4173
p570
aVACCUMULO-4172
p571
aVACCUMULO-4171
p572
aVACCUMULO-4170
p573
aVACCUMULO-4169
p574
aVACCUMULO-4168
p575
aVACCUMULO-4167
p576
aVACCUMULO-4166
p577
aVACCUMULO-4165
p578
aVACCUMULO-4164
p579
aVACCUMULO-4163
p580
aVACCUMULO-4162
p581
aVACCUMULO-4161
p582
aVACCUMULO-4160
p583
aVACCUMULO-4159
p584
aVACCUMULO-4158
p585
aVACCUMULO-4157
p586
aVACCUMULO-4156
p587
aVACCUMULO-4155
p588
aVACCUMULO-4154
p589
aVACCUMULO-4153
p590
aVACCUMULO-4152
p591
aVACCUMULO-4151
p592
aVACCUMULO-4150
p593
aVACCUMULO-4149
p594
aVACCUMULO-4148
p595
aVACCUMULO-4147
p596
aVACCUMULO-4146
p597
aVACCUMULO-4145
p598
aVACCUMULO-4144
p599
aVACCUMULO-4143
p600
aVACCUMULO-4142
p601
aVACCUMULO-4141
p602
aVACCUMULO-4140
p603
aVACCUMULO-4139
p604
aVACCUMULO-4138
p605
aVACCUMULO-4137
p606
aVACCUMULO-4136
p607
aVACCUMULO-4135
p608
aVACCUMULO-4134
p609
aVACCUMULO-4133
p610
aVACCUMULO-4132
p611
aVACCUMULO-4131
p612
aVACCUMULO-4130
p613
aVACCUMULO-4129
p614
aVACCUMULO-4128
p615
aVACCUMULO-4127
p616
aVACCUMULO-4126
p617
aVACCUMULO-4125
p618
aVACCUMULO-4124
p619
aVACCUMULO-4123
p620
aVACCUMULO-4122
p621
aVACCUMULO-4121
p622
aVACCUMULO-4120
p623
aVACCUMULO-4119
p624
aVACCUMULO-4118
p625
aVACCUMULO-4117
p626
aVACCUMULO-4116
p627
aVACCUMULO-4115
p628
aVACCUMULO-4114
p629
aVACCUMULO-4113
p630
aVACCUMULO-4112
p631
aVACCUMULO-4111
p632
aVACCUMULO-4110
p633
aVACCUMULO-4109
p634
aVACCUMULO-4108
p635
aVACCUMULO-4107
p636
aVACCUMULO-4106
p637
aVACCUMULO-4105
p638
aVACCUMULO-4104
p639
aVACCUMULO-4103
p640
aVACCUMULO-4102
p641
aVACCUMULO-4101
p642
aVACCUMULO-4100
p643
aVACCUMULO-4099
p644
aVACCUMULO-4098
p645
aVACCUMULO-4097
p646
aVACCUMULO-4096
p647
aVACCUMULO-4095
p648
aVACCUMULO-4094
p649
aVACCUMULO-4093
p650
aVACCUMULO-4092
p651
aVACCUMULO-4091
p652
aVACCUMULO-4090
p653
aVACCUMULO-4089
p654
aVACCUMULO-4088
p655
aVACCUMULO-4087
p656
aVACCUMULO-4086
p657
aVACCUMULO-4085
p658
aVACCUMULO-4084
p659
aVACCUMULO-4083
p660
aVACCUMULO-4082
p661
aVACCUMULO-4081
p662
aVACCUMULO-4080
p663
aVACCUMULO-4079
p664
aVACCUMULO-4078
p665
aVACCUMULO-4077
p666
aVACCUMULO-4076
p667
aVACCUMULO-4075
p668
aVACCUMULO-4074
p669
aVACCUMULO-4073
p670
aVACCUMULO-4072
p671
aVACCUMULO-4071
p672
aVACCUMULO-4070
p673
aVACCUMULO-4069
p674
aVACCUMULO-4068
p675
aVACCUMULO-4067
p676
aVACCUMULO-4066
p677
aVACCUMULO-4065
p678
aVACCUMULO-4064
p679
aVACCUMULO-4063
p680
aVACCUMULO-4062
p681
aVACCUMULO-4061
p682
aVACCUMULO-4060
p683
aVACCUMULO-4059
p684
aVACCUMULO-4058
p685
aVACCUMULO-4057
p686
aVACCUMULO-4056
p687
aVACCUMULO-4055
p688
aVACCUMULO-4054
p689
aVACCUMULO-4053
p690
aVACCUMULO-4052
p691
aVACCUMULO-4051
p692
aVACCUMULO-4050
p693
aVACCUMULO-4049
p694
aVACCUMULO-4048
p695
aVACCUMULO-4047
p696
aVACCUMULO-4046
p697
aVACCUMULO-4045
p698
aVACCUMULO-4044
p699
aVACCUMULO-4043
p700
aVACCUMULO-4042
p701
aVACCUMULO-4041
p702
aVACCUMULO-4040
p703
aVACCUMULO-4039
p704
aVACCUMULO-4038
p705
aVACCUMULO-4037
p706
aVACCUMULO-4036
p707
aVACCUMULO-4035
p708
aVACCUMULO-4034
p709
aVACCUMULO-4033
p710
aVACCUMULO-4032
p711
aVACCUMULO-4031
p712
aVACCUMULO-4030
p713
aVACCUMULO-4029
p714
aVACCUMULO-4028
p715
aVACCUMULO-4027
p716
aVACCUMULO-4026
p717
aVACCUMULO-4025
p718
aVACCUMULO-4024
p719
aVACCUMULO-4023
p720
aVACCUMULO-4022
p721
aVACCUMULO-4021
p722
aVACCUMULO-4020
p723
aVACCUMULO-4019
p724
aVACCUMULO-4018
p725
aVACCUMULO-4017
p726
aVACCUMULO-4016
p727
aVACCUMULO-4015
p728
aVACCUMULO-4014
p729
aVACCUMULO-4013
p730
aVACCUMULO-4012
p731
aVACCUMULO-4011
p732
aVACCUMULO-4010
p733
aVACCUMULO-4009
p734
aVACCUMULO-4008
p735
aVACCUMULO-4007
p736
aVACCUMULO-4006
p737
aVACCUMULO-4005
p738
aVACCUMULO-4004
p739
aVACCUMULO-4003
p740
aVACCUMULO-4002
p741
aVACCUMULO-4001
p742
aVACCUMULO-4000
p743
aVACCUMULO-3999
p744
aVACCUMULO-3998
p745
aVACCUMULO-3997
p746
aVACCUMULO-3996
p747
aVACCUMULO-3995
p748
aVACCUMULO-3994
p749
aVACCUMULO-3993
p750
aVACCUMULO-3992
p751
aVACCUMULO-3991
p752
aVACCUMULO-3990
p753
aVACCUMULO-3989
p754
aVACCUMULO-3988
p755
aVACCUMULO-3987
p756
aVACCUMULO-3986
p757
aVACCUMULO-3985
p758
aVACCUMULO-3984
p759
aVACCUMULO-3983
p760
aVACCUMULO-3982
p761
aVACCUMULO-3981
p762
aVACCUMULO-3980
p763
aVACCUMULO-3979
p764
aVACCUMULO-3978
p765
aVACCUMULO-3977
p766
aVACCUMULO-3976
p767
aVACCUMULO-3975
p768
aVACCUMULO-3974
p769
aVACCUMULO-3973
p770
aVACCUMULO-3972
p771
aVACCUMULO-3971
p772
aVACCUMULO-3970
p773
aVACCUMULO-3969
p774
aVACCUMULO-3968
p775
aVACCUMULO-3967
p776
aVACCUMULO-3966
p777
aVACCUMULO-3965
p778
aVACCUMULO-3964
p779
aVACCUMULO-3963
p780
aVACCUMULO-3962
p781
aVACCUMULO-3961
p782
aVACCUMULO-3960
p783
aVACCUMULO-3959
p784
aVACCUMULO-3958
p785
aVACCUMULO-3957
p786
aVACCUMULO-3956
p787
aVACCUMULO-3955
p788
aVACCUMULO-3954
p789
aVACCUMULO-3953
p790
aVACCUMULO-3952
p791
aVACCUMULO-3951
p792
aVACCUMULO-3950
p793
aVACCUMULO-3949
p794
aVACCUMULO-3948
p795
aVACCUMULO-3947
p796
aVACCUMULO-3946
p797
aVACCUMULO-3945
p798
aVACCUMULO-3944
p799
aVACCUMULO-3943
p800
aVACCUMULO-3942
p801
aVACCUMULO-3941
p802
aVACCUMULO-3940
p803
aVACCUMULO-3939
p804
aVACCUMULO-3938
p805
aVACCUMULO-3937
p806
aVACCUMULO-3936
p807
aVACCUMULO-3935
p808
aVACCUMULO-3934
p809
aVACCUMULO-3933
p810
aVACCUMULO-3932
p811
aVACCUMULO-3931
p812
aVACCUMULO-3930
p813
aVACCUMULO-3929
p814
aVACCUMULO-3928
p815
aVACCUMULO-3927
p816
aVACCUMULO-3926
p817
aVACCUMULO-3925
p818
aVACCUMULO-3924
p819
aVACCUMULO-3923
p820
aVACCUMULO-3922
p821
aVACCUMULO-3921
p822
aVACCUMULO-3920
p823
aVACCUMULO-3919
p824
aVACCUMULO-3918
p825
aVACCUMULO-3917
p826
aVACCUMULO-3916
p827
aVACCUMULO-3915
p828
aVACCUMULO-3914
p829
aVACCUMULO-3913
p830
aVACCUMULO-3912
p831
aVACCUMULO-3911
p832
aVACCUMULO-3910
p833
aVACCUMULO-3909
p834
aVACCUMULO-3908
p835
aVACCUMULO-3907
p836
aVACCUMULO-3906
p837
aVACCUMULO-3905
p838
aVACCUMULO-3904
p839
aVACCUMULO-3903
p840
aVACCUMULO-3902
p841
aVACCUMULO-3901
p842
aVACCUMULO-3900
p843
aVACCUMULO-3899
p844
aVACCUMULO-3898
p845
aVACCUMULO-3897
p846
aVACCUMULO-3896
p847
aVACCUMULO-3895
p848
aVACCUMULO-3894
p849
aVACCUMULO-3893
p850
aVACCUMULO-3892
p851
aVACCUMULO-3891
p852
aVACCUMULO-3890
p853
aVACCUMULO-3889
p854
aVACCUMULO-3888
p855
aVACCUMULO-3887
p856
aVACCUMULO-3886
p857
aVACCUMULO-3885
p858
aVACCUMULO-3884
p859
aVACCUMULO-3883
p860
aVACCUMULO-3882
p861
aVACCUMULO-3881
p862
aVACCUMULO-3880
p863
aVACCUMULO-3879
p864
aVACCUMULO-3878
p865
aVACCUMULO-3877
p866
aVACCUMULO-3876
p867
aVACCUMULO-3875
p868
aVACCUMULO-3874
p869
aVACCUMULO-3873
p870
aVACCUMULO-3872
p871
aVACCUMULO-3871
p872
aVACCUMULO-3870
p873
aVACCUMULO-3869
p874
aVACCUMULO-3868
p875
aVACCUMULO-3867
p876
aVACCUMULO-3866
p877
aVACCUMULO-3865
p878
aVACCUMULO-3864
p879
aVACCUMULO-3863
p880
aVACCUMULO-3862
p881
aVACCUMULO-3861
p882
aVACCUMULO-3860
p883
aVACCUMULO-3859
p884
aVACCUMULO-3858
p885
aVACCUMULO-3857
p886
aVACCUMULO-3856
p887
aVACCUMULO-3855
p888
aVACCUMULO-3854
p889
aVACCUMULO-3853
p890
aVACCUMULO-3852
p891
aVACCUMULO-3851
p892
aVACCUMULO-3850
p893
aVACCUMULO-3849
p894
aVACCUMULO-3848
p895
aVACCUMULO-3847
p896
aVACCUMULO-3846
p897
aVACCUMULO-3845
p898
aVACCUMULO-3844
p899
aVACCUMULO-3843
p900
aVACCUMULO-3842
p901
aVACCUMULO-3841
p902
aVACCUMULO-3840
p903
aVACCUMULO-3839
p904
aVACCUMULO-3838
p905
aVACCUMULO-3837
p906
aVACCUMULO-3836
p907
aVACCUMULO-3835
p908
aVACCUMULO-3834
p909
aVACCUMULO-3833
p910
aVACCUMULO-3832
p911
aVACCUMULO-3831
p912
aVACCUMULO-3830
p913
aVACCUMULO-3829
p914
aVACCUMULO-3828
p915
aVACCUMULO-3827
p916
aVACCUMULO-3826
p917
aVACCUMULO-3825
p918
aVACCUMULO-3824
p919
aVACCUMULO-3823
p920
aVACCUMULO-3822
p921
aVACCUMULO-3821
p922
aVACCUMULO-3820
p923
aVACCUMULO-3819
p924
aVACCUMULO-3818
p925
aVACCUMULO-3817
p926
aVACCUMULO-3816
p927
aVACCUMULO-3815
p928
aVACCUMULO-3814
p929
aVACCUMULO-3813
p930
aVACCUMULO-3812
p931
aVACCUMULO-3811
p932
aVACCUMULO-3810
p933
aVACCUMULO-3809
p934
aVACCUMULO-3808
p935
aVACCUMULO-3807
p936
aVACCUMULO-3806
p937
aVACCUMULO-3805
p938
aVACCUMULO-3804
p939
aVACCUMULO-3803
p940
aVACCUMULO-3802
p941
aVACCUMULO-3801
p942
aVACCUMULO-3800
p943
aVACCUMULO-3799
p944
aVACCUMULO-3798
p945
aVACCUMULO-3797
p946
aVACCUMULO-3796
p947
aVACCUMULO-3795
p948
aVACCUMULO-3794
p949
aVACCUMULO-3793
p950
aVACCUMULO-3792
p951
aVACCUMULO-3791
p952
aVACCUMULO-3790
p953
aVACCUMULO-3789
p954
aVACCUMULO-3788
p955
aVACCUMULO-3787
p956
aVACCUMULO-3786
p957
aVACCUMULO-3785
p958
aVACCUMULO-3784
p959
aVACCUMULO-3783
p960
aVACCUMULO-3782
p961
aVACCUMULO-3781
p962
aVACCUMULO-3780
p963
aVACCUMULO-3779
p964
aVACCUMULO-3778
p965
aVACCUMULO-3777
p966
aVACCUMULO-3775
p967
aVACCUMULO-3774
p968
aVACCUMULO-3773
p969
aVACCUMULO-3772
p970
aVACCUMULO-3771
p971
aVACCUMULO-3770
p972
aVACCUMULO-3769
p973
aVACCUMULO-3768
p974
aVACCUMULO-3767
p975
aVACCUMULO-3766
p976
aVACCUMULO-3765
p977
aVACCUMULO-3764
p978
aVACCUMULO-3763
p979
aVACCUMULO-3762
p980
aVACCUMULO-3761
p981
aVACCUMULO-3760
p982
aVACCUMULO-3759
p983
aVACCUMULO-3758
p984
aVACCUMULO-3757
p985
aVACCUMULO-3756
p986
aVACCUMULO-3755
p987
aVACCUMULO-3754
p988
aVACCUMULO-3753
p989
aVACCUMULO-3752
p990
aVACCUMULO-3751
p991
aVACCUMULO-3750
p992
aVACCUMULO-3749
p993
aVACCUMULO-3748
p994
aVACCUMULO-3747
p995
aVACCUMULO-3746
p996
aVACCUMULO-3745
p997
aVACCUMULO-3744
p998
aVACCUMULO-3743
p999
aVACCUMULO-3742
p1000
aVACCUMULO-3741
p1001
aVACCUMULO-3740
p1002
aVACCUMULO-3739
p1003
aVACCUMULO-3738
p1004
aVACCUMULO-3737
p1005
aVACCUMULO-3736
p1006
aVACCUMULO-3735
p1007
aVACCUMULO-3734
p1008
aVACCUMULO-3733
p1009
aVACCUMULO-3732
p1010
aVACCUMULO-3731
p1011
aVACCUMULO-3730
p1012
aVACCUMULO-3729
p1013
aVACCUMULO-3728
p1014
aVACCUMULO-3727
p1015
aVACCUMULO-3726
p1016
aVACCUMULO-3725
p1017
aVACCUMULO-3724
p1018
aVACCUMULO-3723
p1019
aVACCUMULO-3722
p1020
aVACCUMULO-3721
p1021
aVACCUMULO-3720
p1022
aVACCUMULO-3719
p1023
aVACCUMULO-3718
p1024
aVACCUMULO-3717
p1025
aVACCUMULO-3716
p1026
aVACCUMULO-3715
p1027
aVACCUMULO-3714
p1028
aVACCUMULO-3713
p1029
aVACCUMULO-3712
p1030
aVACCUMULO-3711
p1031
aVACCUMULO-3710
p1032
aVACCUMULO-3709
p1033
aVACCUMULO-3708
p1034
aVACCUMULO-3707
p1035
aVACCUMULO-3706
p1036
aVACCUMULO-3705
p1037
aVACCUMULO-3704
p1038
aVACCUMULO-3703
p1039
aVACCUMULO-3702
p1040
aVACCUMULO-3701
p1041
aVACCUMULO-3700
p1042
aVACCUMULO-3699
p1043
aVACCUMULO-3698
p1044
aVACCUMULO-3697
p1045
aVACCUMULO-3696
p1046
aVACCUMULO-3695
p1047
aVACCUMULO-3694
p1048
aVACCUMULO-3693
p1049
aVACCUMULO-3692
p1050
aVACCUMULO-3691
p1051
aVACCUMULO-3690
p1052
aVACCUMULO-3689
p1053
aVACCUMULO-3688
p1054
aVACCUMULO-3687
p1055
aVACCUMULO-3686
p1056
aVACCUMULO-3685
p1057
aVACCUMULO-3684
p1058
aVACCUMULO-3683
p1059
aVACCUMULO-3682
p1060
aVACCUMULO-3681
p1061
aVACCUMULO-3680
p1062
aVACCUMULO-3679
p1063
aVACCUMULO-3678
p1064
aVACCUMULO-3677
p1065
aVACCUMULO-3676
p1066
aVACCUMULO-3675
p1067
aVACCUMULO-3674
p1068
aVACCUMULO-3673
p1069
aVACCUMULO-3672
p1070
aVACCUMULO-3671
p1071
aVACCUMULO-3670
p1072
aVACCUMULO-3669
p1073
aVACCUMULO-3668
p1074
aVACCUMULO-3667
p1075
aVACCUMULO-3666
p1076
aVACCUMULO-3665
p1077
aVACCUMULO-3664
p1078
aVACCUMULO-3663
p1079
aVACCUMULO-3662
p1080
aVACCUMULO-3661
p1081
aVACCUMULO-3660
p1082
aVACCUMULO-3659
p1083
aVACCUMULO-3658
p1084
aVACCUMULO-3657
p1085
aVACCUMULO-3656
p1086
aVACCUMULO-3655
p1087
aVACCUMULO-3654
p1088
aVACCUMULO-3653
p1089
aVACCUMULO-3652
p1090
aVACCUMULO-3651
p1091
aVACCUMULO-3650
p1092
aVACCUMULO-3649
p1093
aVACCUMULO-3648
p1094
aVACCUMULO-3647
p1095
aVACCUMULO-3646
p1096
aVACCUMULO-3645
p1097
aVACCUMULO-3644
p1098
aVACCUMULO-3643
p1099
aVACCUMULO-3642
p1100
aVACCUMULO-3641
p1101
aVACCUMULO-3640
p1102
aVACCUMULO-3639
p1103
aVACCUMULO-3638
p1104
aVACCUMULO-3637
p1105
aVACCUMULO-3636
p1106
aVACCUMULO-3635
p1107
aVACCUMULO-3634
p1108
aVACCUMULO-3633
p1109
aVACCUMULO-3632
p1110
aVACCUMULO-3631
p1111
aVACCUMULO-3630
p1112
aVACCUMULO-3629
p1113
aVACCUMULO-3628
p1114
aVACCUMULO-3627
p1115
aVACCUMULO-3626
p1116
aVACCUMULO-3625
p1117
aVACCUMULO-3624
p1118
aVACCUMULO-3623
p1119
aVACCUMULO-3622
p1120
aVACCUMULO-3621
p1121
aVACCUMULO-3620
p1122
aVACCUMULO-3619
p1123
aVACCUMULO-3618
p1124
aVACCUMULO-3617
p1125
aVACCUMULO-3616
p1126
aVACCUMULO-3615
p1127
aVACCUMULO-3614
p1128
aVACCUMULO-3613
p1129
aVACCUMULO-3612
p1130
aVACCUMULO-3611
p1131
aVACCUMULO-3610
p1132
aVACCUMULO-3609
p1133
aVACCUMULO-3608
p1134
aVACCUMULO-3607
p1135
aVACCUMULO-3606
p1136
aVACCUMULO-3605
p1137
aVACCUMULO-3604
p1138
aVACCUMULO-3603
p1139
aVACCUMULO-3602
p1140
aVACCUMULO-3601
p1141
aVACCUMULO-3600
p1142
aVACCUMULO-3599
p1143
aVACCUMULO-3598
p1144
aVACCUMULO-3597
p1145
aVACCUMULO-3596
p1146
aVACCUMULO-3595
p1147
aVACCUMULO-3594
p1148
aVACCUMULO-3593
p1149
aVACCUMULO-3592
p1150
aVACCUMULO-3591
p1151
aVACCUMULO-3590
p1152
aVACCUMULO-3589
p1153
aVACCUMULO-3588
p1154
aVACCUMULO-3587
p1155
aVACCUMULO-3586
p1156
aVACCUMULO-3585
p1157
aVACCUMULO-3584
p1158
aVACCUMULO-3583
p1159
aVACCUMULO-3582
p1160
aVACCUMULO-3581
p1161
aVACCUMULO-3580
p1162
aVACCUMULO-3579
p1163
aVACCUMULO-3578
p1164
aVACCUMULO-3577
p1165
aVACCUMULO-3576
p1166
aVACCUMULO-3575
p1167
aVACCUMULO-3574
p1168
aVACCUMULO-3573
p1169
aVACCUMULO-3572
p1170
aVACCUMULO-3571
p1171
aVACCUMULO-3570
p1172
aVACCUMULO-3569
p1173
aVACCUMULO-3568
p1174
aVACCUMULO-3567
p1175
aVACCUMULO-3566
p1176
aVACCUMULO-3565
p1177
aVACCUMULO-3564
p1178
aVACCUMULO-3563
p1179
aVACCUMULO-3562
p1180
aVACCUMULO-3561
p1181
aVACCUMULO-3560
p1182
aVACCUMULO-3559
p1183
aVACCUMULO-3558
p1184
aVACCUMULO-3557
p1185
aVACCUMULO-3556
p1186
aVACCUMULO-3555
p1187
aVACCUMULO-3554
p1188
aVACCUMULO-3553
p1189
aVACCUMULO-3552
p1190
aVACCUMULO-3551
p1191
aVACCUMULO-3550
p1192
aVACCUMULO-3549
p1193
aVACCUMULO-3548
p1194
aVACCUMULO-3547
p1195
aVACCUMULO-3546
p1196
aVACCUMULO-3545
p1197
aVACCUMULO-3544
p1198
aVACCUMULO-3543
p1199
aVACCUMULO-3542
p1200
aVACCUMULO-3541
p1201
aVACCUMULO-3540
p1202
aVACCUMULO-3539
p1203
aVACCUMULO-3538
p1204
aVACCUMULO-3537
p1205
aVACCUMULO-3536
p1206
aVACCUMULO-3535
p1207
aVACCUMULO-3534
p1208
aVACCUMULO-3533
p1209
aVACCUMULO-3532
p1210
aVACCUMULO-3531
p1211
aVACCUMULO-3530
p1212
aVACCUMULO-3529
p1213
aVACCUMULO-3528
p1214
aVACCUMULO-3527
p1215
aVACCUMULO-3526
p1216
aVACCUMULO-3525
p1217
aVACCUMULO-3524
p1218
aVACCUMULO-3523
p1219
aVACCUMULO-3522
p1220
aVACCUMULO-3521
p1221
aVACCUMULO-3520
p1222
aVACCUMULO-3519
p1223
aVACCUMULO-3518
p1224
aVACCUMULO-3517
p1225
aVACCUMULO-3516
p1226
aVACCUMULO-3515
p1227
aVACCUMULO-3514
p1228
aVACCUMULO-3513
p1229
aVACCUMULO-3512
p1230
aVACCUMULO-3511
p1231
aVACCUMULO-3510
p1232
aVACCUMULO-3509
p1233
aVACCUMULO-3508
p1234
aVACCUMULO-3507
p1235
aVACCUMULO-3506
p1236
aVACCUMULO-3505
p1237
aVACCUMULO-3504
p1238
aVACCUMULO-3503
p1239
aVACCUMULO-3502
p1240
aVACCUMULO-3501
p1241
aVACCUMULO-3500
p1242
aVACCUMULO-3499
p1243
aVACCUMULO-3498
p1244
aVACCUMULO-3497
p1245
aVACCUMULO-3496
p1246
aVACCUMULO-3495
p1247
aVACCUMULO-3494
p1248
aVACCUMULO-3493
p1249
aVACCUMULO-3492
p1250
aVACCUMULO-3491
p1251
aVACCUMULO-3490
p1252
aVACCUMULO-3489
p1253
aVACCUMULO-3488
p1254
aVACCUMULO-3487
p1255
aVACCUMULO-3486
p1256
aVACCUMULO-3485
p1257
aVACCUMULO-3484
p1258
aVACCUMULO-3483
p1259
aVACCUMULO-3482
p1260
aVACCUMULO-3481
p1261
aVACCUMULO-3480
p1262
aVACCUMULO-3479
p1263
aVACCUMULO-3478
p1264
aVACCUMULO-3477
p1265
aVACCUMULO-3476
p1266
aVACCUMULO-3475
p1267
aVACCUMULO-3474
p1268
aVACCUMULO-3473
p1269
aVACCUMULO-3472
p1270
aVACCUMULO-3471
p1271
aVACCUMULO-3470
p1272
aVACCUMULO-3469
p1273
aVACCUMULO-3468
p1274
aVACCUMULO-3467
p1275
aVACCUMULO-3466
p1276
aVACCUMULO-3465
p1277
aVACCUMULO-3464
p1278
aVACCUMULO-3463
p1279
aVACCUMULO-3462
p1280
aVACCUMULO-3461
p1281
aVACCUMULO-3460
p1282
aVACCUMULO-3459
p1283
aVACCUMULO-3458
p1284
aVACCUMULO-3457
p1285
aVACCUMULO-3456
p1286
aVACCUMULO-3455
p1287
aVACCUMULO-3454
p1288
aVACCUMULO-3453
p1289
aVACCUMULO-3452
p1290
aVACCUMULO-3451
p1291
aVACCUMULO-3450
p1292
aVACCUMULO-3449
p1293
aVACCUMULO-3448
p1294
aVACCUMULO-3447
p1295
aVACCUMULO-3446
p1296
aVACCUMULO-3445
p1297
aVACCUMULO-3444
p1298
aVACCUMULO-3443
p1299
aVACCUMULO-3442
p1300
aVACCUMULO-3441
p1301
aVACCUMULO-3440
p1302
aVACCUMULO-3439
p1303
aVACCUMULO-3438
p1304
aVACCUMULO-3437
p1305
aVACCUMULO-3436
p1306
aVACCUMULO-3435
p1307
aVACCUMULO-3434
p1308
aVACCUMULO-3433
p1309
aVACCUMULO-3432
p1310
aVACCUMULO-3431
p1311
aVACCUMULO-3430
p1312
aVACCUMULO-3429
p1313
aVACCUMULO-3428
p1314
aVACCUMULO-3427
p1315
aVACCUMULO-3426
p1316
aVACCUMULO-3425
p1317
aVACCUMULO-3424
p1318
aVACCUMULO-3423
p1319
aVACCUMULO-3422
p1320
aVACCUMULO-3421
p1321
aVACCUMULO-3420
p1322
aVACCUMULO-3419
p1323
aVACCUMULO-3418
p1324
aVACCUMULO-3417
p1325
aVACCUMULO-3416
p1326
aVACCUMULO-3415
p1327
aVACCUMULO-3414
p1328
aVACCUMULO-3413
p1329
aVACCUMULO-3412
p1330
aVACCUMULO-3411
p1331
aVACCUMULO-3410
p1332
aVACCUMULO-3409
p1333
aVACCUMULO-3408
p1334
aVACCUMULO-3407
p1335
aVACCUMULO-3406
p1336
aVACCUMULO-3405
p1337
aVACCUMULO-3404
p1338
aVACCUMULO-3403
p1339
aVACCUMULO-3402
p1340
aVACCUMULO-3401
p1341
aVACCUMULO-3400
p1342
aVACCUMULO-3399
p1343
aVACCUMULO-3398
p1344
aVACCUMULO-3397
p1345
aVACCUMULO-3396
p1346
aVACCUMULO-3395
p1347
aVACCUMULO-3394
p1348
aVACCUMULO-3393
p1349
aVACCUMULO-3392
p1350
aVACCUMULO-3391
p1351
aVACCUMULO-3390
p1352
aVACCUMULO-3389
p1353
aVACCUMULO-3388
p1354
aVACCUMULO-3387
p1355
aVACCUMULO-3386
p1356
aVACCUMULO-3385
p1357
aVACCUMULO-3384
p1358
aVACCUMULO-3383
p1359
aVACCUMULO-3382
p1360
aVACCUMULO-3381
p1361
aVACCUMULO-3380
p1362
aVACCUMULO-3379
p1363
aVACCUMULO-3378
p1364
aVACCUMULO-3377
p1365
aVACCUMULO-3376
p1366
aVACCUMULO-3375
p1367
aVACCUMULO-3374
p1368
aVACCUMULO-3373
p1369
aVACCUMULO-3372
p1370
aVACCUMULO-3371
p1371
aVACCUMULO-3370
p1372
aVACCUMULO-3369
p1373
aVACCUMULO-3368
p1374
aVACCUMULO-3367
p1375
aVACCUMULO-3366
p1376
aVACCUMULO-3365
p1377
aVACCUMULO-3364
p1378
aVACCUMULO-3363
p1379
aVACCUMULO-3362
p1380
aVACCUMULO-3361
p1381
aVACCUMULO-3359
p1382
aVACCUMULO-3358
p1383
aVACCUMULO-3357
p1384
aVACCUMULO-3356
p1385
aVACCUMULO-3355
p1386
aVACCUMULO-3354
p1387
aVACCUMULO-3353
p1388
aVACCUMULO-3352
p1389
aVACCUMULO-3351
p1390
aVACCUMULO-3350
p1391
aVACCUMULO-3349
p1392
aVACCUMULO-3348
p1393
aVACCUMULO-3347
p1394
aVACCUMULO-3346
p1395
aVACCUMULO-3345
p1396
aVACCUMULO-3344
p1397
aVACCUMULO-3343
p1398
aVACCUMULO-3342
p1399
aVACCUMULO-3341
p1400
aVACCUMULO-3340
p1401
aVACCUMULO-3339
p1402
aVACCUMULO-3338
p1403
aVACCUMULO-3337
p1404
aVACCUMULO-3336
p1405
aVACCUMULO-3335
p1406
aVACCUMULO-3334
p1407
aVACCUMULO-3333
p1408
aVACCUMULO-3332
p1409
aVACCUMULO-3331
p1410
aVACCUMULO-3330
p1411
aVACCUMULO-3329
p1412
aVACCUMULO-3328
p1413
aVACCUMULO-3327
p1414
aVACCUMULO-3326
p1415
aVACCUMULO-3325
p1416
aVACCUMULO-3324
p1417
aVACCUMULO-3323
p1418
aVACCUMULO-3322
p1419
aVACCUMULO-3321
p1420
aVACCUMULO-3320
p1421
aVACCUMULO-3319
p1422
aVACCUMULO-3318
p1423
aVACCUMULO-3317
p1424
aVACCUMULO-3316
p1425
aVACCUMULO-3315
p1426
aVACCUMULO-3314
p1427
aVACCUMULO-3313
p1428
aVACCUMULO-3312
p1429
aVACCUMULO-3311
p1430
aVACCUMULO-3310
p1431
aVACCUMULO-3309
p1432
aVACCUMULO-3308
p1433
aVACCUMULO-3306
p1434
aVACCUMULO-3305
p1435
aVACCUMULO-3304
p1436
aVACCUMULO-3303
p1437
aVACCUMULO-3302
p1438
aVACCUMULO-3301
p1439
aVACCUMULO-3300
p1440
aVACCUMULO-3299
p1441
aVACCUMULO-3298
p1442
aVACCUMULO-3297
p1443
aVACCUMULO-3296
p1444
aVACCUMULO-3295
p1445
aVACCUMULO-3294
p1446
aVACCUMULO-3293
p1447
aVACCUMULO-3292
p1448
aVACCUMULO-3291
p1449
aVACCUMULO-3290
p1450
aVACCUMULO-3289
p1451
aVACCUMULO-3288
p1452
aVACCUMULO-3287
p1453
aVACCUMULO-3286
p1454
aVACCUMULO-3285
p1455
aVACCUMULO-3284
p1456
aVACCUMULO-3283
p1457
aVACCUMULO-3282
p1458
aVACCUMULO-3281
p1459
aVACCUMULO-3280
p1460
aVACCUMULO-3279
p1461
aVACCUMULO-3278
p1462
aVACCUMULO-3277
p1463
aVACCUMULO-3276
p1464
aVACCUMULO-3275
p1465
aVACCUMULO-3274
p1466
aVACCUMULO-3273
p1467
aVACCUMULO-3272
p1468
aVACCUMULO-3271
p1469
aVACCUMULO-3270
p1470
aVACCUMULO-3269
p1471
aVACCUMULO-3268
p1472
aVACCUMULO-3267
p1473
aVACCUMULO-3266
p1474
aVACCUMULO-3265
p1475
aVACCUMULO-3264
p1476
aVACCUMULO-3263
p1477
aVACCUMULO-3262
p1478
aVACCUMULO-3261
p1479
aVACCUMULO-3260
p1480
aVACCUMULO-3259
p1481
aVACCUMULO-3258
p1482
aVACCUMULO-3257
p1483
aVACCUMULO-3256
p1484
aVACCUMULO-3255
p1485
aVACCUMULO-3254
p1486
aVACCUMULO-3253
p1487
aVACCUMULO-3252
p1488
aVACCUMULO-3251
p1489
aVACCUMULO-3250
p1490
aVACCUMULO-3249
p1491
aVACCUMULO-3248
p1492
aVACCUMULO-3247
p1493
aVACCUMULO-3246
p1494
aVACCUMULO-3245
p1495
aVACCUMULO-3244
p1496
aVACCUMULO-3243
p1497
aVACCUMULO-3242
p1498
aVACCUMULO-3241
p1499
aVACCUMULO-3240
p1500
aVACCUMULO-3239
p1501
aVACCUMULO-3238
p1502
aVACCUMULO-3237
p1503
aVACCUMULO-3236
p1504
aVACCUMULO-3235
p1505
aVACCUMULO-3234
p1506
aVACCUMULO-3233
p1507
aVACCUMULO-3232
p1508
aVACCUMULO-3231
p1509
aVACCUMULO-3230
p1510
aVACCUMULO-3229
p1511
aVACCUMULO-3228
p1512
aVACCUMULO-3227
p1513
aVACCUMULO-3226
p1514
aVACCUMULO-3225
p1515
aVACCUMULO-3224
p1516
aVACCUMULO-3223
p1517
aVACCUMULO-3222
p1518
aVACCUMULO-3221
p1519
aVACCUMULO-3220
p1520
aVACCUMULO-3219
p1521
aVACCUMULO-3218
p1522
aVACCUMULO-3217
p1523
aVACCUMULO-3216
p1524
aVACCUMULO-3215
p1525
aVACCUMULO-3214
p1526
aVACCUMULO-3213
p1527
aVACCUMULO-3212
p1528
aVACCUMULO-3211
p1529
aVACCUMULO-3210
p1530
aVACCUMULO-3209
p1531
aVACCUMULO-3208
p1532
aVACCUMULO-3207
p1533
aVACCUMULO-3206
p1534
aVACCUMULO-3205
p1535
aVACCUMULO-3204
p1536
aVACCUMULO-3203
p1537
aVACCUMULO-3202
p1538
aVACCUMULO-3201
p1539
aVACCUMULO-3200
p1540
aVACCUMULO-3199
p1541
aVACCUMULO-3198
p1542
aVACCUMULO-3197
p1543
aVACCUMULO-3196
p1544
aVACCUMULO-3194
p1545
aVACCUMULO-3193
p1546
aVACCUMULO-3192
p1547
aVACCUMULO-3191
p1548
aVACCUMULO-3190
p1549
aVACCUMULO-3189
p1550
aVACCUMULO-3188
p1551
aVACCUMULO-3187
p1552
aVACCUMULO-3186
p1553
aVACCUMULO-3185
p1554
aVACCUMULO-3184
p1555
aVACCUMULO-3183
p1556
aVACCUMULO-3182
p1557
aVACCUMULO-3181
p1558
aVACCUMULO-3180
p1559
aVACCUMULO-3179
p1560
aVACCUMULO-3178
p1561
aVACCUMULO-3177
p1562
aVACCUMULO-3176
p1563
aVACCUMULO-3175
p1564
aVACCUMULO-3174
p1565
aVACCUMULO-3173
p1566
aVACCUMULO-3172
p1567
aVACCUMULO-3171
p1568
aVACCUMULO-3170
p1569
aVACCUMULO-3169
p1570
aVACCUMULO-3168
p1571
aVACCUMULO-3167
p1572
aVACCUMULO-3166
p1573
aVACCUMULO-3165
p1574
aVACCUMULO-3164
p1575
aVACCUMULO-3163
p1576
aVACCUMULO-3162
p1577
aVACCUMULO-3161
p1578
aVACCUMULO-3160
p1579
aVACCUMULO-3159
p1580
aVACCUMULO-3158
p1581
aVACCUMULO-3157
p1582
aVACCUMULO-3156
p1583
aVACCUMULO-3155
p1584
aVACCUMULO-3154
p1585
aVACCUMULO-3153
p1586
aVACCUMULO-3152
p1587
aVACCUMULO-3151
p1588
aVACCUMULO-3150
p1589
aVACCUMULO-3149
p1590
aVACCUMULO-3148
p1591
aVACCUMULO-3147
p1592
aVACCUMULO-3146
p1593
aVACCUMULO-3145
p1594
aVACCUMULO-3144
p1595
aVACCUMULO-3143
p1596
aVACCUMULO-3142
p1597
aVACCUMULO-3141
p1598
aVACCUMULO-3140
p1599
aVACCUMULO-3139
p1600
aVACCUMULO-3138
p1601
aVACCUMULO-3137
p1602
aVACCUMULO-3136
p1603
aVACCUMULO-3135
p1604
aVACCUMULO-3134
p1605
aVACCUMULO-3133
p1606
aVACCUMULO-3132
p1607
aVACCUMULO-3131
p1608
aVACCUMULO-3130
p1609
aVACCUMULO-3129
p1610
aVACCUMULO-3128
p1611
aVACCUMULO-3127
p1612
aVACCUMULO-3126
p1613
aVACCUMULO-3125
p1614
aVACCUMULO-3124
p1615
aVACCUMULO-3123
p1616
aVACCUMULO-3122
p1617
aVACCUMULO-3121
p1618
aVACCUMULO-3120
p1619
aVACCUMULO-3119
p1620
aVACCUMULO-3118
p1621
aVACCUMULO-3117
p1622
aVACCUMULO-3116
p1623
aVACCUMULO-3115
p1624
aVACCUMULO-3114
p1625
aVACCUMULO-3113
p1626
aVACCUMULO-3112
p1627
aVACCUMULO-3111
p1628
aVACCUMULO-3110
p1629
aVACCUMULO-3109
p1630
aVACCUMULO-3108
p1631
aVACCUMULO-3107
p1632
aVACCUMULO-3106
p1633
aVACCUMULO-3105
p1634
aVACCUMULO-3104
p1635
aVACCUMULO-3103
p1636
aVACCUMULO-3102
p1637
aVACCUMULO-3101
p1638
aVACCUMULO-3100
p1639
aVACCUMULO-3099
p1640
aVACCUMULO-3098
p1641
aVACCUMULO-3097
p1642
aVACCUMULO-3096
p1643
aVACCUMULO-3095
p1644
aVACCUMULO-3094
p1645
aVACCUMULO-3093
p1646
aVACCUMULO-3092
p1647
aVACCUMULO-3091
p1648
aVACCUMULO-3090
p1649
aVACCUMULO-3089
p1650
aVACCUMULO-3088
p1651
aVACCUMULO-3087
p1652
aVACCUMULO-3086
p1653
aVACCUMULO-3085
p1654
aVACCUMULO-3084
p1655
aVACCUMULO-3083
p1656
aVACCUMULO-3082
p1657
aVACCUMULO-3081
p1658
aVACCUMULO-3080
p1659
aVACCUMULO-3079
p1660
aVACCUMULO-3078
p1661
aVACCUMULO-3077
p1662
aVACCUMULO-3076
p1663
aVACCUMULO-3075
p1664
aVACCUMULO-3074
p1665
aVACCUMULO-3073
p1666
aVACCUMULO-3072
p1667
aVACCUMULO-3071
p1668
aVACCUMULO-3070
p1669
aVACCUMULO-3069
p1670
aVACCUMULO-3068
p1671
aVACCUMULO-3067
p1672
aVACCUMULO-3066
p1673
aVACCUMULO-3065
p1674
aVACCUMULO-3064
p1675
aVACCUMULO-3063
p1676
aVACCUMULO-3062
p1677
aVACCUMULO-3061
p1678
aVACCUMULO-3060
p1679
aVACCUMULO-3059
p1680
aVACCUMULO-3058
p1681
aVACCUMULO-3057
p1682
aVACCUMULO-3056
p1683
aVACCUMULO-3055
p1684
aVACCUMULO-3054
p1685
aVACCUMULO-3053
p1686
aVACCUMULO-3052
p1687
aVACCUMULO-3051
p1688
aVACCUMULO-3050
p1689
aVACCUMULO-3049
p1690
aVACCUMULO-3048
p1691
aVACCUMULO-3047
p1692
aVACCUMULO-3046
p1693
aVACCUMULO-3045
p1694
aVACCUMULO-3044
p1695
aVACCUMULO-3043
p1696
aVACCUMULO-3042
p1697
aVACCUMULO-3041
p1698
aVACCUMULO-3040
p1699
aVACCUMULO-3039
p1700
aVACCUMULO-3038
p1701
aVACCUMULO-3037
p1702
aVACCUMULO-3036
p1703
aVACCUMULO-3035
p1704
aVACCUMULO-3034
p1705
aVACCUMULO-3033
p1706
aVACCUMULO-3032
p1707
aVACCUMULO-3031
p1708
aVACCUMULO-3030
p1709
aVACCUMULO-3029
p1710
aVACCUMULO-3028
p1711
aVACCUMULO-3027
p1712
aVACCUMULO-3026
p1713
aVACCUMULO-3025
p1714
aVACCUMULO-3024
p1715
aVACCUMULO-3023
p1716
aVACCUMULO-3022
p1717
aVACCUMULO-3021
p1718
aVACCUMULO-3020
p1719
aVACCUMULO-3019
p1720
aVACCUMULO-3018
p1721
aVACCUMULO-3017
p1722
aVACCUMULO-3016
p1723
aVACCUMULO-3015
p1724
aVACCUMULO-3014
p1725
aVACCUMULO-3013
p1726
aVACCUMULO-3012
p1727
aVACCUMULO-3011
p1728
aVACCUMULO-3010
p1729
aVACCUMULO-3009
p1730
aVACCUMULO-3008
p1731
aVACCUMULO-3007
p1732
aVACCUMULO-3006
p1733
aVACCUMULO-3005
p1734
aVACCUMULO-3004
p1735
aVACCUMULO-3003
p1736
aVACCUMULO-3002
p1737
aVACCUMULO-3001
p1738
aVACCUMULO-3000
p1739
aVACCUMULO-2999
p1740
aVACCUMULO-2998
p1741
aVACCUMULO-2997
p1742
aVACCUMULO-2996
p1743
aVACCUMULO-2995
p1744
aVACCUMULO-2994
p1745
aVACCUMULO-2993
p1746
aVACCUMULO-2992
p1747
aVACCUMULO-2991
p1748
aVACCUMULO-2990
p1749
aVACCUMULO-2989
p1750
aVACCUMULO-2988
p1751
aVACCUMULO-2987
p1752
aVACCUMULO-2986
p1753
aVACCUMULO-2985
p1754
aVACCUMULO-2984
p1755
aVACCUMULO-2983
p1756
aVACCUMULO-2982
p1757
aVACCUMULO-2981
p1758
aVACCUMULO-2980
p1759
aVACCUMULO-2979
p1760
aVACCUMULO-2978
p1761
aVACCUMULO-2977
p1762
aVACCUMULO-2976
p1763
aVACCUMULO-2975
p1764
aVACCUMULO-2974
p1765
aVACCUMULO-2973
p1766
aVACCUMULO-2972
p1767
aVACCUMULO-2971
p1768
aVACCUMULO-2970
p1769
aVACCUMULO-2969
p1770
aVACCUMULO-2968
p1771
aVACCUMULO-2967
p1772
aVACCUMULO-2966
p1773
aVACCUMULO-2965
p1774
aVACCUMULO-2964
p1775
aVACCUMULO-2963
p1776
aVACCUMULO-2962
p1777
aVACCUMULO-2961
p1778
aVACCUMULO-2960
p1779
aVACCUMULO-2959
p1780
aVACCUMULO-2958
p1781
aVACCUMULO-2957
p1782
aVACCUMULO-2956
p1783
aVACCUMULO-2955
p1784
aVACCUMULO-2954
p1785
aVACCUMULO-2953
p1786
aVACCUMULO-2952
p1787
aVACCUMULO-2951
p1788
aVACCUMULO-2950
p1789
aVACCUMULO-2949
p1790
aVACCUMULO-2948
p1791
aVACCUMULO-2947
p1792
aVACCUMULO-2946
p1793
aVACCUMULO-2945
p1794
aVACCUMULO-2944
p1795
aVACCUMULO-2943
p1796
aVACCUMULO-2942
p1797
aVACCUMULO-2941
p1798
aVACCUMULO-2940
p1799
aVACCUMULO-2939
p1800
aVACCUMULO-2938
p1801
aVACCUMULO-2937
p1802
aVACCUMULO-2936
p1803
aVACCUMULO-2935
p1804
aVACCUMULO-2934
p1805
aVACCUMULO-2933
p1806
aVACCUMULO-2932
p1807
aVACCUMULO-2931
p1808
aVACCUMULO-2930
p1809
aVACCUMULO-2929
p1810
aVACCUMULO-2928
p1811
aVACCUMULO-2927
p1812
aVACCUMULO-2926
p1813
aVACCUMULO-2925
p1814
aVACCUMULO-2924
p1815
aVACCUMULO-2923
p1816
aVACCUMULO-2922
p1817
aVACCUMULO-2921
p1818
aVACCUMULO-2920
p1819
aVACCUMULO-2919
p1820
aVACCUMULO-2918
p1821
aVACCUMULO-2917
p1822
aVACCUMULO-2916
p1823
aVACCUMULO-2915
p1824
aVACCUMULO-2914
p1825
aVACCUMULO-2913
p1826
aVACCUMULO-2912
p1827
aVACCUMULO-2911
p1828
aVACCUMULO-2910
p1829
aVACCUMULO-2909
p1830
aVACCUMULO-2908
p1831
aVACCUMULO-2907
p1832
aVACCUMULO-2906
p1833
aVACCUMULO-2905
p1834
aVACCUMULO-2904
p1835
aVACCUMULO-2903
p1836
aVACCUMULO-2902
p1837
aVACCUMULO-2901
p1838
aVACCUMULO-2900
p1839
aVACCUMULO-2899
p1840
aVACCUMULO-2898
p1841
aVACCUMULO-2897
p1842
aVACCUMULO-2896
p1843
aVACCUMULO-2895
p1844
aVACCUMULO-2894
p1845
aVACCUMULO-2893
p1846
aVACCUMULO-2892
p1847
aVACCUMULO-2891
p1848
aVACCUMULO-2890
p1849
aVACCUMULO-2889
p1850
aVACCUMULO-2888
p1851
aVACCUMULO-2887
p1852
aVACCUMULO-2886
p1853
aVACCUMULO-2885
p1854
aVACCUMULO-2884
p1855
aVACCUMULO-2883
p1856
aVACCUMULO-2882
p1857
aVACCUMULO-2881
p1858
aVACCUMULO-2880
p1859
aVACCUMULO-2879
p1860
aVACCUMULO-2878
p1861
aVACCUMULO-2877
p1862
aVACCUMULO-2876
p1863
aVACCUMULO-2875
p1864
aVACCUMULO-2874
p1865
aVACCUMULO-2873
p1866
aVACCUMULO-2872
p1867
aVACCUMULO-2871
p1868
aVACCUMULO-2870
p1869
aVACCUMULO-2869
p1870
aVACCUMULO-2868
p1871
aVACCUMULO-2867
p1872
aVACCUMULO-2866
p1873
aVACCUMULO-2865
p1874
aVACCUMULO-2864
p1875
aVACCUMULO-2863
p1876
aVACCUMULO-2862
p1877
aVACCUMULO-2861
p1878
aVACCUMULO-2860
p1879
aVACCUMULO-2859
p1880
aVACCUMULO-2858
p1881
aVACCUMULO-2857
p1882
aVACCUMULO-2856
p1883
aVACCUMULO-2855
p1884
aVACCUMULO-2854
p1885
aVACCUMULO-2853
p1886
aVACCUMULO-2852
p1887
aVACCUMULO-2851
p1888
aVACCUMULO-2850
p1889
aVACCUMULO-2849
p1890
aVACCUMULO-2848
p1891
aVACCUMULO-2847
p1892
aVACCUMULO-2846
p1893
aVACCUMULO-2845
p1894
aVACCUMULO-2844
p1895
aVACCUMULO-2843
p1896
aVACCUMULO-2842
p1897
aVACCUMULO-2841
p1898
aVACCUMULO-2840
p1899
aVACCUMULO-2839
p1900
aVACCUMULO-2838
p1901
aVACCUMULO-2837
p1902
aVACCUMULO-2836
p1903
aVACCUMULO-2835
p1904
aVACCUMULO-2834
p1905
aVACCUMULO-2833
p1906
aVACCUMULO-2832
p1907
aVACCUMULO-2831
p1908
aVACCUMULO-2830
p1909
aVACCUMULO-2829
p1910
aVACCUMULO-2828
p1911
aVACCUMULO-2827
p1912
aVACCUMULO-2826
p1913
aVACCUMULO-2825
p1914
aVACCUMULO-2824
p1915
aVACCUMULO-2823
p1916
aVACCUMULO-2822
p1917
aVACCUMULO-2821
p1918
aVACCUMULO-2820
p1919
aVACCUMULO-2819
p1920
aVACCUMULO-2818
p1921
aVACCUMULO-2817
p1922
aVACCUMULO-2816
p1923
aVACCUMULO-2815
p1924
aVACCUMULO-2814
p1925
aVACCUMULO-2813
p1926
aVACCUMULO-2812
p1927
aVACCUMULO-2811
p1928
aVACCUMULO-2810
p1929
aVACCUMULO-2809
p1930
aVACCUMULO-2808
p1931
aVACCUMULO-2807
p1932
aVACCUMULO-2806
p1933
aVACCUMULO-2805
p1934
aVACCUMULO-2804
p1935
aVACCUMULO-2803
p1936
aVACCUMULO-2802
p1937
aVACCUMULO-2801
p1938
aVACCUMULO-2800
p1939
aVACCUMULO-2799
p1940
aVACCUMULO-2798
p1941
aVACCUMULO-2797
p1942
aVACCUMULO-2796
p1943
aVACCUMULO-2795
p1944
aVACCUMULO-2794
p1945
aVACCUMULO-2793
p1946
aVACCUMULO-2792
p1947
aVACCUMULO-2791
p1948
aVACCUMULO-2790
p1949
aVACCUMULO-2789
p1950
aVACCUMULO-2788
p1951
aVACCUMULO-2787
p1952
aVACCUMULO-2786
p1953
aVACCUMULO-2785
p1954
aVACCUMULO-2784
p1955
aVACCUMULO-2783
p1956
aVACCUMULO-2782
p1957
aVACCUMULO-2781
p1958
aVACCUMULO-2780
p1959
aVACCUMULO-2779
p1960
aVACCUMULO-2778
p1961
aVACCUMULO-2777
p1962
aVACCUMULO-2776
p1963
aVACCUMULO-2775
p1964
aVACCUMULO-2774
p1965
aVACCUMULO-2773
p1966
aVACCUMULO-2772
p1967
aVACCUMULO-2771
p1968
aVACCUMULO-2770
p1969
aVACCUMULO-2769
p1970
aVACCUMULO-2768
p1971
aVACCUMULO-2767
p1972
aVACCUMULO-2766
p1973
aVACCUMULO-2765
p1974
aVACCUMULO-2764
p1975
aVACCUMULO-2763
p1976
aVACCUMULO-2762
p1977
aVACCUMULO-2761
p1978
aVACCUMULO-2760
p1979
aVACCUMULO-2759
p1980
aVACCUMULO-2758
p1981
aVACCUMULO-2757
p1982
aVACCUMULO-2756
p1983
aVACCUMULO-2755
p1984
aVACCUMULO-2754
p1985
aVACCUMULO-2753
p1986
aVACCUMULO-2752
p1987
aVACCUMULO-2751
p1988
aVACCUMULO-2750
p1989
aVACCUMULO-2749
p1990
aVACCUMULO-2748
p1991
aVACCUMULO-2747
p1992
aVACCUMULO-2746
p1993
aVACCUMULO-2745
p1994
aVACCUMULO-2744
p1995
aVACCUMULO-2743
p1996
aVACCUMULO-2742
p1997
aVACCUMULO-2741
p1998
aVACCUMULO-2740
p1999
aVACCUMULO-2739
p2000
aVACCUMULO-2738
p2001
aVACCUMULO-2737
p2002
aVACCUMULO-2736
p2003
aVACCUMULO-2735
p2004
aVACCUMULO-2734
p2005
aVACCUMULO-2733
p2006
aVACCUMULO-2732
p2007
aVACCUMULO-2731
p2008
aVACCUMULO-2730
p2009
aVACCUMULO-2729
p2010
aVACCUMULO-2728
p2011
aVACCUMULO-2727
p2012
aVACCUMULO-2726
p2013
aVACCUMULO-2725
p2014
aVACCUMULO-2724
p2015
aVACCUMULO-2723
p2016
aVACCUMULO-2722
p2017
aVACCUMULO-2721
p2018
aVACCUMULO-2720
p2019
aVACCUMULO-2719
p2020
aVACCUMULO-2718
p2021
aVACCUMULO-2717
p2022
aVACCUMULO-2716
p2023
aVACCUMULO-2715
p2024
aVACCUMULO-2714
p2025
aVACCUMULO-2713
p2026
aVACCUMULO-2712
p2027
aVACCUMULO-2711
p2028
aVACCUMULO-2710
p2029
aVACCUMULO-2709
p2030
aVACCUMULO-2708
p2031
aVACCUMULO-2707
p2032
aVACCUMULO-2706
p2033
aVACCUMULO-2705
p2034
aVACCUMULO-2704
p2035
aVACCUMULO-2703
p2036
aVACCUMULO-2702
p2037
aVACCUMULO-2701
p2038
aVACCUMULO-2700
p2039
aVACCUMULO-2699
p2040
aVACCUMULO-2698
p2041
aVACCUMULO-2697
p2042
aVACCUMULO-2696
p2043
aVACCUMULO-2695
p2044
aVACCUMULO-2694
p2045
aVACCUMULO-2693
p2046
aVACCUMULO-2692
p2047
aVACCUMULO-2691
p2048
aVACCUMULO-2690
p2049
aVACCUMULO-2689
p2050
aVACCUMULO-2688
p2051
aVACCUMULO-2687
p2052
aVACCUMULO-2686
p2053
aVACCUMULO-2685
p2054
aVACCUMULO-2684
p2055
aVACCUMULO-2683
p2056
aVACCUMULO-2682
p2057
aVACCUMULO-2681
p2058
aVACCUMULO-2680
p2059
aVACCUMULO-2679
p2060
aVACCUMULO-2678
p2061
aVACCUMULO-2677
p2062
aVACCUMULO-2676
p2063
aVACCUMULO-2675
p2064
aVACCUMULO-2674
p2065
aVACCUMULO-2673
p2066
aVACCUMULO-2672
p2067
aVACCUMULO-2671
p2068
aVACCUMULO-2670
p2069
aVACCUMULO-2669
p2070
aVACCUMULO-2668
p2071
aVACCUMULO-2667
p2072
aVACCUMULO-2666
p2073
aVACCUMULO-2665
p2074
aVACCUMULO-2664
p2075
aVACCUMULO-2663
p2076
aVACCUMULO-2662
p2077
aVACCUMULO-2661
p2078
aVACCUMULO-2660
p2079
aVACCUMULO-2659
p2080
aVACCUMULO-2658
p2081
aVACCUMULO-2657
p2082
aVACCUMULO-2656
p2083
aVACCUMULO-2655
p2084
aVACCUMULO-2654
p2085
aVACCUMULO-2653
p2086
aVACCUMULO-2652
p2087
aVACCUMULO-2651
p2088
aVACCUMULO-2650
p2089
aVACCUMULO-2649
p2090
aVACCUMULO-2648
p2091
aVACCUMULO-2647
p2092
aVACCUMULO-2646
p2093
aVACCUMULO-2645
p2094
aVACCUMULO-2644
p2095
aVACCUMULO-2643
p2096
aVACCUMULO-2642
p2097
aVACCUMULO-2641
p2098
aVACCUMULO-2640
p2099
aVACCUMULO-2639
p2100
aVACCUMULO-2638
p2101
aVACCUMULO-2637
p2102
aVACCUMULO-2636
p2103
aVACCUMULO-2635
p2104
aVACCUMULO-2634
p2105
aVACCUMULO-2633
p2106
aVACCUMULO-2632
p2107
aVACCUMULO-2631
p2108
aVACCUMULO-2630
p2109
aVACCUMULO-2629
p2110
aVACCUMULO-2628
p2111
aVACCUMULO-2627
p2112
aVACCUMULO-2626
p2113
aVACCUMULO-2625
p2114
aVACCUMULO-2624
p2115
aVACCUMULO-2623
p2116
aVACCUMULO-2622
p2117
aVACCUMULO-2621
p2118
aVACCUMULO-2620
p2119
aVACCUMULO-2619
p2120
aVACCUMULO-2618
p2121
aVACCUMULO-2617
p2122
aVACCUMULO-2616
p2123
aVACCUMULO-2615
p2124
aVACCUMULO-2614
p2125
aVACCUMULO-2613
p2126
aVACCUMULO-2612
p2127
aVACCUMULO-2611
p2128
aVACCUMULO-2610
p2129
aVACCUMULO-2609
p2130
aVACCUMULO-2608
p2131
aVACCUMULO-2607
p2132
aVACCUMULO-2606
p2133
aVACCUMULO-2605
p2134
aVACCUMULO-2604
p2135
aVACCUMULO-2603
p2136
aVACCUMULO-2602
p2137
aVACCUMULO-2601
p2138
aVACCUMULO-2600
p2139
aVACCUMULO-2599
p2140
aVACCUMULO-2598
p2141
aVACCUMULO-2597
p2142
aVACCUMULO-2596
p2143
aVACCUMULO-2595
p2144
aVACCUMULO-2594
p2145
aVACCUMULO-2593
p2146
aVACCUMULO-2592
p2147
aVACCUMULO-2591
p2148
aVACCUMULO-2590
p2149
aVACCUMULO-2589
p2150
aVACCUMULO-2588
p2151
aVACCUMULO-2587
p2152
aVACCUMULO-2586
p2153
aVACCUMULO-2585
p2154
aVACCUMULO-2584
p2155
aVACCUMULO-2583
p2156
aVACCUMULO-2582
p2157
aVACCUMULO-2581
p2158
aVACCUMULO-2580
p2159
aVACCUMULO-2579
p2160
aVACCUMULO-2578
p2161
aVACCUMULO-2577
p2162
aVACCUMULO-2576
p2163
aVACCUMULO-2575
p2164
aVACCUMULO-2574
p2165
aVACCUMULO-2573
p2166
aVACCUMULO-2572
p2167
aVACCUMULO-2571
p2168
aVACCUMULO-2570
p2169
aVACCUMULO-2569
p2170
aVACCUMULO-2568
p2171
aVACCUMULO-2567
p2172
aVACCUMULO-2566
p2173
aVACCUMULO-2565
p2174
aVACCUMULO-2564
p2175
aVACCUMULO-2563
p2176
aVACCUMULO-2562
p2177
aVACCUMULO-2561
p2178
aVACCUMULO-2560
p2179
aVACCUMULO-2559
p2180
aVACCUMULO-2558
p2181
aVACCUMULO-2557
p2182
aVACCUMULO-2556
p2183
aVACCUMULO-2555
p2184
aVACCUMULO-2554
p2185
aVACCUMULO-2553
p2186
aVACCUMULO-2552
p2187
aVACCUMULO-2551
p2188
aVACCUMULO-2550
p2189
aVACCUMULO-2549
p2190
aVACCUMULO-2548
p2191
aVACCUMULO-2547
p2192
aVACCUMULO-2546
p2193
aVACCUMULO-2545
p2194
aVACCUMULO-2544
p2195
aVACCUMULO-2543
p2196
aVACCUMULO-2542
p2197
aVACCUMULO-2541
p2198
aVACCUMULO-2540
p2199
aVACCUMULO-2539
p2200
aVACCUMULO-2538
p2201
aVACCUMULO-2537
p2202
aVACCUMULO-2536
p2203
aVACCUMULO-2535
p2204
aVACCUMULO-2534
p2205
aVACCUMULO-2533
p2206
aVACCUMULO-2532
p2207
aVACCUMULO-2531
p2208
aVACCUMULO-2530
p2209
aVACCUMULO-2529
p2210
aVACCUMULO-2528
p2211
aVACCUMULO-2527
p2212
aVACCUMULO-2526
p2213
aVACCUMULO-2525
p2214
aVACCUMULO-2524
p2215
aVACCUMULO-2523
p2216
aVACCUMULO-2522
p2217
aVACCUMULO-2521
p2218
aVACCUMULO-2520
p2219
aVACCUMULO-2519
p2220
aVACCUMULO-2518
p2221
aVACCUMULO-2517
p2222
aVACCUMULO-2516
p2223
aVACCUMULO-2515
p2224
aVACCUMULO-2514
p2225
aVACCUMULO-2513
p2226
aVACCUMULO-2512
p2227
aVACCUMULO-2511
p2228
aVACCUMULO-2510
p2229
aVACCUMULO-2509
p2230
aVACCUMULO-2508
p2231
aVACCUMULO-2507
p2232
aVACCUMULO-2506
p2233
aVACCUMULO-2505
p2234
aVACCUMULO-2504
p2235
aVACCUMULO-2503
p2236
aVACCUMULO-2502
p2237
aVACCUMULO-2501
p2238
aVACCUMULO-2500
p2239
aVACCUMULO-2499
p2240
aVACCUMULO-2498
p2241
aVACCUMULO-2497
p2242
aVACCUMULO-2496
p2243
aVACCUMULO-2495
p2244
aVACCUMULO-2494
p2245
aVACCUMULO-2493
p2246
aVACCUMULO-2492
p2247
aVACCUMULO-2491
p2248
aVACCUMULO-2490
p2249
aVACCUMULO-2489
p2250
aVACCUMULO-2488
p2251
aVACCUMULO-2487
p2252
aVACCUMULO-2486
p2253
aVACCUMULO-2485
p2254
aVACCUMULO-2484
p2255
aVACCUMULO-2483
p2256
aVACCUMULO-2482
p2257
aVACCUMULO-2481
p2258
aVACCUMULO-2480
p2259
aVACCUMULO-2479
p2260
aVACCUMULO-2478
p2261
aVACCUMULO-2477
p2262
aVACCUMULO-2476
p2263
aVACCUMULO-2475
p2264
aVACCUMULO-2474
p2265
aVACCUMULO-2473
p2266
aVACCUMULO-2472
p2267
aVACCUMULO-2471
p2268
aVACCUMULO-2470
p2269
aVACCUMULO-2469
p2270
aVACCUMULO-2468
p2271
aVACCUMULO-2467
p2272
aVACCUMULO-2466
p2273
aVACCUMULO-2465
p2274
aVACCUMULO-2464
p2275
aVACCUMULO-2463
p2276
aVACCUMULO-2462
p2277
aVACCUMULO-2461
p2278
aVACCUMULO-2460
p2279
aVACCUMULO-2459
p2280
aVACCUMULO-2458
p2281
aVACCUMULO-2457
p2282
aVACCUMULO-2456
p2283
aVACCUMULO-2455
p2284
aVACCUMULO-2454
p2285
aVACCUMULO-2453
p2286
aVACCUMULO-2452
p2287
aVACCUMULO-2451
p2288
aVACCUMULO-2450
p2289
aVACCUMULO-2449
p2290
aVACCUMULO-2448
p2291
aVACCUMULO-2447
p2292
aVACCUMULO-2446
p2293
aVACCUMULO-2445
p2294
aVACCUMULO-2444
p2295
aVACCUMULO-2443
p2296
aVACCUMULO-2442
p2297
aVACCUMULO-2441
p2298
aVACCUMULO-2440
p2299
aVACCUMULO-2439
p2300
aVACCUMULO-2438
p2301
aVACCUMULO-2437
p2302
aVACCUMULO-2436
p2303
aVACCUMULO-2435
p2304
aVACCUMULO-2434
p2305
aVACCUMULO-2433
p2306
aVACCUMULO-2432
p2307
aVACCUMULO-2431
p2308
aVACCUMULO-2430
p2309
aVACCUMULO-2429
p2310
aVACCUMULO-2428
p2311
aVACCUMULO-2427
p2312
aVACCUMULO-2426
p2313
aVACCUMULO-2425
p2314
aVACCUMULO-2424
p2315
aVACCUMULO-2423
p2316
aVACCUMULO-2422
p2317
aVACCUMULO-2421
p2318
aVACCUMULO-2420
p2319
aVACCUMULO-2419
p2320
aVACCUMULO-2418
p2321
aVACCUMULO-2417
p2322
aVACCUMULO-2416
p2323
aVACCUMULO-2415
p2324
aVACCUMULO-2414
p2325
aVACCUMULO-2413
p2326
aVACCUMULO-2412
p2327
aVACCUMULO-2411
p2328
aVACCUMULO-2410
p2329
aVACCUMULO-2409
p2330
aVACCUMULO-2408
p2331
aVACCUMULO-2407
p2332
aVACCUMULO-2406
p2333
aVACCUMULO-2405
p2334
aVACCUMULO-2404
p2335
aVACCUMULO-2403
p2336
aVACCUMULO-2402
p2337
aVACCUMULO-2401
p2338
aVACCUMULO-2400
p2339
aVACCUMULO-2399
p2340
aVACCUMULO-2398
p2341
aVACCUMULO-2397
p2342
aVACCUMULO-2396
p2343
aVACCUMULO-2395
p2344
aVACCUMULO-2394
p2345
aVACCUMULO-2393
p2346
aVACCUMULO-2392
p2347
aVACCUMULO-2391
p2348
aVACCUMULO-2390
p2349
aVACCUMULO-2389
p2350
aVACCUMULO-2388
p2351
aVACCUMULO-2387
p2352
aVACCUMULO-2386
p2353
aVACCUMULO-2385
p2354
aVACCUMULO-2384
p2355
aVACCUMULO-2383
p2356
aVACCUMULO-2382
p2357
aVACCUMULO-2381
p2358
aVACCUMULO-2380
p2359
aVACCUMULO-2379
p2360
aVACCUMULO-2378
p2361
aVACCUMULO-2377
p2362
aVACCUMULO-2376
p2363
aVACCUMULO-2375
p2364
aVACCUMULO-2374
p2365
aVACCUMULO-2373
p2366
aVACCUMULO-2372
p2367
aVACCUMULO-2371
p2368
aVACCUMULO-2370
p2369
aVACCUMULO-2369
p2370
aVACCUMULO-2368
p2371
aVACCUMULO-2367
p2372
aVACCUMULO-2366
p2373
aVACCUMULO-2365
p2374
aVACCUMULO-2364
p2375
aVACCUMULO-2363
p2376
aVACCUMULO-2362
p2377
aVACCUMULO-2361
p2378
aVACCUMULO-2360
p2379
aVACCUMULO-2359
p2380
aVACCUMULO-2358
p2381
aVACCUMULO-2357
p2382
aVACCUMULO-2356
p2383
aVACCUMULO-2355
p2384
aVACCUMULO-2354
p2385
aVACCUMULO-2353
p2386
aVACCUMULO-2352
p2387
aVACCUMULO-2351
p2388
aVACCUMULO-2350
p2389
aVACCUMULO-2349
p2390
aVACCUMULO-2348
p2391
aVACCUMULO-2347
p2392
aVACCUMULO-2346
p2393
aVACCUMULO-2345
p2394
aVACCUMULO-2344
p2395
aVACCUMULO-2343
p2396
aVACCUMULO-2342
p2397
aVACCUMULO-2341
p2398
aVACCUMULO-2340
p2399
aVACCUMULO-2339
p2400
aVACCUMULO-2338
p2401
aVACCUMULO-2337
p2402
aVACCUMULO-2336
p2403
aVACCUMULO-2335
p2404
aVACCUMULO-2334
p2405
aVACCUMULO-2333
p2406
aVACCUMULO-2332
p2407
aVACCUMULO-2331
p2408
aVACCUMULO-2330
p2409
aVACCUMULO-2329
p2410
aVACCUMULO-2328
p2411
aVACCUMULO-2327
p2412
aVACCUMULO-2326
p2413
aVACCUMULO-2325
p2414
aVACCUMULO-2324
p2415
aVACCUMULO-2323
p2416
aVACCUMULO-2322
p2417
aVACCUMULO-2321
p2418
aVACCUMULO-2320
p2419
aVACCUMULO-2319
p2420
aVACCUMULO-2318
p2421
aVACCUMULO-2317
p2422
aVACCUMULO-2316
p2423
aVACCUMULO-2315
p2424
aVACCUMULO-2314
p2425
aVACCUMULO-2313
p2426
aVACCUMULO-2312
p2427
aVACCUMULO-2311
p2428
aVACCUMULO-2310
p2429
aVACCUMULO-2309
p2430
aVACCUMULO-2308
p2431
aVACCUMULO-2307
p2432
aVACCUMULO-2306
p2433
aVACCUMULO-2305
p2434
aVACCUMULO-2304
p2435
aVACCUMULO-2303
p2436
aVACCUMULO-2302
p2437
aVACCUMULO-2301
p2438
aVACCUMULO-2300
p2439
aVACCUMULO-2299
p2440
aVACCUMULO-2298
p2441
aVACCUMULO-2297
p2442
aVACCUMULO-2296
p2443
aVACCUMULO-2295
p2444
aVACCUMULO-2294
p2445
aVACCUMULO-2293
p2446
aVACCUMULO-2292
p2447
aVACCUMULO-2291
p2448
aVACCUMULO-2290
p2449
aVACCUMULO-2289
p2450
aVACCUMULO-2288
p2451
aVACCUMULO-2287
p2452
aVACCUMULO-2286
p2453
aVACCUMULO-2285
p2454
aVACCUMULO-2284
p2455
aVACCUMULO-2283
p2456
aVACCUMULO-2282
p2457
aVACCUMULO-2281
p2458
aVACCUMULO-2280
p2459
aVACCUMULO-2279
p2460
aVACCUMULO-2278
p2461
aVACCUMULO-2277
p2462
aVACCUMULO-2276
p2463
aVACCUMULO-2275
p2464
aVACCUMULO-2274
p2465
aVACCUMULO-2273
p2466
aVACCUMULO-2272
p2467
aVACCUMULO-2271
p2468
aVACCUMULO-2270
p2469
aVACCUMULO-2269
p2470
aVACCUMULO-2268
p2471
aVACCUMULO-2267
p2472
aVACCUMULO-2266
p2473
aVACCUMULO-2265
p2474
aVACCUMULO-2264
p2475
aVACCUMULO-2263
p2476
aVACCUMULO-2262
p2477
aVACCUMULO-2261
p2478
aVACCUMULO-2260
p2479
aVACCUMULO-2259
p2480
aVACCUMULO-2258
p2481
aVACCUMULO-2257
p2482
aVACCUMULO-2256
p2483
aVACCUMULO-2255
p2484
aVACCUMULO-2254
p2485
aVACCUMULO-2253
p2486
aVACCUMULO-2252
p2487
aVACCUMULO-2251
p2488
aVACCUMULO-2250
p2489
aVACCUMULO-2249
p2490
aVACCUMULO-2248
p2491
aVACCUMULO-2247
p2492
aVACCUMULO-2246
p2493
aVACCUMULO-2245
p2494
aVACCUMULO-2244
p2495
aVACCUMULO-2243
p2496
aVACCUMULO-2242
p2497
aVACCUMULO-2241
p2498
aVACCUMULO-2240
p2499
aVACCUMULO-2239
p2500
aVACCUMULO-2238
p2501
aVACCUMULO-2237
p2502
aVACCUMULO-2236
p2503
aVACCUMULO-2235
p2504
aVACCUMULO-2234
p2505
aVACCUMULO-2233
p2506
aVACCUMULO-2232
p2507
aVACCUMULO-2231
p2508
aVACCUMULO-2230
p2509
aVACCUMULO-2229
p2510
aVACCUMULO-2228
p2511
aVACCUMULO-2227
p2512
aVACCUMULO-2226
p2513
aVACCUMULO-2225
p2514
aVACCUMULO-2224
p2515
aVACCUMULO-2223
p2516
aVACCUMULO-2222
p2517
aVACCUMULO-2221
p2518
aVACCUMULO-2220
p2519
aVACCUMULO-2219
p2520
aVACCUMULO-2218
p2521
aVACCUMULO-2217
p2522
aVACCUMULO-2216
p2523
aVACCUMULO-2215
p2524
aVACCUMULO-2214
p2525
aVACCUMULO-2213
p2526
aVACCUMULO-2212
p2527
aVACCUMULO-2211
p2528
aVACCUMULO-2210
p2529
aVACCUMULO-2209
p2530
aVACCUMULO-2208
p2531
aVACCUMULO-2207
p2532
aVACCUMULO-2206
p2533
aVACCUMULO-2205
p2534
aVACCUMULO-2204
p2535
aVACCUMULO-2203
p2536
aVACCUMULO-2202
p2537
aVACCUMULO-2201
p2538
aVACCUMULO-2200
p2539
aVACCUMULO-2199
p2540
aVACCUMULO-2198
p2541
aVACCUMULO-2197
p2542
aVACCUMULO-2196
p2543
aVACCUMULO-2195
p2544
aVACCUMULO-2194
p2545
aVACCUMULO-2193
p2546
aVACCUMULO-2192
p2547
aVACCUMULO-2191
p2548
aVACCUMULO-2190
p2549
aVACCUMULO-2189
p2550
aVACCUMULO-2188
p2551
aVACCUMULO-2187
p2552
aVACCUMULO-2186
p2553
aVACCUMULO-2185
p2554
aVACCUMULO-2184
p2555
aVACCUMULO-2183
p2556
aVACCUMULO-2182
p2557
aVACCUMULO-2181
p2558
aVACCUMULO-2180
p2559
aVACCUMULO-2179
p2560
aVACCUMULO-2178
p2561
aVACCUMULO-2177
p2562
aVACCUMULO-2176
p2563
aVACCUMULO-2175
p2564
aVACCUMULO-2174
p2565
aVACCUMULO-2173
p2566
aVACCUMULO-2172
p2567
aVACCUMULO-2171
p2568
aVACCUMULO-2170
p2569
aVACCUMULO-2169
p2570
aVACCUMULO-2168
p2571
aVACCUMULO-2167
p2572
aVACCUMULO-2166
p2573
aVACCUMULO-2165
p2574
aVACCUMULO-2164
p2575
aVACCUMULO-2163
p2576
aVACCUMULO-2162
p2577
aVACCUMULO-2161
p2578
aVACCUMULO-2160
p2579
aVACCUMULO-2159
p2580
aVACCUMULO-2158
p2581
aVACCUMULO-2157
p2582
aVACCUMULO-2156
p2583
aVACCUMULO-2155
p2584
aVACCUMULO-2154
p2585
aVACCUMULO-2153
p2586
aVACCUMULO-2152
p2587
aVACCUMULO-2151
p2588
aVACCUMULO-2150
p2589
aVACCUMULO-2149
p2590
aVACCUMULO-2148
p2591
aVACCUMULO-2147
p2592
aVACCUMULO-2146
p2593
aVACCUMULO-2145
p2594
aVACCUMULO-2144
p2595
aVACCUMULO-2143
p2596
aVACCUMULO-2142
p2597
aVACCUMULO-2141
p2598
aVACCUMULO-2140
p2599
aVACCUMULO-2139
p2600
aVACCUMULO-2138
p2601
aVACCUMULO-2137
p2602
aVACCUMULO-2136
p2603
aVACCUMULO-2135
p2604
aVACCUMULO-2134
p2605
aVACCUMULO-2133
p2606
aVACCUMULO-2132
p2607
aVACCUMULO-2131
p2608
aVACCUMULO-2130
p2609
aVACCUMULO-2129
p2610
aVACCUMULO-2128
p2611
aVACCUMULO-2127
p2612
aVACCUMULO-2126
p2613
aVACCUMULO-2125
p2614
aVACCUMULO-2124
p2615
aVACCUMULO-2123
p2616
aVACCUMULO-2122
p2617
aVACCUMULO-2121
p2618
aVACCUMULO-2120
p2619
aVACCUMULO-2119
p2620
aVACCUMULO-2118
p2621
aVACCUMULO-2117
p2622
aVACCUMULO-2116
p2623
aVACCUMULO-2115
p2624
aVACCUMULO-2114
p2625
aVACCUMULO-2113
p2626
aVACCUMULO-2112
p2627
aVACCUMULO-2111
p2628
aVACCUMULO-2110
p2629
aVACCUMULO-2109
p2630
aVACCUMULO-2108
p2631
aVACCUMULO-2107
p2632
aVACCUMULO-2106
p2633
aVACCUMULO-2105
p2634
aVACCUMULO-2104
p2635
aVACCUMULO-2103
p2636
aVACCUMULO-2102
p2637
aVACCUMULO-2101
p2638
aVACCUMULO-2100
p2639
aVACCUMULO-2099
p2640
aVACCUMULO-2098
p2641
aVACCUMULO-2097
p2642
aVACCUMULO-2096
p2643
aVACCUMULO-2095
p2644
aVACCUMULO-2094
p2645
aVACCUMULO-2093
p2646
aVACCUMULO-2092
p2647
aVACCUMULO-2091
p2648
aVACCUMULO-2090
p2649
aVACCUMULO-2089
p2650
aVACCUMULO-2088
p2651
aVACCUMULO-2087
p2652
aVACCUMULO-2086
p2653
aVACCUMULO-2085
p2654
aVACCUMULO-2084
p2655
aVACCUMULO-2083
p2656
aVACCUMULO-2082
p2657
aVACCUMULO-2081
p2658
aVACCUMULO-2080
p2659
aVACCUMULO-2079
p2660
aVACCUMULO-2078
p2661
aVACCUMULO-2077
p2662
aVACCUMULO-2076
p2663
aVACCUMULO-2075
p2664
aVACCUMULO-2074
p2665
aVACCUMULO-2073
p2666
aVACCUMULO-2072
p2667
aVACCUMULO-2071
p2668
aVACCUMULO-2070
p2669
aVACCUMULO-2069
p2670
aVACCUMULO-2068
p2671
aVACCUMULO-2067
p2672
aVACCUMULO-2066
p2673
aVACCUMULO-2065
p2674
aVACCUMULO-2064
p2675
aVACCUMULO-2063
p2676
aVACCUMULO-2062
p2677
aVACCUMULO-2061
p2678
aVACCUMULO-2060
p2679
aVACCUMULO-2059
p2680
aVACCUMULO-2058
p2681
aVACCUMULO-2057
p2682
aVACCUMULO-2056
p2683
aVACCUMULO-2055
p2684
aVACCUMULO-2054
p2685
aVACCUMULO-2053
p2686
aVACCUMULO-2052
p2687
aVACCUMULO-2051
p2688
aVACCUMULO-2050
p2689
aVACCUMULO-2049
p2690
aVACCUMULO-2048
p2691
aVACCUMULO-2047
p2692
aVACCUMULO-2046
p2693
aVACCUMULO-2045
p2694
aVACCUMULO-2044
p2695
aVACCUMULO-2043
p2696
aVACCUMULO-2042
p2697
aVACCUMULO-2041
p2698
aVACCUMULO-2040
p2699
aVACCUMULO-2039
p2700
aVACCUMULO-2038
p2701
aVACCUMULO-2037
p2702
aVACCUMULO-2036
p2703
aVACCUMULO-2035
p2704
aVACCUMULO-2034
p2705
aVACCUMULO-2033
p2706
aVACCUMULO-2032
p2707
aVACCUMULO-2031
p2708
aVACCUMULO-2030
p2709
aVACCUMULO-2029
p2710
aVACCUMULO-2028
p2711
aVACCUMULO-2027
p2712
aVACCUMULO-2026
p2713
aVACCUMULO-2025
p2714
aVACCUMULO-2024
p2715
aVACCUMULO-2023
p2716
aVACCUMULO-2022
p2717
aVACCUMULO-2021
p2718
aVACCUMULO-2020
p2719
aVACCUMULO-2019
p2720
aVACCUMULO-2018
p2721
aVACCUMULO-2017
p2722
aVACCUMULO-2016
p2723
aVACCUMULO-2015
p2724
aVACCUMULO-2014
p2725
aVACCUMULO-2013
p2726
aVACCUMULO-2012
p2727
aVACCUMULO-2011
p2728
aVACCUMULO-2010
p2729
aVACCUMULO-2009
p2730
aVACCUMULO-2008
p2731
aVACCUMULO-2007
p2732
aVACCUMULO-2006
p2733
aVACCUMULO-2005
p2734
aVACCUMULO-2004
p2735
aVACCUMULO-2003
p2736
aVACCUMULO-2002
p2737
aVACCUMULO-2001
p2738
aVACCUMULO-2000
p2739
aVACCUMULO-1999
p2740
aVACCUMULO-1998
p2741
aVACCUMULO-1997
p2742
aVACCUMULO-1996
p2743
aVACCUMULO-1995
p2744
aVACCUMULO-1994
p2745
aVACCUMULO-1993
p2746
aVACCUMULO-1992
p2747
aVACCUMULO-1991
p2748
aVACCUMULO-1990
p2749
aVACCUMULO-1989
p2750
aVACCUMULO-1988
p2751
aVACCUMULO-1987
p2752
aVACCUMULO-1986
p2753
aVACCUMULO-1985
p2754
aVACCUMULO-1984
p2755
aVACCUMULO-1983
p2756
aVACCUMULO-1982
p2757
aVACCUMULO-1981
p2758
aVACCUMULO-1980
p2759
aVACCUMULO-1979
p2760
aVACCUMULO-1978
p2761
aVACCUMULO-1977
p2762
aVACCUMULO-1976
p2763
aVACCUMULO-1975
p2764
aVACCUMULO-1974
p2765
aVACCUMULO-1973
p2766
aVACCUMULO-1972
p2767
aVACCUMULO-1971
p2768
aVACCUMULO-1970
p2769
aVACCUMULO-1969
p2770
aVACCUMULO-1968
p2771
aVACCUMULO-1967
p2772
aVACCUMULO-1966
p2773
aVACCUMULO-1965
p2774
aVACCUMULO-1964
p2775
aVACCUMULO-1963
p2776
aVACCUMULO-1962
p2777
aVACCUMULO-1961
p2778
aVACCUMULO-1960
p2779
aVACCUMULO-1959
p2780
aVACCUMULO-1958
p2781
aVACCUMULO-1957
p2782
aVACCUMULO-1956
p2783
aVACCUMULO-1955
p2784
aVACCUMULO-1954
p2785
aVACCUMULO-1953
p2786
aVACCUMULO-1952
p2787
aVACCUMULO-1951
p2788
aVACCUMULO-1950
p2789
aVACCUMULO-1949
p2790
aVACCUMULO-1948
p2791
aVACCUMULO-1947
p2792
aVACCUMULO-1946
p2793
aVACCUMULO-1945
p2794
aVACCUMULO-1944
p2795
aVACCUMULO-1943
p2796
aVACCUMULO-1942
p2797
aVACCUMULO-1941
p2798
aVACCUMULO-1940
p2799
aVACCUMULO-1939
p2800
aVACCUMULO-1938
p2801
aVACCUMULO-1937
p2802
aVACCUMULO-1936
p2803
aVACCUMULO-1935
p2804
aVACCUMULO-1934
p2805
aVACCUMULO-1933
p2806
aVACCUMULO-1932
p2807
aVACCUMULO-1931
p2808
aVACCUMULO-1930
p2809
aVACCUMULO-1929
p2810
aVACCUMULO-1928
p2811
aVACCUMULO-1927
p2812
aVACCUMULO-1926
p2813
aVACCUMULO-1925
p2814
aVACCUMULO-1924
p2815
aVACCUMULO-1923
p2816
aVACCUMULO-1922
p2817
aVACCUMULO-1921
p2818
aVACCUMULO-1920
p2819
aVACCUMULO-1919
p2820
aVACCUMULO-1918
p2821
aVACCUMULO-1917
p2822
aVACCUMULO-1916
p2823
aVACCUMULO-1915
p2824
aVACCUMULO-1914
p2825
aVACCUMULO-1913
p2826
aVACCUMULO-1912
p2827
aVACCUMULO-1911
p2828
aVACCUMULO-1910
p2829
aVACCUMULO-1909
p2830
aVACCUMULO-1908
p2831
aVACCUMULO-1907
p2832
aVACCUMULO-1906
p2833
aVACCUMULO-1905
p2834
aVACCUMULO-1904
p2835
aVACCUMULO-1903
p2836
aVACCUMULO-1902
p2837
aVACCUMULO-1901
p2838
aVACCUMULO-1900
p2839
aVACCUMULO-1899
p2840
aVACCUMULO-1898
p2841
aVACCUMULO-1897
p2842
aVACCUMULO-1896
p2843
aVACCUMULO-1895
p2844
aVACCUMULO-1894
p2845
aVACCUMULO-1893
p2846
aVACCUMULO-1892
p2847
aVACCUMULO-1891
p2848
aVACCUMULO-1890
p2849
aVACCUMULO-1889
p2850
aVACCUMULO-1888
p2851
aVACCUMULO-1887
p2852
aVACCUMULO-1886
p2853
aVACCUMULO-1885
p2854
aVACCUMULO-1884
p2855
aVACCUMULO-1883
p2856
aVACCUMULO-1882
p2857
aVACCUMULO-1881
p2858
aVACCUMULO-1880
p2859
aVACCUMULO-1879
p2860
aVACCUMULO-1878
p2861
aVACCUMULO-1877
p2862
aVACCUMULO-1876
p2863
aVACCUMULO-1875
p2864
aVACCUMULO-1874
p2865
aVACCUMULO-1873
p2866
aVACCUMULO-1872
p2867
aVACCUMULO-1871
p2868
aVACCUMULO-1870
p2869
aVACCUMULO-1869
p2870
aVACCUMULO-1868
p2871
aVACCUMULO-1867
p2872
aVACCUMULO-1866
p2873
aVACCUMULO-1865
p2874
aVACCUMULO-1864
p2875
aVACCUMULO-1863
p2876
aVACCUMULO-1862
p2877
aVACCUMULO-1861
p2878
aVACCUMULO-1860
p2879
aVACCUMULO-1859
p2880
aVACCUMULO-1858
p2881
aVACCUMULO-1857
p2882
aVACCUMULO-1856
p2883
aVACCUMULO-1855
p2884
aVACCUMULO-1854
p2885
aVACCUMULO-1853
p2886
aVACCUMULO-1852
p2887
aVACCUMULO-1851
p2888
aVACCUMULO-1850
p2889
aVACCUMULO-1849
p2890
aVACCUMULO-1848
p2891
aVACCUMULO-1847
p2892
aVACCUMULO-1846
p2893
aVACCUMULO-1845
p2894
aVACCUMULO-1844
p2895
aVACCUMULO-1843
p2896
aVACCUMULO-1842
p2897
aVACCUMULO-1841
p2898
aVACCUMULO-1840
p2899
aVACCUMULO-1839
p2900
aVACCUMULO-1838
p2901
aVACCUMULO-1837
p2902
aVACCUMULO-1836
p2903
aVACCUMULO-1835
p2904
aVACCUMULO-1834
p2905
aVACCUMULO-1833
p2906
aVACCUMULO-1832
p2907
aVACCUMULO-1831
p2908
aVACCUMULO-1830
p2909
aVACCUMULO-1829
p2910
aVACCUMULO-1828
p2911
aVACCUMULO-1827
p2912
aVACCUMULO-1826
p2913
aVACCUMULO-1825
p2914
aVACCUMULO-1824
p2915
aVACCUMULO-1823
p2916
aVACCUMULO-1822
p2917
aVACCUMULO-1821
p2918
aVACCUMULO-1820
p2919
aVACCUMULO-1819
p2920
aVACCUMULO-1818
p2921
aVACCUMULO-1817
p2922
aVACCUMULO-1816
p2923
aVACCUMULO-1815
p2924
aVACCUMULO-1814
p2925
aVACCUMULO-1813
p2926
aVACCUMULO-1812
p2927
aVACCUMULO-1811
p2928
aVACCUMULO-1810
p2929
aVACCUMULO-1809
p2930
aVACCUMULO-1808
p2931
aVACCUMULO-1807
p2932
aVACCUMULO-1806
p2933
aVACCUMULO-1805
p2934
aVACCUMULO-1804
p2935
aVACCUMULO-1803
p2936
aVACCUMULO-1802
p2937
aVACCUMULO-1801
p2938
aVACCUMULO-1800
p2939
aVACCUMULO-1799
p2940
aVACCUMULO-1798
p2941
aVACCUMULO-1797
p2942
aVACCUMULO-1796
p2943
aVACCUMULO-1795
p2944
aVACCUMULO-1794
p2945
aVACCUMULO-1793
p2946
aVACCUMULO-1792
p2947
aVACCUMULO-1791
p2948
aVACCUMULO-1790
p2949
aVACCUMULO-1789
p2950
aVACCUMULO-1788
p2951
aVACCUMULO-1787
p2952
aVACCUMULO-1786
p2953
aVACCUMULO-1785
p2954
aVACCUMULO-1784
p2955
aVACCUMULO-1783
p2956
aVACCUMULO-1782
p2957
aVACCUMULO-1781
p2958
aVACCUMULO-1780
p2959
aVACCUMULO-1779
p2960
aVACCUMULO-1778
p2961
aVACCUMULO-1777
p2962
aVACCUMULO-1776
p2963
aVACCUMULO-1775
p2964
aVACCUMULO-1774
p2965
aVACCUMULO-1773
p2966
aVACCUMULO-1772
p2967
aVACCUMULO-1771
p2968
aVACCUMULO-1770
p2969
aVACCUMULO-1769
p2970
aVACCUMULO-1768
p2971
aVACCUMULO-1767
p2972
aVACCUMULO-1766
p2973
aVACCUMULO-1765
p2974
aVACCUMULO-1764
p2975
aVACCUMULO-1763
p2976
aVACCUMULO-1762
p2977
aVACCUMULO-1761
p2978
aVACCUMULO-1760
p2979
aVACCUMULO-1759
p2980
aVACCUMULO-1758
p2981
aVACCUMULO-1757
p2982
aVACCUMULO-1756
p2983
aVACCUMULO-1755
p2984
aVACCUMULO-1754
p2985
aVACCUMULO-1753
p2986
aVACCUMULO-1752
p2987
aVACCUMULO-1751
p2988
aVACCUMULO-1750
p2989
aVACCUMULO-1749
p2990
aVACCUMULO-1748
p2991
aVACCUMULO-1747
p2992
aVACCUMULO-1746
p2993
aVACCUMULO-1745
p2994
aVACCUMULO-1744
p2995
aVACCUMULO-1743
p2996
aVACCUMULO-1742
p2997
aVACCUMULO-1741
p2998
aVACCUMULO-1740
p2999
aVACCUMULO-1739
p3000
aVACCUMULO-1738
p3001
aVACCUMULO-1737
p3002
aVACCUMULO-1736
p3003
aVACCUMULO-1735
p3004
aVACCUMULO-1734
p3005
aVACCUMULO-1733
p3006
aVACCUMULO-1732
p3007
aVACCUMULO-1731
p3008
aVACCUMULO-1730
p3009
aVACCUMULO-1729
p3010
aVACCUMULO-1728
p3011
aVACCUMULO-1727
p3012
aVACCUMULO-1726
p3013
aVACCUMULO-1725
p3014
aVACCUMULO-1724
p3015
aVACCUMULO-1723
p3016
aVACCUMULO-1722
p3017
aVACCUMULO-1721
p3018
aVACCUMULO-1720
p3019
aVACCUMULO-1719
p3020
aVACCUMULO-1718
p3021
aVACCUMULO-1717
p3022
aVACCUMULO-1716
p3023
aVACCUMULO-1715
p3024
aVACCUMULO-1714
p3025
aVACCUMULO-1713
p3026
aVACCUMULO-1712
p3027
aVACCUMULO-1711
p3028
aVACCUMULO-1710
p3029
aVACCUMULO-1709
p3030
aVACCUMULO-1708
p3031
aVACCUMULO-1707
p3032
aVACCUMULO-1706
p3033
aVACCUMULO-1705
p3034
aVACCUMULO-1704
p3035
aVACCUMULO-1703
p3036
aVACCUMULO-1702
p3037
aVACCUMULO-1701
p3038
aVACCUMULO-1700
p3039
aVACCUMULO-1699
p3040
aVACCUMULO-1698
p3041
aVACCUMULO-1697
p3042
aVACCUMULO-1696
p3043
aVACCUMULO-1695
p3044
aVACCUMULO-1694
p3045
aVACCUMULO-1693
p3046
aVACCUMULO-1692
p3047
aVACCUMULO-1691
p3048
aVACCUMULO-1690
p3049
aVACCUMULO-1689
p3050
aVACCUMULO-1688
p3051
aVACCUMULO-1687
p3052
aVACCUMULO-1686
p3053
aVACCUMULO-1685
p3054
aVACCUMULO-1684
p3055
aVACCUMULO-1683
p3056
aVACCUMULO-1682
p3057
aVACCUMULO-1681
p3058
aVACCUMULO-1680
p3059
aVACCUMULO-1679
p3060
aVACCUMULO-1678
p3061
aVACCUMULO-1677
p3062
aVACCUMULO-1676
p3063
aVACCUMULO-1675
p3064
aVACCUMULO-1674
p3065
aVACCUMULO-1673
p3066
aVACCUMULO-1672
p3067
aVACCUMULO-1671
p3068
aVACCUMULO-1670
p3069
aVACCUMULO-1669
p3070
aVACCUMULO-1668
p3071
aVACCUMULO-1667
p3072
aVACCUMULO-1666
p3073
aVACCUMULO-1665
p3074
aVACCUMULO-1664
p3075
aVACCUMULO-1663
p3076
aVACCUMULO-1662
p3077
aVACCUMULO-1661
p3078
aVACCUMULO-1660
p3079
aVACCUMULO-1659
p3080
aVACCUMULO-1658
p3081
aVACCUMULO-1657
p3082
aVACCUMULO-1656
p3083
aVACCUMULO-1655
p3084
aVACCUMULO-1654
p3085
aVACCUMULO-1653
p3086
aVACCUMULO-1652
p3087
aVACCUMULO-1651
p3088
aVACCUMULO-1650
p3089
aVACCUMULO-1649
p3090
aVACCUMULO-1648
p3091
aVACCUMULO-1647
p3092
aVACCUMULO-1646
p3093
aVACCUMULO-1645
p3094
aVACCUMULO-1644
p3095
aVACCUMULO-1643
p3096
aVACCUMULO-1642
p3097
aVACCUMULO-1641
p3098
aVACCUMULO-1640
p3099
aVACCUMULO-1639
p3100
aVACCUMULO-1638
p3101
aVACCUMULO-1637
p3102
aVACCUMULO-1636
p3103
aVACCUMULO-1635
p3104
aVACCUMULO-1634
p3105
aVACCUMULO-1633
p3106
aVACCUMULO-1632
p3107
aVACCUMULO-1631
p3108
aVACCUMULO-1630
p3109
aVACCUMULO-1629
p3110
aVACCUMULO-1628
p3111
aVACCUMULO-1627
p3112
aVACCUMULO-1626
p3113
aVACCUMULO-1625
p3114
aVACCUMULO-1624
p3115
aVACCUMULO-1623
p3116
aVACCUMULO-1622
p3117
aVACCUMULO-1621
p3118
aVACCUMULO-1620
p3119
aVACCUMULO-1619
p3120
aVACCUMULO-1618
p3121
aVACCUMULO-1617
p3122
aVACCUMULO-1616
p3123
aVACCUMULO-1615
p3124
aVACCUMULO-1614
p3125
aVACCUMULO-1613
p3126
aVACCUMULO-1612
p3127
aVACCUMULO-1611
p3128
aVACCUMULO-1610
p3129
aVACCUMULO-1609
p3130
aVACCUMULO-1608
p3131
aVACCUMULO-1607
p3132
aVACCUMULO-1606
p3133
aVACCUMULO-1605
p3134
aVACCUMULO-1604
p3135
aVACCUMULO-1603
p3136
aVACCUMULO-1602
p3137
aVACCUMULO-1601
p3138
aVACCUMULO-1600
p3139
aVACCUMULO-1599
p3140
aVACCUMULO-1598
p3141
aVACCUMULO-1597
p3142
aVACCUMULO-1596
p3143
aVACCUMULO-1595
p3144
aVACCUMULO-1594
p3145
aVACCUMULO-1593
p3146
aVACCUMULO-1592
p3147
aVACCUMULO-1591
p3148
aVACCUMULO-1590
p3149
aVACCUMULO-1589
p3150
aVACCUMULO-1588
p3151
aVACCUMULO-1587
p3152
aVACCUMULO-1586
p3153
aVACCUMULO-1585
p3154
aVACCUMULO-1584
p3155
aVACCUMULO-1583
p3156
aVACCUMULO-1582
p3157
aVACCUMULO-1581
p3158
aVACCUMULO-1580
p3159
aVACCUMULO-1579
p3160
aVACCUMULO-1578
p3161
aVACCUMULO-1577
p3162
aVACCUMULO-1576
p3163
aVACCUMULO-1575
p3164
aVACCUMULO-1574
p3165
aVACCUMULO-1573
p3166
aVACCUMULO-1572
p3167
aVACCUMULO-1571
p3168
aVACCUMULO-1570
p3169
aVACCUMULO-1569
p3170
aVACCUMULO-1568
p3171
aVACCUMULO-1567
p3172
aVACCUMULO-1566
p3173
aVACCUMULO-1565
p3174
aVACCUMULO-1564
p3175
aVACCUMULO-1563
p3176
aVACCUMULO-1562
p3177
aVACCUMULO-1561
p3178
aVACCUMULO-1560
p3179
aVACCUMULO-1559
p3180
aVACCUMULO-1558
p3181
aVACCUMULO-1557
p3182
aVACCUMULO-1556
p3183
aVACCUMULO-1555
p3184
aVACCUMULO-1554
p3185
aVACCUMULO-1553
p3186
aVACCUMULO-1552
p3187
aVACCUMULO-1551
p3188
aVACCUMULO-1550
p3189
aVACCUMULO-1549
p3190
aVACCUMULO-1548
p3191
aVACCUMULO-1547
p3192
aVACCUMULO-1546
p3193
aVACCUMULO-1545
p3194
aVACCUMULO-1544
p3195
aVACCUMULO-1543
p3196
aVACCUMULO-1542
p3197
aVACCUMULO-1541
p3198
aVACCUMULO-1540
p3199
aVACCUMULO-1539
p3200
aVACCUMULO-1538
p3201
aVACCUMULO-1537
p3202
aVACCUMULO-1536
p3203
aVACCUMULO-1535
p3204
aVACCUMULO-1534
p3205
aVACCUMULO-1533
p3206
aVACCUMULO-1532
p3207
aVACCUMULO-1531
p3208
aVACCUMULO-1530
p3209
aVACCUMULO-1529
p3210
aVACCUMULO-1528
p3211
aVACCUMULO-1527
p3212
aVACCUMULO-1526
p3213
aVACCUMULO-1525
p3214
aVACCUMULO-1524
p3215
aVACCUMULO-1523
p3216
aVACCUMULO-1522
p3217
aVACCUMULO-1521
p3218
aVACCUMULO-1520
p3219
aVACCUMULO-1519
p3220
aVACCUMULO-1518
p3221
aVACCUMULO-1517
p3222
aVACCUMULO-1516
p3223
aVACCUMULO-1515
p3224
aVACCUMULO-1514
p3225
aVACCUMULO-1513
p3226
aVACCUMULO-1512
p3227
aVACCUMULO-1511
p3228
aVACCUMULO-1510
p3229
aVACCUMULO-1509
p3230
aVACCUMULO-1508
p3231
aVACCUMULO-1507
p3232
aVACCUMULO-1506
p3233
aVACCUMULO-1505
p3234
aVACCUMULO-1504
p3235
aVACCUMULO-1503
p3236
aVACCUMULO-1502
p3237
aVACCUMULO-1501
p3238
aVACCUMULO-1500
p3239
aVACCUMULO-1499
p3240
aVACCUMULO-1498
p3241
aVACCUMULO-1497
p3242
aVACCUMULO-1496
p3243
aVACCUMULO-1495
p3244
aVACCUMULO-1494
p3245
aVACCUMULO-1493
p3246
aVACCUMULO-1492
p3247
aVACCUMULO-1491
p3248
aVACCUMULO-1490
p3249
aVACCUMULO-1489
p3250
aVACCUMULO-1488
p3251
aVACCUMULO-1487
p3252
aVACCUMULO-1486
p3253
aVACCUMULO-1485
p3254
aVACCUMULO-1484
p3255
aVACCUMULO-1483
p3256
aVACCUMULO-1482
p3257
aVACCUMULO-1481
p3258
aVACCUMULO-1480
p3259
aVACCUMULO-1479
p3260
aVACCUMULO-1478
p3261
aVACCUMULO-1477
p3262
aVACCUMULO-1476
p3263
aVACCUMULO-1475
p3264
aVACCUMULO-1474
p3265
aVACCUMULO-1473
p3266
aVACCUMULO-1472
p3267
aVACCUMULO-1471
p3268
aVACCUMULO-1470
p3269
aVACCUMULO-1469
p3270
aVACCUMULO-1468
p3271
aVACCUMULO-1467
p3272
aVACCUMULO-1466
p3273
aVACCUMULO-1465
p3274
aVACCUMULO-1464
p3275
aVACCUMULO-1463
p3276
aVACCUMULO-1462
p3277
aVACCUMULO-1461
p3278
aVACCUMULO-1460
p3279
aVACCUMULO-1459
p3280
aVACCUMULO-1458
p3281
aVACCUMULO-1457
p3282
aVACCUMULO-1456
p3283
aVACCUMULO-1455
p3284
aVACCUMULO-1454
p3285
aVACCUMULO-1453
p3286
aVACCUMULO-1452
p3287
aVACCUMULO-1451
p3288
aVACCUMULO-1450
p3289
aVACCUMULO-1449
p3290
aVACCUMULO-1448
p3291
aVACCUMULO-1447
p3292
aVACCUMULO-1446
p3293
aVACCUMULO-1445
p3294
aVACCUMULO-1444
p3295
aVACCUMULO-1443
p3296
aVACCUMULO-1442
p3297
aVACCUMULO-1441
p3298
aVACCUMULO-1440
p3299
aVACCUMULO-1439
p3300
aVACCUMULO-1438
p3301
aVACCUMULO-1437
p3302
aVACCUMULO-1436
p3303
aVACCUMULO-1435
p3304
aVACCUMULO-1434
p3305
aVACCUMULO-1433
p3306
aVACCUMULO-1432
p3307
aVACCUMULO-1431
p3308
aVACCUMULO-1430
p3309
aVACCUMULO-1429
p3310
aVACCUMULO-1428
p3311
aVACCUMULO-1427
p3312
aVACCUMULO-1426
p3313
aVACCUMULO-1425
p3314
aVACCUMULO-1424
p3315
aVACCUMULO-1423
p3316
aVACCUMULO-1422
p3317
aVACCUMULO-1421
p3318
aVACCUMULO-1420
p3319
aVACCUMULO-1419
p3320
aVACCUMULO-1418
p3321
aVACCUMULO-1417
p3322
aVACCUMULO-1416
p3323
aVACCUMULO-1415
p3324
aVACCUMULO-1414
p3325
aVACCUMULO-1413
p3326
aVACCUMULO-1412
p3327
aVACCUMULO-1411
p3328
aVACCUMULO-1410
p3329
aVACCUMULO-1409
p3330
aVACCUMULO-1408
p3331
aVACCUMULO-1407
p3332
aVACCUMULO-1406
p3333
aVACCUMULO-1405
p3334
aVACCUMULO-1404
p3335
aVACCUMULO-1403
p3336
aVACCUMULO-1402
p3337
aVACCUMULO-1401
p3338
aVACCUMULO-1399
p3339
aVACCUMULO-1398
p3340
aVACCUMULO-1397
p3341
aVACCUMULO-1396
p3342
aVACCUMULO-1395
p3343
aVACCUMULO-1394
p3344
aVACCUMULO-1393
p3345
aVACCUMULO-1392
p3346
aVACCUMULO-1391
p3347
aVACCUMULO-1390
p3348
aVACCUMULO-1389
p3349
aVACCUMULO-1388
p3350
aVACCUMULO-1387
p3351
aVACCUMULO-1386
p3352
aVACCUMULO-1385
p3353
aVACCUMULO-1384
p3354
aVACCUMULO-1383
p3355
aVACCUMULO-1382
p3356
aVACCUMULO-1381
p3357
aVACCUMULO-1380
p3358
aVACCUMULO-1379
p3359
aVACCUMULO-1378
p3360
aVACCUMULO-1377
p3361
aVACCUMULO-1376
p3362
aVACCUMULO-1375
p3363
aVACCUMULO-1374
p3364
aVACCUMULO-1373
p3365
aVACCUMULO-1372
p3366
aVACCUMULO-1371
p3367
aVACCUMULO-1370
p3368
aVACCUMULO-1369
p3369
aVACCUMULO-1368
p3370
aVACCUMULO-1367
p3371
aVACCUMULO-1366
p3372
aVACCUMULO-1365
p3373
aVACCUMULO-1364
p3374
aVACCUMULO-1363
p3375
aVACCUMULO-1362
p3376
aVACCUMULO-1361
p3377
aVACCUMULO-1360
p3378
aVACCUMULO-1359
p3379
aVACCUMULO-1358
p3380
aVACCUMULO-1357
p3381
aVACCUMULO-1356
p3382
aVACCUMULO-1355
p3383
aVACCUMULO-1354
p3384
aVACCUMULO-1353
p3385
aVACCUMULO-1352
p3386
aVACCUMULO-1351
p3387
aVACCUMULO-1350
p3388
aVACCUMULO-1349
p3389
aVACCUMULO-1348
p3390
aVACCUMULO-1347
p3391
aVACCUMULO-1346
p3392
aVACCUMULO-1345
p3393
aVACCUMULO-1344
p3394
aVACCUMULO-1343
p3395
aVACCUMULO-1342
p3396
aVACCUMULO-1341
p3397
aVACCUMULO-1340
p3398
aVACCUMULO-1339
p3399
aVACCUMULO-1338
p3400
aVACCUMULO-1337
p3401
aVACCUMULO-1336
p3402
aVACCUMULO-1335
p3403
aVACCUMULO-1334
p3404
aVACCUMULO-1333
p3405
aVACCUMULO-1332
p3406
aVACCUMULO-1331
p3407
aVACCUMULO-1330
p3408
aVACCUMULO-1329
p3409
aVACCUMULO-1328
p3410
aVACCUMULO-1327
p3411
aVACCUMULO-1326
p3412
aVACCUMULO-1325
p3413
aVACCUMULO-1324
p3414
aVACCUMULO-1323
p3415
aVACCUMULO-1322
p3416
aVACCUMULO-1321
p3417
aVACCUMULO-1320
p3418
aVACCUMULO-1319
p3419
aVACCUMULO-1318
p3420
aVACCUMULO-1317
p3421
aVACCUMULO-1316
p3422
aVACCUMULO-1315
p3423
aVACCUMULO-1314
p3424
aVACCUMULO-1313
p3425
aVACCUMULO-1312
p3426
aVACCUMULO-1311
p3427
aVACCUMULO-1310
p3428
aVACCUMULO-1309
p3429
aVACCUMULO-1308
p3430
aVACCUMULO-1307
p3431
aVACCUMULO-1306
p3432
aVACCUMULO-1305
p3433
aVACCUMULO-1304
p3434
aVACCUMULO-1303
p3435
aVACCUMULO-1302
p3436
aVACCUMULO-1301
p3437
aVACCUMULO-1300
p3438
aVACCUMULO-1299
p3439
aVACCUMULO-1298
p3440
aVACCUMULO-1297
p3441
aVACCUMULO-1296
p3442
aVACCUMULO-1295
p3443
aVACCUMULO-1294
p3444
aVACCUMULO-1293
p3445
aVACCUMULO-1292
p3446
aVACCUMULO-1291
p3447
aVACCUMULO-1290
p3448
aVACCUMULO-1289
p3449
aVACCUMULO-1288
p3450
aVACCUMULO-1287
p3451
aVACCUMULO-1286
p3452
aVACCUMULO-1285
p3453
aVACCUMULO-1284
p3454
aVACCUMULO-1283
p3455
aVACCUMULO-1282
p3456
aVACCUMULO-1281
p3457
aVACCUMULO-1280
p3458
aVACCUMULO-1279
p3459
aVACCUMULO-1278
p3460
aVACCUMULO-1277
p3461
aVACCUMULO-1276
p3462
aVACCUMULO-1275
p3463
aVACCUMULO-1274
p3464
aVACCUMULO-1273
p3465
aVACCUMULO-1272
p3466
aVACCUMULO-1271
p3467
aVACCUMULO-1270
p3468
aVACCUMULO-1269
p3469
aVACCUMULO-1268
p3470
aVACCUMULO-1267
p3471
aVACCUMULO-1266
p3472
aVACCUMULO-1265
p3473
aVACCUMULO-1264
p3474
aVACCUMULO-1263
p3475
aVACCUMULO-1262
p3476
aVACCUMULO-1261
p3477
aVACCUMULO-1260
p3478
aVACCUMULO-1259
p3479
aVACCUMULO-1258
p3480
aVACCUMULO-1257
p3481
aVACCUMULO-1256
p3482
aVACCUMULO-1255
p3483
aVACCUMULO-1254
p3484
aVACCUMULO-1253
p3485
aVACCUMULO-1252
p3486
aVACCUMULO-1251
p3487
aVACCUMULO-1250
p3488
aVACCUMULO-1249
p3489
aVACCUMULO-1248
p3490
aVACCUMULO-1247
p3491
aVACCUMULO-1246
p3492
aVACCUMULO-1245
p3493
aVACCUMULO-1244
p3494
aVACCUMULO-1243
p3495
aVACCUMULO-1242
p3496
aVACCUMULO-1241
p3497
aVACCUMULO-1240
p3498
aVACCUMULO-1239
p3499
aVACCUMULO-1238
p3500
aVACCUMULO-1237
p3501
aVACCUMULO-1236
p3502
aVACCUMULO-1235
p3503
aVACCUMULO-1234
p3504
aVACCUMULO-1233
p3505
aVACCUMULO-1232
p3506
aVACCUMULO-1231
p3507
aVACCUMULO-1230
p3508
aVACCUMULO-1229
p3509
aVACCUMULO-1228
p3510
aVACCUMULO-1227
p3511
aVACCUMULO-1226
p3512
aVACCUMULO-1225
p3513
aVACCUMULO-1224
p3514
aVACCUMULO-1223
p3515
aVACCUMULO-1222
p3516
aVACCUMULO-1220
p3517
aVACCUMULO-1219
p3518
aVACCUMULO-1218
p3519
aVACCUMULO-1217
p3520
aVACCUMULO-1216
p3521
aVACCUMULO-1215
p3522
aVACCUMULO-1214
p3523
aVACCUMULO-1213
p3524
aVACCUMULO-1212
p3525
aVACCUMULO-1211
p3526
aVACCUMULO-1210
p3527
aVACCUMULO-1209
p3528
aVACCUMULO-1208
p3529
aVACCUMULO-1207
p3530
aVACCUMULO-1206
p3531
aVACCUMULO-1205
p3532
aVACCUMULO-1204
p3533
aVACCUMULO-1203
p3534
aVACCUMULO-1202
p3535
aVACCUMULO-1201
p3536
aVACCUMULO-1200
p3537
aVACCUMULO-1199
p3538
aVACCUMULO-1198
p3539
aVACCUMULO-1197
p3540
aVACCUMULO-1196
p3541
aVACCUMULO-1195
p3542
aVACCUMULO-1194
p3543
aVACCUMULO-1193
p3544
aVACCUMULO-1192
p3545
aVACCUMULO-1191
p3546
aVACCUMULO-1190
p3547
aVACCUMULO-1189
p3548
aVACCUMULO-1188
p3549
aVACCUMULO-1187
p3550
aVACCUMULO-1186
p3551
aVACCUMULO-1185
p3552
aVACCUMULO-1184
p3553
aVACCUMULO-1183
p3554
aVACCUMULO-1182
p3555
aVACCUMULO-1181
p3556
aVACCUMULO-1180
p3557
aVACCUMULO-1179
p3558
aVACCUMULO-1178
p3559
aVACCUMULO-1177
p3560
aVACCUMULO-1176
p3561
aVACCUMULO-1175
p3562
aVACCUMULO-1174
p3563
aVACCUMULO-1173
p3564
aVACCUMULO-1172
p3565
aVACCUMULO-1171
p3566
aVACCUMULO-1170
p3567
aVACCUMULO-1169
p3568
aVACCUMULO-1168
p3569
aVACCUMULO-1167
p3570
aVACCUMULO-1166
p3571
aVACCUMULO-1165
p3572
aVACCUMULO-1164
p3573
aVACCUMULO-1163
p3574
aVACCUMULO-1162
p3575
aVACCUMULO-1161
p3576
aVACCUMULO-1160
p3577
aVACCUMULO-1159
p3578
aVACCUMULO-1158
p3579
aVACCUMULO-1157
p3580
aVACCUMULO-1156
p3581
aVACCUMULO-1155
p3582
aVACCUMULO-1154
p3583
aVACCUMULO-1153
p3584
aVACCUMULO-1152
p3585
aVACCUMULO-1151
p3586
aVACCUMULO-1150
p3587
aVACCUMULO-1149
p3588
aVACCUMULO-1148
p3589
aVACCUMULO-1147
p3590
aVACCUMULO-1146
p3591
aVACCUMULO-1145
p3592
aVACCUMULO-1144
p3593
aVACCUMULO-1143
p3594
aVACCUMULO-1142
p3595
aVACCUMULO-1141
p3596
aVACCUMULO-1140
p3597
aVACCUMULO-1139
p3598
aVACCUMULO-1138
p3599
aVACCUMULO-1137
p3600
aVACCUMULO-1136
p3601
aVACCUMULO-1135
p3602
aVACCUMULO-1134
p3603
aVACCUMULO-1133
p3604
aVACCUMULO-1132
p3605
aVACCUMULO-1131
p3606
aVACCUMULO-1130
p3607
aVACCUMULO-1129
p3608
aVACCUMULO-1128
p3609
aVACCUMULO-1127
p3610
aVACCUMULO-1126
p3611
aVACCUMULO-1125
p3612
aVACCUMULO-1124
p3613
aVACCUMULO-1123
p3614
aVACCUMULO-1122
p3615
aVACCUMULO-1121
p3616
aVACCUMULO-1120
p3617
aVACCUMULO-1119
p3618
aVACCUMULO-1118
p3619
aVACCUMULO-1117
p3620
aVACCUMULO-1116
p3621
aVACCUMULO-1115
p3622
aVACCUMULO-1114
p3623
aVACCUMULO-1113
p3624
aVACCUMULO-1112
p3625
aVACCUMULO-1111
p3626
aVACCUMULO-1110
p3627
aVACCUMULO-1109
p3628
aVACCUMULO-1108
p3629
aVACCUMULO-1107
p3630
aVACCUMULO-1106
p3631
aVACCUMULO-1105
p3632
aVACCUMULO-1104
p3633
aVACCUMULO-1103
p3634
aVACCUMULO-1102
p3635
aVACCUMULO-1101
p3636
aVACCUMULO-1100
p3637
aVACCUMULO-1099
p3638
aVACCUMULO-1098
p3639
aVACCUMULO-1097
p3640
aVACCUMULO-1096
p3641
aVACCUMULO-1095
p3642
aVACCUMULO-1094
p3643
aVACCUMULO-1093
p3644
aVACCUMULO-1092
p3645
aVACCUMULO-1091
p3646
aVACCUMULO-1090
p3647
aVACCUMULO-1089
p3648
aVACCUMULO-1088
p3649
aVACCUMULO-1087
p3650
aVACCUMULO-1086
p3651
aVACCUMULO-1085
p3652
aVACCUMULO-1084
p3653
aVACCUMULO-1083
p3654
aVACCUMULO-1082
p3655
aVACCUMULO-1081
p3656
aVACCUMULO-1080
p3657
aVACCUMULO-1079
p3658
aVACCUMULO-1078
p3659
aVACCUMULO-1077
p3660
aVACCUMULO-1076
p3661
aVACCUMULO-1075
p3662
aVACCUMULO-1074
p3663
aVACCUMULO-1073
p3664
aVACCUMULO-1072
p3665
aVACCUMULO-1071
p3666
aVACCUMULO-1070
p3667
aVACCUMULO-1069
p3668
aVACCUMULO-1068
p3669
aVACCUMULO-1067
p3670
aVACCUMULO-1066
p3671
aVACCUMULO-1065
p3672
aVACCUMULO-1064
p3673
aVACCUMULO-1063
p3674
aVACCUMULO-1062
p3675
aVACCUMULO-1061
p3676
aVACCUMULO-1060
p3677
aVACCUMULO-1059
p3678
aVACCUMULO-1058
p3679
aVACCUMULO-1057
p3680
aVACCUMULO-1056
p3681
aVACCUMULO-1055
p3682
aVACCUMULO-1054
p3683
aVACCUMULO-1053
p3684
aVACCUMULO-1052
p3685
aVACCUMULO-1051
p3686
aVACCUMULO-1050
p3687
aVACCUMULO-1049
p3688
aVACCUMULO-1048
p3689
aVACCUMULO-1047
p3690
aVACCUMULO-1046
p3691
aVACCUMULO-1045
p3692
aVACCUMULO-1044
p3693
aVACCUMULO-1043
p3694
aVACCUMULO-1042
p3695
aVACCUMULO-1041
p3696
aVACCUMULO-1040
p3697
aVACCUMULO-1039
p3698
aVACCUMULO-1038
p3699
aVACCUMULO-1037
p3700
aVACCUMULO-1036
p3701
aVACCUMULO-1035
p3702
aVACCUMULO-1034
p3703
aVACCUMULO-1033
p3704
aVACCUMULO-1032
p3705
aVACCUMULO-1031
p3706
aVACCUMULO-1030
p3707
aVACCUMULO-1029
p3708
aVACCUMULO-1028
p3709
aVACCUMULO-1027
p3710
aVACCUMULO-1026
p3711
aVACCUMULO-1025
p3712
aVACCUMULO-1024
p3713
aVACCUMULO-1023
p3714
aVACCUMULO-1022
p3715
aVACCUMULO-1021
p3716
aVACCUMULO-1020
p3717
aVACCUMULO-1019
p3718
aVACCUMULO-1018
p3719
aVACCUMULO-1017
p3720
aVACCUMULO-1016
p3721
aVACCUMULO-1015
p3722
aVACCUMULO-1014
p3723
aVACCUMULO-1013
p3724
aVACCUMULO-1012
p3725
aVACCUMULO-1011
p3726
aVACCUMULO-1010
p3727
aVACCUMULO-1009
p3728
aVACCUMULO-1008
p3729
aVACCUMULO-1007
p3730
aVACCUMULO-1006
p3731
aVACCUMULO-1005
p3732
aVACCUMULO-1004
p3733
aVACCUMULO-1003
p3734
aVACCUMULO-1002
p3735
aVACCUMULO-1001
p3736
aVACCUMULO-1000
p3737
aVACCUMULO-999
p3738
aVACCUMULO-998
p3739
aVACCUMULO-997
p3740
aVACCUMULO-996
p3741
aVACCUMULO-995
p3742
aVACCUMULO-994
p3743
aVACCUMULO-993
p3744
aVACCUMULO-992
p3745
aVACCUMULO-991
p3746
aVACCUMULO-990
p3747
aVACCUMULO-989
p3748
aVACCUMULO-988
p3749
aVACCUMULO-987
p3750
aVACCUMULO-986
p3751
aVACCUMULO-985
p3752
aVACCUMULO-984
p3753
aVACCUMULO-983
p3754
aVACCUMULO-982
p3755
aVACCUMULO-981
p3756
aVACCUMULO-980
p3757
aVACCUMULO-979
p3758
aVACCUMULO-978
p3759
aVACCUMULO-977
p3760
aVACCUMULO-976
p3761
aVACCUMULO-975
p3762
aVACCUMULO-974
p3763
aVACCUMULO-973
p3764
aVACCUMULO-972
p3765
aVACCUMULO-971
p3766
aVACCUMULO-970
p3767
aVACCUMULO-969
p3768
aVACCUMULO-968
p3769
aVACCUMULO-967
p3770
aVACCUMULO-966
p3771
aVACCUMULO-965
p3772
aVACCUMULO-964
p3773
aVACCUMULO-963
p3774
aVACCUMULO-962
p3775
aVACCUMULO-961
p3776
aVACCUMULO-960
p3777
aVACCUMULO-959
p3778
aVACCUMULO-958
p3779
aVACCUMULO-957
p3780
aVACCUMULO-956
p3781
aVACCUMULO-955
p3782
aVACCUMULO-954
p3783
aVACCUMULO-953
p3784
aVACCUMULO-952
p3785
aVACCUMULO-951
p3786
aVACCUMULO-950
p3787
aVACCUMULO-949
p3788
aVACCUMULO-948
p3789
aVACCUMULO-947
p3790
aVACCUMULO-946
p3791
aVACCUMULO-945
p3792
aVACCUMULO-944
p3793
aVACCUMULO-943
p3794
aVACCUMULO-942
p3795
aVACCUMULO-941
p3796
aVACCUMULO-940
p3797
aVACCUMULO-939
p3798
aVACCUMULO-938
p3799
aVACCUMULO-937
p3800
aVACCUMULO-936
p3801
aVACCUMULO-935
p3802
aVACCUMULO-934
p3803
aVACCUMULO-933
p3804
aVACCUMULO-932
p3805
aVACCUMULO-931
p3806
aVACCUMULO-930
p3807
aVACCUMULO-929
p3808
aVACCUMULO-928
p3809
aVACCUMULO-927
p3810
aVACCUMULO-926
p3811
aVACCUMULO-925
p3812
aVACCUMULO-924
p3813
aVACCUMULO-923
p3814
aVACCUMULO-922
p3815
aVACCUMULO-921
p3816
aVACCUMULO-920
p3817
aVACCUMULO-919
p3818
aVACCUMULO-918
p3819
aVACCUMULO-917
p3820
aVACCUMULO-916
p3821
aVACCUMULO-915
p3822
aVACCUMULO-914
p3823
aVACCUMULO-913
p3824
aVACCUMULO-912
p3825
aVACCUMULO-911
p3826
aVACCUMULO-910
p3827
aVACCUMULO-909
p3828
aVACCUMULO-908
p3829
aVACCUMULO-907
p3830
aVACCUMULO-906
p3831
aVACCUMULO-905
p3832
aVACCUMULO-904
p3833
aVACCUMULO-903
p3834
aVACCUMULO-902
p3835
aVACCUMULO-901
p3836
aVACCUMULO-900
p3837
aVACCUMULO-899
p3838
aVACCUMULO-898
p3839
aVACCUMULO-897
p3840
aVACCUMULO-896
p3841
aVACCUMULO-895
p3842
aVACCUMULO-894
p3843
aVACCUMULO-893
p3844
aVACCUMULO-892
p3845
aVACCUMULO-891
p3846
aVACCUMULO-890
p3847
aVACCUMULO-889
p3848
aVACCUMULO-888
p3849
aVACCUMULO-887
p3850
aVACCUMULO-886
p3851
aVACCUMULO-885
p3852
aVACCUMULO-884
p3853
aVACCUMULO-883
p3854
aVACCUMULO-882
p3855
aVACCUMULO-881
p3856
aVACCUMULO-880
p3857
aVACCUMULO-879
p3858
aVACCUMULO-878
p3859
aVACCUMULO-877
p3860
aVACCUMULO-876
p3861
aVACCUMULO-875
p3862
aVACCUMULO-874
p3863
aVACCUMULO-873
p3864
aVACCUMULO-872
p3865
aVACCUMULO-871
p3866
aVACCUMULO-870
p3867
aVACCUMULO-869
p3868
aVACCUMULO-868
p3869
aVACCUMULO-867
p3870
aVACCUMULO-866
p3871
aVACCUMULO-865
p3872
aVACCUMULO-864
p3873
aVACCUMULO-863
p3874
aVACCUMULO-862
p3875
aVACCUMULO-861
p3876
aVACCUMULO-860
p3877
aVACCUMULO-859
p3878
aVACCUMULO-858
p3879
aVACCUMULO-857
p3880
aVACCUMULO-856
p3881
aVACCUMULO-855
p3882
aVACCUMULO-854
p3883
aVACCUMULO-853
p3884
aVACCUMULO-852
p3885
aVACCUMULO-851
p3886
aVACCUMULO-850
p3887
aVACCUMULO-849
p3888
aVACCUMULO-848
p3889
aVACCUMULO-847
p3890
aVACCUMULO-846
p3891
aVACCUMULO-845
p3892
aVACCUMULO-844
p3893
aVACCUMULO-843
p3894
aVACCUMULO-842
p3895
aVACCUMULO-841
p3896
aVACCUMULO-840
p3897
aVACCUMULO-839
p3898
aVACCUMULO-838
p3899
aVACCUMULO-837
p3900
aVACCUMULO-836
p3901
aVACCUMULO-835
p3902
aVACCUMULO-834
p3903
aVACCUMULO-833
p3904
aVACCUMULO-832
p3905
aVACCUMULO-831
p3906
aVACCUMULO-830
p3907
aVACCUMULO-829
p3908
aVACCUMULO-828
p3909
aVACCUMULO-827
p3910
aVACCUMULO-826
p3911
aVACCUMULO-825
p3912
aVACCUMULO-824
p3913
aVACCUMULO-823
p3914
aVACCUMULO-822
p3915
aVACCUMULO-821
p3916
aVACCUMULO-820
p3917
aVACCUMULO-819
p3918
aVACCUMULO-818
p3919
aVACCUMULO-817
p3920
aVACCUMULO-816
p3921
aVACCUMULO-815
p3922
aVACCUMULO-814
p3923
aVACCUMULO-813
p3924
aVACCUMULO-812
p3925
aVACCUMULO-811
p3926
aVACCUMULO-810
p3927
aVACCUMULO-809
p3928
aVACCUMULO-808
p3929
aVACCUMULO-807
p3930
aVACCUMULO-806
p3931
aVACCUMULO-805
p3932
aVACCUMULO-804
p3933
aVACCUMULO-803
p3934
aVACCUMULO-802
p3935
aVACCUMULO-801
p3936
aVACCUMULO-800
p3937
aVACCUMULO-799
p3938
aVACCUMULO-798
p3939
aVACCUMULO-797
p3940
aVACCUMULO-796
p3941
aVACCUMULO-795
p3942
aVACCUMULO-794
p3943
aVACCUMULO-793
p3944
aVACCUMULO-792
p3945
aVACCUMULO-791
p3946
aVACCUMULO-790
p3947
aVACCUMULO-789
p3948
aVACCUMULO-788
p3949
aVACCUMULO-787
p3950
aVACCUMULO-786
p3951
aVACCUMULO-785
p3952
aVACCUMULO-784
p3953
aVACCUMULO-783
p3954
aVACCUMULO-782
p3955
aVACCUMULO-781
p3956
aVACCUMULO-780
p3957
aVACCUMULO-779
p3958
aVACCUMULO-778
p3959
aVACCUMULO-777
p3960
aVACCUMULO-776
p3961
aVACCUMULO-775
p3962
aVACCUMULO-774
p3963
aVACCUMULO-773
p3964
aVACCUMULO-772
p3965
aVACCUMULO-771
p3966
aVACCUMULO-770
p3967
aVACCUMULO-769
p3968
aVACCUMULO-768
p3969
aVACCUMULO-767
p3970
aVACCUMULO-766
p3971
aVACCUMULO-765
p3972
aVACCUMULO-764
p3973
aVACCUMULO-763
p3974
aVACCUMULO-762
p3975
aVACCUMULO-761
p3976
aVACCUMULO-760
p3977
aVACCUMULO-759
p3978
aVACCUMULO-758
p3979
aVACCUMULO-757
p3980
aVACCUMULO-756
p3981
aVACCUMULO-755
p3982
aVACCUMULO-754
p3983
aVACCUMULO-753
p3984
aVACCUMULO-752
p3985
aVACCUMULO-751
p3986
aVACCUMULO-750
p3987
aVACCUMULO-749
p3988
aVACCUMULO-748
p3989
aVACCUMULO-747
p3990
aVACCUMULO-746
p3991
aVACCUMULO-745
p3992
aVACCUMULO-744
p3993
aVACCUMULO-743
p3994
aVACCUMULO-742
p3995
aVACCUMULO-741
p3996
aVACCUMULO-740
p3997
aVACCUMULO-739
p3998
aVACCUMULO-738
p3999
aVACCUMULO-737
p4000
aVACCUMULO-736
p4001
aVACCUMULO-735
p4002
aVACCUMULO-734
p4003
aVACCUMULO-733
p4004
aVACCUMULO-732
p4005
aVACCUMULO-731
p4006
aVACCUMULO-730
p4007
aVACCUMULO-729
p4008
aVACCUMULO-728
p4009
aVACCUMULO-727
p4010
aVACCUMULO-726
p4011
aVACCUMULO-722
p4012
aVACCUMULO-721
p4013
aVACCUMULO-720
p4014
aVACCUMULO-719
p4015
aVACCUMULO-718
p4016
aVACCUMULO-717
p4017
aVACCUMULO-716
p4018
aVACCUMULO-715
p4019
aVACCUMULO-714
p4020
aVACCUMULO-713
p4021
aVACCUMULO-712
p4022
aVACCUMULO-711
p4023
aVACCUMULO-710
p4024
aVACCUMULO-709
p4025
aVACCUMULO-708
p4026
aVACCUMULO-707
p4027
aVACCUMULO-706
p4028
aVACCUMULO-705
p4029
aVACCUMULO-704
p4030
aVACCUMULO-703
p4031
aVACCUMULO-702
p4032
aVACCUMULO-701
p4033
aVACCUMULO-700
p4034
aVACCUMULO-699
p4035
aVACCUMULO-698
p4036
aVACCUMULO-697
p4037
aVACCUMULO-696
p4038
aVACCUMULO-695
p4039
aVACCUMULO-694
p4040
aVACCUMULO-693
p4041
aVACCUMULO-692
p4042
aVACCUMULO-691
p4043
aVACCUMULO-690
p4044
aVACCUMULO-689
p4045
aVACCUMULO-688
p4046
aVACCUMULO-687
p4047
aVACCUMULO-686
p4048
aVACCUMULO-685
p4049
aVACCUMULO-684
p4050
aVACCUMULO-683
p4051
aVACCUMULO-682
p4052
aVACCUMULO-681
p4053
aVACCUMULO-680
p4054
aVACCUMULO-679
p4055
aVACCUMULO-678
p4056
aVACCUMULO-677
p4057
aVACCUMULO-676
p4058
aVACCUMULO-675
p4059
aVACCUMULO-674
p4060
aVACCUMULO-673
p4061
aVACCUMULO-672
p4062
aVACCUMULO-671
p4063
aVACCUMULO-670
p4064
aVACCUMULO-669
p4065
aVACCUMULO-668
p4066
aVACCUMULO-667
p4067
aVACCUMULO-666
p4068
aVACCUMULO-665
p4069
aVACCUMULO-664
p4070
aVACCUMULO-663
p4071
aVACCUMULO-662
p4072
aVACCUMULO-661
p4073
aVACCUMULO-660
p4074
aVACCUMULO-659
p4075
aVACCUMULO-658
p4076
aVACCUMULO-657
p4077
aVACCUMULO-656
p4078
aVACCUMULO-655
p4079
aVACCUMULO-654
p4080
aVACCUMULO-653
p4081
aVACCUMULO-652
p4082
aVACCUMULO-651
p4083
aVACCUMULO-650
p4084
aVACCUMULO-649
p4085
aVACCUMULO-648
p4086
aVACCUMULO-647
p4087
aVACCUMULO-646
p4088
aVACCUMULO-645
p4089
aVACCUMULO-644
p4090
aVACCUMULO-643
p4091
aVACCUMULO-642
p4092
aVACCUMULO-641
p4093
aVACCUMULO-640
p4094
aVACCUMULO-639
p4095
aVACCUMULO-638
p4096
aVACCUMULO-637
p4097
aVACCUMULO-636
p4098
aVACCUMULO-635
p4099
aVACCUMULO-634
p4100
aVACCUMULO-633
p4101
aVACCUMULO-632
p4102
aVACCUMULO-631
p4103
aVACCUMULO-630
p4104
aVACCUMULO-629
p4105
aVACCUMULO-628
p4106
aVACCUMULO-627
p4107
aVACCUMULO-626
p4108
aVACCUMULO-625
p4109
aVACCUMULO-624
p4110
aVACCUMULO-623
p4111
aVACCUMULO-622
p4112
aVACCUMULO-621
p4113
aVACCUMULO-620
p4114
aVACCUMULO-619
p4115
aVACCUMULO-618
p4116
aVACCUMULO-617
p4117
aVACCUMULO-616
p4118
aVACCUMULO-615
p4119
aVACCUMULO-614
p4120
aVACCUMULO-613
p4121
aVACCUMULO-612
p4122
aVACCUMULO-611
p4123
aVACCUMULO-610
p4124
aVACCUMULO-609
p4125
aVACCUMULO-608
p4126
aVACCUMULO-607
p4127
aVACCUMULO-606
p4128
aVACCUMULO-605
p4129
aVACCUMULO-604
p4130
aVACCUMULO-603
p4131
aVACCUMULO-602
p4132
aVACCUMULO-601
p4133
aVACCUMULO-600
p4134
aVACCUMULO-599
p4135
aVACCUMULO-598
p4136
aVACCUMULO-597
p4137
aVACCUMULO-596
p4138
aVACCUMULO-595
p4139
aVACCUMULO-594
p4140
aVACCUMULO-593
p4141
aVACCUMULO-592
p4142
aVACCUMULO-591
p4143
aVACCUMULO-590
p4144
aVACCUMULO-589
p4145
aVACCUMULO-588
p4146
aVACCUMULO-587
p4147
aVACCUMULO-586
p4148
aVACCUMULO-585
p4149
aVACCUMULO-584
p4150
aVACCUMULO-583
p4151
aVACCUMULO-582
p4152
aVACCUMULO-581
p4153
aVACCUMULO-580
p4154
aVACCUMULO-579
p4155
aVACCUMULO-578
p4156
aVACCUMULO-577
p4157
aVACCUMULO-576
p4158
aVACCUMULO-575
p4159
aVACCUMULO-574
p4160
aVACCUMULO-573
p4161
aVACCUMULO-572
p4162
aVACCUMULO-571
p4163
aVACCUMULO-570
p4164
aVACCUMULO-569
p4165
aVACCUMULO-568
p4166
aVACCUMULO-567
p4167
aVACCUMULO-566
p4168
aVACCUMULO-565
p4169
aVACCUMULO-564
p4170
aVACCUMULO-563
p4171
aVACCUMULO-562
p4172
aVACCUMULO-561
p4173
aVACCUMULO-560
p4174
aVACCUMULO-559
p4175
aVACCUMULO-558
p4176
aVACCUMULO-557
p4177
aVACCUMULO-556
p4178
aVACCUMULO-555
p4179
aVACCUMULO-554
p4180
aVACCUMULO-553
p4181
aVACCUMULO-552
p4182
aVACCUMULO-551
p4183
aVACCUMULO-550
p4184
aVACCUMULO-549
p4185
aVACCUMULO-548
p4186
aVACCUMULO-547
p4187
aVACCUMULO-546
p4188
aVACCUMULO-545
p4189
aVACCUMULO-544
p4190
aVACCUMULO-543
p4191
aVACCUMULO-542
p4192
aVACCUMULO-541
p4193
aVACCUMULO-540
p4194
aVACCUMULO-539
p4195
aVACCUMULO-538
p4196
aVACCUMULO-537
p4197
aVACCUMULO-536
p4198
aVACCUMULO-535
p4199
aVACCUMULO-534
p4200
aVACCUMULO-533
p4201
aVACCUMULO-532
p4202
aVACCUMULO-531
p4203
aVACCUMULO-530
p4204
aVACCUMULO-529
p4205
aVACCUMULO-528
p4206
aVACCUMULO-527
p4207
aVACCUMULO-526
p4208
aVACCUMULO-525
p4209
aVACCUMULO-524
p4210
aVACCUMULO-523
p4211
aVACCUMULO-522
p4212
aVACCUMULO-521
p4213
aVACCUMULO-520
p4214
aVACCUMULO-519
p4215
aVACCUMULO-518
p4216
aVACCUMULO-517
p4217
aVACCUMULO-516
p4218
aVACCUMULO-515
p4219
aVACCUMULO-514
p4220
aVACCUMULO-513
p4221
aVACCUMULO-512
p4222
aVACCUMULO-511
p4223
aVACCUMULO-510
p4224
aVACCUMULO-509
p4225
aVACCUMULO-508
p4226
aVACCUMULO-507
p4227
aVACCUMULO-506
p4228
aVACCUMULO-505
p4229
aVACCUMULO-504
p4230
aVACCUMULO-503
p4231
aVACCUMULO-502
p4232
aVACCUMULO-501
p4233
aVACCUMULO-500
p4234
aVACCUMULO-499
p4235
aVACCUMULO-498
p4236
aVACCUMULO-497
p4237
aVACCUMULO-496
p4238
aVACCUMULO-495
p4239
aVACCUMULO-494
p4240
aVACCUMULO-493
p4241
aVACCUMULO-492
p4242
aVACCUMULO-491
p4243
aVACCUMULO-490
p4244
aVACCUMULO-489
p4245
aVACCUMULO-488
p4246
aVACCUMULO-487
p4247
aVACCUMULO-486
p4248
aVACCUMULO-485
p4249
aVACCUMULO-484
p4250
aVACCUMULO-483
p4251
aVACCUMULO-482
p4252
aVACCUMULO-481
p4253
aVACCUMULO-480
p4254
aVACCUMULO-479
p4255
aVACCUMULO-478
p4256
aVACCUMULO-477
p4257
aVACCUMULO-476
p4258
aVACCUMULO-475
p4259
aVACCUMULO-474
p4260
aVACCUMULO-473
p4261
aVACCUMULO-472
p4262
aVACCUMULO-471
p4263
aVACCUMULO-470
p4264
aVACCUMULO-469
p4265
aVACCUMULO-468
p4266
aVACCUMULO-467
p4267
aVACCUMULO-466
p4268
aVACCUMULO-465
p4269
aVACCUMULO-464
p4270
aVACCUMULO-463
p4271
aVACCUMULO-462
p4272
aVACCUMULO-461
p4273
aVACCUMULO-460
p4274
aVACCUMULO-459
p4275
aVACCUMULO-458
p4276
aVACCUMULO-457
p4277
aVACCUMULO-456
p4278
aVACCUMULO-455
p4279
aVACCUMULO-454
p4280
aVACCUMULO-453
p4281
aVACCUMULO-452
p4282
aVACCUMULO-451
p4283
aVACCUMULO-450
p4284
aVACCUMULO-449
p4285
aVACCUMULO-448
p4286
aVACCUMULO-447
p4287
aVACCUMULO-446
p4288
aVACCUMULO-445
p4289
aVACCUMULO-444
p4290
aVACCUMULO-443
p4291
aVACCUMULO-442
p4292
aVACCUMULO-441
p4293
aVACCUMULO-440
p4294
aVACCUMULO-439
p4295
aVACCUMULO-438
p4296
aVACCUMULO-437
p4297
aVACCUMULO-436
p4298
aVACCUMULO-435
p4299
aVACCUMULO-434
p4300
aVACCUMULO-433
p4301
aVACCUMULO-432
p4302
aVACCUMULO-431
p4303
aVACCUMULO-430
p4304
aVACCUMULO-429
p4305
aVACCUMULO-428
p4306
aVACCUMULO-427
p4307
aVACCUMULO-426
p4308
aVACCUMULO-425
p4309
aVACCUMULO-424
p4310
aVACCUMULO-423
p4311
aVACCUMULO-422
p4312
aVACCUMULO-421
p4313
aVACCUMULO-420
p4314
aVACCUMULO-419
p4315
aVACCUMULO-418
p4316
aVACCUMULO-417
p4317
aVACCUMULO-416
p4318
aVACCUMULO-415
p4319
aVACCUMULO-414
p4320
aVACCUMULO-413
p4321
aVACCUMULO-412
p4322
aVACCUMULO-411
p4323
aVACCUMULO-410
p4324
aVACCUMULO-409
p4325
aVACCUMULO-408
p4326
aVACCUMULO-407
p4327
aVACCUMULO-406
p4328
aVACCUMULO-405
p4329
aVACCUMULO-404
p4330
aVACCUMULO-403
p4331
aVACCUMULO-402
p4332
aVACCUMULO-401
p4333
aVACCUMULO-400
p4334
aVACCUMULO-399
p4335
aVACCUMULO-398
p4336
aVACCUMULO-397
p4337
aVACCUMULO-396
p4338
aVACCUMULO-395
p4339
aVACCUMULO-394
p4340
aVACCUMULO-393
p4341
aVACCUMULO-392
p4342
aVACCUMULO-391
p4343
aVACCUMULO-390
p4344
aVACCUMULO-389
p4345
aVACCUMULO-388
p4346
aVACCUMULO-387
p4347
aVACCUMULO-386
p4348
aVACCUMULO-385
p4349
aVACCUMULO-384
p4350
aVACCUMULO-383
p4351
aVACCUMULO-382
p4352
aVACCUMULO-381
p4353
aVACCUMULO-380
p4354
aVACCUMULO-379
p4355
aVACCUMULO-378
p4356
aVACCUMULO-377
p4357
aVACCUMULO-376
p4358
aVACCUMULO-375
p4359
aVACCUMULO-374
p4360
aVACCUMULO-373
p4361
aVACCUMULO-372
p4362
aVACCUMULO-371
p4363
aVACCUMULO-370
p4364
aVACCUMULO-369
p4365
aVACCUMULO-368
p4366
aVACCUMULO-367
p4367
aVACCUMULO-366
p4368
aVACCUMULO-365
p4369
aVACCUMULO-364
p4370
aVACCUMULO-363
p4371
aVACCUMULO-362
p4372
aVACCUMULO-361
p4373
aVACCUMULO-360
p4374
aVACCUMULO-359
p4375
aVACCUMULO-358
p4376
aVACCUMULO-357
p4377
aVACCUMULO-356
p4378
aVACCUMULO-355
p4379
aVACCUMULO-354
p4380
aVACCUMULO-353
p4381
aVACCUMULO-352
p4382
aVACCUMULO-351
p4383
aVACCUMULO-350
p4384
aVACCUMULO-349
p4385
aVACCUMULO-348
p4386
aVACCUMULO-347
p4387
aVACCUMULO-346
p4388
aVACCUMULO-345
p4389
aVACCUMULO-344
p4390
aVACCUMULO-343
p4391
aVACCUMULO-342
p4392
aVACCUMULO-341
p4393
aVACCUMULO-340
p4394
aVACCUMULO-339
p4395
aVACCUMULO-338
p4396
aVACCUMULO-337
p4397
aVACCUMULO-336
p4398
aVACCUMULO-335
p4399
aVACCUMULO-334
p4400
aVACCUMULO-333
p4401
aVACCUMULO-332
p4402
aVACCUMULO-331
p4403
aVACCUMULO-330
p4404
aVACCUMULO-329
p4405
aVACCUMULO-328
p4406
aVACCUMULO-327
p4407
aVACCUMULO-326
p4408
aVACCUMULO-325
p4409
aVACCUMULO-324
p4410
aVACCUMULO-323
p4411
aVACCUMULO-322
p4412
aVACCUMULO-321
p4413
aVACCUMULO-320
p4414
aVACCUMULO-319
p4415
aVACCUMULO-318
p4416
aVACCUMULO-317
p4417
aVACCUMULO-316
p4418
aVACCUMULO-315
p4419
aVACCUMULO-314
p4420
aVACCUMULO-313
p4421
aVACCUMULO-312
p4422
aVACCUMULO-311
p4423
aVACCUMULO-310
p4424
aVACCUMULO-309
p4425
aVACCUMULO-308
p4426
aVACCUMULO-307
p4427
aVACCUMULO-306
p4428
aVACCUMULO-305
p4429
aVACCUMULO-304
p4430
aVACCUMULO-303
p4431
aVACCUMULO-302
p4432
aVACCUMULO-301
p4433
aVACCUMULO-300
p4434
aVACCUMULO-299
p4435
aVACCUMULO-298
p4436
aVACCUMULO-297
p4437
aVACCUMULO-296
p4438
aVACCUMULO-295
p4439
aVACCUMULO-294
p4440
aVACCUMULO-293
p4441
aVACCUMULO-292
p4442
aVACCUMULO-291
p4443
aVACCUMULO-290
p4444
aVACCUMULO-289
p4445
aVACCUMULO-288
p4446
aVACCUMULO-287
p4447
aVACCUMULO-286
p4448
aVACCUMULO-285
p4449
aVACCUMULO-284
p4450
aVACCUMULO-283
p4451
aVACCUMULO-282
p4452
aVACCUMULO-281
p4453
aVACCUMULO-280
p4454
aVACCUMULO-279
p4455
aVACCUMULO-278
p4456
aVACCUMULO-277
p4457
aVACCUMULO-276
p4458
aVACCUMULO-275
p4459
aVACCUMULO-274
p4460
aVACCUMULO-273
p4461
aVACCUMULO-272
p4462
aVACCUMULO-271
p4463
aVACCUMULO-270
p4464
aVACCUMULO-269
p4465
aVACCUMULO-268
p4466
aVACCUMULO-267
p4467
aVACCUMULO-266
p4468
aVACCUMULO-265
p4469
aVACCUMULO-264
p4470
aVACCUMULO-263
p4471
aVACCUMULO-262
p4472
aVACCUMULO-261
p4473
aVACCUMULO-260
p4474
aVACCUMULO-259
p4475
aVACCUMULO-258
p4476
aVACCUMULO-257
p4477
aVACCUMULO-256
p4478
aVACCUMULO-255
p4479
aVACCUMULO-254
p4480
aVACCUMULO-253
p4481
aVACCUMULO-252
p4482
aVACCUMULO-251
p4483
aVACCUMULO-250
p4484
aVACCUMULO-249
p4485
aVACCUMULO-248
p4486
aVACCUMULO-247
p4487
aVACCUMULO-246
p4488
aVACCUMULO-245
p4489
aVACCUMULO-244
p4490
aVACCUMULO-243
p4491
aVACCUMULO-242
p4492
aVACCUMULO-241
p4493
aVACCUMULO-240
p4494
aVACCUMULO-239
p4495
aVACCUMULO-238
p4496
aVACCUMULO-237
p4497
aVACCUMULO-236
p4498
aVACCUMULO-235
p4499
aVACCUMULO-234
p4500
aVACCUMULO-233
p4501
aVACCUMULO-232
p4502
aVACCUMULO-231
p4503
aVACCUMULO-230
p4504
aVACCUMULO-229
p4505
aVACCUMULO-228
p4506
aVACCUMULO-227
p4507
aVACCUMULO-226
p4508
aVACCUMULO-225
p4509
aVACCUMULO-224
p4510
aVACCUMULO-223
p4511
aVACCUMULO-222
p4512
aVACCUMULO-221
p4513
aVACCUMULO-220
p4514
aVACCUMULO-219
p4515
aVACCUMULO-218
p4516
aVACCUMULO-217
p4517
aVACCUMULO-216
p4518
aVACCUMULO-215
p4519
aVACCUMULO-214
p4520
aVACCUMULO-213
p4521
aVACCUMULO-212
p4522
aVACCUMULO-211
p4523
aVACCUMULO-210
p4524
aVACCUMULO-209
p4525
aVACCUMULO-208
p4526
aVACCUMULO-207
p4527
aVACCUMULO-206
p4528
aVACCUMULO-205
p4529
aVACCUMULO-204
p4530
aVACCUMULO-203
p4531
aVACCUMULO-202
p4532
aVACCUMULO-201
p4533
aVACCUMULO-200
p4534
aVACCUMULO-199
p4535
aVACCUMULO-198
p4536
aVACCUMULO-197
p4537
aVACCUMULO-196
p4538
aVACCUMULO-195
p4539
aVACCUMULO-194
p4540
aVACCUMULO-193
p4541
aVACCUMULO-192
p4542
aVACCUMULO-191
p4543
aVACCUMULO-190
p4544
aVACCUMULO-189
p4545
aVACCUMULO-188
p4546
aVACCUMULO-187
p4547
aVACCUMULO-186
p4548
aVACCUMULO-185
p4549
aVACCUMULO-184
p4550
aVACCUMULO-183
p4551
aVACCUMULO-182
p4552
aVACCUMULO-181
p4553
aVACCUMULO-180
p4554
aVACCUMULO-179
p4555
aVACCUMULO-178
p4556
aVACCUMULO-177
p4557
aVACCUMULO-176
p4558
aVACCUMULO-175
p4559
aVACCUMULO-174
p4560
aVACCUMULO-173
p4561
aVACCUMULO-172
p4562
aVACCUMULO-171
p4563
aVACCUMULO-170
p4564
aVACCUMULO-169
p4565
aVACCUMULO-168
p4566
aVACCUMULO-167
p4567
aVACCUMULO-166
p4568
aVACCUMULO-165
p4569
aVACCUMULO-164
p4570
aVACCUMULO-163
p4571
aVACCUMULO-162
p4572
aVACCUMULO-161
p4573
aVACCUMULO-160
p4574
aVACCUMULO-159
p4575
aVACCUMULO-158
p4576
aVACCUMULO-157
p4577
aVACCUMULO-156
p4578
aVACCUMULO-155
p4579
aVACCUMULO-154
p4580
aVACCUMULO-153
p4581
aVACCUMULO-152
p4582
aVACCUMULO-151
p4583
aVACCUMULO-150
p4584
aVACCUMULO-149
p4585
aVACCUMULO-148
p4586
aVACCUMULO-147
p4587
aVACCUMULO-146
p4588
aVACCUMULO-145
p4589
aVACCUMULO-144
p4590
aVACCUMULO-143
p4591
aVACCUMULO-142
p4592
aVACCUMULO-141
p4593
aVACCUMULO-140
p4594
aVACCUMULO-139
p4595
aVACCUMULO-138
p4596
aVACCUMULO-137
p4597
aVACCUMULO-136
p4598
aVACCUMULO-135
p4599
aVACCUMULO-134
p4600
aVACCUMULO-133
p4601
aVACCUMULO-132
p4602
aVACCUMULO-131
p4603
aVACCUMULO-130
p4604
aVACCUMULO-129
p4605
aVACCUMULO-128
p4606
aVACCUMULO-127
p4607
aVACCUMULO-126
p4608
aVACCUMULO-125
p4609
aVACCUMULO-124
p4610
aVACCUMULO-123
p4611
aVACCUMULO-122
p4612
aVACCUMULO-121
p4613
aVACCUMULO-120
p4614
aVACCUMULO-119
p4615
aVACCUMULO-118
p4616
aVACCUMULO-117
p4617
aVACCUMULO-116
p4618
aVACCUMULO-115
p4619
aVACCUMULO-114
p4620
aVACCUMULO-113
p4621
aVACCUMULO-112
p4622
aVACCUMULO-111
p4623
aVACCUMULO-110
p4624
aVACCUMULO-109
p4625
aVACCUMULO-108
p4626
aVACCUMULO-107
p4627
aVACCUMULO-106
p4628
aVACCUMULO-105
p4629
aVACCUMULO-104
p4630
aVACCUMULO-103
p4631
aVACCUMULO-102
p4632
aVACCUMULO-101
p4633
aVACCUMULO-100
p4634
aVACCUMULO-99
p4635
aVACCUMULO-98
p4636
aVACCUMULO-97
p4637
aVACCUMULO-96
p4638
aVACCUMULO-95
p4639
aVACCUMULO-94
p4640
aVACCUMULO-93
p4641
aVACCUMULO-92
p4642
aVACCUMULO-91
p4643
aVACCUMULO-90
p4644
aVACCUMULO-89
p4645
aVACCUMULO-88
p4646
aVACCUMULO-87
p4647
aVACCUMULO-86
p4648
aVACCUMULO-85
p4649
aVACCUMULO-84
p4650
aVACCUMULO-83
p4651
aVACCUMULO-82
p4652
aVACCUMULO-81
p4653
aVACCUMULO-80
p4654
aVACCUMULO-79
p4655
aVACCUMULO-78
p4656
aVACCUMULO-77
p4657
aVACCUMULO-76
p4658
aVACCUMULO-75
p4659
aVACCUMULO-74
p4660
aVACCUMULO-73
p4661
aVACCUMULO-72
p4662
aVACCUMULO-71
p4663
aVACCUMULO-70
p4664
aVACCUMULO-69
p4665
aVACCUMULO-68
p4666
aVACCUMULO-67
p4667
aVACCUMULO-66
p4668
aVACCUMULO-65
p4669
aVACCUMULO-64
p4670
aVACCUMULO-63
p4671
aVACCUMULO-62
p4672
aVACCUMULO-61
p4673
aVACCUMULO-60
p4674
aVACCUMULO-59
p4675
aVACCUMULO-58
p4676
aVACCUMULO-57
p4677
aVACCUMULO-56
p4678
aVACCUMULO-55
p4679
aVACCUMULO-54
p4680
aVACCUMULO-53
p4681
aVACCUMULO-52
p4682
aVACCUMULO-51
p4683
aVACCUMULO-50
p4684
aVACCUMULO-49
p4685
aVACCUMULO-48
p4686
aVACCUMULO-47
p4687
aVACCUMULO-46
p4688
aVACCUMULO-45
p4689
aVACCUMULO-44
p4690
aVACCUMULO-43
p4691
aVACCUMULO-42
p4692
aVACCUMULO-41
p4693
aVACCUMULO-40
p4694
aVACCUMULO-39
p4695
aVACCUMULO-38
p4696
aVACCUMULO-37
p4697
aVACCUMULO-36
p4698
aVACCUMULO-35
p4699
aVACCUMULO-34
p4700
aVACCUMULO-33
p4701
aVACCUMULO-32
p4702
aVACCUMULO-31
p4703
aVACCUMULO-30
p4704
aVACCUMULO-29
p4705
aVACCUMULO-28
p4706
aVACCUMULO-27
p4707
aVACCUMULO-26
p4708
aVACCUMULO-25
p4709
aVACCUMULO-24
p4710
aVACCUMULO-23
p4711
aVACCUMULO-22
p4712
aVACCUMULO-21
p4713
aVACCUMULO-20
p4714
aVACCUMULO-19
p4715
aVACCUMULO-18
p4716
aVACCUMULO-17
p4717
aVACCUMULO-16
p4718
aVACCUMULO-15
p4719
aVACCUMULO-14
p4720
aVACCUMULO-13
p4721
aVACCUMULO-12
p4722
aVACCUMULO-11
p4723
aVACCUMULO-10
p4724
aVACCUMULO-9
p4725
aVACCUMULO-8
p4726
aVACCUMULO-7
p4727
aVACCUMULO-6
p4728
aVACCUMULO-5
p4729
aVACCUMULO-4
p4730
aVACCUMULO-3
p4731
aVACCUMULO-2
p4732
aVACCUMULO-1
p4733
a.