(lp0
VACE-635
p1
aVACE-634
p2
aVACE-633
p3
aVACE-632
p4
aVACE-631
p5
aVACE-630
p6
aVACE-628
p7
aVACE-627
p8
aVACE-626
p9
aVACE-625
p10
aVACE-624
p11
aVACE-610
p12
aVACE-607
p13
aVACE-606
p14
aVACE-600
p15
aVACE-599
p16
aVACE-598
p17
aVACE-597
p18
aVACE-596
p19
aVACE-595
p20
aVACE-594
p21
aVACE-593
p22
aVACE-592
p23
aVACE-591
p24
aVACE-590
p25
aVACE-540
p26
aVACE-539
p27
aVACE-538
p28
aVACE-537
p29
aVACE-536
p30
aVACE-535
p31
aVACE-534
p32
aVACE-533
p33
aVACE-532
p34
aVACE-531
p35
aVACE-530
p36
aVACE-529
p37
aVACE-528
p38
aVACE-527
p39
aVACE-526
p40
aVACE-525
p41
aVACE-524
p42
aVACE-523
p43
aVACE-522
p44
aVACE-521
p45
aVACE-520
p46
aVACE-519
p47
aVACE-518
p48
aVACE-517
p49
aVACE-515
p50
aVACE-514
p51
aVACE-513
p52
aVACE-512
p53
aVACE-511
p54
aVACE-509
p55
aVACE-508
p56
aVACE-507
p57
aVACE-503
p58
aVACE-502
p59
aVACE-501
p60
aVACE-500
p61
aVACE-499
p62
aVACE-497
p63
aVACE-496
p64
aVACE-495
p65
aVACE-494
p66
aVACE-493
p67
aVACE-492
p68
aVACE-491
p69
aVACE-490
p70
aVACE-489
p71
aVACE-488
p72
aVACE-487
p73
aVACE-486
p74
aVACE-485
p75
aVACE-484
p76
aVACE-483
p77
aVACE-482
p78
aVACE-481
p79
aVACE-480
p80
aVACE-479
p81
aVACE-478
p82
aVACE-477
p83
aVACE-476
p84
aVACE-475
p85
aVACE-474
p86
aVACE-473
p87
aVACE-472
p88
aVACE-471
p89
aVACE-469
p90
aVACE-468
p91
aVACE-467
p92
aVACE-466
p93
aVACE-465
p94
aVACE-464
p95
aVACE-463
p96
aVACE-462
p97
aVACE-461
p98
aVACE-460
p99
aVACE-459
p100
aVACE-458
p101
aVACE-457
p102
aVACE-456
p103
aVACE-455
p104
aVACE-454
p105
aVACE-453
p106
aVACE-452
p107
aVACE-451
p108
aVACE-450
p109
aVACE-449
p110
aVACE-448
p111
aVACE-447
p112
aVACE-446
p113
aVACE-445
p114
aVACE-444
p115
aVACE-443
p116
aVACE-442
p117
aVACE-441
p118
aVACE-440
p119
aVACE-439
p120
aVACE-438
p121
aVACE-437
p122
aVACE-436
p123
aVACE-435
p124
aVACE-434
p125
aVACE-433
p126
aVACE-432
p127
aVACE-431
p128
aVACE-430
p129
aVACE-429
p130
aVACE-428
p131
aVACE-427
p132
aVACE-426
p133
aVACE-425
p134
aVACE-424
p135
aVACE-423
p136
aVACE-422
p137
aVACE-421
p138
aVACE-420
p139
aVACE-419
p140
aVACE-418
p141
aVACE-417
p142
aVACE-416
p143
aVACE-415
p144
aVACE-414
p145
aVACE-413
p146
aVACE-412
p147
aVACE-411
p148
aVACE-410
p149
aVACE-409
p150
aVACE-408
p151
aVACE-407
p152
aVACE-405
p153
aVACE-404
p154
aVACE-403
p155
aVACE-402
p156
aVACE-401
p157
aVACE-400
p158
aVACE-399
p159
aVACE-398
p160
aVACE-397
p161
aVACE-396
p162
aVACE-395
p163
aVACE-394
p164
aVACE-393
p165
aVACE-392
p166
aVACE-391
p167
aVACE-390
p168
aVACE-389
p169
aVACE-388
p170
aVACE-387
p171
aVACE-386
p172
aVACE-385
p173
aVACE-384
p174
aVACE-383
p175
aVACE-382
p176
aVACE-381
p177
aVACE-380
p178
aVACE-379
p179
aVACE-378
p180
aVACE-377
p181
aVACE-376
p182
aVACE-375
p183
aVACE-374
p184
aVACE-373
p185
aVACE-372
p186
aVACE-371
p187
aVACE-370
p188
aVACE-368
p189
aVACE-367
p190
aVACE-366
p191
aVACE-365
p192
aVACE-364
p193
aVACE-363
p194
aVACE-362
p195
aVACE-361
p196
aVACE-360
p197
aVACE-359
p198
aVACE-358
p199
aVACE-357
p200
aVACE-356
p201
aVACE-355
p202
aVACE-354
p203
aVACE-353
p204
aVACE-352
p205
aVACE-351
p206
aVACE-350
p207
aVACE-349
p208
aVACE-348
p209
aVACE-347
p210
aVACE-346
p211
aVACE-345
p212
aVACE-344
p213
aVACE-343
p214
aVACE-342
p215
aVACE-341
p216
aVACE-340
p217
aVACE-339
p218
aVACE-338
p219
aVACE-337
p220
aVACE-336
p221
aVACE-335
p222
aVACE-334
p223
aVACE-333
p224
aVACE-332
p225
aVACE-331
p226
aVACE-330
p227
aVACE-329
p228
aVACE-328
p229
aVACE-327
p230
aVACE-326
p231
aVACE-325
p232
aVACE-324
p233
aVACE-323
p234
aVACE-322
p235
aVACE-321
p236
aVACE-320
p237
aVACE-319
p238
aVACE-318
p239
aVACE-317
p240
aVACE-316
p241
aVACE-315
p242
aVACE-314
p243
aVACE-313
p244
aVACE-309
p245
aVACE-308
p246
aVACE-307
p247
aVACE-306
p248
aVACE-305
p249
aVACE-304
p250
aVACE-303
p251
aVACE-302
p252
aVACE-301
p253
aVACE-300
p254
aVACE-299
p255
aVACE-298
p256
aVACE-297
p257
aVACE-296
p258
aVACE-295
p259
aVACE-294
p260
aVACE-293
p261
aVACE-292
p262
aVACE-291
p263
aVACE-289
p264
aVACE-288
p265
aVACE-287
p266
aVACE-285
p267
aVACE-284
p268
aVACE-283
p269
aVACE-282
p270
aVACE-281
p271
aVACE-280
p272
aVACE-279
p273
aVACE-278
p274
aVACE-277
p275
aVACE-276
p276
aVACE-275
p277
aVACE-274
p278
aVACE-273
p279
aVACE-272
p280
aVACE-271
p281
aVACE-270
p282
aVACE-269
p283
aVACE-268
p284
aVACE-267
p285
aVACE-266
p286
aVACE-265
p287
aVACE-264
p288
aVACE-263
p289
aVACE-262
p290
aVACE-261
p291
aVACE-260
p292
aVACE-259
p293
aVACE-258
p294
aVACE-257
p295
aVACE-256
p296
aVACE-255
p297
aVACE-254
p298
aVACE-253
p299
aVACE-252
p300
aVACE-251
p301
aVACE-250
p302
aVACE-249
p303
aVACE-248
p304
aVACE-247
p305
aVACE-246
p306
aVACE-245
p307
aVACE-244
p308
aVACE-243
p309
aVACE-242
p310
aVACE-241
p311
aVACE-240
p312
aVACE-239
p313
aVACE-238
p314
aVACE-237
p315
aVACE-236
p316
aVACE-235
p317
aVACE-234
p318
aVACE-233
p319
aVACE-232
p320
aVACE-231
p321
aVACE-230
p322
aVACE-229
p323
aVACE-228
p324
aVACE-227
p325
aVACE-226
p326
aVACE-225
p327
aVACE-224
p328
aVACE-223
p329
aVACE-222
p330
aVACE-221
p331
aVACE-220
p332
aVACE-219
p333
aVACE-218
p334
aVACE-217
p335
aVACE-216
p336
aVACE-215
p337
aVACE-214
p338
aVACE-213
p339
aVACE-212
p340
aVACE-211
p341
aVACE-210
p342
aVACE-209
p343
aVACE-208
p344
aVACE-207
p345
aVACE-206
p346
aVACE-205
p347
aVACE-204
p348
aVACE-203
p349
aVACE-202
p350
aVACE-201
p351
aVACE-200
p352
aVACE-199
p353
aVACE-198
p354
aVACE-197
p355
aVACE-196
p356
aVACE-195
p357
aVACE-194
p358
aVACE-193
p359
aVACE-192
p360
aVACE-191
p361
aVACE-190
p362
aVACE-189
p363
aVACE-188
p364
aVACE-187
p365
aVACE-186
p366
aVACE-185
p367
aVACE-184
p368
aVACE-183
p369
aVACE-182
p370
aVACE-181
p371
aVACE-180
p372
aVACE-179
p373
aVACE-178
p374
aVACE-177
p375
aVACE-176
p376
aVACE-175
p377
aVACE-174
p378
aVACE-173
p379
aVACE-172
p380
aVACE-171
p381
aVACE-170
p382
aVACE-169
p383
aVACE-168
p384
aVACE-167
p385
aVACE-166
p386
aVACE-164
p387
aVACE-163
p388
aVACE-162
p389
aVACE-161
p390
aVACE-160
p391
aVACE-159
p392
aVACE-158
p393
aVACE-157
p394
aVACE-156
p395
aVACE-155
p396
aVACE-154
p397
aVACE-153
p398
aVACE-152
p399
aVACE-151
p400
aVACE-150
p401
aVACE-149
p402
aVACE-148
p403
aVACE-147
p404
aVACE-146
p405
aVACE-145
p406
aVACE-144
p407
aVACE-143
p408
aVACE-142
p409
aVACE-141
p410
aVACE-140
p411
aVACE-139
p412
aVACE-138
p413
aVACE-137
p414
aVACE-136
p415
aVACE-135
p416
aVACE-134
p417
aVACE-133
p418
aVACE-132
p419
aVACE-131
p420
aVACE-130
p421
aVACE-129
p422
aVACE-128
p423
aVACE-127
p424
aVACE-126
p425
aVACE-125
p426
aVACE-124
p427
aVACE-123
p428
aVACE-122
p429
aVACE-121
p430
aVACE-120
p431
aVACE-119
p432
aVACE-118
p433
aVACE-117
p434
aVACE-116
p435
aVACE-115
p436
aVACE-114
p437
aVACE-113
p438
aVACE-112
p439
aVACE-111
p440
aVACE-110
p441
aVACE-109
p442
aVACE-108
p443
aVACE-107
p444
aVACE-106
p445
aVACE-105
p446
aVACE-104
p447
aVACE-103
p448
aVACE-102
p449
aVACE-101
p450
aVACE-100
p451
aVACE-99
p452
aVACE-98
p453
aVACE-97
p454
aVACE-96
p455
aVACE-95
p456
aVACE-94
p457
aVACE-93
p458
aVACE-92
p459
aVACE-91
p460
aVACE-90
p461
aVACE-89
p462
aVACE-88
p463
aVACE-87
p464
aVACE-80
p465
aVACE-79
p466
aVACE-78
p467
aVACE-77
p468
aVACE-76
p469
aVACE-75
p470
aVACE-74
p471
aVACE-72
p472
aVACE-71
p473
aVACE-70
p474
aVACE-69
p475
aVACE-68
p476
aVACE-67
p477
aVACE-65
p478
aVACE-64
p479
aVACE-63
p480
aVACE-62
p481
aVACE-61
p482
aVACE-60
p483
aVACE-59
p484
aVACE-58
p485
aVACE-57
p486
aVACE-56
p487
aVACE-55
p488
aVACE-54
p489
aVACE-53
p490
aVACE-52
p491
aVACE-51
p492
aVACE-50
p493
aVACE-49
p494
aVACE-48
p495
aVACE-47
p496
aVACE-46
p497
aVACE-45
p498
aVACE-44
p499
aVACE-43
p500
aVACE-42
p501
aVACE-41
p502
aVACE-40
p503
aVACE-39
p504
aVACE-36
p505
aVACE-35
p506
aVACE-34
p507
aVACE-33
p508
aVACE-32
p509
aVACE-31
p510
aVACE-30
p511
aVACE-29
p512
aVACE-28
p513
aVACE-27
p514
aVACE-26
p515
aVACE-25
p516
aVACE-24
p517
aVACE-23
p518
aVACE-22
p519
aVACE-21
p520
aVACE-20
p521
aVACE-19
p522
aVACE-18
p523
aVACE-17
p524
aVACE-16
p525
aVACE-15
p526
aVACE-14
p527
aVACE-13
p528
aVACE-12
p529
aVACE-11
p530
aVACE-10
p531
aVACE-8
p532
aVACE-7
p533
aVACE-6
p534
aVACE-5
p535
aVACE-4
p536
aVACE-3
p537
aVACE-2
p538
aVACE-1
p539
a.