(lp0
VAIRAVATA-2864
p1
aVAIRAVATA-2863
p2
aVAIRAVATA-2862
p3
aVAIRAVATA-2861
p4
aVAIRAVATA-2860
p5
aVAIRAVATA-2859
p6
aVAIRAVATA-2858
p7
aVAIRAVATA-2857
p8
aVAIRAVATA-2856
p9
aVAIRAVATA-2855
p10
aVAIRAVATA-2854
p11
aVAIRAVATA-2853
p12
aVAIRAVATA-2852
p13
aVAIRAVATA-2851
p14
aVAIRAVATA-2850
p15
aVAIRAVATA-2849
p16
aVAIRAVATA-2848
p17
aVAIRAVATA-2847
p18
aVAIRAVATA-2846
p19
aVAIRAVATA-2845
p20
aVAIRAVATA-2844
p21
aVAIRAVATA-2843
p22
aVAIRAVATA-2842
p23
aVAIRAVATA-2841
p24
aVAIRAVATA-2840
p25
aVAIRAVATA-2839
p26
aVAIRAVATA-2838
p27
aVAIRAVATA-2837
p28
aVAIRAVATA-2836
p29
aVAIRAVATA-2835
p30
aVAIRAVATA-2834
p31
aVAIRAVATA-2833
p32
aVAIRAVATA-2832
p33
aVAIRAVATA-2831
p34
aVAIRAVATA-2830
p35
aVAIRAVATA-2829
p36
aVAIRAVATA-2828
p37
aVAIRAVATA-2827
p38
aVAIRAVATA-2826
p39
aVAIRAVATA-2825
p40
aVAIRAVATA-2824
p41
aVAIRAVATA-2823
p42
aVAIRAVATA-2822
p43
aVAIRAVATA-2821
p44
aVAIRAVATA-2820
p45
aVAIRAVATA-2819
p46
aVAIRAVATA-2818
p47
aVAIRAVATA-2817
p48
aVAIRAVATA-2816
p49
aVAIRAVATA-2815
p50
aVAIRAVATA-2814
p51
aVAIRAVATA-2813
p52
aVAIRAVATA-2812
p53
aVAIRAVATA-2811
p54
aVAIRAVATA-2810
p55
aVAIRAVATA-2809
p56
aVAIRAVATA-2808
p57
aVAIRAVATA-2807
p58
aVAIRAVATA-2806
p59
aVAIRAVATA-2805
p60
aVAIRAVATA-2804
p61
aVAIRAVATA-2803
p62
aVAIRAVATA-2802
p63
aVAIRAVATA-2801
p64
aVAIRAVATA-2800
p65
aVAIRAVATA-2799
p66
aVAIRAVATA-2798
p67
aVAIRAVATA-2797
p68
aVAIRAVATA-2796
p69
aVAIRAVATA-2795
p70
aVAIRAVATA-2794
p71
aVAIRAVATA-2793
p72
aVAIRAVATA-2792
p73
aVAIRAVATA-2791
p74
aVAIRAVATA-2790
p75
aVAIRAVATA-2789
p76
aVAIRAVATA-2788
p77
aVAIRAVATA-2787
p78
aVAIRAVATA-2786
p79
aVAIRAVATA-2785
p80
aVAIRAVATA-2784
p81
aVAIRAVATA-2783
p82
aVAIRAVATA-2782
p83
aVAIRAVATA-2781
p84
aVAIRAVATA-2780
p85
aVAIRAVATA-2779
p86
aVAIRAVATA-2778
p87
aVAIRAVATA-2777
p88
aVAIRAVATA-2776
p89
aVAIRAVATA-2775
p90
aVAIRAVATA-2774
p91
aVAIRAVATA-2773
p92
aVAIRAVATA-2772
p93
aVAIRAVATA-2771
p94
aVAIRAVATA-2770
p95
aVAIRAVATA-2769
p96
aVAIRAVATA-2768
p97
aVAIRAVATA-2767
p98
aVAIRAVATA-2766
p99
aVAIRAVATA-2765
p100
aVAIRAVATA-2764
p101
aVAIRAVATA-2763
p102
aVAIRAVATA-2762
p103
aVAIRAVATA-2761
p104
aVAIRAVATA-2760
p105
aVAIRAVATA-2759
p106
aVAIRAVATA-2758
p107
aVAIRAVATA-2757
p108
aVAIRAVATA-2756
p109
aVAIRAVATA-2755
p110
aVAIRAVATA-2754
p111
aVAIRAVATA-2753
p112
aVAIRAVATA-2752
p113
aVAIRAVATA-2751
p114
aVAIRAVATA-2750
p115
aVAIRAVATA-2749
p116
aVAIRAVATA-2748
p117
aVAIRAVATA-2747
p118
aVAIRAVATA-2746
p119
aVAIRAVATA-2745
p120
aVAIRAVATA-2744
p121
aVAIRAVATA-2743
p122
aVAIRAVATA-2742
p123
aVAIRAVATA-2741
p124
aVAIRAVATA-2740
p125
aVAIRAVATA-2739
p126
aVAIRAVATA-2738
p127
aVAIRAVATA-2737
p128
aVAIRAVATA-2736
p129
aVAIRAVATA-2735
p130
aVAIRAVATA-2734
p131
aVAIRAVATA-2733
p132
aVAIRAVATA-2732
p133
aVAIRAVATA-2731
p134
aVAIRAVATA-2730
p135
aVAIRAVATA-2729
p136
aVAIRAVATA-2728
p137
aVAIRAVATA-2727
p138
aVAIRAVATA-2726
p139
aVAIRAVATA-2725
p140
aVAIRAVATA-2724
p141
aVAIRAVATA-2723
p142
aVAIRAVATA-2722
p143
aVAIRAVATA-2721
p144
aVAIRAVATA-2720
p145
aVAIRAVATA-2719
p146
aVAIRAVATA-2718
p147
aVAIRAVATA-2717
p148
aVAIRAVATA-2716
p149
aVAIRAVATA-2715
p150
aVAIRAVATA-2714
p151
aVAIRAVATA-2713
p152
aVAIRAVATA-2712
p153
aVAIRAVATA-2711
p154
aVAIRAVATA-2710
p155
aVAIRAVATA-2709
p156
aVAIRAVATA-2708
p157
aVAIRAVATA-2707
p158
aVAIRAVATA-2706
p159
aVAIRAVATA-2705
p160
aVAIRAVATA-2704
p161
aVAIRAVATA-2703
p162
aVAIRAVATA-2702
p163
aVAIRAVATA-2701
p164
aVAIRAVATA-2700
p165
aVAIRAVATA-2699
p166
aVAIRAVATA-2698
p167
aVAIRAVATA-2697
p168
aVAIRAVATA-2696
p169
aVAIRAVATA-2695
p170
aVAIRAVATA-2694
p171
aVAIRAVATA-2693
p172
aVAIRAVATA-2692
p173
aVAIRAVATA-2691
p174
aVAIRAVATA-2690
p175
aVAIRAVATA-2689
p176
aVAIRAVATA-2688
p177
aVAIRAVATA-2687
p178
aVAIRAVATA-2686
p179
aVAIRAVATA-2685
p180
aVAIRAVATA-2684
p181
aVAIRAVATA-2683
p182
aVAIRAVATA-2682
p183
aVAIRAVATA-2681
p184
aVAIRAVATA-2680
p185
aVAIRAVATA-2679
p186
aVAIRAVATA-2678
p187
aVAIRAVATA-2677
p188
aVAIRAVATA-2676
p189
aVAIRAVATA-2675
p190
aVAIRAVATA-2674
p191
aVAIRAVATA-2673
p192
aVAIRAVATA-2672
p193
aVAIRAVATA-2671
p194
aVAIRAVATA-2670
p195
aVAIRAVATA-2669
p196
aVAIRAVATA-2668
p197
aVAIRAVATA-2667
p198
aVAIRAVATA-2666
p199
aVAIRAVATA-2665
p200
aVAIRAVATA-2664
p201
aVAIRAVATA-2663
p202
aVAIRAVATA-2662
p203
aVAIRAVATA-2661
p204
aVAIRAVATA-2660
p205
aVAIRAVATA-2659
p206
aVAIRAVATA-2658
p207
aVAIRAVATA-2657
p208
aVAIRAVATA-2656
p209
aVAIRAVATA-2655
p210
aVAIRAVATA-2654
p211
aVAIRAVATA-2653
p212
aVAIRAVATA-2652
p213
aVAIRAVATA-2651
p214
aVAIRAVATA-2650
p215
aVAIRAVATA-2649
p216
aVAIRAVATA-2648
p217
aVAIRAVATA-2647
p218
aVAIRAVATA-2646
p219
aVAIRAVATA-2645
p220
aVAIRAVATA-2644
p221
aVAIRAVATA-2643
p222
aVAIRAVATA-2642
p223
aVAIRAVATA-2641
p224
aVAIRAVATA-2640
p225
aVAIRAVATA-2639
p226
aVAIRAVATA-2638
p227
aVAIRAVATA-2637
p228
aVAIRAVATA-2636
p229
aVAIRAVATA-2635
p230
aVAIRAVATA-2634
p231
aVAIRAVATA-2633
p232
aVAIRAVATA-2632
p233
aVAIRAVATA-2631
p234
aVAIRAVATA-2630
p235
aVAIRAVATA-2629
p236
aVAIRAVATA-2628
p237
aVAIRAVATA-2627
p238
aVAIRAVATA-2626
p239
aVAIRAVATA-2625
p240
aVAIRAVATA-2624
p241
aVAIRAVATA-2623
p242
aVAIRAVATA-2622
p243
aVAIRAVATA-2621
p244
aVAIRAVATA-2620
p245
aVAIRAVATA-2619
p246
aVAIRAVATA-2618
p247
aVAIRAVATA-2617
p248
aVAIRAVATA-2616
p249
aVAIRAVATA-2615
p250
aVAIRAVATA-2614
p251
aVAIRAVATA-2613
p252
aVAIRAVATA-2612
p253
aVAIRAVATA-2611
p254
aVAIRAVATA-2610
p255
aVAIRAVATA-2609
p256
aVAIRAVATA-2608
p257
aVAIRAVATA-2607
p258
aVAIRAVATA-2606
p259
aVAIRAVATA-2605
p260
aVAIRAVATA-2604
p261
aVAIRAVATA-2603
p262
aVAIRAVATA-2602
p263
aVAIRAVATA-2601
p264
aVAIRAVATA-2600
p265
aVAIRAVATA-2599
p266
aVAIRAVATA-2598
p267
aVAIRAVATA-2597
p268
aVAIRAVATA-2596
p269
aVAIRAVATA-2595
p270
aVAIRAVATA-2594
p271
aVAIRAVATA-2593
p272
aVAIRAVATA-2592
p273
aVAIRAVATA-2591
p274
aVAIRAVATA-2590
p275
aVAIRAVATA-2589
p276
aVAIRAVATA-2588
p277
aVAIRAVATA-2587
p278
aVAIRAVATA-2586
p279
aVAIRAVATA-2585
p280
aVAIRAVATA-2584
p281
aVAIRAVATA-2583
p282
aVAIRAVATA-2582
p283
aVAIRAVATA-2581
p284
aVAIRAVATA-2580
p285
aVAIRAVATA-2579
p286
aVAIRAVATA-2578
p287
aVAIRAVATA-2577
p288
aVAIRAVATA-2576
p289
aVAIRAVATA-2575
p290
aVAIRAVATA-2574
p291
aVAIRAVATA-2573
p292
aVAIRAVATA-2572
p293
aVAIRAVATA-2571
p294
aVAIRAVATA-2570
p295
aVAIRAVATA-2569
p296
aVAIRAVATA-2568
p297
aVAIRAVATA-2567
p298
aVAIRAVATA-2566
p299
aVAIRAVATA-2565
p300
aVAIRAVATA-2564
p301
aVAIRAVATA-2563
p302
aVAIRAVATA-2562
p303
aVAIRAVATA-2561
p304
aVAIRAVATA-2560
p305
aVAIRAVATA-2559
p306
aVAIRAVATA-2558
p307
aVAIRAVATA-2557
p308
aVAIRAVATA-2556
p309
aVAIRAVATA-2555
p310
aVAIRAVATA-2554
p311
aVAIRAVATA-2553
p312
aVAIRAVATA-2552
p313
aVAIRAVATA-2551
p314
aVAIRAVATA-2550
p315
aVAIRAVATA-2549
p316
aVAIRAVATA-2548
p317
aVAIRAVATA-2547
p318
aVAIRAVATA-2546
p319
aVAIRAVATA-2545
p320
aVAIRAVATA-2544
p321
aVAIRAVATA-2543
p322
aVAIRAVATA-2542
p323
aVAIRAVATA-2541
p324
aVAIRAVATA-2540
p325
aVAIRAVATA-2539
p326
aVAIRAVATA-2538
p327
aVAIRAVATA-2537
p328
aVAIRAVATA-2536
p329
aVAIRAVATA-2535
p330
aVAIRAVATA-2534
p331
aVAIRAVATA-2533
p332
aVAIRAVATA-2532
p333
aVAIRAVATA-2531
p334
aVAIRAVATA-2530
p335
aVAIRAVATA-2529
p336
aVAIRAVATA-2528
p337
aVAIRAVATA-2527
p338
aVAIRAVATA-2526
p339
aVAIRAVATA-2525
p340
aVAIRAVATA-2524
p341
aVAIRAVATA-2523
p342
aVAIRAVATA-2522
p343
aVAIRAVATA-2521
p344
aVAIRAVATA-2520
p345
aVAIRAVATA-2519
p346
aVAIRAVATA-2518
p347
aVAIRAVATA-2517
p348
aVAIRAVATA-2516
p349
aVAIRAVATA-2515
p350
aVAIRAVATA-2514
p351
aVAIRAVATA-2513
p352
aVAIRAVATA-2512
p353
aVAIRAVATA-2511
p354
aVAIRAVATA-2510
p355
aVAIRAVATA-2509
p356
aVAIRAVATA-2508
p357
aVAIRAVATA-2507
p358
aVAIRAVATA-2506
p359
aVAIRAVATA-2505
p360
aVAIRAVATA-2504
p361
aVAIRAVATA-2503
p362
aVAIRAVATA-2502
p363
aVAIRAVATA-2501
p364
aVAIRAVATA-2500
p365
aVAIRAVATA-2499
p366
aVAIRAVATA-2498
p367
aVAIRAVATA-2497
p368
aVAIRAVATA-2496
p369
aVAIRAVATA-2495
p370
aVAIRAVATA-2494
p371
aVAIRAVATA-2493
p372
aVAIRAVATA-2492
p373
aVAIRAVATA-2491
p374
aVAIRAVATA-2490
p375
aVAIRAVATA-2489
p376
aVAIRAVATA-2488
p377
aVAIRAVATA-2487
p378
aVAIRAVATA-2486
p379
aVAIRAVATA-2485
p380
aVAIRAVATA-2484
p381
aVAIRAVATA-2483
p382
aVAIRAVATA-2482
p383
aVAIRAVATA-2481
p384
aVAIRAVATA-2480
p385
aVAIRAVATA-2479
p386
aVAIRAVATA-2478
p387
aVAIRAVATA-2477
p388
aVAIRAVATA-2476
p389
aVAIRAVATA-2475
p390
aVAIRAVATA-2474
p391
aVAIRAVATA-2473
p392
aVAIRAVATA-2472
p393
aVAIRAVATA-2471
p394
aVAIRAVATA-2470
p395
aVAIRAVATA-2469
p396
aVAIRAVATA-2468
p397
aVAIRAVATA-2467
p398
aVAIRAVATA-2466
p399
aVAIRAVATA-2465
p400
aVAIRAVATA-2464
p401
aVAIRAVATA-2463
p402
aVAIRAVATA-2462
p403
aVAIRAVATA-2461
p404
aVAIRAVATA-2460
p405
aVAIRAVATA-2459
p406
aVAIRAVATA-2458
p407
aVAIRAVATA-2457
p408
aVAIRAVATA-2456
p409
aVAIRAVATA-2455
p410
aVAIRAVATA-2454
p411
aVAIRAVATA-2453
p412
aVAIRAVATA-2452
p413
aVAIRAVATA-2451
p414
aVAIRAVATA-2450
p415
aVAIRAVATA-2449
p416
aVAIRAVATA-2448
p417
aVAIRAVATA-2447
p418
aVAIRAVATA-2446
p419
aVAIRAVATA-2445
p420
aVAIRAVATA-2444
p421
aVAIRAVATA-2443
p422
aVAIRAVATA-2442
p423
aVAIRAVATA-2441
p424
aVAIRAVATA-2440
p425
aVAIRAVATA-2439
p426
aVAIRAVATA-2438
p427
aVAIRAVATA-2437
p428
aVAIRAVATA-2436
p429
aVAIRAVATA-2435
p430
aVAIRAVATA-2434
p431
aVAIRAVATA-2433
p432
aVAIRAVATA-2432
p433
aVAIRAVATA-2431
p434
aVAIRAVATA-2430
p435
aVAIRAVATA-2429
p436
aVAIRAVATA-2428
p437
aVAIRAVATA-2427
p438
aVAIRAVATA-2426
p439
aVAIRAVATA-2425
p440
aVAIRAVATA-2424
p441
aVAIRAVATA-2423
p442
aVAIRAVATA-2422
p443
aVAIRAVATA-2421
p444
aVAIRAVATA-2420
p445
aVAIRAVATA-2419
p446
aVAIRAVATA-2418
p447
aVAIRAVATA-2417
p448
aVAIRAVATA-2416
p449
aVAIRAVATA-2415
p450
aVAIRAVATA-2414
p451
aVAIRAVATA-2413
p452
aVAIRAVATA-2412
p453
aVAIRAVATA-2411
p454
aVAIRAVATA-2410
p455
aVAIRAVATA-2409
p456
aVAIRAVATA-2408
p457
aVAIRAVATA-2407
p458
aVAIRAVATA-2406
p459
aVAIRAVATA-2405
p460
aVAIRAVATA-2404
p461
aVAIRAVATA-2403
p462
aVAIRAVATA-2402
p463
aVAIRAVATA-2401
p464
aVAIRAVATA-2400
p465
aVAIRAVATA-2399
p466
aVAIRAVATA-2398
p467
aVAIRAVATA-2397
p468
aVAIRAVATA-2396
p469
aVAIRAVATA-2395
p470
aVAIRAVATA-2394
p471
aVAIRAVATA-2393
p472
aVAIRAVATA-2392
p473
aVAIRAVATA-2391
p474
aVAIRAVATA-2390
p475
aVAIRAVATA-2389
p476
aVAIRAVATA-2388
p477
aVAIRAVATA-2387
p478
aVAIRAVATA-2386
p479
aVAIRAVATA-2385
p480
aVAIRAVATA-2384
p481
aVAIRAVATA-2383
p482
aVAIRAVATA-2382
p483
aVAIRAVATA-2381
p484
aVAIRAVATA-2380
p485
aVAIRAVATA-2379
p486
aVAIRAVATA-2378
p487
aVAIRAVATA-2377
p488
aVAIRAVATA-2376
p489
aVAIRAVATA-2375
p490
aVAIRAVATA-2374
p491
aVAIRAVATA-2373
p492
aVAIRAVATA-2372
p493
aVAIRAVATA-2371
p494
aVAIRAVATA-2370
p495
aVAIRAVATA-2369
p496
aVAIRAVATA-2368
p497
aVAIRAVATA-2367
p498
aVAIRAVATA-2366
p499
aVAIRAVATA-2365
p500
aVAIRAVATA-2364
p501
aVAIRAVATA-2363
p502
aVAIRAVATA-2362
p503
aVAIRAVATA-2361
p504
aVAIRAVATA-2360
p505
aVAIRAVATA-2359
p506
aVAIRAVATA-2358
p507
aVAIRAVATA-2357
p508
aVAIRAVATA-2356
p509
aVAIRAVATA-2355
p510
aVAIRAVATA-2354
p511
aVAIRAVATA-2353
p512
aVAIRAVATA-2352
p513
aVAIRAVATA-2351
p514
aVAIRAVATA-2350
p515
aVAIRAVATA-2349
p516
aVAIRAVATA-2348
p517
aVAIRAVATA-2347
p518
aVAIRAVATA-2346
p519
aVAIRAVATA-2345
p520
aVAIRAVATA-2344
p521
aVAIRAVATA-2343
p522
aVAIRAVATA-2342
p523
aVAIRAVATA-2341
p524
aVAIRAVATA-2340
p525
aVAIRAVATA-2339
p526
aVAIRAVATA-2338
p527
aVAIRAVATA-2337
p528
aVAIRAVATA-2336
p529
aVAIRAVATA-2335
p530
aVAIRAVATA-2334
p531
aVAIRAVATA-2333
p532
aVAIRAVATA-2332
p533
aVAIRAVATA-2331
p534
aVAIRAVATA-2330
p535
aVAIRAVATA-2329
p536
aVAIRAVATA-2328
p537
aVAIRAVATA-2327
p538
aVAIRAVATA-2326
p539
aVAIRAVATA-2325
p540
aVAIRAVATA-2324
p541
aVAIRAVATA-2323
p542
aVAIRAVATA-2322
p543
aVAIRAVATA-2321
p544
aVAIRAVATA-2320
p545
aVAIRAVATA-2319
p546
aVAIRAVATA-2318
p547
aVAIRAVATA-2317
p548
aVAIRAVATA-2316
p549
aVAIRAVATA-2315
p550
aVAIRAVATA-2314
p551
aVAIRAVATA-2313
p552
aVAIRAVATA-2312
p553
aVAIRAVATA-2311
p554
aVAIRAVATA-2310
p555
aVAIRAVATA-2309
p556
aVAIRAVATA-2308
p557
aVAIRAVATA-2307
p558
aVAIRAVATA-2306
p559
aVAIRAVATA-2305
p560
aVAIRAVATA-2304
p561
aVAIRAVATA-2303
p562
aVAIRAVATA-2302
p563
aVAIRAVATA-2301
p564
aVAIRAVATA-2300
p565
aVAIRAVATA-2299
p566
aVAIRAVATA-2298
p567
aVAIRAVATA-2297
p568
aVAIRAVATA-2296
p569
aVAIRAVATA-2295
p570
aVAIRAVATA-2294
p571
aVAIRAVATA-2293
p572
aVAIRAVATA-2292
p573
aVAIRAVATA-2291
p574
aVAIRAVATA-2290
p575
aVAIRAVATA-2289
p576
aVAIRAVATA-2288
p577
aVAIRAVATA-2287
p578
aVAIRAVATA-2286
p579
aVAIRAVATA-2285
p580
aVAIRAVATA-2284
p581
aVAIRAVATA-2283
p582
aVAIRAVATA-2282
p583
aVAIRAVATA-2281
p584
aVAIRAVATA-2280
p585
aVAIRAVATA-2279
p586
aVAIRAVATA-2278
p587
aVAIRAVATA-2277
p588
aVAIRAVATA-2276
p589
aVAIRAVATA-2275
p590
aVAIRAVATA-2274
p591
aVAIRAVATA-2273
p592
aVAIRAVATA-2272
p593
aVAIRAVATA-2271
p594
aVAIRAVATA-2270
p595
aVAIRAVATA-2269
p596
aVAIRAVATA-2268
p597
aVAIRAVATA-2267
p598
aVAIRAVATA-2266
p599
aVAIRAVATA-2265
p600
aVAIRAVATA-2264
p601
aVAIRAVATA-2263
p602
aVAIRAVATA-2262
p603
aVAIRAVATA-2261
p604
aVAIRAVATA-2260
p605
aVAIRAVATA-2259
p606
aVAIRAVATA-2258
p607
aVAIRAVATA-2257
p608
aVAIRAVATA-2256
p609
aVAIRAVATA-2255
p610
aVAIRAVATA-2254
p611
aVAIRAVATA-2253
p612
aVAIRAVATA-2252
p613
aVAIRAVATA-2251
p614
aVAIRAVATA-2250
p615
aVAIRAVATA-2249
p616
aVAIRAVATA-2248
p617
aVAIRAVATA-2247
p618
aVAIRAVATA-2246
p619
aVAIRAVATA-2245
p620
aVAIRAVATA-2244
p621
aVAIRAVATA-2243
p622
aVAIRAVATA-2242
p623
aVAIRAVATA-2241
p624
aVAIRAVATA-2240
p625
aVAIRAVATA-2239
p626
aVAIRAVATA-2238
p627
aVAIRAVATA-2237
p628
aVAIRAVATA-2236
p629
aVAIRAVATA-2235
p630
aVAIRAVATA-2234
p631
aVAIRAVATA-2233
p632
aVAIRAVATA-2232
p633
aVAIRAVATA-2231
p634
aVAIRAVATA-2230
p635
aVAIRAVATA-2229
p636
aVAIRAVATA-2228
p637
aVAIRAVATA-2227
p638
aVAIRAVATA-2226
p639
aVAIRAVATA-2225
p640
aVAIRAVATA-2224
p641
aVAIRAVATA-2223
p642
aVAIRAVATA-2222
p643
aVAIRAVATA-2221
p644
aVAIRAVATA-2220
p645
aVAIRAVATA-2219
p646
aVAIRAVATA-2218
p647
aVAIRAVATA-2217
p648
aVAIRAVATA-2216
p649
aVAIRAVATA-2215
p650
aVAIRAVATA-2214
p651
aVAIRAVATA-2213
p652
aVAIRAVATA-2212
p653
aVAIRAVATA-2211
p654
aVAIRAVATA-2210
p655
aVAIRAVATA-2209
p656
aVAIRAVATA-2208
p657
aVAIRAVATA-2207
p658
aVAIRAVATA-2206
p659
aVAIRAVATA-2205
p660
aVAIRAVATA-2204
p661
aVAIRAVATA-2203
p662
aVAIRAVATA-2202
p663
aVAIRAVATA-2201
p664
aVAIRAVATA-2200
p665
aVAIRAVATA-2199
p666
aVAIRAVATA-2198
p667
aVAIRAVATA-2197
p668
aVAIRAVATA-2196
p669
aVAIRAVATA-2195
p670
aVAIRAVATA-2194
p671
aVAIRAVATA-2193
p672
aVAIRAVATA-2192
p673
aVAIRAVATA-2191
p674
aVAIRAVATA-2190
p675
aVAIRAVATA-2189
p676
aVAIRAVATA-2188
p677
aVAIRAVATA-2187
p678
aVAIRAVATA-2186
p679
aVAIRAVATA-2185
p680
aVAIRAVATA-2184
p681
aVAIRAVATA-2183
p682
aVAIRAVATA-2182
p683
aVAIRAVATA-2181
p684
aVAIRAVATA-2180
p685
aVAIRAVATA-2179
p686
aVAIRAVATA-2178
p687
aVAIRAVATA-2177
p688
aVAIRAVATA-2176
p689
aVAIRAVATA-2175
p690
aVAIRAVATA-2174
p691
aVAIRAVATA-2173
p692
aVAIRAVATA-2172
p693
aVAIRAVATA-2171
p694
aVAIRAVATA-2170
p695
aVAIRAVATA-2169
p696
aVAIRAVATA-2168
p697
aVAIRAVATA-2167
p698
aVAIRAVATA-2166
p699
aVAIRAVATA-2165
p700
aVAIRAVATA-2164
p701
aVAIRAVATA-2163
p702
aVAIRAVATA-2162
p703
aVAIRAVATA-2161
p704
aVAIRAVATA-2160
p705
aVAIRAVATA-2159
p706
aVAIRAVATA-2158
p707
aVAIRAVATA-2157
p708
aVAIRAVATA-2156
p709
aVAIRAVATA-2155
p710
aVAIRAVATA-2154
p711
aVAIRAVATA-2153
p712
aVAIRAVATA-2152
p713
aVAIRAVATA-2151
p714
aVAIRAVATA-2150
p715
aVAIRAVATA-2149
p716
aVAIRAVATA-2148
p717
aVAIRAVATA-2147
p718
aVAIRAVATA-2146
p719
aVAIRAVATA-2145
p720
aVAIRAVATA-2144
p721
aVAIRAVATA-2143
p722
aVAIRAVATA-2142
p723
aVAIRAVATA-2141
p724
aVAIRAVATA-2140
p725
aVAIRAVATA-2139
p726
aVAIRAVATA-2138
p727
aVAIRAVATA-2137
p728
aVAIRAVATA-2136
p729
aVAIRAVATA-2135
p730
aVAIRAVATA-2134
p731
aVAIRAVATA-2133
p732
aVAIRAVATA-2132
p733
aVAIRAVATA-2131
p734
aVAIRAVATA-2130
p735
aVAIRAVATA-2129
p736
aVAIRAVATA-2128
p737
aVAIRAVATA-2127
p738
aVAIRAVATA-2126
p739
aVAIRAVATA-2125
p740
aVAIRAVATA-2124
p741
aVAIRAVATA-2123
p742
aVAIRAVATA-2122
p743
aVAIRAVATA-2121
p744
aVAIRAVATA-2120
p745
aVAIRAVATA-2119
p746
aVAIRAVATA-2118
p747
aVAIRAVATA-2117
p748
aVAIRAVATA-2116
p749
aVAIRAVATA-2115
p750
aVAIRAVATA-2114
p751
aVAIRAVATA-2113
p752
aVAIRAVATA-2112
p753
aVAIRAVATA-2111
p754
aVAIRAVATA-2110
p755
aVAIRAVATA-2109
p756
aVAIRAVATA-2108
p757
aVAIRAVATA-2107
p758
aVAIRAVATA-2106
p759
aVAIRAVATA-2105
p760
aVAIRAVATA-2104
p761
aVAIRAVATA-2103
p762
aVAIRAVATA-2102
p763
aVAIRAVATA-2101
p764
aVAIRAVATA-2100
p765
aVAIRAVATA-2099
p766
aVAIRAVATA-2098
p767
aVAIRAVATA-2097
p768
aVAIRAVATA-2096
p769
aVAIRAVATA-2095
p770
aVAIRAVATA-2094
p771
aVAIRAVATA-2093
p772
aVAIRAVATA-2092
p773
aVAIRAVATA-2091
p774
aVAIRAVATA-2090
p775
aVAIRAVATA-2089
p776
aVAIRAVATA-2088
p777
aVAIRAVATA-2087
p778
aVAIRAVATA-2086
p779
aVAIRAVATA-2085
p780
aVAIRAVATA-2084
p781
aVAIRAVATA-2083
p782
aVAIRAVATA-2082
p783
aVAIRAVATA-2081
p784
aVAIRAVATA-2080
p785
aVAIRAVATA-2079
p786
aVAIRAVATA-2078
p787
aVAIRAVATA-2077
p788
aVAIRAVATA-2076
p789
aVAIRAVATA-2075
p790
aVAIRAVATA-2074
p791
aVAIRAVATA-2073
p792
aVAIRAVATA-2072
p793
aVAIRAVATA-2071
p794
aVAIRAVATA-2070
p795
aVAIRAVATA-2069
p796
aVAIRAVATA-2068
p797
aVAIRAVATA-2067
p798
aVAIRAVATA-2066
p799
aVAIRAVATA-2065
p800
aVAIRAVATA-2064
p801
aVAIRAVATA-2063
p802
aVAIRAVATA-2062
p803
aVAIRAVATA-2061
p804
aVAIRAVATA-2060
p805
aVAIRAVATA-2059
p806
aVAIRAVATA-2058
p807
aVAIRAVATA-2057
p808
aVAIRAVATA-2056
p809
aVAIRAVATA-2055
p810
aVAIRAVATA-2054
p811
aVAIRAVATA-2053
p812
aVAIRAVATA-2052
p813
aVAIRAVATA-2051
p814
aVAIRAVATA-2050
p815
aVAIRAVATA-2049
p816
aVAIRAVATA-2048
p817
aVAIRAVATA-2047
p818
aVAIRAVATA-2046
p819
aVAIRAVATA-2045
p820
aVAIRAVATA-2044
p821
aVAIRAVATA-2043
p822
aVAIRAVATA-2042
p823
aVAIRAVATA-2041
p824
aVAIRAVATA-2040
p825
aVAIRAVATA-2039
p826
aVAIRAVATA-2038
p827
aVAIRAVATA-2037
p828
aVAIRAVATA-2036
p829
aVAIRAVATA-2035
p830
aVAIRAVATA-2034
p831
aVAIRAVATA-2033
p832
aVAIRAVATA-2032
p833
aVAIRAVATA-2031
p834
aVAIRAVATA-2030
p835
aVAIRAVATA-2029
p836
aVAIRAVATA-2028
p837
aVAIRAVATA-2027
p838
aVAIRAVATA-2026
p839
aVAIRAVATA-2025
p840
aVAIRAVATA-2024
p841
aVAIRAVATA-2023
p842
aVAIRAVATA-2022
p843
aVAIRAVATA-2021
p844
aVAIRAVATA-2020
p845
aVAIRAVATA-2019
p846
aVAIRAVATA-2018
p847
aVAIRAVATA-2017
p848
aVAIRAVATA-2016
p849
aVAIRAVATA-2015
p850
aVAIRAVATA-2014
p851
aVAIRAVATA-2013
p852
aVAIRAVATA-2012
p853
aVAIRAVATA-2011
p854
aVAIRAVATA-2010
p855
aVAIRAVATA-2009
p856
aVAIRAVATA-2008
p857
aVAIRAVATA-2007
p858
aVAIRAVATA-2006
p859
aVAIRAVATA-2005
p860
aVAIRAVATA-2004
p861
aVAIRAVATA-2003
p862
aVAIRAVATA-2002
p863
aVAIRAVATA-2001
p864
aVAIRAVATA-2000
p865
aVAIRAVATA-1999
p866
aVAIRAVATA-1998
p867
aVAIRAVATA-1997
p868
aVAIRAVATA-1996
p869
aVAIRAVATA-1995
p870
aVAIRAVATA-1994
p871
aVAIRAVATA-1993
p872
aVAIRAVATA-1992
p873
aVAIRAVATA-1991
p874
aVAIRAVATA-1990
p875
aVAIRAVATA-1989
p876
aVAIRAVATA-1988
p877
aVAIRAVATA-1987
p878
aVAIRAVATA-1986
p879
aVAIRAVATA-1985
p880
aVAIRAVATA-1984
p881
aVAIRAVATA-1983
p882
aVAIRAVATA-1982
p883
aVAIRAVATA-1981
p884
aVAIRAVATA-1980
p885
aVAIRAVATA-1979
p886
aVAIRAVATA-1978
p887
aVAIRAVATA-1977
p888
aVAIRAVATA-1976
p889
aVAIRAVATA-1975
p890
aVAIRAVATA-1974
p891
aVAIRAVATA-1973
p892
aVAIRAVATA-1972
p893
aVAIRAVATA-1971
p894
aVAIRAVATA-1970
p895
aVAIRAVATA-1969
p896
aVAIRAVATA-1968
p897
aVAIRAVATA-1967
p898
aVAIRAVATA-1966
p899
aVAIRAVATA-1965
p900
aVAIRAVATA-1964
p901
aVAIRAVATA-1963
p902
aVAIRAVATA-1962
p903
aVAIRAVATA-1961
p904
aVAIRAVATA-1960
p905
aVAIRAVATA-1959
p906
aVAIRAVATA-1958
p907
aVAIRAVATA-1957
p908
aVAIRAVATA-1956
p909
aVAIRAVATA-1955
p910
aVAIRAVATA-1954
p911
aVAIRAVATA-1953
p912
aVAIRAVATA-1952
p913
aVAIRAVATA-1951
p914
aVAIRAVATA-1950
p915
aVAIRAVATA-1949
p916
aVAIRAVATA-1948
p917
aVAIRAVATA-1947
p918
aVAIRAVATA-1946
p919
aVAIRAVATA-1945
p920
aVAIRAVATA-1944
p921
aVAIRAVATA-1943
p922
aVAIRAVATA-1942
p923
aVAIRAVATA-1941
p924
aVAIRAVATA-1940
p925
aVAIRAVATA-1939
p926
aVAIRAVATA-1938
p927
aVAIRAVATA-1937
p928
aVAIRAVATA-1936
p929
aVAIRAVATA-1935
p930
aVAIRAVATA-1934
p931
aVAIRAVATA-1933
p932
aVAIRAVATA-1932
p933
aVAIRAVATA-1931
p934
aVAIRAVATA-1930
p935
aVAIRAVATA-1929
p936
aVAIRAVATA-1928
p937
aVAIRAVATA-1927
p938
aVAIRAVATA-1926
p939
aVAIRAVATA-1925
p940
aVAIRAVATA-1924
p941
aVAIRAVATA-1923
p942
aVAIRAVATA-1922
p943
aVAIRAVATA-1921
p944
aVAIRAVATA-1920
p945
aVAIRAVATA-1919
p946
aVAIRAVATA-1918
p947
aVAIRAVATA-1917
p948
aVAIRAVATA-1916
p949
aVAIRAVATA-1915
p950
aVAIRAVATA-1914
p951
aVAIRAVATA-1913
p952
aVAIRAVATA-1912
p953
aVAIRAVATA-1911
p954
aVAIRAVATA-1910
p955
aVAIRAVATA-1909
p956
aVAIRAVATA-1908
p957
aVAIRAVATA-1907
p958
aVAIRAVATA-1906
p959
aVAIRAVATA-1905
p960
aVAIRAVATA-1904
p961
aVAIRAVATA-1903
p962
aVAIRAVATA-1902
p963
aVAIRAVATA-1901
p964
aVAIRAVATA-1900
p965
aVAIRAVATA-1899
p966
aVAIRAVATA-1898
p967
aVAIRAVATA-1897
p968
aVAIRAVATA-1896
p969
aVAIRAVATA-1895
p970
aVAIRAVATA-1894
p971
aVAIRAVATA-1893
p972
aVAIRAVATA-1892
p973
aVAIRAVATA-1891
p974
aVAIRAVATA-1890
p975
aVAIRAVATA-1889
p976
aVAIRAVATA-1888
p977
aVAIRAVATA-1887
p978
aVAIRAVATA-1886
p979
aVAIRAVATA-1885
p980
aVAIRAVATA-1884
p981
aVAIRAVATA-1883
p982
aVAIRAVATA-1882
p983
aVAIRAVATA-1881
p984
aVAIRAVATA-1880
p985
aVAIRAVATA-1879
p986
aVAIRAVATA-1878
p987
aVAIRAVATA-1877
p988
aVAIRAVATA-1876
p989
aVAIRAVATA-1875
p990
aVAIRAVATA-1874
p991
aVAIRAVATA-1873
p992
aVAIRAVATA-1872
p993
aVAIRAVATA-1871
p994
aVAIRAVATA-1870
p995
aVAIRAVATA-1869
p996
aVAIRAVATA-1868
p997
aVAIRAVATA-1867
p998
aVAIRAVATA-1866
p999
aVAIRAVATA-1865
p1000
aVAIRAVATA-1864
p1001
aVAIRAVATA-1863
p1002
aVAIRAVATA-1862
p1003
aVAIRAVATA-1861
p1004
aVAIRAVATA-1860
p1005
aVAIRAVATA-1859
p1006
aVAIRAVATA-1858
p1007
aVAIRAVATA-1857
p1008
aVAIRAVATA-1856
p1009
aVAIRAVATA-1855
p1010
aVAIRAVATA-1854
p1011
aVAIRAVATA-1853
p1012
aVAIRAVATA-1852
p1013
aVAIRAVATA-1851
p1014
aVAIRAVATA-1850
p1015
aVAIRAVATA-1849
p1016
aVAIRAVATA-1848
p1017
aVAIRAVATA-1847
p1018
aVAIRAVATA-1846
p1019
aVAIRAVATA-1845
p1020
aVAIRAVATA-1844
p1021
aVAIRAVATA-1843
p1022
aVAIRAVATA-1842
p1023
aVAIRAVATA-1841
p1024
aVAIRAVATA-1840
p1025
aVAIRAVATA-1839
p1026
aVAIRAVATA-1838
p1027
aVAIRAVATA-1837
p1028
aVAIRAVATA-1836
p1029
aVAIRAVATA-1835
p1030
aVAIRAVATA-1834
p1031
aVAIRAVATA-1833
p1032
aVAIRAVATA-1832
p1033
aVAIRAVATA-1831
p1034
aVAIRAVATA-1830
p1035
aVAIRAVATA-1829
p1036
aVAIRAVATA-1828
p1037
aVAIRAVATA-1827
p1038
aVAIRAVATA-1826
p1039
aVAIRAVATA-1825
p1040
aVAIRAVATA-1824
p1041
aVAIRAVATA-1823
p1042
aVAIRAVATA-1822
p1043
aVAIRAVATA-1821
p1044
aVAIRAVATA-1820
p1045
aVAIRAVATA-1819
p1046
aVAIRAVATA-1818
p1047
aVAIRAVATA-1817
p1048
aVAIRAVATA-1816
p1049
aVAIRAVATA-1815
p1050
aVAIRAVATA-1814
p1051
aVAIRAVATA-1813
p1052
aVAIRAVATA-1812
p1053
aVAIRAVATA-1811
p1054
aVAIRAVATA-1810
p1055
aVAIRAVATA-1809
p1056
aVAIRAVATA-1808
p1057
aVAIRAVATA-1807
p1058
aVAIRAVATA-1806
p1059
aVAIRAVATA-1805
p1060
aVAIRAVATA-1804
p1061
aVAIRAVATA-1803
p1062
aVAIRAVATA-1802
p1063
aVAIRAVATA-1801
p1064
aVAIRAVATA-1800
p1065
aVAIRAVATA-1799
p1066
aVAIRAVATA-1798
p1067
aVAIRAVATA-1797
p1068
aVAIRAVATA-1796
p1069
aVAIRAVATA-1795
p1070
aVAIRAVATA-1794
p1071
aVAIRAVATA-1793
p1072
aVAIRAVATA-1792
p1073
aVAIRAVATA-1791
p1074
aVAIRAVATA-1790
p1075
aVAIRAVATA-1789
p1076
aVAIRAVATA-1788
p1077
aVAIRAVATA-1787
p1078
aVAIRAVATA-1786
p1079
aVAIRAVATA-1785
p1080
aVAIRAVATA-1784
p1081
aVAIRAVATA-1783
p1082
aVAIRAVATA-1782
p1083
aVAIRAVATA-1781
p1084
aVAIRAVATA-1780
p1085
aVAIRAVATA-1779
p1086
aVAIRAVATA-1778
p1087
aVAIRAVATA-1777
p1088
aVAIRAVATA-1776
p1089
aVAIRAVATA-1775
p1090
aVAIRAVATA-1774
p1091
aVAIRAVATA-1773
p1092
aVAIRAVATA-1772
p1093
aVAIRAVATA-1771
p1094
aVAIRAVATA-1770
p1095
aVAIRAVATA-1769
p1096
aVAIRAVATA-1768
p1097
aVAIRAVATA-1767
p1098
aVAIRAVATA-1766
p1099
aVAIRAVATA-1765
p1100
aVAIRAVATA-1764
p1101
aVAIRAVATA-1763
p1102
aVAIRAVATA-1762
p1103
aVAIRAVATA-1761
p1104
aVAIRAVATA-1760
p1105
aVAIRAVATA-1759
p1106
aVAIRAVATA-1758
p1107
aVAIRAVATA-1757
p1108
aVAIRAVATA-1756
p1109
aVAIRAVATA-1755
p1110
aVAIRAVATA-1754
p1111
aVAIRAVATA-1753
p1112
aVAIRAVATA-1752
p1113
aVAIRAVATA-1751
p1114
aVAIRAVATA-1750
p1115
aVAIRAVATA-1749
p1116
aVAIRAVATA-1748
p1117
aVAIRAVATA-1747
p1118
aVAIRAVATA-1746
p1119
aVAIRAVATA-1745
p1120
aVAIRAVATA-1744
p1121
aVAIRAVATA-1743
p1122
aVAIRAVATA-1742
p1123
aVAIRAVATA-1741
p1124
aVAIRAVATA-1740
p1125
aVAIRAVATA-1739
p1126
aVAIRAVATA-1738
p1127
aVAIRAVATA-1737
p1128
aVAIRAVATA-1736
p1129
aVAIRAVATA-1735
p1130
aVAIRAVATA-1734
p1131
aVAIRAVATA-1733
p1132
aVAIRAVATA-1732
p1133
aVAIRAVATA-1731
p1134
aVAIRAVATA-1730
p1135
aVAIRAVATA-1729
p1136
aVAIRAVATA-1728
p1137
aVAIRAVATA-1727
p1138
aVAIRAVATA-1726
p1139
aVAIRAVATA-1725
p1140
aVAIRAVATA-1724
p1141
aVAIRAVATA-1723
p1142
aVAIRAVATA-1722
p1143
aVAIRAVATA-1721
p1144
aVAIRAVATA-1720
p1145
aVAIRAVATA-1719
p1146
aVAIRAVATA-1718
p1147
aVAIRAVATA-1717
p1148
aVAIRAVATA-1716
p1149
aVAIRAVATA-1715
p1150
aVAIRAVATA-1714
p1151
aVAIRAVATA-1713
p1152
aVAIRAVATA-1712
p1153
aVAIRAVATA-1711
p1154
aVAIRAVATA-1710
p1155
aVAIRAVATA-1709
p1156
aVAIRAVATA-1708
p1157
aVAIRAVATA-1707
p1158
aVAIRAVATA-1706
p1159
aVAIRAVATA-1705
p1160
aVAIRAVATA-1704
p1161
aVAIRAVATA-1703
p1162
aVAIRAVATA-1702
p1163
aVAIRAVATA-1701
p1164
aVAIRAVATA-1700
p1165
aVAIRAVATA-1699
p1166
aVAIRAVATA-1698
p1167
aVAIRAVATA-1697
p1168
aVAIRAVATA-1696
p1169
aVAIRAVATA-1695
p1170
aVAIRAVATA-1694
p1171
aVAIRAVATA-1693
p1172
aVAIRAVATA-1692
p1173
aVAIRAVATA-1691
p1174
aVAIRAVATA-1690
p1175
aVAIRAVATA-1689
p1176
aVAIRAVATA-1688
p1177
aVAIRAVATA-1687
p1178
aVAIRAVATA-1686
p1179
aVAIRAVATA-1685
p1180
aVAIRAVATA-1684
p1181
aVAIRAVATA-1683
p1182
aVAIRAVATA-1682
p1183
aVAIRAVATA-1681
p1184
aVAIRAVATA-1680
p1185
aVAIRAVATA-1679
p1186
aVAIRAVATA-1678
p1187
aVAIRAVATA-1677
p1188
aVAIRAVATA-1676
p1189
aVAIRAVATA-1675
p1190
aVAIRAVATA-1674
p1191
aVAIRAVATA-1673
p1192
aVAIRAVATA-1672
p1193
aVAIRAVATA-1671
p1194
aVAIRAVATA-1670
p1195
aVAIRAVATA-1669
p1196
aVAIRAVATA-1668
p1197
aVAIRAVATA-1667
p1198
aVAIRAVATA-1666
p1199
aVAIRAVATA-1665
p1200
aVAIRAVATA-1664
p1201
aVAIRAVATA-1663
p1202
aVAIRAVATA-1662
p1203
aVAIRAVATA-1661
p1204
aVAIRAVATA-1660
p1205
aVAIRAVATA-1659
p1206
aVAIRAVATA-1658
p1207
aVAIRAVATA-1657
p1208
aVAIRAVATA-1656
p1209
aVAIRAVATA-1655
p1210
aVAIRAVATA-1654
p1211
aVAIRAVATA-1653
p1212
aVAIRAVATA-1652
p1213
aVAIRAVATA-1651
p1214
aVAIRAVATA-1650
p1215
aVAIRAVATA-1649
p1216
aVAIRAVATA-1648
p1217
aVAIRAVATA-1647
p1218
aVAIRAVATA-1646
p1219
aVAIRAVATA-1645
p1220
aVAIRAVATA-1644
p1221
aVAIRAVATA-1643
p1222
aVAIRAVATA-1642
p1223
aVAIRAVATA-1641
p1224
aVAIRAVATA-1640
p1225
aVAIRAVATA-1639
p1226
aVAIRAVATA-1638
p1227
aVAIRAVATA-1637
p1228
aVAIRAVATA-1636
p1229
aVAIRAVATA-1635
p1230
aVAIRAVATA-1634
p1231
aVAIRAVATA-1633
p1232
aVAIRAVATA-1632
p1233
aVAIRAVATA-1631
p1234
aVAIRAVATA-1630
p1235
aVAIRAVATA-1629
p1236
aVAIRAVATA-1628
p1237
aVAIRAVATA-1627
p1238
aVAIRAVATA-1626
p1239
aVAIRAVATA-1625
p1240
aVAIRAVATA-1624
p1241
aVAIRAVATA-1623
p1242
aVAIRAVATA-1622
p1243
aVAIRAVATA-1621
p1244
aVAIRAVATA-1620
p1245
aVAIRAVATA-1619
p1246
aVAIRAVATA-1618
p1247
aVAIRAVATA-1617
p1248
aVAIRAVATA-1616
p1249
aVAIRAVATA-1615
p1250
aVAIRAVATA-1614
p1251
aVAIRAVATA-1613
p1252
aVAIRAVATA-1612
p1253
aVAIRAVATA-1611
p1254
aVAIRAVATA-1610
p1255
aVAIRAVATA-1609
p1256
aVAIRAVATA-1608
p1257
aVAIRAVATA-1607
p1258
aVAIRAVATA-1606
p1259
aVAIRAVATA-1605
p1260
aVAIRAVATA-1604
p1261
aVAIRAVATA-1603
p1262
aVAIRAVATA-1602
p1263
aVAIRAVATA-1601
p1264
aVAIRAVATA-1600
p1265
aVAIRAVATA-1599
p1266
aVAIRAVATA-1598
p1267
aVAIRAVATA-1597
p1268
aVAIRAVATA-1596
p1269
aVAIRAVATA-1595
p1270
aVAIRAVATA-1594
p1271
aVAIRAVATA-1593
p1272
aVAIRAVATA-1592
p1273
aVAIRAVATA-1591
p1274
aVAIRAVATA-1590
p1275
aVAIRAVATA-1589
p1276
aVAIRAVATA-1588
p1277
aVAIRAVATA-1587
p1278
aVAIRAVATA-1586
p1279
aVAIRAVATA-1585
p1280
aVAIRAVATA-1584
p1281
aVAIRAVATA-1583
p1282
aVAIRAVATA-1582
p1283
aVAIRAVATA-1581
p1284
aVAIRAVATA-1580
p1285
aVAIRAVATA-1579
p1286
aVAIRAVATA-1578
p1287
aVAIRAVATA-1577
p1288
aVAIRAVATA-1576
p1289
aVAIRAVATA-1575
p1290
aVAIRAVATA-1574
p1291
aVAIRAVATA-1573
p1292
aVAIRAVATA-1572
p1293
aVAIRAVATA-1571
p1294
aVAIRAVATA-1570
p1295
aVAIRAVATA-1569
p1296
aVAIRAVATA-1568
p1297
aVAIRAVATA-1567
p1298
aVAIRAVATA-1566
p1299
aVAIRAVATA-1565
p1300
aVAIRAVATA-1564
p1301
aVAIRAVATA-1563
p1302
aVAIRAVATA-1562
p1303
aVAIRAVATA-1561
p1304
aVAIRAVATA-1560
p1305
aVAIRAVATA-1559
p1306
aVAIRAVATA-1558
p1307
aVAIRAVATA-1557
p1308
aVAIRAVATA-1556
p1309
aVAIRAVATA-1555
p1310
aVAIRAVATA-1554
p1311
aVAIRAVATA-1553
p1312
aVAIRAVATA-1552
p1313
aVAIRAVATA-1551
p1314
aVAIRAVATA-1550
p1315
aVAIRAVATA-1549
p1316
aVAIRAVATA-1548
p1317
aVAIRAVATA-1547
p1318
aVAIRAVATA-1546
p1319
aVAIRAVATA-1545
p1320
aVAIRAVATA-1544
p1321
aVAIRAVATA-1543
p1322
aVAIRAVATA-1542
p1323
aVAIRAVATA-1540
p1324
aVAIRAVATA-1539
p1325
aVAIRAVATA-1538
p1326
aVAIRAVATA-1537
p1327
aVAIRAVATA-1536
p1328
aVAIRAVATA-1535
p1329
aVAIRAVATA-1534
p1330
aVAIRAVATA-1533
p1331
aVAIRAVATA-1532
p1332
aVAIRAVATA-1531
p1333
aVAIRAVATA-1530
p1334
aVAIRAVATA-1529
p1335
aVAIRAVATA-1528
p1336
aVAIRAVATA-1527
p1337
aVAIRAVATA-1526
p1338
aVAIRAVATA-1525
p1339
aVAIRAVATA-1524
p1340
aVAIRAVATA-1523
p1341
aVAIRAVATA-1522
p1342
aVAIRAVATA-1521
p1343
aVAIRAVATA-1520
p1344
aVAIRAVATA-1519
p1345
aVAIRAVATA-1518
p1346
aVAIRAVATA-1517
p1347
aVAIRAVATA-1516
p1348
aVAIRAVATA-1515
p1349
aVAIRAVATA-1514
p1350
aVAIRAVATA-1513
p1351
aVAIRAVATA-1512
p1352
aVAIRAVATA-1511
p1353
aVAIRAVATA-1510
p1354
aVAIRAVATA-1509
p1355
aVAIRAVATA-1508
p1356
aVAIRAVATA-1507
p1357
aVAIRAVATA-1506
p1358
aVAIRAVATA-1505
p1359
aVAIRAVATA-1504
p1360
aVAIRAVATA-1503
p1361
aVAIRAVATA-1502
p1362
aVAIRAVATA-1501
p1363
aVAIRAVATA-1500
p1364
aVAIRAVATA-1499
p1365
aVAIRAVATA-1498
p1366
aVAIRAVATA-1497
p1367
aVAIRAVATA-1496
p1368
aVAIRAVATA-1495
p1369
aVAIRAVATA-1494
p1370
aVAIRAVATA-1493
p1371
aVAIRAVATA-1492
p1372
aVAIRAVATA-1491
p1373
aVAIRAVATA-1490
p1374
aVAIRAVATA-1489
p1375
aVAIRAVATA-1488
p1376
aVAIRAVATA-1487
p1377
aVAIRAVATA-1486
p1378
aVAIRAVATA-1485
p1379
aVAIRAVATA-1484
p1380
aVAIRAVATA-1483
p1381
aVAIRAVATA-1482
p1382
aVAIRAVATA-1481
p1383
aVAIRAVATA-1480
p1384
aVAIRAVATA-1479
p1385
aVAIRAVATA-1478
p1386
aVAIRAVATA-1477
p1387
aVAIRAVATA-1476
p1388
aVAIRAVATA-1475
p1389
aVAIRAVATA-1474
p1390
aVAIRAVATA-1473
p1391
aVAIRAVATA-1472
p1392
aVAIRAVATA-1471
p1393
aVAIRAVATA-1470
p1394
aVAIRAVATA-1469
p1395
aVAIRAVATA-1468
p1396
aVAIRAVATA-1467
p1397
aVAIRAVATA-1466
p1398
aVAIRAVATA-1465
p1399
aVAIRAVATA-1464
p1400
aVAIRAVATA-1463
p1401
aVAIRAVATA-1462
p1402
aVAIRAVATA-1461
p1403
aVAIRAVATA-1460
p1404
aVAIRAVATA-1459
p1405
aVAIRAVATA-1458
p1406
aVAIRAVATA-1457
p1407
aVAIRAVATA-1456
p1408
aVAIRAVATA-1455
p1409
aVAIRAVATA-1454
p1410
aVAIRAVATA-1453
p1411
aVAIRAVATA-1452
p1412
aVAIRAVATA-1451
p1413
aVAIRAVATA-1450
p1414
aVAIRAVATA-1449
p1415
aVAIRAVATA-1448
p1416
aVAIRAVATA-1447
p1417
aVAIRAVATA-1446
p1418
aVAIRAVATA-1445
p1419
aVAIRAVATA-1444
p1420
aVAIRAVATA-1443
p1421
aVAIRAVATA-1442
p1422
aVAIRAVATA-1441
p1423
aVAIRAVATA-1440
p1424
aVAIRAVATA-1439
p1425
aVAIRAVATA-1438
p1426
aVAIRAVATA-1437
p1427
aVAIRAVATA-1436
p1428
aVAIRAVATA-1435
p1429
aVAIRAVATA-1434
p1430
aVAIRAVATA-1433
p1431
aVAIRAVATA-1432
p1432
aVAIRAVATA-1431
p1433
aVAIRAVATA-1430
p1434
aVAIRAVATA-1429
p1435
aVAIRAVATA-1428
p1436
aVAIRAVATA-1427
p1437
aVAIRAVATA-1426
p1438
aVAIRAVATA-1425
p1439
aVAIRAVATA-1424
p1440
aVAIRAVATA-1423
p1441
aVAIRAVATA-1422
p1442
aVAIRAVATA-1421
p1443
aVAIRAVATA-1420
p1444
aVAIRAVATA-1419
p1445
aVAIRAVATA-1418
p1446
aVAIRAVATA-1417
p1447
aVAIRAVATA-1416
p1448
aVAIRAVATA-1415
p1449
aVAIRAVATA-1414
p1450
aVAIRAVATA-1413
p1451
aVAIRAVATA-1412
p1452
aVAIRAVATA-1411
p1453
aVAIRAVATA-1410
p1454
aVAIRAVATA-1409
p1455
aVAIRAVATA-1408
p1456
aVAIRAVATA-1407
p1457
aVAIRAVATA-1406
p1458
aVAIRAVATA-1405
p1459
aVAIRAVATA-1404
p1460
aVAIRAVATA-1403
p1461
aVAIRAVATA-1402
p1462
aVAIRAVATA-1401
p1463
aVAIRAVATA-1400
p1464
aVAIRAVATA-1399
p1465
aVAIRAVATA-1398
p1466
aVAIRAVATA-1397
p1467
aVAIRAVATA-1396
p1468
aVAIRAVATA-1395
p1469
aVAIRAVATA-1394
p1470
aVAIRAVATA-1393
p1471
aVAIRAVATA-1392
p1472
aVAIRAVATA-1391
p1473
aVAIRAVATA-1390
p1474
aVAIRAVATA-1389
p1475
aVAIRAVATA-1388
p1476
aVAIRAVATA-1387
p1477
aVAIRAVATA-1386
p1478
aVAIRAVATA-1385
p1479
aVAIRAVATA-1384
p1480
aVAIRAVATA-1383
p1481
aVAIRAVATA-1382
p1482
aVAIRAVATA-1381
p1483
aVAIRAVATA-1380
p1484
aVAIRAVATA-1379
p1485
aVAIRAVATA-1378
p1486
aVAIRAVATA-1377
p1487
aVAIRAVATA-1376
p1488
aVAIRAVATA-1375
p1489
aVAIRAVATA-1374
p1490
aVAIRAVATA-1373
p1491
aVAIRAVATA-1372
p1492
aVAIRAVATA-1371
p1493
aVAIRAVATA-1370
p1494
aVAIRAVATA-1369
p1495
aVAIRAVATA-1368
p1496
aVAIRAVATA-1367
p1497
aVAIRAVATA-1366
p1498
aVAIRAVATA-1365
p1499
aVAIRAVATA-1364
p1500
aVAIRAVATA-1363
p1501
aVAIRAVATA-1362
p1502
aVAIRAVATA-1361
p1503
aVAIRAVATA-1360
p1504
aVAIRAVATA-1359
p1505
aVAIRAVATA-1358
p1506
aVAIRAVATA-1357
p1507
aVAIRAVATA-1356
p1508
aVAIRAVATA-1355
p1509
aVAIRAVATA-1354
p1510
aVAIRAVATA-1353
p1511
aVAIRAVATA-1352
p1512
aVAIRAVATA-1351
p1513
aVAIRAVATA-1350
p1514
aVAIRAVATA-1349
p1515
aVAIRAVATA-1348
p1516
aVAIRAVATA-1347
p1517
aVAIRAVATA-1346
p1518
aVAIRAVATA-1345
p1519
aVAIRAVATA-1344
p1520
aVAIRAVATA-1343
p1521
aVAIRAVATA-1342
p1522
aVAIRAVATA-1341
p1523
aVAIRAVATA-1340
p1524
aVAIRAVATA-1339
p1525
aVAIRAVATA-1338
p1526
aVAIRAVATA-1337
p1527
aVAIRAVATA-1336
p1528
aVAIRAVATA-1335
p1529
aVAIRAVATA-1334
p1530
aVAIRAVATA-1333
p1531
aVAIRAVATA-1332
p1532
aVAIRAVATA-1331
p1533
aVAIRAVATA-1330
p1534
aVAIRAVATA-1329
p1535
aVAIRAVATA-1328
p1536
aVAIRAVATA-1327
p1537
aVAIRAVATA-1326
p1538
aVAIRAVATA-1325
p1539
aVAIRAVATA-1324
p1540
aVAIRAVATA-1323
p1541
aVAIRAVATA-1322
p1542
aVAIRAVATA-1321
p1543
aVAIRAVATA-1320
p1544
aVAIRAVATA-1319
p1545
aVAIRAVATA-1318
p1546
aVAIRAVATA-1317
p1547
aVAIRAVATA-1316
p1548
aVAIRAVATA-1315
p1549
aVAIRAVATA-1314
p1550
aVAIRAVATA-1313
p1551
aVAIRAVATA-1312
p1552
aVAIRAVATA-1311
p1553
aVAIRAVATA-1310
p1554
aVAIRAVATA-1309
p1555
aVAIRAVATA-1308
p1556
aVAIRAVATA-1307
p1557
aVAIRAVATA-1306
p1558
aVAIRAVATA-1305
p1559
aVAIRAVATA-1304
p1560
aVAIRAVATA-1303
p1561
aVAIRAVATA-1302
p1562
aVAIRAVATA-1301
p1563
aVAIRAVATA-1300
p1564
aVAIRAVATA-1299
p1565
aVAIRAVATA-1298
p1566
aVAIRAVATA-1297
p1567
aVAIRAVATA-1296
p1568
aVAIRAVATA-1295
p1569
aVAIRAVATA-1294
p1570
aVAIRAVATA-1293
p1571
aVAIRAVATA-1292
p1572
aVAIRAVATA-1291
p1573
aVAIRAVATA-1290
p1574
aVAIRAVATA-1289
p1575
aVAIRAVATA-1288
p1576
aVAIRAVATA-1287
p1577
aVAIRAVATA-1286
p1578
aVAIRAVATA-1285
p1579
aVAIRAVATA-1284
p1580
aVAIRAVATA-1283
p1581
aVAIRAVATA-1282
p1582
aVAIRAVATA-1281
p1583
aVAIRAVATA-1280
p1584
aVAIRAVATA-1279
p1585
aVAIRAVATA-1278
p1586
aVAIRAVATA-1277
p1587
aVAIRAVATA-1276
p1588
aVAIRAVATA-1275
p1589
aVAIRAVATA-1274
p1590
aVAIRAVATA-1273
p1591
aVAIRAVATA-1272
p1592
aVAIRAVATA-1271
p1593
aVAIRAVATA-1270
p1594
aVAIRAVATA-1269
p1595
aVAIRAVATA-1268
p1596
aVAIRAVATA-1267
p1597
aVAIRAVATA-1266
p1598
aVAIRAVATA-1265
p1599
aVAIRAVATA-1264
p1600
aVAIRAVATA-1263
p1601
aVAIRAVATA-1262
p1602
aVAIRAVATA-1261
p1603
aVAIRAVATA-1260
p1604
aVAIRAVATA-1259
p1605
aVAIRAVATA-1258
p1606
aVAIRAVATA-1257
p1607
aVAIRAVATA-1256
p1608
aVAIRAVATA-1255
p1609
aVAIRAVATA-1254
p1610
aVAIRAVATA-1253
p1611
aVAIRAVATA-1252
p1612
aVAIRAVATA-1251
p1613
aVAIRAVATA-1250
p1614
aVAIRAVATA-1249
p1615
aVAIRAVATA-1248
p1616
aVAIRAVATA-1247
p1617
aVAIRAVATA-1246
p1618
aVAIRAVATA-1245
p1619
aVAIRAVATA-1244
p1620
aVAIRAVATA-1243
p1621
aVAIRAVATA-1242
p1622
aVAIRAVATA-1241
p1623
aVAIRAVATA-1240
p1624
aVAIRAVATA-1239
p1625
aVAIRAVATA-1238
p1626
aVAIRAVATA-1237
p1627
aVAIRAVATA-1236
p1628
aVAIRAVATA-1235
p1629
aVAIRAVATA-1234
p1630
aVAIRAVATA-1233
p1631
aVAIRAVATA-1232
p1632
aVAIRAVATA-1231
p1633
aVAIRAVATA-1230
p1634
aVAIRAVATA-1229
p1635
aVAIRAVATA-1228
p1636
aVAIRAVATA-1227
p1637
aVAIRAVATA-1226
p1638
aVAIRAVATA-1225
p1639
aVAIRAVATA-1224
p1640
aVAIRAVATA-1223
p1641
aVAIRAVATA-1222
p1642
aVAIRAVATA-1221
p1643
aVAIRAVATA-1220
p1644
aVAIRAVATA-1219
p1645
aVAIRAVATA-1218
p1646
aVAIRAVATA-1217
p1647
aVAIRAVATA-1216
p1648
aVAIRAVATA-1215
p1649
aVAIRAVATA-1214
p1650
aVAIRAVATA-1213
p1651
aVAIRAVATA-1212
p1652
aVAIRAVATA-1211
p1653
aVAIRAVATA-1210
p1654
aVAIRAVATA-1209
p1655
aVAIRAVATA-1208
p1656
aVAIRAVATA-1207
p1657
aVAIRAVATA-1206
p1658
aVAIRAVATA-1205
p1659
aVAIRAVATA-1204
p1660
aVAIRAVATA-1203
p1661
aVAIRAVATA-1202
p1662
aVAIRAVATA-1201
p1663
aVAIRAVATA-1200
p1664
aVAIRAVATA-1199
p1665
aVAIRAVATA-1198
p1666
aVAIRAVATA-1197
p1667
aVAIRAVATA-1196
p1668
aVAIRAVATA-1195
p1669
aVAIRAVATA-1194
p1670
aVAIRAVATA-1193
p1671
aVAIRAVATA-1192
p1672
aVAIRAVATA-1191
p1673
aVAIRAVATA-1190
p1674
aVAIRAVATA-1189
p1675
aVAIRAVATA-1188
p1676
aVAIRAVATA-1187
p1677
aVAIRAVATA-1186
p1678
aVAIRAVATA-1185
p1679
aVAIRAVATA-1184
p1680
aVAIRAVATA-1183
p1681
aVAIRAVATA-1182
p1682
aVAIRAVATA-1181
p1683
aVAIRAVATA-1180
p1684
aVAIRAVATA-1179
p1685
aVAIRAVATA-1178
p1686
aVAIRAVATA-1177
p1687
aVAIRAVATA-1176
p1688
aVAIRAVATA-1175
p1689
aVAIRAVATA-1174
p1690
aVAIRAVATA-1173
p1691
aVAIRAVATA-1172
p1692
aVAIRAVATA-1171
p1693
aVAIRAVATA-1170
p1694
aVAIRAVATA-1169
p1695
aVAIRAVATA-1168
p1696
aVAIRAVATA-1167
p1697
aVAIRAVATA-1166
p1698
aVAIRAVATA-1165
p1699
aVAIRAVATA-1164
p1700
aVAIRAVATA-1163
p1701
aVAIRAVATA-1162
p1702
aVAIRAVATA-1161
p1703
aVAIRAVATA-1160
p1704
aVAIRAVATA-1159
p1705
aVAIRAVATA-1158
p1706
aVAIRAVATA-1157
p1707
aVAIRAVATA-1156
p1708
aVAIRAVATA-1155
p1709
aVAIRAVATA-1154
p1710
aVAIRAVATA-1153
p1711
aVAIRAVATA-1152
p1712
aVAIRAVATA-1151
p1713
aVAIRAVATA-1150
p1714
aVAIRAVATA-1149
p1715
aVAIRAVATA-1148
p1716
aVAIRAVATA-1147
p1717
aVAIRAVATA-1146
p1718
aVAIRAVATA-1145
p1719
aVAIRAVATA-1144
p1720
aVAIRAVATA-1143
p1721
aVAIRAVATA-1142
p1722
aVAIRAVATA-1141
p1723
aVAIRAVATA-1140
p1724
aVAIRAVATA-1139
p1725
aVAIRAVATA-1138
p1726
aVAIRAVATA-1137
p1727
aVAIRAVATA-1136
p1728
aVAIRAVATA-1135
p1729
aVAIRAVATA-1134
p1730
aVAIRAVATA-1133
p1731
aVAIRAVATA-1132
p1732
aVAIRAVATA-1131
p1733
aVAIRAVATA-1130
p1734
aVAIRAVATA-1129
p1735
aVAIRAVATA-1128
p1736
aVAIRAVATA-1127
p1737
aVAIRAVATA-1126
p1738
aVAIRAVATA-1125
p1739
aVAIRAVATA-1124
p1740
aVAIRAVATA-1123
p1741
aVAIRAVATA-1122
p1742
aVAIRAVATA-1121
p1743
aVAIRAVATA-1120
p1744
aVAIRAVATA-1119
p1745
aVAIRAVATA-1118
p1746
aVAIRAVATA-1107
p1747
aVAIRAVATA-1106
p1748
aVAIRAVATA-1105
p1749
aVAIRAVATA-1104
p1750
aVAIRAVATA-1103
p1751
aVAIRAVATA-1102
p1752
aVAIRAVATA-1101
p1753
aVAIRAVATA-1100
p1754
aVAIRAVATA-1099
p1755
aVAIRAVATA-1098
p1756
aVAIRAVATA-1097
p1757
aVAIRAVATA-1096
p1758
aVAIRAVATA-1095
p1759
aVAIRAVATA-1094
p1760
aVAIRAVATA-1093
p1761
aVAIRAVATA-1092
p1762
aVAIRAVATA-1091
p1763
aVAIRAVATA-1090
p1764
aVAIRAVATA-1089
p1765
aVAIRAVATA-1088
p1766
aVAIRAVATA-1087
p1767
aVAIRAVATA-1086
p1768
aVAIRAVATA-1085
p1769
aVAIRAVATA-1084
p1770
aVAIRAVATA-1083
p1771
aVAIRAVATA-1082
p1772
aVAIRAVATA-1081
p1773
aVAIRAVATA-1080
p1774
aVAIRAVATA-1079
p1775
aVAIRAVATA-1078
p1776
aVAIRAVATA-1077
p1777
aVAIRAVATA-1076
p1778
aVAIRAVATA-1075
p1779
aVAIRAVATA-1074
p1780
aVAIRAVATA-1073
p1781
aVAIRAVATA-1072
p1782
aVAIRAVATA-1071
p1783
aVAIRAVATA-1070
p1784
aVAIRAVATA-1069
p1785
aVAIRAVATA-1068
p1786
aVAIRAVATA-1067
p1787
aVAIRAVATA-1066
p1788
aVAIRAVATA-1065
p1789
aVAIRAVATA-1064
p1790
aVAIRAVATA-1063
p1791
aVAIRAVATA-1062
p1792
aVAIRAVATA-1061
p1793
aVAIRAVATA-1060
p1794
aVAIRAVATA-1059
p1795
aVAIRAVATA-1058
p1796
aVAIRAVATA-1057
p1797
aVAIRAVATA-1056
p1798
aVAIRAVATA-1055
p1799
aVAIRAVATA-1054
p1800
aVAIRAVATA-1053
p1801
aVAIRAVATA-1052
p1802
aVAIRAVATA-1051
p1803
aVAIRAVATA-1050
p1804
aVAIRAVATA-1049
p1805
aVAIRAVATA-1048
p1806
aVAIRAVATA-1047
p1807
aVAIRAVATA-1046
p1808
aVAIRAVATA-1045
p1809
aVAIRAVATA-1044
p1810
aVAIRAVATA-1043
p1811
aVAIRAVATA-1042
p1812
aVAIRAVATA-1041
p1813
aVAIRAVATA-1040
p1814
aVAIRAVATA-1039
p1815
aVAIRAVATA-1038
p1816
aVAIRAVATA-1037
p1817
aVAIRAVATA-1036
p1818
aVAIRAVATA-1035
p1819
aVAIRAVATA-1034
p1820
aVAIRAVATA-1033
p1821
aVAIRAVATA-1032
p1822
aVAIRAVATA-1031
p1823
aVAIRAVATA-1030
p1824
aVAIRAVATA-1029
p1825
aVAIRAVATA-1028
p1826
aVAIRAVATA-1027
p1827
aVAIRAVATA-1026
p1828
aVAIRAVATA-1025
p1829
aVAIRAVATA-1024
p1830
aVAIRAVATA-1023
p1831
aVAIRAVATA-1022
p1832
aVAIRAVATA-1021
p1833
aVAIRAVATA-1020
p1834
aVAIRAVATA-1019
p1835
aVAIRAVATA-1018
p1836
aVAIRAVATA-1017
p1837
aVAIRAVATA-1016
p1838
aVAIRAVATA-1015
p1839
aVAIRAVATA-1014
p1840
aVAIRAVATA-1013
p1841
aVAIRAVATA-1012
p1842
aVAIRAVATA-1011
p1843
aVAIRAVATA-1010
p1844
aVAIRAVATA-1009
p1845
aVAIRAVATA-1008
p1846
aVAIRAVATA-1007
p1847
aVAIRAVATA-1006
p1848
aVAIRAVATA-1005
p1849
aVAIRAVATA-1004
p1850
aVAIRAVATA-1003
p1851
aVAIRAVATA-1002
p1852
aVAIRAVATA-1001
p1853
aVAIRAVATA-1000
p1854
aVAIRAVATA-999
p1855
aVAIRAVATA-998
p1856
aVAIRAVATA-997
p1857
aVAIRAVATA-996
p1858
aVAIRAVATA-995
p1859
aVAIRAVATA-994
p1860
aVAIRAVATA-993
p1861
aVAIRAVATA-992
p1862
aVAIRAVATA-991
p1863
aVAIRAVATA-990
p1864
aVAIRAVATA-989
p1865
aVAIRAVATA-988
p1866
aVAIRAVATA-987
p1867
aVAIRAVATA-986
p1868
aVAIRAVATA-985
p1869
aVAIRAVATA-984
p1870
aVAIRAVATA-983
p1871
aVAIRAVATA-982
p1872
aVAIRAVATA-981
p1873
aVAIRAVATA-980
p1874
aVAIRAVATA-979
p1875
aVAIRAVATA-978
p1876
aVAIRAVATA-977
p1877
aVAIRAVATA-976
p1878
aVAIRAVATA-975
p1879
aVAIRAVATA-974
p1880
aVAIRAVATA-973
p1881
aVAIRAVATA-972
p1882
aVAIRAVATA-971
p1883
aVAIRAVATA-970
p1884
aVAIRAVATA-969
p1885
aVAIRAVATA-968
p1886
aVAIRAVATA-967
p1887
aVAIRAVATA-966
p1888
aVAIRAVATA-965
p1889
aVAIRAVATA-964
p1890
aVAIRAVATA-963
p1891
aVAIRAVATA-962
p1892
aVAIRAVATA-961
p1893
aVAIRAVATA-960
p1894
aVAIRAVATA-959
p1895
aVAIRAVATA-958
p1896
aVAIRAVATA-957
p1897
aVAIRAVATA-956
p1898
aVAIRAVATA-955
p1899
aVAIRAVATA-954
p1900
aVAIRAVATA-953
p1901
aVAIRAVATA-952
p1902
aVAIRAVATA-951
p1903
aVAIRAVATA-950
p1904
aVAIRAVATA-949
p1905
aVAIRAVATA-948
p1906
aVAIRAVATA-947
p1907
aVAIRAVATA-946
p1908
aVAIRAVATA-945
p1909
aVAIRAVATA-944
p1910
aVAIRAVATA-943
p1911
aVAIRAVATA-942
p1912
aVAIRAVATA-941
p1913
aVAIRAVATA-940
p1914
aVAIRAVATA-939
p1915
aVAIRAVATA-938
p1916
aVAIRAVATA-937
p1917
aVAIRAVATA-936
p1918
aVAIRAVATA-935
p1919
aVAIRAVATA-934
p1920
aVAIRAVATA-933
p1921
aVAIRAVATA-932
p1922
aVAIRAVATA-931
p1923
aVAIRAVATA-930
p1924
aVAIRAVATA-928
p1925
aVAIRAVATA-927
p1926
aVAIRAVATA-925
p1927
aVAIRAVATA-924
p1928
aVAIRAVATA-923
p1929
aVAIRAVATA-922
p1930
aVAIRAVATA-921
p1931
aVAIRAVATA-920
p1932
aVAIRAVATA-919
p1933
aVAIRAVATA-918
p1934
aVAIRAVATA-917
p1935
aVAIRAVATA-916
p1936
aVAIRAVATA-915
p1937
aVAIRAVATA-914
p1938
aVAIRAVATA-913
p1939
aVAIRAVATA-912
p1940
aVAIRAVATA-911
p1941
aVAIRAVATA-910
p1942
aVAIRAVATA-909
p1943
aVAIRAVATA-908
p1944
aVAIRAVATA-907
p1945
aVAIRAVATA-906
p1946
aVAIRAVATA-905
p1947
aVAIRAVATA-904
p1948
aVAIRAVATA-903
p1949
aVAIRAVATA-902
p1950
aVAIRAVATA-901
p1951
aVAIRAVATA-900
p1952
aVAIRAVATA-899
p1953
aVAIRAVATA-898
p1954
aVAIRAVATA-897
p1955
aVAIRAVATA-896
p1956
aVAIRAVATA-895
p1957
aVAIRAVATA-894
p1958
aVAIRAVATA-893
p1959
aVAIRAVATA-892
p1960
aVAIRAVATA-891
p1961
aVAIRAVATA-890
p1962
aVAIRAVATA-889
p1963
aVAIRAVATA-888
p1964
aVAIRAVATA-887
p1965
aVAIRAVATA-886
p1966
aVAIRAVATA-885
p1967
aVAIRAVATA-884
p1968
aVAIRAVATA-883
p1969
aVAIRAVATA-882
p1970
aVAIRAVATA-881
p1971
aVAIRAVATA-880
p1972
aVAIRAVATA-879
p1973
aVAIRAVATA-878
p1974
aVAIRAVATA-877
p1975
aVAIRAVATA-876
p1976
aVAIRAVATA-875
p1977
aVAIRAVATA-874
p1978
aVAIRAVATA-873
p1979
aVAIRAVATA-872
p1980
aVAIRAVATA-871
p1981
aVAIRAVATA-870
p1982
aVAIRAVATA-869
p1983
aVAIRAVATA-868
p1984
aVAIRAVATA-867
p1985
aVAIRAVATA-866
p1986
aVAIRAVATA-865
p1987
aVAIRAVATA-864
p1988
aVAIRAVATA-863
p1989
aVAIRAVATA-862
p1990
aVAIRAVATA-861
p1991
aVAIRAVATA-860
p1992
aVAIRAVATA-859
p1993
aVAIRAVATA-858
p1994
aVAIRAVATA-857
p1995
aVAIRAVATA-856
p1996
aVAIRAVATA-855
p1997
aVAIRAVATA-854
p1998
aVAIRAVATA-853
p1999
aVAIRAVATA-852
p2000
aVAIRAVATA-851
p2001
aVAIRAVATA-850
p2002
aVAIRAVATA-849
p2003
aVAIRAVATA-848
p2004
aVAIRAVATA-847
p2005
aVAIRAVATA-846
p2006
aVAIRAVATA-845
p2007
aVAIRAVATA-844
p2008
aVAIRAVATA-843
p2009
aVAIRAVATA-842
p2010
aVAIRAVATA-841
p2011
aVAIRAVATA-840
p2012
aVAIRAVATA-839
p2013
aVAIRAVATA-838
p2014
aVAIRAVATA-837
p2015
aVAIRAVATA-836
p2016
aVAIRAVATA-835
p2017
aVAIRAVATA-834
p2018
aVAIRAVATA-833
p2019
aVAIRAVATA-832
p2020
aVAIRAVATA-831
p2021
aVAIRAVATA-830
p2022
aVAIRAVATA-829
p2023
aVAIRAVATA-828
p2024
aVAIRAVATA-827
p2025
aVAIRAVATA-826
p2026
aVAIRAVATA-825
p2027
aVAIRAVATA-824
p2028
aVAIRAVATA-823
p2029
aVAIRAVATA-822
p2030
aVAIRAVATA-821
p2031
aVAIRAVATA-820
p2032
aVAIRAVATA-819
p2033
aVAIRAVATA-818
p2034
aVAIRAVATA-817
p2035
aVAIRAVATA-816
p2036
aVAIRAVATA-815
p2037
aVAIRAVATA-814
p2038
aVAIRAVATA-813
p2039
aVAIRAVATA-812
p2040
aVAIRAVATA-811
p2041
aVAIRAVATA-810
p2042
aVAIRAVATA-809
p2043
aVAIRAVATA-808
p2044
aVAIRAVATA-807
p2045
aVAIRAVATA-806
p2046
aVAIRAVATA-805
p2047
aVAIRAVATA-804
p2048
aVAIRAVATA-803
p2049
aVAIRAVATA-802
p2050
aVAIRAVATA-801
p2051
aVAIRAVATA-800
p2052
aVAIRAVATA-799
p2053
aVAIRAVATA-798
p2054
aVAIRAVATA-797
p2055
aVAIRAVATA-796
p2056
aVAIRAVATA-795
p2057
aVAIRAVATA-794
p2058
aVAIRAVATA-793
p2059
aVAIRAVATA-792
p2060
aVAIRAVATA-791
p2061
aVAIRAVATA-790
p2062
aVAIRAVATA-789
p2063
aVAIRAVATA-788
p2064
aVAIRAVATA-787
p2065
aVAIRAVATA-786
p2066
aVAIRAVATA-785
p2067
aVAIRAVATA-784
p2068
aVAIRAVATA-783
p2069
aVAIRAVATA-782
p2070
aVAIRAVATA-781
p2071
aVAIRAVATA-780
p2072
aVAIRAVATA-779
p2073
aVAIRAVATA-778
p2074
aVAIRAVATA-777
p2075
aVAIRAVATA-776
p2076
aVAIRAVATA-775
p2077
aVAIRAVATA-774
p2078
aVAIRAVATA-773
p2079
aVAIRAVATA-772
p2080
aVAIRAVATA-771
p2081
aVAIRAVATA-770
p2082
aVAIRAVATA-769
p2083
aVAIRAVATA-768
p2084
aVAIRAVATA-767
p2085
aVAIRAVATA-766
p2086
aVAIRAVATA-765
p2087
aVAIRAVATA-764
p2088
aVAIRAVATA-763
p2089
aVAIRAVATA-762
p2090
aVAIRAVATA-761
p2091
aVAIRAVATA-760
p2092
aVAIRAVATA-759
p2093
aVAIRAVATA-758
p2094
aVAIRAVATA-757
p2095
aVAIRAVATA-756
p2096
aVAIRAVATA-755
p2097
aVAIRAVATA-754
p2098
aVAIRAVATA-753
p2099
aVAIRAVATA-752
p2100
aVAIRAVATA-751
p2101
aVAIRAVATA-750
p2102
aVAIRAVATA-749
p2103
aVAIRAVATA-748
p2104
aVAIRAVATA-747
p2105
aVAIRAVATA-746
p2106
aVAIRAVATA-745
p2107
aVAIRAVATA-744
p2108
aVAIRAVATA-743
p2109
aVAIRAVATA-742
p2110
aVAIRAVATA-741
p2111
aVAIRAVATA-740
p2112
aVAIRAVATA-739
p2113
aVAIRAVATA-738
p2114
aVAIRAVATA-737
p2115
aVAIRAVATA-736
p2116
aVAIRAVATA-735
p2117
aVAIRAVATA-734
p2118
aVAIRAVATA-733
p2119
aVAIRAVATA-732
p2120
aVAIRAVATA-731
p2121
aVAIRAVATA-730
p2122
aVAIRAVATA-729
p2123
aVAIRAVATA-728
p2124
aVAIRAVATA-727
p2125
aVAIRAVATA-726
p2126
aVAIRAVATA-725
p2127
aVAIRAVATA-724
p2128
aVAIRAVATA-723
p2129
aVAIRAVATA-722
p2130
aVAIRAVATA-721
p2131
aVAIRAVATA-720
p2132
aVAIRAVATA-719
p2133
aVAIRAVATA-718
p2134
aVAIRAVATA-717
p2135
aVAIRAVATA-716
p2136
aVAIRAVATA-715
p2137
aVAIRAVATA-714
p2138
aVAIRAVATA-713
p2139
aVAIRAVATA-712
p2140
aVAIRAVATA-711
p2141
aVAIRAVATA-710
p2142
aVAIRAVATA-709
p2143
aVAIRAVATA-708
p2144
aVAIRAVATA-707
p2145
aVAIRAVATA-706
p2146
aVAIRAVATA-705
p2147
aVAIRAVATA-704
p2148
aVAIRAVATA-703
p2149
aVAIRAVATA-702
p2150
aVAIRAVATA-701
p2151
aVAIRAVATA-700
p2152
aVAIRAVATA-699
p2153
aVAIRAVATA-698
p2154
aVAIRAVATA-697
p2155
aVAIRAVATA-696
p2156
aVAIRAVATA-695
p2157
aVAIRAVATA-694
p2158
aVAIRAVATA-693
p2159
aVAIRAVATA-692
p2160
aVAIRAVATA-691
p2161
aVAIRAVATA-690
p2162
aVAIRAVATA-689
p2163
aVAIRAVATA-688
p2164
aVAIRAVATA-687
p2165
aVAIRAVATA-686
p2166
aVAIRAVATA-685
p2167
aVAIRAVATA-684
p2168
aVAIRAVATA-683
p2169
aVAIRAVATA-682
p2170
aVAIRAVATA-681
p2171
aVAIRAVATA-680
p2172
aVAIRAVATA-679
p2173
aVAIRAVATA-678
p2174
aVAIRAVATA-677
p2175
aVAIRAVATA-676
p2176
aVAIRAVATA-675
p2177
aVAIRAVATA-674
p2178
aVAIRAVATA-673
p2179
aVAIRAVATA-672
p2180
aVAIRAVATA-671
p2181
aVAIRAVATA-670
p2182
aVAIRAVATA-669
p2183
aVAIRAVATA-668
p2184
aVAIRAVATA-667
p2185
aVAIRAVATA-666
p2186
aVAIRAVATA-665
p2187
aVAIRAVATA-664
p2188
aVAIRAVATA-663
p2189
aVAIRAVATA-662
p2190
aVAIRAVATA-661
p2191
aVAIRAVATA-660
p2192
aVAIRAVATA-659
p2193
aVAIRAVATA-658
p2194
aVAIRAVATA-657
p2195
aVAIRAVATA-656
p2196
aVAIRAVATA-655
p2197
aVAIRAVATA-654
p2198
aVAIRAVATA-653
p2199
aVAIRAVATA-652
p2200
aVAIRAVATA-651
p2201
aVAIRAVATA-650
p2202
aVAIRAVATA-649
p2203
aVAIRAVATA-648
p2204
aVAIRAVATA-647
p2205
aVAIRAVATA-646
p2206
aVAIRAVATA-645
p2207
aVAIRAVATA-644
p2208
aVAIRAVATA-643
p2209
aVAIRAVATA-642
p2210
aVAIRAVATA-641
p2211
aVAIRAVATA-640
p2212
aVAIRAVATA-639
p2213
aVAIRAVATA-638
p2214
aVAIRAVATA-637
p2215
aVAIRAVATA-636
p2216
aVAIRAVATA-635
p2217
aVAIRAVATA-634
p2218
aVAIRAVATA-633
p2219
aVAIRAVATA-632
p2220
aVAIRAVATA-631
p2221
aVAIRAVATA-630
p2222
aVAIRAVATA-629
p2223
aVAIRAVATA-628
p2224
aVAIRAVATA-627
p2225
aVAIRAVATA-626
p2226
aVAIRAVATA-625
p2227
aVAIRAVATA-624
p2228
aVAIRAVATA-623
p2229
aVAIRAVATA-622
p2230
aVAIRAVATA-621
p2231
aVAIRAVATA-620
p2232
aVAIRAVATA-619
p2233
aVAIRAVATA-618
p2234
aVAIRAVATA-617
p2235
aVAIRAVATA-616
p2236
aVAIRAVATA-615
p2237
aVAIRAVATA-614
p2238
aVAIRAVATA-613
p2239
aVAIRAVATA-612
p2240
aVAIRAVATA-611
p2241
aVAIRAVATA-610
p2242
aVAIRAVATA-609
p2243
aVAIRAVATA-608
p2244
aVAIRAVATA-607
p2245
aVAIRAVATA-606
p2246
aVAIRAVATA-605
p2247
aVAIRAVATA-604
p2248
aVAIRAVATA-603
p2249
aVAIRAVATA-602
p2250
aVAIRAVATA-601
p2251
aVAIRAVATA-600
p2252
aVAIRAVATA-599
p2253
aVAIRAVATA-598
p2254
aVAIRAVATA-597
p2255
aVAIRAVATA-596
p2256
aVAIRAVATA-595
p2257
aVAIRAVATA-594
p2258
aVAIRAVATA-593
p2259
aVAIRAVATA-592
p2260
aVAIRAVATA-591
p2261
aVAIRAVATA-590
p2262
aVAIRAVATA-589
p2263
aVAIRAVATA-588
p2264
aVAIRAVATA-587
p2265
aVAIRAVATA-586
p2266
aVAIRAVATA-585
p2267
aVAIRAVATA-584
p2268
aVAIRAVATA-583
p2269
aVAIRAVATA-582
p2270
aVAIRAVATA-581
p2271
aVAIRAVATA-580
p2272
aVAIRAVATA-579
p2273
aVAIRAVATA-578
p2274
aVAIRAVATA-577
p2275
aVAIRAVATA-576
p2276
aVAIRAVATA-575
p2277
aVAIRAVATA-574
p2278
aVAIRAVATA-573
p2279
aVAIRAVATA-572
p2280
aVAIRAVATA-571
p2281
aVAIRAVATA-570
p2282
aVAIRAVATA-569
p2283
aVAIRAVATA-568
p2284
aVAIRAVATA-567
p2285
aVAIRAVATA-566
p2286
aVAIRAVATA-565
p2287
aVAIRAVATA-564
p2288
aVAIRAVATA-563
p2289
aVAIRAVATA-562
p2290
aVAIRAVATA-561
p2291
aVAIRAVATA-560
p2292
aVAIRAVATA-559
p2293
aVAIRAVATA-558
p2294
aVAIRAVATA-557
p2295
aVAIRAVATA-556
p2296
aVAIRAVATA-555
p2297
aVAIRAVATA-554
p2298
aVAIRAVATA-553
p2299
aVAIRAVATA-552
p2300
aVAIRAVATA-551
p2301
aVAIRAVATA-550
p2302
aVAIRAVATA-549
p2303
aVAIRAVATA-548
p2304
aVAIRAVATA-547
p2305
aVAIRAVATA-546
p2306
aVAIRAVATA-545
p2307
aVAIRAVATA-544
p2308
aVAIRAVATA-543
p2309
aVAIRAVATA-542
p2310
aVAIRAVATA-541
p2311
aVAIRAVATA-540
p2312
aVAIRAVATA-539
p2313
aVAIRAVATA-538
p2314
aVAIRAVATA-537
p2315
aVAIRAVATA-536
p2316
aVAIRAVATA-535
p2317
aVAIRAVATA-534
p2318
aVAIRAVATA-533
p2319
aVAIRAVATA-532
p2320
aVAIRAVATA-531
p2321
aVAIRAVATA-530
p2322
aVAIRAVATA-529
p2323
aVAIRAVATA-528
p2324
aVAIRAVATA-527
p2325
aVAIRAVATA-526
p2326
aVAIRAVATA-525
p2327
aVAIRAVATA-524
p2328
aVAIRAVATA-523
p2329
aVAIRAVATA-522
p2330
aVAIRAVATA-521
p2331
aVAIRAVATA-520
p2332
aVAIRAVATA-519
p2333
aVAIRAVATA-518
p2334
aVAIRAVATA-517
p2335
aVAIRAVATA-516
p2336
aVAIRAVATA-515
p2337
aVAIRAVATA-514
p2338
aVAIRAVATA-513
p2339
aVAIRAVATA-512
p2340
aVAIRAVATA-511
p2341
aVAIRAVATA-510
p2342
aVAIRAVATA-509
p2343
aVAIRAVATA-508
p2344
aVAIRAVATA-507
p2345
aVAIRAVATA-506
p2346
aVAIRAVATA-505
p2347
aVAIRAVATA-504
p2348
aVAIRAVATA-503
p2349
aVAIRAVATA-502
p2350
aVAIRAVATA-501
p2351
aVAIRAVATA-500
p2352
aVAIRAVATA-499
p2353
aVAIRAVATA-498
p2354
aVAIRAVATA-497
p2355
aVAIRAVATA-496
p2356
aVAIRAVATA-495
p2357
aVAIRAVATA-494
p2358
aVAIRAVATA-493
p2359
aVAIRAVATA-492
p2360
aVAIRAVATA-491
p2361
aVAIRAVATA-490
p2362
aVAIRAVATA-489
p2363
aVAIRAVATA-488
p2364
aVAIRAVATA-487
p2365
aVAIRAVATA-486
p2366
aVAIRAVATA-485
p2367
aVAIRAVATA-484
p2368
aVAIRAVATA-483
p2369
aVAIRAVATA-482
p2370
aVAIRAVATA-481
p2371
aVAIRAVATA-480
p2372
aVAIRAVATA-479
p2373
aVAIRAVATA-478
p2374
aVAIRAVATA-477
p2375
aVAIRAVATA-476
p2376
aVAIRAVATA-475
p2377
aVAIRAVATA-474
p2378
aVAIRAVATA-473
p2379
aVAIRAVATA-472
p2380
aVAIRAVATA-471
p2381
aVAIRAVATA-470
p2382
aVAIRAVATA-469
p2383
aVAIRAVATA-468
p2384
aVAIRAVATA-467
p2385
aVAIRAVATA-466
p2386
aVAIRAVATA-465
p2387
aVAIRAVATA-464
p2388
aVAIRAVATA-463
p2389
aVAIRAVATA-462
p2390
aVAIRAVATA-461
p2391
aVAIRAVATA-460
p2392
aVAIRAVATA-459
p2393
aVAIRAVATA-458
p2394
aVAIRAVATA-457
p2395
aVAIRAVATA-456
p2396
aVAIRAVATA-455
p2397
aVAIRAVATA-454
p2398
aVAIRAVATA-453
p2399
aVAIRAVATA-452
p2400
aVAIRAVATA-451
p2401
aVAIRAVATA-450
p2402
aVAIRAVATA-449
p2403
aVAIRAVATA-448
p2404
aVAIRAVATA-447
p2405
aVAIRAVATA-446
p2406
aVAIRAVATA-445
p2407
aVAIRAVATA-444
p2408
aVAIRAVATA-443
p2409
aVAIRAVATA-442
p2410
aVAIRAVATA-441
p2411
aVAIRAVATA-440
p2412
aVAIRAVATA-439
p2413
aVAIRAVATA-438
p2414
aVAIRAVATA-437
p2415
aVAIRAVATA-436
p2416
aVAIRAVATA-435
p2417
aVAIRAVATA-434
p2418
aVAIRAVATA-433
p2419
aVAIRAVATA-432
p2420
aVAIRAVATA-431
p2421
aVAIRAVATA-430
p2422
aVAIRAVATA-429
p2423
aVAIRAVATA-428
p2424
aVAIRAVATA-427
p2425
aVAIRAVATA-426
p2426
aVAIRAVATA-425
p2427
aVAIRAVATA-424
p2428
aVAIRAVATA-423
p2429
aVAIRAVATA-422
p2430
aVAIRAVATA-421
p2431
aVAIRAVATA-420
p2432
aVAIRAVATA-419
p2433
aVAIRAVATA-418
p2434
aVAIRAVATA-417
p2435
aVAIRAVATA-416
p2436
aVAIRAVATA-415
p2437
aVAIRAVATA-414
p2438
aVAIRAVATA-413
p2439
aVAIRAVATA-412
p2440
aVAIRAVATA-411
p2441
aVAIRAVATA-410
p2442
aVAIRAVATA-409
p2443
aVAIRAVATA-408
p2444
aVAIRAVATA-407
p2445
aVAIRAVATA-406
p2446
aVAIRAVATA-405
p2447
aVAIRAVATA-404
p2448
aVAIRAVATA-403
p2449
aVAIRAVATA-402
p2450
aVAIRAVATA-401
p2451
aVAIRAVATA-400
p2452
aVAIRAVATA-399
p2453
aVAIRAVATA-398
p2454
aVAIRAVATA-397
p2455
aVAIRAVATA-396
p2456
aVAIRAVATA-395
p2457
aVAIRAVATA-394
p2458
aVAIRAVATA-393
p2459
aVAIRAVATA-392
p2460
aVAIRAVATA-391
p2461
aVAIRAVATA-390
p2462
aVAIRAVATA-389
p2463
aVAIRAVATA-388
p2464
aVAIRAVATA-387
p2465
aVAIRAVATA-386
p2466
aVAIRAVATA-385
p2467
aVAIRAVATA-384
p2468
aVAIRAVATA-383
p2469
aVAIRAVATA-382
p2470
aVAIRAVATA-381
p2471
aVAIRAVATA-380
p2472
aVAIRAVATA-379
p2473
aVAIRAVATA-378
p2474
aVAIRAVATA-377
p2475
aVAIRAVATA-376
p2476
aVAIRAVATA-375
p2477
aVAIRAVATA-374
p2478
aVAIRAVATA-373
p2479
aVAIRAVATA-372
p2480
aVAIRAVATA-371
p2481
aVAIRAVATA-370
p2482
aVAIRAVATA-369
p2483
aVAIRAVATA-368
p2484
aVAIRAVATA-367
p2485
aVAIRAVATA-366
p2486
aVAIRAVATA-365
p2487
aVAIRAVATA-364
p2488
aVAIRAVATA-363
p2489
aVAIRAVATA-362
p2490
aVAIRAVATA-361
p2491
aVAIRAVATA-360
p2492
aVAIRAVATA-359
p2493
aVAIRAVATA-358
p2494
aVAIRAVATA-357
p2495
aVAIRAVATA-356
p2496
aVAIRAVATA-355
p2497
aVAIRAVATA-354
p2498
aVAIRAVATA-353
p2499
aVAIRAVATA-352
p2500
aVAIRAVATA-351
p2501
aVAIRAVATA-350
p2502
aVAIRAVATA-349
p2503
aVAIRAVATA-348
p2504
aVAIRAVATA-347
p2505
aVAIRAVATA-346
p2506
aVAIRAVATA-345
p2507
aVAIRAVATA-344
p2508
aVAIRAVATA-343
p2509
aVAIRAVATA-342
p2510
aVAIRAVATA-341
p2511
aVAIRAVATA-340
p2512
aVAIRAVATA-339
p2513
aVAIRAVATA-338
p2514
aVAIRAVATA-337
p2515
aVAIRAVATA-336
p2516
aVAIRAVATA-335
p2517
aVAIRAVATA-334
p2518
aVAIRAVATA-333
p2519
aVAIRAVATA-332
p2520
aVAIRAVATA-331
p2521
aVAIRAVATA-330
p2522
aVAIRAVATA-329
p2523
aVAIRAVATA-328
p2524
aVAIRAVATA-327
p2525
aVAIRAVATA-326
p2526
aVAIRAVATA-325
p2527
aVAIRAVATA-324
p2528
aVAIRAVATA-323
p2529
aVAIRAVATA-322
p2530
aVAIRAVATA-321
p2531
aVAIRAVATA-320
p2532
aVAIRAVATA-319
p2533
aVAIRAVATA-318
p2534
aVAIRAVATA-317
p2535
aVAIRAVATA-316
p2536
aVAIRAVATA-315
p2537
aVAIRAVATA-314
p2538
aVAIRAVATA-313
p2539
aVAIRAVATA-312
p2540
aVAIRAVATA-311
p2541
aVAIRAVATA-310
p2542
aVAIRAVATA-309
p2543
aVAIRAVATA-308
p2544
aVAIRAVATA-307
p2545
aVAIRAVATA-306
p2546
aVAIRAVATA-305
p2547
aVAIRAVATA-304
p2548
aVAIRAVATA-303
p2549
aVAIRAVATA-302
p2550
aVAIRAVATA-301
p2551
aVAIRAVATA-300
p2552
aVAIRAVATA-299
p2553
aVAIRAVATA-298
p2554
aVAIRAVATA-297
p2555
aVAIRAVATA-296
p2556
aVAIRAVATA-295
p2557
aVAIRAVATA-294
p2558
aVAIRAVATA-293
p2559
aVAIRAVATA-292
p2560
aVAIRAVATA-291
p2561
aVAIRAVATA-290
p2562
aVAIRAVATA-289
p2563
aVAIRAVATA-288
p2564
aVAIRAVATA-287
p2565
aVAIRAVATA-286
p2566
aVAIRAVATA-285
p2567
aVAIRAVATA-284
p2568
aVAIRAVATA-283
p2569
aVAIRAVATA-282
p2570
aVAIRAVATA-281
p2571
aVAIRAVATA-280
p2572
aVAIRAVATA-279
p2573
aVAIRAVATA-278
p2574
aVAIRAVATA-277
p2575
aVAIRAVATA-276
p2576
aVAIRAVATA-275
p2577
aVAIRAVATA-274
p2578
aVAIRAVATA-273
p2579
aVAIRAVATA-272
p2580
aVAIRAVATA-271
p2581
aVAIRAVATA-270
p2582
aVAIRAVATA-269
p2583
aVAIRAVATA-268
p2584
aVAIRAVATA-267
p2585
aVAIRAVATA-266
p2586
aVAIRAVATA-265
p2587
aVAIRAVATA-264
p2588
aVAIRAVATA-263
p2589
aVAIRAVATA-262
p2590
aVAIRAVATA-261
p2591
aVAIRAVATA-260
p2592
aVAIRAVATA-259
p2593
aVAIRAVATA-258
p2594
aVAIRAVATA-257
p2595
aVAIRAVATA-256
p2596
aVAIRAVATA-255
p2597
aVAIRAVATA-254
p2598
aVAIRAVATA-253
p2599
aVAIRAVATA-252
p2600
aVAIRAVATA-251
p2601
aVAIRAVATA-250
p2602
aVAIRAVATA-249
p2603
aVAIRAVATA-248
p2604
aVAIRAVATA-247
p2605
aVAIRAVATA-246
p2606
aVAIRAVATA-245
p2607
aVAIRAVATA-244
p2608
aVAIRAVATA-243
p2609
aVAIRAVATA-242
p2610
aVAIRAVATA-241
p2611
aVAIRAVATA-240
p2612
aVAIRAVATA-239
p2613
aVAIRAVATA-238
p2614
aVAIRAVATA-237
p2615
aVAIRAVATA-236
p2616
aVAIRAVATA-235
p2617
aVAIRAVATA-234
p2618
aVAIRAVATA-233
p2619
aVAIRAVATA-232
p2620
aVAIRAVATA-231
p2621
aVAIRAVATA-230
p2622
aVAIRAVATA-229
p2623
aVAIRAVATA-228
p2624
aVAIRAVATA-227
p2625
aVAIRAVATA-226
p2626
aVAIRAVATA-225
p2627
aVAIRAVATA-224
p2628
aVAIRAVATA-223
p2629
aVAIRAVATA-222
p2630
aVAIRAVATA-221
p2631
aVAIRAVATA-220
p2632
aVAIRAVATA-219
p2633
aVAIRAVATA-218
p2634
aVAIRAVATA-217
p2635
aVAIRAVATA-216
p2636
aVAIRAVATA-215
p2637
aVAIRAVATA-214
p2638
aVAIRAVATA-213
p2639
aVAIRAVATA-212
p2640
aVAIRAVATA-211
p2641
aVAIRAVATA-210
p2642
aVAIRAVATA-209
p2643
aVAIRAVATA-208
p2644
aVAIRAVATA-207
p2645
aVAIRAVATA-206
p2646
aVAIRAVATA-205
p2647
aVAIRAVATA-204
p2648
aVAIRAVATA-203
p2649
aVAIRAVATA-202
p2650
aVAIRAVATA-201
p2651
aVAIRAVATA-200
p2652
aVAIRAVATA-199
p2653
aVAIRAVATA-198
p2654
aVAIRAVATA-197
p2655
aVAIRAVATA-196
p2656
aVAIRAVATA-195
p2657
aVAIRAVATA-194
p2658
aVAIRAVATA-193
p2659
aVAIRAVATA-192
p2660
aVAIRAVATA-191
p2661
aVAIRAVATA-190
p2662
aVAIRAVATA-189
p2663
aVAIRAVATA-188
p2664
aVAIRAVATA-187
p2665
aVAIRAVATA-186
p2666
aVAIRAVATA-185
p2667
aVAIRAVATA-184
p2668
aVAIRAVATA-183
p2669
aVAIRAVATA-182
p2670
aVAIRAVATA-181
p2671
aVAIRAVATA-180
p2672
aVAIRAVATA-179
p2673
aVAIRAVATA-178
p2674
aVAIRAVATA-177
p2675
aVAIRAVATA-176
p2676
aVAIRAVATA-175
p2677
aVAIRAVATA-174
p2678
aVAIRAVATA-173
p2679
aVAIRAVATA-172
p2680
aVAIRAVATA-171
p2681
aVAIRAVATA-170
p2682
aVAIRAVATA-169
p2683
aVAIRAVATA-168
p2684
aVAIRAVATA-167
p2685
aVAIRAVATA-166
p2686
aVAIRAVATA-165
p2687
aVAIRAVATA-164
p2688
aVAIRAVATA-163
p2689
aVAIRAVATA-162
p2690
aVAIRAVATA-161
p2691
aVAIRAVATA-160
p2692
aVAIRAVATA-159
p2693
aVAIRAVATA-158
p2694
aVAIRAVATA-157
p2695
aVAIRAVATA-156
p2696
aVAIRAVATA-155
p2697
aVAIRAVATA-154
p2698
aVAIRAVATA-153
p2699
aVAIRAVATA-152
p2700
aVAIRAVATA-151
p2701
aVAIRAVATA-150
p2702
aVAIRAVATA-149
p2703
aVAIRAVATA-148
p2704
aVAIRAVATA-147
p2705
aVAIRAVATA-146
p2706
aVAIRAVATA-145
p2707
aVAIRAVATA-144
p2708
aVAIRAVATA-143
p2709
aVAIRAVATA-142
p2710
aVAIRAVATA-141
p2711
aVAIRAVATA-140
p2712
aVAIRAVATA-139
p2713
aVAIRAVATA-138
p2714
aVAIRAVATA-137
p2715
aVAIRAVATA-136
p2716
aVAIRAVATA-135
p2717
aVAIRAVATA-134
p2718
aVAIRAVATA-133
p2719
aVAIRAVATA-132
p2720
aVAIRAVATA-131
p2721
aVAIRAVATA-130
p2722
aVAIRAVATA-129
p2723
aVAIRAVATA-128
p2724
aVAIRAVATA-127
p2725
aVAIRAVATA-126
p2726
aVAIRAVATA-125
p2727
aVAIRAVATA-124
p2728
aVAIRAVATA-123
p2729
aVAIRAVATA-122
p2730
aVAIRAVATA-121
p2731
aVAIRAVATA-120
p2732
aVAIRAVATA-119
p2733
aVAIRAVATA-118
p2734
aVAIRAVATA-117
p2735
aVAIRAVATA-116
p2736
aVAIRAVATA-115
p2737
aVAIRAVATA-114
p2738
aVAIRAVATA-113
p2739
aVAIRAVATA-112
p2740
aVAIRAVATA-111
p2741
aVAIRAVATA-110
p2742
aVAIRAVATA-109
p2743
aVAIRAVATA-108
p2744
aVAIRAVATA-107
p2745
aVAIRAVATA-106
p2746
aVAIRAVATA-105
p2747
aVAIRAVATA-104
p2748
aVAIRAVATA-103
p2749
aVAIRAVATA-102
p2750
aVAIRAVATA-101
p2751
aVAIRAVATA-100
p2752
aVAIRAVATA-99
p2753
aVAIRAVATA-98
p2754
aVAIRAVATA-97
p2755
aVAIRAVATA-96
p2756
aVAIRAVATA-95
p2757
aVAIRAVATA-94
p2758
aVAIRAVATA-93
p2759
aVAIRAVATA-92
p2760
aVAIRAVATA-91
p2761
aVAIRAVATA-90
p2762
aVAIRAVATA-89
p2763
aVAIRAVATA-88
p2764
aVAIRAVATA-87
p2765
aVAIRAVATA-86
p2766
aVAIRAVATA-85
p2767
aVAIRAVATA-84
p2768
aVAIRAVATA-83
p2769
aVAIRAVATA-82
p2770
aVAIRAVATA-81
p2771
aVAIRAVATA-80
p2772
aVAIRAVATA-79
p2773
aVAIRAVATA-78
p2774
aVAIRAVATA-77
p2775
aVAIRAVATA-76
p2776
aVAIRAVATA-75
p2777
aVAIRAVATA-74
p2778
aVAIRAVATA-73
p2779
aVAIRAVATA-72
p2780
aVAIRAVATA-71
p2781
aVAIRAVATA-70
p2782
aVAIRAVATA-69
p2783
aVAIRAVATA-68
p2784
aVAIRAVATA-67
p2785
aVAIRAVATA-66
p2786
aVAIRAVATA-65
p2787
aVAIRAVATA-64
p2788
aVAIRAVATA-63
p2789
aVAIRAVATA-62
p2790
aVAIRAVATA-61
p2791
aVAIRAVATA-60
p2792
aVAIRAVATA-59
p2793
aVAIRAVATA-58
p2794
aVAIRAVATA-57
p2795
aVAIRAVATA-56
p2796
aVAIRAVATA-55
p2797
aVAIRAVATA-54
p2798
aVAIRAVATA-53
p2799
aVAIRAVATA-52
p2800
aVAIRAVATA-51
p2801
aVAIRAVATA-50
p2802
aVAIRAVATA-49
p2803
aVAIRAVATA-48
p2804
aVAIRAVATA-47
p2805
aVAIRAVATA-46
p2806
aVAIRAVATA-45
p2807
aVAIRAVATA-44
p2808
aVAIRAVATA-43
p2809
aVAIRAVATA-42
p2810
aVAIRAVATA-41
p2811
aVAIRAVATA-40
p2812
aVAIRAVATA-39
p2813
aVAIRAVATA-38
p2814
aVAIRAVATA-37
p2815
aVAIRAVATA-36
p2816
aVAIRAVATA-35
p2817
aVAIRAVATA-34
p2818
aVAIRAVATA-33
p2819
aVAIRAVATA-32
p2820
aVAIRAVATA-31
p2821
aVAIRAVATA-30
p2822
aVAIRAVATA-29
p2823
aVAIRAVATA-28
p2824
aVAIRAVATA-27
p2825
aVAIRAVATA-26
p2826
aVAIRAVATA-25
p2827
aVAIRAVATA-24
p2828
aVAIRAVATA-23
p2829
aVAIRAVATA-22
p2830
aVAIRAVATA-21
p2831
aVAIRAVATA-20
p2832
aVAIRAVATA-19
p2833
aVAIRAVATA-18
p2834
aVAIRAVATA-17
p2835
aVAIRAVATA-16
p2836
aVAIRAVATA-15
p2837
aVAIRAVATA-14
p2838
aVAIRAVATA-13
p2839
aVAIRAVATA-12
p2840
aVAIRAVATA-11
p2841
aVAIRAVATA-10
p2842
aVAIRAVATA-9
p2843
aVAIRAVATA-8
p2844
aVAIRAVATA-7
p2845
aVAIRAVATA-6
p2846
aVAIRAVATA-5
p2847
aVAIRAVATA-4
p2848
aVAIRAVATA-3
p2849
aVAIRAVATA-2
p2850
aVAIRAVATA-1
p2851
a.