(lp0
VAMQ-7030
p1
aVAMQ-7029
p2
aVAMQ-7028
p3
aVAMQ-7027
p4
aVAMQ-7026
p5
aVAMQ-7025
p6
aVAMQ-7024
p7
aVAMQ-7023
p8
aVAMQ-7022
p9
aVAMQ-7021
p10
aVAMQ-7020
p11
aVAMQ-7019
p12
aVAMQ-7018
p13
aVAMQ-7017
p14
aVAMQ-7016
p15
aVAMQ-7015
p16
aVAMQ-7014
p17
aVAMQ-7013
p18
aVAMQ-7012
p19
aVAMQ-7011
p20
aVAMQ-7010
p21
aVAMQ-7009
p22
aVAMQ-7008
p23
aVAMQ-7007
p24
aVAMQ-7006
p25
aVAMQ-7005
p26
aVAMQ-7004
p27
aVAMQ-7003
p28
aVAMQ-7002
p29
aVAMQ-7001
p30
aVAMQ-7000
p31
aVAMQ-6999
p32
aVAMQ-6998
p33
aVAMQ-6997
p34
aVAMQ-6996
p35
aVAMQ-6995
p36
aVAMQ-6994
p37
aVAMQ-6993
p38
aVAMQ-6992
p39
aVAMQ-6991
p40
aVAMQ-6990
p41
aVAMQ-6989
p42
aVAMQ-6988
p43
aVAMQ-6987
p44
aVAMQ-6986
p45
aVAMQ-6985
p46
aVAMQ-6984
p47
aVAMQ-6983
p48
aVAMQ-6982
p49
aVAMQ-6981
p50
aVAMQ-6980
p51
aVAMQ-6979
p52
aVAMQ-6978
p53
aVAMQ-6977
p54
aVAMQ-6976
p55
aVAMQ-6975
p56
aVAMQ-6974
p57
aVAMQ-6973
p58
aVAMQ-6972
p59
aVAMQ-6971
p60
aVAMQ-6970
p61
aVAMQ-6969
p62
aVAMQ-6968
p63
aVAMQ-6967
p64
aVAMQ-6966
p65
aVAMQ-6965
p66
aVAMQ-6964
p67
aVAMQ-6963
p68
aVAMQ-6962
p69
aVAMQ-6961
p70
aVAMQ-6960
p71
aVAMQ-6959
p72
aVAMQ-6958
p73
aVAMQ-6957
p74
aVAMQ-6956
p75
aVAMQ-6954
p76
aVAMQ-6953
p77
aVAMQ-6952
p78
aVAMQ-6951
p79
aVAMQ-6950
p80
aVAMQ-6949
p81
aVAMQ-6948
p82
aVAMQ-6947
p83
aVAMQ-6946
p84
aVAMQ-6945
p85
aVAMQ-6944
p86
aVAMQ-6943
p87
aVAMQ-6942
p88
aVAMQ-6941
p89
aVAMQ-6940
p90
aVAMQ-6939
p91
aVAMQ-6938
p92
aVAMQ-6937
p93
aVAMQ-6936
p94
aVAMQ-6935
p95
aVAMQ-6934
p96
aVAMQ-6933
p97
aVAMQ-6931
p98
aVAMQ-6930
p99
aVAMQ-6929
p100
aVAMQ-6928
p101
aVAMQ-6927
p102
aVAMQ-6926
p103
aVAMQ-6925
p104
aVAMQ-6924
p105
aVAMQ-6923
p106
aVAMQ-6922
p107
aVAMQ-6921
p108
aVAMQ-6920
p109
aVAMQ-6919
p110
aVAMQ-6918
p111
aVAMQ-6917
p112
aVAMQ-6916
p113
aVAMQ-6915
p114
aVAMQ-6914
p115
aVAMQ-6913
p116
aVAMQ-6912
p117
aVAMQ-6911
p118
aVAMQ-6910
p119
aVAMQ-6909
p120
aVAMQ-6908
p121
aVAMQ-6907
p122
aVAMQ-6906
p123
aVAMQ-6905
p124
aVAMQ-6904
p125
aVAMQ-6903
p126
aVAMQ-6902
p127
aVAMQ-6901
p128
aVAMQ-6900
p129
aVAMQ-6899
p130
aVAMQ-6898
p131
aVAMQ-6897
p132
aVAMQ-6896
p133
aVAMQ-6895
p134
aVAMQ-6894
p135
aVAMQ-6893
p136
aVAMQ-6892
p137
aVAMQ-6891
p138
aVAMQ-6890
p139
aVAMQ-6889
p140
aVAMQ-6888
p141
aVAMQ-6887
p142
aVAMQ-6886
p143
aVAMQ-6885
p144
aVAMQ-6884
p145
aVAMQ-6883
p146
aVAMQ-6882
p147
aVAMQ-6881
p148
aVAMQ-6880
p149
aVAMQ-6879
p150
aVAMQ-6878
p151
aVAMQ-6877
p152
aVAMQ-6876
p153
aVAMQ-6875
p154
aVAMQ-6874
p155
aVAMQ-6873
p156
aVAMQ-6872
p157
aVAMQ-6871
p158
aVAMQ-6870
p159
aVAMQ-6869
p160
aVAMQ-6868
p161
aVAMQ-6867
p162
aVAMQ-6866
p163
aVAMQ-6865
p164
aVAMQ-6864
p165
aVAMQ-6863
p166
aVAMQ-6862
p167
aVAMQ-6861
p168
aVAMQ-6860
p169
aVAMQ-6859
p170
aVAMQ-6858
p171
aVAMQ-6857
p172
aVAMQ-6856
p173
aVAMQ-6855
p174
aVAMQ-6854
p175
aVAMQ-6853
p176
aVAMQ-6852
p177
aVAMQ-6851
p178
aVAMQ-6850
p179
aVAMQ-6849
p180
aVAMQ-6848
p181
aVAMQ-6847
p182
aVAMQ-6846
p183
aVAMQ-6844
p184
aVAMQ-6843
p185
aVAMQ-6842
p186
aVAMQ-6841
p187
aVAMQ-6840
p188
aVAMQ-6839
p189
aVAMQ-6838
p190
aVAMQ-6837
p191
aVAMQ-6836
p192
aVAMQ-6835
p193
aVAMQ-6834
p194
aVAMQ-6833
p195
aVAMQ-6832
p196
aVAMQ-6831
p197
aVAMQ-6830
p198
aVAMQ-6829
p199
aVAMQ-6828
p200
aVAMQ-6826
p201
aVAMQ-6825
p202
aVAMQ-6824
p203
aVAMQ-6823
p204
aVAMQ-6822
p205
aVAMQ-6821
p206
aVAMQ-6820
p207
aVAMQ-6819
p208
aVAMQ-6818
p209
aVAMQ-6817
p210
aVAMQ-6816
p211
aVAMQ-6815
p212
aVAMQ-6814
p213
aVAMQ-6813
p214
aVAMQ-6812
p215
aVAMQ-6811
p216
aVAMQ-6810
p217
aVAMQ-6809
p218
aVAMQ-6808
p219
aVAMQ-6807
p220
aVAMQ-6806
p221
aVAMQ-6805
p222
aVAMQ-6804
p223
aVAMQ-6803
p224
aVAMQ-6802
p225
aVAMQ-6801
p226
aVAMQ-6800
p227
aVAMQ-6799
p228
aVAMQ-6798
p229
aVAMQ-6797
p230
aVAMQ-6796
p231
aVAMQ-6795
p232
aVAMQ-6794
p233
aVAMQ-6793
p234
aVAMQ-6792
p235
aVAMQ-6791
p236
aVAMQ-6790
p237
aVAMQ-6789
p238
aVAMQ-6788
p239
aVAMQ-6787
p240
aVAMQ-6786
p241
aVAMQ-6785
p242
aVAMQ-6784
p243
aVAMQ-6783
p244
aVAMQ-6782
p245
aVAMQ-6781
p246
aVAMQ-6780
p247
aVAMQ-6779
p248
aVAMQ-6778
p249
aVAMQ-6777
p250
aVAMQ-6776
p251
aVAMQ-6775
p252
aVAMQ-6774
p253
aVAMQ-6773
p254
aVAMQ-6772
p255
aVAMQ-6771
p256
aVAMQ-6770
p257
aVAMQ-6769
p258
aVAMQ-6768
p259
aVAMQ-6767
p260
aVAMQ-6766
p261
aVAMQ-6765
p262
aVAMQ-6764
p263
aVAMQ-6763
p264
aVAMQ-6762
p265
aVAMQ-6713
p266
aVAMQ-6712
p267
aVAMQ-6711
p268
aVAMQ-6710
p269
aVAMQ-6709
p270
aVAMQ-6708
p271
aVAMQ-6707
p272
aVAMQ-6706
p273
aVAMQ-6705
p274
aVAMQ-6704
p275
aVAMQ-6703
p276
aVAMQ-6702
p277
aVAMQ-6701
p278
aVAMQ-6700
p279
aVAMQ-6699
p280
aVAMQ-6698
p281
aVAMQ-6697
p282
aVAMQ-6696
p283
aVAMQ-6695
p284
aVAMQ-6694
p285
aVAMQ-6693
p286
aVAMQ-6692
p287
aVAMQ-6691
p288
aVAMQ-6690
p289
aVAMQ-6689
p290
aVAMQ-6688
p291
aVAMQ-6687
p292
aVAMQ-6686
p293
aVAMQ-6685
p294
aVAMQ-6684
p295
aVAMQ-6683
p296
aVAMQ-6682
p297
aVAMQ-6681
p298
aVAMQ-6680
p299
aVAMQ-6679
p300
aVAMQ-6678
p301
aVAMQ-6677
p302
aVAMQ-6676
p303
aVAMQ-6675
p304
aVAMQ-6674
p305
aVAMQ-6673
p306
aVAMQ-6672
p307
aVAMQ-6671
p308
aVAMQ-6670
p309
aVAMQ-6669
p310
aVAMQ-6668
p311
aVAMQ-6667
p312
aVAMQ-6666
p313
aVAMQ-6665
p314
aVAMQ-6664
p315
aVAMQ-6663
p316
aVAMQ-6662
p317
aVAMQ-6661
p318
aVAMQ-6660
p319
aVAMQ-6659
p320
aVAMQ-6658
p321
aVAMQ-6657
p322
aVAMQ-6656
p323
aVAMQ-6655
p324
aVAMQ-6654
p325
aVAMQ-6653
p326
aVAMQ-6652
p327
aVAMQ-6651
p328
aVAMQ-6650
p329
aVAMQ-6649
p330
aVAMQ-6648
p331
aVAMQ-6647
p332
aVAMQ-6646
p333
aVAMQ-6645
p334
aVAMQ-6644
p335
aVAMQ-6643
p336
aVAMQ-6642
p337
aVAMQ-6641
p338
aVAMQ-6640
p339
aVAMQ-6639
p340
aVAMQ-6638
p341
aVAMQ-6637
p342
aVAMQ-6636
p343
aVAMQ-6635
p344
aVAMQ-6634
p345
aVAMQ-6632
p346
aVAMQ-6631
p347
aVAMQ-6630
p348
aVAMQ-6629
p349
aVAMQ-6628
p350
aVAMQ-6627
p351
aVAMQ-6626
p352
aVAMQ-6625
p353
aVAMQ-6624
p354
aVAMQ-6623
p355
aVAMQ-6622
p356
aVAMQ-6621
p357
aVAMQ-6620
p358
aVAMQ-6619
p359
aVAMQ-6618
p360
aVAMQ-6617
p361
aVAMQ-6615
p362
aVAMQ-6614
p363
aVAMQ-6613
p364
aVAMQ-6612
p365
aVAMQ-6611
p366
aVAMQ-6610
p367
aVAMQ-6609
p368
aVAMQ-6608
p369
aVAMQ-6607
p370
aVAMQ-6606
p371
aVAMQ-6605
p372
aVAMQ-6604
p373
aVAMQ-6603
p374
aVAMQ-6602
p375
aVAMQ-6601
p376
aVAMQ-6600
p377
aVAMQ-6599
p378
aVAMQ-6598
p379
aVAMQ-6597
p380
aVAMQ-6596
p381
aVAMQ-6595
p382
aVAMQ-6594
p383
aVAMQ-6593
p384
aVAMQ-6592
p385
aVAMQ-6591
p386
aVAMQ-6590
p387
aVAMQ-6589
p388
aVAMQ-6588
p389
aVAMQ-6587
p390
aVAMQ-6586
p391
aVAMQ-6585
p392
aVAMQ-6584
p393
aVAMQ-6583
p394
aVAMQ-6582
p395
aVAMQ-6581
p396
aVAMQ-6580
p397
aVAMQ-6579
p398
aVAMQ-6577
p399
aVAMQ-6576
p400
aVAMQ-6575
p401
aVAMQ-6574
p402
aVAMQ-6573
p403
aVAMQ-6572
p404
aVAMQ-6571
p405
aVAMQ-6570
p406
aVAMQ-6569
p407
aVAMQ-6568
p408
aVAMQ-6567
p409
aVAMQ-6564
p410
aVAMQ-6563
p411
aVAMQ-6562
p412
aVAMQ-6561
p413
aVAMQ-6560
p414
aVAMQ-6559
p415
aVAMQ-6558
p416
aVAMQ-6557
p417
aVAMQ-6556
p418
aVAMQ-6555
p419
aVAMQ-6554
p420
aVAMQ-6553
p421
aVAMQ-6552
p422
aVAMQ-6551
p423
aVAMQ-6550
p424
aVAMQ-6549
p425
aVAMQ-6548
p426
aVAMQ-6547
p427
aVAMQ-6546
p428
aVAMQ-6545
p429
aVAMQ-6544
p430
aVAMQ-6543
p431
aVAMQ-6542
p432
aVAMQ-6541
p433
aVAMQ-6540
p434
aVAMQ-6539
p435
aVAMQ-6538
p436
aVAMQ-6537
p437
aVAMQ-6536
p438
aVAMQ-6535
p439
aVAMQ-6534
p440
aVAMQ-6533
p441
aVAMQ-6532
p442
aVAMQ-6531
p443
aVAMQ-6530
p444
aVAMQ-6529
p445
aVAMQ-6528
p446
aVAMQ-6527
p447
aVAMQ-6526
p448
aVAMQ-6525
p449
aVAMQ-6524
p450
aVAMQ-6523
p451
aVAMQ-6522
p452
aVAMQ-6521
p453
aVAMQ-6520
p454
aVAMQ-6519
p455
aVAMQ-6518
p456
aVAMQ-6517
p457
aVAMQ-6516
p458
aVAMQ-6515
p459
aVAMQ-6514
p460
aVAMQ-6513
p461
aVAMQ-6512
p462
aVAMQ-6511
p463
aVAMQ-6510
p464
aVAMQ-6509
p465
aVAMQ-6508
p466
aVAMQ-6507
p467
aVAMQ-6506
p468
aVAMQ-6505
p469
aVAMQ-6504
p470
aVAMQ-6503
p471
aVAMQ-6502
p472
aVAMQ-6501
p473
aVAMQ-6500
p474
aVAMQ-6499
p475
aVAMQ-6498
p476
aVAMQ-6497
p477
aVAMQ-6496
p478
aVAMQ-6495
p479
aVAMQ-6494
p480
aVAMQ-6493
p481
aVAMQ-6492
p482
aVAMQ-6491
p483
aVAMQ-6490
p484
aVAMQ-6489
p485
aVAMQ-6488
p486
aVAMQ-6487
p487
aVAMQ-6486
p488
aVAMQ-6485
p489
aVAMQ-6484
p490
aVAMQ-6483
p491
aVAMQ-6482
p492
aVAMQ-6481
p493
aVAMQ-6480
p494
aVAMQ-6479
p495
aVAMQ-6478
p496
aVAMQ-6477
p497
aVAMQ-6476
p498
aVAMQ-6475
p499
aVAMQ-6474
p500
aVAMQ-6473
p501
aVAMQ-6472
p502
aVAMQ-6471
p503
aVAMQ-6470
p504
aVAMQ-6469
p505
aVAMQ-6468
p506
aVAMQ-6467
p507
aVAMQ-6466
p508
aVAMQ-6465
p509
aVAMQ-6464
p510
aVAMQ-6463
p511
aVAMQ-6462
p512
aVAMQ-6461
p513
aVAMQ-6460
p514
aVAMQ-6459
p515
aVAMQ-6458
p516
aVAMQ-6457
p517
aVAMQ-6456
p518
aVAMQ-6454
p519
aVAMQ-6453
p520
aVAMQ-6452
p521
aVAMQ-6451
p522
aVAMQ-6450
p523
aVAMQ-6449
p524
aVAMQ-6448
p525
aVAMQ-6447
p526
aVAMQ-6446
p527
aVAMQ-6445
p528
aVAMQ-6444
p529
aVAMQ-6443
p530
aVAMQ-6442
p531
aVAMQ-6441
p532
aVAMQ-6440
p533
aVAMQ-6439
p534
aVAMQ-6438
p535
aVAMQ-6437
p536
aVAMQ-6436
p537
aVAMQ-6435
p538
aVAMQ-6434
p539
aVAMQ-6433
p540
aVAMQ-6432
p541
aVAMQ-6431
p542
aVAMQ-6430
p543
aVAMQ-6429
p544
aVAMQ-6428
p545
aVAMQ-6427
p546
aVAMQ-6426
p547
aVAMQ-6425
p548
aVAMQ-6424
p549
aVAMQ-6423
p550
aVAMQ-6422
p551
aVAMQ-6421
p552
aVAMQ-6420
p553
aVAMQ-6419
p554
aVAMQ-6418
p555
aVAMQ-6417
p556
aVAMQ-6416
p557
aVAMQ-6415
p558
aVAMQ-6414
p559
aVAMQ-6413
p560
aVAMQ-6412
p561
aVAMQ-6411
p562
aVAMQ-6410
p563
aVAMQ-6409
p564
aVAMQ-6408
p565
aVAMQ-6407
p566
aVAMQ-6406
p567
aVAMQ-6405
p568
aVAMQ-6404
p569
aVAMQ-6403
p570
aVAMQ-6402
p571
aVAMQ-6401
p572
aVAMQ-6400
p573
aVAMQ-6399
p574
aVAMQ-6398
p575
aVAMQ-6397
p576
aVAMQ-6396
p577
aVAMQ-6395
p578
aVAMQ-6394
p579
aVAMQ-6393
p580
aVAMQ-6392
p581
aVAMQ-6391
p582
aVAMQ-6390
p583
aVAMQ-6389
p584
aVAMQ-6388
p585
aVAMQ-6387
p586
aVAMQ-6386
p587
aVAMQ-6385
p588
aVAMQ-6384
p589
aVAMQ-6383
p590
aVAMQ-6382
p591
aVAMQ-6381
p592
aVAMQ-6380
p593
aVAMQ-6379
p594
aVAMQ-6378
p595
aVAMQ-6377
p596
aVAMQ-6376
p597
aVAMQ-6375
p598
aVAMQ-6374
p599
aVAMQ-6373
p600
aVAMQ-6372
p601
aVAMQ-6371
p602
aVAMQ-6370
p603
aVAMQ-6369
p604
aVAMQ-6368
p605
aVAMQ-6367
p606
aVAMQ-6366
p607
aVAMQ-6365
p608
aVAMQ-6364
p609
aVAMQ-6363
p610
aVAMQ-6362
p611
aVAMQ-6361
p612
aVAMQ-6360
p613
aVAMQ-6359
p614
aVAMQ-6358
p615
aVAMQ-6357
p616
aVAMQ-6356
p617
aVAMQ-6355
p618
aVAMQ-6354
p619
aVAMQ-6353
p620
aVAMQ-6352
p621
aVAMQ-6351
p622
aVAMQ-6350
p623
aVAMQ-6349
p624
aVAMQ-6348
p625
aVAMQ-6347
p626
aVAMQ-6346
p627
aVAMQ-6345
p628
aVAMQ-6344
p629
aVAMQ-6343
p630
aVAMQ-6341
p631
aVAMQ-6340
p632
aVAMQ-6339
p633
aVAMQ-6338
p634
aVAMQ-6337
p635
aVAMQ-6336
p636
aVAMQ-6335
p637
aVAMQ-6334
p638
aVAMQ-6333
p639
aVAMQ-6332
p640
aVAMQ-6331
p641
aVAMQ-6330
p642
aVAMQ-6329
p643
aVAMQ-6328
p644
aVAMQ-6327
p645
aVAMQ-6326
p646
aVAMQ-6325
p647
aVAMQ-6323
p648
aVAMQ-6322
p649
aVAMQ-6321
p650
aVAMQ-6320
p651
aVAMQ-6319
p652
aVAMQ-6318
p653
aVAMQ-6317
p654
aVAMQ-6316
p655
aVAMQ-6315
p656
aVAMQ-6314
p657
aVAMQ-6313
p658
aVAMQ-6312
p659
aVAMQ-6311
p660
aVAMQ-6310
p661
aVAMQ-6309
p662
aVAMQ-6308
p663
aVAMQ-6307
p664
aVAMQ-6306
p665
aVAMQ-6305
p666
aVAMQ-6304
p667
aVAMQ-6303
p668
aVAMQ-6302
p669
aVAMQ-6301
p670
aVAMQ-6300
p671
aVAMQ-6299
p672
aVAMQ-6298
p673
aVAMQ-6297
p674
aVAMQ-6296
p675
aVAMQ-6295
p676
aVAMQ-6293
p677
aVAMQ-6292
p678
aVAMQ-6291
p679
aVAMQ-6290
p680
aVAMQ-6288
p681
aVAMQ-6287
p682
aVAMQ-6286
p683
aVAMQ-6285
p684
aVAMQ-6283
p685
aVAMQ-6282
p686
aVAMQ-6281
p687
aVAMQ-6280
p688
aVAMQ-6279
p689
aVAMQ-6278
p690
aVAMQ-6277
p691
aVAMQ-6276
p692
aVAMQ-6275
p693
aVAMQ-6274
p694
aVAMQ-6273
p695
aVAMQ-6271
p696
aVAMQ-6268
p697
aVAMQ-6267
p698
aVAMQ-6266
p699
aVAMQ-6265
p700
aVAMQ-6264
p701
aVAMQ-6263
p702
aVAMQ-6262
p703
aVAMQ-6260
p704
aVAMQ-6259
p705
aVAMQ-6258
p706
aVAMQ-6257
p707
aVAMQ-6256
p708
aVAMQ-6255
p709
aVAMQ-6254
p710
aVAMQ-6253
p711
aVAMQ-6252
p712
aVAMQ-6251
p713
aVAMQ-6250
p714
aVAMQ-6249
p715
aVAMQ-6248
p716
aVAMQ-6247
p717
aVAMQ-6246
p718
aVAMQ-6245
p719
aVAMQ-6244
p720
aVAMQ-6243
p721
aVAMQ-6242
p722
aVAMQ-6241
p723
aVAMQ-6240
p724
aVAMQ-6239
p725
aVAMQ-6238
p726
aVAMQ-6237
p727
aVAMQ-6236
p728
aVAMQ-6235
p729
aVAMQ-6234
p730
aVAMQ-6233
p731
aVAMQ-6232
p732
aVAMQ-6231
p733
aVAMQ-6230
p734
aVAMQ-6229
p735
aVAMQ-6228
p736
aVAMQ-6227
p737
aVAMQ-6226
p738
aVAMQ-6225
p739
aVAMQ-6224
p740
aVAMQ-6223
p741
aVAMQ-6222
p742
aVAMQ-6221
p743
aVAMQ-6220
p744
aVAMQ-6219
p745
aVAMQ-6218
p746
aVAMQ-6217
p747
aVAMQ-6216
p748
aVAMQ-6215
p749
aVAMQ-6214
p750
aVAMQ-6213
p751
aVAMQ-6212
p752
aVAMQ-6211
p753
aVAMQ-6210
p754
aVAMQ-6209
p755
aVAMQ-6208
p756
aVAMQ-6207
p757
aVAMQ-6206
p758
aVAMQ-6205
p759
aVAMQ-6204
p760
aVAMQ-6203
p761
aVAMQ-6202
p762
aVAMQ-6201
p763
aVAMQ-6200
p764
aVAMQ-6199
p765
aVAMQ-6198
p766
aVAMQ-6197
p767
aVAMQ-6195
p768
aVAMQ-6194
p769
aVAMQ-6193
p770
aVAMQ-6192
p771
aVAMQ-6191
p772
aVAMQ-6190
p773
aVAMQ-6189
p774
aVAMQ-6188
p775
aVAMQ-6187
p776
aVAMQ-6186
p777
aVAMQ-6185
p778
aVAMQ-6184
p779
aVAMQ-6183
p780
aVAMQ-6182
p781
aVAMQ-6181
p782
aVAMQ-6180
p783
aVAMQ-6179
p784
aVAMQ-6178
p785
aVAMQ-6177
p786
aVAMQ-6176
p787
aVAMQ-6175
p788
aVAMQ-6174
p789
aVAMQ-6173
p790
aVAMQ-6172
p791
aVAMQ-6171
p792
aVAMQ-6170
p793
aVAMQ-6169
p794
aVAMQ-6168
p795
aVAMQ-6167
p796
aVAMQ-6166
p797
aVAMQ-6165
p798
aVAMQ-6164
p799
aVAMQ-6163
p800
aVAMQ-6162
p801
aVAMQ-6161
p802
aVAMQ-6160
p803
aVAMQ-6159
p804
aVAMQ-6158
p805
aVAMQ-6157
p806
aVAMQ-6156
p807
aVAMQ-6155
p808
aVAMQ-6154
p809
aVAMQ-6153
p810
aVAMQ-6152
p811
aVAMQ-6151
p812
aVAMQ-6150
p813
aVAMQ-6149
p814
aVAMQ-6148
p815
aVAMQ-6147
p816
aVAMQ-6146
p817
aVAMQ-6144
p818
aVAMQ-6143
p819
aVAMQ-6142
p820
aVAMQ-6141
p821
aVAMQ-6140
p822
aVAMQ-6139
p823
aVAMQ-6138
p824
aVAMQ-6137
p825
aVAMQ-6136
p826
aVAMQ-6135
p827
aVAMQ-6134
p828
aVAMQ-6133
p829
aVAMQ-6132
p830
aVAMQ-6131
p831
aVAMQ-6130
p832
aVAMQ-6129
p833
aVAMQ-6128
p834
aVAMQ-6127
p835
aVAMQ-6126
p836
aVAMQ-6125
p837
aVAMQ-6124
p838
aVAMQ-6123
p839
aVAMQ-6122
p840
aVAMQ-6121
p841
aVAMQ-6120
p842
aVAMQ-6119
p843
aVAMQ-6118
p844
aVAMQ-6117
p845
aVAMQ-6116
p846
aVAMQ-6115
p847
aVAMQ-6114
p848
aVAMQ-6113
p849
aVAMQ-6112
p850
aVAMQ-6111
p851
aVAMQ-6110
p852
aVAMQ-6109
p853
aVAMQ-6108
p854
aVAMQ-6107
p855
aVAMQ-6106
p856
aVAMQ-6105
p857
aVAMQ-6104
p858
aVAMQ-6103
p859
aVAMQ-6102
p860
aVAMQ-6101
p861
aVAMQ-6100
p862
aVAMQ-6099
p863
aVAMQ-6098
p864
aVAMQ-6097
p865
aVAMQ-6096
p866
aVAMQ-6095
p867
aVAMQ-6094
p868
aVAMQ-6093
p869
aVAMQ-6092
p870
aVAMQ-6091
p871
aVAMQ-6090
p872
aVAMQ-6089
p873
aVAMQ-6088
p874
aVAMQ-6087
p875
aVAMQ-6086
p876
aVAMQ-6085
p877
aVAMQ-6084
p878
aVAMQ-6083
p879
aVAMQ-6082
p880
aVAMQ-6081
p881
aVAMQ-6080
p882
aVAMQ-6079
p883
aVAMQ-6078
p884
aVAMQ-6077
p885
aVAMQ-6076
p886
aVAMQ-6075
p887
aVAMQ-6074
p888
aVAMQ-6073
p889
aVAMQ-6072
p890
aVAMQ-6071
p891
aVAMQ-6070
p892
aVAMQ-6069
p893
aVAMQ-6068
p894
aVAMQ-6067
p895
aVAMQ-6066
p896
aVAMQ-6065
p897
aVAMQ-6064
p898
aVAMQ-6063
p899
aVAMQ-6062
p900
aVAMQ-6061
p901
aVAMQ-6060
p902
aVAMQ-6059
p903
aVAMQ-6058
p904
aVAMQ-6057
p905
aVAMQ-6056
p906
aVAMQ-6055
p907
aVAMQ-6054
p908
aVAMQ-6053
p909
aVAMQ-6052
p910
aVAMQ-6051
p911
aVAMQ-6050
p912
aVAMQ-6049
p913
aVAMQ-6048
p914
aVAMQ-6047
p915
aVAMQ-6046
p916
aVAMQ-6045
p917
aVAMQ-6044
p918
aVAMQ-6043
p919
aVAMQ-6042
p920
aVAMQ-6041
p921
aVAMQ-6040
p922
aVAMQ-6039
p923
aVAMQ-6038
p924
aVAMQ-6037
p925
aVAMQ-6036
p926
aVAMQ-6035
p927
aVAMQ-6034
p928
aVAMQ-6033
p929
aVAMQ-6032
p930
aVAMQ-6031
p931
aVAMQ-6030
p932
aVAMQ-6029
p933
aVAMQ-6028
p934
aVAMQ-6027
p935
aVAMQ-6026
p936
aVAMQ-6025
p937
aVAMQ-6024
p938
aVAMQ-6023
p939
aVAMQ-6022
p940
aVAMQ-6021
p941
aVAMQ-6020
p942
aVAMQ-6019
p943
aVAMQ-6018
p944
aVAMQ-6017
p945
aVAMQ-6016
p946
aVAMQ-6015
p947
aVAMQ-6014
p948
aVAMQ-6013
p949
aVAMQ-6012
p950
aVAMQ-6011
p951
aVAMQ-6010
p952
aVAMQ-6009
p953
aVAMQ-6008
p954
aVAMQ-6007
p955
aVAMQ-6006
p956
aVAMQ-6005
p957
aVAMQ-6004
p958
aVAMQ-6003
p959
aVAMQ-6002
p960
aVAMQ-6001
p961
aVAMQ-6000
p962
aVAMQ-5999
p963
aVAMQ-5998
p964
aVAMQ-5997
p965
aVAMQ-5996
p966
aVAMQ-5995
p967
aVAMQ-5994
p968
aVAMQ-5993
p969
aVAMQ-5990
p970
aVAMQ-5984
p971
aVAMQ-5983
p972
aVAMQ-5982
p973
aVAMQ-5981
p974
aVAMQ-5980
p975
aVAMQ-5979
p976
aVAMQ-5978
p977
aVAMQ-5977
p978
aVAMQ-5976
p979
aVAMQ-5975
p980
aVAMQ-5974
p981
aVAMQ-5973
p982
aVAMQ-5972
p983
aVAMQ-5971
p984
aVAMQ-5970
p985
aVAMQ-5969
p986
aVAMQ-5968
p987
aVAMQ-5967
p988
aVAMQ-5966
p989
aVAMQ-5965
p990
aVAMQ-5964
p991
aVAMQ-5963
p992
aVAMQ-5962
p993
aVAMQ-5961
p994
aVAMQ-5960
p995
aVAMQ-5959
p996
aVAMQ-5958
p997
aVAMQ-5957
p998
aVAMQ-5956
p999
aVAMQ-5955
p1000
aVAMQ-5954
p1001
aVAMQ-5953
p1002
aVAMQ-5952
p1003
aVAMQ-5951
p1004
aVAMQ-5950
p1005
aVAMQ-5949
p1006
aVAMQ-5948
p1007
aVAMQ-5947
p1008
aVAMQ-5946
p1009
aVAMQ-5945
p1010
aVAMQ-5944
p1011
aVAMQ-5943
p1012
aVAMQ-5942
p1013
aVAMQ-5941
p1014
aVAMQ-5940
p1015
aVAMQ-5939
p1016
aVAMQ-5938
p1017
aVAMQ-5937
p1018
aVAMQ-5936
p1019
aVAMQ-5935
p1020
aVAMQ-5934
p1021
aVAMQ-5933
p1022
aVAMQ-5932
p1023
aVAMQ-5931
p1024
aVAMQ-5930
p1025
aVAMQ-5929
p1026
aVAMQ-5928
p1027
aVAMQ-5927
p1028
aVAMQ-5926
p1029
aVAMQ-5925
p1030
aVAMQ-5924
p1031
aVAMQ-5923
p1032
aVAMQ-5922
p1033
aVAMQ-5921
p1034
aVAMQ-5920
p1035
aVAMQ-5919
p1036
aVAMQ-5918
p1037
aVAMQ-5917
p1038
aVAMQ-5916
p1039
aVAMQ-5915
p1040
aVAMQ-5914
p1041
aVAMQ-5913
p1042
aVAMQ-5912
p1043
aVAMQ-5911
p1044
aVAMQ-5910
p1045
aVAMQ-5909
p1046
aVAMQ-5908
p1047
aVAMQ-5907
p1048
aVAMQ-5906
p1049
aVAMQ-5905
p1050
aVAMQ-5904
p1051
aVAMQ-5903
p1052
aVAMQ-5902
p1053
aVAMQ-5901
p1054
aVAMQ-5900
p1055
aVAMQ-5899
p1056
aVAMQ-5898
p1057
aVAMQ-5897
p1058
aVAMQ-5896
p1059
aVAMQ-5895
p1060
aVAMQ-5894
p1061
aVAMQ-5893
p1062
aVAMQ-5892
p1063
aVAMQ-5891
p1064
aVAMQ-5890
p1065
aVAMQ-5889
p1066
aVAMQ-5888
p1067
aVAMQ-5887
p1068
aVAMQ-5886
p1069
aVAMQ-5885
p1070
aVAMQ-5884
p1071
aVAMQ-5883
p1072
aVAMQ-5882
p1073
aVAMQ-5881
p1074
aVAMQ-5880
p1075
aVAMQ-5879
p1076
aVAMQ-5878
p1077
aVAMQ-5877
p1078
aVAMQ-5876
p1079
aVAMQ-5875
p1080
aVAMQ-5874
p1081
aVAMQ-5873
p1082
aVAMQ-5872
p1083
aVAMQ-5871
p1084
aVAMQ-5870
p1085
aVAMQ-5869
p1086
aVAMQ-5868
p1087
aVAMQ-5867
p1088
aVAMQ-5866
p1089
aVAMQ-5865
p1090
aVAMQ-5864
p1091
aVAMQ-5863
p1092
aVAMQ-5862
p1093
aVAMQ-5861
p1094
aVAMQ-5860
p1095
aVAMQ-5859
p1096
aVAMQ-5858
p1097
aVAMQ-5857
p1098
aVAMQ-5856
p1099
aVAMQ-5855
p1100
aVAMQ-5854
p1101
aVAMQ-5853
p1102
aVAMQ-5852
p1103
aVAMQ-5851
p1104
aVAMQ-5850
p1105
aVAMQ-5849
p1106
aVAMQ-5848
p1107
aVAMQ-5847
p1108
aVAMQ-5846
p1109
aVAMQ-5845
p1110
aVAMQ-5844
p1111
aVAMQ-5843
p1112
aVAMQ-5842
p1113
aVAMQ-5841
p1114
aVAMQ-5840
p1115
aVAMQ-5839
p1116
aVAMQ-5838
p1117
aVAMQ-5837
p1118
aVAMQ-5836
p1119
aVAMQ-5835
p1120
aVAMQ-5834
p1121
aVAMQ-5833
p1122
aVAMQ-5831
p1123
aVAMQ-5830
p1124
aVAMQ-5829
p1125
aVAMQ-5828
p1126
aVAMQ-5827
p1127
aVAMQ-5826
p1128
aVAMQ-5825
p1129
aVAMQ-5824
p1130
aVAMQ-5823
p1131
aVAMQ-5822
p1132
aVAMQ-5821
p1133
aVAMQ-5820
p1134
aVAMQ-5819
p1135
aVAMQ-5818
p1136
aVAMQ-5817
p1137
aVAMQ-5816
p1138
aVAMQ-5815
p1139
aVAMQ-5814
p1140
aVAMQ-5813
p1141
aVAMQ-5812
p1142
aVAMQ-5811
p1143
aVAMQ-5810
p1144
aVAMQ-5809
p1145
aVAMQ-5808
p1146
aVAMQ-5807
p1147
aVAMQ-5806
p1148
aVAMQ-5805
p1149
aVAMQ-5804
p1150
aVAMQ-5803
p1151
aVAMQ-5802
p1152
aVAMQ-5801
p1153
aVAMQ-5800
p1154
aVAMQ-5799
p1155
aVAMQ-5798
p1156
aVAMQ-5797
p1157
aVAMQ-5796
p1158
aVAMQ-5795
p1159
aVAMQ-5794
p1160
aVAMQ-5793
p1161
aVAMQ-5792
p1162
aVAMQ-5791
p1163
aVAMQ-5790
p1164
aVAMQ-5789
p1165
aVAMQ-5788
p1166
aVAMQ-5787
p1167
aVAMQ-5786
p1168
aVAMQ-5785
p1169
aVAMQ-5784
p1170
aVAMQ-5783
p1171
aVAMQ-5782
p1172
aVAMQ-5781
p1173
aVAMQ-5780
p1174
aVAMQ-5779
p1175
aVAMQ-5778
p1176
aVAMQ-5777
p1177
aVAMQ-5776
p1178
aVAMQ-5775
p1179
aVAMQ-5774
p1180
aVAMQ-5773
p1181
aVAMQ-5772
p1182
aVAMQ-5771
p1183
aVAMQ-5770
p1184
aVAMQ-5769
p1185
aVAMQ-5768
p1186
aVAMQ-5767
p1187
aVAMQ-5766
p1188
aVAMQ-5765
p1189
aVAMQ-5764
p1190
aVAMQ-5763
p1191
aVAMQ-5762
p1192
aVAMQ-5761
p1193
aVAMQ-5760
p1194
aVAMQ-5759
p1195
aVAMQ-5758
p1196
aVAMQ-5757
p1197
aVAMQ-5756
p1198
aVAMQ-5755
p1199
aVAMQ-5754
p1200
aVAMQ-5753
p1201
aVAMQ-5752
p1202
aVAMQ-5751
p1203
aVAMQ-5750
p1204
aVAMQ-5749
p1205
aVAMQ-5748
p1206
aVAMQ-5747
p1207
aVAMQ-5746
p1208
aVAMQ-5745
p1209
aVAMQ-5744
p1210
aVAMQ-5743
p1211
aVAMQ-5742
p1212
aVAMQ-5741
p1213
aVAMQ-5740
p1214
aVAMQ-5739
p1215
aVAMQ-5738
p1216
aVAMQ-5737
p1217
aVAMQ-5736
p1218
aVAMQ-5735
p1219
aVAMQ-5734
p1220
aVAMQ-5733
p1221
aVAMQ-5732
p1222
aVAMQ-5731
p1223
aVAMQ-5730
p1224
aVAMQ-5729
p1225
aVAMQ-5728
p1226
aVAMQ-5727
p1227
aVAMQ-5726
p1228
aVAMQ-5725
p1229
aVAMQ-5724
p1230
aVAMQ-5723
p1231
aVAMQ-5722
p1232
aVAMQ-5721
p1233
aVAMQ-5720
p1234
aVAMQ-5719
p1235
aVAMQ-5718
p1236
aVAMQ-5717
p1237
aVAMQ-5716
p1238
aVAMQ-5715
p1239
aVAMQ-5714
p1240
aVAMQ-5713
p1241
aVAMQ-5712
p1242
aVAMQ-5711
p1243
aVAMQ-5710
p1244
aVAMQ-5709
p1245
aVAMQ-5708
p1246
aVAMQ-5707
p1247
aVAMQ-5706
p1248
aVAMQ-5705
p1249
aVAMQ-5704
p1250
aVAMQ-5703
p1251
aVAMQ-5702
p1252
aVAMQ-5701
p1253
aVAMQ-5700
p1254
aVAMQ-5699
p1255
aVAMQ-5698
p1256
aVAMQ-5697
p1257
aVAMQ-5696
p1258
aVAMQ-5695
p1259
aVAMQ-5694
p1260
aVAMQ-5693
p1261
aVAMQ-5692
p1262
aVAMQ-5691
p1263
aVAMQ-5690
p1264
aVAMQ-5689
p1265
aVAMQ-5688
p1266
aVAMQ-5687
p1267
aVAMQ-5686
p1268
aVAMQ-5685
p1269
aVAMQ-5684
p1270
aVAMQ-5683
p1271
aVAMQ-5682
p1272
aVAMQ-5681
p1273
aVAMQ-5680
p1274
aVAMQ-5679
p1275
aVAMQ-5678
p1276
aVAMQ-5677
p1277
aVAMQ-5676
p1278
aVAMQ-5675
p1279
aVAMQ-5674
p1280
aVAMQ-5673
p1281
aVAMQ-5672
p1282
aVAMQ-5671
p1283
aVAMQ-5670
p1284
aVAMQ-5669
p1285
aVAMQ-5668
p1286
aVAMQ-5667
p1287
aVAMQ-5666
p1288
aVAMQ-5665
p1289
aVAMQ-5664
p1290
aVAMQ-5663
p1291
aVAMQ-5662
p1292
aVAMQ-5661
p1293
aVAMQ-5660
p1294
aVAMQ-5659
p1295
aVAMQ-5658
p1296
aVAMQ-5657
p1297
aVAMQ-5656
p1298
aVAMQ-5655
p1299
aVAMQ-5654
p1300
aVAMQ-5652
p1301
aVAMQ-5651
p1302
aVAMQ-5650
p1303
aVAMQ-5649
p1304
aVAMQ-5648
p1305
aVAMQ-5647
p1306
aVAMQ-5646
p1307
aVAMQ-5645
p1308
aVAMQ-5644
p1309
aVAMQ-5643
p1310
aVAMQ-5642
p1311
aVAMQ-5641
p1312
aVAMQ-5640
p1313
aVAMQ-5639
p1314
aVAMQ-5638
p1315
aVAMQ-5637
p1316
aVAMQ-5636
p1317
aVAMQ-5635
p1318
aVAMQ-5634
p1319
aVAMQ-5633
p1320
aVAMQ-5632
p1321
aVAMQ-5631
p1322
aVAMQ-5630
p1323
aVAMQ-5629
p1324
aVAMQ-5628
p1325
aVAMQ-5627
p1326
aVAMQ-5626
p1327
aVAMQ-5625
p1328
aVAMQ-5624
p1329
aVAMQ-5623
p1330
aVAMQ-5622
p1331
aVAMQ-5621
p1332
aVAMQ-5620
p1333
aVAMQ-5619
p1334
aVAMQ-5618
p1335
aVAMQ-5617
p1336
aVAMQ-5616
p1337
aVAMQ-5615
p1338
aVAMQ-5614
p1339
aVAMQ-5613
p1340
aVAMQ-5612
p1341
aVAMQ-5611
p1342
aVAMQ-5610
p1343
aVAMQ-5609
p1344
aVAMQ-5608
p1345
aVAMQ-5607
p1346
aVAMQ-5606
p1347
aVAMQ-5605
p1348
aVAMQ-5604
p1349
aVAMQ-5603
p1350
aVAMQ-5602
p1351
aVAMQ-5601
p1352
aVAMQ-5600
p1353
aVAMQ-5599
p1354
aVAMQ-5598
p1355
aVAMQ-5597
p1356
aVAMQ-5596
p1357
aVAMQ-5595
p1358
aVAMQ-5594
p1359
aVAMQ-5593
p1360
aVAMQ-5592
p1361
aVAMQ-5591
p1362
aVAMQ-5590
p1363
aVAMQ-5589
p1364
aVAMQ-5588
p1365
aVAMQ-5587
p1366
aVAMQ-5586
p1367
aVAMQ-5585
p1368
aVAMQ-5584
p1369
aVAMQ-5583
p1370
aVAMQ-5582
p1371
aVAMQ-5581
p1372
aVAMQ-5580
p1373
aVAMQ-5579
p1374
aVAMQ-5578
p1375
aVAMQ-5577
p1376
aVAMQ-5576
p1377
aVAMQ-5575
p1378
aVAMQ-5574
p1379
aVAMQ-5573
p1380
aVAMQ-5572
p1381
aVAMQ-5571
p1382
aVAMQ-5570
p1383
aVAMQ-5569
p1384
aVAMQ-5568
p1385
aVAMQ-5567
p1386
aVAMQ-5566
p1387
aVAMQ-5565
p1388
aVAMQ-5564
p1389
aVAMQ-5563
p1390
aVAMQ-5562
p1391
aVAMQ-5561
p1392
aVAMQ-5560
p1393
aVAMQ-5559
p1394
aVAMQ-5558
p1395
aVAMQ-5557
p1396
aVAMQ-5556
p1397
aVAMQ-5555
p1398
aVAMQ-5554
p1399
aVAMQ-5553
p1400
aVAMQ-5552
p1401
aVAMQ-5551
p1402
aVAMQ-5550
p1403
aVAMQ-5549
p1404
aVAMQ-5548
p1405
aVAMQ-5547
p1406
aVAMQ-5546
p1407
aVAMQ-5545
p1408
aVAMQ-5544
p1409
aVAMQ-5543
p1410
aVAMQ-5542
p1411
aVAMQ-5541
p1412
aVAMQ-5540
p1413
aVAMQ-5539
p1414
aVAMQ-5538
p1415
aVAMQ-5537
p1416
aVAMQ-5536
p1417
aVAMQ-5535
p1418
aVAMQ-5534
p1419
aVAMQ-5533
p1420
aVAMQ-5532
p1421
aVAMQ-5531
p1422
aVAMQ-5530
p1423
aVAMQ-5529
p1424
aVAMQ-5528
p1425
aVAMQ-5527
p1426
aVAMQ-5526
p1427
aVAMQ-5525
p1428
aVAMQ-5524
p1429
aVAMQ-5523
p1430
aVAMQ-5522
p1431
aVAMQ-5521
p1432
aVAMQ-5520
p1433
aVAMQ-5519
p1434
aVAMQ-5518
p1435
aVAMQ-5517
p1436
aVAMQ-5516
p1437
aVAMQ-5515
p1438
aVAMQ-5514
p1439
aVAMQ-5513
p1440
aVAMQ-5512
p1441
aVAMQ-5511
p1442
aVAMQ-5510
p1443
aVAMQ-5509
p1444
aVAMQ-5508
p1445
aVAMQ-5507
p1446
aVAMQ-5506
p1447
aVAMQ-5505
p1448
aVAMQ-5504
p1449
aVAMQ-5503
p1450
aVAMQ-5502
p1451
aVAMQ-5501
p1452
aVAMQ-5500
p1453
aVAMQ-5499
p1454
aVAMQ-5498
p1455
aVAMQ-5497
p1456
aVAMQ-5496
p1457
aVAMQ-5495
p1458
aVAMQ-5494
p1459
aVAMQ-5493
p1460
aVAMQ-5492
p1461
aVAMQ-5491
p1462
aVAMQ-5490
p1463
aVAMQ-5489
p1464
aVAMQ-5488
p1465
aVAMQ-5487
p1466
aVAMQ-5486
p1467
aVAMQ-5485
p1468
aVAMQ-5484
p1469
aVAMQ-5483
p1470
aVAMQ-5482
p1471
aVAMQ-5481
p1472
aVAMQ-5480
p1473
aVAMQ-5479
p1474
aVAMQ-5478
p1475
aVAMQ-5477
p1476
aVAMQ-5476
p1477
aVAMQ-5475
p1478
aVAMQ-5474
p1479
aVAMQ-5473
p1480
aVAMQ-5472
p1481
aVAMQ-5471
p1482
aVAMQ-5470
p1483
aVAMQ-5469
p1484
aVAMQ-5468
p1485
aVAMQ-5467
p1486
aVAMQ-5466
p1487
aVAMQ-5465
p1488
aVAMQ-5464
p1489
aVAMQ-5463
p1490
aVAMQ-5462
p1491
aVAMQ-5461
p1492
aVAMQ-5460
p1493
aVAMQ-5459
p1494
aVAMQ-5458
p1495
aVAMQ-5457
p1496
aVAMQ-5456
p1497
aVAMQ-5455
p1498
aVAMQ-5454
p1499
aVAMQ-5453
p1500
aVAMQ-5452
p1501
aVAMQ-5450
p1502
aVAMQ-5449
p1503
aVAMQ-5448
p1504
aVAMQ-5447
p1505
aVAMQ-5446
p1506
aVAMQ-5445
p1507
aVAMQ-5444
p1508
aVAMQ-5443
p1509
aVAMQ-5442
p1510
aVAMQ-5441
p1511
aVAMQ-5440
p1512
aVAMQ-5439
p1513
aVAMQ-5438
p1514
aVAMQ-5437
p1515
aVAMQ-5436
p1516
aVAMQ-5435
p1517
aVAMQ-5434
p1518
aVAMQ-5433
p1519
aVAMQ-5431
p1520
aVAMQ-5430
p1521
aVAMQ-5429
p1522
aVAMQ-5428
p1523
aVAMQ-5427
p1524
aVAMQ-5426
p1525
aVAMQ-5425
p1526
aVAMQ-5424
p1527
aVAMQ-5423
p1528
aVAMQ-5422
p1529
aVAMQ-5421
p1530
aVAMQ-5420
p1531
aVAMQ-5419
p1532
aVAMQ-5418
p1533
aVAMQ-5417
p1534
aVAMQ-5416
p1535
aVAMQ-5415
p1536
aVAMQ-5414
p1537
aVAMQ-5413
p1538
aVAMQ-5412
p1539
aVAMQ-5411
p1540
aVAMQ-5410
p1541
aVAMQ-5409
p1542
aVAMQ-5408
p1543
aVAMQ-5407
p1544
aVAMQ-5406
p1545
aVAMQ-5405
p1546
aVAMQ-5404
p1547
aVAMQ-5403
p1548
aVAMQ-5402
p1549
aVAMQ-5401
p1550
aVAMQ-5400
p1551
aVAMQ-5399
p1552
aVAMQ-5398
p1553
aVAMQ-5397
p1554
aVAMQ-5396
p1555
aVAMQ-5395
p1556
aVAMQ-5394
p1557
aVAMQ-5393
p1558
aVAMQ-5392
p1559
aVAMQ-5391
p1560
aVAMQ-5390
p1561
aVAMQ-5389
p1562
aVAMQ-5388
p1563
aVAMQ-5387
p1564
aVAMQ-5386
p1565
aVAMQ-5385
p1566
aVAMQ-5384
p1567
aVAMQ-5383
p1568
aVAMQ-5382
p1569
aVAMQ-5381
p1570
aVAMQ-5380
p1571
aVAMQ-5379
p1572
aVAMQ-5378
p1573
aVAMQ-5377
p1574
aVAMQ-5376
p1575
aVAMQ-5375
p1576
aVAMQ-5374
p1577
aVAMQ-5373
p1578
aVAMQ-5372
p1579
aVAMQ-5371
p1580
aVAMQ-5370
p1581
aVAMQ-5369
p1582
aVAMQ-5368
p1583
aVAMQ-5367
p1584
aVAMQ-5366
p1585
aVAMQ-5365
p1586
aVAMQ-5364
p1587
aVAMQ-5363
p1588
aVAMQ-5362
p1589
aVAMQ-5361
p1590
aVAMQ-5360
p1591
aVAMQ-5359
p1592
aVAMQ-5358
p1593
aVAMQ-5357
p1594
aVAMQ-5356
p1595
aVAMQ-5355
p1596
aVAMQ-5354
p1597
aVAMQ-5353
p1598
aVAMQ-5352
p1599
aVAMQ-5351
p1600
aVAMQ-5350
p1601
aVAMQ-5349
p1602
aVAMQ-5348
p1603
aVAMQ-5347
p1604
aVAMQ-5346
p1605
aVAMQ-5345
p1606
aVAMQ-5344
p1607
aVAMQ-5343
p1608
aVAMQ-5342
p1609
aVAMQ-5341
p1610
aVAMQ-5340
p1611
aVAMQ-5339
p1612
aVAMQ-5338
p1613
aVAMQ-5337
p1614
aVAMQ-5336
p1615
aVAMQ-5335
p1616
aVAMQ-5334
p1617
aVAMQ-5333
p1618
aVAMQ-5332
p1619
aVAMQ-5331
p1620
aVAMQ-5330
p1621
aVAMQ-5329
p1622
aVAMQ-5328
p1623
aVAMQ-5327
p1624
aVAMQ-5326
p1625
aVAMQ-5324
p1626
aVAMQ-5323
p1627
aVAMQ-5322
p1628
aVAMQ-5321
p1629
aVAMQ-5320
p1630
aVAMQ-5319
p1631
aVAMQ-5318
p1632
aVAMQ-5317
p1633
aVAMQ-5316
p1634
aVAMQ-5315
p1635
aVAMQ-5314
p1636
aVAMQ-5313
p1637
aVAMQ-5312
p1638
aVAMQ-5311
p1639
aVAMQ-5310
p1640
aVAMQ-5309
p1641
aVAMQ-5308
p1642
aVAMQ-5307
p1643
aVAMQ-5306
p1644
aVAMQ-5305
p1645
aVAMQ-5304
p1646
aVAMQ-5303
p1647
aVAMQ-5302
p1648
aVAMQ-5301
p1649
aVAMQ-5300
p1650
aVAMQ-5299
p1651
aVAMQ-5298
p1652
aVAMQ-5297
p1653
aVAMQ-5296
p1654
aVAMQ-5295
p1655
aVAMQ-5294
p1656
aVAMQ-5293
p1657
aVAMQ-5292
p1658
aVAMQ-5291
p1659
aVAMQ-5290
p1660
aVAMQ-5289
p1661
aVAMQ-5288
p1662
aVAMQ-5287
p1663
aVAMQ-5286
p1664
aVAMQ-5285
p1665
aVAMQ-5284
p1666
aVAMQ-5283
p1667
aVAMQ-5282
p1668
aVAMQ-5281
p1669
aVAMQ-5280
p1670
aVAMQ-5279
p1671
aVAMQ-5278
p1672
aVAMQ-5277
p1673
aVAMQ-5276
p1674
aVAMQ-5275
p1675
aVAMQ-5274
p1676
aVAMQ-5273
p1677
aVAMQ-5272
p1678
aVAMQ-5271
p1679
aVAMQ-5270
p1680
aVAMQ-5269
p1681
aVAMQ-5268
p1682
aVAMQ-5267
p1683
aVAMQ-5266
p1684
aVAMQ-5265
p1685
aVAMQ-5264
p1686
aVAMQ-5263
p1687
aVAMQ-5262
p1688
aVAMQ-5261
p1689
aVAMQ-5260
p1690
aVAMQ-5259
p1691
aVAMQ-5258
p1692
aVAMQ-5257
p1693
aVAMQ-5256
p1694
aVAMQ-5255
p1695
aVAMQ-5254
p1696
aVAMQ-5253
p1697
aVAMQ-5252
p1698
aVAMQ-5251
p1699
aVAMQ-5250
p1700
aVAMQ-5249
p1701
aVAMQ-5248
p1702
aVAMQ-5247
p1703
aVAMQ-5246
p1704
aVAMQ-5245
p1705
aVAMQ-5244
p1706
aVAMQ-5243
p1707
aVAMQ-5242
p1708
aVAMQ-5241
p1709
aVAMQ-5240
p1710
aVAMQ-5239
p1711
aVAMQ-5238
p1712
aVAMQ-5237
p1713
aVAMQ-5236
p1714
aVAMQ-5235
p1715
aVAMQ-5234
p1716
aVAMQ-5233
p1717
aVAMQ-5232
p1718
aVAMQ-5231
p1719
aVAMQ-5230
p1720
aVAMQ-5229
p1721
aVAMQ-5228
p1722
aVAMQ-5227
p1723
aVAMQ-5226
p1724
aVAMQ-5225
p1725
aVAMQ-5224
p1726
aVAMQ-5223
p1727
aVAMQ-5222
p1728
aVAMQ-5221
p1729
aVAMQ-5220
p1730
aVAMQ-5219
p1731
aVAMQ-5218
p1732
aVAMQ-5217
p1733
aVAMQ-5216
p1734
aVAMQ-5215
p1735
aVAMQ-5214
p1736
aVAMQ-5213
p1737
aVAMQ-5212
p1738
aVAMQ-5211
p1739
aVAMQ-5210
p1740
aVAMQ-5209
p1741
aVAMQ-5208
p1742
aVAMQ-5207
p1743
aVAMQ-5205
p1744
aVAMQ-5204
p1745
aVAMQ-5202
p1746
aVAMQ-5201
p1747
aVAMQ-5200
p1748
aVAMQ-5199
p1749
aVAMQ-5198
p1750
aVAMQ-5197
p1751
aVAMQ-5196
p1752
aVAMQ-5195
p1753
aVAMQ-5194
p1754
aVAMQ-5193
p1755
aVAMQ-5192
p1756
aVAMQ-5191
p1757
aVAMQ-5190
p1758
aVAMQ-5189
p1759
aVAMQ-5188
p1760
aVAMQ-5187
p1761
aVAMQ-5186
p1762
aVAMQ-5185
p1763
aVAMQ-5184
p1764
aVAMQ-5183
p1765
aVAMQ-5182
p1766
aVAMQ-5181
p1767
aVAMQ-5180
p1768
aVAMQ-5179
p1769
aVAMQ-5178
p1770
aVAMQ-5177
p1771
aVAMQ-5176
p1772
aVAMQ-5175
p1773
aVAMQ-5174
p1774
aVAMQ-5173
p1775
aVAMQ-5172
p1776
aVAMQ-5171
p1777
aVAMQ-5170
p1778
aVAMQ-5169
p1779
aVAMQ-5168
p1780
aVAMQ-5167
p1781
aVAMQ-5166
p1782
aVAMQ-5165
p1783
aVAMQ-5164
p1784
aVAMQ-5163
p1785
aVAMQ-5162
p1786
aVAMQ-5161
p1787
aVAMQ-5160
p1788
aVAMQ-5159
p1789
aVAMQ-5158
p1790
aVAMQ-5157
p1791
aVAMQ-5156
p1792
aVAMQ-5155
p1793
aVAMQ-5154
p1794
aVAMQ-5153
p1795
aVAMQ-5152
p1796
aVAMQ-5151
p1797
aVAMQ-5150
p1798
aVAMQ-5149
p1799
aVAMQ-5148
p1800
aVAMQ-5147
p1801
aVAMQ-5146
p1802
aVAMQ-5145
p1803
aVAMQ-5144
p1804
aVAMQ-5143
p1805
aVAMQ-5142
p1806
aVAMQ-5141
p1807
aVAMQ-5140
p1808
aVAMQ-5139
p1809
aVAMQ-5138
p1810
aVAMQ-5137
p1811
aVAMQ-5136
p1812
aVAMQ-5135
p1813
aVAMQ-5134
p1814
aVAMQ-5133
p1815
aVAMQ-5132
p1816
aVAMQ-5131
p1817
aVAMQ-5130
p1818
aVAMQ-5129
p1819
aVAMQ-5128
p1820
aVAMQ-5127
p1821
aVAMQ-5126
p1822
aVAMQ-5125
p1823
aVAMQ-5124
p1824
aVAMQ-5123
p1825
aVAMQ-5122
p1826
aVAMQ-5121
p1827
aVAMQ-5120
p1828
aVAMQ-5119
p1829
aVAMQ-5118
p1830
aVAMQ-5117
p1831
aVAMQ-5116
p1832
aVAMQ-5115
p1833
aVAMQ-5114
p1834
aVAMQ-5113
p1835
aVAMQ-5112
p1836
aVAMQ-5111
p1837
aVAMQ-5110
p1838
aVAMQ-5109
p1839
aVAMQ-5108
p1840
aVAMQ-5107
p1841
aVAMQ-5106
p1842
aVAMQ-5105
p1843
aVAMQ-5104
p1844
aVAMQ-5103
p1845
aVAMQ-5102
p1846
aVAMQ-5101
p1847
aVAMQ-5100
p1848
aVAMQ-5099
p1849
aVAMQ-5098
p1850
aVAMQ-5097
p1851
aVAMQ-5096
p1852
aVAMQ-5095
p1853
aVAMQ-5094
p1854
aVAMQ-5093
p1855
aVAMQ-5092
p1856
aVAMQ-5091
p1857
aVAMQ-5090
p1858
aVAMQ-5089
p1859
aVAMQ-5088
p1860
aVAMQ-5087
p1861
aVAMQ-5086
p1862
aVAMQ-5085
p1863
aVAMQ-5084
p1864
aVAMQ-5083
p1865
aVAMQ-5082
p1866
aVAMQ-5081
p1867
aVAMQ-5080
p1868
aVAMQ-5079
p1869
aVAMQ-5078
p1870
aVAMQ-5077
p1871
aVAMQ-5076
p1872
aVAMQ-5075
p1873
aVAMQ-5074
p1874
aVAMQ-5073
p1875
aVAMQ-5072
p1876
aVAMQ-5071
p1877
aVAMQ-5070
p1878
aVAMQ-5069
p1879
aVAMQ-5068
p1880
aVAMQ-5067
p1881
aVAMQ-5066
p1882
aVAMQ-5065
p1883
aVAMQ-5064
p1884
aVAMQ-5063
p1885
aVAMQ-5062
p1886
aVAMQ-5061
p1887
aVAMQ-5060
p1888
aVAMQ-5059
p1889
aVAMQ-5058
p1890
aVAMQ-5057
p1891
aVAMQ-5056
p1892
aVAMQ-5055
p1893
aVAMQ-5054
p1894
aVAMQ-5053
p1895
aVAMQ-5052
p1896
aVAMQ-5051
p1897
aVAMQ-5050
p1898
aVAMQ-5049
p1899
aVAMQ-5048
p1900
aVAMQ-5047
p1901
aVAMQ-5046
p1902
aVAMQ-5045
p1903
aVAMQ-5044
p1904
aVAMQ-5043
p1905
aVAMQ-5042
p1906
aVAMQ-5041
p1907
aVAMQ-5040
p1908
aVAMQ-5039
p1909
aVAMQ-5038
p1910
aVAMQ-5037
p1911
aVAMQ-5036
p1912
aVAMQ-5035
p1913
aVAMQ-5034
p1914
aVAMQ-5033
p1915
aVAMQ-5032
p1916
aVAMQ-5031
p1917
aVAMQ-5030
p1918
aVAMQ-5029
p1919
aVAMQ-5028
p1920
aVAMQ-5027
p1921
aVAMQ-5026
p1922
aVAMQ-5025
p1923
aVAMQ-5024
p1924
aVAMQ-5023
p1925
aVAMQ-5022
p1926
aVAMQ-5021
p1927
aVAMQ-5020
p1928
aVAMQ-5019
p1929
aVAMQ-5018
p1930
aVAMQ-5017
p1931
aVAMQ-5016
p1932
aVAMQ-5015
p1933
aVAMQ-5014
p1934
aVAMQ-5013
p1935
aVAMQ-5011
p1936
aVAMQ-5010
p1937
aVAMQ-5009
p1938
aVAMQ-5008
p1939
aVAMQ-5007
p1940
aVAMQ-5006
p1941
aVAMQ-5005
p1942
aVAMQ-5004
p1943
aVAMQ-5003
p1944
aVAMQ-5002
p1945
aVAMQ-5001
p1946
aVAMQ-5000
p1947
aVAMQ-4999
p1948
aVAMQ-4998
p1949
aVAMQ-4997
p1950
aVAMQ-4996
p1951
aVAMQ-4995
p1952
aVAMQ-4994
p1953
aVAMQ-4993
p1954
aVAMQ-4992
p1955
aVAMQ-4991
p1956
aVAMQ-4990
p1957
aVAMQ-4989
p1958
aVAMQ-4988
p1959
aVAMQ-4987
p1960
aVAMQ-4986
p1961
aVAMQ-4985
p1962
aVAMQ-4982
p1963
aVAMQ-4980
p1964
aVAMQ-4979
p1965
aVAMQ-4978
p1966
aVAMQ-4977
p1967
aVAMQ-4976
p1968
aVAMQ-4975
p1969
aVAMQ-4974
p1970
aVAMQ-4973
p1971
aVAMQ-4972
p1972
aVAMQ-4971
p1973
aVAMQ-4970
p1974
aVAMQ-4969
p1975
aVAMQ-4968
p1976
aVAMQ-4967
p1977
aVAMQ-4966
p1978
aVAMQ-4965
p1979
aVAMQ-4964
p1980
aVAMQ-4963
p1981
aVAMQ-4962
p1982
aVAMQ-4961
p1983
aVAMQ-4960
p1984
aVAMQ-4959
p1985
aVAMQ-4958
p1986
aVAMQ-4957
p1987
aVAMQ-4956
p1988
aVAMQ-4955
p1989
aVAMQ-4954
p1990
aVAMQ-4953
p1991
aVAMQ-4952
p1992
aVAMQ-4951
p1993
aVAMQ-4950
p1994
aVAMQ-4949
p1995
aVAMQ-4948
p1996
aVAMQ-4947
p1997
aVAMQ-4946
p1998
aVAMQ-4945
p1999
aVAMQ-4944
p2000
aVAMQ-4943
p2001
aVAMQ-4942
p2002
aVAMQ-4941
p2003
aVAMQ-4940
p2004
aVAMQ-4939
p2005
aVAMQ-4938
p2006
aVAMQ-4937
p2007
aVAMQ-4936
p2008
aVAMQ-4935
p2009
aVAMQ-4934
p2010
aVAMQ-4933
p2011
aVAMQ-4932
p2012
aVAMQ-4931
p2013
aVAMQ-4930
p2014
aVAMQ-4929
p2015
aVAMQ-4928
p2016
aVAMQ-4927
p2017
aVAMQ-4926
p2018
aVAMQ-4925
p2019
aVAMQ-4924
p2020
aVAMQ-4923
p2021
aVAMQ-4922
p2022
aVAMQ-4921
p2023
aVAMQ-4920
p2024
aVAMQ-4919
p2025
aVAMQ-4918
p2026
aVAMQ-4917
p2027
aVAMQ-4916
p2028
aVAMQ-4915
p2029
aVAMQ-4914
p2030
aVAMQ-4913
p2031
aVAMQ-4912
p2032
aVAMQ-4911
p2033
aVAMQ-4910
p2034
aVAMQ-4909
p2035
aVAMQ-4907
p2036
aVAMQ-4906
p2037
aVAMQ-4905
p2038
aVAMQ-4904
p2039
aVAMQ-4903
p2040
aVAMQ-4902
p2041
aVAMQ-4901
p2042
aVAMQ-4900
p2043
aVAMQ-4899
p2044
aVAMQ-4898
p2045
aVAMQ-4897
p2046
aVAMQ-4896
p2047
aVAMQ-4895
p2048
aVAMQ-4894
p2049
aVAMQ-4893
p2050
aVAMQ-4892
p2051
aVAMQ-4891
p2052
aVAMQ-4890
p2053
aVAMQ-4889
p2054
aVAMQ-4888
p2055
aVAMQ-4887
p2056
aVAMQ-4886
p2057
aVAMQ-4885
p2058
aVAMQ-4884
p2059
aVAMQ-4883
p2060
aVAMQ-4882
p2061
aVAMQ-4881
p2062
aVAMQ-4880
p2063
aVAMQ-4878
p2064
aVAMQ-4877
p2065
aVAMQ-4876
p2066
aVAMQ-4875
p2067
aVAMQ-4874
p2068
aVAMQ-4873
p2069
aVAMQ-4872
p2070
aVAMQ-4871
p2071
aVAMQ-4870
p2072
aVAMQ-4869
p2073
aVAMQ-4868
p2074
aVAMQ-4867
p2075
aVAMQ-4858
p2076
aVAMQ-4857
p2077
aVAMQ-4856
p2078
aVAMQ-4855
p2079
aVAMQ-4854
p2080
aVAMQ-4853
p2081
aVAMQ-4852
p2082
aVAMQ-4851
p2083
aVAMQ-4850
p2084
aVAMQ-4849
p2085
aVAMQ-4848
p2086
aVAMQ-4847
p2087
aVAMQ-4846
p2088
aVAMQ-4845
p2089
aVAMQ-4844
p2090
aVAMQ-4843
p2091
aVAMQ-4842
p2092
aVAMQ-4841
p2093
aVAMQ-4840
p2094
aVAMQ-4839
p2095
aVAMQ-4838
p2096
aVAMQ-4837
p2097
aVAMQ-4836
p2098
aVAMQ-4835
p2099
aVAMQ-4834
p2100
aVAMQ-4833
p2101
aVAMQ-4832
p2102
aVAMQ-4831
p2103
aVAMQ-4830
p2104
aVAMQ-4829
p2105
aVAMQ-4828
p2106
aVAMQ-4827
p2107
aVAMQ-4826
p2108
aVAMQ-4825
p2109
aVAMQ-4824
p2110
aVAMQ-4823
p2111
aVAMQ-4822
p2112
aVAMQ-4821
p2113
aVAMQ-4820
p2114
aVAMQ-4819
p2115
aVAMQ-4818
p2116
aVAMQ-4817
p2117
aVAMQ-4816
p2118
aVAMQ-4815
p2119
aVAMQ-4814
p2120
aVAMQ-4813
p2121
aVAMQ-4812
p2122
aVAMQ-4811
p2123
aVAMQ-4810
p2124
aVAMQ-4809
p2125
aVAMQ-4808
p2126
aVAMQ-4807
p2127
aVAMQ-4806
p2128
aVAMQ-4805
p2129
aVAMQ-4804
p2130
aVAMQ-4803
p2131
aVAMQ-4802
p2132
aVAMQ-4801
p2133
aVAMQ-4800
p2134
aVAMQ-4799
p2135
aVAMQ-4798
p2136
aVAMQ-4797
p2137
aVAMQ-4796
p2138
aVAMQ-4795
p2139
aVAMQ-4794
p2140
aVAMQ-4793
p2141
aVAMQ-4792
p2142
aVAMQ-4791
p2143
aVAMQ-4790
p2144
aVAMQ-4789
p2145
aVAMQ-4788
p2146
aVAMQ-4787
p2147
aVAMQ-4786
p2148
aVAMQ-4785
p2149
aVAMQ-4784
p2150
aVAMQ-4783
p2151
aVAMQ-4782
p2152
aVAMQ-4781
p2153
aVAMQ-4780
p2154
aVAMQ-4779
p2155
aVAMQ-4778
p2156
aVAMQ-4777
p2157
aVAMQ-4776
p2158
aVAMQ-4775
p2159
aVAMQ-4774
p2160
aVAMQ-4773
p2161
aVAMQ-4772
p2162
aVAMQ-4771
p2163
aVAMQ-4770
p2164
aVAMQ-4769
p2165
aVAMQ-4768
p2166
aVAMQ-4767
p2167
aVAMQ-4766
p2168
aVAMQ-4765
p2169
aVAMQ-4764
p2170
aVAMQ-4763
p2171
aVAMQ-4762
p2172
aVAMQ-4761
p2173
aVAMQ-4760
p2174
aVAMQ-4759
p2175
aVAMQ-4758
p2176
aVAMQ-4757
p2177
aVAMQ-4756
p2178
aVAMQ-4755
p2179
aVAMQ-4754
p2180
aVAMQ-4753
p2181
aVAMQ-4752
p2182
aVAMQ-4751
p2183
aVAMQ-4750
p2184
aVAMQ-4749
p2185
aVAMQ-4748
p2186
aVAMQ-4747
p2187
aVAMQ-4746
p2188
aVAMQ-4745
p2189
aVAMQ-4744
p2190
aVAMQ-4743
p2191
aVAMQ-4742
p2192
aVAMQ-4741
p2193
aVAMQ-4740
p2194
aVAMQ-4739
p2195
aVAMQ-4738
p2196
aVAMQ-4737
p2197
aVAMQ-4736
p2198
aVAMQ-4735
p2199
aVAMQ-4734
p2200
aVAMQ-4733
p2201
aVAMQ-4732
p2202
aVAMQ-4731
p2203
aVAMQ-4730
p2204
aVAMQ-4729
p2205
aVAMQ-4728
p2206
aVAMQ-4727
p2207
aVAMQ-4726
p2208
aVAMQ-4725
p2209
aVAMQ-4724
p2210
aVAMQ-4723
p2211
aVAMQ-4722
p2212
aVAMQ-4721
p2213
aVAMQ-4720
p2214
aVAMQ-4719
p2215
aVAMQ-4718
p2216
aVAMQ-4717
p2217
aVAMQ-4716
p2218
aVAMQ-4715
p2219
aVAMQ-4714
p2220
aVAMQ-4713
p2221
aVAMQ-4712
p2222
aVAMQ-4711
p2223
aVAMQ-4710
p2224
aVAMQ-4709
p2225
aVAMQ-4708
p2226
aVAMQ-4707
p2227
aVAMQ-4706
p2228
aVAMQ-4705
p2229
aVAMQ-4704
p2230
aVAMQ-4703
p2231
aVAMQ-4702
p2232
aVAMQ-4701
p2233
aVAMQ-4700
p2234
aVAMQ-4699
p2235
aVAMQ-4698
p2236
aVAMQ-4697
p2237
aVAMQ-4696
p2238
aVAMQ-4695
p2239
aVAMQ-4694
p2240
aVAMQ-4693
p2241
aVAMQ-4692
p2242
aVAMQ-4691
p2243
aVAMQ-4690
p2244
aVAMQ-4689
p2245
aVAMQ-4688
p2246
aVAMQ-4687
p2247
aVAMQ-4686
p2248
aVAMQ-4685
p2249
aVAMQ-4684
p2250
aVAMQ-4683
p2251
aVAMQ-4682
p2252
aVAMQ-4681
p2253
aVAMQ-4680
p2254
aVAMQ-4679
p2255
aVAMQ-4678
p2256
aVAMQ-4677
p2257
aVAMQ-4676
p2258
aVAMQ-4675
p2259
aVAMQ-4674
p2260
aVAMQ-4673
p2261
aVAMQ-4672
p2262
aVAMQ-4671
p2263
aVAMQ-4670
p2264
aVAMQ-4669
p2265
aVAMQ-4668
p2266
aVAMQ-4667
p2267
aVAMQ-4666
p2268
aVAMQ-4665
p2269
aVAMQ-4663
p2270
aVAMQ-4662
p2271
aVAMQ-4661
p2272
aVAMQ-4660
p2273
aVAMQ-4659
p2274
aVAMQ-4658
p2275
aVAMQ-4657
p2276
aVAMQ-4656
p2277
aVAMQ-4655
p2278
aVAMQ-4654
p2279
aVAMQ-4652
p2280
aVAMQ-4651
p2281
aVAMQ-4650
p2282
aVAMQ-4649
p2283
aVAMQ-4648
p2284
aVAMQ-4647
p2285
aVAMQ-4646
p2286
aVAMQ-4645
p2287
aVAMQ-4644
p2288
aVAMQ-4643
p2289
aVAMQ-4642
p2290
aVAMQ-4641
p2291
aVAMQ-4640
p2292
aVAMQ-4639
p2293
aVAMQ-4638
p2294
aVAMQ-4637
p2295
aVAMQ-4636
p2296
aVAMQ-4635
p2297
aVAMQ-4634
p2298
aVAMQ-4633
p2299
aVAMQ-4632
p2300
aVAMQ-4631
p2301
aVAMQ-4630
p2302
aVAMQ-4629
p2303
aVAMQ-4628
p2304
aVAMQ-4627
p2305
aVAMQ-4626
p2306
aVAMQ-4625
p2307
aVAMQ-4624
p2308
aVAMQ-4623
p2309
aVAMQ-4622
p2310
aVAMQ-4621
p2311
aVAMQ-4620
p2312
aVAMQ-4619
p2313
aVAMQ-4618
p2314
aVAMQ-4617
p2315
aVAMQ-4616
p2316
aVAMQ-4614
p2317
aVAMQ-4613
p2318
aVAMQ-4612
p2319
aVAMQ-4611
p2320
aVAMQ-4610
p2321
aVAMQ-4609
p2322
aVAMQ-4608
p2323
aVAMQ-4607
p2324
aVAMQ-4606
p2325
aVAMQ-4605
p2326
aVAMQ-4604
p2327
aVAMQ-4603
p2328
aVAMQ-4602
p2329
aVAMQ-4601
p2330
aVAMQ-4600
p2331
aVAMQ-4599
p2332
aVAMQ-4598
p2333
aVAMQ-4597
p2334
aVAMQ-4596
p2335
aVAMQ-4595
p2336
aVAMQ-4594
p2337
aVAMQ-4593
p2338
aVAMQ-4592
p2339
aVAMQ-4591
p2340
aVAMQ-4590
p2341
aVAMQ-4589
p2342
aVAMQ-4588
p2343
aVAMQ-4587
p2344
aVAMQ-4586
p2345
aVAMQ-4585
p2346
aVAMQ-4584
p2347
aVAMQ-4583
p2348
aVAMQ-4582
p2349
aVAMQ-4581
p2350
aVAMQ-4580
p2351
aVAMQ-4578
p2352
aVAMQ-4577
p2353
aVAMQ-4576
p2354
aVAMQ-4575
p2355
aVAMQ-4574
p2356
aVAMQ-4573
p2357
aVAMQ-4572
p2358
aVAMQ-4571
p2359
aVAMQ-4570
p2360
aVAMQ-4569
p2361
aVAMQ-4568
p2362
aVAMQ-4567
p2363
aVAMQ-4566
p2364
aVAMQ-4565
p2365
aVAMQ-4564
p2366
aVAMQ-4563
p2367
aVAMQ-4562
p2368
aVAMQ-4561
p2369
aVAMQ-4560
p2370
aVAMQ-4559
p2371
aVAMQ-4558
p2372
aVAMQ-4557
p2373
aVAMQ-4556
p2374
aVAMQ-4555
p2375
aVAMQ-4554
p2376
aVAMQ-4553
p2377
aVAMQ-4552
p2378
aVAMQ-4551
p2379
aVAMQ-4550
p2380
aVAMQ-4549
p2381
aVAMQ-4548
p2382
aVAMQ-4547
p2383
aVAMQ-4546
p2384
aVAMQ-4545
p2385
aVAMQ-4544
p2386
aVAMQ-4543
p2387
aVAMQ-4542
p2388
aVAMQ-4541
p2389
aVAMQ-4540
p2390
aVAMQ-4539
p2391
aVAMQ-4538
p2392
aVAMQ-4537
p2393
aVAMQ-4536
p2394
aVAMQ-4535
p2395
aVAMQ-4534
p2396
aVAMQ-4533
p2397
aVAMQ-4532
p2398
aVAMQ-4531
p2399
aVAMQ-4530
p2400
aVAMQ-4529
p2401
aVAMQ-4528
p2402
aVAMQ-4527
p2403
aVAMQ-4526
p2404
aVAMQ-4525
p2405
aVAMQ-4524
p2406
aVAMQ-4523
p2407
aVAMQ-4522
p2408
aVAMQ-4521
p2409
aVAMQ-4520
p2410
aVAMQ-4519
p2411
aVAMQ-4518
p2412
aVAMQ-4517
p2413
aVAMQ-4516
p2414
aVAMQ-4515
p2415
aVAMQ-4514
p2416
aVAMQ-4513
p2417
aVAMQ-4512
p2418
aVAMQ-4511
p2419
aVAMQ-4510
p2420
aVAMQ-4509
p2421
aVAMQ-4508
p2422
aVAMQ-4507
p2423
aVAMQ-4506
p2424
aVAMQ-4505
p2425
aVAMQ-4504
p2426
aVAMQ-4503
p2427
aVAMQ-4502
p2428
aVAMQ-4501
p2429
aVAMQ-4500
p2430
aVAMQ-4499
p2431
aVAMQ-4498
p2432
aVAMQ-4497
p2433
aVAMQ-4496
p2434
aVAMQ-4495
p2435
aVAMQ-4494
p2436
aVAMQ-4493
p2437
aVAMQ-4492
p2438
aVAMQ-4491
p2439
aVAMQ-4490
p2440
aVAMQ-4489
p2441
aVAMQ-4488
p2442
aVAMQ-4487
p2443
aVAMQ-4486
p2444
aVAMQ-4485
p2445
aVAMQ-4484
p2446
aVAMQ-4483
p2447
aVAMQ-4482
p2448
aVAMQ-4480
p2449
aVAMQ-4479
p2450
aVAMQ-4478
p2451
aVAMQ-4477
p2452
aVAMQ-4476
p2453
aVAMQ-4475
p2454
aVAMQ-4474
p2455
aVAMQ-4473
p2456
aVAMQ-4472
p2457
aVAMQ-4471
p2458
aVAMQ-4470
p2459
aVAMQ-4469
p2460
aVAMQ-4468
p2461
aVAMQ-4467
p2462
aVAMQ-4466
p2463
aVAMQ-4465
p2464
aVAMQ-4464
p2465
aVAMQ-4463
p2466
aVAMQ-4462
p2467
aVAMQ-4461
p2468
aVAMQ-4460
p2469
aVAMQ-4441
p2470
aVAMQ-4440
p2471
aVAMQ-4439
p2472
aVAMQ-4438
p2473
aVAMQ-4437
p2474
aVAMQ-4436
p2475
aVAMQ-4435
p2476
aVAMQ-4434
p2477
aVAMQ-4433
p2478
aVAMQ-4432
p2479
aVAMQ-4428
p2480
aVAMQ-4427
p2481
aVAMQ-4426
p2482
aVAMQ-4425
p2483
aVAMQ-4419
p2484
aVAMQ-4418
p2485
aVAMQ-4417
p2486
aVAMQ-4416
p2487
aVAMQ-4415
p2488
aVAMQ-4414
p2489
aVAMQ-4413
p2490
aVAMQ-4412
p2491
aVAMQ-4411
p2492
aVAMQ-4410
p2493
aVAMQ-4409
p2494
aVAMQ-4408
p2495
aVAMQ-4407
p2496
aVAMQ-4406
p2497
aVAMQ-4400
p2498
aVAMQ-4399
p2499
aVAMQ-4398
p2500
aVAMQ-4397
p2501
aVAMQ-4394
p2502
aVAMQ-4393
p2503
aVAMQ-4392
p2504
aVAMQ-4390
p2505
aVAMQ-4389
p2506
aVAMQ-4388
p2507
aVAMQ-4387
p2508
aVAMQ-4386
p2509
aVAMQ-4385
p2510
aVAMQ-4384
p2511
aVAMQ-4383
p2512
aVAMQ-4382
p2513
aVAMQ-4381
p2514
aVAMQ-4380
p2515
aVAMQ-4379
p2516
aVAMQ-4378
p2517
aVAMQ-4377
p2518
aVAMQ-4376
p2519
aVAMQ-4375
p2520
aVAMQ-4374
p2521
aVAMQ-4373
p2522
aVAMQ-4372
p2523
aVAMQ-4371
p2524
aVAMQ-4370
p2525
aVAMQ-4369
p2526
aVAMQ-4368
p2527
aVAMQ-4367
p2528
aVAMQ-4366
p2529
aVAMQ-4365
p2530
aVAMQ-4364
p2531
aVAMQ-4363
p2532
aVAMQ-4362
p2533
aVAMQ-4361
p2534
aVAMQ-4360
p2535
aVAMQ-4359
p2536
aVAMQ-4358
p2537
aVAMQ-4357
p2538
aVAMQ-4356
p2539
aVAMQ-4355
p2540
aVAMQ-4354
p2541
aVAMQ-4353
p2542
aVAMQ-4352
p2543
aVAMQ-4351
p2544
aVAMQ-4350
p2545
aVAMQ-4349
p2546
aVAMQ-4348
p2547
aVAMQ-4347
p2548
aVAMQ-4346
p2549
aVAMQ-4345
p2550
aVAMQ-4343
p2551
aVAMQ-4342
p2552
aVAMQ-4341
p2553
aVAMQ-4340
p2554
aVAMQ-4339
p2555
aVAMQ-4338
p2556
aVAMQ-4337
p2557
aVAMQ-4336
p2558
aVAMQ-4335
p2559
aVAMQ-4334
p2560
aVAMQ-4333
p2561
aVAMQ-4332
p2562
aVAMQ-4331
p2563
aVAMQ-4330
p2564
aVAMQ-4329
p2565
aVAMQ-4328
p2566
aVAMQ-4327
p2567
aVAMQ-4326
p2568
aVAMQ-4325
p2569
aVAMQ-4324
p2570
aVAMQ-4323
p2571
aVAMQ-4322
p2572
aVAMQ-4321
p2573
aVAMQ-4320
p2574
aVAMQ-4319
p2575
aVAMQ-4318
p2576
aVAMQ-4317
p2577
aVAMQ-4316
p2578
aVAMQ-4315
p2579
aVAMQ-4314
p2580
aVAMQ-4313
p2581
aVAMQ-4312
p2582
aVAMQ-4311
p2583
aVAMQ-4310
p2584
aVAMQ-4309
p2585
aVAMQ-4308
p2586
aVAMQ-4307
p2587
aVAMQ-4306
p2588
aVAMQ-4305
p2589
aVAMQ-4304
p2590
aVAMQ-4303
p2591
aVAMQ-4302
p2592
aVAMQ-4300
p2593
aVAMQ-4299
p2594
aVAMQ-4298
p2595
aVAMQ-4297
p2596
aVAMQ-4296
p2597
aVAMQ-4295
p2598
aVAMQ-4294
p2599
aVAMQ-4293
p2600
aVAMQ-4292
p2601
aVAMQ-4291
p2602
aVAMQ-4289
p2603
aVAMQ-4288
p2604
aVAMQ-4287
p2605
aVAMQ-4286
p2606
aVAMQ-4285
p2607
aVAMQ-4284
p2608
aVAMQ-4283
p2609
aVAMQ-4282
p2610
aVAMQ-4281
p2611
aVAMQ-4280
p2612
aVAMQ-4279
p2613
aVAMQ-4278
p2614
aVAMQ-4277
p2615
aVAMQ-4276
p2616
aVAMQ-4275
p2617
aVAMQ-4274
p2618
aVAMQ-4273
p2619
aVAMQ-4272
p2620
aVAMQ-4271
p2621
aVAMQ-4270
p2622
aVAMQ-4269
p2623
aVAMQ-4268
p2624
aVAMQ-4267
p2625
aVAMQ-4266
p2626
aVAMQ-4265
p2627
aVAMQ-4264
p2628
aVAMQ-4263
p2629
aVAMQ-4262
p2630
aVAMQ-4261
p2631
aVAMQ-4260
p2632
aVAMQ-4259
p2633
aVAMQ-4258
p2634
aVAMQ-4257
p2635
aVAMQ-4256
p2636
aVAMQ-4255
p2637
aVAMQ-4254
p2638
aVAMQ-4253
p2639
aVAMQ-4252
p2640
aVAMQ-4251
p2641
aVAMQ-4250
p2642
aVAMQ-4249
p2643
aVAMQ-4248
p2644
aVAMQ-4247
p2645
aVAMQ-4246
p2646
aVAMQ-4245
p2647
aVAMQ-4244
p2648
aVAMQ-4243
p2649
aVAMQ-4242
p2650
aVAMQ-4241
p2651
aVAMQ-4240
p2652
aVAMQ-4239
p2653
aVAMQ-4238
p2654
aVAMQ-4237
p2655
aVAMQ-4236
p2656
aVAMQ-4235
p2657
aVAMQ-4234
p2658
aVAMQ-4233
p2659
aVAMQ-4232
p2660
aVAMQ-4231
p2661
aVAMQ-4230
p2662
aVAMQ-4229
p2663
aVAMQ-4228
p2664
aVAMQ-4227
p2665
aVAMQ-4226
p2666
aVAMQ-4225
p2667
aVAMQ-4224
p2668
aVAMQ-4223
p2669
aVAMQ-4222
p2670
aVAMQ-4221
p2671
aVAMQ-4220
p2672
aVAMQ-4219
p2673
aVAMQ-4218
p2674
aVAMQ-4217
p2675
aVAMQ-4216
p2676
aVAMQ-4215
p2677
aVAMQ-4214
p2678
aVAMQ-4213
p2679
aVAMQ-4212
p2680
aVAMQ-4211
p2681
aVAMQ-4210
p2682
aVAMQ-4209
p2683
aVAMQ-4208
p2684
aVAMQ-4207
p2685
aVAMQ-4206
p2686
aVAMQ-4205
p2687
aVAMQ-4204
p2688
aVAMQ-4203
p2689
aVAMQ-4202
p2690
aVAMQ-4201
p2691
aVAMQ-4200
p2692
aVAMQ-4199
p2693
aVAMQ-4198
p2694
aVAMQ-4197
p2695
aVAMQ-4196
p2696
aVAMQ-4195
p2697
aVAMQ-4194
p2698
aVAMQ-4193
p2699
aVAMQ-4192
p2700
aVAMQ-4191
p2701
aVAMQ-4190
p2702
aVAMQ-4189
p2703
aVAMQ-4188
p2704
aVAMQ-4187
p2705
aVAMQ-4186
p2706
aVAMQ-4185
p2707
aVAMQ-4184
p2708
aVAMQ-4183
p2709
aVAMQ-4182
p2710
aVAMQ-4181
p2711
aVAMQ-4180
p2712
aVAMQ-4179
p2713
aVAMQ-4178
p2714
aVAMQ-4177
p2715
aVAMQ-4176
p2716
aVAMQ-4175
p2717
aVAMQ-4174
p2718
aVAMQ-4173
p2719
aVAMQ-4172
p2720
aVAMQ-4171
p2721
aVAMQ-4170
p2722
aVAMQ-4169
p2723
aVAMQ-4168
p2724
aVAMQ-4167
p2725
aVAMQ-4166
p2726
aVAMQ-4165
p2727
aVAMQ-4164
p2728
aVAMQ-4163
p2729
aVAMQ-4162
p2730
aVAMQ-4161
p2731
aVAMQ-4160
p2732
aVAMQ-4159
p2733
aVAMQ-4158
p2734
aVAMQ-4157
p2735
aVAMQ-4156
p2736
aVAMQ-4155
p2737
aVAMQ-4154
p2738
aVAMQ-4153
p2739
aVAMQ-4152
p2740
aVAMQ-4151
p2741
aVAMQ-4150
p2742
aVAMQ-4149
p2743
aVAMQ-4148
p2744
aVAMQ-4147
p2745
aVAMQ-4146
p2746
aVAMQ-4145
p2747
aVAMQ-4144
p2748
aVAMQ-4143
p2749
aVAMQ-4142
p2750
aVAMQ-4141
p2751
aVAMQ-4140
p2752
aVAMQ-4139
p2753
aVAMQ-4138
p2754
aVAMQ-4137
p2755
aVAMQ-4136
p2756
aVAMQ-4135
p2757
aVAMQ-4134
p2758
aVAMQ-4133
p2759
aVAMQ-4132
p2760
aVAMQ-4131
p2761
aVAMQ-4130
p2762
aVAMQ-4129
p2763
aVAMQ-4128
p2764
aVAMQ-4127
p2765
aVAMQ-4126
p2766
aVAMQ-4125
p2767
aVAMQ-4124
p2768
aVAMQ-4123
p2769
aVAMQ-4122
p2770
aVAMQ-4121
p2771
aVAMQ-4120
p2772
aVAMQ-4119
p2773
aVAMQ-4118
p2774
aVAMQ-4117
p2775
aVAMQ-4116
p2776
aVAMQ-4115
p2777
aVAMQ-4114
p2778
aVAMQ-4113
p2779
aVAMQ-4112
p2780
aVAMQ-4111
p2781
aVAMQ-4110
p2782
aVAMQ-4109
p2783
aVAMQ-4108
p2784
aVAMQ-4107
p2785
aVAMQ-4106
p2786
aVAMQ-4105
p2787
aVAMQ-4104
p2788
aVAMQ-4103
p2789
aVAMQ-4102
p2790
aVAMQ-4100
p2791
aVAMQ-4099
p2792
aVAMQ-4098
p2793
aVAMQ-4097
p2794
aVAMQ-4096
p2795
aVAMQ-4095
p2796
aVAMQ-4094
p2797
aVAMQ-4093
p2798
aVAMQ-4092
p2799
aVAMQ-4091
p2800
aVAMQ-4090
p2801
aVAMQ-4089
p2802
aVAMQ-4088
p2803
aVAMQ-4087
p2804
aVAMQ-4086
p2805
aVAMQ-4085
p2806
aVAMQ-4084
p2807
aVAMQ-4083
p2808
aVAMQ-4082
p2809
aVAMQ-4081
p2810
aVAMQ-4080
p2811
aVAMQ-4079
p2812
aVAMQ-4078
p2813
aVAMQ-4077
p2814
aVAMQ-4076
p2815
aVAMQ-4075
p2816
aVAMQ-4074
p2817
aVAMQ-4073
p2818
aVAMQ-4072
p2819
aVAMQ-4071
p2820
aVAMQ-4070
p2821
aVAMQ-4069
p2822
aVAMQ-4068
p2823
aVAMQ-4067
p2824
aVAMQ-4066
p2825
aVAMQ-4065
p2826
aVAMQ-4064
p2827
aVAMQ-4063
p2828
aVAMQ-4062
p2829
aVAMQ-4061
p2830
aVAMQ-4060
p2831
aVAMQ-4059
p2832
aVAMQ-4058
p2833
aVAMQ-4057
p2834
aVAMQ-4056
p2835
aVAMQ-4055
p2836
aVAMQ-4054
p2837
aVAMQ-4053
p2838
aVAMQ-4052
p2839
aVAMQ-4051
p2840
aVAMQ-4050
p2841
aVAMQ-4049
p2842
aVAMQ-4048
p2843
aVAMQ-4047
p2844
aVAMQ-4046
p2845
aVAMQ-4045
p2846
aVAMQ-4044
p2847
aVAMQ-4043
p2848
aVAMQ-4042
p2849
aVAMQ-4041
p2850
aVAMQ-4040
p2851
aVAMQ-4039
p2852
aVAMQ-4038
p2853
aVAMQ-4037
p2854
aVAMQ-4036
p2855
aVAMQ-4035
p2856
aVAMQ-4034
p2857
aVAMQ-4033
p2858
aVAMQ-4032
p2859
aVAMQ-4031
p2860
aVAMQ-4030
p2861
aVAMQ-4029
p2862
aVAMQ-4028
p2863
aVAMQ-4027
p2864
aVAMQ-4026
p2865
aVAMQ-4025
p2866
aVAMQ-4024
p2867
aVAMQ-4023
p2868
aVAMQ-4022
p2869
aVAMQ-4021
p2870
aVAMQ-4020
p2871
aVAMQ-4019
p2872
aVAMQ-4018
p2873
aVAMQ-4017
p2874
aVAMQ-4016
p2875
aVAMQ-4015
p2876
aVAMQ-4014
p2877
aVAMQ-4013
p2878
aVAMQ-4012
p2879
aVAMQ-4011
p2880
aVAMQ-4010
p2881
aVAMQ-4009
p2882
aVAMQ-4008
p2883
aVAMQ-4007
p2884
aVAMQ-4006
p2885
aVAMQ-4005
p2886
aVAMQ-4004
p2887
aVAMQ-4003
p2888
aVAMQ-4002
p2889
aVAMQ-4001
p2890
aVAMQ-4000
p2891
aVAMQ-3999
p2892
aVAMQ-3998
p2893
aVAMQ-3997
p2894
aVAMQ-3996
p2895
aVAMQ-3995
p2896
aVAMQ-3994
p2897
aVAMQ-3993
p2898
aVAMQ-3992
p2899
aVAMQ-3991
p2900
aVAMQ-3990
p2901
aVAMQ-3989
p2902
aVAMQ-3988
p2903
aVAMQ-3987
p2904
aVAMQ-3986
p2905
aVAMQ-3985
p2906
aVAMQ-3984
p2907
aVAMQ-3983
p2908
aVAMQ-3982
p2909
aVAMQ-3981
p2910
aVAMQ-3980
p2911
aVAMQ-3979
p2912
aVAMQ-3978
p2913
aVAMQ-3977
p2914
aVAMQ-3976
p2915
aVAMQ-3975
p2916
aVAMQ-3974
p2917
aVAMQ-3973
p2918
aVAMQ-3972
p2919
aVAMQ-3971
p2920
aVAMQ-3970
p2921
aVAMQ-3969
p2922
aVAMQ-3968
p2923
aVAMQ-3967
p2924
aVAMQ-3966
p2925
aVAMQ-3965
p2926
aVAMQ-3964
p2927
aVAMQ-3963
p2928
aVAMQ-3962
p2929
aVAMQ-3961
p2930
aVAMQ-3960
p2931
aVAMQ-3959
p2932
aVAMQ-3958
p2933
aVAMQ-3957
p2934
aVAMQ-3956
p2935
aVAMQ-3955
p2936
aVAMQ-3954
p2937
aVAMQ-3953
p2938
aVAMQ-3952
p2939
aVAMQ-3951
p2940
aVAMQ-3950
p2941
aVAMQ-3949
p2942
aVAMQ-3948
p2943
aVAMQ-3947
p2944
aVAMQ-3946
p2945
aVAMQ-3945
p2946
aVAMQ-3944
p2947
aVAMQ-3943
p2948
aVAMQ-3942
p2949
aVAMQ-3941
p2950
aVAMQ-3940
p2951
aVAMQ-3939
p2952
aVAMQ-3938
p2953
aVAMQ-3937
p2954
aVAMQ-3936
p2955
aVAMQ-3935
p2956
aVAMQ-3934
p2957
aVAMQ-3933
p2958
aVAMQ-3932
p2959
aVAMQ-3931
p2960
aVAMQ-3930
p2961
aVAMQ-3929
p2962
aVAMQ-3928
p2963
aVAMQ-3927
p2964
aVAMQ-3926
p2965
aVAMQ-3925
p2966
aVAMQ-3924
p2967
aVAMQ-3923
p2968
aVAMQ-3922
p2969
aVAMQ-3921
p2970
aVAMQ-3920
p2971
aVAMQ-3919
p2972
aVAMQ-3918
p2973
aVAMQ-3917
p2974
aVAMQ-3916
p2975
aVAMQ-3915
p2976
aVAMQ-3914
p2977
aVAMQ-3913
p2978
aVAMQ-3912
p2979
aVAMQ-3911
p2980
aVAMQ-3910
p2981
aVAMQ-3909
p2982
aVAMQ-3908
p2983
aVAMQ-3907
p2984
aVAMQ-3906
p2985
aVAMQ-3905
p2986
aVAMQ-3904
p2987
aVAMQ-3903
p2988
aVAMQ-3902
p2989
aVAMQ-3901
p2990
aVAMQ-3900
p2991
aVAMQ-3899
p2992
aVAMQ-3898
p2993
aVAMQ-3897
p2994
aVAMQ-3896
p2995
aVAMQ-3895
p2996
aVAMQ-3894
p2997
aVAMQ-3893
p2998
aVAMQ-3892
p2999
aVAMQ-3891
p3000
aVAMQ-3890
p3001
aVAMQ-3889
p3002
aVAMQ-3888
p3003
aVAMQ-3887
p3004
aVAMQ-3886
p3005
aVAMQ-3885
p3006
aVAMQ-3884
p3007
aVAMQ-3883
p3008
aVAMQ-3882
p3009
aVAMQ-3881
p3010
aVAMQ-3880
p3011
aVAMQ-3879
p3012
aVAMQ-3878
p3013
aVAMQ-3877
p3014
aVAMQ-3876
p3015
aVAMQ-3875
p3016
aVAMQ-3874
p3017
aVAMQ-3873
p3018
aVAMQ-3872
p3019
aVAMQ-3871
p3020
aVAMQ-3870
p3021
aVAMQ-3869
p3022
aVAMQ-3868
p3023
aVAMQ-3867
p3024
aVAMQ-3866
p3025
aVAMQ-3865
p3026
aVAMQ-3864
p3027
aVAMQ-3863
p3028
aVAMQ-3862
p3029
aVAMQ-3861
p3030
aVAMQ-3860
p3031
aVAMQ-3859
p3032
aVAMQ-3858
p3033
aVAMQ-3857
p3034
aVAMQ-3856
p3035
aVAMQ-3855
p3036
aVAMQ-3854
p3037
aVAMQ-3853
p3038
aVAMQ-3852
p3039
aVAMQ-3851
p3040
aVAMQ-3850
p3041
aVAMQ-3849
p3042
aVAMQ-3848
p3043
aVAMQ-3847
p3044
aVAMQ-3846
p3045
aVAMQ-3845
p3046
aVAMQ-3844
p3047
aVAMQ-3843
p3048
aVAMQ-3842
p3049
aVAMQ-3841
p3050
aVAMQ-3840
p3051
aVAMQ-3839
p3052
aVAMQ-3838
p3053
aVAMQ-3837
p3054
aVAMQ-3836
p3055
aVAMQ-3835
p3056
aVAMQ-3834
p3057
aVAMQ-3833
p3058
aVAMQ-3832
p3059
aVAMQ-3831
p3060
aVAMQ-3830
p3061
aVAMQ-3829
p3062
aVAMQ-3828
p3063
aVAMQ-3827
p3064
aVAMQ-3826
p3065
aVAMQ-3825
p3066
aVAMQ-3824
p3067
aVAMQ-3823
p3068
aVAMQ-3822
p3069
aVAMQ-3821
p3070
aVAMQ-3820
p3071
aVAMQ-3819
p3072
aVAMQ-3818
p3073
aVAMQ-3817
p3074
aVAMQ-3816
p3075
aVAMQ-3815
p3076
aVAMQ-3814
p3077
aVAMQ-3813
p3078
aVAMQ-3812
p3079
aVAMQ-3811
p3080
aVAMQ-3810
p3081
aVAMQ-3809
p3082
aVAMQ-3808
p3083
aVAMQ-3807
p3084
aVAMQ-3806
p3085
aVAMQ-3805
p3086
aVAMQ-3804
p3087
aVAMQ-3803
p3088
aVAMQ-3802
p3089
aVAMQ-3801
p3090
aVAMQ-3800
p3091
aVAMQ-3799
p3092
aVAMQ-3798
p3093
aVAMQ-3797
p3094
aVAMQ-3796
p3095
aVAMQ-3795
p3096
aVAMQ-3794
p3097
aVAMQ-3793
p3098
aVAMQ-3792
p3099
aVAMQ-3791
p3100
aVAMQ-3790
p3101
aVAMQ-3789
p3102
aVAMQ-3788
p3103
aVAMQ-3787
p3104
aVAMQ-3786
p3105
aVAMQ-3785
p3106
aVAMQ-3784
p3107
aVAMQ-3783
p3108
aVAMQ-3782
p3109
aVAMQ-3781
p3110
aVAMQ-3780
p3111
aVAMQ-3779
p3112
aVAMQ-3778
p3113
aVAMQ-3777
p3114
aVAMQ-3776
p3115
aVAMQ-3775
p3116
aVAMQ-3774
p3117
aVAMQ-3773
p3118
aVAMQ-3772
p3119
aVAMQ-3771
p3120
aVAMQ-3770
p3121
aVAMQ-3769
p3122
aVAMQ-3768
p3123
aVAMQ-3767
p3124
aVAMQ-3766
p3125
aVAMQ-3765
p3126
aVAMQ-3764
p3127
aVAMQ-3763
p3128
aVAMQ-3762
p3129
aVAMQ-3760
p3130
aVAMQ-3759
p3131
aVAMQ-3758
p3132
aVAMQ-3757
p3133
aVAMQ-3756
p3134
aVAMQ-3755
p3135
aVAMQ-3754
p3136
aVAMQ-3753
p3137
aVAMQ-3752
p3138
aVAMQ-3751
p3139
aVAMQ-3750
p3140
aVAMQ-3749
p3141
aVAMQ-3748
p3142
aVAMQ-3747
p3143
aVAMQ-3746
p3144
aVAMQ-3745
p3145
aVAMQ-3744
p3146
aVAMQ-3743
p3147
aVAMQ-3742
p3148
aVAMQ-3741
p3149
aVAMQ-3740
p3150
aVAMQ-3739
p3151
aVAMQ-3738
p3152
aVAMQ-3737
p3153
aVAMQ-3736
p3154
aVAMQ-3735
p3155
aVAMQ-3734
p3156
aVAMQ-3733
p3157
aVAMQ-3732
p3158
aVAMQ-3731
p3159
aVAMQ-3730
p3160
aVAMQ-3729
p3161
aVAMQ-3728
p3162
aVAMQ-3727
p3163
aVAMQ-3726
p3164
aVAMQ-3725
p3165
aVAMQ-3724
p3166
aVAMQ-3723
p3167
aVAMQ-3722
p3168
aVAMQ-3721
p3169
aVAMQ-3720
p3170
aVAMQ-3719
p3171
aVAMQ-3718
p3172
aVAMQ-3717
p3173
aVAMQ-3716
p3174
aVAMQ-3715
p3175
aVAMQ-3714
p3176
aVAMQ-3713
p3177
aVAMQ-3712
p3178
aVAMQ-3710
p3179
aVAMQ-3709
p3180
aVAMQ-3707
p3181
aVAMQ-3706
p3182
aVAMQ-3705
p3183
aVAMQ-3704
p3184
aVAMQ-3703
p3185
aVAMQ-3702
p3186
aVAMQ-3701
p3187
aVAMQ-3700
p3188
aVAMQ-3699
p3189
aVAMQ-3698
p3190
aVAMQ-3697
p3191
aVAMQ-3696
p3192
aVAMQ-3695
p3193
aVAMQ-3694
p3194
aVAMQ-3693
p3195
aVAMQ-3692
p3196
aVAMQ-3691
p3197
aVAMQ-3690
p3198
aVAMQ-3689
p3199
aVAMQ-3688
p3200
aVAMQ-3687
p3201
aVAMQ-3686
p3202
aVAMQ-3685
p3203
aVAMQ-3684
p3204
aVAMQ-3683
p3205
aVAMQ-3682
p3206
aVAMQ-3681
p3207
aVAMQ-3680
p3208
aVAMQ-3679
p3209
aVAMQ-3678
p3210
aVAMQ-3677
p3211
aVAMQ-3676
p3212
aVAMQ-3675
p3213
aVAMQ-3674
p3214
aVAMQ-3673
p3215
aVAMQ-3672
p3216
aVAMQ-3671
p3217
aVAMQ-3670
p3218
aVAMQ-3669
p3219
aVAMQ-3668
p3220
aVAMQ-3667
p3221
aVAMQ-3666
p3222
aVAMQ-3665
p3223
aVAMQ-3664
p3224
aVAMQ-3663
p3225
aVAMQ-3662
p3226
aVAMQ-3661
p3227
aVAMQ-3660
p3228
aVAMQ-3659
p3229
aVAMQ-3658
p3230
aVAMQ-3657
p3231
aVAMQ-3656
p3232
aVAMQ-3655
p3233
aVAMQ-3654
p3234
aVAMQ-3653
p3235
aVAMQ-3652
p3236
aVAMQ-3651
p3237
aVAMQ-3650
p3238
aVAMQ-3649
p3239
aVAMQ-3648
p3240
aVAMQ-3647
p3241
aVAMQ-3646
p3242
aVAMQ-3645
p3243
aVAMQ-3644
p3244
aVAMQ-3643
p3245
aVAMQ-3642
p3246
aVAMQ-3641
p3247
aVAMQ-3639
p3248
aVAMQ-3638
p3249
aVAMQ-3637
p3250
aVAMQ-3636
p3251
aVAMQ-3635
p3252
aVAMQ-3634
p3253
aVAMQ-3633
p3254
aVAMQ-3632
p3255
aVAMQ-3631
p3256
aVAMQ-3630
p3257
aVAMQ-3629
p3258
aVAMQ-3628
p3259
aVAMQ-3627
p3260
aVAMQ-3626
p3261
aVAMQ-3625
p3262
aVAMQ-3624
p3263
aVAMQ-3623
p3264
aVAMQ-3622
p3265
aVAMQ-3621
p3266
aVAMQ-3620
p3267
aVAMQ-3619
p3268
aVAMQ-3618
p3269
aVAMQ-3617
p3270
aVAMQ-3616
p3271
aVAMQ-3615
p3272
aVAMQ-3614
p3273
aVAMQ-3613
p3274
aVAMQ-3612
p3275
aVAMQ-3611
p3276
aVAMQ-3610
p3277
aVAMQ-3609
p3278
aVAMQ-3608
p3279
aVAMQ-3607
p3280
aVAMQ-3606
p3281
aVAMQ-3605
p3282
aVAMQ-3604
p3283
aVAMQ-3603
p3284
aVAMQ-3602
p3285
aVAMQ-3601
p3286
aVAMQ-3600
p3287
aVAMQ-3599
p3288
aVAMQ-3598
p3289
aVAMQ-3597
p3290
aVAMQ-3596
p3291
aVAMQ-3595
p3292
aVAMQ-3594
p3293
aVAMQ-3593
p3294
aVAMQ-3592
p3295
aVAMQ-3591
p3296
aVAMQ-3590
p3297
aVAMQ-3589
p3298
aVAMQ-3588
p3299
aVAMQ-3587
p3300
aVAMQ-3586
p3301
aVAMQ-3585
p3302
aVAMQ-3584
p3303
aVAMQ-3583
p3304
aVAMQ-3582
p3305
aVAMQ-3581
p3306
aVAMQ-3580
p3307
aVAMQ-3579
p3308
aVAMQ-3578
p3309
aVAMQ-3577
p3310
aVAMQ-3576
p3311
aVAMQ-3575
p3312
aVAMQ-3574
p3313
aVAMQ-3573
p3314
aVAMQ-3572
p3315
aVAMQ-3571
p3316
aVAMQ-3570
p3317
aVAMQ-3569
p3318
aVAMQ-3568
p3319
aVAMQ-3567
p3320
aVAMQ-3566
p3321
aVAMQ-3565
p3322
aVAMQ-3564
p3323
aVAMQ-3563
p3324
aVAMQ-3562
p3325
aVAMQ-3561
p3326
aVAMQ-3560
p3327
aVAMQ-3559
p3328
aVAMQ-3558
p3329
aVAMQ-3557
p3330
aVAMQ-3556
p3331
aVAMQ-3555
p3332
aVAMQ-3554
p3333
aVAMQ-3553
p3334
aVAMQ-3552
p3335
aVAMQ-3551
p3336
aVAMQ-3550
p3337
aVAMQ-3549
p3338
aVAMQ-3548
p3339
aVAMQ-3547
p3340
aVAMQ-3546
p3341
aVAMQ-3545
p3342
aVAMQ-3544
p3343
aVAMQ-3543
p3344
aVAMQ-3542
p3345
aVAMQ-3541
p3346
aVAMQ-3540
p3347
aVAMQ-3539
p3348
aVAMQ-3538
p3349
aVAMQ-3537
p3350
aVAMQ-3536
p3351
aVAMQ-3535
p3352
aVAMQ-3534
p3353
aVAMQ-3533
p3354
aVAMQ-3532
p3355
aVAMQ-3531
p3356
aVAMQ-3530
p3357
aVAMQ-3529
p3358
aVAMQ-3528
p3359
aVAMQ-3527
p3360
aVAMQ-3526
p3361
aVAMQ-3525
p3362
aVAMQ-3524
p3363
aVAMQ-3523
p3364
aVAMQ-3522
p3365
aVAMQ-3521
p3366
aVAMQ-3520
p3367
aVAMQ-3519
p3368
aVAMQ-3518
p3369
aVAMQ-3517
p3370
aVAMQ-3516
p3371
aVAMQ-3515
p3372
aVAMQ-3514
p3373
aVAMQ-3513
p3374
aVAMQ-3512
p3375
aVAMQ-3511
p3376
aVAMQ-3510
p3377
aVAMQ-3509
p3378
aVAMQ-3508
p3379
aVAMQ-3507
p3380
aVAMQ-3506
p3381
aVAMQ-3505
p3382
aVAMQ-3504
p3383
aVAMQ-3503
p3384
aVAMQ-3502
p3385
aVAMQ-3501
p3386
aVAMQ-3500
p3387
aVAMQ-3499
p3388
aVAMQ-3498
p3389
aVAMQ-3497
p3390
aVAMQ-3496
p3391
aVAMQ-3495
p3392
aVAMQ-3494
p3393
aVAMQ-3493
p3394
aVAMQ-3492
p3395
aVAMQ-3491
p3396
aVAMQ-3490
p3397
aVAMQ-3489
p3398
aVAMQ-3488
p3399
aVAMQ-3487
p3400
aVAMQ-3486
p3401
aVAMQ-3485
p3402
aVAMQ-3484
p3403
aVAMQ-3483
p3404
aVAMQ-3482
p3405
aVAMQ-3481
p3406
aVAMQ-3480
p3407
aVAMQ-3479
p3408
aVAMQ-3478
p3409
aVAMQ-3477
p3410
aVAMQ-3476
p3411
aVAMQ-3475
p3412
aVAMQ-3474
p3413
aVAMQ-3473
p3414
aVAMQ-3472
p3415
aVAMQ-3471
p3416
aVAMQ-3470
p3417
aVAMQ-3469
p3418
aVAMQ-3468
p3419
aVAMQ-3467
p3420
aVAMQ-3466
p3421
aVAMQ-3465
p3422
aVAMQ-3464
p3423
aVAMQ-3463
p3424
aVAMQ-3462
p3425
aVAMQ-3461
p3426
aVAMQ-3460
p3427
aVAMQ-3459
p3428
aVAMQ-3458
p3429
aVAMQ-3457
p3430
aVAMQ-3456
p3431
aVAMQ-3455
p3432
aVAMQ-3454
p3433
aVAMQ-3453
p3434
aVAMQ-3452
p3435
aVAMQ-3451
p3436
aVAMQ-3450
p3437
aVAMQ-3449
p3438
aVAMQ-3448
p3439
aVAMQ-3447
p3440
aVAMQ-3446
p3441
aVAMQ-3445
p3442
aVAMQ-3444
p3443
aVAMQ-3443
p3444
aVAMQ-3442
p3445
aVAMQ-3441
p3446
aVAMQ-3439
p3447
aVAMQ-3438
p3448
aVAMQ-3437
p3449
aVAMQ-3436
p3450
aVAMQ-3435
p3451
aVAMQ-3434
p3452
aVAMQ-3433
p3453
aVAMQ-3432
p3454
aVAMQ-3431
p3455
aVAMQ-3430
p3456
aVAMQ-3427
p3457
aVAMQ-3426
p3458
aVAMQ-3425
p3459
aVAMQ-3424
p3460
aVAMQ-3423
p3461
aVAMQ-3422
p3462
aVAMQ-3421
p3463
aVAMQ-3420
p3464
aVAMQ-3419
p3465
aVAMQ-3418
p3466
aVAMQ-3417
p3467
aVAMQ-3416
p3468
aVAMQ-3415
p3469
aVAMQ-3414
p3470
aVAMQ-3413
p3471
aVAMQ-3412
p3472
aVAMQ-3411
p3473
aVAMQ-3410
p3474
aVAMQ-3409
p3475
aVAMQ-3408
p3476
aVAMQ-3407
p3477
aVAMQ-3406
p3478
aVAMQ-3405
p3479
aVAMQ-3404
p3480
aVAMQ-3403
p3481
aVAMQ-3402
p3482
aVAMQ-3401
p3483
aVAMQ-3400
p3484
aVAMQ-3399
p3485
aVAMQ-3398
p3486
aVAMQ-3397
p3487
aVAMQ-3396
p3488
aVAMQ-3395
p3489
aVAMQ-3394
p3490
aVAMQ-3393
p3491
aVAMQ-3392
p3492
aVAMQ-3389
p3493
aVAMQ-3388
p3494
aVAMQ-3387
p3495
aVAMQ-3386
p3496
aVAMQ-3385
p3497
aVAMQ-3384
p3498
aVAMQ-3383
p3499
aVAMQ-3382
p3500
aVAMQ-3381
p3501
aVAMQ-3380
p3502
aVAMQ-3379
p3503
aVAMQ-3378
p3504
aVAMQ-3377
p3505
aVAMQ-3376
p3506
aVAMQ-3375
p3507
aVAMQ-3374
p3508
aVAMQ-3373
p3509
aVAMQ-3372
p3510
aVAMQ-3371
p3511
aVAMQ-3370
p3512
aVAMQ-3369
p3513
aVAMQ-3368
p3514
aVAMQ-3367
p3515
aVAMQ-3366
p3516
aVAMQ-3365
p3517
aVAMQ-3364
p3518
aVAMQ-3363
p3519
aVAMQ-3362
p3520
aVAMQ-3361
p3521
aVAMQ-3360
p3522
aVAMQ-3359
p3523
aVAMQ-3358
p3524
aVAMQ-3357
p3525
aVAMQ-3356
p3526
aVAMQ-3355
p3527
aVAMQ-3353
p3528
aVAMQ-3352
p3529
aVAMQ-3351
p3530
aVAMQ-3350
p3531
aVAMQ-3349
p3532
aVAMQ-3348
p3533
aVAMQ-3347
p3534
aVAMQ-3346
p3535
aVAMQ-3345
p3536
aVAMQ-3344
p3537
aVAMQ-3343
p3538
aVAMQ-3342
p3539
aVAMQ-3341
p3540
aVAMQ-3340
p3541
aVAMQ-3339
p3542
aVAMQ-3338
p3543
aVAMQ-3337
p3544
aVAMQ-3336
p3545
aVAMQ-3335
p3546
aVAMQ-3334
p3547
aVAMQ-3333
p3548
aVAMQ-3332
p3549
aVAMQ-3331
p3550
aVAMQ-3330
p3551
aVAMQ-3329
p3552
aVAMQ-3328
p3553
aVAMQ-3327
p3554
aVAMQ-3326
p3555
aVAMQ-3325
p3556
aVAMQ-3324
p3557
aVAMQ-3323
p3558
aVAMQ-3322
p3559
aVAMQ-3321
p3560
aVAMQ-3320
p3561
aVAMQ-3319
p3562
aVAMQ-3316
p3563
aVAMQ-3315
p3564
aVAMQ-3314
p3565
aVAMQ-3313
p3566
aVAMQ-3312
p3567
aVAMQ-3311
p3568
aVAMQ-3310
p3569
aVAMQ-3309
p3570
aVAMQ-3308
p3571
aVAMQ-3307
p3572
aVAMQ-3306
p3573
aVAMQ-3305
p3574
aVAMQ-3304
p3575
aVAMQ-3303
p3576
aVAMQ-3302
p3577
aVAMQ-3301
p3578
aVAMQ-3300
p3579
aVAMQ-3299
p3580
aVAMQ-3298
p3581
aVAMQ-3297
p3582
aVAMQ-3296
p3583
aVAMQ-3294
p3584
aVAMQ-3293
p3585
aVAMQ-3292
p3586
aVAMQ-3291
p3587
aVAMQ-3290
p3588
aVAMQ-3289
p3589
aVAMQ-3288
p3590
aVAMQ-3287
p3591
aVAMQ-3286
p3592
aVAMQ-3285
p3593
aVAMQ-3284
p3594
aVAMQ-3283
p3595
aVAMQ-3282
p3596
aVAMQ-3281
p3597
aVAMQ-3280
p3598
aVAMQ-3279
p3599
aVAMQ-3278
p3600
aVAMQ-3277
p3601
aVAMQ-3276
p3602
aVAMQ-3275
p3603
aVAMQ-3274
p3604
aVAMQ-3273
p3605
aVAMQ-3272
p3606
aVAMQ-3271
p3607
aVAMQ-3270
p3608
aVAMQ-3269
p3609
aVAMQ-3268
p3610
aVAMQ-3263
p3611
aVAMQ-3262
p3612
aVAMQ-3261
p3613
aVAMQ-3260
p3614
aVAMQ-3259
p3615
aVAMQ-3257
p3616
aVAMQ-3256
p3617
aVAMQ-3255
p3618
aVAMQ-3254
p3619
aVAMQ-3253
p3620
aVAMQ-3252
p3621
aVAMQ-3251
p3622
aVAMQ-3249
p3623
aVAMQ-3248
p3624
aVAMQ-3247
p3625
aVAMQ-3246
p3626
aVAMQ-3245
p3627
aVAMQ-3244
p3628
aVAMQ-3243
p3629
aVAMQ-3242
p3630
aVAMQ-3241
p3631
aVAMQ-3240
p3632
aVAMQ-3239
p3633
aVAMQ-3238
p3634
aVAMQ-3237
p3635
aVAMQ-3236
p3636
aVAMQ-3235
p3637
aVAMQ-3234
p3638
aVAMQ-3233
p3639
aVAMQ-3232
p3640
aVAMQ-3231
p3641
aVAMQ-3230
p3642
aVAMQ-3229
p3643
aVAMQ-3228
p3644
aVAMQ-3227
p3645
aVAMQ-3226
p3646
aVAMQ-3225
p3647
aVAMQ-3224
p3648
aVAMQ-3223
p3649
aVAMQ-3222
p3650
aVAMQ-3221
p3651
aVAMQ-3220
p3652
aVAMQ-3219
p3653
aVAMQ-3218
p3654
aVAMQ-3217
p3655
aVAMQ-3216
p3656
aVAMQ-3215
p3657
aVAMQ-3214
p3658
aVAMQ-3213
p3659
aVAMQ-3212
p3660
aVAMQ-3211
p3661
aVAMQ-3210
p3662
aVAMQ-3209
p3663
aVAMQ-3208
p3664
aVAMQ-3207
p3665
aVAMQ-3206
p3666
aVAMQ-3205
p3667
aVAMQ-3204
p3668
aVAMQ-3203
p3669
aVAMQ-3202
p3670
aVAMQ-3200
p3671
aVAMQ-3199
p3672
aVAMQ-3198
p3673
aVAMQ-3197
p3674
aVAMQ-3196
p3675
aVAMQ-3195
p3676
aVAMQ-3194
p3677
aVAMQ-3193
p3678
aVAMQ-3192
p3679
aVAMQ-3191
p3680
aVAMQ-3190
p3681
aVAMQ-3189
p3682
aVAMQ-3188
p3683
aVAMQ-3187
p3684
aVAMQ-3186
p3685
aVAMQ-3185
p3686
aVAMQ-3184
p3687
aVAMQ-3183
p3688
aVAMQ-3182
p3689
aVAMQ-3181
p3690
aVAMQ-3180
p3691
aVAMQ-3179
p3692
aVAMQ-3178
p3693
aVAMQ-3177
p3694
aVAMQ-3176
p3695
aVAMQ-3175
p3696
aVAMQ-3174
p3697
aVAMQ-3173
p3698
aVAMQ-3172
p3699
aVAMQ-3171
p3700
aVAMQ-3170
p3701
aVAMQ-3169
p3702
aVAMQ-3168
p3703
aVAMQ-3167
p3704
aVAMQ-3166
p3705
aVAMQ-3165
p3706
aVAMQ-3164
p3707
aVAMQ-3163
p3708
aVAMQ-3162
p3709
aVAMQ-3161
p3710
aVAMQ-3160
p3711
aVAMQ-3159
p3712
aVAMQ-3158
p3713
aVAMQ-3157
p3714
aVAMQ-3156
p3715
aVAMQ-3155
p3716
aVAMQ-3154
p3717
aVAMQ-3153
p3718
aVAMQ-3152
p3719
aVAMQ-3151
p3720
aVAMQ-3150
p3721
aVAMQ-3149
p3722
aVAMQ-3148
p3723
aVAMQ-3147
p3724
aVAMQ-3146
p3725
aVAMQ-3145
p3726
aVAMQ-3144
p3727
aVAMQ-3143
p3728
aVAMQ-3142
p3729
aVAMQ-3141
p3730
aVAMQ-3140
p3731
aVAMQ-3139
p3732
aVAMQ-3138
p3733
aVAMQ-3137
p3734
aVAMQ-3136
p3735
aVAMQ-3135
p3736
aVAMQ-3134
p3737
aVAMQ-3133
p3738
aVAMQ-3132
p3739
aVAMQ-3131
p3740
aVAMQ-3130
p3741
aVAMQ-3129
p3742
aVAMQ-3128
p3743
aVAMQ-3127
p3744
aVAMQ-3126
p3745
aVAMQ-3125
p3746
aVAMQ-3124
p3747
aVAMQ-3123
p3748
aVAMQ-3122
p3749
aVAMQ-3121
p3750
aVAMQ-3120
p3751
aVAMQ-3119
p3752
aVAMQ-3118
p3753
aVAMQ-3117
p3754
aVAMQ-3116
p3755
aVAMQ-3115
p3756
aVAMQ-3114
p3757
aVAMQ-3113
p3758
aVAMQ-3112
p3759
aVAMQ-3111
p3760
aVAMQ-3110
p3761
aVAMQ-3109
p3762
aVAMQ-3108
p3763
aVAMQ-3107
p3764
aVAMQ-3106
p3765
aVAMQ-3105
p3766
aVAMQ-3104
p3767
aVAMQ-3103
p3768
aVAMQ-3102
p3769
aVAMQ-3101
p3770
aVAMQ-3100
p3771
aVAMQ-3099
p3772
aVAMQ-3098
p3773
aVAMQ-3097
p3774
aVAMQ-3096
p3775
aVAMQ-3095
p3776
aVAMQ-3094
p3777
aVAMQ-3093
p3778
aVAMQ-3092
p3779
aVAMQ-3091
p3780
aVAMQ-3090
p3781
aVAMQ-3089
p3782
aVAMQ-3088
p3783
aVAMQ-3087
p3784
aVAMQ-3085
p3785
aVAMQ-3084
p3786
aVAMQ-3083
p3787
aVAMQ-3082
p3788
aVAMQ-3081
p3789
aVAMQ-3080
p3790
aVAMQ-3079
p3791
aVAMQ-3078
p3792
aVAMQ-3077
p3793
aVAMQ-3076
p3794
aVAMQ-3075
p3795
aVAMQ-3074
p3796
aVAMQ-3073
p3797
aVAMQ-3072
p3798
aVAMQ-3071
p3799
aVAMQ-3070
p3800
aVAMQ-3069
p3801
aVAMQ-3068
p3802
aVAMQ-3067
p3803
aVAMQ-3066
p3804
aVAMQ-3065
p3805
aVAMQ-3064
p3806
aVAMQ-3063
p3807
aVAMQ-3062
p3808
aVAMQ-3061
p3809
aVAMQ-3060
p3810
aVAMQ-3059
p3811
aVAMQ-3058
p3812
aVAMQ-3057
p3813
aVAMQ-3056
p3814
aVAMQ-3055
p3815
aVAMQ-3054
p3816
aVAMQ-3053
p3817
aVAMQ-3052
p3818
aVAMQ-3051
p3819
aVAMQ-3050
p3820
aVAMQ-3049
p3821
aVAMQ-3048
p3822
aVAMQ-3047
p3823
aVAMQ-3046
p3824
aVAMQ-3045
p3825
aVAMQ-3044
p3826
aVAMQ-3043
p3827
aVAMQ-3042
p3828
aVAMQ-3041
p3829
aVAMQ-3040
p3830
aVAMQ-3039
p3831
aVAMQ-3038
p3832
aVAMQ-3037
p3833
aVAMQ-3036
p3834
aVAMQ-3035
p3835
aVAMQ-3034
p3836
aVAMQ-3033
p3837
aVAMQ-3032
p3838
aVAMQ-3031
p3839
aVAMQ-3030
p3840
aVAMQ-3029
p3841
aVAMQ-3028
p3842
aVAMQ-3027
p3843
aVAMQ-3026
p3844
aVAMQ-3025
p3845
aVAMQ-3024
p3846
aVAMQ-3023
p3847
aVAMQ-3022
p3848
aVAMQ-3021
p3849
aVAMQ-3020
p3850
aVAMQ-3019
p3851
aVAMQ-3018
p3852
aVAMQ-3017
p3853
aVAMQ-3016
p3854
aVAMQ-3015
p3855
aVAMQ-3014
p3856
aVAMQ-3013
p3857
aVAMQ-3012
p3858
aVAMQ-3011
p3859
aVAMQ-3010
p3860
aVAMQ-3009
p3861
aVAMQ-3008
p3862
aVAMQ-3007
p3863
aVAMQ-3006
p3864
aVAMQ-3005
p3865
aVAMQ-3004
p3866
aVAMQ-3003
p3867
aVAMQ-3002
p3868
aVAMQ-3001
p3869
aVAMQ-3000
p3870
aVAMQ-2999
p3871
aVAMQ-2998
p3872
aVAMQ-2997
p3873
aVAMQ-2996
p3874
aVAMQ-2995
p3875
aVAMQ-2994
p3876
aVAMQ-2993
p3877
aVAMQ-2992
p3878
aVAMQ-2991
p3879
aVAMQ-2990
p3880
aVAMQ-2989
p3881
aVAMQ-2988
p3882
aVAMQ-2987
p3883
aVAMQ-2986
p3884
aVAMQ-2985
p3885
aVAMQ-2984
p3886
aVAMQ-2983
p3887
aVAMQ-2982
p3888
aVAMQ-2981
p3889
aVAMQ-2980
p3890
aVAMQ-2979
p3891
aVAMQ-2978
p3892
aVAMQ-2977
p3893
aVAMQ-2976
p3894
aVAMQ-2975
p3895
aVAMQ-2974
p3896
aVAMQ-2973
p3897
aVAMQ-2972
p3898
aVAMQ-2971
p3899
aVAMQ-2970
p3900
aVAMQ-2969
p3901
aVAMQ-2968
p3902
aVAMQ-2967
p3903
aVAMQ-2966
p3904
aVAMQ-2965
p3905
aVAMQ-2964
p3906
aVAMQ-2963
p3907
aVAMQ-2962
p3908
aVAMQ-2961
p3909
aVAMQ-2960
p3910
aVAMQ-2959
p3911
aVAMQ-2958
p3912
aVAMQ-2957
p3913
aVAMQ-2956
p3914
aVAMQ-2955
p3915
aVAMQ-2954
p3916
aVAMQ-2953
p3917
aVAMQ-2952
p3918
aVAMQ-2951
p3919
aVAMQ-2950
p3920
aVAMQ-2949
p3921
aVAMQ-2948
p3922
aVAMQ-2947
p3923
aVAMQ-2946
p3924
aVAMQ-2945
p3925
aVAMQ-2944
p3926
aVAMQ-2943
p3927
aVAMQ-2942
p3928
aVAMQ-2941
p3929
aVAMQ-2940
p3930
aVAMQ-2939
p3931
aVAMQ-2938
p3932
aVAMQ-2937
p3933
aVAMQ-2936
p3934
aVAMQ-2935
p3935
aVAMQ-2934
p3936
aVAMQ-2933
p3937
aVAMQ-2932
p3938
aVAMQ-2931
p3939
aVAMQ-2930
p3940
aVAMQ-2929
p3941
aVAMQ-2928
p3942
aVAMQ-2927
p3943
aVAMQ-2926
p3944
aVAMQ-2925
p3945
aVAMQ-2924
p3946
aVAMQ-2923
p3947
aVAMQ-2922
p3948
aVAMQ-2921
p3949
aVAMQ-2920
p3950
aVAMQ-2919
p3951
aVAMQ-2918
p3952
aVAMQ-2917
p3953
aVAMQ-2916
p3954
aVAMQ-2915
p3955
aVAMQ-2914
p3956
aVAMQ-2913
p3957
aVAMQ-2912
p3958
aVAMQ-2911
p3959
aVAMQ-2910
p3960
aVAMQ-2909
p3961
aVAMQ-2908
p3962
aVAMQ-2907
p3963
aVAMQ-2906
p3964
aVAMQ-2905
p3965
aVAMQ-2904
p3966
aVAMQ-2903
p3967
aVAMQ-2902
p3968
aVAMQ-2901
p3969
aVAMQ-2900
p3970
aVAMQ-2899
p3971
aVAMQ-2898
p3972
aVAMQ-2897
p3973
aVAMQ-2896
p3974
aVAMQ-2895
p3975
aVAMQ-2894
p3976
aVAMQ-2893
p3977
aVAMQ-2892
p3978
aVAMQ-2891
p3979
aVAMQ-2890
p3980
aVAMQ-2889
p3981
aVAMQ-2888
p3982
aVAMQ-2887
p3983
aVAMQ-2886
p3984
aVAMQ-2885
p3985
aVAMQ-2884
p3986
aVAMQ-2883
p3987
aVAMQ-2882
p3988
aVAMQ-2881
p3989
aVAMQ-2880
p3990
aVAMQ-2879
p3991
aVAMQ-2878
p3992
aVAMQ-2877
p3993
aVAMQ-2876
p3994
aVAMQ-2875
p3995
aVAMQ-2874
p3996
aVAMQ-2873
p3997
aVAMQ-2872
p3998
aVAMQ-2871
p3999
aVAMQ-2870
p4000
aVAMQ-2869
p4001
aVAMQ-2868
p4002
aVAMQ-2867
p4003
aVAMQ-2866
p4004
aVAMQ-2865
p4005
aVAMQ-2864
p4006
aVAMQ-2863
p4007
aVAMQ-2862
p4008
aVAMQ-2861
p4009
aVAMQ-2860
p4010
aVAMQ-2859
p4011
aVAMQ-2858
p4012
aVAMQ-2857
p4013
aVAMQ-2856
p4014
aVAMQ-2855
p4015
aVAMQ-2854
p4016
aVAMQ-2853
p4017
aVAMQ-2852
p4018
aVAMQ-2851
p4019
aVAMQ-2850
p4020
aVAMQ-2849
p4021
aVAMQ-2848
p4022
aVAMQ-2847
p4023
aVAMQ-2846
p4024
aVAMQ-2845
p4025
aVAMQ-2844
p4026
aVAMQ-2843
p4027
aVAMQ-2842
p4028
aVAMQ-2841
p4029
aVAMQ-2840
p4030
aVAMQ-2839
p4031
aVAMQ-2838
p4032
aVAMQ-2837
p4033
aVAMQ-2836
p4034
aVAMQ-2835
p4035
aVAMQ-2834
p4036
aVAMQ-2833
p4037
aVAMQ-2832
p4038
aVAMQ-2831
p4039
aVAMQ-2830
p4040
aVAMQ-2829
p4041
aVAMQ-2828
p4042
aVAMQ-2827
p4043
aVAMQ-2826
p4044
aVAMQ-2825
p4045
aVAMQ-2824
p4046
aVAMQ-2823
p4047
aVAMQ-2822
p4048
aVAMQ-2821
p4049
aVAMQ-2820
p4050
aVAMQ-2819
p4051
aVAMQ-2818
p4052
aVAMQ-2817
p4053
aVAMQ-2816
p4054
aVAMQ-2815
p4055
aVAMQ-2814
p4056
aVAMQ-2813
p4057
aVAMQ-2812
p4058
aVAMQ-2811
p4059
aVAMQ-2810
p4060
aVAMQ-2809
p4061
aVAMQ-2808
p4062
aVAMQ-2807
p4063
aVAMQ-2806
p4064
aVAMQ-2805
p4065
aVAMQ-2804
p4066
aVAMQ-2803
p4067
aVAMQ-2802
p4068
aVAMQ-2801
p4069
aVAMQ-2800
p4070
aVAMQ-2799
p4071
aVAMQ-2798
p4072
aVAMQ-2797
p4073
aVAMQ-2796
p4074
aVAMQ-2795
p4075
aVAMQ-2794
p4076
aVAMQ-2793
p4077
aVAMQ-2792
p4078
aVAMQ-2791
p4079
aVAMQ-2790
p4080
aVAMQ-2789
p4081
aVAMQ-2788
p4082
aVAMQ-2787
p4083
aVAMQ-2786
p4084
aVAMQ-2785
p4085
aVAMQ-2784
p4086
aVAMQ-2783
p4087
aVAMQ-2782
p4088
aVAMQ-2781
p4089
aVAMQ-2780
p4090
aVAMQ-2779
p4091
aVAMQ-2778
p4092
aVAMQ-2777
p4093
aVAMQ-2776
p4094
aVAMQ-2775
p4095
aVAMQ-2774
p4096
aVAMQ-2773
p4097
aVAMQ-2772
p4098
aVAMQ-2771
p4099
aVAMQ-2770
p4100
aVAMQ-2769
p4101
aVAMQ-2768
p4102
aVAMQ-2767
p4103
aVAMQ-2766
p4104
aVAMQ-2765
p4105
aVAMQ-2764
p4106
aVAMQ-2763
p4107
aVAMQ-2762
p4108
aVAMQ-2761
p4109
aVAMQ-2760
p4110
aVAMQ-2759
p4111
aVAMQ-2758
p4112
aVAMQ-2757
p4113
aVAMQ-2756
p4114
aVAMQ-2755
p4115
aVAMQ-2754
p4116
aVAMQ-2753
p4117
aVAMQ-2752
p4118
aVAMQ-2751
p4119
aVAMQ-2750
p4120
aVAMQ-2749
p4121
aVAMQ-2748
p4122
aVAMQ-2747
p4123
aVAMQ-2746
p4124
aVAMQ-2745
p4125
aVAMQ-2744
p4126
aVAMQ-2743
p4127
aVAMQ-2742
p4128
aVAMQ-2741
p4129
aVAMQ-2740
p4130
aVAMQ-2739
p4131
aVAMQ-2738
p4132
aVAMQ-2737
p4133
aVAMQ-2736
p4134
aVAMQ-2735
p4135
aVAMQ-2734
p4136
aVAMQ-2733
p4137
aVAMQ-2732
p4138
aVAMQ-2731
p4139
aVAMQ-2730
p4140
aVAMQ-2729
p4141
aVAMQ-2728
p4142
aVAMQ-2727
p4143
aVAMQ-2726
p4144
aVAMQ-2725
p4145
aVAMQ-2724
p4146
aVAMQ-2723
p4147
aVAMQ-2722
p4148
aVAMQ-2721
p4149
aVAMQ-2720
p4150
aVAMQ-2719
p4151
aVAMQ-2718
p4152
aVAMQ-2717
p4153
aVAMQ-2716
p4154
aVAMQ-2715
p4155
aVAMQ-2714
p4156
aVAMQ-2713
p4157
aVAMQ-2712
p4158
aVAMQ-2711
p4159
aVAMQ-2710
p4160
aVAMQ-2709
p4161
aVAMQ-2708
p4162
aVAMQ-2707
p4163
aVAMQ-2706
p4164
aVAMQ-2705
p4165
aVAMQ-2704
p4166
aVAMQ-2703
p4167
aVAMQ-2702
p4168
aVAMQ-2701
p4169
aVAMQ-2700
p4170
aVAMQ-2699
p4171
aVAMQ-2698
p4172
aVAMQ-2697
p4173
aVAMQ-2696
p4174
aVAMQ-2695
p4175
aVAMQ-2694
p4176
aVAMQ-2693
p4177
aVAMQ-2692
p4178
aVAMQ-2691
p4179
aVAMQ-2690
p4180
aVAMQ-2689
p4181
aVAMQ-2688
p4182
aVAMQ-2687
p4183
aVAMQ-2686
p4184
aVAMQ-2685
p4185
aVAMQ-2684
p4186
aVAMQ-2683
p4187
aVAMQ-2682
p4188
aVAMQ-2681
p4189
aVAMQ-2680
p4190
aVAMQ-2679
p4191
aVAMQ-2678
p4192
aVAMQ-2677
p4193
aVAMQ-2676
p4194
aVAMQ-2675
p4195
aVAMQ-2674
p4196
aVAMQ-2673
p4197
aVAMQ-2672
p4198
aVAMQ-2671
p4199
aVAMQ-2670
p4200
aVAMQ-2669
p4201
aVAMQ-2668
p4202
aVAMQ-2667
p4203
aVAMQ-2666
p4204
aVAMQ-2665
p4205
aVAMQ-2664
p4206
aVAMQ-2663
p4207
aVAMQ-2662
p4208
aVAMQ-2661
p4209
aVAMQ-2660
p4210
aVAMQ-2659
p4211
aVAMQ-2658
p4212
aVAMQ-2657
p4213
aVAMQ-2656
p4214
aVAMQ-2655
p4215
aVAMQ-2654
p4216
aVAMQ-2653
p4217
aVAMQ-2652
p4218
aVAMQ-2651
p4219
aVAMQ-2650
p4220
aVAMQ-2649
p4221
aVAMQ-2648
p4222
aVAMQ-2647
p4223
aVAMQ-2646
p4224
aVAMQ-2645
p4225
aVAMQ-2644
p4226
aVAMQ-2643
p4227
aVAMQ-2642
p4228
aVAMQ-2641
p4229
aVAMQ-2640
p4230
aVAMQ-2639
p4231
aVAMQ-2638
p4232
aVAMQ-2637
p4233
aVAMQ-2636
p4234
aVAMQ-2635
p4235
aVAMQ-2634
p4236
aVAMQ-2633
p4237
aVAMQ-2632
p4238
aVAMQ-2631
p4239
aVAMQ-2630
p4240
aVAMQ-2629
p4241
aVAMQ-2628
p4242
aVAMQ-2627
p4243
aVAMQ-2626
p4244
aVAMQ-2625
p4245
aVAMQ-2624
p4246
aVAMQ-2623
p4247
aVAMQ-2622
p4248
aVAMQ-2621
p4249
aVAMQ-2620
p4250
aVAMQ-2619
p4251
aVAMQ-2618
p4252
aVAMQ-2617
p4253
aVAMQ-2616
p4254
aVAMQ-2615
p4255
aVAMQ-2614
p4256
aVAMQ-2613
p4257
aVAMQ-2612
p4258
aVAMQ-2611
p4259
aVAMQ-2610
p4260
aVAMQ-2609
p4261
aVAMQ-2608
p4262
aVAMQ-2607
p4263
aVAMQ-2606
p4264
aVAMQ-2605
p4265
aVAMQ-2604
p4266
aVAMQ-2603
p4267
aVAMQ-2602
p4268
aVAMQ-2601
p4269
aVAMQ-2600
p4270
aVAMQ-2599
p4271
aVAMQ-2598
p4272
aVAMQ-2597
p4273
aVAMQ-2596
p4274
aVAMQ-2595
p4275
aVAMQ-2594
p4276
aVAMQ-2593
p4277
aVAMQ-2592
p4278
aVAMQ-2591
p4279
aVAMQ-2590
p4280
aVAMQ-2589
p4281
aVAMQ-2588
p4282
aVAMQ-2587
p4283
aVAMQ-2586
p4284
aVAMQ-2585
p4285
aVAMQ-2584
p4286
aVAMQ-2583
p4287
aVAMQ-2582
p4288
aVAMQ-2581
p4289
aVAMQ-2580
p4290
aVAMQ-2579
p4291
aVAMQ-2578
p4292
aVAMQ-2577
p4293
aVAMQ-2576
p4294
aVAMQ-2575
p4295
aVAMQ-2574
p4296
aVAMQ-2573
p4297
aVAMQ-2572
p4298
aVAMQ-2571
p4299
aVAMQ-2570
p4300
aVAMQ-2569
p4301
aVAMQ-2568
p4302
aVAMQ-2567
p4303
aVAMQ-2566
p4304
aVAMQ-2565
p4305
aVAMQ-2564
p4306
aVAMQ-2563
p4307
aVAMQ-2562
p4308
aVAMQ-2561
p4309
aVAMQ-2560
p4310
aVAMQ-2559
p4311
aVAMQ-2558
p4312
aVAMQ-2557
p4313
aVAMQ-2556
p4314
aVAMQ-2555
p4315
aVAMQ-2554
p4316
aVAMQ-2553
p4317
aVAMQ-2552
p4318
aVAMQ-2551
p4319
aVAMQ-2550
p4320
aVAMQ-2549
p4321
aVAMQ-2548
p4322
aVAMQ-2547
p4323
aVAMQ-2546
p4324
aVAMQ-2545
p4325
aVAMQ-2544
p4326
aVAMQ-2543
p4327
aVAMQ-2542
p4328
aVAMQ-2541
p4329
aVAMQ-2540
p4330
aVAMQ-2539
p4331
aVAMQ-2538
p4332
aVAMQ-2537
p4333
aVAMQ-2536
p4334
aVAMQ-2535
p4335
aVAMQ-2534
p4336
aVAMQ-2533
p4337
aVAMQ-2532
p4338
aVAMQ-2531
p4339
aVAMQ-2530
p4340
aVAMQ-2529
p4341
aVAMQ-2528
p4342
aVAMQ-2527
p4343
aVAMQ-2526
p4344
aVAMQ-2525
p4345
aVAMQ-2524
p4346
aVAMQ-2523
p4347
aVAMQ-2522
p4348
aVAMQ-2521
p4349
aVAMQ-2520
p4350
aVAMQ-2519
p4351
aVAMQ-2518
p4352
aVAMQ-2517
p4353
aVAMQ-2516
p4354
aVAMQ-2515
p4355
aVAMQ-2514
p4356
aVAMQ-2513
p4357
aVAMQ-2512
p4358
aVAMQ-2511
p4359
aVAMQ-2510
p4360
aVAMQ-2509
p4361
aVAMQ-2508
p4362
aVAMQ-2507
p4363
aVAMQ-2506
p4364
aVAMQ-2505
p4365
aVAMQ-2504
p4366
aVAMQ-2503
p4367
aVAMQ-2502
p4368
aVAMQ-2501
p4369
aVAMQ-2500
p4370
aVAMQ-2499
p4371
aVAMQ-2498
p4372
aVAMQ-2497
p4373
aVAMQ-2496
p4374
aVAMQ-2495
p4375
aVAMQ-2494
p4376
aVAMQ-2493
p4377
aVAMQ-2492
p4378
aVAMQ-2491
p4379
aVAMQ-2490
p4380
aVAMQ-2489
p4381
aVAMQ-2488
p4382
aVAMQ-2487
p4383
aVAMQ-2486
p4384
aVAMQ-2485
p4385
aVAMQ-2484
p4386
aVAMQ-2483
p4387
aVAMQ-2482
p4388
aVAMQ-2481
p4389
aVAMQ-2480
p4390
aVAMQ-2479
p4391
aVAMQ-2478
p4392
aVAMQ-2477
p4393
aVAMQ-2476
p4394
aVAMQ-2475
p4395
aVAMQ-2474
p4396
aVAMQ-2473
p4397
aVAMQ-2472
p4398
aVAMQ-2471
p4399
aVAMQ-2470
p4400
aVAMQ-2469
p4401
aVAMQ-2468
p4402
aVAMQ-2467
p4403
aVAMQ-2466
p4404
aVAMQ-2465
p4405
aVAMQ-2464
p4406
aVAMQ-2463
p4407
aVAMQ-2462
p4408
aVAMQ-2461
p4409
aVAMQ-2460
p4410
aVAMQ-2459
p4411
aVAMQ-2458
p4412
aVAMQ-2457
p4413
aVAMQ-2456
p4414
aVAMQ-2455
p4415
aVAMQ-2454
p4416
aVAMQ-2453
p4417
aVAMQ-2452
p4418
aVAMQ-2451
p4419
aVAMQ-2450
p4420
aVAMQ-2449
p4421
aVAMQ-2448
p4422
aVAMQ-2447
p4423
aVAMQ-2446
p4424
aVAMQ-2445
p4425
aVAMQ-2444
p4426
aVAMQ-2443
p4427
aVAMQ-2442
p4428
aVAMQ-2441
p4429
aVAMQ-2440
p4430
aVAMQ-2439
p4431
aVAMQ-2438
p4432
aVAMQ-2437
p4433
aVAMQ-2436
p4434
aVAMQ-2435
p4435
aVAMQ-2434
p4436
aVAMQ-2433
p4437
aVAMQ-2432
p4438
aVAMQ-2431
p4439
aVAMQ-2430
p4440
aVAMQ-2429
p4441
aVAMQ-2428
p4442
aVAMQ-2427
p4443
aVAMQ-2426
p4444
aVAMQ-2425
p4445
aVAMQ-2424
p4446
aVAMQ-2423
p4447
aVAMQ-2422
p4448
aVAMQ-2421
p4449
aVAMQ-2420
p4450
aVAMQ-2419
p4451
aVAMQ-2418
p4452
aVAMQ-2417
p4453
aVAMQ-2416
p4454
aVAMQ-2415
p4455
aVAMQ-2414
p4456
aVAMQ-2413
p4457
aVAMQ-2412
p4458
aVAMQ-2411
p4459
aVAMQ-2410
p4460
aVAMQ-2409
p4461
aVAMQ-2408
p4462
aVAMQ-2407
p4463
aVAMQ-2406
p4464
aVAMQ-2405
p4465
aVAMQ-2404
p4466
aVAMQ-2403
p4467
aVAMQ-2402
p4468
aVAMQ-2401
p4469
aVAMQ-2400
p4470
aVAMQ-2399
p4471
aVAMQ-2398
p4472
aVAMQ-2397
p4473
aVAMQ-2396
p4474
aVAMQ-2395
p4475
aVAMQ-2394
p4476
aVAMQ-2393
p4477
aVAMQ-2392
p4478
aVAMQ-2391
p4479
aVAMQ-2390
p4480
aVAMQ-2389
p4481
aVAMQ-2388
p4482
aVAMQ-2387
p4483
aVAMQ-2386
p4484
aVAMQ-2385
p4485
aVAMQ-2384
p4486
aVAMQ-2383
p4487
aVAMQ-2382
p4488
aVAMQ-2381
p4489
aVAMQ-2380
p4490
aVAMQ-2379
p4491
aVAMQ-2378
p4492
aVAMQ-2377
p4493
aVAMQ-2376
p4494
aVAMQ-2375
p4495
aVAMQ-2374
p4496
aVAMQ-2373
p4497
aVAMQ-2372
p4498
aVAMQ-2371
p4499
aVAMQ-2370
p4500
aVAMQ-2369
p4501
aVAMQ-2368
p4502
aVAMQ-2367
p4503
aVAMQ-2366
p4504
aVAMQ-2365
p4505
aVAMQ-2364
p4506
aVAMQ-2363
p4507
aVAMQ-2362
p4508
aVAMQ-2361
p4509
aVAMQ-2360
p4510
aVAMQ-2359
p4511
aVAMQ-2358
p4512
aVAMQ-2357
p4513
aVAMQ-2356
p4514
aVAMQ-2355
p4515
aVAMQ-2354
p4516
aVAMQ-2353
p4517
aVAMQ-2352
p4518
aVAMQ-2351
p4519
aVAMQ-2350
p4520
aVAMQ-2349
p4521
aVAMQ-2348
p4522
aVAMQ-2347
p4523
aVAMQ-2346
p4524
aVAMQ-2345
p4525
aVAMQ-2344
p4526
aVAMQ-2343
p4527
aVAMQ-2342
p4528
aVAMQ-2341
p4529
aVAMQ-2340
p4530
aVAMQ-2339
p4531
aVAMQ-2338
p4532
aVAMQ-2337
p4533
aVAMQ-2336
p4534
aVAMQ-2335
p4535
aVAMQ-2334
p4536
aVAMQ-2333
p4537
aVAMQ-2332
p4538
aVAMQ-2331
p4539
aVAMQ-2330
p4540
aVAMQ-2329
p4541
aVAMQ-2328
p4542
aVAMQ-2327
p4543
aVAMQ-2326
p4544
aVAMQ-2325
p4545
aVAMQ-2324
p4546
aVAMQ-2323
p4547
aVAMQ-2322
p4548
aVAMQ-2321
p4549
aVAMQ-2320
p4550
aVAMQ-2319
p4551
aVAMQ-2318
p4552
aVAMQ-2317
p4553
aVAMQ-2316
p4554
aVAMQ-2315
p4555
aVAMQ-2314
p4556
aVAMQ-2313
p4557
aVAMQ-2312
p4558
aVAMQ-2311
p4559
aVAMQ-2310
p4560
aVAMQ-2309
p4561
aVAMQ-2308
p4562
aVAMQ-2307
p4563
aVAMQ-2306
p4564
aVAMQ-2305
p4565
aVAMQ-2304
p4566
aVAMQ-2303
p4567
aVAMQ-2302
p4568
aVAMQ-2301
p4569
aVAMQ-2300
p4570
aVAMQ-2299
p4571
aVAMQ-2298
p4572
aVAMQ-2297
p4573
aVAMQ-2296
p4574
aVAMQ-2295
p4575
aVAMQ-2294
p4576
aVAMQ-2293
p4577
aVAMQ-2292
p4578
aVAMQ-2291
p4579
aVAMQ-2290
p4580
aVAMQ-2289
p4581
aVAMQ-2288
p4582
aVAMQ-2287
p4583
aVAMQ-2286
p4584
aVAMQ-2285
p4585
aVAMQ-2284
p4586
aVAMQ-2283
p4587
aVAMQ-2282
p4588
aVAMQ-2281
p4589
aVAMQ-2280
p4590
aVAMQ-2279
p4591
aVAMQ-2278
p4592
aVAMQ-2277
p4593
aVAMQ-2276
p4594
aVAMQ-2275
p4595
aVAMQ-2274
p4596
aVAMQ-2273
p4597
aVAMQ-2272
p4598
aVAMQ-2271
p4599
aVAMQ-2270
p4600
aVAMQ-2269
p4601
aVAMQ-2268
p4602
aVAMQ-2267
p4603
aVAMQ-2266
p4604
aVAMQ-2265
p4605
aVAMQ-2264
p4606
aVAMQ-2263
p4607
aVAMQ-2262
p4608
aVAMQ-2261
p4609
aVAMQ-2260
p4610
aVAMQ-2259
p4611
aVAMQ-2258
p4612
aVAMQ-2257
p4613
aVAMQ-2256
p4614
aVAMQ-2255
p4615
aVAMQ-2254
p4616
aVAMQ-2253
p4617
aVAMQ-2252
p4618
aVAMQ-2251
p4619
aVAMQ-2250
p4620
aVAMQ-2249
p4621
aVAMQ-2248
p4622
aVAMQ-2247
p4623
aVAMQ-2246
p4624
aVAMQ-2245
p4625
aVAMQ-2244
p4626
aVAMQ-2243
p4627
aVAMQ-2242
p4628
aVAMQ-2241
p4629
aVAMQ-2240
p4630
aVAMQ-2239
p4631
aVAMQ-2238
p4632
aVAMQ-2237
p4633
aVAMQ-2236
p4634
aVAMQ-2235
p4635
aVAMQ-2234
p4636
aVAMQ-2233
p4637
aVAMQ-2232
p4638
aVAMQ-2231
p4639
aVAMQ-2230
p4640
aVAMQ-2229
p4641
aVAMQ-2228
p4642
aVAMQ-2227
p4643
aVAMQ-2226
p4644
aVAMQ-2225
p4645
aVAMQ-2224
p4646
aVAMQ-2223
p4647
aVAMQ-2222
p4648
aVAMQ-2221
p4649
aVAMQ-2220
p4650
aVAMQ-2219
p4651
aVAMQ-2218
p4652
aVAMQ-2217
p4653
aVAMQ-2216
p4654
aVAMQ-2215
p4655
aVAMQ-2214
p4656
aVAMQ-2213
p4657
aVAMQ-2212
p4658
aVAMQ-2211
p4659
aVAMQ-2210
p4660
aVAMQ-2209
p4661
aVAMQ-2208
p4662
aVAMQ-2207
p4663
aVAMQ-2206
p4664
aVAMQ-2205
p4665
aVAMQ-2204
p4666
aVAMQ-2203
p4667
aVAMQ-2202
p4668
aVAMQ-2201
p4669
aVAMQ-2200
p4670
aVAMQ-2199
p4671
aVAMQ-2198
p4672
aVAMQ-2197
p4673
aVAMQ-2196
p4674
aVAMQ-2195
p4675
aVAMQ-2194
p4676
aVAMQ-2193
p4677
aVAMQ-2192
p4678
aVAMQ-2191
p4679
aVAMQ-2190
p4680
aVAMQ-2189
p4681
aVAMQ-2188
p4682
aVAMQ-2187
p4683
aVAMQ-2186
p4684
aVAMQ-2185
p4685
aVAMQ-2184
p4686
aVAMQ-2183
p4687
aVAMQ-2182
p4688
aVAMQ-2181
p4689
aVAMQ-2180
p4690
aVAMQ-2179
p4691
aVAMQ-2178
p4692
aVAMQ-2177
p4693
aVAMQ-2176
p4694
aVAMQ-2175
p4695
aVAMQ-2174
p4696
aVAMQ-2173
p4697
aVAMQ-2172
p4698
aVAMQ-2171
p4699
aVAMQ-2170
p4700
aVAMQ-2169
p4701
aVAMQ-2168
p4702
aVAMQ-2167
p4703
aVAMQ-2166
p4704
aVAMQ-2165
p4705
aVAMQ-2164
p4706
aVAMQ-2163
p4707
aVAMQ-2162
p4708
aVAMQ-2161
p4709
aVAMQ-2160
p4710
aVAMQ-2159
p4711
aVAMQ-2158
p4712
aVAMQ-2157
p4713
aVAMQ-2156
p4714
aVAMQ-2155
p4715
aVAMQ-2154
p4716
aVAMQ-2153
p4717
aVAMQ-2152
p4718
aVAMQ-2151
p4719
aVAMQ-2150
p4720
aVAMQ-2149
p4721
aVAMQ-2148
p4722
aVAMQ-2147
p4723
aVAMQ-2146
p4724
aVAMQ-2145
p4725
aVAMQ-2144
p4726
aVAMQ-2143
p4727
aVAMQ-2142
p4728
aVAMQ-2141
p4729
aVAMQ-2140
p4730
aVAMQ-2139
p4731
aVAMQ-2138
p4732
aVAMQ-2137
p4733
aVAMQ-2136
p4734
aVAMQ-2135
p4735
aVAMQ-2134
p4736
aVAMQ-2133
p4737
aVAMQ-2132
p4738
aVAMQ-2131
p4739
aVAMQ-2130
p4740
aVAMQ-2129
p4741
aVAMQ-2128
p4742
aVAMQ-2127
p4743
aVAMQ-2126
p4744
aVAMQ-2125
p4745
aVAMQ-2124
p4746
aVAMQ-2123
p4747
aVAMQ-2122
p4748
aVAMQ-2121
p4749
aVAMQ-2120
p4750
aVAMQ-2119
p4751
aVAMQ-2118
p4752
aVAMQ-2117
p4753
aVAMQ-2116
p4754
aVAMQ-2115
p4755
aVAMQ-2114
p4756
aVAMQ-2113
p4757
aVAMQ-2112
p4758
aVAMQ-2111
p4759
aVAMQ-2110
p4760
aVAMQ-2109
p4761
aVAMQ-2108
p4762
aVAMQ-2107
p4763
aVAMQ-2106
p4764
aVAMQ-2105
p4765
aVAMQ-2104
p4766
aVAMQ-2103
p4767
aVAMQ-2102
p4768
aVAMQ-2101
p4769
aVAMQ-2100
p4770
aVAMQ-2099
p4771
aVAMQ-2098
p4772
aVAMQ-2097
p4773
aVAMQ-2096
p4774
aVAMQ-2095
p4775
aVAMQ-2094
p4776
aVAMQ-2093
p4777
aVAMQ-2092
p4778
aVAMQ-2091
p4779
aVAMQ-2090
p4780
aVAMQ-2089
p4781
aVAMQ-2088
p4782
aVAMQ-2087
p4783
aVAMQ-2086
p4784
aVAMQ-2085
p4785
aVAMQ-2084
p4786
aVAMQ-2083
p4787
aVAMQ-2082
p4788
aVAMQ-2081
p4789
aVAMQ-2080
p4790
aVAMQ-2079
p4791
aVAMQ-2078
p4792
aVAMQ-2077
p4793
aVAMQ-2076
p4794
aVAMQ-2075
p4795
aVAMQ-2074
p4796
aVAMQ-2073
p4797
aVAMQ-2072
p4798
aVAMQ-2071
p4799
aVAMQ-2070
p4800
aVAMQ-2069
p4801
aVAMQ-2068
p4802
aVAMQ-2067
p4803
aVAMQ-2066
p4804
aVAMQ-2065
p4805
aVAMQ-2064
p4806
aVAMQ-2063
p4807
aVAMQ-2062
p4808
aVAMQ-2061
p4809
aVAMQ-2060
p4810
aVAMQ-2059
p4811
aVAMQ-2058
p4812
aVAMQ-2057
p4813
aVAMQ-2056
p4814
aVAMQ-2055
p4815
aVAMQ-2054
p4816
aVAMQ-2053
p4817
aVAMQ-2052
p4818
aVAMQ-2051
p4819
aVAMQ-2050
p4820
aVAMQ-2049
p4821
aVAMQ-2048
p4822
aVAMQ-2047
p4823
aVAMQ-2046
p4824
aVAMQ-2045
p4825
aVAMQ-2044
p4826
aVAMQ-2043
p4827
aVAMQ-2042
p4828
aVAMQ-2041
p4829
aVAMQ-2040
p4830
aVAMQ-2039
p4831
aVAMQ-2038
p4832
aVAMQ-2037
p4833
aVAMQ-2036
p4834
aVAMQ-2035
p4835
aVAMQ-2034
p4836
aVAMQ-2033
p4837
aVAMQ-2032
p4838
aVAMQ-2031
p4839
aVAMQ-2030
p4840
aVAMQ-2029
p4841
aVAMQ-2028
p4842
aVAMQ-2027
p4843
aVAMQ-2026
p4844
aVAMQ-2025
p4845
aVAMQ-2024
p4846
aVAMQ-2023
p4847
aVAMQ-2022
p4848
aVAMQ-2021
p4849
aVAMQ-2020
p4850
aVAMQ-2019
p4851
aVAMQ-2018
p4852
aVAMQ-2017
p4853
aVAMQ-2016
p4854
aVAMQ-2015
p4855
aVAMQ-2014
p4856
aVAMQ-2013
p4857
aVAMQ-2012
p4858
aVAMQ-2011
p4859
aVAMQ-2010
p4860
aVAMQ-2009
p4861
aVAMQ-2008
p4862
aVAMQ-2007
p4863
aVAMQ-2006
p4864
aVAMQ-2005
p4865
aVAMQ-2004
p4866
aVAMQ-2003
p4867
aVAMQ-2002
p4868
aVAMQ-2001
p4869
aVAMQ-2000
p4870
aVAMQ-1999
p4871
aVAMQ-1998
p4872
aVAMQ-1997
p4873
aVAMQ-1996
p4874
aVAMQ-1995
p4875
aVAMQ-1994
p4876
aVAMQ-1993
p4877
aVAMQ-1992
p4878
aVAMQ-1991
p4879
aVAMQ-1990
p4880
aVAMQ-1989
p4881
aVAMQ-1988
p4882
aVAMQ-1987
p4883
aVAMQ-1986
p4884
aVAMQ-1985
p4885
aVAMQ-1984
p4886
aVAMQ-1983
p4887
aVAMQ-1982
p4888
aVAMQ-1981
p4889
aVAMQ-1980
p4890
aVAMQ-1979
p4891
aVAMQ-1978
p4892
aVAMQ-1977
p4893
aVAMQ-1976
p4894
aVAMQ-1975
p4895
aVAMQ-1974
p4896
aVAMQ-1973
p4897
aVAMQ-1972
p4898
aVAMQ-1971
p4899
aVAMQ-1970
p4900
aVAMQ-1969
p4901
aVAMQ-1968
p4902
aVAMQ-1967
p4903
aVAMQ-1966
p4904
aVAMQ-1965
p4905
aVAMQ-1964
p4906
aVAMQ-1963
p4907
aVAMQ-1962
p4908
aVAMQ-1961
p4909
aVAMQ-1960
p4910
aVAMQ-1959
p4911
aVAMQ-1958
p4912
aVAMQ-1957
p4913
aVAMQ-1956
p4914
aVAMQ-1955
p4915
aVAMQ-1954
p4916
aVAMQ-1953
p4917
aVAMQ-1952
p4918
aVAMQ-1951
p4919
aVAMQ-1950
p4920
aVAMQ-1949
p4921
aVAMQ-1948
p4922
aVAMQ-1947
p4923
aVAMQ-1946
p4924
aVAMQ-1945
p4925
aVAMQ-1944
p4926
aVAMQ-1943
p4927
aVAMQ-1942
p4928
aVAMQ-1941
p4929
aVAMQ-1940
p4930
aVAMQ-1939
p4931
aVAMQ-1938
p4932
aVAMQ-1937
p4933
aVAMQ-1936
p4934
aVAMQ-1935
p4935
aVAMQ-1934
p4936
aVAMQ-1933
p4937
aVAMQ-1932
p4938
aVAMQ-1931
p4939
aVAMQ-1930
p4940
aVAMQ-1929
p4941
aVAMQ-1928
p4942
aVAMQ-1927
p4943
aVAMQ-1926
p4944
aVAMQ-1925
p4945
aVAMQ-1924
p4946
aVAMQ-1923
p4947
aVAMQ-1922
p4948
aVAMQ-1921
p4949
aVAMQ-1920
p4950
aVAMQ-1919
p4951
aVAMQ-1918
p4952
aVAMQ-1917
p4953
aVAMQ-1916
p4954
aVAMQ-1915
p4955
aVAMQ-1914
p4956
aVAMQ-1913
p4957
aVAMQ-1912
p4958
aVAMQ-1911
p4959
aVAMQ-1910
p4960
aVAMQ-1909
p4961
aVAMQ-1908
p4962
aVAMQ-1907
p4963
aVAMQ-1906
p4964
aVAMQ-1905
p4965
aVAMQ-1904
p4966
aVAMQ-1903
p4967
aVAMQ-1902
p4968
aVAMQ-1901
p4969
aVAMQ-1900
p4970
aVAMQ-1899
p4971
aVAMQ-1898
p4972
aVAMQ-1897
p4973
aVAMQ-1896
p4974
aVAMQ-1895
p4975
aVAMQ-1894
p4976
aVAMQ-1893
p4977
aVAMQ-1892
p4978
aVAMQ-1891
p4979
aVAMQ-1890
p4980
aVAMQ-1889
p4981
aVAMQ-1888
p4982
aVAMQ-1887
p4983
aVAMQ-1886
p4984
aVAMQ-1885
p4985
aVAMQ-1884
p4986
aVAMQ-1883
p4987
aVAMQ-1882
p4988
aVAMQ-1881
p4989
aVAMQ-1880
p4990
aVAMQ-1879
p4991
aVAMQ-1878
p4992
aVAMQ-1877
p4993
aVAMQ-1876
p4994
aVAMQ-1875
p4995
aVAMQ-1874
p4996
aVAMQ-1873
p4997
aVAMQ-1872
p4998
aVAMQ-1871
p4999
aVAMQ-1870
p5000
aVAMQ-1869
p5001
aVAMQ-1868
p5002
aVAMQ-1867
p5003
aVAMQ-1866
p5004
aVAMQ-1865
p5005
aVAMQ-1864
p5006
aVAMQ-1863
p5007
aVAMQ-1862
p5008
aVAMQ-1861
p5009
aVAMQ-1860
p5010
aVAMQ-1859
p5011
aVAMQ-1858
p5012
aVAMQ-1857
p5013
aVAMQ-1856
p5014
aVAMQ-1855
p5015
aVAMQ-1854
p5016
aVAMQ-1853
p5017
aVAMQ-1852
p5018
aVAMQ-1851
p5019
aVAMQ-1850
p5020
aVAMQ-1849
p5021
aVAMQ-1848
p5022
aVAMQ-1847
p5023
aVAMQ-1846
p5024
aVAMQ-1845
p5025
aVAMQ-1844
p5026
aVAMQ-1843
p5027
aVAMQ-1842
p5028
aVAMQ-1841
p5029
aVAMQ-1840
p5030
aVAMQ-1839
p5031
aVAMQ-1838
p5032
aVAMQ-1837
p5033
aVAMQ-1836
p5034
aVAMQ-1835
p5035
aVAMQ-1834
p5036
aVAMQ-1833
p5037
aVAMQ-1832
p5038
aVAMQ-1831
p5039
aVAMQ-1830
p5040
aVAMQ-1829
p5041
aVAMQ-1828
p5042
aVAMQ-1827
p5043
aVAMQ-1826
p5044
aVAMQ-1825
p5045
aVAMQ-1824
p5046
aVAMQ-1823
p5047
aVAMQ-1822
p5048
aVAMQ-1821
p5049
aVAMQ-1820
p5050
aVAMQ-1819
p5051
aVAMQ-1818
p5052
aVAMQ-1817
p5053
aVAMQ-1816
p5054
aVAMQ-1815
p5055
aVAMQ-1814
p5056
aVAMQ-1813
p5057
aVAMQ-1812
p5058
aVAMQ-1811
p5059
aVAMQ-1810
p5060
aVAMQ-1809
p5061
aVAMQ-1808
p5062
aVAMQ-1807
p5063
aVAMQ-1806
p5064
aVAMQ-1805
p5065
aVAMQ-1804
p5066
aVAMQ-1803
p5067
aVAMQ-1802
p5068
aVAMQ-1801
p5069
aVAMQ-1800
p5070
aVAMQ-1799
p5071
aVAMQ-1798
p5072
aVAMQ-1797
p5073
aVAMQ-1796
p5074
aVAMQ-1795
p5075
aVAMQ-1794
p5076
aVAMQ-1793
p5077
aVAMQ-1792
p5078
aVAMQ-1791
p5079
aVAMQ-1790
p5080
aVAMQ-1789
p5081
aVAMQ-1788
p5082
aVAMQ-1787
p5083
aVAMQ-1786
p5084
aVAMQ-1785
p5085
aVAMQ-1784
p5086
aVAMQ-1782
p5087
aVAMQ-1781
p5088
aVAMQ-1780
p5089
aVAMQ-1779
p5090
aVAMQ-1778
p5091
aVAMQ-1777
p5092
aVAMQ-1776
p5093
aVAMQ-1775
p5094
aVAMQ-1774
p5095
aVAMQ-1773
p5096
aVAMQ-1772
p5097
aVAMQ-1771
p5098
aVAMQ-1770
p5099
aVAMQ-1769
p5100
aVAMQ-1768
p5101
aVAMQ-1767
p5102
aVAMQ-1766
p5103
aVAMQ-1765
p5104
aVAMQ-1764
p5105
aVAMQ-1763
p5106
aVAMQ-1762
p5107
aVAMQ-1761
p5108
aVAMQ-1760
p5109
aVAMQ-1759
p5110
aVAMQ-1758
p5111
aVAMQ-1757
p5112
aVAMQ-1756
p5113
aVAMQ-1755
p5114
aVAMQ-1754
p5115
aVAMQ-1753
p5116
aVAMQ-1752
p5117
aVAMQ-1751
p5118
aVAMQ-1750
p5119
aVAMQ-1749
p5120
aVAMQ-1748
p5121
aVAMQ-1747
p5122
aVAMQ-1746
p5123
aVAMQ-1745
p5124
aVAMQ-1744
p5125
aVAMQ-1743
p5126
aVAMQ-1742
p5127
aVAMQ-1741
p5128
aVAMQ-1740
p5129
aVAMQ-1739
p5130
aVAMQ-1738
p5131
aVAMQ-1737
p5132
aVAMQ-1736
p5133
aVAMQ-1735
p5134
aVAMQ-1734
p5135
aVAMQ-1733
p5136
aVAMQ-1732
p5137
aVAMQ-1731
p5138
aVAMQ-1730
p5139
aVAMQ-1729
p5140
aVAMQ-1728
p5141
aVAMQ-1727
p5142
aVAMQ-1726
p5143
aVAMQ-1725
p5144
aVAMQ-1724
p5145
aVAMQ-1723
p5146
aVAMQ-1722
p5147
aVAMQ-1721
p5148
aVAMQ-1720
p5149
aVAMQ-1719
p5150
aVAMQ-1718
p5151
aVAMQ-1717
p5152
aVAMQ-1716
p5153
aVAMQ-1715
p5154
aVAMQ-1714
p5155
aVAMQ-1713
p5156
aVAMQ-1712
p5157
aVAMQ-1711
p5158
aVAMQ-1710
p5159
aVAMQ-1709
p5160
aVAMQ-1708
p5161
aVAMQ-1707
p5162
aVAMQ-1706
p5163
aVAMQ-1705
p5164
aVAMQ-1704
p5165
aVAMQ-1703
p5166
aVAMQ-1702
p5167
aVAMQ-1701
p5168
aVAMQ-1700
p5169
aVAMQ-1699
p5170
aVAMQ-1698
p5171
aVAMQ-1697
p5172
aVAMQ-1696
p5173
aVAMQ-1695
p5174
aVAMQ-1694
p5175
aVAMQ-1693
p5176
aVAMQ-1692
p5177
aVAMQ-1691
p5178
aVAMQ-1690
p5179
aVAMQ-1689
p5180
aVAMQ-1688
p5181
aVAMQ-1687
p5182
aVAMQ-1686
p5183
aVAMQ-1685
p5184
aVAMQ-1684
p5185
aVAMQ-1683
p5186
aVAMQ-1682
p5187
aVAMQ-1681
p5188
aVAMQ-1679
p5189
aVAMQ-1678
p5190
aVAMQ-1677
p5191
aVAMQ-1676
p5192
aVAMQ-1675
p5193
aVAMQ-1674
p5194
aVAMQ-1673
p5195
aVAMQ-1672
p5196
aVAMQ-1671
p5197
aVAMQ-1670
p5198
aVAMQ-1669
p5199
aVAMQ-1668
p5200
aVAMQ-1667
p5201
aVAMQ-1666
p5202
aVAMQ-1665
p5203
aVAMQ-1664
p5204
aVAMQ-1663
p5205
aVAMQ-1662
p5206
aVAMQ-1661
p5207
aVAMQ-1660
p5208
aVAMQ-1659
p5209
aVAMQ-1658
p5210
aVAMQ-1657
p5211
aVAMQ-1656
p5212
aVAMQ-1655
p5213
aVAMQ-1654
p5214
aVAMQ-1653
p5215
aVAMQ-1652
p5216
aVAMQ-1651
p5217
aVAMQ-1650
p5218
aVAMQ-1649
p5219
aVAMQ-1648
p5220
aVAMQ-1647
p5221
aVAMQ-1646
p5222
aVAMQ-1645
p5223
aVAMQ-1644
p5224
aVAMQ-1643
p5225
aVAMQ-1642
p5226
aVAMQ-1641
p5227
aVAMQ-1640
p5228
aVAMQ-1639
p5229
aVAMQ-1638
p5230
aVAMQ-1637
p5231
aVAMQ-1636
p5232
aVAMQ-1635
p5233
aVAMQ-1634
p5234
aVAMQ-1633
p5235
aVAMQ-1632
p5236
aVAMQ-1631
p5237
aVAMQ-1630
p5238
aVAMQ-1629
p5239
aVAMQ-1628
p5240
aVAMQ-1627
p5241
aVAMQ-1626
p5242
aVAMQ-1625
p5243
aVAMQ-1624
p5244
aVAMQ-1623
p5245
aVAMQ-1622
p5246
aVAMQ-1621
p5247
aVAMQ-1620
p5248
aVAMQ-1619
p5249
aVAMQ-1618
p5250
aVAMQ-1617
p5251
aVAMQ-1616
p5252
aVAMQ-1615
p5253
aVAMQ-1614
p5254
aVAMQ-1613
p5255
aVAMQ-1612
p5256
aVAMQ-1611
p5257
aVAMQ-1610
p5258
aVAMQ-1609
p5259
aVAMQ-1608
p5260
aVAMQ-1607
p5261
aVAMQ-1606
p5262
aVAMQ-1605
p5263
aVAMQ-1604
p5264
aVAMQ-1603
p5265
aVAMQ-1602
p5266
aVAMQ-1601
p5267
aVAMQ-1600
p5268
aVAMQ-1599
p5269
aVAMQ-1598
p5270
aVAMQ-1597
p5271
aVAMQ-1596
p5272
aVAMQ-1595
p5273
aVAMQ-1594
p5274
aVAMQ-1593
p5275
aVAMQ-1592
p5276
aVAMQ-1591
p5277
aVAMQ-1590
p5278
aVAMQ-1589
p5279
aVAMQ-1588
p5280
aVAMQ-1587
p5281
aVAMQ-1586
p5282
aVAMQ-1585
p5283
aVAMQ-1584
p5284
aVAMQ-1583
p5285
aVAMQ-1582
p5286
aVAMQ-1581
p5287
aVAMQ-1580
p5288
aVAMQ-1579
p5289
aVAMQ-1578
p5290
aVAMQ-1577
p5291
aVAMQ-1576
p5292
aVAMQ-1575
p5293
aVAMQ-1574
p5294
aVAMQ-1573
p5295
aVAMQ-1572
p5296
aVAMQ-1571
p5297
aVAMQ-1570
p5298
aVAMQ-1569
p5299
aVAMQ-1568
p5300
aVAMQ-1567
p5301
aVAMQ-1566
p5302
aVAMQ-1565
p5303
aVAMQ-1564
p5304
aVAMQ-1563
p5305
aVAMQ-1562
p5306
aVAMQ-1561
p5307
aVAMQ-1560
p5308
aVAMQ-1559
p5309
aVAMQ-1558
p5310
aVAMQ-1557
p5311
aVAMQ-1556
p5312
aVAMQ-1555
p5313
aVAMQ-1554
p5314
aVAMQ-1553
p5315
aVAMQ-1552
p5316
aVAMQ-1551
p5317
aVAMQ-1550
p5318
aVAMQ-1549
p5319
aVAMQ-1548
p5320
aVAMQ-1547
p5321
aVAMQ-1546
p5322
aVAMQ-1545
p5323
aVAMQ-1544
p5324
aVAMQ-1543
p5325
aVAMQ-1542
p5326
aVAMQ-1541
p5327
aVAMQ-1540
p5328
aVAMQ-1539
p5329
aVAMQ-1538
p5330
aVAMQ-1537
p5331
aVAMQ-1536
p5332
aVAMQ-1535
p5333
aVAMQ-1534
p5334
aVAMQ-1533
p5335
aVAMQ-1532
p5336
aVAMQ-1531
p5337
aVAMQ-1530
p5338
aVAMQ-1529
p5339
aVAMQ-1528
p5340
aVAMQ-1527
p5341
aVAMQ-1526
p5342
aVAMQ-1525
p5343
aVAMQ-1524
p5344
aVAMQ-1523
p5345
aVAMQ-1522
p5346
aVAMQ-1521
p5347
aVAMQ-1520
p5348
aVAMQ-1519
p5349
aVAMQ-1518
p5350
aVAMQ-1517
p5351
aVAMQ-1516
p5352
aVAMQ-1515
p5353
aVAMQ-1514
p5354
aVAMQ-1513
p5355
aVAMQ-1512
p5356
aVAMQ-1511
p5357
aVAMQ-1510
p5358
aVAMQ-1509
p5359
aVAMQ-1508
p5360
aVAMQ-1507
p5361
aVAMQ-1506
p5362
aVAMQ-1505
p5363
aVAMQ-1504
p5364
aVAMQ-1503
p5365
aVAMQ-1502
p5366
aVAMQ-1501
p5367
aVAMQ-1500
p5368
aVAMQ-1499
p5369
aVAMQ-1498
p5370
aVAMQ-1497
p5371
aVAMQ-1496
p5372
aVAMQ-1495
p5373
aVAMQ-1494
p5374
aVAMQ-1493
p5375
aVAMQ-1492
p5376
aVAMQ-1491
p5377
aVAMQ-1490
p5378
aVAMQ-1489
p5379
aVAMQ-1488
p5380
aVAMQ-1487
p5381
aVAMQ-1486
p5382
aVAMQ-1485
p5383
aVAMQ-1484
p5384
aVAMQ-1483
p5385
aVAMQ-1482
p5386
aVAMQ-1481
p5387
aVAMQ-1480
p5388
aVAMQ-1479
p5389
aVAMQ-1478
p5390
aVAMQ-1477
p5391
aVAMQ-1476
p5392
aVAMQ-1475
p5393
aVAMQ-1474
p5394
aVAMQ-1473
p5395
aVAMQ-1472
p5396
aVAMQ-1471
p5397
aVAMQ-1470
p5398
aVAMQ-1469
p5399
aVAMQ-1468
p5400
aVAMQ-1467
p5401
aVAMQ-1466
p5402
aVAMQ-1465
p5403
aVAMQ-1464
p5404
aVAMQ-1463
p5405
aVAMQ-1462
p5406
aVAMQ-1461
p5407
aVAMQ-1460
p5408
aVAMQ-1459
p5409
aVAMQ-1458
p5410
aVAMQ-1457
p5411
aVAMQ-1456
p5412
aVAMQ-1455
p5413
aVAMQ-1454
p5414
aVAMQ-1453
p5415
aVAMQ-1452
p5416
aVAMQ-1451
p5417
aVAMQ-1450
p5418
aVAMQ-1449
p5419
aVAMQ-1448
p5420
aVAMQ-1447
p5421
aVAMQ-1446
p5422
aVAMQ-1445
p5423
aVAMQ-1444
p5424
aVAMQ-1443
p5425
aVAMQ-1442
p5426
aVAMQ-1441
p5427
aVAMQ-1440
p5428
aVAMQ-1439
p5429
aVAMQ-1438
p5430
aVAMQ-1437
p5431
aVAMQ-1436
p5432
aVAMQ-1435
p5433
aVAMQ-1434
p5434
aVAMQ-1433
p5435
aVAMQ-1432
p5436
aVAMQ-1431
p5437
aVAMQ-1430
p5438
aVAMQ-1429
p5439
aVAMQ-1428
p5440
aVAMQ-1389
p5441
aVAMQ-1388
p5442
aVAMQ-1387
p5443
aVAMQ-1386
p5444
aVAMQ-1385
p5445
aVAMQ-1384
p5446
aVAMQ-1383
p5447
aVAMQ-1382
p5448
aVAMQ-1381
p5449
aVAMQ-1380
p5450
aVAMQ-1379
p5451
aVAMQ-1378
p5452
aVAMQ-1377
p5453
aVAMQ-1376
p5454
aVAMQ-1375
p5455
aVAMQ-1374
p5456
aVAMQ-1373
p5457
aVAMQ-1372
p5458
aVAMQ-1371
p5459
aVAMQ-1370
p5460
aVAMQ-1369
p5461
aVAMQ-1368
p5462
aVAMQ-1367
p5463
aVAMQ-1366
p5464
aVAMQ-1365
p5465
aVAMQ-1364
p5466
aVAMQ-1363
p5467
aVAMQ-1362
p5468
aVAMQ-1361
p5469
aVAMQ-1360
p5470
aVAMQ-1359
p5471
aVAMQ-1358
p5472
aVAMQ-1357
p5473
aVAMQ-1356
p5474
aVAMQ-1355
p5475
aVAMQ-1354
p5476
aVAMQ-1353
p5477
aVAMQ-1352
p5478
aVAMQ-1351
p5479
aVAMQ-1350
p5480
aVAMQ-1349
p5481
aVAMQ-1348
p5482
aVAMQ-1347
p5483
aVAMQ-1346
p5484
aVAMQ-1345
p5485
aVAMQ-1344
p5486
aVAMQ-1343
p5487
aVAMQ-1342
p5488
aVAMQ-1341
p5489
aVAMQ-1340
p5490
aVAMQ-1339
p5491
aVAMQ-1338
p5492
aVAMQ-1337
p5493
aVAMQ-1336
p5494
aVAMQ-1335
p5495
aVAMQ-1334
p5496
aVAMQ-1333
p5497
aVAMQ-1332
p5498
aVAMQ-1331
p5499
aVAMQ-1330
p5500
aVAMQ-1329
p5501
aVAMQ-1328
p5502
aVAMQ-1327
p5503
aVAMQ-1326
p5504
aVAMQ-1325
p5505
aVAMQ-1324
p5506
aVAMQ-1323
p5507
aVAMQ-1322
p5508
aVAMQ-1321
p5509
aVAMQ-1320
p5510
aVAMQ-1319
p5511
aVAMQ-1318
p5512
aVAMQ-1317
p5513
aVAMQ-1316
p5514
aVAMQ-1315
p5515
aVAMQ-1314
p5516
aVAMQ-1313
p5517
aVAMQ-1312
p5518
aVAMQ-1311
p5519
aVAMQ-1310
p5520
aVAMQ-1309
p5521
aVAMQ-1308
p5522
aVAMQ-1307
p5523
aVAMQ-1306
p5524
aVAMQ-1305
p5525
aVAMQ-1304
p5526
aVAMQ-1303
p5527
aVAMQ-1302
p5528
aVAMQ-1301
p5529
aVAMQ-1300
p5530
aVAMQ-1299
p5531
aVAMQ-1298
p5532
aVAMQ-1297
p5533
aVAMQ-1296
p5534
aVAMQ-1295
p5535
aVAMQ-1294
p5536
aVAMQ-1293
p5537
aVAMQ-1292
p5538
aVAMQ-1291
p5539
aVAMQ-1290
p5540
aVAMQ-1289
p5541
aVAMQ-1288
p5542
aVAMQ-1287
p5543
aVAMQ-1286
p5544
aVAMQ-1285
p5545
aVAMQ-1284
p5546
aVAMQ-1283
p5547
aVAMQ-1282
p5548
aVAMQ-1281
p5549
aVAMQ-1280
p5550
aVAMQ-1279
p5551
aVAMQ-1278
p5552
aVAMQ-1277
p5553
aVAMQ-1276
p5554
aVAMQ-1275
p5555
aVAMQ-1274
p5556
aVAMQ-1273
p5557
aVAMQ-1272
p5558
aVAMQ-1271
p5559
aVAMQ-1270
p5560
aVAMQ-1269
p5561
aVAMQ-1268
p5562
aVAMQ-1267
p5563
aVAMQ-1266
p5564
aVAMQ-1265
p5565
aVAMQ-1264
p5566
aVAMQ-1263
p5567
aVAMQ-1262
p5568
aVAMQ-1261
p5569
aVAMQ-1260
p5570
aVAMQ-1259
p5571
aVAMQ-1258
p5572
aVAMQ-1257
p5573
aVAMQ-1256
p5574
aVAMQ-1255
p5575
aVAMQ-1254
p5576
aVAMQ-1253
p5577
aVAMQ-1252
p5578
aVAMQ-1251
p5579
aVAMQ-1250
p5580
aVAMQ-1249
p5581
aVAMQ-1248
p5582
aVAMQ-1247
p5583
aVAMQ-1246
p5584
aVAMQ-1245
p5585
aVAMQ-1244
p5586
aVAMQ-1243
p5587
aVAMQ-1242
p5588
aVAMQ-1241
p5589
aVAMQ-1240
p5590
aVAMQ-1239
p5591
aVAMQ-1238
p5592
aVAMQ-1237
p5593
aVAMQ-1236
p5594
aVAMQ-1235
p5595
aVAMQ-1234
p5596
aVAMQ-1233
p5597
aVAMQ-1232
p5598
aVAMQ-1231
p5599
aVAMQ-1230
p5600
aVAMQ-1229
p5601
aVAMQ-1228
p5602
aVAMQ-1227
p5603
aVAMQ-1226
p5604
aVAMQ-1225
p5605
aVAMQ-1224
p5606
aVAMQ-1223
p5607
aVAMQ-1222
p5608
aVAMQ-1221
p5609
aVAMQ-1220
p5610
aVAMQ-1219
p5611
aVAMQ-1218
p5612
aVAMQ-1217
p5613
aVAMQ-1216
p5614
aVAMQ-1215
p5615
aVAMQ-1214
p5616
aVAMQ-1213
p5617
aVAMQ-1212
p5618
aVAMQ-1211
p5619
aVAMQ-1210
p5620
aVAMQ-1209
p5621
aVAMQ-1208
p5622
aVAMQ-1207
p5623
aVAMQ-1206
p5624
aVAMQ-1205
p5625
aVAMQ-1204
p5626
aVAMQ-1203
p5627
aVAMQ-1202
p5628
aVAMQ-1201
p5629
aVAMQ-1200
p5630
aVAMQ-1199
p5631
aVAMQ-1198
p5632
aVAMQ-1197
p5633
aVAMQ-1196
p5634
aVAMQ-1195
p5635
aVAMQ-1194
p5636
aVAMQ-1193
p5637
aVAMQ-1192
p5638
aVAMQ-1191
p5639
aVAMQ-1190
p5640
aVAMQ-1189
p5641
aVAMQ-1188
p5642
aVAMQ-1187
p5643
aVAMQ-1186
p5644
aVAMQ-1185
p5645
aVAMQ-1184
p5646
aVAMQ-1183
p5647
aVAMQ-1181
p5648
aVAMQ-1180
p5649
aVAMQ-1179
p5650
aVAMQ-1178
p5651
aVAMQ-1177
p5652
aVAMQ-1176
p5653
aVAMQ-1175
p5654
aVAMQ-1174
p5655
aVAMQ-1173
p5656
aVAMQ-1172
p5657
aVAMQ-1171
p5658
aVAMQ-1170
p5659
aVAMQ-1169
p5660
aVAMQ-1168
p5661
aVAMQ-1167
p5662
aVAMQ-1166
p5663
aVAMQ-1165
p5664
aVAMQ-1164
p5665
aVAMQ-1163
p5666
aVAMQ-1162
p5667
aVAMQ-1161
p5668
aVAMQ-1160
p5669
aVAMQ-1159
p5670
aVAMQ-1158
p5671
aVAMQ-1157
p5672
aVAMQ-1156
p5673
aVAMQ-1154
p5674
aVAMQ-1153
p5675
aVAMQ-1152
p5676
aVAMQ-1151
p5677
aVAMQ-1150
p5678
aVAMQ-1149
p5679
aVAMQ-1148
p5680
aVAMQ-1147
p5681
aVAMQ-1146
p5682
aVAMQ-1143
p5683
aVAMQ-1142
p5684
aVAMQ-1141
p5685
aVAMQ-1140
p5686
aVAMQ-1139
p5687
aVAMQ-1138
p5688
aVAMQ-1137
p5689
aVAMQ-1136
p5690
aVAMQ-1135
p5691
aVAMQ-1134
p5692
aVAMQ-1133
p5693
aVAMQ-1132
p5694
aVAMQ-1130
p5695
aVAMQ-1129
p5696
aVAMQ-1128
p5697
aVAMQ-1127
p5698
aVAMQ-1126
p5699
aVAMQ-1125
p5700
aVAMQ-1124
p5701
aVAMQ-1122
p5702
aVAMQ-1121
p5703
aVAMQ-1120
p5704
aVAMQ-1119
p5705
aVAMQ-1118
p5706
aVAMQ-1117
p5707
aVAMQ-1116
p5708
aVAMQ-1115
p5709
aVAMQ-1114
p5710
aVAMQ-1113
p5711
aVAMQ-1112
p5712
aVAMQ-1111
p5713
aVAMQ-1110
p5714
aVAMQ-1109
p5715
aVAMQ-1108
p5716
aVAMQ-1107
p5717
aVAMQ-1106
p5718
aVAMQ-1105
p5719
aVAMQ-1104
p5720
aVAMQ-1103
p5721
aVAMQ-1102
p5722
aVAMQ-1100
p5723
aVAMQ-1099
p5724
aVAMQ-1098
p5725
aVAMQ-1097
p5726
aVAMQ-1096
p5727
aVAMQ-1095
p5728
aVAMQ-1094
p5729
aVAMQ-1093
p5730
aVAMQ-1092
p5731
aVAMQ-1091
p5732
aVAMQ-1090
p5733
aVAMQ-1089
p5734
aVAMQ-1088
p5735
aVAMQ-1087
p5736
aVAMQ-1086
p5737
aVAMQ-1085
p5738
aVAMQ-1084
p5739
aVAMQ-1083
p5740
aVAMQ-1082
p5741
aVAMQ-1081
p5742
aVAMQ-1080
p5743
aVAMQ-1079
p5744
aVAMQ-1078
p5745
aVAMQ-1077
p5746
aVAMQ-1076
p5747
aVAMQ-1075
p5748
aVAMQ-1074
p5749
aVAMQ-1073
p5750
aVAMQ-1072
p5751
aVAMQ-1071
p5752
aVAMQ-1070
p5753
aVAMQ-1069
p5754
aVAMQ-1068
p5755
aVAMQ-1067
p5756
aVAMQ-1066
p5757
aVAMQ-1065
p5758
aVAMQ-1064
p5759
aVAMQ-1063
p5760
aVAMQ-1062
p5761
aVAMQ-1061
p5762
aVAMQ-1060
p5763
aVAMQ-1059
p5764
aVAMQ-1058
p5765
aVAMQ-1057
p5766
aVAMQ-1056
p5767
aVAMQ-1055
p5768
aVAMQ-1054
p5769
aVAMQ-1053
p5770
aVAMQ-1052
p5771
aVAMQ-1051
p5772
aVAMQ-1050
p5773
aVAMQ-1049
p5774
aVAMQ-1048
p5775
aVAMQ-1047
p5776
aVAMQ-1046
p5777
aVAMQ-1045
p5778
aVAMQ-1044
p5779
aVAMQ-1043
p5780
aVAMQ-1041
p5781
aVAMQ-1040
p5782
aVAMQ-1039
p5783
aVAMQ-1038
p5784
aVAMQ-1036
p5785
aVAMQ-1035
p5786
aVAMQ-1034
p5787
aVAMQ-1033
p5788
aVAMQ-1032
p5789
aVAMQ-1031
p5790
aVAMQ-1030
p5791
aVAMQ-1029
p5792
aVAMQ-1028
p5793
aVAMQ-1027
p5794
aVAMQ-1026
p5795
aVAMQ-1024
p5796
aVAMQ-1023
p5797
aVAMQ-1022
p5798
aVAMQ-1020
p5799
aVAMQ-1019
p5800
aVAMQ-1018
p5801
aVAMQ-1017
p5802
aVAMQ-1016
p5803
aVAMQ-1015
p5804
aVAMQ-1014
p5805
aVAMQ-1013
p5806
aVAMQ-1010
p5807
aVAMQ-1009
p5808
aVAMQ-1008
p5809
aVAMQ-1007
p5810
aVAMQ-1006
p5811
aVAMQ-1005
p5812
aVAMQ-1004
p5813
aVAMQ-1003
p5814
aVAMQ-1002
p5815
aVAMQ-1001
p5816
aVAMQ-1000
p5817
aVAMQ-998
p5818
aVAMQ-997
p5819
aVAMQ-993
p5820
aVAMQ-992
p5821
aVAMQ-987
p5822
aVAMQ-986
p5823
aVAMQ-984
p5824
aVAMQ-983
p5825
aVAMQ-982
p5826
aVAMQ-981
p5827
aVAMQ-979
p5828
aVAMQ-978
p5829
aVAMQ-977
p5830
aVAMQ-976
p5831
aVAMQ-975
p5832
aVAMQ-968
p5833
aVAMQ-967
p5834
aVAMQ-965
p5835
aVAMQ-964
p5836
aVAMQ-962
p5837
aVAMQ-961
p5838
aVAMQ-960
p5839
aVAMQ-959
p5840
aVAMQ-958
p5841
aVAMQ-957
p5842
aVAMQ-956
p5843
aVAMQ-955
p5844
aVAMQ-954
p5845
aVAMQ-953
p5846
aVAMQ-950
p5847
aVAMQ-949
p5848
aVAMQ-948
p5849
aVAMQ-945
p5850
aVAMQ-944
p5851
aVAMQ-943
p5852
aVAMQ-942
p5853
aVAMQ-941
p5854
aVAMQ-940
p5855
aVAMQ-938
p5856
aVAMQ-936
p5857
aVAMQ-935
p5858
aVAMQ-934
p5859
aVAMQ-933
p5860
aVAMQ-932
p5861
aVAMQ-929
p5862
aVAMQ-928
p5863
aVAMQ-927
p5864
aVAMQ-926
p5865
aVAMQ-925
p5866
aVAMQ-923
p5867
aVAMQ-922
p5868
aVAMQ-921
p5869
aVAMQ-920
p5870
aVAMQ-918
p5871
aVAMQ-917
p5872
aVAMQ-916
p5873
aVAMQ-915
p5874
aVAMQ-914
p5875
aVAMQ-913
p5876
aVAMQ-912
p5877
aVAMQ-911
p5878
aVAMQ-910
p5879
aVAMQ-909
p5880
aVAMQ-908
p5881
aVAMQ-907
p5882
aVAMQ-906
p5883
aVAMQ-905
p5884
aVAMQ-904
p5885
aVAMQ-903
p5886
aVAMQ-902
p5887
aVAMQ-901
p5888
aVAMQ-900
p5889
aVAMQ-899
p5890
aVAMQ-898
p5891
aVAMQ-897
p5892
aVAMQ-896
p5893
aVAMQ-895
p5894
aVAMQ-894
p5895
aVAMQ-893
p5896
aVAMQ-892
p5897
aVAMQ-891
p5898
aVAMQ-890
p5899
aVAMQ-889
p5900
aVAMQ-888
p5901
aVAMQ-887
p5902
aVAMQ-886
p5903
aVAMQ-885
p5904
aVAMQ-884
p5905
aVAMQ-882
p5906
aVAMQ-881
p5907
aVAMQ-880
p5908
aVAMQ-879
p5909
aVAMQ-878
p5910
aVAMQ-877
p5911
aVAMQ-876
p5912
aVAMQ-875
p5913
aVAMQ-873
p5914
aVAMQ-872
p5915
aVAMQ-871
p5916
aVAMQ-870
p5917
aVAMQ-869
p5918
aVAMQ-868
p5919
aVAMQ-867
p5920
aVAMQ-863
p5921
aVAMQ-862
p5922
aVAMQ-861
p5923
aVAMQ-860
p5924
aVAMQ-859
p5925
aVAMQ-858
p5926
aVAMQ-857
p5927
aVAMQ-856
p5928
aVAMQ-855
p5929
aVAMQ-853
p5930
aVAMQ-852
p5931
aVAMQ-851
p5932
aVAMQ-850
p5933
aVAMQ-849
p5934
aVAMQ-848
p5935
aVAMQ-847
p5936
aVAMQ-846
p5937
aVAMQ-845
p5938
aVAMQ-844
p5939
aVAMQ-842
p5940
aVAMQ-841
p5941
aVAMQ-840
p5942
aVAMQ-839
p5943
aVAMQ-838
p5944
aVAMQ-837
p5945
aVAMQ-836
p5946
aVAMQ-835
p5947
aVAMQ-834
p5948
aVAMQ-833
p5949
aVAMQ-832
p5950
aVAMQ-831
p5951
aVAMQ-829
p5952
aVAMQ-828
p5953
aVAMQ-827
p5954
aVAMQ-826
p5955
aVAMQ-825
p5956
aVAMQ-822
p5957
aVAMQ-820
p5958
aVAMQ-819
p5959
aVAMQ-816
p5960
aVAMQ-815
p5961
aVAMQ-814
p5962
aVAMQ-813
p5963
aVAMQ-812
p5964
aVAMQ-811
p5965
aVAMQ-810
p5966
aVAMQ-809
p5967
aVAMQ-808
p5968
aVAMQ-807
p5969
aVAMQ-806
p5970
aVAMQ-805
p5971
aVAMQ-804
p5972
aVAMQ-803
p5973
aVAMQ-802
p5974
aVAMQ-801
p5975
aVAMQ-800
p5976
aVAMQ-799
p5977
aVAMQ-798
p5978
aVAMQ-796
p5979
aVAMQ-795
p5980
aVAMQ-794
p5981
aVAMQ-793
p5982
aVAMQ-792
p5983
aVAMQ-791
p5984
aVAMQ-790
p5985
aVAMQ-789
p5986
aVAMQ-788
p5987
aVAMQ-787
p5988
aVAMQ-786
p5989
aVAMQ-785
p5990
aVAMQ-784
p5991
aVAMQ-783
p5992
aVAMQ-782
p5993
aVAMQ-781
p5994
aVAMQ-780
p5995
aVAMQ-777
p5996
aVAMQ-776
p5997
aVAMQ-775
p5998
aVAMQ-774
p5999
aVAMQ-773
p6000
aVAMQ-772
p6001
aVAMQ-771
p6002
aVAMQ-770
p6003
aVAMQ-769
p6004
aVAMQ-768
p6005
aVAMQ-767
p6006
aVAMQ-766
p6007
aVAMQ-765
p6008
aVAMQ-764
p6009
aVAMQ-763
p6010
aVAMQ-762
p6011
aVAMQ-761
p6012
aVAMQ-760
p6013
aVAMQ-759
p6014
aVAMQ-758
p6015
aVAMQ-757
p6016
aVAMQ-756
p6017
aVAMQ-755
p6018
aVAMQ-754
p6019
aVAMQ-753
p6020
aVAMQ-752
p6021
aVAMQ-751
p6022
aVAMQ-750
p6023
aVAMQ-749
p6024
aVAMQ-748
p6025
aVAMQ-747
p6026
aVAMQ-746
p6027
aVAMQ-745
p6028
aVAMQ-744
p6029
aVAMQ-743
p6030
aVAMQ-742
p6031
aVAMQ-741
p6032
aVAMQ-740
p6033
aVAMQ-739
p6034
aVAMQ-738
p6035
aVAMQ-737
p6036
aVAMQ-736
p6037
aVAMQ-735
p6038
aVAMQ-734
p6039
aVAMQ-733
p6040
aVAMQ-732
p6041
aVAMQ-731
p6042
aVAMQ-730
p6043
aVAMQ-729
p6044
aVAMQ-728
p6045
aVAMQ-727
p6046
aVAMQ-726
p6047
aVAMQ-725
p6048
aVAMQ-724
p6049
aVAMQ-723
p6050
aVAMQ-722
p6051
aVAMQ-721
p6052
aVAMQ-720
p6053
aVAMQ-719
p6054
aVAMQ-718
p6055
aVAMQ-717
p6056
aVAMQ-716
p6057
aVAMQ-715
p6058
aVAMQ-714
p6059
aVAMQ-713
p6060
aVAMQ-712
p6061
aVAMQ-711
p6062
aVAMQ-710
p6063
aVAMQ-709
p6064
aVAMQ-708
p6065
aVAMQ-707
p6066
aVAMQ-706
p6067
aVAMQ-705
p6068
aVAMQ-704
p6069
aVAMQ-703
p6070
aVAMQ-702
p6071
aVAMQ-701
p6072
aVAMQ-700
p6073
aVAMQ-699
p6074
aVAMQ-698
p6075
aVAMQ-697
p6076
aVAMQ-696
p6077
aVAMQ-695
p6078
aVAMQ-694
p6079
aVAMQ-693
p6080
aVAMQ-692
p6081
aVAMQ-691
p6082
aVAMQ-690
p6083
aVAMQ-689
p6084
aVAMQ-688
p6085
aVAMQ-687
p6086
aVAMQ-686
p6087
aVAMQ-685
p6088
aVAMQ-684
p6089
aVAMQ-683
p6090
aVAMQ-682
p6091
aVAMQ-681
p6092
aVAMQ-680
p6093
aVAMQ-679
p6094
aVAMQ-678
p6095
aVAMQ-677
p6096
aVAMQ-676
p6097
aVAMQ-675
p6098
aVAMQ-674
p6099
aVAMQ-673
p6100
aVAMQ-672
p6101
aVAMQ-671
p6102
aVAMQ-670
p6103
aVAMQ-669
p6104
aVAMQ-668
p6105
aVAMQ-667
p6106
aVAMQ-666
p6107
aVAMQ-665
p6108
aVAMQ-664
p6109
aVAMQ-663
p6110
aVAMQ-662
p6111
aVAMQ-661
p6112
aVAMQ-660
p6113
aVAMQ-659
p6114
aVAMQ-658
p6115
aVAMQ-657
p6116
aVAMQ-656
p6117
aVAMQ-655
p6118
aVAMQ-654
p6119
aVAMQ-653
p6120
aVAMQ-652
p6121
aVAMQ-651
p6122
aVAMQ-650
p6123
aVAMQ-649
p6124
aVAMQ-648
p6125
aVAMQ-647
p6126
aVAMQ-646
p6127
aVAMQ-645
p6128
aVAMQ-644
p6129
aVAMQ-643
p6130
aVAMQ-642
p6131
aVAMQ-641
p6132
aVAMQ-640
p6133
aVAMQ-639
p6134
aVAMQ-638
p6135
aVAMQ-637
p6136
aVAMQ-636
p6137
aVAMQ-635
p6138
aVAMQ-634
p6139
aVAMQ-633
p6140
aVAMQ-632
p6141
aVAMQ-631
p6142
aVAMQ-630
p6143
aVAMQ-629
p6144
aVAMQ-628
p6145
aVAMQ-627
p6146
aVAMQ-626
p6147
aVAMQ-625
p6148
aVAMQ-624
p6149
aVAMQ-623
p6150
aVAMQ-622
p6151
aVAMQ-621
p6152
aVAMQ-620
p6153
aVAMQ-619
p6154
aVAMQ-618
p6155
aVAMQ-617
p6156
aVAMQ-616
p6157
aVAMQ-615
p6158
aVAMQ-614
p6159
aVAMQ-613
p6160
aVAMQ-612
p6161
aVAMQ-611
p6162
aVAMQ-610
p6163
aVAMQ-609
p6164
aVAMQ-608
p6165
aVAMQ-607
p6166
aVAMQ-606
p6167
aVAMQ-605
p6168
aVAMQ-604
p6169
aVAMQ-603
p6170
aVAMQ-602
p6171
aVAMQ-601
p6172
aVAMQ-600
p6173
aVAMQ-599
p6174
aVAMQ-597
p6175
aVAMQ-596
p6176
aVAMQ-595
p6177
aVAMQ-594
p6178
aVAMQ-593
p6179
aVAMQ-592
p6180
aVAMQ-591
p6181
aVAMQ-590
p6182
aVAMQ-589
p6183
aVAMQ-588
p6184
aVAMQ-587
p6185
aVAMQ-586
p6186
aVAMQ-585
p6187
aVAMQ-584
p6188
aVAMQ-583
p6189
aVAMQ-582
p6190
aVAMQ-581
p6191
aVAMQ-580
p6192
aVAMQ-579
p6193
aVAMQ-578
p6194
aVAMQ-577
p6195
aVAMQ-576
p6196
aVAMQ-575
p6197
aVAMQ-574
p6198
aVAMQ-573
p6199
aVAMQ-570
p6200
aVAMQ-569
p6201
aVAMQ-568
p6202
aVAMQ-567
p6203
aVAMQ-566
p6204
aVAMQ-565
p6205
aVAMQ-564
p6206
aVAMQ-563
p6207
aVAMQ-562
p6208
aVAMQ-561
p6209
aVAMQ-560
p6210
aVAMQ-559
p6211
aVAMQ-558
p6212
aVAMQ-557
p6213
aVAMQ-556
p6214
aVAMQ-547
p6215
aVAMQ-546
p6216
aVAMQ-545
p6217
aVAMQ-544
p6218
aVAMQ-543
p6219
aVAMQ-542
p6220
aVAMQ-541
p6221
aVAMQ-540
p6222
aVAMQ-539
p6223
aVAMQ-538
p6224
aVAMQ-537
p6225
aVAMQ-536
p6226
aVAMQ-535
p6227
aVAMQ-534
p6228
aVAMQ-533
p6229
aVAMQ-532
p6230
aVAMQ-531
p6231
aVAMQ-530
p6232
aVAMQ-529
p6233
aVAMQ-528
p6234
aVAMQ-527
p6235
aVAMQ-526
p6236
aVAMQ-525
p6237
aVAMQ-524
p6238
aVAMQ-523
p6239
aVAMQ-522
p6240
aVAMQ-521
p6241
aVAMQ-520
p6242
aVAMQ-519
p6243
aVAMQ-518
p6244
aVAMQ-517
p6245
aVAMQ-516
p6246
aVAMQ-515
p6247
aVAMQ-514
p6248
aVAMQ-513
p6249
aVAMQ-512
p6250
aVAMQ-511
p6251
aVAMQ-510
p6252
aVAMQ-509
p6253
aVAMQ-508
p6254
aVAMQ-507
p6255
aVAMQ-506
p6256
aVAMQ-505
p6257
aVAMQ-504
p6258
aVAMQ-503
p6259
aVAMQ-502
p6260
aVAMQ-501
p6261
aVAMQ-500
p6262
aVAMQ-499
p6263
aVAMQ-498
p6264
aVAMQ-497
p6265
aVAMQ-496
p6266
aVAMQ-495
p6267
aVAMQ-494
p6268
aVAMQ-493
p6269
aVAMQ-492
p6270
aVAMQ-491
p6271
aVAMQ-490
p6272
aVAMQ-489
p6273
aVAMQ-488
p6274
aVAMQ-487
p6275
aVAMQ-486
p6276
aVAMQ-485
p6277
aVAMQ-484
p6278
aVAMQ-483
p6279
aVAMQ-482
p6280
aVAMQ-481
p6281
aVAMQ-480
p6282
aVAMQ-479
p6283
aVAMQ-478
p6284
aVAMQ-477
p6285
aVAMQ-476
p6286
aVAMQ-475
p6287
aVAMQ-474
p6288
aVAMQ-473
p6289
aVAMQ-472
p6290
aVAMQ-471
p6291
aVAMQ-470
p6292
aVAMQ-469
p6293
aVAMQ-468
p6294
aVAMQ-467
p6295
aVAMQ-466
p6296
aVAMQ-465
p6297
aVAMQ-464
p6298
aVAMQ-463
p6299
aVAMQ-462
p6300
aVAMQ-461
p6301
aVAMQ-460
p6302
aVAMQ-459
p6303
aVAMQ-458
p6304
aVAMQ-457
p6305
aVAMQ-456
p6306
aVAMQ-455
p6307
aVAMQ-454
p6308
aVAMQ-453
p6309
aVAMQ-452
p6310
aVAMQ-451
p6311
aVAMQ-450
p6312
aVAMQ-449
p6313
aVAMQ-448
p6314
aVAMQ-447
p6315
aVAMQ-446
p6316
aVAMQ-445
p6317
aVAMQ-444
p6318
aVAMQ-443
p6319
aVAMQ-442
p6320
aVAMQ-441
p6321
aVAMQ-440
p6322
aVAMQ-439
p6323
aVAMQ-438
p6324
aVAMQ-436
p6325
aVAMQ-435
p6326
aVAMQ-434
p6327
aVAMQ-433
p6328
aVAMQ-432
p6329
aVAMQ-431
p6330
aVAMQ-430
p6331
aVAMQ-429
p6332
aVAMQ-428
p6333
aVAMQ-427
p6334
aVAMQ-426
p6335
aVAMQ-425
p6336
aVAMQ-424
p6337
aVAMQ-423
p6338
aVAMQ-422
p6339
aVAMQ-421
p6340
aVAMQ-420
p6341
aVAMQ-419
p6342
aVAMQ-418
p6343
aVAMQ-417
p6344
aVAMQ-416
p6345
aVAMQ-415
p6346
aVAMQ-414
p6347
aVAMQ-413
p6348
aVAMQ-412
p6349
aVAMQ-411
p6350
aVAMQ-410
p6351
aVAMQ-409
p6352
aVAMQ-408
p6353
aVAMQ-407
p6354
aVAMQ-406
p6355
aVAMQ-405
p6356
aVAMQ-404
p6357
aVAMQ-403
p6358
aVAMQ-402
p6359
aVAMQ-401
p6360
aVAMQ-400
p6361
aVAMQ-399
p6362
aVAMQ-398
p6363
aVAMQ-397
p6364
aVAMQ-396
p6365
aVAMQ-394
p6366
aVAMQ-393
p6367
aVAMQ-392
p6368
aVAMQ-391
p6369
aVAMQ-390
p6370
aVAMQ-389
p6371
aVAMQ-388
p6372
aVAMQ-387
p6373
aVAMQ-386
p6374
aVAMQ-385
p6375
aVAMQ-384
p6376
aVAMQ-383
p6377
aVAMQ-382
p6378
aVAMQ-381
p6379
aVAMQ-380
p6380
aVAMQ-379
p6381
aVAMQ-378
p6382
aVAMQ-377
p6383
aVAMQ-376
p6384
aVAMQ-375
p6385
aVAMQ-374
p6386
aVAMQ-373
p6387
aVAMQ-372
p6388
aVAMQ-371
p6389
aVAMQ-370
p6390
aVAMQ-369
p6391
aVAMQ-368
p6392
aVAMQ-367
p6393
aVAMQ-366
p6394
aVAMQ-365
p6395
aVAMQ-364
p6396
aVAMQ-363
p6397
aVAMQ-362
p6398
aVAMQ-361
p6399
aVAMQ-360
p6400
aVAMQ-359
p6401
aVAMQ-358
p6402
aVAMQ-357
p6403
aVAMQ-356
p6404
aVAMQ-355
p6405
aVAMQ-354
p6406
aVAMQ-353
p6407
aVAMQ-352
p6408
aVAMQ-351
p6409
aVAMQ-350
p6410
aVAMQ-349
p6411
aVAMQ-348
p6412
aVAMQ-347
p6413
aVAMQ-346
p6414
aVAMQ-345
p6415
aVAMQ-344
p6416
aVAMQ-343
p6417
aVAMQ-342
p6418
aVAMQ-341
p6419
aVAMQ-340
p6420
aVAMQ-339
p6421
aVAMQ-338
p6422
aVAMQ-337
p6423
aVAMQ-336
p6424
aVAMQ-335
p6425
aVAMQ-334
p6426
aVAMQ-333
p6427
aVAMQ-332
p6428
aVAMQ-331
p6429
aVAMQ-330
p6430
aVAMQ-329
p6431
aVAMQ-328
p6432
aVAMQ-327
p6433
aVAMQ-326
p6434
aVAMQ-325
p6435
aVAMQ-324
p6436
aVAMQ-323
p6437
aVAMQ-322
p6438
aVAMQ-321
p6439
aVAMQ-319
p6440
aVAMQ-318
p6441
aVAMQ-317
p6442
aVAMQ-316
p6443
aVAMQ-315
p6444
aVAMQ-314
p6445
aVAMQ-313
p6446
aVAMQ-312
p6447
aVAMQ-311
p6448
aVAMQ-310
p6449
aVAMQ-309
p6450
aVAMQ-308
p6451
aVAMQ-307
p6452
aVAMQ-306
p6453
aVAMQ-305
p6454
aVAMQ-304
p6455
aVAMQ-303
p6456
aVAMQ-302
p6457
aVAMQ-301
p6458
aVAMQ-300
p6459
aVAMQ-299
p6460
aVAMQ-298
p6461
aVAMQ-297
p6462
aVAMQ-296
p6463
aVAMQ-295
p6464
aVAMQ-294
p6465
aVAMQ-293
p6466
aVAMQ-292
p6467
aVAMQ-291
p6468
aVAMQ-290
p6469
aVAMQ-289
p6470
aVAMQ-288
p6471
aVAMQ-287
p6472
aVAMQ-286
p6473
aVAMQ-285
p6474
aVAMQ-284
p6475
aVAMQ-283
p6476
aVAMQ-282
p6477
aVAMQ-281
p6478
aVAMQ-280
p6479
aVAMQ-279
p6480
aVAMQ-278
p6481
aVAMQ-277
p6482
aVAMQ-276
p6483
aVAMQ-275
p6484
aVAMQ-274
p6485
aVAMQ-273
p6486
aVAMQ-272
p6487
aVAMQ-271
p6488
aVAMQ-270
p6489
aVAMQ-269
p6490
aVAMQ-268
p6491
aVAMQ-267
p6492
aVAMQ-266
p6493
aVAMQ-265
p6494
aVAMQ-264
p6495
aVAMQ-263
p6496
aVAMQ-262
p6497
aVAMQ-261
p6498
aVAMQ-260
p6499
aVAMQ-259
p6500
aVAMQ-258
p6501
aVAMQ-257
p6502
aVAMQ-256
p6503
aVAMQ-255
p6504
aVAMQ-254
p6505
aVAMQ-253
p6506
aVAMQ-252
p6507
aVAMQ-251
p6508
aVAMQ-250
p6509
aVAMQ-249
p6510
aVAMQ-248
p6511
aVAMQ-247
p6512
aVAMQ-246
p6513
aVAMQ-245
p6514
aVAMQ-244
p6515
aVAMQ-243
p6516
aVAMQ-242
p6517
aVAMQ-241
p6518
aVAMQ-240
p6519
aVAMQ-239
p6520
aVAMQ-238
p6521
aVAMQ-237
p6522
aVAMQ-236
p6523
aVAMQ-235
p6524
aVAMQ-234
p6525
aVAMQ-233
p6526
aVAMQ-232
p6527
aVAMQ-231
p6528
aVAMQ-230
p6529
aVAMQ-229
p6530
aVAMQ-228
p6531
aVAMQ-227
p6532
aVAMQ-226
p6533
aVAMQ-225
p6534
aVAMQ-224
p6535
aVAMQ-223
p6536
aVAMQ-222
p6537
aVAMQ-221
p6538
aVAMQ-220
p6539
aVAMQ-219
p6540
aVAMQ-218
p6541
aVAMQ-217
p6542
aVAMQ-216
p6543
aVAMQ-215
p6544
aVAMQ-214
p6545
aVAMQ-213
p6546
aVAMQ-212
p6547
aVAMQ-211
p6548
aVAMQ-210
p6549
aVAMQ-209
p6550
aVAMQ-208
p6551
aVAMQ-207
p6552
aVAMQ-206
p6553
aVAMQ-205
p6554
aVAMQ-204
p6555
aVAMQ-203
p6556
aVAMQ-202
p6557
aVAMQ-201
p6558
aVAMQ-200
p6559
aVAMQ-199
p6560
aVAMQ-198
p6561
aVAMQ-197
p6562
aVAMQ-196
p6563
aVAMQ-195
p6564
aVAMQ-194
p6565
aVAMQ-193
p6566
aVAMQ-192
p6567
aVAMQ-191
p6568
aVAMQ-190
p6569
aVAMQ-189
p6570
aVAMQ-188
p6571
aVAMQ-187
p6572
aVAMQ-186
p6573
aVAMQ-185
p6574
aVAMQ-184
p6575
aVAMQ-183
p6576
aVAMQ-182
p6577
aVAMQ-181
p6578
aVAMQ-180
p6579
aVAMQ-179
p6580
aVAMQ-178
p6581
aVAMQ-176
p6582
aVAMQ-175
p6583
aVAMQ-174
p6584
aVAMQ-173
p6585
aVAMQ-172
p6586
aVAMQ-171
p6587
aVAMQ-170
p6588
aVAMQ-169
p6589
aVAMQ-168
p6590
aVAMQ-167
p6591
aVAMQ-166
p6592
aVAMQ-165
p6593
aVAMQ-164
p6594
aVAMQ-163
p6595
aVAMQ-162
p6596
aVAMQ-161
p6597
aVAMQ-160
p6598
aVAMQ-159
p6599
aVAMQ-158
p6600
aVAMQ-157
p6601
aVAMQ-156
p6602
aVAMQ-155
p6603
aVAMQ-154
p6604
aVAMQ-153
p6605
aVAMQ-152
p6606
aVAMQ-151
p6607
aVAMQ-150
p6608
aVAMQ-149
p6609
aVAMQ-148
p6610
aVAMQ-147
p6611
aVAMQ-146
p6612
aVAMQ-145
p6613
aVAMQ-144
p6614
aVAMQ-143
p6615
aVAMQ-142
p6616
aVAMQ-141
p6617
aVAMQ-140
p6618
aVAMQ-139
p6619
aVAMQ-138
p6620
aVAMQ-137
p6621
aVAMQ-136
p6622
aVAMQ-135
p6623
aVAMQ-134
p6624
aVAMQ-133
p6625
aVAMQ-132
p6626
aVAMQ-131
p6627
aVAMQ-130
p6628
aVAMQ-129
p6629
aVAMQ-128
p6630
aVAMQ-127
p6631
aVAMQ-126
p6632
aVAMQ-125
p6633
aVAMQ-124
p6634
aVAMQ-123
p6635
aVAMQ-122
p6636
aVAMQ-121
p6637
aVAMQ-120
p6638
aVAMQ-119
p6639
aVAMQ-118
p6640
aVAMQ-117
p6641
aVAMQ-116
p6642
aVAMQ-115
p6643
aVAMQ-114
p6644
aVAMQ-113
p6645
aVAMQ-112
p6646
aVAMQ-111
p6647
aVAMQ-110
p6648
aVAMQ-109
p6649
aVAMQ-108
p6650
aVAMQ-107
p6651
aVAMQ-106
p6652
aVAMQ-105
p6653
aVAMQ-104
p6654
aVAMQ-103
p6655
aVAMQ-102
p6656
aVAMQ-101
p6657
aVAMQ-100
p6658
aVAMQ-99
p6659
aVAMQ-98
p6660
aVAMQ-97
p6661
aVAMQ-96
p6662
aVAMQ-95
p6663
aVAMQ-94
p6664
aVAMQ-93
p6665
aVAMQ-92
p6666
aVAMQ-91
p6667
aVAMQ-90
p6668
aVAMQ-89
p6669
aVAMQ-88
p6670
aVAMQ-87
p6671
aVAMQ-86
p6672
aVAMQ-84
p6673
aVAMQ-83
p6674
aVAMQ-82
p6675
aVAMQ-81
p6676
aVAMQ-80
p6677
aVAMQ-79
p6678
aVAMQ-78
p6679
aVAMQ-77
p6680
aVAMQ-76
p6681
aVAMQ-75
p6682
aVAMQ-74
p6683
aVAMQ-73
p6684
aVAMQ-72
p6685
aVAMQ-71
p6686
aVAMQ-70
p6687
aVAMQ-69
p6688
aVAMQ-68
p6689
aVAMQ-67
p6690
aVAMQ-66
p6691
aVAMQ-65
p6692
aVAMQ-64
p6693
aVAMQ-63
p6694
aVAMQ-62
p6695
aVAMQ-61
p6696
aVAMQ-60
p6697
aVAMQ-59
p6698
aVAMQ-58
p6699
aVAMQ-57
p6700
aVAMQ-56
p6701
aVAMQ-55
p6702
aVAMQ-54
p6703
aVAMQ-53
p6704
aVAMQ-52
p6705
aVAMQ-51
p6706
aVAMQ-50
p6707
aVAMQ-49
p6708
aVAMQ-48
p6709
aVAMQ-47
p6710
aVAMQ-46
p6711
aVAMQ-45
p6712
aVAMQ-44
p6713
aVAMQ-43
p6714
aVAMQ-42
p6715
aVAMQ-41
p6716
aVAMQ-40
p6717
aVAMQ-39
p6718
aVAMQ-38
p6719
aVAMQ-37
p6720
aVAMQ-36
p6721
aVAMQ-35
p6722
aVAMQ-34
p6723
aVAMQ-33
p6724
aVAMQ-32
p6725
aVAMQ-31
p6726
aVAMQ-30
p6727
aVAMQ-29
p6728
aVAMQ-28
p6729
aVAMQ-27
p6730
aVAMQ-26
p6731
aVAMQ-25
p6732
aVAMQ-24
p6733
aVAMQ-23
p6734
aVAMQ-22
p6735
aVAMQ-21
p6736
aVAMQ-20
p6737
aVAMQ-19
p6738
aVAMQ-18
p6739
aVAMQ-17
p6740
aVAMQ-16
p6741
aVAMQ-15
p6742
aVAMQ-14
p6743
aVAMQ-13
p6744
aVAMQ-12
p6745
aVAMQ-11
p6746
aVAMQ-10
p6747
aVAMQ-9
p6748
aVAMQ-8
p6749
aVAMQ-7
p6750
aVAMQ-6
p6751
aVAMQ-5
p6752
aVAMQ-4
p6753
aVAMQ-3
p6754
aVAMQ-2
p6755
aVAMQ-1
p6756
a.