(lp0
VAPLO-400
p1
aVAPLO-399
p2
aVAPLO-398
p3
aVAPLO-397
p4
aVAPLO-396
p5
aVAPLO-395
p6
aVAPLO-394
p7
aVAPLO-393
p8
aVAPLO-392
p9
aVAPLO-391
p10
aVAPLO-390
p11
aVAPLO-389
p12
aVAPLO-388
p13
aVAPLO-387
p14
aVAPLO-386
p15
aVAPLO-385
p16
aVAPLO-384
p17
aVAPLO-383
p18
aVAPLO-382
p19
aVAPLO-381
p20
aVAPLO-380
p21
aVAPLO-379
p22
aVAPLO-378
p23
aVAPLO-377
p24
aVAPLO-376
p25
aVAPLO-375
p26
aVAPLO-374
p27
aVAPLO-373
p28
aVAPLO-372
p29
aVAPLO-371
p30
aVAPLO-370
p31
aVAPLO-369
p32
aVAPLO-368
p33
aVAPLO-367
p34
aVAPLO-366
p35
aVAPLO-365
p36
aVAPLO-364
p37
aVAPLO-363
p38
aVAPLO-362
p39
aVAPLO-361
p40
aVAPLO-360
p41
aVAPLO-359
p42
aVAPLO-358
p43
aVAPLO-357
p44
aVAPLO-356
p45
aVAPLO-355
p46
aVAPLO-354
p47
aVAPLO-353
p48
aVAPLO-352
p49
aVAPLO-351
p50
aVAPLO-350
p51
aVAPLO-349
p52
aVAPLO-348
p53
aVAPLO-347
p54
aVAPLO-346
p55
aVAPLO-345
p56
aVAPLO-344
p57
aVAPLO-343
p58
aVAPLO-342
p59
aVAPLO-341
p60
aVAPLO-340
p61
aVAPLO-339
p62
aVAPLO-338
p63
aVAPLO-337
p64
aVAPLO-336
p65
aVAPLO-335
p66
aVAPLO-334
p67
aVAPLO-333
p68
aVAPLO-332
p69
aVAPLO-331
p70
aVAPLO-330
p71
aVAPLO-329
p72
aVAPLO-328
p73
aVAPLO-327
p74
aVAPLO-326
p75
aVAPLO-325
p76
aVAPLO-324
p77
aVAPLO-323
p78
aVAPLO-322
p79
aVAPLO-321
p80
aVAPLO-320
p81
aVAPLO-319
p82
aVAPLO-318
p83
aVAPLO-317
p84
aVAPLO-316
p85
aVAPLO-315
p86
aVAPLO-314
p87
aVAPLO-313
p88
aVAPLO-312
p89
aVAPLO-311
p90
aVAPLO-310
p91
aVAPLO-309
p92
aVAPLO-308
p93
aVAPLO-307
p94
aVAPLO-306
p95
aVAPLO-305
p96
aVAPLO-304
p97
aVAPLO-303
p98
aVAPLO-302
p99
aVAPLO-301
p100
aVAPLO-300
p101
aVAPLO-299
p102
aVAPLO-298
p103
aVAPLO-297
p104
aVAPLO-296
p105
aVAPLO-295
p106
aVAPLO-294
p107
aVAPLO-293
p108
aVAPLO-292
p109
aVAPLO-291
p110
aVAPLO-290
p111
aVAPLO-289
p112
aVAPLO-288
p113
aVAPLO-287
p114
aVAPLO-286
p115
aVAPLO-285
p116
aVAPLO-284
p117
aVAPLO-283
p118
aVAPLO-282
p119
aVAPLO-281
p120
aVAPLO-280
p121
aVAPLO-279
p122
aVAPLO-278
p123
aVAPLO-277
p124
aVAPLO-276
p125
aVAPLO-275
p126
aVAPLO-274
p127
aVAPLO-273
p128
aVAPLO-272
p129
aVAPLO-271
p130
aVAPLO-270
p131
aVAPLO-269
p132
aVAPLO-268
p133
aVAPLO-267
p134
aVAPLO-266
p135
aVAPLO-265
p136
aVAPLO-264
p137
aVAPLO-263
p138
aVAPLO-262
p139
aVAPLO-261
p140
aVAPLO-260
p141
aVAPLO-259
p142
aVAPLO-258
p143
aVAPLO-257
p144
aVAPLO-256
p145
aVAPLO-255
p146
aVAPLO-254
p147
aVAPLO-253
p148
aVAPLO-252
p149
aVAPLO-251
p150
aVAPLO-250
p151
aVAPLO-249
p152
aVAPLO-248
p153
aVAPLO-247
p154
aVAPLO-246
p155
aVAPLO-245
p156
aVAPLO-244
p157
aVAPLO-243
p158
aVAPLO-242
p159
aVAPLO-241
p160
aVAPLO-240
p161
aVAPLO-239
p162
aVAPLO-238
p163
aVAPLO-237
p164
aVAPLO-236
p165
aVAPLO-235
p166
aVAPLO-234
p167
aVAPLO-233
p168
aVAPLO-232
p169
aVAPLO-231
p170
aVAPLO-230
p171
aVAPLO-229
p172
aVAPLO-228
p173
aVAPLO-227
p174
aVAPLO-226
p175
aVAPLO-225
p176
aVAPLO-224
p177
aVAPLO-223
p178
aVAPLO-222
p179
aVAPLO-221
p180
aVAPLO-220
p181
aVAPLO-219
p182
aVAPLO-218
p183
aVAPLO-217
p184
aVAPLO-216
p185
aVAPLO-215
p186
aVAPLO-214
p187
aVAPLO-213
p188
aVAPLO-212
p189
aVAPLO-211
p190
aVAPLO-210
p191
aVAPLO-209
p192
aVAPLO-208
p193
aVAPLO-207
p194
aVAPLO-206
p195
aVAPLO-205
p196
aVAPLO-204
p197
aVAPLO-203
p198
aVAPLO-202
p199
aVAPLO-201
p200
aVAPLO-200
p201
aVAPLO-199
p202
aVAPLO-198
p203
aVAPLO-197
p204
aVAPLO-196
p205
aVAPLO-195
p206
aVAPLO-194
p207
aVAPLO-193
p208
aVAPLO-192
p209
aVAPLO-191
p210
aVAPLO-190
p211
aVAPLO-189
p212
aVAPLO-188
p213
aVAPLO-187
p214
aVAPLO-186
p215
aVAPLO-185
p216
aVAPLO-184
p217
aVAPLO-183
p218
aVAPLO-182
p219
aVAPLO-181
p220
aVAPLO-180
p221
aVAPLO-179
p222
aVAPLO-178
p223
aVAPLO-177
p224
aVAPLO-176
p225
aVAPLO-175
p226
aVAPLO-174
p227
aVAPLO-173
p228
aVAPLO-172
p229
aVAPLO-171
p230
aVAPLO-170
p231
aVAPLO-169
p232
aVAPLO-168
p233
aVAPLO-167
p234
aVAPLO-166
p235
aVAPLO-165
p236
aVAPLO-164
p237
aVAPLO-163
p238
aVAPLO-162
p239
aVAPLO-161
p240
aVAPLO-160
p241
aVAPLO-159
p242
aVAPLO-158
p243
aVAPLO-157
p244
aVAPLO-156
p245
aVAPLO-155
p246
aVAPLO-154
p247
aVAPLO-153
p248
aVAPLO-152
p249
aVAPLO-151
p250
aVAPLO-149
p251
aVAPLO-148
p252
aVAPLO-147
p253
aVAPLO-146
p254
aVAPLO-145
p255
aVAPLO-144
p256
aVAPLO-143
p257
aVAPLO-142
p258
aVAPLO-141
p259
aVAPLO-140
p260
aVAPLO-139
p261
aVAPLO-138
p262
aVAPLO-137
p263
aVAPLO-136
p264
aVAPLO-135
p265
aVAPLO-134
p266
aVAPLO-133
p267
aVAPLO-132
p268
aVAPLO-131
p269
aVAPLO-130
p270
aVAPLO-129
p271
aVAPLO-128
p272
aVAPLO-127
p273
aVAPLO-126
p274
aVAPLO-125
p275
aVAPLO-124
p276
aVAPLO-123
p277
aVAPLO-122
p278
aVAPLO-121
p279
aVAPLO-120
p280
aVAPLO-119
p281
aVAPLO-118
p282
aVAPLO-117
p283
aVAPLO-116
p284
aVAPLO-115
p285
aVAPLO-114
p286
aVAPLO-113
p287
aVAPLO-112
p288
aVAPLO-111
p289
aVAPLO-110
p290
aVAPLO-109
p291
aVAPLO-108
p292
aVAPLO-107
p293
aVAPLO-106
p294
aVAPLO-105
p295
aVAPLO-104
p296
aVAPLO-103
p297
aVAPLO-102
p298
aVAPLO-101
p299
aVAPLO-100
p300
aVAPLO-99
p301
aVAPLO-98
p302
aVAPLO-97
p303
aVAPLO-96
p304
aVAPLO-95
p305
aVAPLO-94
p306
aVAPLO-93
p307
aVAPLO-92
p308
aVAPLO-91
p309
aVAPLO-90
p310
aVAPLO-89
p311
aVAPLO-88
p312
aVAPLO-87
p313
aVAPLO-86
p314
aVAPLO-85
p315
aVAPLO-84
p316
aVAPLO-83
p317
aVAPLO-82
p318
aVAPLO-81
p319
aVAPLO-80
p320
aVAPLO-79
p321
aVAPLO-78
p322
aVAPLO-77
p323
aVAPLO-76
p324
aVAPLO-75
p325
aVAPLO-74
p326
aVAPLO-73
p327
aVAPLO-72
p328
aVAPLO-71
p329
aVAPLO-70
p330
aVAPLO-69
p331
aVAPLO-68
p332
aVAPLO-67
p333
aVAPLO-66
p334
aVAPLO-65
p335
aVAPLO-64
p336
aVAPLO-63
p337
aVAPLO-62
p338
aVAPLO-61
p339
aVAPLO-60
p340
aVAPLO-59
p341
aVAPLO-58
p342
aVAPLO-57
p343
aVAPLO-56
p344
aVAPLO-55
p345
aVAPLO-54
p346
aVAPLO-53
p347
aVAPLO-52
p348
aVAPLO-51
p349
aVAPLO-50
p350
aVAPLO-49
p351
aVAPLO-48
p352
aVAPLO-47
p353
aVAPLO-46
p354
aVAPLO-45
p355
aVAPLO-44
p356
aVAPLO-43
p357
aVAPLO-42
p358
aVAPLO-41
p359
aVAPLO-40
p360
aVAPLO-39
p361
aVAPLO-38
p362
aVAPLO-37
p363
aVAPLO-36
p364
aVAPLO-35
p365
aVAPLO-34
p366
aVAPLO-33
p367
aVAPLO-32
p368
aVAPLO-31
p369
aVAPLO-30
p370
aVAPLO-29
p371
aVAPLO-28
p372
aVAPLO-27
p373
aVAPLO-26
p374
aVAPLO-25
p375
aVAPLO-24
p376
aVAPLO-22
p377
aVAPLO-21
p378
aVAPLO-20
p379
aVAPLO-19
p380
aVAPLO-18
p381
aVAPLO-17
p382
aVAPLO-16
p383
aVAPLO-15
p384
aVAPLO-14
p385
aVAPLO-13
p386
aVAPLO-12
p387
aVAPLO-11
p388
aVAPLO-10
p389
aVAPLO-9
p390
aVAPLO-8
p391
aVAPLO-7
p392
aVAPLO-6
p393
aVAPLO-5
p394
aVAPLO-4
p395
aVAPLO-3
p396
aVAPLO-2
p397
aVAPLO-1
p398
a.