(lp0
VARCHETYPE-552
p1
aVARCHETYPE-551
p2
aVARCHETYPE-550
p3
aVARCHETYPE-549
p4
aVARCHETYPE-548
p5
aVARCHETYPE-547
p6
aVARCHETYPE-546
p7
aVARCHETYPE-545
p8
aVARCHETYPE-544
p9
aVARCHETYPE-543
p10
aVARCHETYPE-542
p11
aVARCHETYPE-541
p12
aVARCHETYPE-540
p13
aVARCHETYPE-539
p14
aVARCHETYPE-538
p15
aVARCHETYPE-537
p16
aVARCHETYPE-536
p17
aVARCHETYPE-535
p18
aVARCHETYPE-534
p19
aVARCHETYPE-533
p20
aVARCHETYPE-532
p21
aVARCHETYPE-531
p22
aVARCHETYPE-530
p23
aVARCHETYPE-529
p24
aVARCHETYPE-528
p25
aVARCHETYPE-527
p26
aVARCHETYPE-526
p27
aVARCHETYPE-525
p28
aVARCHETYPE-524
p29
aVARCHETYPE-523
p30
aVARCHETYPE-522
p31
aVARCHETYPE-521
p32
aVARCHETYPE-520
p33
aVARCHETYPE-519
p34
aVARCHETYPE-518
p35
aVARCHETYPE-517
p36
aVARCHETYPE-516
p37
aVARCHETYPE-515
p38
aVARCHETYPE-514
p39
aVARCHETYPE-513
p40
aVARCHETYPE-512
p41
aVARCHETYPE-511
p42
aVARCHETYPE-510
p43
aVARCHETYPE-509
p44
aVARCHETYPE-508
p45
aVARCHETYPE-507
p46
aVARCHETYPE-506
p47
aVARCHETYPE-505
p48
aVARCHETYPE-504
p49
aVARCHETYPE-503
p50
aVARCHETYPE-502
p51
aVARCHETYPE-501
p52
aVARCHETYPE-500
p53
aVARCHETYPE-499
p54
aVARCHETYPE-498
p55
aVARCHETYPE-497
p56
aVARCHETYPE-496
p57
aVARCHETYPE-495
p58
aVARCHETYPE-494
p59
aVARCHETYPE-493
p60
aVARCHETYPE-492
p61
aVARCHETYPE-491
p62
aVARCHETYPE-490
p63
aVARCHETYPE-489
p64
aVARCHETYPE-488
p65
aVARCHETYPE-487
p66
aVARCHETYPE-486
p67
aVARCHETYPE-485
p68
aVARCHETYPE-484
p69
aVARCHETYPE-483
p70
aVARCHETYPE-482
p71
aVARCHETYPE-481
p72
aVARCHETYPE-480
p73
aVARCHETYPE-479
p74
aVARCHETYPE-478
p75
aVARCHETYPE-477
p76
aVARCHETYPE-476
p77
aVARCHETYPE-475
p78
aVARCHETYPE-474
p79
aVARCHETYPE-473
p80
aVARCHETYPE-472
p81
aVARCHETYPE-471
p82
aVARCHETYPE-470
p83
aVARCHETYPE-469
p84
aVARCHETYPE-468
p85
aVARCHETYPE-467
p86
aVARCHETYPE-466
p87
aVARCHETYPE-465
p88
aVARCHETYPE-464
p89
aVARCHETYPE-463
p90
aVARCHETYPE-462
p91
aVARCHETYPE-460
p92
aVARCHETYPE-459
p93
aVARCHETYPE-458
p94
aVARCHETYPE-457
p95
aVARCHETYPE-456
p96
aVARCHETYPE-455
p97
aVARCHETYPE-454
p98
aVARCHETYPE-453
p99
aVARCHETYPE-452
p100
aVARCHETYPE-451
p101
aVARCHETYPE-450
p102
aVARCHETYPE-449
p103
aVARCHETYPE-448
p104
aVARCHETYPE-447
p105
aVARCHETYPE-446
p106
aVARCHETYPE-445
p107
aVARCHETYPE-444
p108
aVARCHETYPE-443
p109
aVARCHETYPE-442
p110
aVARCHETYPE-441
p111
aVARCHETYPE-440
p112
aVARCHETYPE-439
p113
aVARCHETYPE-438
p114
aVARCHETYPE-437
p115
aVARCHETYPE-436
p116
aVARCHETYPE-435
p117
aVARCHETYPE-434
p118
aVARCHETYPE-433
p119
aVARCHETYPE-432
p120
aVARCHETYPE-431
p121
aVARCHETYPE-430
p122
aVARCHETYPE-429
p123
aVARCHETYPE-428
p124
aVARCHETYPE-427
p125
aVARCHETYPE-426
p126
aVARCHETYPE-425
p127
aVARCHETYPE-424
p128
aVARCHETYPE-423
p129
aVARCHETYPE-422
p130
aVARCHETYPE-421
p131
aVARCHETYPE-420
p132
aVARCHETYPE-419
p133
aVARCHETYPE-418
p134
aVARCHETYPE-417
p135
aVARCHETYPE-416
p136
aVARCHETYPE-415
p137
aVARCHETYPE-414
p138
aVARCHETYPE-413
p139
aVARCHETYPE-412
p140
aVARCHETYPE-411
p141
aVARCHETYPE-410
p142
aVARCHETYPE-409
p143
aVARCHETYPE-408
p144
aVARCHETYPE-407
p145
aVARCHETYPE-406
p146
aVARCHETYPE-405
p147
aVARCHETYPE-404
p148
aVARCHETYPE-403
p149
aVARCHETYPE-402
p150
aVARCHETYPE-401
p151
aVARCHETYPE-400
p152
aVARCHETYPE-399
p153
aVARCHETYPE-398
p154
aVARCHETYPE-397
p155
aVARCHETYPE-396
p156
aVARCHETYPE-395
p157
aVARCHETYPE-394
p158
aVARCHETYPE-393
p159
aVARCHETYPE-392
p160
aVARCHETYPE-391
p161
aVARCHETYPE-390
p162
aVARCHETYPE-389
p163
aVARCHETYPE-388
p164
aVARCHETYPE-387
p165
aVARCHETYPE-386
p166
aVARCHETYPE-385
p167
aVARCHETYPE-384
p168
aVARCHETYPE-383
p169
aVARCHETYPE-382
p170
aVARCHETYPE-381
p171
aVARCHETYPE-379
p172
aVARCHETYPE-378
p173
aVARCHETYPE-377
p174
aVARCHETYPE-376
p175
aVARCHETYPE-375
p176
aVARCHETYPE-374
p177
aVARCHETYPE-373
p178
aVARCHETYPE-372
p179
aVARCHETYPE-371
p180
aVARCHETYPE-370
p181
aVARCHETYPE-369
p182
aVARCHETYPE-368
p183
aVARCHETYPE-367
p184
aVARCHETYPE-366
p185
aVARCHETYPE-365
p186
aVARCHETYPE-364
p187
aVARCHETYPE-363
p188
aVARCHETYPE-362
p189
aVARCHETYPE-361
p190
aVARCHETYPE-360
p191
aVARCHETYPE-359
p192
aVARCHETYPE-358
p193
aVARCHETYPE-357
p194
aVARCHETYPE-356
p195
aVARCHETYPE-355
p196
aVARCHETYPE-354
p197
aVARCHETYPE-353
p198
aVARCHETYPE-352
p199
aVARCHETYPE-351
p200
aVARCHETYPE-350
p201
aVARCHETYPE-349
p202
aVARCHETYPE-348
p203
aVARCHETYPE-347
p204
aVARCHETYPE-346
p205
aVARCHETYPE-345
p206
aVARCHETYPE-344
p207
aVARCHETYPE-343
p208
aVARCHETYPE-342
p209
aVARCHETYPE-341
p210
aVARCHETYPE-340
p211
aVARCHETYPE-339
p212
aVARCHETYPE-338
p213
aVARCHETYPE-337
p214
aVARCHETYPE-336
p215
aVARCHETYPE-335
p216
aVARCHETYPE-334
p217
aVARCHETYPE-333
p218
aVARCHETYPE-332
p219
aVARCHETYPE-331
p220
aVARCHETYPE-330
p221
aVARCHETYPE-329
p222
aVARCHETYPE-328
p223
aVARCHETYPE-327
p224
aVARCHETYPE-326
p225
aVARCHETYPE-325
p226
aVARCHETYPE-324
p227
aVARCHETYPE-323
p228
aVARCHETYPE-322
p229
aVARCHETYPE-321
p230
aVARCHETYPE-320
p231
aVARCHETYPE-319
p232
aVARCHETYPE-318
p233
aVARCHETYPE-317
p234
aVARCHETYPE-316
p235
aVARCHETYPE-315
p236
aVARCHETYPE-314
p237
aVARCHETYPE-313
p238
aVARCHETYPE-312
p239
aVARCHETYPE-311
p240
aVARCHETYPE-310
p241
aVARCHETYPE-309
p242
aVARCHETYPE-308
p243
aVARCHETYPE-307
p244
aVARCHETYPE-306
p245
aVARCHETYPE-305
p246
aVARCHETYPE-304
p247
aVARCHETYPE-303
p248
aVARCHETYPE-302
p249
aVARCHETYPE-301
p250
aVARCHETYPE-300
p251
aVARCHETYPE-299
p252
aVARCHETYPE-294
p253
aVARCHETYPE-293
p254
aVARCHETYPE-292
p255
aVARCHETYPE-291
p256
aVARCHETYPE-290
p257
aVARCHETYPE-289
p258
aVARCHETYPE-288
p259
aVARCHETYPE-286
p260
aVARCHETYPE-285
p261
aVARCHETYPE-284
p262
aVARCHETYPE-283
p263
aVARCHETYPE-282
p264
aVARCHETYPE-281
p265
aVARCHETYPE-280
p266
aVARCHETYPE-279
p267
aVARCHETYPE-278
p268
aVARCHETYPE-277
p269
aVARCHETYPE-276
p270
aVARCHETYPE-275
p271
aVARCHETYPE-274
p272
aVARCHETYPE-273
p273
aVARCHETYPE-272
p274
aVARCHETYPE-271
p275
aVARCHETYPE-270
p276
aVARCHETYPE-269
p277
aVARCHETYPE-268
p278
aVARCHETYPE-267
p279
aVARCHETYPE-266
p280
aVARCHETYPE-265
p281
aVARCHETYPE-264
p282
aVARCHETYPE-263
p283
aVARCHETYPE-262
p284
aVARCHETYPE-261
p285
aVARCHETYPE-260
p286
aVARCHETYPE-259
p287
aVARCHETYPE-258
p288
aVARCHETYPE-257
p289
aVARCHETYPE-255
p290
aVARCHETYPE-249
p291
aVARCHETYPE-247
p292
aVARCHETYPE-246
p293
aVARCHETYPE-245
p294
aVARCHETYPE-244
p295
aVARCHETYPE-243
p296
aVARCHETYPE-242
p297
aVARCHETYPE-241
p298
aVARCHETYPE-240
p299
aVARCHETYPE-239
p300
aVARCHETYPE-238
p301
aVARCHETYPE-237
p302
aVARCHETYPE-236
p303
aVARCHETYPE-235
p304
aVARCHETYPE-234
p305
aVARCHETYPE-233
p306
aVARCHETYPE-232
p307
aVARCHETYPE-230
p308
aVARCHETYPE-229
p309
aVARCHETYPE-227
p310
aVARCHETYPE-226
p311
aVARCHETYPE-225
p312
aVARCHETYPE-224
p313
aVARCHETYPE-222
p314
aVARCHETYPE-221
p315
aVARCHETYPE-220
p316
aVARCHETYPE-219
p317
aVARCHETYPE-217
p318
aVARCHETYPE-216
p319
aVARCHETYPE-207
p320
aVARCHETYPE-206
p321
aVARCHETYPE-205
p322
aVARCHETYPE-204
p323
aVARCHETYPE-203
p324
aVARCHETYPE-202
p325
aVARCHETYPE-199
p326
aVARCHETYPE-198
p327
aVARCHETYPE-197
p328
aVARCHETYPE-196
p329
aVARCHETYPE-195
p330
aVARCHETYPE-194
p331
aVARCHETYPE-193
p332
aVARCHETYPE-192
p333
aVARCHETYPE-191
p334
aVARCHETYPE-190
p335
aVARCHETYPE-189
p336
aVARCHETYPE-188
p337
aVARCHETYPE-187
p338
aVARCHETYPE-186
p339
aVARCHETYPE-185
p340
aVARCHETYPE-184
p341
aVARCHETYPE-183
p342
aVARCHETYPE-182
p343
aVARCHETYPE-181
p344
aVARCHETYPE-180
p345
aVARCHETYPE-179
p346
aVARCHETYPE-178
p347
aVARCHETYPE-177
p348
aVARCHETYPE-176
p349
aVARCHETYPE-175
p350
aVARCHETYPE-174
p351
aVARCHETYPE-173
p352
aVARCHETYPE-172
p353
aVARCHETYPE-171
p354
aVARCHETYPE-170
p355
aVARCHETYPE-169
p356
aVARCHETYPE-168
p357
aVARCHETYPE-167
p358
aVARCHETYPE-166
p359
aVARCHETYPE-165
p360
aVARCHETYPE-164
p361
aVARCHETYPE-163
p362
aVARCHETYPE-162
p363
aVARCHETYPE-161
p364
aVARCHETYPE-160
p365
aVARCHETYPE-159
p366
aVARCHETYPE-158
p367
aVARCHETYPE-157
p368
aVARCHETYPE-155
p369
aVARCHETYPE-154
p370
aVARCHETYPE-153
p371
aVARCHETYPE-152
p372
aVARCHETYPE-151
p373
aVARCHETYPE-150
p374
aVARCHETYPE-149
p375
aVARCHETYPE-148
p376
aVARCHETYPE-147
p377
aVARCHETYPE-146
p378
aVARCHETYPE-145
p379
aVARCHETYPE-144
p380
aVARCHETYPE-143
p381
aVARCHETYPE-142
p382
aVARCHETYPE-141
p383
aVARCHETYPE-140
p384
aVARCHETYPE-139
p385
aVARCHETYPE-138
p386
aVARCHETYPE-137
p387
aVARCHETYPE-136
p388
aVARCHETYPE-135
p389
aVARCHETYPE-134
p390
aVARCHETYPE-133
p391
aVARCHETYPE-132
p392
aVARCHETYPE-131
p393
aVARCHETYPE-130
p394
aVARCHETYPE-129
p395
aVARCHETYPE-128
p396
aVARCHETYPE-127
p397
aVARCHETYPE-126
p398
aVARCHETYPE-125
p399
aVARCHETYPE-124
p400
aVARCHETYPE-123
p401
aVARCHETYPE-122
p402
aVARCHETYPE-121
p403
aVARCHETYPE-120
p404
aVARCHETYPE-119
p405
aVARCHETYPE-118
p406
aVARCHETYPE-117
p407
aVARCHETYPE-116
p408
aVARCHETYPE-115
p409
aVARCHETYPE-114
p410
aVARCHETYPE-113
p411
aVARCHETYPE-112
p412
aVARCHETYPE-110
p413
aVARCHETYPE-109
p414
aVARCHETYPE-108
p415
aVARCHETYPE-107
p416
aVARCHETYPE-105
p417
aVARCHETYPE-104
p418
aVARCHETYPE-103
p419
aVARCHETYPE-102
p420
aVARCHETYPE-101
p421
aVARCHETYPE-100
p422
aVARCHETYPE-99
p423
aVARCHETYPE-98
p424
aVARCHETYPE-97
p425
aVARCHETYPE-96
p426
aVARCHETYPE-95
p427
aVARCHETYPE-94
p428
aVARCHETYPE-93
p429
aVARCHETYPE-92
p430
aVARCHETYPE-91
p431
aVARCHETYPE-90
p432
aVARCHETYPE-89
p433
aVARCHETYPE-88
p434
aVARCHETYPE-87
p435
aVARCHETYPE-85
p436
aVARCHETYPE-84
p437
aVARCHETYPE-83
p438
aVARCHETYPE-82
p439
aVARCHETYPE-81
p440
aVARCHETYPE-79
p441
aVARCHETYPE-78
p442
aVARCHETYPE-75
p443
aVARCHETYPE-74
p444
aVARCHETYPE-72
p445
aVARCHETYPE-71
p446
aVARCHETYPE-70
p447
aVARCHETYPE-69
p448
aVARCHETYPE-67
p449
aVARCHETYPE-66
p450
aVARCHETYPE-65
p451
aVARCHETYPE-64
p452
aVARCHETYPE-63
p453
aVARCHETYPE-62
p454
aVARCHETYPE-61
p455
aVARCHETYPE-60
p456
aVARCHETYPE-59
p457
aVARCHETYPE-58
p458
aVARCHETYPE-57
p459
aVARCHETYPE-56
p460
aVARCHETYPE-55
p461
aVARCHETYPE-54
p462
aVARCHETYPE-53
p463
aVARCHETYPE-52
p464
aVARCHETYPE-50
p465
aVARCHETYPE-49
p466
aVARCHETYPE-47
p467
aVARCHETYPE-46
p468
aVARCHETYPE-45
p469
aVARCHETYPE-44
p470
aVARCHETYPE-42
p471
aVARCHETYPE-40
p472
aVARCHETYPE-39
p473
aVARCHETYPE-38
p474
aVARCHETYPE-37
p475
aVARCHETYPE-36
p476
aVARCHETYPE-35
p477
aVARCHETYPE-34
p478
aVARCHETYPE-33
p479
aVARCHETYPE-32
p480
aVARCHETYPE-31
p481
aVARCHETYPE-30
p482
aVARCHETYPE-29
p483
aVARCHETYPE-28
p484
aVARCHETYPE-27
p485
aVARCHETYPE-26
p486
aVARCHETYPE-25
p487
aVARCHETYPE-24
p488
aVARCHETYPE-23
p489
aVARCHETYPE-22
p490
aVARCHETYPE-21
p491
aVARCHETYPE-19
p492
aVARCHETYPE-18
p493
aVARCHETYPE-17
p494
aVARCHETYPE-16
p495
aVARCHETYPE-15
p496
aVARCHETYPE-14
p497
aVARCHETYPE-13
p498
aVARCHETYPE-12
p499
aVARCHETYPE-11
p500
aVARCHETYPE-10
p501
aVARCHETYPE-9
p502
aVARCHETYPE-8
p503
aVARCHETYPE-7
p504
aVARCHETYPE-6
p505
aVARCHETYPE-5
p506
aVARCHETYPE-4
p507
aVARCHETYPE-3
p508
aVARCHETYPE-2
p509
aVARCHETYPE-1
p510
a.