(lp0
VARIES-1822
p1
aVARIES-1821
p2
aVARIES-1820
p3
aVARIES-1819
p4
aVARIES-1818
p5
aVARIES-1817
p6
aVARIES-1816
p7
aVARIES-1815
p8
aVARIES-1814
p9
aVARIES-1813
p10
aVARIES-1812
p11
aVARIES-1811
p12
aVARIES-1810
p13
aVARIES-1809
p14
aVARIES-1808
p15
aVARIES-1807
p16
aVARIES-1806
p17
aVARIES-1805
p18
aVARIES-1804
p19
aVARIES-1803
p20
aVARIES-1802
p21
aVARIES-1801
p22
aVARIES-1800
p23
aVARIES-1799
p24
aVARIES-1798
p25
aVARIES-1797
p26
aVARIES-1796
p27
aVARIES-1795
p28
aVARIES-1794
p29
aVARIES-1793
p30
aVARIES-1792
p31
aVARIES-1791
p32
aVARIES-1790
p33
aVARIES-1789
p34
aVARIES-1788
p35
aVARIES-1787
p36
aVARIES-1786
p37
aVARIES-1785
p38
aVARIES-1784
p39
aVARIES-1783
p40
aVARIES-1782
p41
aVARIES-1781
p42
aVARIES-1780
p43
aVARIES-1779
p44
aVARIES-1778
p45
aVARIES-1777
p46
aVARIES-1776
p47
aVARIES-1775
p48
aVARIES-1774
p49
aVARIES-1773
p50
aVARIES-1772
p51
aVARIES-1771
p52
aVARIES-1770
p53
aVARIES-1769
p54
aVARIES-1768
p55
aVARIES-1767
p56
aVARIES-1766
p57
aVARIES-1765
p58
aVARIES-1764
p59
aVARIES-1763
p60
aVARIES-1762
p61
aVARIES-1761
p62
aVARIES-1760
p63
aVARIES-1759
p64
aVARIES-1758
p65
aVARIES-1757
p66
aVARIES-1756
p67
aVARIES-1755
p68
aVARIES-1754
p69
aVARIES-1752
p70
aVARIES-1751
p71
aVARIES-1750
p72
aVARIES-1749
p73
aVARIES-1748
p74
aVARIES-1747
p75
aVARIES-1746
p76
aVARIES-1745
p77
aVARIES-1744
p78
aVARIES-1743
p79
aVARIES-1742
p80
aVARIES-1741
p81
aVARIES-1740
p82
aVARIES-1739
p83
aVARIES-1738
p84
aVARIES-1737
p85
aVARIES-1736
p86
aVARIES-1735
p87
aVARIES-1734
p88
aVARIES-1733
p89
aVARIES-1732
p90
aVARIES-1731
p91
aVARIES-1730
p92
aVARIES-1729
p93
aVARIES-1728
p94
aVARIES-1727
p95
aVARIES-1726
p96
aVARIES-1725
p97
aVARIES-1724
p98
aVARIES-1723
p99
aVARIES-1722
p100
aVARIES-1721
p101
aVARIES-1720
p102
aVARIES-1719
p103
aVARIES-1717
p104
aVARIES-1716
p105
aVARIES-1715
p106
aVARIES-1714
p107
aVARIES-1713
p108
aVARIES-1712
p109
aVARIES-1711
p110
aVARIES-1710
p111
aVARIES-1709
p112
aVARIES-1708
p113
aVARIES-1707
p114
aVARIES-1706
p115
aVARIES-1705
p116
aVARIES-1704
p117
aVARIES-1703
p118
aVARIES-1702
p119
aVARIES-1701
p120
aVARIES-1700
p121
aVARIES-1699
p122
aVARIES-1698
p123
aVARIES-1697
p124
aVARIES-1696
p125
aVARIES-1695
p126
aVARIES-1694
p127
aVARIES-1693
p128
aVARIES-1692
p129
aVARIES-1691
p130
aVARIES-1690
p131
aVARIES-1689
p132
aVARIES-1688
p133
aVARIES-1687
p134
aVARIES-1686
p135
aVARIES-1685
p136
aVARIES-1684
p137
aVARIES-1683
p138
aVARIES-1682
p139
aVARIES-1681
p140
aVARIES-1680
p141
aVARIES-1679
p142
aVARIES-1678
p143
aVARIES-1677
p144
aVARIES-1676
p145
aVARIES-1675
p146
aVARIES-1674
p147
aVARIES-1673
p148
aVARIES-1672
p149
aVARIES-1671
p150
aVARIES-1670
p151
aVARIES-1669
p152
aVARIES-1668
p153
aVARIES-1667
p154
aVARIES-1666
p155
aVARIES-1665
p156
aVARIES-1664
p157
aVARIES-1663
p158
aVARIES-1662
p159
aVARIES-1661
p160
aVARIES-1660
p161
aVARIES-1659
p162
aVARIES-1658
p163
aVARIES-1657
p164
aVARIES-1656
p165
aVARIES-1655
p166
aVARIES-1654
p167
aVARIES-1653
p168
aVARIES-1652
p169
aVARIES-1651
p170
aVARIES-1650
p171
aVARIES-1649
p172
aVARIES-1648
p173
aVARIES-1647
p174
aVARIES-1646
p175
aVARIES-1645
p176
aVARIES-1644
p177
aVARIES-1643
p178
aVARIES-1642
p179
aVARIES-1641
p180
aVARIES-1640
p181
aVARIES-1639
p182
aVARIES-1638
p183
aVARIES-1637
p184
aVARIES-1636
p185
aVARIES-1635
p186
aVARIES-1634
p187
aVARIES-1633
p188
aVARIES-1632
p189
aVARIES-1631
p190
aVARIES-1630
p191
aVARIES-1629
p192
aVARIES-1628
p193
aVARIES-1627
p194
aVARIES-1626
p195
aVARIES-1625
p196
aVARIES-1624
p197
aVARIES-1623
p198
aVARIES-1622
p199
aVARIES-1621
p200
aVARIES-1620
p201
aVARIES-1619
p202
aVARIES-1618
p203
aVARIES-1617
p204
aVARIES-1616
p205
aVARIES-1615
p206
aVARIES-1614
p207
aVARIES-1613
p208
aVARIES-1612
p209
aVARIES-1611
p210
aVARIES-1610
p211
aVARIES-1609
p212
aVARIES-1608
p213
aVARIES-1607
p214
aVARIES-1606
p215
aVARIES-1605
p216
aVARIES-1604
p217
aVARIES-1603
p218
aVARIES-1602
p219
aVARIES-1601
p220
aVARIES-1600
p221
aVARIES-1599
p222
aVARIES-1598
p223
aVARIES-1597
p224
aVARIES-1596
p225
aVARIES-1595
p226
aVARIES-1594
p227
aVARIES-1593
p228
aVARIES-1592
p229
aVARIES-1591
p230
aVARIES-1590
p231
aVARIES-1589
p232
aVARIES-1588
p233
aVARIES-1587
p234
aVARIES-1586
p235
aVARIES-1585
p236
aVARIES-1584
p237
aVARIES-1583
p238
aVARIES-1582
p239
aVARIES-1581
p240
aVARIES-1580
p241
aVARIES-1579
p242
aVARIES-1578
p243
aVARIES-1577
p244
aVARIES-1576
p245
aVARIES-1575
p246
aVARIES-1574
p247
aVARIES-1573
p248
aVARIES-1572
p249
aVARIES-1571
p250
aVARIES-1570
p251
aVARIES-1569
p252
aVARIES-1568
p253
aVARIES-1567
p254
aVARIES-1566
p255
aVARIES-1565
p256
aVARIES-1564
p257
aVARIES-1563
p258
aVARIES-1562
p259
aVARIES-1561
p260
aVARIES-1560
p261
aVARIES-1559
p262
aVARIES-1558
p263
aVARIES-1557
p264
aVARIES-1556
p265
aVARIES-1555
p266
aVARIES-1554
p267
aVARIES-1553
p268
aVARIES-1552
p269
aVARIES-1551
p270
aVARIES-1550
p271
aVARIES-1549
p272
aVARIES-1548
p273
aVARIES-1547
p274
aVARIES-1546
p275
aVARIES-1545
p276
aVARIES-1544
p277
aVARIES-1543
p278
aVARIES-1542
p279
aVARIES-1541
p280
aVARIES-1540
p281
aVARIES-1539
p282
aVARIES-1538
p283
aVARIES-1537
p284
aVARIES-1536
p285
aVARIES-1535
p286
aVARIES-1534
p287
aVARIES-1533
p288
aVARIES-1532
p289
aVARIES-1531
p290
aVARIES-1530
p291
aVARIES-1529
p292
aVARIES-1528
p293
aVARIES-1527
p294
aVARIES-1526
p295
aVARIES-1525
p296
aVARIES-1524
p297
aVARIES-1523
p298
aVARIES-1522
p299
aVARIES-1521
p300
aVARIES-1520
p301
aVARIES-1519
p302
aVARIES-1518
p303
aVARIES-1517
p304
aVARIES-1516
p305
aVARIES-1515
p306
aVARIES-1514
p307
aVARIES-1513
p308
aVARIES-1512
p309
aVARIES-1511
p310
aVARIES-1510
p311
aVARIES-1509
p312
aVARIES-1508
p313
aVARIES-1507
p314
aVARIES-1506
p315
aVARIES-1505
p316
aVARIES-1504
p317
aVARIES-1503
p318
aVARIES-1502
p319
aVARIES-1501
p320
aVARIES-1500
p321
aVARIES-1499
p322
aVARIES-1498
p323
aVARIES-1497
p324
aVARIES-1496
p325
aVARIES-1495
p326
aVARIES-1494
p327
aVARIES-1493
p328
aVARIES-1492
p329
aVARIES-1491
p330
aVARIES-1490
p331
aVARIES-1489
p332
aVARIES-1488
p333
aVARIES-1487
p334
aVARIES-1486
p335
aVARIES-1485
p336
aVARIES-1484
p337
aVARIES-1483
p338
aVARIES-1482
p339
aVARIES-1481
p340
aVARIES-1480
p341
aVARIES-1479
p342
aVARIES-1478
p343
aVARIES-1477
p344
aVARIES-1476
p345
aVARIES-1475
p346
aVARIES-1474
p347
aVARIES-1473
p348
aVARIES-1472
p349
aVARIES-1471
p350
aVARIES-1470
p351
aVARIES-1469
p352
aVARIES-1468
p353
aVARIES-1467
p354
aVARIES-1466
p355
aVARIES-1465
p356
aVARIES-1464
p357
aVARIES-1463
p358
aVARIES-1462
p359
aVARIES-1461
p360
aVARIES-1460
p361
aVARIES-1459
p362
aVARIES-1458
p363
aVARIES-1457
p364
aVARIES-1456
p365
aVARIES-1455
p366
aVARIES-1454
p367
aVARIES-1453
p368
aVARIES-1452
p369
aVARIES-1451
p370
aVARIES-1450
p371
aVARIES-1449
p372
aVARIES-1448
p373
aVARIES-1447
p374
aVARIES-1446
p375
aVARIES-1445
p376
aVARIES-1444
p377
aVARIES-1443
p378
aVARIES-1442
p379
aVARIES-1441
p380
aVARIES-1440
p381
aVARIES-1439
p382
aVARIES-1438
p383
aVARIES-1437
p384
aVARIES-1436
p385
aVARIES-1435
p386
aVARIES-1434
p387
aVARIES-1433
p388
aVARIES-1432
p389
aVARIES-1431
p390
aVARIES-1430
p391
aVARIES-1429
p392
aVARIES-1428
p393
aVARIES-1427
p394
aVARIES-1426
p395
aVARIES-1425
p396
aVARIES-1424
p397
aVARIES-1423
p398
aVARIES-1422
p399
aVARIES-1421
p400
aVARIES-1420
p401
aVARIES-1419
p402
aVARIES-1418
p403
aVARIES-1417
p404
aVARIES-1416
p405
aVARIES-1415
p406
aVARIES-1414
p407
aVARIES-1413
p408
aVARIES-1412
p409
aVARIES-1411
p410
aVARIES-1410
p411
aVARIES-1409
p412
aVARIES-1408
p413
aVARIES-1407
p414
aVARIES-1406
p415
aVARIES-1405
p416
aVARIES-1404
p417
aVARIES-1403
p418
aVARIES-1402
p419
aVARIES-1401
p420
aVARIES-1400
p421
aVARIES-1399
p422
aVARIES-1398
p423
aVARIES-1397
p424
aVARIES-1396
p425
aVARIES-1395
p426
aVARIES-1394
p427
aVARIES-1393
p428
aVARIES-1392
p429
aVARIES-1391
p430
aVARIES-1390
p431
aVARIES-1389
p432
aVARIES-1388
p433
aVARIES-1387
p434
aVARIES-1386
p435
aVARIES-1385
p436
aVARIES-1384
p437
aVARIES-1383
p438
aVARIES-1382
p439
aVARIES-1381
p440
aVARIES-1380
p441
aVARIES-1379
p442
aVARIES-1378
p443
aVARIES-1377
p444
aVARIES-1376
p445
aVARIES-1375
p446
aVARIES-1374
p447
aVARIES-1373
p448
aVARIES-1372
p449
aVARIES-1371
p450
aVARIES-1370
p451
aVARIES-1369
p452
aVARIES-1368
p453
aVARIES-1367
p454
aVARIES-1366
p455
aVARIES-1365
p456
aVARIES-1364
p457
aVARIES-1363
p458
aVARIES-1362
p459
aVARIES-1361
p460
aVARIES-1360
p461
aVARIES-1359
p462
aVARIES-1358
p463
aVARIES-1357
p464
aVARIES-1356
p465
aVARIES-1355
p466
aVARIES-1354
p467
aVARIES-1353
p468
aVARIES-1352
p469
aVARIES-1351
p470
aVARIES-1350
p471
aVARIES-1349
p472
aVARIES-1348
p473
aVARIES-1347
p474
aVARIES-1346
p475
aVARIES-1345
p476
aVARIES-1344
p477
aVARIES-1343
p478
aVARIES-1342
p479
aVARIES-1341
p480
aVARIES-1340
p481
aVARIES-1339
p482
aVARIES-1338
p483
aVARIES-1337
p484
aVARIES-1336
p485
aVARIES-1335
p486
aVARIES-1334
p487
aVARIES-1333
p488
aVARIES-1332
p489
aVARIES-1331
p490
aVARIES-1330
p491
aVARIES-1329
p492
aVARIES-1328
p493
aVARIES-1327
p494
aVARIES-1326
p495
aVARIES-1325
p496
aVARIES-1324
p497
aVARIES-1323
p498
aVARIES-1322
p499
aVARIES-1321
p500
aVARIES-1320
p501
aVARIES-1319
p502
aVARIES-1318
p503
aVARIES-1317
p504
aVARIES-1316
p505
aVARIES-1315
p506
aVARIES-1314
p507
aVARIES-1313
p508
aVARIES-1312
p509
aVARIES-1311
p510
aVARIES-1310
p511
aVARIES-1309
p512
aVARIES-1308
p513
aVARIES-1307
p514
aVARIES-1306
p515
aVARIES-1305
p516
aVARIES-1304
p517
aVARIES-1303
p518
aVARIES-1302
p519
aVARIES-1301
p520
aVARIES-1300
p521
aVARIES-1299
p522
aVARIES-1298
p523
aVARIES-1297
p524
aVARIES-1296
p525
aVARIES-1295
p526
aVARIES-1294
p527
aVARIES-1293
p528
aVARIES-1292
p529
aVARIES-1291
p530
aVARIES-1290
p531
aVARIES-1289
p532
aVARIES-1288
p533
aVARIES-1287
p534
aVARIES-1286
p535
aVARIES-1285
p536
aVARIES-1284
p537
aVARIES-1283
p538
aVARIES-1282
p539
aVARIES-1281
p540
aVARIES-1280
p541
aVARIES-1279
p542
aVARIES-1278
p543
aVARIES-1277
p544
aVARIES-1276
p545
aVARIES-1275
p546
aVARIES-1274
p547
aVARIES-1273
p548
aVARIES-1272
p549
aVARIES-1271
p550
aVARIES-1270
p551
aVARIES-1269
p552
aVARIES-1268
p553
aVARIES-1267
p554
aVARIES-1266
p555
aVARIES-1265
p556
aVARIES-1264
p557
aVARIES-1263
p558
aVARIES-1262
p559
aVARIES-1261
p560
aVARIES-1260
p561
aVARIES-1259
p562
aVARIES-1258
p563
aVARIES-1257
p564
aVARIES-1256
p565
aVARIES-1255
p566
aVARIES-1254
p567
aVARIES-1253
p568
aVARIES-1252
p569
aVARIES-1251
p570
aVARIES-1250
p571
aVARIES-1249
p572
aVARIES-1248
p573
aVARIES-1247
p574
aVARIES-1246
p575
aVARIES-1245
p576
aVARIES-1244
p577
aVARIES-1243
p578
aVARIES-1242
p579
aVARIES-1241
p580
aVARIES-1240
p581
aVARIES-1239
p582
aVARIES-1238
p583
aVARIES-1237
p584
aVARIES-1236
p585
aVARIES-1235
p586
aVARIES-1234
p587
aVARIES-1233
p588
aVARIES-1232
p589
aVARIES-1231
p590
aVARIES-1230
p591
aVARIES-1229
p592
aVARIES-1228
p593
aVARIES-1227
p594
aVARIES-1226
p595
aVARIES-1225
p596
aVARIES-1224
p597
aVARIES-1223
p598
aVARIES-1222
p599
aVARIES-1221
p600
aVARIES-1220
p601
aVARIES-1219
p602
aVARIES-1218
p603
aVARIES-1217
p604
aVARIES-1216
p605
aVARIES-1215
p606
aVARIES-1214
p607
aVARIES-1213
p608
aVARIES-1212
p609
aVARIES-1211
p610
aVARIES-1210
p611
aVARIES-1209
p612
aVARIES-1208
p613
aVARIES-1207
p614
aVARIES-1206
p615
aVARIES-1205
p616
aVARIES-1204
p617
aVARIES-1203
p618
aVARIES-1202
p619
aVARIES-1201
p620
aVARIES-1200
p621
aVARIES-1199
p622
aVARIES-1198
p623
aVARIES-1197
p624
aVARIES-1196
p625
aVARIES-1195
p626
aVARIES-1194
p627
aVARIES-1193
p628
aVARIES-1192
p629
aVARIES-1191
p630
aVARIES-1190
p631
aVARIES-1189
p632
aVARIES-1188
p633
aVARIES-1187
p634
aVARIES-1186
p635
aVARIES-1185
p636
aVARIES-1184
p637
aVARIES-1183
p638
aVARIES-1182
p639
aVARIES-1181
p640
aVARIES-1180
p641
aVARIES-1179
p642
aVARIES-1178
p643
aVARIES-1177
p644
aVARIES-1176
p645
aVARIES-1175
p646
aVARIES-1174
p647
aVARIES-1173
p648
aVARIES-1172
p649
aVARIES-1171
p650
aVARIES-1170
p651
aVARIES-1169
p652
aVARIES-1168
p653
aVARIES-1167
p654
aVARIES-1166
p655
aVARIES-1165
p656
aVARIES-1164
p657
aVARIES-1163
p658
aVARIES-1162
p659
aVARIES-1161
p660
aVARIES-1160
p661
aVARIES-1159
p662
aVARIES-1158
p663
aVARIES-1157
p664
aVARIES-1156
p665
aVARIES-1155
p666
aVARIES-1154
p667
aVARIES-1153
p668
aVARIES-1152
p669
aVARIES-1151
p670
aVARIES-1150
p671
aVARIES-1149
p672
aVARIES-1148
p673
aVARIES-1147
p674
aVARIES-1146
p675
aVARIES-1145
p676
aVARIES-1144
p677
aVARIES-1143
p678
aVARIES-1142
p679
aVARIES-1141
p680
aVARIES-1140
p681
aVARIES-1139
p682
aVARIES-1138
p683
aVARIES-1137
p684
aVARIES-1136
p685
aVARIES-1135
p686
aVARIES-1134
p687
aVARIES-1133
p688
aVARIES-1132
p689
aVARIES-1131
p690
aVARIES-1130
p691
aVARIES-1129
p692
aVARIES-1128
p693
aVARIES-1127
p694
aVARIES-1126
p695
aVARIES-1125
p696
aVARIES-1124
p697
aVARIES-1123
p698
aVARIES-1122
p699
aVARIES-1121
p700
aVARIES-1120
p701
aVARIES-1119
p702
aVARIES-1118
p703
aVARIES-1117
p704
aVARIES-1116
p705
aVARIES-1115
p706
aVARIES-1114
p707
aVARIES-1113
p708
aVARIES-1112
p709
aVARIES-1111
p710
aVARIES-1110
p711
aVARIES-1109
p712
aVARIES-1108
p713
aVARIES-1107
p714
aVARIES-1106
p715
aVARIES-1105
p716
aVARIES-1104
p717
aVARIES-1103
p718
aVARIES-1102
p719
aVARIES-1101
p720
aVARIES-1100
p721
aVARIES-1099
p722
aVARIES-1098
p723
aVARIES-1097
p724
aVARIES-1096
p725
aVARIES-1095
p726
aVARIES-1094
p727
aVARIES-1093
p728
aVARIES-1092
p729
aVARIES-1091
p730
aVARIES-1090
p731
aVARIES-1089
p732
aVARIES-1088
p733
aVARIES-1087
p734
aVARIES-1086
p735
aVARIES-1085
p736
aVARIES-1084
p737
aVARIES-1083
p738
aVARIES-1082
p739
aVARIES-1081
p740
aVARIES-1080
p741
aVARIES-1079
p742
aVARIES-1078
p743
aVARIES-1077
p744
aVARIES-1076
p745
aVARIES-1075
p746
aVARIES-1074
p747
aVARIES-1073
p748
aVARIES-1072
p749
aVARIES-1071
p750
aVARIES-1070
p751
aVARIES-1069
p752
aVARIES-1068
p753
aVARIES-1067
p754
aVARIES-1066
p755
aVARIES-1065
p756
aVARIES-1064
p757
aVARIES-1063
p758
aVARIES-1062
p759
aVARIES-1061
p760
aVARIES-1060
p761
aVARIES-1059
p762
aVARIES-1058
p763
aVARIES-1057
p764
aVARIES-1056
p765
aVARIES-1055
p766
aVARIES-1054
p767
aVARIES-1053
p768
aVARIES-1052
p769
aVARIES-1051
p770
aVARIES-1050
p771
aVARIES-1049
p772
aVARIES-1048
p773
aVARIES-1047
p774
aVARIES-1046
p775
aVARIES-1045
p776
aVARIES-1044
p777
aVARIES-1043
p778
aVARIES-1042
p779
aVARIES-1041
p780
aVARIES-1040
p781
aVARIES-1039
p782
aVARIES-1038
p783
aVARIES-1037
p784
aVARIES-1036
p785
aVARIES-1035
p786
aVARIES-1034
p787
aVARIES-1033
p788
aVARIES-1032
p789
aVARIES-1031
p790
aVARIES-1030
p791
aVARIES-1029
p792
aVARIES-1028
p793
aVARIES-1027
p794
aVARIES-1026
p795
aVARIES-1025
p796
aVARIES-1024
p797
aVARIES-1023
p798
aVARIES-1022
p799
aVARIES-1021
p800
aVARIES-1020
p801
aVARIES-1019
p802
aVARIES-1018
p803
aVARIES-1017
p804
aVARIES-1016
p805
aVARIES-1015
p806
aVARIES-1014
p807
aVARIES-1013
p808
aVARIES-1012
p809
aVARIES-1011
p810
aVARIES-1010
p811
aVARIES-1009
p812
aVARIES-1008
p813
aVARIES-1007
p814
aVARIES-1006
p815
aVARIES-1005
p816
aVARIES-1004
p817
aVARIES-1003
p818
aVARIES-1002
p819
aVARIES-1001
p820
aVARIES-1000
p821
aVARIES-999
p822
aVARIES-998
p823
aVARIES-997
p824
aVARIES-996
p825
aVARIES-995
p826
aVARIES-994
p827
aVARIES-993
p828
aVARIES-992
p829
aVARIES-991
p830
aVARIES-990
p831
aVARIES-989
p832
aVARIES-988
p833
aVARIES-987
p834
aVARIES-986
p835
aVARIES-985
p836
aVARIES-984
p837
aVARIES-983
p838
aVARIES-982
p839
aVARIES-981
p840
aVARIES-980
p841
aVARIES-979
p842
aVARIES-978
p843
aVARIES-977
p844
aVARIES-976
p845
aVARIES-975
p846
aVARIES-974
p847
aVARIES-973
p848
aVARIES-972
p849
aVARIES-971
p850
aVARIES-970
p851
aVARIES-969
p852
aVARIES-968
p853
aVARIES-967
p854
aVARIES-966
p855
aVARIES-965
p856
aVARIES-964
p857
aVARIES-963
p858
aVARIES-962
p859
aVARIES-961
p860
aVARIES-960
p861
aVARIES-959
p862
aVARIES-958
p863
aVARIES-957
p864
aVARIES-956
p865
aVARIES-955
p866
aVARIES-954
p867
aVARIES-953
p868
aVARIES-952
p869
aVARIES-951
p870
aVARIES-950
p871
aVARIES-949
p872
aVARIES-948
p873
aVARIES-947
p874
aVARIES-946
p875
aVARIES-945
p876
aVARIES-944
p877
aVARIES-943
p878
aVARIES-942
p879
aVARIES-941
p880
aVARIES-940
p881
aVARIES-939
p882
aVARIES-938
p883
aVARIES-937
p884
aVARIES-936
p885
aVARIES-935
p886
aVARIES-934
p887
aVARIES-933
p888
aVARIES-932
p889
aVARIES-931
p890
aVARIES-930
p891
aVARIES-929
p892
aVARIES-928
p893
aVARIES-927
p894
aVARIES-926
p895
aVARIES-925
p896
aVARIES-924
p897
aVARIES-923
p898
aVARIES-922
p899
aVARIES-921
p900
aVARIES-920
p901
aVARIES-919
p902
aVARIES-918
p903
aVARIES-917
p904
aVARIES-916
p905
aVARIES-915
p906
aVARIES-914
p907
aVARIES-913
p908
aVARIES-912
p909
aVARIES-911
p910
aVARIES-910
p911
aVARIES-909
p912
aVARIES-908
p913
aVARIES-907
p914
aVARIES-906
p915
aVARIES-905
p916
aVARIES-904
p917
aVARIES-903
p918
aVARIES-902
p919
aVARIES-901
p920
aVARIES-900
p921
aVARIES-899
p922
aVARIES-898
p923
aVARIES-897
p924
aVARIES-896
p925
aVARIES-895
p926
aVARIES-894
p927
aVARIES-893
p928
aVARIES-892
p929
aVARIES-891
p930
aVARIES-890
p931
aVARIES-889
p932
aVARIES-888
p933
aVARIES-887
p934
aVARIES-886
p935
aVARIES-885
p936
aVARIES-884
p937
aVARIES-883
p938
aVARIES-882
p939
aVARIES-881
p940
aVARIES-880
p941
aVARIES-879
p942
aVARIES-878
p943
aVARIES-877
p944
aVARIES-876
p945
aVARIES-875
p946
aVARIES-874
p947
aVARIES-873
p948
aVARIES-872
p949
aVARIES-871
p950
aVARIES-870
p951
aVARIES-869
p952
aVARIES-868
p953
aVARIES-867
p954
aVARIES-866
p955
aVARIES-865
p956
aVARIES-864
p957
aVARIES-863
p958
aVARIES-862
p959
aVARIES-861
p960
aVARIES-860
p961
aVARIES-859
p962
aVARIES-858
p963
aVARIES-857
p964
aVARIES-856
p965
aVARIES-855
p966
aVARIES-854
p967
aVARIES-853
p968
aVARIES-852
p969
aVARIES-851
p970
aVARIES-850
p971
aVARIES-849
p972
aVARIES-848
p973
aVARIES-847
p974
aVARIES-846
p975
aVARIES-845
p976
aVARIES-844
p977
aVARIES-843
p978
aVARIES-842
p979
aVARIES-841
p980
aVARIES-840
p981
aVARIES-839
p982
aVARIES-838
p983
aVARIES-837
p984
aVARIES-836
p985
aVARIES-835
p986
aVARIES-834
p987
aVARIES-833
p988
aVARIES-832
p989
aVARIES-831
p990
aVARIES-830
p991
aVARIES-829
p992
aVARIES-828
p993
aVARIES-827
p994
aVARIES-826
p995
aVARIES-825
p996
aVARIES-824
p997
aVARIES-823
p998
aVARIES-822
p999
aVARIES-821
p1000
aVARIES-820
p1001
aVARIES-819
p1002
aVARIES-818
p1003
aVARIES-817
p1004
aVARIES-816
p1005
aVARIES-815
p1006
aVARIES-814
p1007
aVARIES-813
p1008
aVARIES-812
p1009
aVARIES-811
p1010
aVARIES-810
p1011
aVARIES-809
p1012
aVARIES-808
p1013
aVARIES-807
p1014
aVARIES-806
p1015
aVARIES-805
p1016
aVARIES-804
p1017
aVARIES-803
p1018
aVARIES-802
p1019
aVARIES-801
p1020
aVARIES-800
p1021
aVARIES-799
p1022
aVARIES-798
p1023
aVARIES-797
p1024
aVARIES-796
p1025
aVARIES-795
p1026
aVARIES-794
p1027
aVARIES-793
p1028
aVARIES-792
p1029
aVARIES-791
p1030
aVARIES-790
p1031
aVARIES-789
p1032
aVARIES-788
p1033
aVARIES-787
p1034
aVARIES-786
p1035
aVARIES-785
p1036
aVARIES-784
p1037
aVARIES-783
p1038
aVARIES-782
p1039
aVARIES-781
p1040
aVARIES-780
p1041
aVARIES-779
p1042
aVARIES-778
p1043
aVARIES-777
p1044
aVARIES-776
p1045
aVARIES-775
p1046
aVARIES-774
p1047
aVARIES-773
p1048
aVARIES-772
p1049
aVARIES-771
p1050
aVARIES-770
p1051
aVARIES-769
p1052
aVARIES-768
p1053
aVARIES-767
p1054
aVARIES-766
p1055
aVARIES-765
p1056
aVARIES-764
p1057
aVARIES-763
p1058
aVARIES-762
p1059
aVARIES-761
p1060
aVARIES-760
p1061
aVARIES-759
p1062
aVARIES-758
p1063
aVARIES-757
p1064
aVARIES-756
p1065
aVARIES-755
p1066
aVARIES-754
p1067
aVARIES-753
p1068
aVARIES-752
p1069
aVARIES-751
p1070
aVARIES-750
p1071
aVARIES-749
p1072
aVARIES-748
p1073
aVARIES-747
p1074
aVARIES-746
p1075
aVARIES-745
p1076
aVARIES-744
p1077
aVARIES-743
p1078
aVARIES-742
p1079
aVARIES-741
p1080
aVARIES-740
p1081
aVARIES-739
p1082
aVARIES-738
p1083
aVARIES-737
p1084
aVARIES-736
p1085
aVARIES-735
p1086
aVARIES-734
p1087
aVARIES-733
p1088
aVARIES-732
p1089
aVARIES-731
p1090
aVARIES-730
p1091
aVARIES-729
p1092
aVARIES-728
p1093
aVARIES-727
p1094
aVARIES-726
p1095
aVARIES-725
p1096
aVARIES-724
p1097
aVARIES-723
p1098
aVARIES-722
p1099
aVARIES-721
p1100
aVARIES-720
p1101
aVARIES-719
p1102
aVARIES-718
p1103
aVARIES-717
p1104
aVARIES-716
p1105
aVARIES-715
p1106
aVARIES-714
p1107
aVARIES-713
p1108
aVARIES-712
p1109
aVARIES-711
p1110
aVARIES-710
p1111
aVARIES-709
p1112
aVARIES-708
p1113
aVARIES-707
p1114
aVARIES-706
p1115
aVARIES-705
p1116
aVARIES-704
p1117
aVARIES-703
p1118
aVARIES-702
p1119
aVARIES-701
p1120
aVARIES-700
p1121
aVARIES-699
p1122
aVARIES-698
p1123
aVARIES-697
p1124
aVARIES-696
p1125
aVARIES-695
p1126
aVARIES-694
p1127
aVARIES-693
p1128
aVARIES-692
p1129
aVARIES-691
p1130
aVARIES-690
p1131
aVARIES-689
p1132
aVARIES-688
p1133
aVARIES-687
p1134
aVARIES-686
p1135
aVARIES-685
p1136
aVARIES-684
p1137
aVARIES-683
p1138
aVARIES-682
p1139
aVARIES-681
p1140
aVARIES-680
p1141
aVARIES-679
p1142
aVARIES-678
p1143
aVARIES-677
p1144
aVARIES-676
p1145
aVARIES-675
p1146
aVARIES-674
p1147
aVARIES-673
p1148
aVARIES-672
p1149
aVARIES-671
p1150
aVARIES-670
p1151
aVARIES-669
p1152
aVARIES-668
p1153
aVARIES-667
p1154
aVARIES-666
p1155
aVARIES-665
p1156
aVARIES-664
p1157
aVARIES-663
p1158
aVARIES-662
p1159
aVARIES-661
p1160
aVARIES-660
p1161
aVARIES-659
p1162
aVARIES-658
p1163
aVARIES-657
p1164
aVARIES-656
p1165
aVARIES-655
p1166
aVARIES-654
p1167
aVARIES-653
p1168
aVARIES-652
p1169
aVARIES-651
p1170
aVARIES-650
p1171
aVARIES-649
p1172
aVARIES-648
p1173
aVARIES-647
p1174
aVARIES-646
p1175
aVARIES-645
p1176
aVARIES-644
p1177
aVARIES-643
p1178
aVARIES-642
p1179
aVARIES-641
p1180
aVARIES-640
p1181
aVARIES-639
p1182
aVARIES-638
p1183
aVARIES-637
p1184
aVARIES-636
p1185
aVARIES-635
p1186
aVARIES-634
p1187
aVARIES-633
p1188
aVARIES-632
p1189
aVARIES-631
p1190
aVARIES-630
p1191
aVARIES-629
p1192
aVARIES-628
p1193
aVARIES-627
p1194
aVARIES-626
p1195
aVARIES-625
p1196
aVARIES-624
p1197
aVARIES-623
p1198
aVARIES-622
p1199
aVARIES-621
p1200
aVARIES-620
p1201
aVARIES-619
p1202
aVARIES-618
p1203
aVARIES-617
p1204
aVARIES-616
p1205
aVARIES-615
p1206
aVARIES-613
p1207
aVARIES-612
p1208
aVARIES-611
p1209
aVARIES-610
p1210
aVARIES-609
p1211
aVARIES-608
p1212
aVARIES-607
p1213
aVARIES-606
p1214
aVARIES-605
p1215
aVARIES-604
p1216
aVARIES-603
p1217
aVARIES-602
p1218
aVARIES-601
p1219
aVARIES-600
p1220
aVARIES-599
p1221
aVARIES-598
p1222
aVARIES-597
p1223
aVARIES-596
p1224
aVARIES-595
p1225
aVARIES-594
p1226
aVARIES-593
p1227
aVARIES-592
p1228
aVARIES-591
p1229
aVARIES-590
p1230
aVARIES-589
p1231
aVARIES-588
p1232
aVARIES-587
p1233
aVARIES-586
p1234
aVARIES-585
p1235
aVARIES-584
p1236
aVARIES-583
p1237
aVARIES-582
p1238
aVARIES-581
p1239
aVARIES-580
p1240
aVARIES-579
p1241
aVARIES-578
p1242
aVARIES-577
p1243
aVARIES-576
p1244
aVARIES-575
p1245
aVARIES-574
p1246
aVARIES-573
p1247
aVARIES-572
p1248
aVARIES-571
p1249
aVARIES-570
p1250
aVARIES-569
p1251
aVARIES-568
p1252
aVARIES-567
p1253
aVARIES-566
p1254
aVARIES-565
p1255
aVARIES-564
p1256
aVARIES-563
p1257
aVARIES-562
p1258
aVARIES-561
p1259
aVARIES-560
p1260
aVARIES-559
p1261
aVARIES-558
p1262
aVARIES-557
p1263
aVARIES-556
p1264
aVARIES-555
p1265
aVARIES-554
p1266
aVARIES-553
p1267
aVARIES-552
p1268
aVARIES-551
p1269
aVARIES-550
p1270
aVARIES-549
p1271
aVARIES-548
p1272
aVARIES-547
p1273
aVARIES-546
p1274
aVARIES-545
p1275
aVARIES-544
p1276
aVARIES-543
p1277
aVARIES-542
p1278
aVARIES-541
p1279
aVARIES-540
p1280
aVARIES-539
p1281
aVARIES-538
p1282
aVARIES-537
p1283
aVARIES-536
p1284
aVARIES-535
p1285
aVARIES-534
p1286
aVARIES-533
p1287
aVARIES-532
p1288
aVARIES-531
p1289
aVARIES-530
p1290
aVARIES-529
p1291
aVARIES-528
p1292
aVARIES-527
p1293
aVARIES-526
p1294
aVARIES-525
p1295
aVARIES-524
p1296
aVARIES-523
p1297
aVARIES-522
p1298
aVARIES-521
p1299
aVARIES-520
p1300
aVARIES-519
p1301
aVARIES-518
p1302
aVARIES-517
p1303
aVARIES-516
p1304
aVARIES-515
p1305
aVARIES-514
p1306
aVARIES-513
p1307
aVARIES-512
p1308
aVARIES-511
p1309
aVARIES-510
p1310
aVARIES-509
p1311
aVARIES-508
p1312
aVARIES-507
p1313
aVARIES-506
p1314
aVARIES-505
p1315
aVARIES-504
p1316
aVARIES-503
p1317
aVARIES-502
p1318
aVARIES-501
p1319
aVARIES-500
p1320
aVARIES-499
p1321
aVARIES-498
p1322
aVARIES-497
p1323
aVARIES-496
p1324
aVARIES-495
p1325
aVARIES-494
p1326
aVARIES-493
p1327
aVARIES-492
p1328
aVARIES-491
p1329
aVARIES-490
p1330
aVARIES-489
p1331
aVARIES-488
p1332
aVARIES-487
p1333
aVARIES-486
p1334
aVARIES-485
p1335
aVARIES-484
p1336
aVARIES-483
p1337
aVARIES-482
p1338
aVARIES-481
p1339
aVARIES-480
p1340
aVARIES-479
p1341
aVARIES-478
p1342
aVARIES-477
p1343
aVARIES-476
p1344
aVARIES-475
p1345
aVARIES-474
p1346
aVARIES-473
p1347
aVARIES-472
p1348
aVARIES-471
p1349
aVARIES-470
p1350
aVARIES-469
p1351
aVARIES-468
p1352
aVARIES-467
p1353
aVARIES-466
p1354
aVARIES-465
p1355
aVARIES-464
p1356
aVARIES-463
p1357
aVARIES-462
p1358
aVARIES-461
p1359
aVARIES-460
p1360
aVARIES-459
p1361
aVARIES-458
p1362
aVARIES-457
p1363
aVARIES-456
p1364
aVARIES-455
p1365
aVARIES-454
p1366
aVARIES-453
p1367
aVARIES-452
p1368
aVARIES-451
p1369
aVARIES-450
p1370
aVARIES-449
p1371
aVARIES-448
p1372
aVARIES-447
p1373
aVARIES-446
p1374
aVARIES-445
p1375
aVARIES-444
p1376
aVARIES-443
p1377
aVARIES-442
p1378
aVARIES-441
p1379
aVARIES-440
p1380
aVARIES-439
p1381
aVARIES-438
p1382
aVARIES-437
p1383
aVARIES-436
p1384
aVARIES-435
p1385
aVARIES-434
p1386
aVARIES-433
p1387
aVARIES-432
p1388
aVARIES-431
p1389
aVARIES-430
p1390
aVARIES-429
p1391
aVARIES-428
p1392
aVARIES-427
p1393
aVARIES-426
p1394
aVARIES-425
p1395
aVARIES-424
p1396
aVARIES-423
p1397
aVARIES-422
p1398
aVARIES-421
p1399
aVARIES-420
p1400
aVARIES-419
p1401
aVARIES-418
p1402
aVARIES-417
p1403
aVARIES-416
p1404
aVARIES-415
p1405
aVARIES-414
p1406
aVARIES-413
p1407
aVARIES-412
p1408
aVARIES-411
p1409
aVARIES-410
p1410
aVARIES-409
p1411
aVARIES-408
p1412
aVARIES-407
p1413
aVARIES-406
p1414
aVARIES-405
p1415
aVARIES-404
p1416
aVARIES-403
p1417
aVARIES-402
p1418
aVARIES-401
p1419
aVARIES-400
p1420
aVARIES-399
p1421
aVARIES-398
p1422
aVARIES-397
p1423
aVARIES-396
p1424
aVARIES-395
p1425
aVARIES-394
p1426
aVARIES-393
p1427
aVARIES-392
p1428
aVARIES-391
p1429
aVARIES-390
p1430
aVARIES-389
p1431
aVARIES-388
p1432
aVARIES-387
p1433
aVARIES-386
p1434
aVARIES-385
p1435
aVARIES-384
p1436
aVARIES-383
p1437
aVARIES-382
p1438
aVARIES-381
p1439
aVARIES-380
p1440
aVARIES-379
p1441
aVARIES-378
p1442
aVARIES-377
p1443
aVARIES-376
p1444
aVARIES-375
p1445
aVARIES-374
p1446
aVARIES-373
p1447
aVARIES-372
p1448
aVARIES-371
p1449
aVARIES-370
p1450
aVARIES-369
p1451
aVARIES-368
p1452
aVARIES-367
p1453
aVARIES-366
p1454
aVARIES-365
p1455
aVARIES-364
p1456
aVARIES-363
p1457
aVARIES-362
p1458
aVARIES-361
p1459
aVARIES-360
p1460
aVARIES-359
p1461
aVARIES-358
p1462
aVARIES-357
p1463
aVARIES-356
p1464
aVARIES-355
p1465
aVARIES-354
p1466
aVARIES-353
p1467
aVARIES-352
p1468
aVARIES-351
p1469
aVARIES-350
p1470
aVARIES-349
p1471
aVARIES-348
p1472
aVARIES-347
p1473
aVARIES-346
p1474
aVARIES-345
p1475
aVARIES-344
p1476
aVARIES-343
p1477
aVARIES-342
p1478
aVARIES-341
p1479
aVARIES-340
p1480
aVARIES-339
p1481
aVARIES-338
p1482
aVARIES-337
p1483
aVARIES-336
p1484
aVARIES-335
p1485
aVARIES-334
p1486
aVARIES-333
p1487
aVARIES-332
p1488
aVARIES-331
p1489
aVARIES-330
p1490
aVARIES-329
p1491
aVARIES-328
p1492
aVARIES-327
p1493
aVARIES-326
p1494
aVARIES-325
p1495
aVARIES-324
p1496
aVARIES-323
p1497
aVARIES-322
p1498
aVARIES-321
p1499
aVARIES-320
p1500
aVARIES-319
p1501
aVARIES-318
p1502
aVARIES-317
p1503
aVARIES-316
p1504
aVARIES-315
p1505
aVARIES-314
p1506
aVARIES-313
p1507
aVARIES-312
p1508
aVARIES-311
p1509
aVARIES-310
p1510
aVARIES-309
p1511
aVARIES-308
p1512
aVARIES-307
p1513
aVARIES-306
p1514
aVARIES-305
p1515
aVARIES-304
p1516
aVARIES-303
p1517
aVARIES-302
p1518
aVARIES-301
p1519
aVARIES-300
p1520
aVARIES-299
p1521
aVARIES-298
p1522
aVARIES-297
p1523
aVARIES-296
p1524
aVARIES-295
p1525
aVARIES-294
p1526
aVARIES-293
p1527
aVARIES-292
p1528
aVARIES-291
p1529
aVARIES-290
p1530
aVARIES-289
p1531
aVARIES-288
p1532
aVARIES-287
p1533
aVARIES-286
p1534
aVARIES-285
p1535
aVARIES-284
p1536
aVARIES-283
p1537
aVARIES-282
p1538
aVARIES-281
p1539
aVARIES-280
p1540
aVARIES-279
p1541
aVARIES-278
p1542
aVARIES-277
p1543
aVARIES-276
p1544
aVARIES-275
p1545
aVARIES-274
p1546
aVARIES-273
p1547
aVARIES-272
p1548
aVARIES-271
p1549
aVARIES-270
p1550
aVARIES-269
p1551
aVARIES-268
p1552
aVARIES-267
p1553
aVARIES-266
p1554
aVARIES-265
p1555
aVARIES-264
p1556
aVARIES-263
p1557
aVARIES-262
p1558
aVARIES-261
p1559
aVARIES-260
p1560
aVARIES-259
p1561
aVARIES-258
p1562
aVARIES-257
p1563
aVARIES-256
p1564
aVARIES-255
p1565
aVARIES-254
p1566
aVARIES-253
p1567
aVARIES-252
p1568
aVARIES-251
p1569
aVARIES-250
p1570
aVARIES-249
p1571
aVARIES-248
p1572
aVARIES-247
p1573
aVARIES-246
p1574
aVARIES-245
p1575
aVARIES-244
p1576
aVARIES-243
p1577
aVARIES-242
p1578
aVARIES-241
p1579
aVARIES-240
p1580
aVARIES-239
p1581
aVARIES-238
p1582
aVARIES-237
p1583
aVARIES-236
p1584
aVARIES-235
p1585
aVARIES-234
p1586
aVARIES-233
p1587
aVARIES-232
p1588
aVARIES-231
p1589
aVARIES-230
p1590
aVARIES-229
p1591
aVARIES-228
p1592
aVARIES-227
p1593
aVARIES-226
p1594
aVARIES-225
p1595
aVARIES-224
p1596
aVARIES-223
p1597
aVARIES-222
p1598
aVARIES-221
p1599
aVARIES-220
p1600
aVARIES-219
p1601
aVARIES-218
p1602
aVARIES-217
p1603
aVARIES-216
p1604
aVARIES-215
p1605
aVARIES-214
p1606
aVARIES-213
p1607
aVARIES-212
p1608
aVARIES-211
p1609
aVARIES-210
p1610
aVARIES-209
p1611
aVARIES-208
p1612
aVARIES-207
p1613
aVARIES-206
p1614
aVARIES-205
p1615
aVARIES-204
p1616
aVARIES-203
p1617
aVARIES-202
p1618
aVARIES-201
p1619
aVARIES-200
p1620
aVARIES-199
p1621
aVARIES-198
p1622
aVARIES-197
p1623
aVARIES-196
p1624
aVARIES-195
p1625
aVARIES-194
p1626
aVARIES-193
p1627
aVARIES-192
p1628
aVARIES-191
p1629
aVARIES-190
p1630
aVARIES-189
p1631
aVARIES-188
p1632
aVARIES-187
p1633
aVARIES-186
p1634
aVARIES-185
p1635
aVARIES-184
p1636
aVARIES-183
p1637
aVARIES-182
p1638
aVARIES-181
p1639
aVARIES-180
p1640
aVARIES-179
p1641
aVARIES-178
p1642
aVARIES-177
p1643
aVARIES-176
p1644
aVARIES-175
p1645
aVARIES-174
p1646
aVARIES-173
p1647
aVARIES-172
p1648
aVARIES-171
p1649
aVARIES-170
p1650
aVARIES-169
p1651
aVARIES-168
p1652
aVARIES-167
p1653
aVARIES-166
p1654
aVARIES-165
p1655
aVARIES-164
p1656
aVARIES-163
p1657
aVARIES-162
p1658
aVARIES-161
p1659
aVARIES-160
p1660
aVARIES-159
p1661
aVARIES-158
p1662
aVARIES-157
p1663
aVARIES-156
p1664
aVARIES-155
p1665
aVARIES-154
p1666
aVARIES-153
p1667
aVARIES-152
p1668
aVARIES-151
p1669
aVARIES-150
p1670
aVARIES-149
p1671
aVARIES-148
p1672
aVARIES-147
p1673
aVARIES-146
p1674
aVARIES-145
p1675
aVARIES-144
p1676
aVARIES-143
p1677
aVARIES-142
p1678
aVARIES-141
p1679
aVARIES-140
p1680
aVARIES-139
p1681
aVARIES-138
p1682
aVARIES-137
p1683
aVARIES-136
p1684
aVARIES-135
p1685
aVARIES-134
p1686
aVARIES-133
p1687
aVARIES-132
p1688
aVARIES-131
p1689
aVARIES-130
p1690
aVARIES-129
p1691
aVARIES-128
p1692
aVARIES-127
p1693
aVARIES-126
p1694
aVARIES-125
p1695
aVARIES-124
p1696
aVARIES-123
p1697
aVARIES-122
p1698
aVARIES-121
p1699
aVARIES-120
p1700
aVARIES-119
p1701
aVARIES-118
p1702
aVARIES-117
p1703
aVARIES-116
p1704
aVARIES-115
p1705
aVARIES-114
p1706
aVARIES-113
p1707
aVARIES-112
p1708
aVARIES-111
p1709
aVARIES-110
p1710
aVARIES-109
p1711
aVARIES-108
p1712
aVARIES-107
p1713
aVARIES-106
p1714
aVARIES-105
p1715
aVARIES-104
p1716
aVARIES-103
p1717
aVARIES-102
p1718
aVARIES-101
p1719
aVARIES-100
p1720
aVARIES-99
p1721
aVARIES-98
p1722
aVARIES-97
p1723
aVARIES-96
p1724
aVARIES-95
p1725
aVARIES-94
p1726
aVARIES-93
p1727
aVARIES-92
p1728
aVARIES-91
p1729
aVARIES-90
p1730
aVARIES-89
p1731
aVARIES-88
p1732
aVARIES-87
p1733
aVARIES-86
p1734
aVARIES-85
p1735
aVARIES-84
p1736
aVARIES-83
p1737
aVARIES-82
p1738
aVARIES-80
p1739
aVARIES-79
p1740
aVARIES-76
p1741
aVARIES-75
p1742
aVARIES-74
p1743
aVARIES-73
p1744
aVARIES-72
p1745
aVARIES-71
p1746
aVARIES-70
p1747
aVARIES-69
p1748
aVARIES-68
p1749
aVARIES-67
p1750
aVARIES-66
p1751
aVARIES-65
p1752
aVARIES-64
p1753
aVARIES-63
p1754
aVARIES-62
p1755
aVARIES-61
p1756
aVARIES-60
p1757
aVARIES-59
p1758
aVARIES-58
p1759
aVARIES-57
p1760
aVARIES-56
p1761
aVARIES-55
p1762
aVARIES-54
p1763
aVARIES-53
p1764
aVARIES-52
p1765
aVARIES-51
p1766
aVARIES-50
p1767
aVARIES-49
p1768
aVARIES-48
p1769
aVARIES-47
p1770
aVARIES-46
p1771
aVARIES-45
p1772
aVARIES-44
p1773
aVARIES-43
p1774
aVARIES-42
p1775
aVARIES-41
p1776
aVARIES-40
p1777
aVARIES-39
p1778
aVARIES-38
p1779
aVARIES-37
p1780
aVARIES-36
p1781
aVARIES-35
p1782
aVARIES-34
p1783
aVARIES-33
p1784
aVARIES-32
p1785
aVARIES-31
p1786
aVARIES-30
p1787
aVARIES-29
p1788
aVARIES-28
p1789
aVARIES-27
p1790
aVARIES-26
p1791
aVARIES-25
p1792
aVARIES-24
p1793
aVARIES-23
p1794
aVARIES-22
p1795
aVARIES-21
p1796
aVARIES-20
p1797
aVARIES-19
p1798
aVARIES-18
p1799
aVARIES-17
p1800
aVARIES-16
p1801
aVARIES-15
p1802
aVARIES-14
p1803
aVARIES-13
p1804
aVARIES-12
p1805
aVARIES-11
p1806
aVARIES-10
p1807
aVARIES-9
p1808
aVARIES-8
p1809
aVARIES-7
p1810
aVARIES-6
p1811
aVARIES-5
p1812
aVARIES-4
p1813
aVARIES-3
p1814
aVARIES-2
p1815
aVARIES-1
p1816
a.