(lp0
VASTERIXDB-2433
p1
aVASTERIXDB-2432
p2
aVASTERIXDB-2431
p3
aVASTERIXDB-2430
p4
aVASTERIXDB-2429
p5
aVASTERIXDB-2428
p6
aVASTERIXDB-2427
p7
aVASTERIXDB-2426
p8
aVASTERIXDB-2425
p9
aVASTERIXDB-2424
p10
aVASTERIXDB-2423
p11
aVASTERIXDB-2422
p12
aVASTERIXDB-2421
p13
aVASTERIXDB-2420
p14
aVASTERIXDB-2419
p15
aVASTERIXDB-2418
p16
aVASTERIXDB-2417
p17
aVASTERIXDB-2416
p18
aVASTERIXDB-2415
p19
aVASTERIXDB-2414
p20
aVASTERIXDB-2413
p21
aVASTERIXDB-2412
p22
aVASTERIXDB-2411
p23
aVASTERIXDB-2410
p24
aVASTERIXDB-2409
p25
aVASTERIXDB-2408
p26
aVASTERIXDB-2407
p27
aVASTERIXDB-2406
p28
aVASTERIXDB-2405
p29
aVASTERIXDB-2404
p30
aVASTERIXDB-2403
p31
aVASTERIXDB-2402
p32
aVASTERIXDB-2401
p33
aVASTERIXDB-2400
p34
aVASTERIXDB-2399
p35
aVASTERIXDB-2398
p36
aVASTERIXDB-2397
p37
aVASTERIXDB-2396
p38
aVASTERIXDB-2395
p39
aVASTERIXDB-2394
p40
aVASTERIXDB-2393
p41
aVASTERIXDB-2392
p42
aVASTERIXDB-2391
p43
aVASTERIXDB-2390
p44
aVASTERIXDB-2389
p45
aVASTERIXDB-2388
p46
aVASTERIXDB-2387
p47
aVASTERIXDB-2386
p48
aVASTERIXDB-2385
p49
aVASTERIXDB-2384
p50
aVASTERIXDB-2383
p51
aVASTERIXDB-2382
p52
aVASTERIXDB-2381
p53
aVASTERIXDB-2380
p54
aVASTERIXDB-2379
p55
aVASTERIXDB-2378
p56
aVASTERIXDB-2377
p57
aVASTERIXDB-2376
p58
aVASTERIXDB-2375
p59
aVASTERIXDB-2374
p60
aVASTERIXDB-2373
p61
aVASTERIXDB-2372
p62
aVASTERIXDB-2371
p63
aVASTERIXDB-2370
p64
aVASTERIXDB-2369
p65
aVASTERIXDB-2368
p66
aVASTERIXDB-2367
p67
aVASTERIXDB-2366
p68
aVASTERIXDB-2365
p69
aVASTERIXDB-2364
p70
aVASTERIXDB-2363
p71
aVASTERIXDB-2362
p72
aVASTERIXDB-2361
p73
aVASTERIXDB-2360
p74
aVASTERIXDB-2359
p75
aVASTERIXDB-2358
p76
aVASTERIXDB-2357
p77
aVASTERIXDB-2356
p78
aVASTERIXDB-2355
p79
aVASTERIXDB-2354
p80
aVASTERIXDB-2353
p81
aVASTERIXDB-2352
p82
aVASTERIXDB-2351
p83
aVASTERIXDB-2350
p84
aVASTERIXDB-2349
p85
aVASTERIXDB-2348
p86
aVASTERIXDB-2347
p87
aVASTERIXDB-2346
p88
aVASTERIXDB-2345
p89
aVASTERIXDB-2344
p90
aVASTERIXDB-2343
p91
aVASTERIXDB-2342
p92
aVASTERIXDB-2341
p93
aVASTERIXDB-2340
p94
aVASTERIXDB-2339
p95
aVASTERIXDB-2338
p96
aVASTERIXDB-2337
p97
aVASTERIXDB-2336
p98
aVASTERIXDB-2335
p99
aVASTERIXDB-2334
p100
aVASTERIXDB-2333
p101
aVASTERIXDB-2332
p102
aVASTERIXDB-2331
p103
aVASTERIXDB-2330
p104
aVASTERIXDB-2329
p105
aVASTERIXDB-2328
p106
aVASTERIXDB-2327
p107
aVASTERIXDB-2326
p108
aVASTERIXDB-2325
p109
aVASTERIXDB-2324
p110
aVASTERIXDB-2323
p111
aVASTERIXDB-2322
p112
aVASTERIXDB-2321
p113
aVASTERIXDB-2320
p114
aVASTERIXDB-2319
p115
aVASTERIXDB-2318
p116
aVASTERIXDB-2317
p117
aVASTERIXDB-2316
p118
aVASTERIXDB-2315
p119
aVASTERIXDB-2314
p120
aVASTERIXDB-2313
p121
aVASTERIXDB-2312
p122
aVASTERIXDB-2311
p123
aVASTERIXDB-2310
p124
aVASTERIXDB-2309
p125
aVASTERIXDB-2308
p126
aVASTERIXDB-2307
p127
aVASTERIXDB-2306
p128
aVASTERIXDB-2305
p129
aVASTERIXDB-2304
p130
aVASTERIXDB-2303
p131
aVASTERIXDB-2302
p132
aVASTERIXDB-2301
p133
aVASTERIXDB-2300
p134
aVASTERIXDB-2299
p135
aVASTERIXDB-2298
p136
aVASTERIXDB-2297
p137
aVASTERIXDB-2296
p138
aVASTERIXDB-2295
p139
aVASTERIXDB-2294
p140
aVASTERIXDB-2293
p141
aVASTERIXDB-2292
p142
aVASTERIXDB-2291
p143
aVASTERIXDB-2290
p144
aVASTERIXDB-2289
p145
aVASTERIXDB-2288
p146
aVASTERIXDB-2287
p147
aVASTERIXDB-2286
p148
aVASTERIXDB-2285
p149
aVASTERIXDB-2284
p150
aVASTERIXDB-2283
p151
aVASTERIXDB-2282
p152
aVASTERIXDB-2281
p153
aVASTERIXDB-2280
p154
aVASTERIXDB-2279
p155
aVASTERIXDB-2278
p156
aVASTERIXDB-2277
p157
aVASTERIXDB-2276
p158
aVASTERIXDB-2275
p159
aVASTERIXDB-2274
p160
aVASTERIXDB-2273
p161
aVASTERIXDB-2272
p162
aVASTERIXDB-2271
p163
aVASTERIXDB-2270
p164
aVASTERIXDB-2269
p165
aVASTERIXDB-2268
p166
aVASTERIXDB-2267
p167
aVASTERIXDB-2266
p168
aVASTERIXDB-2265
p169
aVASTERIXDB-2264
p170
aVASTERIXDB-2263
p171
aVASTERIXDB-2262
p172
aVASTERIXDB-2261
p173
aVASTERIXDB-2260
p174
aVASTERIXDB-2259
p175
aVASTERIXDB-2258
p176
aVASTERIXDB-2257
p177
aVASTERIXDB-2256
p178
aVASTERIXDB-2255
p179
aVASTERIXDB-2254
p180
aVASTERIXDB-2253
p181
aVASTERIXDB-2252
p182
aVASTERIXDB-2251
p183
aVASTERIXDB-2250
p184
aVASTERIXDB-2249
p185
aVASTERIXDB-2248
p186
aVASTERIXDB-2247
p187
aVASTERIXDB-2246
p188
aVASTERIXDB-2245
p189
aVASTERIXDB-2244
p190
aVASTERIXDB-2243
p191
aVASTERIXDB-2242
p192
aVASTERIXDB-2241
p193
aVASTERIXDB-2240
p194
aVASTERIXDB-2239
p195
aVASTERIXDB-2238
p196
aVASTERIXDB-2237
p197
aVASTERIXDB-2236
p198
aVASTERIXDB-2235
p199
aVASTERIXDB-2234
p200
aVASTERIXDB-2233
p201
aVASTERIXDB-2232
p202
aVASTERIXDB-2231
p203
aVASTERIXDB-2230
p204
aVASTERIXDB-2229
p205
aVASTERIXDB-2228
p206
aVASTERIXDB-2227
p207
aVASTERIXDB-2226
p208
aVASTERIXDB-2225
p209
aVASTERIXDB-2224
p210
aVASTERIXDB-2223
p211
aVASTERIXDB-2222
p212
aVASTERIXDB-2221
p213
aVASTERIXDB-2220
p214
aVASTERIXDB-2219
p215
aVASTERIXDB-2218
p216
aVASTERIXDB-2217
p217
aVASTERIXDB-2216
p218
aVASTERIXDB-2215
p219
aVASTERIXDB-2214
p220
aVASTERIXDB-2213
p221
aVASTERIXDB-2212
p222
aVASTERIXDB-2211
p223
aVASTERIXDB-2210
p224
aVASTERIXDB-2209
p225
aVASTERIXDB-2208
p226
aVASTERIXDB-2207
p227
aVASTERIXDB-2206
p228
aVASTERIXDB-2205
p229
aVASTERIXDB-2204
p230
aVASTERIXDB-2203
p231
aVASTERIXDB-2202
p232
aVASTERIXDB-2201
p233
aVASTERIXDB-2200
p234
aVASTERIXDB-2199
p235
aVASTERIXDB-2198
p236
aVASTERIXDB-2197
p237
aVASTERIXDB-2196
p238
aVASTERIXDB-2195
p239
aVASTERIXDB-2194
p240
aVASTERIXDB-2193
p241
aVASTERIXDB-2192
p242
aVASTERIXDB-2191
p243
aVASTERIXDB-2190
p244
aVASTERIXDB-2189
p245
aVASTERIXDB-2188
p246
aVASTERIXDB-2187
p247
aVASTERIXDB-2186
p248
aVASTERIXDB-2185
p249
aVASTERIXDB-2184
p250
aVASTERIXDB-2183
p251
aVASTERIXDB-2182
p252
aVASTERIXDB-2181
p253
aVASTERIXDB-2180
p254
aVASTERIXDB-2179
p255
aVASTERIXDB-2178
p256
aVASTERIXDB-2177
p257
aVASTERIXDB-2176
p258
aVASTERIXDB-2175
p259
aVASTERIXDB-2174
p260
aVASTERIXDB-2173
p261
aVASTERIXDB-2172
p262
aVASTERIXDB-2171
p263
aVASTERIXDB-2170
p264
aVASTERIXDB-2169
p265
aVASTERIXDB-2168
p266
aVASTERIXDB-2167
p267
aVASTERIXDB-2166
p268
aVASTERIXDB-2165
p269
aVASTERIXDB-2164
p270
aVASTERIXDB-2163
p271
aVASTERIXDB-2162
p272
aVASTERIXDB-2161
p273
aVASTERIXDB-2160
p274
aVASTERIXDB-2159
p275
aVASTERIXDB-2158
p276
aVASTERIXDB-2157
p277
aVASTERIXDB-2156
p278
aVASTERIXDB-2155
p279
aVASTERIXDB-2154
p280
aVASTERIXDB-2153
p281
aVASTERIXDB-2152
p282
aVASTERIXDB-2151
p283
aVASTERIXDB-2150
p284
aVASTERIXDB-2149
p285
aVASTERIXDB-2148
p286
aVASTERIXDB-2147
p287
aVASTERIXDB-2146
p288
aVASTERIXDB-2145
p289
aVASTERIXDB-2144
p290
aVASTERIXDB-2143
p291
aVASTERIXDB-2142
p292
aVASTERIXDB-2141
p293
aVASTERIXDB-2140
p294
aVASTERIXDB-2139
p295
aVASTERIXDB-2138
p296
aVASTERIXDB-2137
p297
aVASTERIXDB-2136
p298
aVASTERIXDB-2135
p299
aVASTERIXDB-2134
p300
aVASTERIXDB-2133
p301
aVASTERIXDB-2132
p302
aVASTERIXDB-2131
p303
aVASTERIXDB-2130
p304
aVASTERIXDB-2129
p305
aVASTERIXDB-2128
p306
aVASTERIXDB-2127
p307
aVASTERIXDB-2126
p308
aVASTERIXDB-2125
p309
aVASTERIXDB-2124
p310
aVASTERIXDB-2123
p311
aVASTERIXDB-2122
p312
aVASTERIXDB-2121
p313
aVASTERIXDB-2120
p314
aVASTERIXDB-2119
p315
aVASTERIXDB-2118
p316
aVASTERIXDB-2117
p317
aVASTERIXDB-2116
p318
aVASTERIXDB-2115
p319
aVASTERIXDB-2114
p320
aVASTERIXDB-2113
p321
aVASTERIXDB-2112
p322
aVASTERIXDB-2111
p323
aVASTERIXDB-2110
p324
aVASTERIXDB-2109
p325
aVASTERIXDB-2108
p326
aVASTERIXDB-2107
p327
aVASTERIXDB-2106
p328
aVASTERIXDB-2105
p329
aVASTERIXDB-2104
p330
aVASTERIXDB-2103
p331
aVASTERIXDB-2102
p332
aVASTERIXDB-2101
p333
aVASTERIXDB-2100
p334
aVASTERIXDB-2099
p335
aVASTERIXDB-2098
p336
aVASTERIXDB-2097
p337
aVASTERIXDB-2096
p338
aVASTERIXDB-2095
p339
aVASTERIXDB-2094
p340
aVASTERIXDB-2093
p341
aVASTERIXDB-2092
p342
aVASTERIXDB-2091
p343
aVASTERIXDB-2090
p344
aVASTERIXDB-2089
p345
aVASTERIXDB-2088
p346
aVASTERIXDB-2087
p347
aVASTERIXDB-2086
p348
aVASTERIXDB-2085
p349
aVASTERIXDB-2084
p350
aVASTERIXDB-2083
p351
aVASTERIXDB-2082
p352
aVASTERIXDB-2081
p353
aVASTERIXDB-2080
p354
aVASTERIXDB-2079
p355
aVASTERIXDB-2078
p356
aVASTERIXDB-2077
p357
aVASTERIXDB-2076
p358
aVASTERIXDB-2075
p359
aVASTERIXDB-2074
p360
aVASTERIXDB-2073
p361
aVASTERIXDB-2072
p362
aVASTERIXDB-2071
p363
aVASTERIXDB-2070
p364
aVASTERIXDB-2069
p365
aVASTERIXDB-2068
p366
aVASTERIXDB-2067
p367
aVASTERIXDB-2066
p368
aVASTERIXDB-2065
p369
aVASTERIXDB-2064
p370
aVASTERIXDB-2063
p371
aVASTERIXDB-2062
p372
aVASTERIXDB-2061
p373
aVASTERIXDB-2060
p374
aVASTERIXDB-2059
p375
aVASTERIXDB-2058
p376
aVASTERIXDB-2057
p377
aVASTERIXDB-2056
p378
aVASTERIXDB-2055
p379
aVASTERIXDB-2054
p380
aVASTERIXDB-2053
p381
aVASTERIXDB-2052
p382
aVASTERIXDB-2051
p383
aVASTERIXDB-2050
p384
aVASTERIXDB-2049
p385
aVASTERIXDB-2048
p386
aVASTERIXDB-2047
p387
aVASTERIXDB-2046
p388
aVASTERIXDB-2045
p389
aVASTERIXDB-2044
p390
aVASTERIXDB-2043
p391
aVASTERIXDB-2042
p392
aVASTERIXDB-2041
p393
aVASTERIXDB-2040
p394
aVASTERIXDB-2039
p395
aVASTERIXDB-2038
p396
aVASTERIXDB-2037
p397
aVASTERIXDB-2036
p398
aVASTERIXDB-2035
p399
aVASTERIXDB-2034
p400
aVASTERIXDB-2033
p401
aVASTERIXDB-2032
p402
aVASTERIXDB-2031
p403
aVASTERIXDB-2030
p404
aVASTERIXDB-2029
p405
aVASTERIXDB-2028
p406
aVASTERIXDB-2027
p407
aVASTERIXDB-2026
p408
aVASTERIXDB-2025
p409
aVASTERIXDB-2024
p410
aVASTERIXDB-2023
p411
aVASTERIXDB-2022
p412
aVASTERIXDB-2021
p413
aVASTERIXDB-2020
p414
aVASTERIXDB-2019
p415
aVASTERIXDB-2018
p416
aVASTERIXDB-2017
p417
aVASTERIXDB-2016
p418
aVASTERIXDB-2015
p419
aVASTERIXDB-2014
p420
aVASTERIXDB-2013
p421
aVASTERIXDB-2012
p422
aVASTERIXDB-2011
p423
aVASTERIXDB-2010
p424
aVASTERIXDB-2009
p425
aVASTERIXDB-2008
p426
aVASTERIXDB-2007
p427
aVASTERIXDB-2006
p428
aVASTERIXDB-2005
p429
aVASTERIXDB-2004
p430
aVASTERIXDB-2003
p431
aVASTERIXDB-2002
p432
aVASTERIXDB-2001
p433
aVASTERIXDB-2000
p434
aVASTERIXDB-1999
p435
aVASTERIXDB-1998
p436
aVASTERIXDB-1997
p437
aVASTERIXDB-1996
p438
aVASTERIXDB-1995
p439
aVASTERIXDB-1994
p440
aVASTERIXDB-1993
p441
aVASTERIXDB-1992
p442
aVASTERIXDB-1991
p443
aVASTERIXDB-1990
p444
aVASTERIXDB-1989
p445
aVASTERIXDB-1988
p446
aVASTERIXDB-1987
p447
aVASTERIXDB-1986
p448
aVASTERIXDB-1985
p449
aVASTERIXDB-1984
p450
aVASTERIXDB-1983
p451
aVASTERIXDB-1982
p452
aVASTERIXDB-1981
p453
aVASTERIXDB-1980
p454
aVASTERIXDB-1979
p455
aVASTERIXDB-1978
p456
aVASTERIXDB-1977
p457
aVASTERIXDB-1976
p458
aVASTERIXDB-1975
p459
aVASTERIXDB-1974
p460
aVASTERIXDB-1973
p461
aVASTERIXDB-1972
p462
aVASTERIXDB-1971
p463
aVASTERIXDB-1970
p464
aVASTERIXDB-1969
p465
aVASTERIXDB-1968
p466
aVASTERIXDB-1967
p467
aVASTERIXDB-1966
p468
aVASTERIXDB-1965
p469
aVASTERIXDB-1964
p470
aVASTERIXDB-1963
p471
aVASTERIXDB-1962
p472
aVASTERIXDB-1961
p473
aVASTERIXDB-1960
p474
aVASTERIXDB-1959
p475
aVASTERIXDB-1958
p476
aVASTERIXDB-1957
p477
aVASTERIXDB-1956
p478
aVASTERIXDB-1955
p479
aVASTERIXDB-1954
p480
aVASTERIXDB-1953
p481
aVASTERIXDB-1952
p482
aVASTERIXDB-1951
p483
aVASTERIXDB-1950
p484
aVASTERIXDB-1949
p485
aVASTERIXDB-1948
p486
aVASTERIXDB-1947
p487
aVASTERIXDB-1946
p488
aVASTERIXDB-1945
p489
aVASTERIXDB-1944
p490
aVASTERIXDB-1943
p491
aVASTERIXDB-1942
p492
aVASTERIXDB-1941
p493
aVASTERIXDB-1940
p494
aVASTERIXDB-1939
p495
aVASTERIXDB-1938
p496
aVASTERIXDB-1937
p497
aVASTERIXDB-1936
p498
aVASTERIXDB-1935
p499
aVASTERIXDB-1934
p500
aVASTERIXDB-1933
p501
aVASTERIXDB-1932
p502
aVASTERIXDB-1931
p503
aVASTERIXDB-1930
p504
aVASTERIXDB-1929
p505
aVASTERIXDB-1928
p506
aVASTERIXDB-1927
p507
aVASTERIXDB-1926
p508
aVASTERIXDB-1925
p509
aVASTERIXDB-1924
p510
aVASTERIXDB-1923
p511
aVASTERIXDB-1922
p512
aVASTERIXDB-1921
p513
aVASTERIXDB-1920
p514
aVASTERIXDB-1919
p515
aVASTERIXDB-1918
p516
aVASTERIXDB-1917
p517
aVASTERIXDB-1916
p518
aVASTERIXDB-1915
p519
aVASTERIXDB-1914
p520
aVASTERIXDB-1913
p521
aVASTERIXDB-1912
p522
aVASTERIXDB-1911
p523
aVASTERIXDB-1910
p524
aVASTERIXDB-1909
p525
aVASTERIXDB-1908
p526
aVASTERIXDB-1907
p527
aVASTERIXDB-1906
p528
aVASTERIXDB-1905
p529
aVASTERIXDB-1904
p530
aVASTERIXDB-1903
p531
aVASTERIXDB-1902
p532
aVASTERIXDB-1901
p533
aVASTERIXDB-1900
p534
aVASTERIXDB-1899
p535
aVASTERIXDB-1898
p536
aVASTERIXDB-1897
p537
aVASTERIXDB-1896
p538
aVASTERIXDB-1895
p539
aVASTERIXDB-1894
p540
aVASTERIXDB-1893
p541
aVASTERIXDB-1892
p542
aVASTERIXDB-1891
p543
aVASTERIXDB-1890
p544
aVASTERIXDB-1889
p545
aVASTERIXDB-1888
p546
aVASTERIXDB-1887
p547
aVASTERIXDB-1886
p548
aVASTERIXDB-1885
p549
aVASTERIXDB-1884
p550
aVASTERIXDB-1883
p551
aVASTERIXDB-1882
p552
aVASTERIXDB-1881
p553
aVASTERIXDB-1880
p554
aVASTERIXDB-1879
p555
aVASTERIXDB-1878
p556
aVASTERIXDB-1877
p557
aVASTERIXDB-1876
p558
aVASTERIXDB-1875
p559
aVASTERIXDB-1874
p560
aVASTERIXDB-1873
p561
aVASTERIXDB-1872
p562
aVASTERIXDB-1871
p563
aVASTERIXDB-1870
p564
aVASTERIXDB-1869
p565
aVASTERIXDB-1868
p566
aVASTERIXDB-1867
p567
aVASTERIXDB-1866
p568
aVASTERIXDB-1865
p569
aVASTERIXDB-1864
p570
aVASTERIXDB-1863
p571
aVASTERIXDB-1862
p572
aVASTERIXDB-1861
p573
aVASTERIXDB-1860
p574
aVASTERIXDB-1859
p575
aVASTERIXDB-1858
p576
aVASTERIXDB-1857
p577
aVASTERIXDB-1856
p578
aVASTERIXDB-1855
p579
aVASTERIXDB-1854
p580
aVASTERIXDB-1853
p581
aVASTERIXDB-1852
p582
aVASTERIXDB-1851
p583
aVASTERIXDB-1850
p584
aVASTERIXDB-1849
p585
aVASTERIXDB-1848
p586
aVASTERIXDB-1847
p587
aVASTERIXDB-1846
p588
aVASTERIXDB-1845
p589
aVASTERIXDB-1844
p590
aVASTERIXDB-1843
p591
aVASTERIXDB-1842
p592
aVASTERIXDB-1841
p593
aVASTERIXDB-1840
p594
aVASTERIXDB-1839
p595
aVASTERIXDB-1838
p596
aVASTERIXDB-1837
p597
aVASTERIXDB-1836
p598
aVASTERIXDB-1835
p599
aVASTERIXDB-1834
p600
aVASTERIXDB-1833
p601
aVASTERIXDB-1832
p602
aVASTERIXDB-1831
p603
aVASTERIXDB-1830
p604
aVASTERIXDB-1829
p605
aVASTERIXDB-1828
p606
aVASTERIXDB-1827
p607
aVASTERIXDB-1826
p608
aVASTERIXDB-1825
p609
aVASTERIXDB-1824
p610
aVASTERIXDB-1823
p611
aVASTERIXDB-1822
p612
aVASTERIXDB-1821
p613
aVASTERIXDB-1820
p614
aVASTERIXDB-1819
p615
aVASTERIXDB-1818
p616
aVASTERIXDB-1817
p617
aVASTERIXDB-1816
p618
aVASTERIXDB-1815
p619
aVASTERIXDB-1814
p620
aVASTERIXDB-1813
p621
aVASTERIXDB-1812
p622
aVASTERIXDB-1811
p623
aVASTERIXDB-1810
p624
aVASTERIXDB-1809
p625
aVASTERIXDB-1808
p626
aVASTERIXDB-1807
p627
aVASTERIXDB-1806
p628
aVASTERIXDB-1805
p629
aVASTERIXDB-1804
p630
aVASTERIXDB-1803
p631
aVASTERIXDB-1802
p632
aVASTERIXDB-1801
p633
aVASTERIXDB-1800
p634
aVASTERIXDB-1799
p635
aVASTERIXDB-1798
p636
aVASTERIXDB-1797
p637
aVASTERIXDB-1796
p638
aVASTERIXDB-1795
p639
aVASTERIXDB-1794
p640
aVASTERIXDB-1793
p641
aVASTERIXDB-1792
p642
aVASTERIXDB-1791
p643
aVASTERIXDB-1790
p644
aVASTERIXDB-1789
p645
aVASTERIXDB-1788
p646
aVASTERIXDB-1787
p647
aVASTERIXDB-1786
p648
aVASTERIXDB-1785
p649
aVASTERIXDB-1784
p650
aVASTERIXDB-1783
p651
aVASTERIXDB-1782
p652
aVASTERIXDB-1781
p653
aVASTERIXDB-1780
p654
aVASTERIXDB-1779
p655
aVASTERIXDB-1778
p656
aVASTERIXDB-1777
p657
aVASTERIXDB-1776
p658
aVASTERIXDB-1775
p659
aVASTERIXDB-1774
p660
aVASTERIXDB-1773
p661
aVASTERIXDB-1772
p662
aVASTERIXDB-1771
p663
aVASTERIXDB-1770
p664
aVASTERIXDB-1769
p665
aVASTERIXDB-1768
p666
aVASTERIXDB-1767
p667
aVASTERIXDB-1766
p668
aVASTERIXDB-1765
p669
aVASTERIXDB-1764
p670
aVASTERIXDB-1763
p671
aVASTERIXDB-1762
p672
aVASTERIXDB-1761
p673
aVASTERIXDB-1760
p674
aVASTERIXDB-1759
p675
aVASTERIXDB-1758
p676
aVASTERIXDB-1757
p677
aVASTERIXDB-1756
p678
aVASTERIXDB-1755
p679
aVASTERIXDB-1754
p680
aVASTERIXDB-1753
p681
aVASTERIXDB-1752
p682
aVASTERIXDB-1751
p683
aVASTERIXDB-1750
p684
aVASTERIXDB-1749
p685
aVASTERIXDB-1748
p686
aVASTERIXDB-1747
p687
aVASTERIXDB-1746
p688
aVASTERIXDB-1745
p689
aVASTERIXDB-1744
p690
aVASTERIXDB-1743
p691
aVASTERIXDB-1742
p692
aVASTERIXDB-1741
p693
aVASTERIXDB-1740
p694
aVASTERIXDB-1739
p695
aVASTERIXDB-1738
p696
aVASTERIXDB-1737
p697
aVASTERIXDB-1736
p698
aVASTERIXDB-1735
p699
aVASTERIXDB-1734
p700
aVASTERIXDB-1733
p701
aVASTERIXDB-1732
p702
aVASTERIXDB-1731
p703
aVASTERIXDB-1730
p704
aVASTERIXDB-1729
p705
aVASTERIXDB-1728
p706
aVASTERIXDB-1727
p707
aVASTERIXDB-1726
p708
aVASTERIXDB-1725
p709
aVASTERIXDB-1724
p710
aVASTERIXDB-1723
p711
aVASTERIXDB-1722
p712
aVASTERIXDB-1721
p713
aVASTERIXDB-1720
p714
aVASTERIXDB-1719
p715
aVASTERIXDB-1718
p716
aVASTERIXDB-1717
p717
aVASTERIXDB-1716
p718
aVASTERIXDB-1715
p719
aVASTERIXDB-1714
p720
aVASTERIXDB-1713
p721
aVASTERIXDB-1712
p722
aVASTERIXDB-1711
p723
aVASTERIXDB-1710
p724
aVASTERIXDB-1709
p725
aVASTERIXDB-1708
p726
aVASTERIXDB-1707
p727
aVASTERIXDB-1706
p728
aVASTERIXDB-1705
p729
aVASTERIXDB-1704
p730
aVASTERIXDB-1703
p731
aVASTERIXDB-1702
p732
aVASTERIXDB-1701
p733
aVASTERIXDB-1700
p734
aVASTERIXDB-1699
p735
aVASTERIXDB-1698
p736
aVASTERIXDB-1697
p737
aVASTERIXDB-1696
p738
aVASTERIXDB-1695
p739
aVASTERIXDB-1694
p740
aVASTERIXDB-1693
p741
aVASTERIXDB-1692
p742
aVASTERIXDB-1691
p743
aVASTERIXDB-1690
p744
aVASTERIXDB-1689
p745
aVASTERIXDB-1688
p746
aVASTERIXDB-1687
p747
aVASTERIXDB-1686
p748
aVASTERIXDB-1685
p749
aVASTERIXDB-1684
p750
aVASTERIXDB-1683
p751
aVASTERIXDB-1682
p752
aVASTERIXDB-1681
p753
aVASTERIXDB-1680
p754
aVASTERIXDB-1679
p755
aVASTERIXDB-1678
p756
aVASTERIXDB-1677
p757
aVASTERIXDB-1676
p758
aVASTERIXDB-1675
p759
aVASTERIXDB-1674
p760
aVASTERIXDB-1673
p761
aVASTERIXDB-1672
p762
aVASTERIXDB-1671
p763
aVASTERIXDB-1670
p764
aVASTERIXDB-1669
p765
aVASTERIXDB-1668
p766
aVASTERIXDB-1667
p767
aVASTERIXDB-1666
p768
aVASTERIXDB-1665
p769
aVASTERIXDB-1664
p770
aVASTERIXDB-1663
p771
aVASTERIXDB-1662
p772
aVASTERIXDB-1661
p773
aVASTERIXDB-1660
p774
aVASTERIXDB-1659
p775
aVASTERIXDB-1658
p776
aVASTERIXDB-1657
p777
aVASTERIXDB-1656
p778
aVASTERIXDB-1655
p779
aVASTERIXDB-1654
p780
aVASTERIXDB-1653
p781
aVASTERIXDB-1652
p782
aVASTERIXDB-1651
p783
aVASTERIXDB-1650
p784
aVASTERIXDB-1649
p785
aVASTERIXDB-1648
p786
aVASTERIXDB-1647
p787
aVASTERIXDB-1646
p788
aVASTERIXDB-1645
p789
aVASTERIXDB-1644
p790
aVASTERIXDB-1643
p791
aVASTERIXDB-1642
p792
aVASTERIXDB-1641
p793
aVASTERIXDB-1640
p794
aVASTERIXDB-1639
p795
aVASTERIXDB-1638
p796
aVASTERIXDB-1637
p797
aVASTERIXDB-1636
p798
aVASTERIXDB-1635
p799
aVASTERIXDB-1634
p800
aVASTERIXDB-1633
p801
aVASTERIXDB-1632
p802
aVASTERIXDB-1631
p803
aVASTERIXDB-1630
p804
aVASTERIXDB-1629
p805
aVASTERIXDB-1628
p806
aVASTERIXDB-1627
p807
aVASTERIXDB-1626
p808
aVASTERIXDB-1625
p809
aVASTERIXDB-1624
p810
aVASTERIXDB-1623
p811
aVASTERIXDB-1622
p812
aVASTERIXDB-1621
p813
aVASTERIXDB-1620
p814
aVASTERIXDB-1619
p815
aVASTERIXDB-1618
p816
aVASTERIXDB-1617
p817
aVASTERIXDB-1616
p818
aVASTERIXDB-1615
p819
aVASTERIXDB-1614
p820
aVASTERIXDB-1613
p821
aVASTERIXDB-1612
p822
aVASTERIXDB-1611
p823
aVASTERIXDB-1610
p824
aVASTERIXDB-1609
p825
aVASTERIXDB-1608
p826
aVASTERIXDB-1607
p827
aVASTERIXDB-1606
p828
aVASTERIXDB-1605
p829
aVASTERIXDB-1604
p830
aVASTERIXDB-1603
p831
aVASTERIXDB-1602
p832
aVASTERIXDB-1601
p833
aVASTERIXDB-1600
p834
aVASTERIXDB-1599
p835
aVASTERIXDB-1598
p836
aVASTERIXDB-1597
p837
aVASTERIXDB-1596
p838
aVASTERIXDB-1595
p839
aVASTERIXDB-1594
p840
aVASTERIXDB-1593
p841
aVASTERIXDB-1592
p842
aVASTERIXDB-1591
p843
aVASTERIXDB-1590
p844
aVASTERIXDB-1589
p845
aVASTERIXDB-1588
p846
aVASTERIXDB-1587
p847
aVASTERIXDB-1586
p848
aVASTERIXDB-1585
p849
aVASTERIXDB-1584
p850
aVASTERIXDB-1583
p851
aVASTERIXDB-1582
p852
aVASTERIXDB-1581
p853
aVASTERIXDB-1580
p854
aVASTERIXDB-1579
p855
aVASTERIXDB-1578
p856
aVASTERIXDB-1577
p857
aVASTERIXDB-1576
p858
aVASTERIXDB-1575
p859
aVASTERIXDB-1574
p860
aVASTERIXDB-1573
p861
aVASTERIXDB-1572
p862
aVASTERIXDB-1571
p863
aVASTERIXDB-1570
p864
aVASTERIXDB-1569
p865
aVASTERIXDB-1568
p866
aVASTERIXDB-1567
p867
aVASTERIXDB-1566
p868
aVASTERIXDB-1565
p869
aVASTERIXDB-1564
p870
aVASTERIXDB-1563
p871
aVASTERIXDB-1562
p872
aVASTERIXDB-1561
p873
aVASTERIXDB-1560
p874
aVASTERIXDB-1559
p875
aVASTERIXDB-1558
p876
aVASTERIXDB-1557
p877
aVASTERIXDB-1556
p878
aVASTERIXDB-1555
p879
aVASTERIXDB-1554
p880
aVASTERIXDB-1553
p881
aVASTERIXDB-1552
p882
aVASTERIXDB-1551
p883
aVASTERIXDB-1550
p884
aVASTERIXDB-1549
p885
aVASTERIXDB-1548
p886
aVASTERIXDB-1547
p887
aVASTERIXDB-1546
p888
aVASTERIXDB-1545
p889
aVASTERIXDB-1544
p890
aVASTERIXDB-1543
p891
aVASTERIXDB-1542
p892
aVASTERIXDB-1541
p893
aVASTERIXDB-1540
p894
aVASTERIXDB-1539
p895
aVASTERIXDB-1538
p896
aVASTERIXDB-1537
p897
aVASTERIXDB-1536
p898
aVASTERIXDB-1535
p899
aVASTERIXDB-1534
p900
aVASTERIXDB-1533
p901
aVASTERIXDB-1532
p902
aVASTERIXDB-1531
p903
aVASTERIXDB-1530
p904
aVASTERIXDB-1529
p905
aVASTERIXDB-1528
p906
aVASTERIXDB-1527
p907
aVASTERIXDB-1526
p908
aVASTERIXDB-1525
p909
aVASTERIXDB-1524
p910
aVASTERIXDB-1523
p911
aVASTERIXDB-1522
p912
aVASTERIXDB-1521
p913
aVASTERIXDB-1520
p914
aVASTERIXDB-1519
p915
aVASTERIXDB-1518
p916
aVASTERIXDB-1517
p917
aVASTERIXDB-1516
p918
aVASTERIXDB-1515
p919
aVASTERIXDB-1514
p920
aVASTERIXDB-1513
p921
aVASTERIXDB-1512
p922
aVASTERIXDB-1511
p923
aVASTERIXDB-1510
p924
aVASTERIXDB-1509
p925
aVASTERIXDB-1508
p926
aVASTERIXDB-1507
p927
aVASTERIXDB-1506
p928
aVASTERIXDB-1505
p929
aVASTERIXDB-1504
p930
aVASTERIXDB-1503
p931
aVASTERIXDB-1502
p932
aVASTERIXDB-1501
p933
aVASTERIXDB-1500
p934
aVASTERIXDB-1499
p935
aVASTERIXDB-1498
p936
aVASTERIXDB-1497
p937
aVASTERIXDB-1496
p938
aVASTERIXDB-1495
p939
aVASTERIXDB-1494
p940
aVASTERIXDB-1493
p941
aVASTERIXDB-1492
p942
aVASTERIXDB-1491
p943
aVASTERIXDB-1490
p944
aVASTERIXDB-1489
p945
aVASTERIXDB-1488
p946
aVASTERIXDB-1487
p947
aVASTERIXDB-1486
p948
aVASTERIXDB-1485
p949
aVASTERIXDB-1484
p950
aVASTERIXDB-1483
p951
aVASTERIXDB-1482
p952
aVASTERIXDB-1481
p953
aVASTERIXDB-1480
p954
aVASTERIXDB-1479
p955
aVASTERIXDB-1478
p956
aVASTERIXDB-1477
p957
aVASTERIXDB-1476
p958
aVASTERIXDB-1475
p959
aVASTERIXDB-1474
p960
aVASTERIXDB-1473
p961
aVASTERIXDB-1472
p962
aVASTERIXDB-1471
p963
aVASTERIXDB-1470
p964
aVASTERIXDB-1469
p965
aVASTERIXDB-1468
p966
aVASTERIXDB-1467
p967
aVASTERIXDB-1466
p968
aVASTERIXDB-1465
p969
aVASTERIXDB-1464
p970
aVASTERIXDB-1463
p971
aVASTERIXDB-1462
p972
aVASTERIXDB-1461
p973
aVASTERIXDB-1460
p974
aVASTERIXDB-1459
p975
aVASTERIXDB-1458
p976
aVASTERIXDB-1457
p977
aVASTERIXDB-1456
p978
aVASTERIXDB-1455
p979
aVASTERIXDB-1454
p980
aVASTERIXDB-1453
p981
aVASTERIXDB-1452
p982
aVASTERIXDB-1451
p983
aVASTERIXDB-1450
p984
aVASTERIXDB-1449
p985
aVASTERIXDB-1448
p986
aVASTERIXDB-1447
p987
aVASTERIXDB-1446
p988
aVASTERIXDB-1445
p989
aVASTERIXDB-1444
p990
aVASTERIXDB-1443
p991
aVASTERIXDB-1442
p992
aVASTERIXDB-1441
p993
aVASTERIXDB-1440
p994
aVASTERIXDB-1439
p995
aVASTERIXDB-1438
p996
aVASTERIXDB-1437
p997
aVASTERIXDB-1436
p998
aVASTERIXDB-1435
p999
aVASTERIXDB-1434
p1000
aVASTERIXDB-1433
p1001
aVASTERIXDB-1432
p1002
aVASTERIXDB-1431
p1003
aVASTERIXDB-1430
p1004
aVASTERIXDB-1429
p1005
aVASTERIXDB-1428
p1006
aVASTERIXDB-1427
p1007
aVASTERIXDB-1426
p1008
aVASTERIXDB-1425
p1009
aVASTERIXDB-1424
p1010
aVASTERIXDB-1423
p1011
aVASTERIXDB-1422
p1012
aVASTERIXDB-1421
p1013
aVASTERIXDB-1420
p1014
aVASTERIXDB-1419
p1015
aVASTERIXDB-1418
p1016
aVASTERIXDB-1417
p1017
aVASTERIXDB-1416
p1018
aVASTERIXDB-1415
p1019
aVASTERIXDB-1414
p1020
aVASTERIXDB-1413
p1021
aVASTERIXDB-1412
p1022
aVASTERIXDB-1411
p1023
aVASTERIXDB-1410
p1024
aVASTERIXDB-1409
p1025
aVASTERIXDB-1408
p1026
aVASTERIXDB-1407
p1027
aVASTERIXDB-1406
p1028
aVASTERIXDB-1405
p1029
aVASTERIXDB-1404
p1030
aVASTERIXDB-1403
p1031
aVASTERIXDB-1402
p1032
aVASTERIXDB-1401
p1033
aVASTERIXDB-1400
p1034
aVASTERIXDB-1399
p1035
aVASTERIXDB-1398
p1036
aVASTERIXDB-1397
p1037
aVASTERIXDB-1396
p1038
aVASTERIXDB-1395
p1039
aVASTERIXDB-1394
p1040
aVASTERIXDB-1393
p1041
aVASTERIXDB-1392
p1042
aVASTERIXDB-1391
p1043
aVASTERIXDB-1390
p1044
aVASTERIXDB-1389
p1045
aVASTERIXDB-1388
p1046
aVASTERIXDB-1387
p1047
aVASTERIXDB-1386
p1048
aVASTERIXDB-1385
p1049
aVASTERIXDB-1384
p1050
aVASTERIXDB-1383
p1051
aVASTERIXDB-1382
p1052
aVASTERIXDB-1381
p1053
aVASTERIXDB-1380
p1054
aVASTERIXDB-1379
p1055
aVASTERIXDB-1378
p1056
aVASTERIXDB-1377
p1057
aVASTERIXDB-1376
p1058
aVASTERIXDB-1375
p1059
aVASTERIXDB-1374
p1060
aVASTERIXDB-1373
p1061
aVASTERIXDB-1372
p1062
aVASTERIXDB-1371
p1063
aVASTERIXDB-1370
p1064
aVASTERIXDB-1369
p1065
aVASTERIXDB-1368
p1066
aVASTERIXDB-1367
p1067
aVASTERIXDB-1366
p1068
aVASTERIXDB-1365
p1069
aVASTERIXDB-1364
p1070
aVASTERIXDB-1363
p1071
aVASTERIXDB-1362
p1072
aVASTERIXDB-1361
p1073
aVASTERIXDB-1360
p1074
aVASTERIXDB-1359
p1075
aVASTERIXDB-1358
p1076
aVASTERIXDB-1357
p1077
aVASTERIXDB-1356
p1078
aVASTERIXDB-1355
p1079
aVASTERIXDB-1354
p1080
aVASTERIXDB-1353
p1081
aVASTERIXDB-1352
p1082
aVASTERIXDB-1351
p1083
aVASTERIXDB-1350
p1084
aVASTERIXDB-1349
p1085
aVASTERIXDB-1348
p1086
aVASTERIXDB-1347
p1087
aVASTERIXDB-1346
p1088
aVASTERIXDB-1345
p1089
aVASTERIXDB-1344
p1090
aVASTERIXDB-1343
p1091
aVASTERIXDB-1342
p1092
aVASTERIXDB-1341
p1093
aVASTERIXDB-1340
p1094
aVASTERIXDB-1339
p1095
aVASTERIXDB-1338
p1096
aVASTERIXDB-1337
p1097
aVASTERIXDB-1336
p1098
aVASTERIXDB-1335
p1099
aVASTERIXDB-1334
p1100
aVASTERIXDB-1333
p1101
aVASTERIXDB-1332
p1102
aVASTERIXDB-1331
p1103
aVASTERIXDB-1330
p1104
aVASTERIXDB-1329
p1105
aVASTERIXDB-1328
p1106
aVASTERIXDB-1327
p1107
aVASTERIXDB-1326
p1108
aVASTERIXDB-1325
p1109
aVASTERIXDB-1324
p1110
aVASTERIXDB-1323
p1111
aVASTERIXDB-1322
p1112
aVASTERIXDB-1321
p1113
aVASTERIXDB-1320
p1114
aVASTERIXDB-1319
p1115
aVASTERIXDB-1318
p1116
aVASTERIXDB-1317
p1117
aVASTERIXDB-1316
p1118
aVASTERIXDB-1315
p1119
aVASTERIXDB-1314
p1120
aVASTERIXDB-1313
p1121
aVASTERIXDB-1312
p1122
aVASTERIXDB-1311
p1123
aVASTERIXDB-1310
p1124
aVASTERIXDB-1309
p1125
aVASTERIXDB-1308
p1126
aVASTERIXDB-1307
p1127
aVASTERIXDB-1306
p1128
aVASTERIXDB-1305
p1129
aVASTERIXDB-1304
p1130
aVASTERIXDB-1303
p1131
aVASTERIXDB-1302
p1132
aVASTERIXDB-1301
p1133
aVASTERIXDB-1300
p1134
aVASTERIXDB-1299
p1135
aVASTERIXDB-1298
p1136
aVASTERIXDB-1297
p1137
aVASTERIXDB-1296
p1138
aVASTERIXDB-1295
p1139
aVASTERIXDB-1294
p1140
aVASTERIXDB-1293
p1141
aVASTERIXDB-1292
p1142
aVASTERIXDB-1291
p1143
aVASTERIXDB-1290
p1144
aVASTERIXDB-1289
p1145
aVASTERIXDB-1288
p1146
aVASTERIXDB-1287
p1147
aVASTERIXDB-1286
p1148
aVASTERIXDB-1285
p1149
aVASTERIXDB-1284
p1150
aVASTERIXDB-1283
p1151
aVASTERIXDB-1282
p1152
aVASTERIXDB-1281
p1153
aVASTERIXDB-1280
p1154
aVASTERIXDB-1279
p1155
aVASTERIXDB-1278
p1156
aVASTERIXDB-1277
p1157
aVASTERIXDB-1276
p1158
aVASTERIXDB-1275
p1159
aVASTERIXDB-1274
p1160
aVASTERIXDB-1273
p1161
aVASTERIXDB-1272
p1162
aVASTERIXDB-1271
p1163
aVASTERIXDB-1270
p1164
aVASTERIXDB-1269
p1165
aVASTERIXDB-1268
p1166
aVASTERIXDB-1267
p1167
aVASTERIXDB-1266
p1168
aVASTERIXDB-1265
p1169
aVASTERIXDB-1264
p1170
aVASTERIXDB-1263
p1171
aVASTERIXDB-1262
p1172
aVASTERIXDB-1261
p1173
aVASTERIXDB-1260
p1174
aVASTERIXDB-1259
p1175
aVASTERIXDB-1258
p1176
aVASTERIXDB-1257
p1177
aVASTERIXDB-1256
p1178
aVASTERIXDB-1255
p1179
aVASTERIXDB-1254
p1180
aVASTERIXDB-1253
p1181
aVASTERIXDB-1252
p1182
aVASTERIXDB-1251
p1183
aVASTERIXDB-1250
p1184
aVASTERIXDB-1249
p1185
aVASTERIXDB-1248
p1186
aVASTERIXDB-1247
p1187
aVASTERIXDB-1246
p1188
aVASTERIXDB-1245
p1189
aVASTERIXDB-1244
p1190
aVASTERIXDB-1243
p1191
aVASTERIXDB-1242
p1192
aVASTERIXDB-1241
p1193
aVASTERIXDB-1240
p1194
aVASTERIXDB-1239
p1195
aVASTERIXDB-1238
p1196
aVASTERIXDB-1237
p1197
aVASTERIXDB-1236
p1198
aVASTERIXDB-1235
p1199
aVASTERIXDB-1234
p1200
aVASTERIXDB-1233
p1201
aVASTERIXDB-1232
p1202
aVASTERIXDB-1231
p1203
aVASTERIXDB-1230
p1204
aVASTERIXDB-1229
p1205
aVASTERIXDB-1228
p1206
aVASTERIXDB-1227
p1207
aVASTERIXDB-1226
p1208
aVASTERIXDB-1225
p1209
aVASTERIXDB-1224
p1210
aVASTERIXDB-1223
p1211
aVASTERIXDB-1222
p1212
aVASTERIXDB-1221
p1213
aVASTERIXDB-1220
p1214
aVASTERIXDB-1219
p1215
aVASTERIXDB-1218
p1216
aVASTERIXDB-1217
p1217
aVASTERIXDB-1216
p1218
aVASTERIXDB-1215
p1219
aVASTERIXDB-1214
p1220
aVASTERIXDB-1213
p1221
aVASTERIXDB-1212
p1222
aVASTERIXDB-1211
p1223
aVASTERIXDB-1210
p1224
aVASTERIXDB-1209
p1225
aVASTERIXDB-1208
p1226
aVASTERIXDB-1207
p1227
aVASTERIXDB-1206
p1228
aVASTERIXDB-1205
p1229
aVASTERIXDB-1204
p1230
aVASTERIXDB-1203
p1231
aVASTERIXDB-1202
p1232
aVASTERIXDB-1201
p1233
aVASTERIXDB-1200
p1234
aVASTERIXDB-1199
p1235
aVASTERIXDB-1198
p1236
aVASTERIXDB-1197
p1237
aVASTERIXDB-1196
p1238
aVASTERIXDB-1195
p1239
aVASTERIXDB-1194
p1240
aVASTERIXDB-1193
p1241
aVASTERIXDB-1192
p1242
aVASTERIXDB-1191
p1243
aVASTERIXDB-1190
p1244
aVASTERIXDB-1189
p1245
aVASTERIXDB-1188
p1246
aVASTERIXDB-1187
p1247
aVASTERIXDB-1186
p1248
aVASTERIXDB-1185
p1249
aVASTERIXDB-1184
p1250
aVASTERIXDB-1183
p1251
aVASTERIXDB-1182
p1252
aVASTERIXDB-1181
p1253
aVASTERIXDB-1180
p1254
aVASTERIXDB-1179
p1255
aVASTERIXDB-1178
p1256
aVASTERIXDB-1177
p1257
aVASTERIXDB-1176
p1258
aVASTERIXDB-1175
p1259
aVASTERIXDB-1174
p1260
aVASTERIXDB-1173
p1261
aVASTERIXDB-1172
p1262
aVASTERIXDB-1171
p1263
aVASTERIXDB-1170
p1264
aVASTERIXDB-1169
p1265
aVASTERIXDB-1168
p1266
aVASTERIXDB-1167
p1267
aVASTERIXDB-1166
p1268
aVASTERIXDB-1165
p1269
aVASTERIXDB-1164
p1270
aVASTERIXDB-1163
p1271
aVASTERIXDB-1162
p1272
aVASTERIXDB-1161
p1273
aVASTERIXDB-1160
p1274
aVASTERIXDB-1159
p1275
aVASTERIXDB-1158
p1276
aVASTERIXDB-1157
p1277
aVASTERIXDB-1156
p1278
aVASTERIXDB-1155
p1279
aVASTERIXDB-1154
p1280
aVASTERIXDB-1153
p1281
aVASTERIXDB-1152
p1282
aVASTERIXDB-1151
p1283
aVASTERIXDB-1150
p1284
aVASTERIXDB-1149
p1285
aVASTERIXDB-1148
p1286
aVASTERIXDB-1147
p1287
aVASTERIXDB-1146
p1288
aVASTERIXDB-1145
p1289
aVASTERIXDB-1144
p1290
aVASTERIXDB-1143
p1291
aVASTERIXDB-1142
p1292
aVASTERIXDB-1141
p1293
aVASTERIXDB-1140
p1294
aVASTERIXDB-1139
p1295
aVASTERIXDB-1138
p1296
aVASTERIXDB-1137
p1297
aVASTERIXDB-1136
p1298
aVASTERIXDB-1135
p1299
aVASTERIXDB-1134
p1300
aVASTERIXDB-1133
p1301
aVASTERIXDB-1132
p1302
aVASTERIXDB-1131
p1303
aVASTERIXDB-1130
p1304
aVASTERIXDB-1129
p1305
aVASTERIXDB-1128
p1306
aVASTERIXDB-1127
p1307
aVASTERIXDB-1126
p1308
aVASTERIXDB-1125
p1309
aVASTERIXDB-1124
p1310
aVASTERIXDB-1123
p1311
aVASTERIXDB-1122
p1312
aVASTERIXDB-1121
p1313
aVASTERIXDB-1120
p1314
aVASTERIXDB-1119
p1315
aVASTERIXDB-1118
p1316
aVASTERIXDB-1117
p1317
aVASTERIXDB-1116
p1318
aVASTERIXDB-1115
p1319
aVASTERIXDB-1114
p1320
aVASTERIXDB-1113
p1321
aVASTERIXDB-1112
p1322
aVASTERIXDB-1111
p1323
aVASTERIXDB-1110
p1324
aVASTERIXDB-1109
p1325
aVASTERIXDB-1108
p1326
aVASTERIXDB-1107
p1327
aVASTERIXDB-1106
p1328
aVASTERIXDB-1105
p1329
aVASTERIXDB-1104
p1330
aVASTERIXDB-1103
p1331
aVASTERIXDB-1102
p1332
aVASTERIXDB-1101
p1333
aVASTERIXDB-1100
p1334
aVASTERIXDB-1099
p1335
aVASTERIXDB-1098
p1336
aVASTERIXDB-1097
p1337
aVASTERIXDB-1096
p1338
aVASTERIXDB-1095
p1339
aVASTERIXDB-1094
p1340
aVASTERIXDB-1093
p1341
aVASTERIXDB-1092
p1342
aVASTERIXDB-1091
p1343
aVASTERIXDB-1090
p1344
aVASTERIXDB-1089
p1345
aVASTERIXDB-1088
p1346
aVASTERIXDB-1087
p1347
aVASTERIXDB-1086
p1348
aVASTERIXDB-1085
p1349
aVASTERIXDB-1084
p1350
aVASTERIXDB-1083
p1351
aVASTERIXDB-1082
p1352
aVASTERIXDB-1081
p1353
aVASTERIXDB-1080
p1354
aVASTERIXDB-1079
p1355
aVASTERIXDB-1078
p1356
aVASTERIXDB-1077
p1357
aVASTERIXDB-1076
p1358
aVASTERIXDB-1075
p1359
aVASTERIXDB-1074
p1360
aVASTERIXDB-1073
p1361
aVASTERIXDB-1072
p1362
aVASTERIXDB-1071
p1363
aVASTERIXDB-1070
p1364
aVASTERIXDB-1069
p1365
aVASTERIXDB-1068
p1366
aVASTERIXDB-1067
p1367
aVASTERIXDB-1066
p1368
aVASTERIXDB-1065
p1369
aVASTERIXDB-1064
p1370
aVASTERIXDB-1063
p1371
aVASTERIXDB-1062
p1372
aVASTERIXDB-1061
p1373
aVASTERIXDB-1060
p1374
aVASTERIXDB-1059
p1375
aVASTERIXDB-1058
p1376
aVASTERIXDB-1057
p1377
aVASTERIXDB-1056
p1378
aVASTERIXDB-1055
p1379
aVASTERIXDB-1054
p1380
aVASTERIXDB-1053
p1381
aVASTERIXDB-1052
p1382
aVASTERIXDB-1051
p1383
aVASTERIXDB-1050
p1384
aVASTERIXDB-1049
p1385
aVASTERIXDB-1048
p1386
aVASTERIXDB-1047
p1387
aVASTERIXDB-1046
p1388
aVASTERIXDB-1045
p1389
aVASTERIXDB-1044
p1390
aVASTERIXDB-1043
p1391
aVASTERIXDB-1042
p1392
aVASTERIXDB-1041
p1393
aVASTERIXDB-1040
p1394
aVASTERIXDB-1039
p1395
aVASTERIXDB-1038
p1396
aVASTERIXDB-1037
p1397
aVASTERIXDB-1036
p1398
aVASTERIXDB-1035
p1399
aVASTERIXDB-1034
p1400
aVASTERIXDB-1033
p1401
aVASTERIXDB-1032
p1402
aVASTERIXDB-1031
p1403
aVASTERIXDB-1030
p1404
aVASTERIXDB-1029
p1405
aVASTERIXDB-1028
p1406
aVASTERIXDB-1027
p1407
aVASTERIXDB-1026
p1408
aVASTERIXDB-1025
p1409
aVASTERIXDB-1024
p1410
aVASTERIXDB-1023
p1411
aVASTERIXDB-1022
p1412
aVASTERIXDB-1021
p1413
aVASTERIXDB-1020
p1414
aVASTERIXDB-1019
p1415
aVASTERIXDB-1018
p1416
aVASTERIXDB-1017
p1417
aVASTERIXDB-1016
p1418
aVASTERIXDB-1015
p1419
aVASTERIXDB-1014
p1420
aVASTERIXDB-1013
p1421
aVASTERIXDB-1012
p1422
aVASTERIXDB-1011
p1423
aVASTERIXDB-1010
p1424
aVASTERIXDB-1009
p1425
aVASTERIXDB-1008
p1426
aVASTERIXDB-1007
p1427
aVASTERIXDB-1006
p1428
aVASTERIXDB-1005
p1429
aVASTERIXDB-1004
p1430
aVASTERIXDB-1003
p1431
aVASTERIXDB-1002
p1432
aVASTERIXDB-1001
p1433
aVASTERIXDB-1000
p1434
aVASTERIXDB-999
p1435
aVASTERIXDB-998
p1436
aVASTERIXDB-997
p1437
aVASTERIXDB-996
p1438
aVASTERIXDB-995
p1439
aVASTERIXDB-994
p1440
aVASTERIXDB-993
p1441
aVASTERIXDB-992
p1442
aVASTERIXDB-991
p1443
aVASTERIXDB-990
p1444
aVASTERIXDB-989
p1445
aVASTERIXDB-988
p1446
aVASTERIXDB-987
p1447
aVASTERIXDB-986
p1448
aVASTERIXDB-985
p1449
aVASTERIXDB-984
p1450
aVASTERIXDB-983
p1451
aVASTERIXDB-982
p1452
aVASTERIXDB-981
p1453
aVASTERIXDB-980
p1454
aVASTERIXDB-979
p1455
aVASTERIXDB-978
p1456
aVASTERIXDB-977
p1457
aVASTERIXDB-976
p1458
aVASTERIXDB-975
p1459
aVASTERIXDB-974
p1460
aVASTERIXDB-973
p1461
aVASTERIXDB-972
p1462
aVASTERIXDB-971
p1463
aVASTERIXDB-970
p1464
aVASTERIXDB-969
p1465
aVASTERIXDB-968
p1466
aVASTERIXDB-967
p1467
aVASTERIXDB-966
p1468
aVASTERIXDB-965
p1469
aVASTERIXDB-964
p1470
aVASTERIXDB-963
p1471
aVASTERIXDB-962
p1472
aVASTERIXDB-961
p1473
aVASTERIXDB-960
p1474
aVASTERIXDB-959
p1475
aVASTERIXDB-958
p1476
aVASTERIXDB-957
p1477
aVASTERIXDB-956
p1478
aVASTERIXDB-955
p1479
aVASTERIXDB-954
p1480
aVASTERIXDB-953
p1481
aVASTERIXDB-952
p1482
aVASTERIXDB-951
p1483
aVASTERIXDB-950
p1484
aVASTERIXDB-949
p1485
aVASTERIXDB-948
p1486
aVASTERIXDB-947
p1487
aVASTERIXDB-946
p1488
aVASTERIXDB-945
p1489
aVASTERIXDB-944
p1490
aVASTERIXDB-943
p1491
aVASTERIXDB-942
p1492
aVASTERIXDB-941
p1493
aVASTERIXDB-940
p1494
aVASTERIXDB-939
p1495
aVASTERIXDB-938
p1496
aVASTERIXDB-937
p1497
aVASTERIXDB-936
p1498
aVASTERIXDB-935
p1499
aVASTERIXDB-934
p1500
aVASTERIXDB-933
p1501
aVASTERIXDB-932
p1502
aVASTERIXDB-931
p1503
aVASTERIXDB-930
p1504
aVASTERIXDB-929
p1505
aVASTERIXDB-928
p1506
aVASTERIXDB-927
p1507
aVASTERIXDB-926
p1508
aVASTERIXDB-925
p1509
aVASTERIXDB-924
p1510
aVASTERIXDB-923
p1511
aVASTERIXDB-922
p1512
aVASTERIXDB-921
p1513
aVASTERIXDB-920
p1514
aVASTERIXDB-919
p1515
aVASTERIXDB-918
p1516
aVASTERIXDB-917
p1517
aVASTERIXDB-916
p1518
aVASTERIXDB-915
p1519
aVASTERIXDB-914
p1520
aVASTERIXDB-913
p1521
aVASTERIXDB-912
p1522
aVASTERIXDB-911
p1523
aVASTERIXDB-910
p1524
aVASTERIXDB-909
p1525
aVASTERIXDB-908
p1526
aVASTERIXDB-907
p1527
aVASTERIXDB-906
p1528
aVASTERIXDB-905
p1529
aVASTERIXDB-904
p1530
aVASTERIXDB-903
p1531
aVASTERIXDB-902
p1532
aVASTERIXDB-901
p1533
aVASTERIXDB-900
p1534
aVASTERIXDB-899
p1535
aVASTERIXDB-898
p1536
aVASTERIXDB-897
p1537
aVASTERIXDB-896
p1538
aVASTERIXDB-895
p1539
aVASTERIXDB-894
p1540
aVASTERIXDB-893
p1541
aVASTERIXDB-892
p1542
aVASTERIXDB-891
p1543
aVASTERIXDB-890
p1544
aVASTERIXDB-889
p1545
aVASTERIXDB-888
p1546
aVASTERIXDB-887
p1547
aVASTERIXDB-886
p1548
aVASTERIXDB-885
p1549
aVASTERIXDB-884
p1550
aVASTERIXDB-883
p1551
aVASTERIXDB-882
p1552
aVASTERIXDB-881
p1553
aVASTERIXDB-880
p1554
aVASTERIXDB-879
p1555
aVASTERIXDB-878
p1556
aVASTERIXDB-877
p1557
aVASTERIXDB-876
p1558
aVASTERIXDB-875
p1559
aVASTERIXDB-874
p1560
aVASTERIXDB-873
p1561
aVASTERIXDB-872
p1562
aVASTERIXDB-871
p1563
aVASTERIXDB-870
p1564
aVASTERIXDB-869
p1565
aVASTERIXDB-868
p1566
aVASTERIXDB-867
p1567
aVASTERIXDB-866
p1568
aVASTERIXDB-865
p1569
aVASTERIXDB-864
p1570
aVASTERIXDB-863
p1571
aVASTERIXDB-862
p1572
aVASTERIXDB-861
p1573
aVASTERIXDB-860
p1574
aVASTERIXDB-859
p1575
aVASTERIXDB-858
p1576
aVASTERIXDB-857
p1577
aVASTERIXDB-856
p1578
aVASTERIXDB-855
p1579
aVASTERIXDB-854
p1580
aVASTERIXDB-853
p1581
aVASTERIXDB-852
p1582
aVASTERIXDB-851
p1583
aVASTERIXDB-850
p1584
aVASTERIXDB-849
p1585
aVASTERIXDB-848
p1586
aVASTERIXDB-847
p1587
aVASTERIXDB-846
p1588
aVASTERIXDB-845
p1589
aVASTERIXDB-844
p1590
aVASTERIXDB-843
p1591
aVASTERIXDB-842
p1592
aVASTERIXDB-841
p1593
aVASTERIXDB-840
p1594
aVASTERIXDB-839
p1595
aVASTERIXDB-838
p1596
aVASTERIXDB-837
p1597
aVASTERIXDB-836
p1598
aVASTERIXDB-835
p1599
aVASTERIXDB-834
p1600
aVASTERIXDB-833
p1601
aVASTERIXDB-832
p1602
aVASTERIXDB-831
p1603
aVASTERIXDB-830
p1604
aVASTERIXDB-829
p1605
aVASTERIXDB-828
p1606
aVASTERIXDB-827
p1607
aVASTERIXDB-826
p1608
aVASTERIXDB-825
p1609
aVASTERIXDB-824
p1610
aVASTERIXDB-823
p1611
aVASTERIXDB-822
p1612
aVASTERIXDB-821
p1613
aVASTERIXDB-820
p1614
aVASTERIXDB-819
p1615
aVASTERIXDB-818
p1616
aVASTERIXDB-817
p1617
aVASTERIXDB-816
p1618
aVASTERIXDB-815
p1619
aVASTERIXDB-814
p1620
aVASTERIXDB-813
p1621
aVASTERIXDB-812
p1622
aVASTERIXDB-811
p1623
aVASTERIXDB-810
p1624
aVASTERIXDB-809
p1625
aVASTERIXDB-808
p1626
aVASTERIXDB-807
p1627
aVASTERIXDB-806
p1628
aVASTERIXDB-805
p1629
aVASTERIXDB-804
p1630
aVASTERIXDB-803
p1631
aVASTERIXDB-802
p1632
aVASTERIXDB-801
p1633
aVASTERIXDB-800
p1634
aVASTERIXDB-799
p1635
aVASTERIXDB-798
p1636
aVASTERIXDB-797
p1637
aVASTERIXDB-796
p1638
aVASTERIXDB-795
p1639
aVASTERIXDB-794
p1640
aVASTERIXDB-793
p1641
aVASTERIXDB-792
p1642
aVASTERIXDB-791
p1643
aVASTERIXDB-790
p1644
aVASTERIXDB-789
p1645
aVASTERIXDB-788
p1646
aVASTERIXDB-787
p1647
aVASTERIXDB-786
p1648
aVASTERIXDB-785
p1649
aVASTERIXDB-784
p1650
aVASTERIXDB-783
p1651
aVASTERIXDB-782
p1652
aVASTERIXDB-781
p1653
aVASTERIXDB-780
p1654
aVASTERIXDB-779
p1655
aVASTERIXDB-778
p1656
aVASTERIXDB-777
p1657
aVASTERIXDB-776
p1658
aVASTERIXDB-775
p1659
aVASTERIXDB-774
p1660
aVASTERIXDB-773
p1661
aVASTERIXDB-772
p1662
aVASTERIXDB-771
p1663
aVASTERIXDB-770
p1664
aVASTERIXDB-769
p1665
aVASTERIXDB-768
p1666
aVASTERIXDB-767
p1667
aVASTERIXDB-766
p1668
aVASTERIXDB-765
p1669
aVASTERIXDB-764
p1670
aVASTERIXDB-763
p1671
aVASTERIXDB-762
p1672
aVASTERIXDB-761
p1673
aVASTERIXDB-760
p1674
aVASTERIXDB-759
p1675
aVASTERIXDB-758
p1676
aVASTERIXDB-757
p1677
aVASTERIXDB-756
p1678
aVASTERIXDB-755
p1679
aVASTERIXDB-754
p1680
aVASTERIXDB-753
p1681
aVASTERIXDB-752
p1682
aVASTERIXDB-751
p1683
aVASTERIXDB-750
p1684
aVASTERIXDB-749
p1685
aVASTERIXDB-748
p1686
aVASTERIXDB-747
p1687
aVASTERIXDB-746
p1688
aVASTERIXDB-745
p1689
aVASTERIXDB-744
p1690
aVASTERIXDB-743
p1691
aVASTERIXDB-742
p1692
aVASTERIXDB-741
p1693
aVASTERIXDB-740
p1694
aVASTERIXDB-739
p1695
aVASTERIXDB-738
p1696
aVASTERIXDB-737
p1697
aVASTERIXDB-736
p1698
aVASTERIXDB-735
p1699
aVASTERIXDB-734
p1700
aVASTERIXDB-733
p1701
aVASTERIXDB-732
p1702
aVASTERIXDB-731
p1703
aVASTERIXDB-730
p1704
aVASTERIXDB-729
p1705
aVASTERIXDB-728
p1706
aVASTERIXDB-727
p1707
aVASTERIXDB-726
p1708
aVASTERIXDB-725
p1709
aVASTERIXDB-724
p1710
aVASTERIXDB-723
p1711
aVASTERIXDB-722
p1712
aVASTERIXDB-721
p1713
aVASTERIXDB-720
p1714
aVASTERIXDB-719
p1715
aVASTERIXDB-718
p1716
aVASTERIXDB-717
p1717
aVASTERIXDB-716
p1718
aVASTERIXDB-715
p1719
aVASTERIXDB-714
p1720
aVASTERIXDB-713
p1721
aVASTERIXDB-712
p1722
aVASTERIXDB-711
p1723
aVASTERIXDB-710
p1724
aVASTERIXDB-709
p1725
aVASTERIXDB-708
p1726
aVASTERIXDB-707
p1727
aVASTERIXDB-706
p1728
aVASTERIXDB-705
p1729
aVASTERIXDB-704
p1730
aVASTERIXDB-703
p1731
aVASTERIXDB-702
p1732
aVASTERIXDB-701
p1733
aVASTERIXDB-700
p1734
aVASTERIXDB-699
p1735
aVASTERIXDB-698
p1736
aVASTERIXDB-697
p1737
aVASTERIXDB-696
p1738
aVASTERIXDB-695
p1739
aVASTERIXDB-694
p1740
aVASTERIXDB-693
p1741
aVASTERIXDB-692
p1742
aVASTERIXDB-691
p1743
aVASTERIXDB-690
p1744
aVASTERIXDB-689
p1745
aVASTERIXDB-688
p1746
aVASTERIXDB-687
p1747
aVASTERIXDB-686
p1748
aVASTERIXDB-685
p1749
aVASTERIXDB-684
p1750
aVASTERIXDB-683
p1751
aVASTERIXDB-682
p1752
aVASTERIXDB-681
p1753
aVASTERIXDB-680
p1754
aVASTERIXDB-679
p1755
aVASTERIXDB-678
p1756
aVASTERIXDB-677
p1757
aVASTERIXDB-676
p1758
aVASTERIXDB-675
p1759
aVASTERIXDB-674
p1760
aVASTERIXDB-673
p1761
aVASTERIXDB-672
p1762
aVASTERIXDB-671
p1763
aVASTERIXDB-670
p1764
aVASTERIXDB-669
p1765
aVASTERIXDB-668
p1766
aVASTERIXDB-667
p1767
aVASTERIXDB-666
p1768
aVASTERIXDB-665
p1769
aVASTERIXDB-664
p1770
aVASTERIXDB-663
p1771
aVASTERIXDB-662
p1772
aVASTERIXDB-661
p1773
aVASTERIXDB-660
p1774
aVASTERIXDB-659
p1775
aVASTERIXDB-658
p1776
aVASTERIXDB-657
p1777
aVASTERIXDB-656
p1778
aVASTERIXDB-655
p1779
aVASTERIXDB-654
p1780
aVASTERIXDB-653
p1781
aVASTERIXDB-652
p1782
aVASTERIXDB-651
p1783
aVASTERIXDB-650
p1784
aVASTERIXDB-649
p1785
aVASTERIXDB-648
p1786
aVASTERIXDB-647
p1787
aVASTERIXDB-646
p1788
aVASTERIXDB-645
p1789
aVASTERIXDB-644
p1790
aVASTERIXDB-643
p1791
aVASTERIXDB-642
p1792
aVASTERIXDB-641
p1793
aVASTERIXDB-640
p1794
aVASTERIXDB-639
p1795
aVASTERIXDB-638
p1796
aVASTERIXDB-637
p1797
aVASTERIXDB-636
p1798
aVASTERIXDB-635
p1799
aVASTERIXDB-634
p1800
aVASTERIXDB-633
p1801
aVASTERIXDB-632
p1802
aVASTERIXDB-631
p1803
aVASTERIXDB-630
p1804
aVASTERIXDB-629
p1805
aVASTERIXDB-628
p1806
aVASTERIXDB-627
p1807
aVASTERIXDB-626
p1808
aVASTERIXDB-625
p1809
aVASTERIXDB-624
p1810
aVASTERIXDB-623
p1811
aVASTERIXDB-622
p1812
aVASTERIXDB-621
p1813
aVASTERIXDB-620
p1814
aVASTERIXDB-619
p1815
aVASTERIXDB-618
p1816
aVASTERIXDB-617
p1817
aVASTERIXDB-616
p1818
aVASTERIXDB-615
p1819
aVASTERIXDB-614
p1820
aVASTERIXDB-613
p1821
aVASTERIXDB-612
p1822
aVASTERIXDB-611
p1823
aVASTERIXDB-610
p1824
aVASTERIXDB-609
p1825
aVASTERIXDB-608
p1826
aVASTERIXDB-607
p1827
aVASTERIXDB-606
p1828
aVASTERIXDB-605
p1829
aVASTERIXDB-604
p1830
aVASTERIXDB-603
p1831
aVASTERIXDB-602
p1832
aVASTERIXDB-601
p1833
aVASTERIXDB-600
p1834
aVASTERIXDB-599
p1835
aVASTERIXDB-598
p1836
aVASTERIXDB-597
p1837
aVASTERIXDB-596
p1838
aVASTERIXDB-595
p1839
aVASTERIXDB-594
p1840
aVASTERIXDB-593
p1841
aVASTERIXDB-592
p1842
aVASTERIXDB-591
p1843
aVASTERIXDB-590
p1844
aVASTERIXDB-589
p1845
aVASTERIXDB-588
p1846
aVASTERIXDB-587
p1847
aVASTERIXDB-586
p1848
aVASTERIXDB-585
p1849
aVASTERIXDB-584
p1850
aVASTERIXDB-583
p1851
aVASTERIXDB-582
p1852
aVASTERIXDB-581
p1853
aVASTERIXDB-580
p1854
aVASTERIXDB-579
p1855
aVASTERIXDB-578
p1856
aVASTERIXDB-577
p1857
aVASTERIXDB-576
p1858
aVASTERIXDB-575
p1859
aVASTERIXDB-574
p1860
aVASTERIXDB-573
p1861
aVASTERIXDB-572
p1862
aVASTERIXDB-571
p1863
aVASTERIXDB-570
p1864
aVASTERIXDB-569
p1865
aVASTERIXDB-568
p1866
aVASTERIXDB-567
p1867
aVASTERIXDB-566
p1868
aVASTERIXDB-565
p1869
aVASTERIXDB-564
p1870
aVASTERIXDB-563
p1871
aVASTERIXDB-562
p1872
aVASTERIXDB-561
p1873
aVASTERIXDB-560
p1874
aVASTERIXDB-559
p1875
aVASTERIXDB-558
p1876
aVASTERIXDB-557
p1877
aVASTERIXDB-556
p1878
aVASTERIXDB-555
p1879
aVASTERIXDB-554
p1880
aVASTERIXDB-553
p1881
aVASTERIXDB-552
p1882
aVASTERIXDB-551
p1883
aVASTERIXDB-550
p1884
aVASTERIXDB-549
p1885
aVASTERIXDB-548
p1886
aVASTERIXDB-547
p1887
aVASTERIXDB-546
p1888
aVASTERIXDB-545
p1889
aVASTERIXDB-544
p1890
aVASTERIXDB-543
p1891
aVASTERIXDB-542
p1892
aVASTERIXDB-541
p1893
aVASTERIXDB-540
p1894
aVASTERIXDB-539
p1895
aVASTERIXDB-538
p1896
aVASTERIXDB-537
p1897
aVASTERIXDB-536
p1898
aVASTERIXDB-535
p1899
aVASTERIXDB-534
p1900
aVASTERIXDB-533
p1901
aVASTERIXDB-532
p1902
aVASTERIXDB-531
p1903
aVASTERIXDB-530
p1904
aVASTERIXDB-529
p1905
aVASTERIXDB-528
p1906
aVASTERIXDB-527
p1907
aVASTERIXDB-526
p1908
aVASTERIXDB-525
p1909
aVASTERIXDB-524
p1910
aVASTERIXDB-523
p1911
aVASTERIXDB-522
p1912
aVASTERIXDB-521
p1913
aVASTERIXDB-520
p1914
aVASTERIXDB-519
p1915
aVASTERIXDB-518
p1916
aVASTERIXDB-517
p1917
aVASTERIXDB-516
p1918
aVASTERIXDB-515
p1919
aVASTERIXDB-514
p1920
aVASTERIXDB-513
p1921
aVASTERIXDB-512
p1922
aVASTERIXDB-511
p1923
aVASTERIXDB-510
p1924
aVASTERIXDB-509
p1925
aVASTERIXDB-508
p1926
aVASTERIXDB-507
p1927
aVASTERIXDB-506
p1928
aVASTERIXDB-505
p1929
aVASTERIXDB-504
p1930
aVASTERIXDB-503
p1931
aVASTERIXDB-502
p1932
aVASTERIXDB-501
p1933
aVASTERIXDB-500
p1934
aVASTERIXDB-499
p1935
aVASTERIXDB-498
p1936
aVASTERIXDB-497
p1937
aVASTERIXDB-496
p1938
aVASTERIXDB-495
p1939
aVASTERIXDB-494
p1940
aVASTERIXDB-493
p1941
aVASTERIXDB-492
p1942
aVASTERIXDB-491
p1943
aVASTERIXDB-490
p1944
aVASTERIXDB-489
p1945
aVASTERIXDB-488
p1946
aVASTERIXDB-487
p1947
aVASTERIXDB-486
p1948
aVASTERIXDB-485
p1949
aVASTERIXDB-484
p1950
aVASTERIXDB-483
p1951
aVASTERIXDB-482
p1952
aVASTERIXDB-481
p1953
aVASTERIXDB-480
p1954
aVASTERIXDB-479
p1955
aVASTERIXDB-478
p1956
aVASTERIXDB-477
p1957
aVASTERIXDB-476
p1958
aVASTERIXDB-475
p1959
aVASTERIXDB-474
p1960
aVASTERIXDB-473
p1961
aVASTERIXDB-472
p1962
aVASTERIXDB-471
p1963
aVASTERIXDB-470
p1964
aVASTERIXDB-469
p1965
aVASTERIXDB-468
p1966
aVASTERIXDB-467
p1967
aVASTERIXDB-466
p1968
aVASTERIXDB-465
p1969
aVASTERIXDB-464
p1970
aVASTERIXDB-463
p1971
aVASTERIXDB-462
p1972
aVASTERIXDB-461
p1973
aVASTERIXDB-460
p1974
aVASTERIXDB-459
p1975
aVASTERIXDB-458
p1976
aVASTERIXDB-457
p1977
aVASTERIXDB-456
p1978
aVASTERIXDB-455
p1979
aVASTERIXDB-454
p1980
aVASTERIXDB-453
p1981
aVASTERIXDB-452
p1982
aVASTERIXDB-451
p1983
aVASTERIXDB-450
p1984
aVASTERIXDB-449
p1985
aVASTERIXDB-448
p1986
aVASTERIXDB-447
p1987
aVASTERIXDB-446
p1988
aVASTERIXDB-445
p1989
aVASTERIXDB-444
p1990
aVASTERIXDB-443
p1991
aVASTERIXDB-442
p1992
aVASTERIXDB-441
p1993
aVASTERIXDB-440
p1994
aVASTERIXDB-439
p1995
aVASTERIXDB-438
p1996
aVASTERIXDB-437
p1997
aVASTERIXDB-436
p1998
aVASTERIXDB-435
p1999
aVASTERIXDB-434
p2000
aVASTERIXDB-433
p2001
aVASTERIXDB-432
p2002
aVASTERIXDB-431
p2003
aVASTERIXDB-430
p2004
aVASTERIXDB-429
p2005
aVASTERIXDB-428
p2006
aVASTERIXDB-427
p2007
aVASTERIXDB-426
p2008
aVASTERIXDB-425
p2009
aVASTERIXDB-424
p2010
aVASTERIXDB-423
p2011
aVASTERIXDB-422
p2012
aVASTERIXDB-421
p2013
aVASTERIXDB-420
p2014
aVASTERIXDB-419
p2015
aVASTERIXDB-418
p2016
aVASTERIXDB-417
p2017
aVASTERIXDB-416
p2018
aVASTERIXDB-415
p2019
aVASTERIXDB-414
p2020
aVASTERIXDB-413
p2021
aVASTERIXDB-412
p2022
aVASTERIXDB-411
p2023
aVASTERIXDB-410
p2024
aVASTERIXDB-409
p2025
aVASTERIXDB-408
p2026
aVASTERIXDB-407
p2027
aVASTERIXDB-406
p2028
aVASTERIXDB-405
p2029
aVASTERIXDB-404
p2030
aVASTERIXDB-403
p2031
aVASTERIXDB-402
p2032
aVASTERIXDB-401
p2033
aVASTERIXDB-400
p2034
aVASTERIXDB-399
p2035
aVASTERIXDB-398
p2036
aVASTERIXDB-397
p2037
aVASTERIXDB-396
p2038
aVASTERIXDB-395
p2039
aVASTERIXDB-394
p2040
aVASTERIXDB-393
p2041
aVASTERIXDB-392
p2042
aVASTERIXDB-391
p2043
aVASTERIXDB-390
p2044
aVASTERIXDB-389
p2045
aVASTERIXDB-388
p2046
aVASTERIXDB-387
p2047
aVASTERIXDB-386
p2048
aVASTERIXDB-385
p2049
aVASTERIXDB-384
p2050
aVASTERIXDB-383
p2051
aVASTERIXDB-382
p2052
aVASTERIXDB-381
p2053
aVASTERIXDB-380
p2054
aVASTERIXDB-379
p2055
aVASTERIXDB-378
p2056
aVASTERIXDB-377
p2057
aVASTERIXDB-376
p2058
aVASTERIXDB-375
p2059
aVASTERIXDB-374
p2060
aVASTERIXDB-373
p2061
aVASTERIXDB-372
p2062
aVASTERIXDB-371
p2063
aVASTERIXDB-370
p2064
aVASTERIXDB-369
p2065
aVASTERIXDB-368
p2066
aVASTERIXDB-367
p2067
aVASTERIXDB-366
p2068
aVASTERIXDB-365
p2069
aVASTERIXDB-364
p2070
aVASTERIXDB-363
p2071
aVASTERIXDB-362
p2072
aVASTERIXDB-361
p2073
aVASTERIXDB-360
p2074
aVASTERIXDB-359
p2075
aVASTERIXDB-358
p2076
aVASTERIXDB-357
p2077
aVASTERIXDB-356
p2078
aVASTERIXDB-355
p2079
aVASTERIXDB-354
p2080
aVASTERIXDB-353
p2081
aVASTERIXDB-352
p2082
aVASTERIXDB-351
p2083
aVASTERIXDB-350
p2084
aVASTERIXDB-349
p2085
aVASTERIXDB-348
p2086
aVASTERIXDB-347
p2087
aVASTERIXDB-346
p2088
aVASTERIXDB-345
p2089
aVASTERIXDB-344
p2090
aVASTERIXDB-343
p2091
aVASTERIXDB-342
p2092
aVASTERIXDB-341
p2093
aVASTERIXDB-340
p2094
aVASTERIXDB-339
p2095
aVASTERIXDB-338
p2096
aVASTERIXDB-337
p2097
aVASTERIXDB-336
p2098
aVASTERIXDB-335
p2099
aVASTERIXDB-334
p2100
aVASTERIXDB-333
p2101
aVASTERIXDB-332
p2102
aVASTERIXDB-331
p2103
aVASTERIXDB-330
p2104
aVASTERIXDB-329
p2105
aVASTERIXDB-328
p2106
aVASTERIXDB-327
p2107
aVASTERIXDB-326
p2108
aVASTERIXDB-325
p2109
aVASTERIXDB-324
p2110
aVASTERIXDB-323
p2111
aVASTERIXDB-322
p2112
aVASTERIXDB-321
p2113
aVASTERIXDB-320
p2114
aVASTERIXDB-319
p2115
aVASTERIXDB-318
p2116
aVASTERIXDB-317
p2117
aVASTERIXDB-316
p2118
aVASTERIXDB-315
p2119
aVASTERIXDB-314
p2120
aVASTERIXDB-313
p2121
aVASTERIXDB-312
p2122
aVASTERIXDB-311
p2123
aVASTERIXDB-310
p2124
aVASTERIXDB-309
p2125
aVASTERIXDB-308
p2126
aVASTERIXDB-307
p2127
aVASTERIXDB-306
p2128
aVASTERIXDB-305
p2129
aVASTERIXDB-304
p2130
aVASTERIXDB-303
p2131
aVASTERIXDB-302
p2132
aVASTERIXDB-301
p2133
aVASTERIXDB-300
p2134
aVASTERIXDB-299
p2135
aVASTERIXDB-298
p2136
aVASTERIXDB-297
p2137
aVASTERIXDB-296
p2138
aVASTERIXDB-295
p2139
aVASTERIXDB-294
p2140
aVASTERIXDB-293
p2141
aVASTERIXDB-292
p2142
aVASTERIXDB-291
p2143
aVASTERIXDB-290
p2144
aVASTERIXDB-289
p2145
aVASTERIXDB-288
p2146
aVASTERIXDB-287
p2147
aVASTERIXDB-286
p2148
aVASTERIXDB-285
p2149
aVASTERIXDB-284
p2150
aVASTERIXDB-283
p2151
aVASTERIXDB-282
p2152
aVASTERIXDB-281
p2153
aVASTERIXDB-280
p2154
aVASTERIXDB-279
p2155
aVASTERIXDB-278
p2156
aVASTERIXDB-277
p2157
aVASTERIXDB-276
p2158
aVASTERIXDB-275
p2159
aVASTERIXDB-274
p2160
aVASTERIXDB-273
p2161
aVASTERIXDB-272
p2162
aVASTERIXDB-271
p2163
aVASTERIXDB-270
p2164
aVASTERIXDB-269
p2165
aVASTERIXDB-268
p2166
aVASTERIXDB-267
p2167
aVASTERIXDB-266
p2168
aVASTERIXDB-265
p2169
aVASTERIXDB-264
p2170
aVASTERIXDB-263
p2171
aVASTERIXDB-262
p2172
aVASTERIXDB-261
p2173
aVASTERIXDB-260
p2174
aVASTERIXDB-259
p2175
aVASTERIXDB-258
p2176
aVASTERIXDB-257
p2177
aVASTERIXDB-256
p2178
aVASTERIXDB-255
p2179
aVASTERIXDB-254
p2180
aVASTERIXDB-253
p2181
aVASTERIXDB-252
p2182
aVASTERIXDB-251
p2183
aVASTERIXDB-250
p2184
aVASTERIXDB-249
p2185
aVASTERIXDB-248
p2186
aVASTERIXDB-247
p2187
aVASTERIXDB-246
p2188
aVASTERIXDB-245
p2189
aVASTERIXDB-244
p2190
aVASTERIXDB-243
p2191
aVASTERIXDB-242
p2192
aVASTERIXDB-241
p2193
aVASTERIXDB-240
p2194
aVASTERIXDB-239
p2195
aVASTERIXDB-238
p2196
aVASTERIXDB-237
p2197
aVASTERIXDB-236
p2198
aVASTERIXDB-235
p2199
aVASTERIXDB-234
p2200
aVASTERIXDB-233
p2201
aVASTERIXDB-232
p2202
aVASTERIXDB-231
p2203
aVASTERIXDB-230
p2204
aVASTERIXDB-229
p2205
aVASTERIXDB-228
p2206
aVASTERIXDB-227
p2207
aVASTERIXDB-226
p2208
aVASTERIXDB-225
p2209
aVASTERIXDB-224
p2210
aVASTERIXDB-223
p2211
aVASTERIXDB-222
p2212
aVASTERIXDB-221
p2213
aVASTERIXDB-220
p2214
aVASTERIXDB-219
p2215
aVASTERIXDB-218
p2216
aVASTERIXDB-217
p2217
aVASTERIXDB-216
p2218
aVASTERIXDB-215
p2219
aVASTERIXDB-214
p2220
aVASTERIXDB-213
p2221
aVASTERIXDB-212
p2222
aVASTERIXDB-211
p2223
aVASTERIXDB-210
p2224
aVASTERIXDB-209
p2225
aVASTERIXDB-208
p2226
aVASTERIXDB-207
p2227
aVASTERIXDB-206
p2228
aVASTERIXDB-205
p2229
aVASTERIXDB-204
p2230
aVASTERIXDB-203
p2231
aVASTERIXDB-202
p2232
aVASTERIXDB-201
p2233
aVASTERIXDB-200
p2234
aVASTERIXDB-199
p2235
aVASTERIXDB-198
p2236
aVASTERIXDB-197
p2237
aVASTERIXDB-196
p2238
aVASTERIXDB-195
p2239
aVASTERIXDB-194
p2240
aVASTERIXDB-193
p2241
aVASTERIXDB-192
p2242
aVASTERIXDB-191
p2243
aVASTERIXDB-190
p2244
aVASTERIXDB-189
p2245
aVASTERIXDB-188
p2246
aVASTERIXDB-187
p2247
aVASTERIXDB-186
p2248
aVASTERIXDB-185
p2249
aVASTERIXDB-184
p2250
aVASTERIXDB-183
p2251
aVASTERIXDB-182
p2252
aVASTERIXDB-181
p2253
aVASTERIXDB-180
p2254
aVASTERIXDB-179
p2255
aVASTERIXDB-178
p2256
aVASTERIXDB-177
p2257
aVASTERIXDB-176
p2258
aVASTERIXDB-175
p2259
aVASTERIXDB-174
p2260
aVASTERIXDB-173
p2261
aVASTERIXDB-172
p2262
aVASTERIXDB-171
p2263
aVASTERIXDB-170
p2264
aVASTERIXDB-169
p2265
aVASTERIXDB-168
p2266
aVASTERIXDB-167
p2267
aVASTERIXDB-166
p2268
aVASTERIXDB-165
p2269
aVASTERIXDB-164
p2270
aVASTERIXDB-163
p2271
aVASTERIXDB-162
p2272
aVASTERIXDB-161
p2273
aVASTERIXDB-160
p2274
aVASTERIXDB-159
p2275
aVASTERIXDB-158
p2276
aVASTERIXDB-157
p2277
aVASTERIXDB-156
p2278
aVASTERIXDB-155
p2279
aVASTERIXDB-154
p2280
aVASTERIXDB-153
p2281
aVASTERIXDB-152
p2282
aVASTERIXDB-151
p2283
aVASTERIXDB-150
p2284
aVASTERIXDB-149
p2285
aVASTERIXDB-148
p2286
aVASTERIXDB-147
p2287
aVASTERIXDB-146
p2288
aVASTERIXDB-145
p2289
aVASTERIXDB-144
p2290
aVASTERIXDB-143
p2291
aVASTERIXDB-142
p2292
aVASTERIXDB-141
p2293
aVASTERIXDB-140
p2294
aVASTERIXDB-139
p2295
aVASTERIXDB-138
p2296
aVASTERIXDB-137
p2297
aVASTERIXDB-136
p2298
aVASTERIXDB-135
p2299
aVASTERIXDB-134
p2300
aVASTERIXDB-133
p2301
aVASTERIXDB-132
p2302
aVASTERIXDB-131
p2303
aVASTERIXDB-130
p2304
aVASTERIXDB-129
p2305
aVASTERIXDB-128
p2306
aVASTERIXDB-127
p2307
aVASTERIXDB-126
p2308
aVASTERIXDB-125
p2309
aVASTERIXDB-124
p2310
aVASTERIXDB-123
p2311
aVASTERIXDB-122
p2312
aVASTERIXDB-121
p2313
aVASTERIXDB-120
p2314
aVASTERIXDB-119
p2315
aVASTERIXDB-118
p2316
aVASTERIXDB-117
p2317
aVASTERIXDB-116
p2318
aVASTERIXDB-115
p2319
aVASTERIXDB-114
p2320
aVASTERIXDB-113
p2321
aVASTERIXDB-112
p2322
aVASTERIXDB-111
p2323
aVASTERIXDB-110
p2324
aVASTERIXDB-109
p2325
aVASTERIXDB-108
p2326
aVASTERIXDB-107
p2327
aVASTERIXDB-106
p2328
aVASTERIXDB-105
p2329
aVASTERIXDB-104
p2330
aVASTERIXDB-103
p2331
aVASTERIXDB-102
p2332
aVASTERIXDB-101
p2333
aVASTERIXDB-100
p2334
aVASTERIXDB-99
p2335
aVASTERIXDB-98
p2336
aVASTERIXDB-97
p2337
aVASTERIXDB-96
p2338
aVASTERIXDB-95
p2339
aVASTERIXDB-94
p2340
aVASTERIXDB-93
p2341
aVASTERIXDB-92
p2342
aVASTERIXDB-91
p2343
aVASTERIXDB-90
p2344
aVASTERIXDB-89
p2345
aVASTERIXDB-88
p2346
aVASTERIXDB-87
p2347
aVASTERIXDB-86
p2348
aVASTERIXDB-85
p2349
aVASTERIXDB-84
p2350
aVASTERIXDB-83
p2351
aVASTERIXDB-82
p2352
aVASTERIXDB-81
p2353
aVASTERIXDB-80
p2354
aVASTERIXDB-79
p2355
aVASTERIXDB-78
p2356
aVASTERIXDB-77
p2357
aVASTERIXDB-76
p2358
aVASTERIXDB-75
p2359
aVASTERIXDB-74
p2360
aVASTERIXDB-73
p2361
aVASTERIXDB-72
p2362
aVASTERIXDB-71
p2363
aVASTERIXDB-70
p2364
aVASTERIXDB-69
p2365
aVASTERIXDB-68
p2366
aVASTERIXDB-67
p2367
aVASTERIXDB-66
p2368
aVASTERIXDB-65
p2369
aVASTERIXDB-64
p2370
aVASTERIXDB-63
p2371
aVASTERIXDB-62
p2372
aVASTERIXDB-61
p2373
aVASTERIXDB-60
p2374
aVASTERIXDB-59
p2375
aVASTERIXDB-58
p2376
aVASTERIXDB-57
p2377
aVASTERIXDB-56
p2378
aVASTERIXDB-55
p2379
aVASTERIXDB-54
p2380
aVASTERIXDB-52
p2381
aVASTERIXDB-51
p2382
aVASTERIXDB-50
p2383
aVASTERIXDB-49
p2384
aVASTERIXDB-48
p2385
aVASTERIXDB-47
p2386
aVASTERIXDB-46
p2387
aVASTERIXDB-45
p2388
aVASTERIXDB-44
p2389
aVASTERIXDB-43
p2390
aVASTERIXDB-42
p2391
aVASTERIXDB-41
p2392
aVASTERIXDB-40
p2393
aVASTERIXDB-39
p2394
aVASTERIXDB-38
p2395
aVASTERIXDB-37
p2396
aVASTERIXDB-36
p2397
aVASTERIXDB-35
p2398
aVASTERIXDB-34
p2399
aVASTERIXDB-33
p2400
aVASTERIXDB-32
p2401
aVASTERIXDB-31
p2402
aVASTERIXDB-30
p2403
aVASTERIXDB-29
p2404
aVASTERIXDB-28
p2405
aVASTERIXDB-27
p2406
aVASTERIXDB-26
p2407
aVASTERIXDB-25
p2408
aVASTERIXDB-24
p2409
aVASTERIXDB-23
p2410
aVASTERIXDB-22
p2411
aVASTERIXDB-21
p2412
aVASTERIXDB-20
p2413
aVASTERIXDB-19
p2414
aVASTERIXDB-18
p2415
aVASTERIXDB-17
p2416
aVASTERIXDB-16
p2417
aVASTERIXDB-15
p2418
aVASTERIXDB-14
p2419
aVASTERIXDB-13
p2420
aVASTERIXDB-12
p2421
aVASTERIXDB-11
p2422
aVASTERIXDB-10
p2423
aVASTERIXDB-9
p2424
aVASTERIXDB-8
p2425
aVASTERIXDB-7
p2426
aVASTERIXDB-6
p2427
aVASTERIXDB-5
p2428
aVASTERIXDB-4
p2429
aVASTERIXDB-3
p2430
aVASTERIXDB-2
p2431
aVASTERIXDB-1
p2432
a.