(lp0
VAURORA-1993
p1
aVAURORA-1992
p2
aVAURORA-1991
p3
aVAURORA-1990
p4
aVAURORA-1989
p5
aVAURORA-1988
p6
aVAURORA-1987
p7
aVAURORA-1986
p8
aVAURORA-1985
p9
aVAURORA-1984
p10
aVAURORA-1983
p11
aVAURORA-1982
p12
aVAURORA-1981
p13
aVAURORA-1980
p14
aVAURORA-1979
p15
aVAURORA-1978
p16
aVAURORA-1977
p17
aVAURORA-1976
p18
aVAURORA-1975
p19
aVAURORA-1974
p20
aVAURORA-1973
p21
aVAURORA-1972
p22
aVAURORA-1971
p23
aVAURORA-1970
p24
aVAURORA-1969
p25
aVAURORA-1968
p26
aVAURORA-1967
p27
aVAURORA-1966
p28
aVAURORA-1965
p29
aVAURORA-1964
p30
aVAURORA-1963
p31
aVAURORA-1962
p32
aVAURORA-1961
p33
aVAURORA-1960
p34
aVAURORA-1959
p35
aVAURORA-1958
p36
aVAURORA-1957
p37
aVAURORA-1956
p38
aVAURORA-1955
p39
aVAURORA-1954
p40
aVAURORA-1953
p41
aVAURORA-1952
p42
aVAURORA-1951
p43
aVAURORA-1950
p44
aVAURORA-1949
p45
aVAURORA-1948
p46
aVAURORA-1947
p47
aVAURORA-1946
p48
aVAURORA-1945
p49
aVAURORA-1944
p50
aVAURORA-1943
p51
aVAURORA-1942
p52
aVAURORA-1941
p53
aVAURORA-1940
p54
aVAURORA-1939
p55
aVAURORA-1938
p56
aVAURORA-1937
p57
aVAURORA-1936
p58
aVAURORA-1935
p59
aVAURORA-1934
p60
aVAURORA-1933
p61
aVAURORA-1932
p62
aVAURORA-1931
p63
aVAURORA-1930
p64
aVAURORA-1929
p65
aVAURORA-1928
p66
aVAURORA-1927
p67
aVAURORA-1926
p68
aVAURORA-1925
p69
aVAURORA-1924
p70
aVAURORA-1923
p71
aVAURORA-1922
p72
aVAURORA-1921
p73
aVAURORA-1920
p74
aVAURORA-1919
p75
aVAURORA-1918
p76
aVAURORA-1917
p77
aVAURORA-1916
p78
aVAURORA-1915
p79
aVAURORA-1914
p80
aVAURORA-1913
p81
aVAURORA-1912
p82
aVAURORA-1911
p83
aVAURORA-1910
p84
aVAURORA-1909
p85
aVAURORA-1908
p86
aVAURORA-1907
p87
aVAURORA-1906
p88
aVAURORA-1905
p89
aVAURORA-1904
p90
aVAURORA-1903
p91
aVAURORA-1902
p92
aVAURORA-1901
p93
aVAURORA-1900
p94
aVAURORA-1899
p95
aVAURORA-1898
p96
aVAURORA-1897
p97
aVAURORA-1896
p98
aVAURORA-1895
p99
aVAURORA-1894
p100
aVAURORA-1893
p101
aVAURORA-1892
p102
aVAURORA-1891
p103
aVAURORA-1890
p104
aVAURORA-1889
p105
aVAURORA-1888
p106
aVAURORA-1887
p107
aVAURORA-1886
p108
aVAURORA-1885
p109
aVAURORA-1884
p110
aVAURORA-1883
p111
aVAURORA-1882
p112
aVAURORA-1881
p113
aVAURORA-1880
p114
aVAURORA-1879
p115
aVAURORA-1878
p116
aVAURORA-1877
p117
aVAURORA-1876
p118
aVAURORA-1875
p119
aVAURORA-1874
p120
aVAURORA-1873
p121
aVAURORA-1872
p122
aVAURORA-1871
p123
aVAURORA-1870
p124
aVAURORA-1869
p125
aVAURORA-1868
p126
aVAURORA-1867
p127
aVAURORA-1866
p128
aVAURORA-1865
p129
aVAURORA-1864
p130
aVAURORA-1863
p131
aVAURORA-1862
p132
aVAURORA-1861
p133
aVAURORA-1860
p134
aVAURORA-1859
p135
aVAURORA-1858
p136
aVAURORA-1857
p137
aVAURORA-1856
p138
aVAURORA-1855
p139
aVAURORA-1854
p140
aVAURORA-1853
p141
aVAURORA-1852
p142
aVAURORA-1851
p143
aVAURORA-1850
p144
aVAURORA-1849
p145
aVAURORA-1848
p146
aVAURORA-1847
p147
aVAURORA-1846
p148
aVAURORA-1845
p149
aVAURORA-1844
p150
aVAURORA-1843
p151
aVAURORA-1842
p152
aVAURORA-1841
p153
aVAURORA-1840
p154
aVAURORA-1839
p155
aVAURORA-1838
p156
aVAURORA-1837
p157
aVAURORA-1836
p158
aVAURORA-1835
p159
aVAURORA-1834
p160
aVAURORA-1833
p161
aVAURORA-1832
p162
aVAURORA-1831
p163
aVAURORA-1830
p164
aVAURORA-1829
p165
aVAURORA-1828
p166
aVAURORA-1827
p167
aVAURORA-1826
p168
aVAURORA-1825
p169
aVAURORA-1824
p170
aVAURORA-1823
p171
aVAURORA-1822
p172
aVAURORA-1821
p173
aVAURORA-1820
p174
aVAURORA-1819
p175
aVAURORA-1818
p176
aVAURORA-1817
p177
aVAURORA-1816
p178
aVAURORA-1815
p179
aVAURORA-1814
p180
aVAURORA-1813
p181
aVAURORA-1812
p182
aVAURORA-1811
p183
aVAURORA-1810
p184
aVAURORA-1809
p185
aVAURORA-1808
p186
aVAURORA-1807
p187
aVAURORA-1806
p188
aVAURORA-1805
p189
aVAURORA-1804
p190
aVAURORA-1803
p191
aVAURORA-1802
p192
aVAURORA-1801
p193
aVAURORA-1800
p194
aVAURORA-1799
p195
aVAURORA-1798
p196
aVAURORA-1797
p197
aVAURORA-1796
p198
aVAURORA-1795
p199
aVAURORA-1794
p200
aVAURORA-1793
p201
aVAURORA-1792
p202
aVAURORA-1791
p203
aVAURORA-1790
p204
aVAURORA-1789
p205
aVAURORA-1788
p206
aVAURORA-1787
p207
aVAURORA-1786
p208
aVAURORA-1785
p209
aVAURORA-1784
p210
aVAURORA-1783
p211
aVAURORA-1782
p212
aVAURORA-1781
p213
aVAURORA-1780
p214
aVAURORA-1779
p215
aVAURORA-1778
p216
aVAURORA-1777
p217
aVAURORA-1776
p218
aVAURORA-1775
p219
aVAURORA-1774
p220
aVAURORA-1773
p221
aVAURORA-1772
p222
aVAURORA-1771
p223
aVAURORA-1770
p224
aVAURORA-1769
p225
aVAURORA-1768
p226
aVAURORA-1767
p227
aVAURORA-1766
p228
aVAURORA-1765
p229
aVAURORA-1764
p230
aVAURORA-1763
p231
aVAURORA-1762
p232
aVAURORA-1761
p233
aVAURORA-1760
p234
aVAURORA-1759
p235
aVAURORA-1758
p236
aVAURORA-1757
p237
aVAURORA-1756
p238
aVAURORA-1755
p239
aVAURORA-1754
p240
aVAURORA-1753
p241
aVAURORA-1752
p242
aVAURORA-1751
p243
aVAURORA-1750
p244
aVAURORA-1749
p245
aVAURORA-1748
p246
aVAURORA-1747
p247
aVAURORA-1746
p248
aVAURORA-1745
p249
aVAURORA-1744
p250
aVAURORA-1743
p251
aVAURORA-1742
p252
aVAURORA-1741
p253
aVAURORA-1740
p254
aVAURORA-1739
p255
aVAURORA-1738
p256
aVAURORA-1737
p257
aVAURORA-1736
p258
aVAURORA-1735
p259
aVAURORA-1734
p260
aVAURORA-1733
p261
aVAURORA-1732
p262
aVAURORA-1731
p263
aVAURORA-1730
p264
aVAURORA-1729
p265
aVAURORA-1728
p266
aVAURORA-1727
p267
aVAURORA-1726
p268
aVAURORA-1725
p269
aVAURORA-1724
p270
aVAURORA-1723
p271
aVAURORA-1722
p272
aVAURORA-1721
p273
aVAURORA-1720
p274
aVAURORA-1719
p275
aVAURORA-1718
p276
aVAURORA-1717
p277
aVAURORA-1715
p278
aVAURORA-1714
p279
aVAURORA-1713
p280
aVAURORA-1712
p281
aVAURORA-1711
p282
aVAURORA-1710
p283
aVAURORA-1709
p284
aVAURORA-1708
p285
aVAURORA-1707
p286
aVAURORA-1706
p287
aVAURORA-1691
p288
aVAURORA-1690
p289
aVAURORA-1689
p290
aVAURORA-1688
p291
aVAURORA-1687
p292
aVAURORA-1686
p293
aVAURORA-1685
p294
aVAURORA-1684
p295
aVAURORA-1683
p296
aVAURORA-1682
p297
aVAURORA-1681
p298
aVAURORA-1680
p299
aVAURORA-1679
p300
aVAURORA-1675
p301
aVAURORA-1674
p302
aVAURORA-1673
p303
aVAURORA-1672
p304
aVAURORA-1671
p305
aVAURORA-1670
p306
aVAURORA-1669
p307
aVAURORA-1668
p308
aVAURORA-1667
p309
aVAURORA-1666
p310
aVAURORA-1665
p311
aVAURORA-1664
p312
aVAURORA-1663
p313
aVAURORA-1662
p314
aVAURORA-1661
p315
aVAURORA-1660
p316
aVAURORA-1659
p317
aVAURORA-1658
p318
aVAURORA-1657
p319
aVAURORA-1656
p320
aVAURORA-1655
p321
aVAURORA-1654
p322
aVAURORA-1653
p323
aVAURORA-1652
p324
aVAURORA-1651
p325
aVAURORA-1650
p326
aVAURORA-1649
p327
aVAURORA-1648
p328
aVAURORA-1647
p329
aVAURORA-1646
p330
aVAURORA-1645
p331
aVAURORA-1644
p332
aVAURORA-1643
p333
aVAURORA-1642
p334
aVAURORA-1641
p335
aVAURORA-1640
p336
aVAURORA-1639
p337
aVAURORA-1638
p338
aVAURORA-1637
p339
aVAURORA-1636
p340
aVAURORA-1635
p341
aVAURORA-1634
p342
aVAURORA-1633
p343
aVAURORA-1632
p344
aVAURORA-1631
p345
aVAURORA-1630
p346
aVAURORA-1629
p347
aVAURORA-1628
p348
aVAURORA-1627
p349
aVAURORA-1626
p350
aVAURORA-1625
p351
aVAURORA-1624
p352
aVAURORA-1623
p353
aVAURORA-1622
p354
aVAURORA-1621
p355
aVAURORA-1620
p356
aVAURORA-1619
p357
aVAURORA-1618
p358
aVAURORA-1617
p359
aVAURORA-1616
p360
aVAURORA-1615
p361
aVAURORA-1614
p362
aVAURORA-1613
p363
aVAURORA-1612
p364
aVAURORA-1611
p365
aVAURORA-1610
p366
aVAURORA-1609
p367
aVAURORA-1608
p368
aVAURORA-1607
p369
aVAURORA-1606
p370
aVAURORA-1605
p371
aVAURORA-1604
p372
aVAURORA-1603
p373
aVAURORA-1602
p374
aVAURORA-1601
p375
aVAURORA-1600
p376
aVAURORA-1599
p377
aVAURORA-1598
p378
aVAURORA-1597
p379
aVAURORA-1596
p380
aVAURORA-1595
p381
aVAURORA-1594
p382
aVAURORA-1593
p383
aVAURORA-1592
p384
aVAURORA-1591
p385
aVAURORA-1590
p386
aVAURORA-1589
p387
aVAURORA-1588
p388
aVAURORA-1587
p389
aVAURORA-1586
p390
aVAURORA-1585
p391
aVAURORA-1584
p392
aVAURORA-1583
p393
aVAURORA-1582
p394
aVAURORA-1581
p395
aVAURORA-1580
p396
aVAURORA-1579
p397
aVAURORA-1578
p398
aVAURORA-1577
p399
aVAURORA-1576
p400
aVAURORA-1575
p401
aVAURORA-1574
p402
aVAURORA-1573
p403
aVAURORA-1572
p404
aVAURORA-1571
p405
aVAURORA-1570
p406
aVAURORA-1569
p407
aVAURORA-1568
p408
aVAURORA-1567
p409
aVAURORA-1566
p410
aVAURORA-1565
p411
aVAURORA-1564
p412
aVAURORA-1563
p413
aVAURORA-1562
p414
aVAURORA-1561
p415
aVAURORA-1560
p416
aVAURORA-1559
p417
aVAURORA-1558
p418
aVAURORA-1557
p419
aVAURORA-1556
p420
aVAURORA-1555
p421
aVAURORA-1554
p422
aVAURORA-1553
p423
aVAURORA-1552
p424
aVAURORA-1551
p425
aVAURORA-1550
p426
aVAURORA-1549
p427
aVAURORA-1548
p428
aVAURORA-1547
p429
aVAURORA-1546
p430
aVAURORA-1545
p431
aVAURORA-1544
p432
aVAURORA-1543
p433
aVAURORA-1542
p434
aVAURORA-1541
p435
aVAURORA-1540
p436
aVAURORA-1539
p437
aVAURORA-1538
p438
aVAURORA-1537
p439
aVAURORA-1536
p440
aVAURORA-1535
p441
aVAURORA-1534
p442
aVAURORA-1533
p443
aVAURORA-1532
p444
aVAURORA-1531
p445
aVAURORA-1530
p446
aVAURORA-1529
p447
aVAURORA-1528
p448
aVAURORA-1527
p449
aVAURORA-1526
p450
aVAURORA-1525
p451
aVAURORA-1524
p452
aVAURORA-1523
p453
aVAURORA-1522
p454
aVAURORA-1521
p455
aVAURORA-1520
p456
aVAURORA-1519
p457
aVAURORA-1518
p458
aVAURORA-1517
p459
aVAURORA-1516
p460
aVAURORA-1515
p461
aVAURORA-1514
p462
aVAURORA-1513
p463
aVAURORA-1512
p464
aVAURORA-1511
p465
aVAURORA-1510
p466
aVAURORA-1509
p467
aVAURORA-1508
p468
aVAURORA-1507
p469
aVAURORA-1506
p470
aVAURORA-1505
p471
aVAURORA-1504
p472
aVAURORA-1503
p473
aVAURORA-1502
p474
aVAURORA-1501
p475
aVAURORA-1500
p476
aVAURORA-1499
p477
aVAURORA-1498
p478
aVAURORA-1497
p479
aVAURORA-1496
p480
aVAURORA-1495
p481
aVAURORA-1494
p482
aVAURORA-1493
p483
aVAURORA-1492
p484
aVAURORA-1491
p485
aVAURORA-1490
p486
aVAURORA-1489
p487
aVAURORA-1488
p488
aVAURORA-1487
p489
aVAURORA-1486
p490
aVAURORA-1485
p491
aVAURORA-1484
p492
aVAURORA-1483
p493
aVAURORA-1482
p494
aVAURORA-1481
p495
aVAURORA-1480
p496
aVAURORA-1479
p497
aVAURORA-1478
p498
aVAURORA-1477
p499
aVAURORA-1476
p500
aVAURORA-1475
p501
aVAURORA-1474
p502
aVAURORA-1473
p503
aVAURORA-1472
p504
aVAURORA-1471
p505
aVAURORA-1470
p506
aVAURORA-1469
p507
aVAURORA-1468
p508
aVAURORA-1467
p509
aVAURORA-1466
p510
aVAURORA-1465
p511
aVAURORA-1464
p512
aVAURORA-1463
p513
aVAURORA-1462
p514
aVAURORA-1461
p515
aVAURORA-1460
p516
aVAURORA-1459
p517
aVAURORA-1458
p518
aVAURORA-1457
p519
aVAURORA-1456
p520
aVAURORA-1455
p521
aVAURORA-1454
p522
aVAURORA-1453
p523
aVAURORA-1452
p524
aVAURORA-1451
p525
aVAURORA-1450
p526
aVAURORA-1449
p527
aVAURORA-1448
p528
aVAURORA-1447
p529
aVAURORA-1446
p530
aVAURORA-1445
p531
aVAURORA-1444
p532
aVAURORA-1443
p533
aVAURORA-1442
p534
aVAURORA-1441
p535
aVAURORA-1440
p536
aVAURORA-1439
p537
aVAURORA-1438
p538
aVAURORA-1437
p539
aVAURORA-1436
p540
aVAURORA-1435
p541
aVAURORA-1434
p542
aVAURORA-1433
p543
aVAURORA-1432
p544
aVAURORA-1431
p545
aVAURORA-1430
p546
aVAURORA-1429
p547
aVAURORA-1428
p548
aVAURORA-1427
p549
aVAURORA-1426
p550
aVAURORA-1425
p551
aVAURORA-1424
p552
aVAURORA-1423
p553
aVAURORA-1422
p554
aVAURORA-1421
p555
aVAURORA-1420
p556
aVAURORA-1419
p557
aVAURORA-1418
p558
aVAURORA-1417
p559
aVAURORA-1416
p560
aVAURORA-1415
p561
aVAURORA-1414
p562
aVAURORA-1413
p563
aVAURORA-1412
p564
aVAURORA-1411
p565
aVAURORA-1410
p566
aVAURORA-1409
p567
aVAURORA-1408
p568
aVAURORA-1407
p569
aVAURORA-1406
p570
aVAURORA-1405
p571
aVAURORA-1404
p572
aVAURORA-1403
p573
aVAURORA-1402
p574
aVAURORA-1401
p575
aVAURORA-1400
p576
aVAURORA-1399
p577
aVAURORA-1398
p578
aVAURORA-1397
p579
aVAURORA-1396
p580
aVAURORA-1395
p581
aVAURORA-1394
p582
aVAURORA-1393
p583
aVAURORA-1392
p584
aVAURORA-1391
p585
aVAURORA-1390
p586
aVAURORA-1389
p587
aVAURORA-1388
p588
aVAURORA-1387
p589
aVAURORA-1386
p590
aVAURORA-1385
p591
aVAURORA-1384
p592
aVAURORA-1383
p593
aVAURORA-1382
p594
aVAURORA-1381
p595
aVAURORA-1380
p596
aVAURORA-1379
p597
aVAURORA-1378
p598
aVAURORA-1377
p599
aVAURORA-1376
p600
aVAURORA-1375
p601
aVAURORA-1374
p602
aVAURORA-1373
p603
aVAURORA-1372
p604
aVAURORA-1371
p605
aVAURORA-1370
p606
aVAURORA-1369
p607
aVAURORA-1368
p608
aVAURORA-1367
p609
aVAURORA-1366
p610
aVAURORA-1365
p611
aVAURORA-1364
p612
aVAURORA-1363
p613
aVAURORA-1362
p614
aVAURORA-1361
p615
aVAURORA-1360
p616
aVAURORA-1359
p617
aVAURORA-1358
p618
aVAURORA-1357
p619
aVAURORA-1356
p620
aVAURORA-1355
p621
aVAURORA-1354
p622
aVAURORA-1353
p623
aVAURORA-1352
p624
aVAURORA-1351
p625
aVAURORA-1350
p626
aVAURORA-1349
p627
aVAURORA-1348
p628
aVAURORA-1347
p629
aVAURORA-1346
p630
aVAURORA-1345
p631
aVAURORA-1344
p632
aVAURORA-1343
p633
aVAURORA-1342
p634
aVAURORA-1341
p635
aVAURORA-1340
p636
aVAURORA-1339
p637
aVAURORA-1338
p638
aVAURORA-1337
p639
aVAURORA-1336
p640
aVAURORA-1335
p641
aVAURORA-1334
p642
aVAURORA-1333
p643
aVAURORA-1332
p644
aVAURORA-1331
p645
aVAURORA-1330
p646
aVAURORA-1329
p647
aVAURORA-1328
p648
aVAURORA-1327
p649
aVAURORA-1326
p650
aVAURORA-1325
p651
aVAURORA-1324
p652
aVAURORA-1323
p653
aVAURORA-1322
p654
aVAURORA-1321
p655
aVAURORA-1320
p656
aVAURORA-1319
p657
aVAURORA-1318
p658
aVAURORA-1317
p659
aVAURORA-1316
p660
aVAURORA-1315
p661
aVAURORA-1314
p662
aVAURORA-1313
p663
aVAURORA-1312
p664
aVAURORA-1311
p665
aVAURORA-1310
p666
aVAURORA-1309
p667
aVAURORA-1308
p668
aVAURORA-1307
p669
aVAURORA-1306
p670
aVAURORA-1305
p671
aVAURORA-1304
p672
aVAURORA-1303
p673
aVAURORA-1302
p674
aVAURORA-1301
p675
aVAURORA-1300
p676
aVAURORA-1299
p677
aVAURORA-1298
p678
aVAURORA-1297
p679
aVAURORA-1296
p680
aVAURORA-1295
p681
aVAURORA-1294
p682
aVAURORA-1293
p683
aVAURORA-1292
p684
aVAURORA-1291
p685
aVAURORA-1290
p686
aVAURORA-1289
p687
aVAURORA-1288
p688
aVAURORA-1287
p689
aVAURORA-1286
p690
aVAURORA-1285
p691
aVAURORA-1284
p692
aVAURORA-1283
p693
aVAURORA-1282
p694
aVAURORA-1281
p695
aVAURORA-1280
p696
aVAURORA-1279
p697
aVAURORA-1278
p698
aVAURORA-1277
p699
aVAURORA-1276
p700
aVAURORA-1275
p701
aVAURORA-1274
p702
aVAURORA-1273
p703
aVAURORA-1272
p704
aVAURORA-1271
p705
aVAURORA-1269
p706
aVAURORA-1268
p707
aVAURORA-1267
p708
aVAURORA-1266
p709
aVAURORA-1265
p710
aVAURORA-1264
p711
aVAURORA-1263
p712
aVAURORA-1262
p713
aVAURORA-1261
p714
aVAURORA-1260
p715
aVAURORA-1259
p716
aVAURORA-1258
p717
aVAURORA-1257
p718
aVAURORA-1256
p719
aVAURORA-1255
p720
aVAURORA-1254
p721
aVAURORA-1253
p722
aVAURORA-1252
p723
aVAURORA-1251
p724
aVAURORA-1250
p725
aVAURORA-1249
p726
aVAURORA-1248
p727
aVAURORA-1247
p728
aVAURORA-1246
p729
aVAURORA-1245
p730
aVAURORA-1244
p731
aVAURORA-1242
p732
aVAURORA-1241
p733
aVAURORA-1240
p734
aVAURORA-1239
p735
aVAURORA-1238
p736
aVAURORA-1237
p737
aVAURORA-1236
p738
aVAURORA-1235
p739
aVAURORA-1234
p740
aVAURORA-1233
p741
aVAURORA-1232
p742
aVAURORA-1231
p743
aVAURORA-1230
p744
aVAURORA-1229
p745
aVAURORA-1228
p746
aVAURORA-1227
p747
aVAURORA-1226
p748
aVAURORA-1225
p749
aVAURORA-1224
p750
aVAURORA-1223
p751
aVAURORA-1222
p752
aVAURORA-1221
p753
aVAURORA-1220
p754
aVAURORA-1219
p755
aVAURORA-1218
p756
aVAURORA-1217
p757
aVAURORA-1216
p758
aVAURORA-1215
p759
aVAURORA-1214
p760
aVAURORA-1213
p761
aVAURORA-1212
p762
aVAURORA-1211
p763
aVAURORA-1210
p764
aVAURORA-1209
p765
aVAURORA-1208
p766
aVAURORA-1207
p767
aVAURORA-1206
p768
aVAURORA-1205
p769
aVAURORA-1204
p770
aVAURORA-1203
p771
aVAURORA-1202
p772
aVAURORA-1201
p773
aVAURORA-1200
p774
aVAURORA-1199
p775
aVAURORA-1198
p776
aVAURORA-1197
p777
aVAURORA-1196
p778
aVAURORA-1195
p779
aVAURORA-1194
p780
aVAURORA-1193
p781
aVAURORA-1192
p782
aVAURORA-1191
p783
aVAURORA-1190
p784
aVAURORA-1189
p785
aVAURORA-1188
p786
aVAURORA-1187
p787
aVAURORA-1186
p788
aVAURORA-1185
p789
aVAURORA-1184
p790
aVAURORA-1183
p791
aVAURORA-1182
p792
aVAURORA-1181
p793
aVAURORA-1180
p794
aVAURORA-1179
p795
aVAURORA-1178
p796
aVAURORA-1177
p797
aVAURORA-1176
p798
aVAURORA-1175
p799
aVAURORA-1174
p800
aVAURORA-1173
p801
aVAURORA-1172
p802
aVAURORA-1171
p803
aVAURORA-1170
p804
aVAURORA-1169
p805
aVAURORA-1168
p806
aVAURORA-1167
p807
aVAURORA-1166
p808
aVAURORA-1165
p809
aVAURORA-1164
p810
aVAURORA-1163
p811
aVAURORA-1162
p812
aVAURORA-1161
p813
aVAURORA-1160
p814
aVAURORA-1159
p815
aVAURORA-1158
p816
aVAURORA-1157
p817
aVAURORA-1156
p818
aVAURORA-1155
p819
aVAURORA-1154
p820
aVAURORA-1153
p821
aVAURORA-1152
p822
aVAURORA-1151
p823
aVAURORA-1150
p824
aVAURORA-1149
p825
aVAURORA-1148
p826
aVAURORA-1147
p827
aVAURORA-1146
p828
aVAURORA-1145
p829
aVAURORA-1144
p830
aVAURORA-1143
p831
aVAURORA-1142
p832
aVAURORA-1141
p833
aVAURORA-1140
p834
aVAURORA-1139
p835
aVAURORA-1138
p836
aVAURORA-1137
p837
aVAURORA-1136
p838
aVAURORA-1135
p839
aVAURORA-1134
p840
aVAURORA-1133
p841
aVAURORA-1132
p842
aVAURORA-1131
p843
aVAURORA-1130
p844
aVAURORA-1129
p845
aVAURORA-1128
p846
aVAURORA-1127
p847
aVAURORA-1126
p848
aVAURORA-1125
p849
aVAURORA-1124
p850
aVAURORA-1123
p851
aVAURORA-1122
p852
aVAURORA-1121
p853
aVAURORA-1120
p854
aVAURORA-1119
p855
aVAURORA-1118
p856
aVAURORA-1117
p857
aVAURORA-1116
p858
aVAURORA-1115
p859
aVAURORA-1114
p860
aVAURORA-1113
p861
aVAURORA-1112
p862
aVAURORA-1111
p863
aVAURORA-1110
p864
aVAURORA-1109
p865
aVAURORA-1108
p866
aVAURORA-1107
p867
aVAURORA-1106
p868
aVAURORA-1105
p869
aVAURORA-1104
p870
aVAURORA-1103
p871
aVAURORA-1102
p872
aVAURORA-1101
p873
aVAURORA-1100
p874
aVAURORA-1099
p875
aVAURORA-1098
p876
aVAURORA-1097
p877
aVAURORA-1096
p878
aVAURORA-1095
p879
aVAURORA-1094
p880
aVAURORA-1093
p881
aVAURORA-1092
p882
aVAURORA-1091
p883
aVAURORA-1090
p884
aVAURORA-1089
p885
aVAURORA-1088
p886
aVAURORA-1087
p887
aVAURORA-1086
p888
aVAURORA-1085
p889
aVAURORA-1084
p890
aVAURORA-1083
p891
aVAURORA-1082
p892
aVAURORA-1081
p893
aVAURORA-1080
p894
aVAURORA-1079
p895
aVAURORA-1078
p896
aVAURORA-1077
p897
aVAURORA-1076
p898
aVAURORA-1075
p899
aVAURORA-1074
p900
aVAURORA-1073
p901
aVAURORA-1072
p902
aVAURORA-1071
p903
aVAURORA-1070
p904
aVAURORA-1069
p905
aVAURORA-1068
p906
aVAURORA-1067
p907
aVAURORA-1066
p908
aVAURORA-1065
p909
aVAURORA-1064
p910
aVAURORA-1063
p911
aVAURORA-1062
p912
aVAURORA-1061
p913
aVAURORA-1060
p914
aVAURORA-1059
p915
aVAURORA-1058
p916
aVAURORA-1057
p917
aVAURORA-1056
p918
aVAURORA-1055
p919
aVAURORA-1054
p920
aVAURORA-1053
p921
aVAURORA-1052
p922
aVAURORA-1051
p923
aVAURORA-1050
p924
aVAURORA-1049
p925
aVAURORA-1048
p926
aVAURORA-1047
p927
aVAURORA-1046
p928
aVAURORA-1045
p929
aVAURORA-1044
p930
aVAURORA-1043
p931
aVAURORA-1042
p932
aVAURORA-1041
p933
aVAURORA-1040
p934
aVAURORA-1039
p935
aVAURORA-1038
p936
aVAURORA-1037
p937
aVAURORA-1036
p938
aVAURORA-1035
p939
aVAURORA-1034
p940
aVAURORA-1033
p941
aVAURORA-1032
p942
aVAURORA-1031
p943
aVAURORA-1030
p944
aVAURORA-1029
p945
aVAURORA-1028
p946
aVAURORA-1027
p947
aVAURORA-1026
p948
aVAURORA-1025
p949
aVAURORA-1024
p950
aVAURORA-1023
p951
aVAURORA-1022
p952
aVAURORA-1021
p953
aVAURORA-1020
p954
aVAURORA-1019
p955
aVAURORA-1018
p956
aVAURORA-1017
p957
aVAURORA-1016
p958
aVAURORA-1015
p959
aVAURORA-1014
p960
aVAURORA-1013
p961
aVAURORA-1012
p962
aVAURORA-1010
p963
aVAURORA-1009
p964
aVAURORA-1008
p965
aVAURORA-1007
p966
aVAURORA-1005
p967
aVAURORA-1004
p968
aVAURORA-1003
p969
aVAURORA-1002
p970
aVAURORA-1001
p971
aVAURORA-1000
p972
aVAURORA-999
p973
aVAURORA-998
p974
aVAURORA-997
p975
aVAURORA-996
p976
aVAURORA-995
p977
aVAURORA-994
p978
aVAURORA-993
p979
aVAURORA-992
p980
aVAURORA-991
p981
aVAURORA-990
p982
aVAURORA-989
p983
aVAURORA-988
p984
aVAURORA-987
p985
aVAURORA-986
p986
aVAURORA-985
p987
aVAURORA-984
p988
aVAURORA-983
p989
aVAURORA-982
p990
aVAURORA-981
p991
aVAURORA-980
p992
aVAURORA-979
p993
aVAURORA-978
p994
aVAURORA-977
p995
aVAURORA-976
p996
aVAURORA-975
p997
aVAURORA-974
p998
aVAURORA-973
p999
aVAURORA-972
p1000
aVAURORA-971
p1001
aVAURORA-970
p1002
aVAURORA-969
p1003
aVAURORA-968
p1004
aVAURORA-967
p1005
aVAURORA-966
p1006
aVAURORA-965
p1007
aVAURORA-964
p1008
aVAURORA-963
p1009
aVAURORA-962
p1010
aVAURORA-961
p1011
aVAURORA-960
p1012
aVAURORA-959
p1013
aVAURORA-958
p1014
aVAURORA-957
p1015
aVAURORA-956
p1016
aVAURORA-955
p1017
aVAURORA-954
p1018
aVAURORA-953
p1019
aVAURORA-952
p1020
aVAURORA-951
p1021
aVAURORA-950
p1022
aVAURORA-949
p1023
aVAURORA-948
p1024
aVAURORA-947
p1025
aVAURORA-946
p1026
aVAURORA-945
p1027
aVAURORA-944
p1028
aVAURORA-943
p1029
aVAURORA-942
p1030
aVAURORA-941
p1031
aVAURORA-940
p1032
aVAURORA-939
p1033
aVAURORA-938
p1034
aVAURORA-937
p1035
aVAURORA-936
p1036
aVAURORA-935
p1037
aVAURORA-934
p1038
aVAURORA-933
p1039
aVAURORA-932
p1040
aVAURORA-931
p1041
aVAURORA-930
p1042
aVAURORA-929
p1043
aVAURORA-928
p1044
aVAURORA-927
p1045
aVAURORA-926
p1046
aVAURORA-925
p1047
aVAURORA-924
p1048
aVAURORA-923
p1049
aVAURORA-922
p1050
aVAURORA-921
p1051
aVAURORA-920
p1052
aVAURORA-919
p1053
aVAURORA-918
p1054
aVAURORA-917
p1055
aVAURORA-916
p1056
aVAURORA-915
p1057
aVAURORA-914
p1058
aVAURORA-913
p1059
aVAURORA-912
p1060
aVAURORA-911
p1061
aVAURORA-910
p1062
aVAURORA-909
p1063
aVAURORA-908
p1064
aVAURORA-907
p1065
aVAURORA-906
p1066
aVAURORA-905
p1067
aVAURORA-904
p1068
aVAURORA-903
p1069
aVAURORA-902
p1070
aVAURORA-901
p1071
aVAURORA-900
p1072
aVAURORA-899
p1073
aVAURORA-898
p1074
aVAURORA-897
p1075
aVAURORA-896
p1076
aVAURORA-895
p1077
aVAURORA-894
p1078
aVAURORA-893
p1079
aVAURORA-892
p1080
aVAURORA-891
p1081
aVAURORA-890
p1082
aVAURORA-889
p1083
aVAURORA-888
p1084
aVAURORA-887
p1085
aVAURORA-886
p1086
aVAURORA-885
p1087
aVAURORA-884
p1088
aVAURORA-883
p1089
aVAURORA-882
p1090
aVAURORA-880
p1091
aVAURORA-879
p1092
aVAURORA-878
p1093
aVAURORA-877
p1094
aVAURORA-876
p1095
aVAURORA-875
p1096
aVAURORA-874
p1097
aVAURORA-873
p1098
aVAURORA-872
p1099
aVAURORA-871
p1100
aVAURORA-870
p1101
aVAURORA-869
p1102
aVAURORA-868
p1103
aVAURORA-867
p1104
aVAURORA-866
p1105
aVAURORA-865
p1106
aVAURORA-864
p1107
aVAURORA-863
p1108
aVAURORA-862
p1109
aVAURORA-861
p1110
aVAURORA-860
p1111
aVAURORA-859
p1112
aVAURORA-858
p1113
aVAURORA-857
p1114
aVAURORA-856
p1115
aVAURORA-855
p1116
aVAURORA-854
p1117
aVAURORA-853
p1118
aVAURORA-852
p1119
aVAURORA-851
p1120
aVAURORA-850
p1121
aVAURORA-849
p1122
aVAURORA-848
p1123
aVAURORA-847
p1124
aVAURORA-846
p1125
aVAURORA-845
p1126
aVAURORA-844
p1127
aVAURORA-843
p1128
aVAURORA-842
p1129
aVAURORA-841
p1130
aVAURORA-840
p1131
aVAURORA-839
p1132
aVAURORA-838
p1133
aVAURORA-837
p1134
aVAURORA-836
p1135
aVAURORA-835
p1136
aVAURORA-834
p1137
aVAURORA-833
p1138
aVAURORA-832
p1139
aVAURORA-831
p1140
aVAURORA-830
p1141
aVAURORA-829
p1142
aVAURORA-828
p1143
aVAURORA-827
p1144
aVAURORA-826
p1145
aVAURORA-825
p1146
aVAURORA-824
p1147
aVAURORA-823
p1148
aVAURORA-822
p1149
aVAURORA-821
p1150
aVAURORA-820
p1151
aVAURORA-819
p1152
aVAURORA-818
p1153
aVAURORA-817
p1154
aVAURORA-816
p1155
aVAURORA-815
p1156
aVAURORA-814
p1157
aVAURORA-813
p1158
aVAURORA-812
p1159
aVAURORA-811
p1160
aVAURORA-810
p1161
aVAURORA-809
p1162
aVAURORA-808
p1163
aVAURORA-807
p1164
aVAURORA-806
p1165
aVAURORA-805
p1166
aVAURORA-804
p1167
aVAURORA-803
p1168
aVAURORA-802
p1169
aVAURORA-801
p1170
aVAURORA-800
p1171
aVAURORA-799
p1172
aVAURORA-798
p1173
aVAURORA-797
p1174
aVAURORA-796
p1175
aVAURORA-795
p1176
aVAURORA-794
p1177
aVAURORA-793
p1178
aVAURORA-792
p1179
aVAURORA-791
p1180
aVAURORA-790
p1181
aVAURORA-789
p1182
aVAURORA-788
p1183
aVAURORA-787
p1184
aVAURORA-786
p1185
aVAURORA-785
p1186
aVAURORA-784
p1187
aVAURORA-783
p1188
aVAURORA-782
p1189
aVAURORA-781
p1190
aVAURORA-780
p1191
aVAURORA-779
p1192
aVAURORA-778
p1193
aVAURORA-777
p1194
aVAURORA-776
p1195
aVAURORA-775
p1196
aVAURORA-774
p1197
aVAURORA-773
p1198
aVAURORA-772
p1199
aVAURORA-771
p1200
aVAURORA-770
p1201
aVAURORA-769
p1202
aVAURORA-768
p1203
aVAURORA-767
p1204
aVAURORA-766
p1205
aVAURORA-765
p1206
aVAURORA-764
p1207
aVAURORA-763
p1208
aVAURORA-762
p1209
aVAURORA-761
p1210
aVAURORA-760
p1211
aVAURORA-759
p1212
aVAURORA-758
p1213
aVAURORA-757
p1214
aVAURORA-756
p1215
aVAURORA-755
p1216
aVAURORA-754
p1217
aVAURORA-753
p1218
aVAURORA-752
p1219
aVAURORA-751
p1220
aVAURORA-749
p1221
aVAURORA-748
p1222
aVAURORA-747
p1223
aVAURORA-746
p1224
aVAURORA-745
p1225
aVAURORA-744
p1226
aVAURORA-743
p1227
aVAURORA-742
p1228
aVAURORA-741
p1229
aVAURORA-740
p1230
aVAURORA-739
p1231
aVAURORA-738
p1232
aVAURORA-737
p1233
aVAURORA-736
p1234
aVAURORA-735
p1235
aVAURORA-734
p1236
aVAURORA-733
p1237
aVAURORA-732
p1238
aVAURORA-731
p1239
aVAURORA-730
p1240
aVAURORA-729
p1241
aVAURORA-728
p1242
aVAURORA-726
p1243
aVAURORA-725
p1244
aVAURORA-724
p1245
aVAURORA-723
p1246
aVAURORA-722
p1247
aVAURORA-721
p1248
aVAURORA-720
p1249
aVAURORA-719
p1250
aVAURORA-718
p1251
aVAURORA-717
p1252
aVAURORA-716
p1253
aVAURORA-715
p1254
aVAURORA-714
p1255
aVAURORA-713
p1256
aVAURORA-712
p1257
aVAURORA-711
p1258
aVAURORA-710
p1259
aVAURORA-709
p1260
aVAURORA-708
p1261
aVAURORA-707
p1262
aVAURORA-706
p1263
aVAURORA-705
p1264
aVAURORA-704
p1265
aVAURORA-703
p1266
aVAURORA-702
p1267
aVAURORA-701
p1268
aVAURORA-700
p1269
aVAURORA-699
p1270
aVAURORA-698
p1271
aVAURORA-697
p1272
aVAURORA-696
p1273
aVAURORA-695
p1274
aVAURORA-694
p1275
aVAURORA-693
p1276
aVAURORA-692
p1277
aVAURORA-691
p1278
aVAURORA-690
p1279
aVAURORA-689
p1280
aVAURORA-688
p1281
aVAURORA-687
p1282
aVAURORA-686
p1283
aVAURORA-685
p1284
aVAURORA-684
p1285
aVAURORA-683
p1286
aVAURORA-682
p1287
aVAURORA-681
p1288
aVAURORA-680
p1289
aVAURORA-679
p1290
aVAURORA-678
p1291
aVAURORA-677
p1292
aVAURORA-676
p1293
aVAURORA-675
p1294
aVAURORA-674
p1295
aVAURORA-673
p1296
aVAURORA-672
p1297
aVAURORA-671
p1298
aVAURORA-670
p1299
aVAURORA-669
p1300
aVAURORA-668
p1301
aVAURORA-667
p1302
aVAURORA-666
p1303
aVAURORA-665
p1304
aVAURORA-664
p1305
aVAURORA-663
p1306
aVAURORA-662
p1307
aVAURORA-661
p1308
aVAURORA-660
p1309
aVAURORA-659
p1310
aVAURORA-658
p1311
aVAURORA-657
p1312
aVAURORA-656
p1313
aVAURORA-655
p1314
aVAURORA-654
p1315
aVAURORA-653
p1316
aVAURORA-652
p1317
aVAURORA-651
p1318
aVAURORA-650
p1319
aVAURORA-649
p1320
aVAURORA-648
p1321
aVAURORA-647
p1322
aVAURORA-646
p1323
aVAURORA-645
p1324
aVAURORA-644
p1325
aVAURORA-643
p1326
aVAURORA-642
p1327
aVAURORA-641
p1328
aVAURORA-640
p1329
aVAURORA-639
p1330
aVAURORA-638
p1331
aVAURORA-637
p1332
aVAURORA-636
p1333
aVAURORA-635
p1334
aVAURORA-634
p1335
aVAURORA-633
p1336
aVAURORA-632
p1337
aVAURORA-631
p1338
aVAURORA-630
p1339
aVAURORA-629
p1340
aVAURORA-628
p1341
aVAURORA-627
p1342
aVAURORA-626
p1343
aVAURORA-625
p1344
aVAURORA-624
p1345
aVAURORA-623
p1346
aVAURORA-622
p1347
aVAURORA-621
p1348
aVAURORA-620
p1349
aVAURORA-619
p1350
aVAURORA-618
p1351
aVAURORA-617
p1352
aVAURORA-616
p1353
aVAURORA-615
p1354
aVAURORA-614
p1355
aVAURORA-613
p1356
aVAURORA-612
p1357
aVAURORA-611
p1358
aVAURORA-610
p1359
aVAURORA-609
p1360
aVAURORA-608
p1361
aVAURORA-607
p1362
aVAURORA-606
p1363
aVAURORA-605
p1364
aVAURORA-604
p1365
aVAURORA-603
p1366
aVAURORA-602
p1367
aVAURORA-601
p1368
aVAURORA-600
p1369
aVAURORA-599
p1370
aVAURORA-598
p1371
aVAURORA-597
p1372
aVAURORA-596
p1373
aVAURORA-595
p1374
aVAURORA-594
p1375
aVAURORA-593
p1376
aVAURORA-592
p1377
aVAURORA-591
p1378
aVAURORA-590
p1379
aVAURORA-589
p1380
aVAURORA-588
p1381
aVAURORA-587
p1382
aVAURORA-586
p1383
aVAURORA-585
p1384
aVAURORA-584
p1385
aVAURORA-583
p1386
aVAURORA-582
p1387
aVAURORA-581
p1388
aVAURORA-580
p1389
aVAURORA-579
p1390
aVAURORA-578
p1391
aVAURORA-577
p1392
aVAURORA-576
p1393
aVAURORA-575
p1394
aVAURORA-574
p1395
aVAURORA-573
p1396
aVAURORA-572
p1397
aVAURORA-571
p1398
aVAURORA-570
p1399
aVAURORA-569
p1400
aVAURORA-568
p1401
aVAURORA-567
p1402
aVAURORA-566
p1403
aVAURORA-565
p1404
aVAURORA-564
p1405
aVAURORA-563
p1406
aVAURORA-562
p1407
aVAURORA-561
p1408
aVAURORA-560
p1409
aVAURORA-559
p1410
aVAURORA-558
p1411
aVAURORA-557
p1412
aVAURORA-556
p1413
aVAURORA-555
p1414
aVAURORA-554
p1415
aVAURORA-553
p1416
aVAURORA-552
p1417
aVAURORA-551
p1418
aVAURORA-550
p1419
aVAURORA-549
p1420
aVAURORA-548
p1421
aVAURORA-547
p1422
aVAURORA-546
p1423
aVAURORA-545
p1424
aVAURORA-544
p1425
aVAURORA-543
p1426
aVAURORA-542
p1427
aVAURORA-541
p1428
aVAURORA-540
p1429
aVAURORA-539
p1430
aVAURORA-538
p1431
aVAURORA-537
p1432
aVAURORA-536
p1433
aVAURORA-535
p1434
aVAURORA-534
p1435
aVAURORA-533
p1436
aVAURORA-532
p1437
aVAURORA-531
p1438
aVAURORA-530
p1439
aVAURORA-529
p1440
aVAURORA-528
p1441
aVAURORA-527
p1442
aVAURORA-526
p1443
aVAURORA-525
p1444
aVAURORA-524
p1445
aVAURORA-523
p1446
aVAURORA-522
p1447
aVAURORA-521
p1448
aVAURORA-520
p1449
aVAURORA-519
p1450
aVAURORA-518
p1451
aVAURORA-517
p1452
aVAURORA-516
p1453
aVAURORA-515
p1454
aVAURORA-514
p1455
aVAURORA-513
p1456
aVAURORA-512
p1457
aVAURORA-511
p1458
aVAURORA-510
p1459
aVAURORA-509
p1460
aVAURORA-508
p1461
aVAURORA-507
p1462
aVAURORA-506
p1463
aVAURORA-505
p1464
aVAURORA-504
p1465
aVAURORA-503
p1466
aVAURORA-502
p1467
aVAURORA-501
p1468
aVAURORA-500
p1469
aVAURORA-499
p1470
aVAURORA-498
p1471
aVAURORA-497
p1472
aVAURORA-496
p1473
aVAURORA-495
p1474
aVAURORA-494
p1475
aVAURORA-493
p1476
aVAURORA-492
p1477
aVAURORA-491
p1478
aVAURORA-490
p1479
aVAURORA-489
p1480
aVAURORA-488
p1481
aVAURORA-487
p1482
aVAURORA-486
p1483
aVAURORA-485
p1484
aVAURORA-484
p1485
aVAURORA-483
p1486
aVAURORA-482
p1487
aVAURORA-481
p1488
aVAURORA-480
p1489
aVAURORA-479
p1490
aVAURORA-478
p1491
aVAURORA-477
p1492
aVAURORA-476
p1493
aVAURORA-475
p1494
aVAURORA-474
p1495
aVAURORA-473
p1496
aVAURORA-472
p1497
aVAURORA-471
p1498
aVAURORA-470
p1499
aVAURORA-469
p1500
aVAURORA-468
p1501
aVAURORA-467
p1502
aVAURORA-466
p1503
aVAURORA-465
p1504
aVAURORA-464
p1505
aVAURORA-463
p1506
aVAURORA-462
p1507
aVAURORA-461
p1508
aVAURORA-460
p1509
aVAURORA-459
p1510
aVAURORA-458
p1511
aVAURORA-457
p1512
aVAURORA-456
p1513
aVAURORA-455
p1514
aVAURORA-454
p1515
aVAURORA-453
p1516
aVAURORA-452
p1517
aVAURORA-451
p1518
aVAURORA-450
p1519
aVAURORA-449
p1520
aVAURORA-448
p1521
aVAURORA-447
p1522
aVAURORA-446
p1523
aVAURORA-445
p1524
aVAURORA-444
p1525
aVAURORA-443
p1526
aVAURORA-442
p1527
aVAURORA-441
p1528
aVAURORA-440
p1529
aVAURORA-439
p1530
aVAURORA-438
p1531
aVAURORA-437
p1532
aVAURORA-436
p1533
aVAURORA-435
p1534
aVAURORA-434
p1535
aVAURORA-433
p1536
aVAURORA-432
p1537
aVAURORA-431
p1538
aVAURORA-430
p1539
aVAURORA-429
p1540
aVAURORA-428
p1541
aVAURORA-427
p1542
aVAURORA-426
p1543
aVAURORA-425
p1544
aVAURORA-424
p1545
aVAURORA-423
p1546
aVAURORA-422
p1547
aVAURORA-421
p1548
aVAURORA-420
p1549
aVAURORA-419
p1550
aVAURORA-418
p1551
aVAURORA-417
p1552
aVAURORA-416
p1553
aVAURORA-415
p1554
aVAURORA-414
p1555
aVAURORA-413
p1556
aVAURORA-412
p1557
aVAURORA-411
p1558
aVAURORA-410
p1559
aVAURORA-409
p1560
aVAURORA-408
p1561
aVAURORA-407
p1562
aVAURORA-406
p1563
aVAURORA-405
p1564
aVAURORA-404
p1565
aVAURORA-403
p1566
aVAURORA-402
p1567
aVAURORA-401
p1568
aVAURORA-400
p1569
aVAURORA-399
p1570
aVAURORA-398
p1571
aVAURORA-397
p1572
aVAURORA-396
p1573
aVAURORA-395
p1574
aVAURORA-394
p1575
aVAURORA-393
p1576
aVAURORA-392
p1577
aVAURORA-391
p1578
aVAURORA-390
p1579
aVAURORA-389
p1580
aVAURORA-388
p1581
aVAURORA-387
p1582
aVAURORA-386
p1583
aVAURORA-385
p1584
aVAURORA-384
p1585
aVAURORA-383
p1586
aVAURORA-382
p1587
aVAURORA-381
p1588
aVAURORA-380
p1589
aVAURORA-379
p1590
aVAURORA-378
p1591
aVAURORA-377
p1592
aVAURORA-376
p1593
aVAURORA-375
p1594
aVAURORA-374
p1595
aVAURORA-373
p1596
aVAURORA-372
p1597
aVAURORA-371
p1598
aVAURORA-370
p1599
aVAURORA-369
p1600
aVAURORA-368
p1601
aVAURORA-367
p1602
aVAURORA-366
p1603
aVAURORA-365
p1604
aVAURORA-364
p1605
aVAURORA-363
p1606
aVAURORA-362
p1607
aVAURORA-361
p1608
aVAURORA-360
p1609
aVAURORA-359
p1610
aVAURORA-358
p1611
aVAURORA-356
p1612
aVAURORA-355
p1613
aVAURORA-354
p1614
aVAURORA-353
p1615
aVAURORA-352
p1616
aVAURORA-351
p1617
aVAURORA-350
p1618
aVAURORA-349
p1619
aVAURORA-348
p1620
aVAURORA-347
p1621
aVAURORA-346
p1622
aVAURORA-345
p1623
aVAURORA-344
p1624
aVAURORA-343
p1625
aVAURORA-342
p1626
aVAURORA-341
p1627
aVAURORA-340
p1628
aVAURORA-339
p1629
aVAURORA-338
p1630
aVAURORA-337
p1631
aVAURORA-336
p1632
aVAURORA-335
p1633
aVAURORA-334
p1634
aVAURORA-333
p1635
aVAURORA-332
p1636
aVAURORA-331
p1637
aVAURORA-330
p1638
aVAURORA-329
p1639
aVAURORA-328
p1640
aVAURORA-327
p1641
aVAURORA-326
p1642
aVAURORA-325
p1643
aVAURORA-324
p1644
aVAURORA-323
p1645
aVAURORA-322
p1646
aVAURORA-321
p1647
aVAURORA-320
p1648
aVAURORA-319
p1649
aVAURORA-318
p1650
aVAURORA-317
p1651
aVAURORA-316
p1652
aVAURORA-315
p1653
aVAURORA-314
p1654
aVAURORA-313
p1655
aVAURORA-312
p1656
aVAURORA-311
p1657
aVAURORA-310
p1658
aVAURORA-309
p1659
aVAURORA-308
p1660
aVAURORA-307
p1661
aVAURORA-306
p1662
aVAURORA-305
p1663
aVAURORA-304
p1664
aVAURORA-303
p1665
aVAURORA-302
p1666
aVAURORA-301
p1667
aVAURORA-300
p1668
aVAURORA-299
p1669
aVAURORA-298
p1670
aVAURORA-297
p1671
aVAURORA-296
p1672
aVAURORA-295
p1673
aVAURORA-294
p1674
aVAURORA-293
p1675
aVAURORA-292
p1676
aVAURORA-291
p1677
aVAURORA-290
p1678
aVAURORA-289
p1679
aVAURORA-288
p1680
aVAURORA-287
p1681
aVAURORA-286
p1682
aVAURORA-285
p1683
aVAURORA-284
p1684
aVAURORA-283
p1685
aVAURORA-282
p1686
aVAURORA-281
p1687
aVAURORA-280
p1688
aVAURORA-279
p1689
aVAURORA-278
p1690
aVAURORA-277
p1691
aVAURORA-276
p1692
aVAURORA-275
p1693
aVAURORA-274
p1694
aVAURORA-273
p1695
aVAURORA-272
p1696
aVAURORA-271
p1697
aVAURORA-270
p1698
aVAURORA-269
p1699
aVAURORA-268
p1700
aVAURORA-267
p1701
aVAURORA-266
p1702
aVAURORA-265
p1703
aVAURORA-264
p1704
aVAURORA-263
p1705
aVAURORA-262
p1706
aVAURORA-261
p1707
aVAURORA-260
p1708
aVAURORA-259
p1709
aVAURORA-258
p1710
aVAURORA-257
p1711
aVAURORA-256
p1712
aVAURORA-255
p1713
aVAURORA-254
p1714
aVAURORA-253
p1715
aVAURORA-252
p1716
aVAURORA-251
p1717
aVAURORA-250
p1718
aVAURORA-249
p1719
aVAURORA-248
p1720
aVAURORA-247
p1721
aVAURORA-246
p1722
aVAURORA-245
p1723
aVAURORA-244
p1724
aVAURORA-243
p1725
aVAURORA-242
p1726
aVAURORA-241
p1727
aVAURORA-240
p1728
aVAURORA-239
p1729
aVAURORA-238
p1730
aVAURORA-237
p1731
aVAURORA-236
p1732
aVAURORA-235
p1733
aVAURORA-234
p1734
aVAURORA-233
p1735
aVAURORA-232
p1736
aVAURORA-231
p1737
aVAURORA-230
p1738
aVAURORA-229
p1739
aVAURORA-228
p1740
aVAURORA-227
p1741
aVAURORA-226
p1742
aVAURORA-225
p1743
aVAURORA-224
p1744
aVAURORA-223
p1745
aVAURORA-222
p1746
aVAURORA-221
p1747
aVAURORA-220
p1748
aVAURORA-219
p1749
aVAURORA-218
p1750
aVAURORA-217
p1751
aVAURORA-216
p1752
aVAURORA-215
p1753
aVAURORA-214
p1754
aVAURORA-213
p1755
aVAURORA-212
p1756
aVAURORA-211
p1757
aVAURORA-210
p1758
aVAURORA-209
p1759
aVAURORA-208
p1760
aVAURORA-207
p1761
aVAURORA-206
p1762
aVAURORA-205
p1763
aVAURORA-204
p1764
aVAURORA-203
p1765
aVAURORA-202
p1766
aVAURORA-201
p1767
aVAURORA-200
p1768
aVAURORA-199
p1769
aVAURORA-198
p1770
aVAURORA-197
p1771
aVAURORA-196
p1772
aVAURORA-195
p1773
aVAURORA-194
p1774
aVAURORA-193
p1775
aVAURORA-192
p1776
aVAURORA-191
p1777
aVAURORA-190
p1778
aVAURORA-189
p1779
aVAURORA-188
p1780
aVAURORA-187
p1781
aVAURORA-186
p1782
aVAURORA-185
p1783
aVAURORA-184
p1784
aVAURORA-183
p1785
aVAURORA-182
p1786
aVAURORA-181
p1787
aVAURORA-180
p1788
aVAURORA-179
p1789
aVAURORA-178
p1790
aVAURORA-177
p1791
aVAURORA-176
p1792
aVAURORA-175
p1793
aVAURORA-174
p1794
aVAURORA-173
p1795
aVAURORA-172
p1796
aVAURORA-171
p1797
aVAURORA-170
p1798
aVAURORA-169
p1799
aVAURORA-168
p1800
aVAURORA-167
p1801
aVAURORA-166
p1802
aVAURORA-165
p1803
aVAURORA-164
p1804
aVAURORA-163
p1805
aVAURORA-162
p1806
aVAURORA-161
p1807
aVAURORA-160
p1808
aVAURORA-159
p1809
aVAURORA-158
p1810
aVAURORA-157
p1811
aVAURORA-156
p1812
aVAURORA-155
p1813
aVAURORA-154
p1814
aVAURORA-153
p1815
aVAURORA-152
p1816
aVAURORA-151
p1817
aVAURORA-150
p1818
aVAURORA-149
p1819
aVAURORA-148
p1820
aVAURORA-147
p1821
aVAURORA-146
p1822
aVAURORA-145
p1823
aVAURORA-144
p1824
aVAURORA-143
p1825
aVAURORA-142
p1826
aVAURORA-141
p1827
aVAURORA-140
p1828
aVAURORA-139
p1829
aVAURORA-138
p1830
aVAURORA-137
p1831
aVAURORA-136
p1832
aVAURORA-135
p1833
aVAURORA-134
p1834
aVAURORA-133
p1835
aVAURORA-132
p1836
aVAURORA-131
p1837
aVAURORA-130
p1838
aVAURORA-129
p1839
aVAURORA-128
p1840
aVAURORA-127
p1841
aVAURORA-126
p1842
aVAURORA-125
p1843
aVAURORA-124
p1844
aVAURORA-123
p1845
aVAURORA-122
p1846
aVAURORA-121
p1847
aVAURORA-120
p1848
aVAURORA-119
p1849
aVAURORA-118
p1850
aVAURORA-117
p1851
aVAURORA-116
p1852
aVAURORA-115
p1853
aVAURORA-114
p1854
aVAURORA-113
p1855
aVAURORA-112
p1856
aVAURORA-111
p1857
aVAURORA-110
p1858
aVAURORA-109
p1859
aVAURORA-108
p1860
aVAURORA-107
p1861
aVAURORA-106
p1862
aVAURORA-105
p1863
aVAURORA-104
p1864
aVAURORA-103
p1865
aVAURORA-102
p1866
aVAURORA-101
p1867
aVAURORA-100
p1868
aVAURORA-99
p1869
aVAURORA-98
p1870
aVAURORA-97
p1871
aVAURORA-96
p1872
aVAURORA-95
p1873
aVAURORA-94
p1874
aVAURORA-93
p1875
aVAURORA-92
p1876
aVAURORA-91
p1877
aVAURORA-90
p1878
aVAURORA-89
p1879
aVAURORA-88
p1880
aVAURORA-87
p1881
aVAURORA-86
p1882
aVAURORA-85
p1883
aVAURORA-84
p1884
aVAURORA-83
p1885
aVAURORA-82
p1886
aVAURORA-81
p1887
aVAURORA-80
p1888
aVAURORA-79
p1889
aVAURORA-78
p1890
aVAURORA-77
p1891
aVAURORA-76
p1892
aVAURORA-75
p1893
aVAURORA-74
p1894
aVAURORA-73
p1895
aVAURORA-72
p1896
aVAURORA-71
p1897
aVAURORA-70
p1898
aVAURORA-69
p1899
aVAURORA-68
p1900
aVAURORA-67
p1901
aVAURORA-66
p1902
aVAURORA-65
p1903
aVAURORA-64
p1904
aVAURORA-63
p1905
aVAURORA-62
p1906
aVAURORA-61
p1907
aVAURORA-60
p1908
aVAURORA-59
p1909
aVAURORA-58
p1910
aVAURORA-57
p1911
aVAURORA-56
p1912
aVAURORA-55
p1913
aVAURORA-54
p1914
aVAURORA-53
p1915
aVAURORA-52
p1916
aVAURORA-51
p1917
aVAURORA-50
p1918
aVAURORA-49
p1919
aVAURORA-48
p1920
aVAURORA-47
p1921
aVAURORA-46
p1922
aVAURORA-45
p1923
aVAURORA-44
p1924
aVAURORA-43
p1925
aVAURORA-42
p1926
aVAURORA-41
p1927
aVAURORA-40
p1928
aVAURORA-39
p1929
aVAURORA-38
p1930
aVAURORA-37
p1931
aVAURORA-36
p1932
aVAURORA-35
p1933
aVAURORA-34
p1934
aVAURORA-33
p1935
aVAURORA-32
p1936
aVAURORA-31
p1937
aVAURORA-30
p1938
aVAURORA-29
p1939
aVAURORA-28
p1940
aVAURORA-27
p1941
aVAURORA-26
p1942
aVAURORA-25
p1943
aVAURORA-24
p1944
aVAURORA-23
p1945
aVAURORA-22
p1946
aVAURORA-21
p1947
aVAURORA-20
p1948
aVAURORA-18
p1949
aVAURORA-17
p1950
aVAURORA-16
p1951
aVAURORA-15
p1952
aVAURORA-14
p1953
aVAURORA-13
p1954
aVAURORA-12
p1955
aVAURORA-11
p1956
aVAURORA-10
p1957
aVAURORA-9
p1958
aVAURORA-8
p1959
aVAURORA-7
p1960
aVAURORA-6
p1961
aVAURORA-5
p1962
aVAURORA-4
p1963
aVAURORA-3
p1964
aVAURORA-2
p1965
aVAURORA-1
p1966
a.