(lp0
VAUTOTAG-24
p1
aVAUTOTAG-23
p2
aVAUTOTAG-22
p3
aVAUTOTAG-21
p4
aVAUTOTAG-20
p5
aVAUTOTAG-19
p6
aVAUTOTAG-18
p7
aVAUTOTAG-17
p8
aVAUTOTAG-16
p9
aVAUTOTAG-15
p10
aVAUTOTAG-14
p11
aVAUTOTAG-13
p12
aVAUTOTAG-12
p13
aVAUTOTAG-11
p14
aVAUTOTAG-10
p15
aVAUTOTAG-9
p16
aVAUTOTAG-8
p17
aVAUTOTAG-7
p18
aVAUTOTAG-6
p19
aVAUTOTAG-5
p20
aVAUTOTAG-4
p21
aVAUTOTAG-3
p22
aVAUTOTAG-2
p23
aVAUTOTAG-1
p24
a.