(lp0
VBATIK-1237
p1
aVBATIK-1236
p2
aVBATIK-1235
p3
aVBATIK-1234
p4
aVBATIK-1233
p5
aVBATIK-1232
p6
aVBATIK-1231
p7
aVBATIK-1230
p8
aVBATIK-1229
p9
aVBATIK-1228
p10
aVBATIK-1227
p11
aVBATIK-1226
p12
aVBATIK-1225
p13
aVBATIK-1224
p14
aVBATIK-1223
p15
aVBATIK-1222
p16
aVBATIK-1221
p17
aVBATIK-1220
p18
aVBATIK-1219
p19
aVBATIK-1218
p20
aVBATIK-1217
p21
aVBATIK-1216
p22
aVBATIK-1215
p23
aVBATIK-1214
p24
aVBATIK-1213
p25
aVBATIK-1212
p26
aVBATIK-1211
p27
aVBATIK-1210
p28
aVBATIK-1209
p29
aVBATIK-1208
p30
aVBATIK-1207
p31
aVBATIK-1206
p32
aVBATIK-1205
p33
aVBATIK-1204
p34
aVBATIK-1203
p35
aVBATIK-1202
p36
aVBATIK-1201
p37
aVBATIK-1200
p38
aVBATIK-1199
p39
aVBATIK-1198
p40
aVBATIK-1197
p41
aVBATIK-1196
p42
aVBATIK-1195
p43
aVBATIK-1194
p44
aVBATIK-1193
p45
aVBATIK-1192
p46
aVBATIK-1191
p47
aVBATIK-1190
p48
aVBATIK-1189
p49
aVBATIK-1188
p50
aVBATIK-1187
p51
aVBATIK-1186
p52
aVBATIK-1185
p53
aVBATIK-1184
p54
aVBATIK-1183
p55
aVBATIK-1182
p56
aVBATIK-1181
p57
aVBATIK-1180
p58
aVBATIK-1179
p59
aVBATIK-1178
p60
aVBATIK-1177
p61
aVBATIK-1176
p62
aVBATIK-1175
p63
aVBATIK-1174
p64
aVBATIK-1173
p65
aVBATIK-1172
p66
aVBATIK-1171
p67
aVBATIK-1170
p68
aVBATIK-1169
p69
aVBATIK-1168
p70
aVBATIK-1167
p71
aVBATIK-1166
p72
aVBATIK-1165
p73
aVBATIK-1164
p74
aVBATIK-1163
p75
aVBATIK-1162
p76
aVBATIK-1161
p77
aVBATIK-1160
p78
aVBATIK-1159
p79
aVBATIK-1158
p80
aVBATIK-1157
p81
aVBATIK-1156
p82
aVBATIK-1155
p83
aVBATIK-1154
p84
aVBATIK-1153
p85
aVBATIK-1152
p86
aVBATIK-1151
p87
aVBATIK-1150
p88
aVBATIK-1149
p89
aVBATIK-1148
p90
aVBATIK-1147
p91
aVBATIK-1146
p92
aVBATIK-1145
p93
aVBATIK-1144
p94
aVBATIK-1143
p95
aVBATIK-1142
p96
aVBATIK-1141
p97
aVBATIK-1140
p98
aVBATIK-1139
p99
aVBATIK-1138
p100
aVBATIK-1137
p101
aVBATIK-1136
p102
aVBATIK-1135
p103
aVBATIK-1134
p104
aVBATIK-1133
p105
aVBATIK-1132
p106
aVBATIK-1131
p107
aVBATIK-1130
p108
aVBATIK-1129
p109
aVBATIK-1128
p110
aVBATIK-1127
p111
aVBATIK-1126
p112
aVBATIK-1125
p113
aVBATIK-1124
p114
aVBATIK-1123
p115
aVBATIK-1122
p116
aVBATIK-1121
p117
aVBATIK-1120
p118
aVBATIK-1119
p119
aVBATIK-1118
p120
aVBATIK-1117
p121
aVBATIK-1116
p122
aVBATIK-1115
p123
aVBATIK-1114
p124
aVBATIK-1113
p125
aVBATIK-1112
p126
aVBATIK-1111
p127
aVBATIK-1110
p128
aVBATIK-1109
p129
aVBATIK-1108
p130
aVBATIK-1107
p131
aVBATIK-1106
p132
aVBATIK-1105
p133
aVBATIK-1104
p134
aVBATIK-1103
p135
aVBATIK-1102
p136
aVBATIK-1101
p137
aVBATIK-1100
p138
aVBATIK-1099
p139
aVBATIK-1098
p140
aVBATIK-1097
p141
aVBATIK-1096
p142
aVBATIK-1095
p143
aVBATIK-1094
p144
aVBATIK-1093
p145
aVBATIK-1092
p146
aVBATIK-1091
p147
aVBATIK-1090
p148
aVBATIK-1089
p149
aVBATIK-1088
p150
aVBATIK-1087
p151
aVBATIK-1086
p152
aVBATIK-1085
p153
aVBATIK-1084
p154
aVBATIK-1083
p155
aVBATIK-1082
p156
aVBATIK-1081
p157
aVBATIK-1080
p158
aVBATIK-1079
p159
aVBATIK-1078
p160
aVBATIK-1077
p161
aVBATIK-1076
p162
aVBATIK-1075
p163
aVBATIK-1074
p164
aVBATIK-1073
p165
aVBATIK-1072
p166
aVBATIK-1071
p167
aVBATIK-1070
p168
aVBATIK-1069
p169
aVBATIK-1068
p170
aVBATIK-1067
p171
aVBATIK-1066
p172
aVBATIK-1065
p173
aVBATIK-1064
p174
aVBATIK-1063
p175
aVBATIK-1062
p176
aVBATIK-1061
p177
aVBATIK-1060
p178
aVBATIK-1059
p179
aVBATIK-1058
p180
aVBATIK-1057
p181
aVBATIK-1056
p182
aVBATIK-1055
p183
aVBATIK-1054
p184
aVBATIK-1053
p185
aVBATIK-1052
p186
aVBATIK-1051
p187
aVBATIK-1050
p188
aVBATIK-1049
p189
aVBATIK-1048
p190
aVBATIK-1047
p191
aVBATIK-1046
p192
aVBATIK-1045
p193
aVBATIK-1044
p194
aVBATIK-1043
p195
aVBATIK-1042
p196
aVBATIK-1041
p197
aVBATIK-1040
p198
aVBATIK-1039
p199
aVBATIK-1038
p200
aVBATIK-1037
p201
aVBATIK-1036
p202
aVBATIK-1035
p203
aVBATIK-1034
p204
aVBATIK-1033
p205
aVBATIK-1032
p206
aVBATIK-1031
p207
aVBATIK-1030
p208
aVBATIK-1029
p209
aVBATIK-1028
p210
aVBATIK-1027
p211
aVBATIK-1026
p212
aVBATIK-1025
p213
aVBATIK-1024
p214
aVBATIK-1023
p215
aVBATIK-1022
p216
aVBATIK-1021
p217
aVBATIK-1020
p218
aVBATIK-1019
p219
aVBATIK-1018
p220
aVBATIK-1017
p221
aVBATIK-1016
p222
aVBATIK-1015
p223
aVBATIK-1014
p224
aVBATIK-1013
p225
aVBATIK-1012
p226
aVBATIK-1011
p227
aVBATIK-1010
p228
aVBATIK-1009
p229
aVBATIK-1008
p230
aVBATIK-1007
p231
aVBATIK-1006
p232
aVBATIK-1005
p233
aVBATIK-1004
p234
aVBATIK-1003
p235
aVBATIK-1002
p236
aVBATIK-1001
p237
aVBATIK-1000
p238
aVBATIK-999
p239
aVBATIK-998
p240
aVBATIK-997
p241
aVBATIK-996
p242
aVBATIK-995
p243
aVBATIK-994
p244
aVBATIK-993
p245
aVBATIK-992
p246
aVBATIK-991
p247
aVBATIK-990
p248
aVBATIK-989
p249
aVBATIK-988
p250
aVBATIK-987
p251
aVBATIK-986
p252
aVBATIK-985
p253
aVBATIK-984
p254
aVBATIK-983
p255
aVBATIK-982
p256
aVBATIK-981
p257
aVBATIK-980
p258
aVBATIK-979
p259
aVBATIK-978
p260
aVBATIK-977
p261
aVBATIK-976
p262
aVBATIK-975
p263
aVBATIK-974
p264
aVBATIK-973
p265
aVBATIK-972
p266
aVBATIK-971
p267
aVBATIK-970
p268
aVBATIK-969
p269
aVBATIK-968
p270
aVBATIK-967
p271
aVBATIK-966
p272
aVBATIK-965
p273
aVBATIK-964
p274
aVBATIK-963
p275
aVBATIK-962
p276
aVBATIK-961
p277
aVBATIK-960
p278
aVBATIK-959
p279
aVBATIK-958
p280
aVBATIK-957
p281
aVBATIK-956
p282
aVBATIK-955
p283
aVBATIK-954
p284
aVBATIK-953
p285
aVBATIK-952
p286
aVBATIK-951
p287
aVBATIK-950
p288
aVBATIK-949
p289
aVBATIK-948
p290
aVBATIK-947
p291
aVBATIK-946
p292
aVBATIK-945
p293
aVBATIK-944
p294
aVBATIK-943
p295
aVBATIK-942
p296
aVBATIK-941
p297
aVBATIK-940
p298
aVBATIK-939
p299
aVBATIK-938
p300
aVBATIK-937
p301
aVBATIK-936
p302
aVBATIK-935
p303
aVBATIK-934
p304
aVBATIK-933
p305
aVBATIK-932
p306
aVBATIK-931
p307
aVBATIK-930
p308
aVBATIK-929
p309
aVBATIK-928
p310
aVBATIK-927
p311
aVBATIK-926
p312
aVBATIK-925
p313
aVBATIK-924
p314
aVBATIK-923
p315
aVBATIK-922
p316
aVBATIK-921
p317
aVBATIK-920
p318
aVBATIK-919
p319
aVBATIK-918
p320
aVBATIK-917
p321
aVBATIK-916
p322
aVBATIK-915
p323
aVBATIK-914
p324
aVBATIK-913
p325
aVBATIK-912
p326
aVBATIK-911
p327
aVBATIK-910
p328
aVBATIK-909
p329
aVBATIK-908
p330
aVBATIK-907
p331
aVBATIK-906
p332
aVBATIK-905
p333
aVBATIK-904
p334
aVBATIK-903
p335
aVBATIK-902
p336
aVBATIK-901
p337
aVBATIK-900
p338
aVBATIK-899
p339
aVBATIK-898
p340
aVBATIK-897
p341
aVBATIK-896
p342
aVBATIK-895
p343
aVBATIK-894
p344
aVBATIK-893
p345
aVBATIK-892
p346
aVBATIK-891
p347
aVBATIK-890
p348
aVBATIK-889
p349
aVBATIK-888
p350
aVBATIK-887
p351
aVBATIK-886
p352
aVBATIK-885
p353
aVBATIK-884
p354
aVBATIK-883
p355
aVBATIK-882
p356
aVBATIK-881
p357
aVBATIK-880
p358
aVBATIK-879
p359
aVBATIK-878
p360
aVBATIK-877
p361
aVBATIK-876
p362
aVBATIK-875
p363
aVBATIK-874
p364
aVBATIK-873
p365
aVBATIK-872
p366
aVBATIK-871
p367
aVBATIK-870
p368
aVBATIK-869
p369
aVBATIK-868
p370
aVBATIK-867
p371
aVBATIK-866
p372
aVBATIK-865
p373
aVBATIK-864
p374
aVBATIK-863
p375
aVBATIK-862
p376
aVBATIK-861
p377
aVBATIK-860
p378
aVBATIK-859
p379
aVBATIK-858
p380
aVBATIK-857
p381
aVBATIK-856
p382
aVBATIK-855
p383
aVBATIK-854
p384
aVBATIK-853
p385
aVBATIK-852
p386
aVBATIK-851
p387
aVBATIK-850
p388
aVBATIK-849
p389
aVBATIK-848
p390
aVBATIK-847
p391
aVBATIK-846
p392
aVBATIK-845
p393
aVBATIK-844
p394
aVBATIK-843
p395
aVBATIK-842
p396
aVBATIK-841
p397
aVBATIK-840
p398
aVBATIK-839
p399
aVBATIK-838
p400
aVBATIK-837
p401
aVBATIK-836
p402
aVBATIK-835
p403
aVBATIK-834
p404
aVBATIK-833
p405
aVBATIK-832
p406
aVBATIK-831
p407
aVBATIK-830
p408
aVBATIK-829
p409
aVBATIK-828
p410
aVBATIK-827
p411
aVBATIK-826
p412
aVBATIK-825
p413
aVBATIK-824
p414
aVBATIK-823
p415
aVBATIK-822
p416
aVBATIK-821
p417
aVBATIK-820
p418
aVBATIK-819
p419
aVBATIK-818
p420
aVBATIK-817
p421
aVBATIK-816
p422
aVBATIK-815
p423
aVBATIK-814
p424
aVBATIK-813
p425
aVBATIK-812
p426
aVBATIK-811
p427
aVBATIK-810
p428
aVBATIK-809
p429
aVBATIK-808
p430
aVBATIK-807
p431
aVBATIK-806
p432
aVBATIK-805
p433
aVBATIK-804
p434
aVBATIK-803
p435
aVBATIK-802
p436
aVBATIK-801
p437
aVBATIK-800
p438
aVBATIK-799
p439
aVBATIK-798
p440
aVBATIK-797
p441
aVBATIK-796
p442
aVBATIK-795
p443
aVBATIK-794
p444
aVBATIK-793
p445
aVBATIK-792
p446
aVBATIK-791
p447
aVBATIK-790
p448
aVBATIK-789
p449
aVBATIK-788
p450
aVBATIK-787
p451
aVBATIK-786
p452
aVBATIK-785
p453
aVBATIK-784
p454
aVBATIK-783
p455
aVBATIK-782
p456
aVBATIK-781
p457
aVBATIK-780
p458
aVBATIK-779
p459
aVBATIK-778
p460
aVBATIK-777
p461
aVBATIK-776
p462
aVBATIK-775
p463
aVBATIK-774
p464
aVBATIK-773
p465
aVBATIK-772
p466
aVBATIK-771
p467
aVBATIK-770
p468
aVBATIK-769
p469
aVBATIK-768
p470
aVBATIK-767
p471
aVBATIK-766
p472
aVBATIK-765
p473
aVBATIK-764
p474
aVBATIK-763
p475
aVBATIK-762
p476
aVBATIK-761
p477
aVBATIK-760
p478
aVBATIK-759
p479
aVBATIK-758
p480
aVBATIK-757
p481
aVBATIK-756
p482
aVBATIK-755
p483
aVBATIK-754
p484
aVBATIK-753
p485
aVBATIK-752
p486
aVBATIK-751
p487
aVBATIK-750
p488
aVBATIK-749
p489
aVBATIK-748
p490
aVBATIK-747
p491
aVBATIK-746
p492
aVBATIK-745
p493
aVBATIK-744
p494
aVBATIK-743
p495
aVBATIK-742
p496
aVBATIK-741
p497
aVBATIK-740
p498
aVBATIK-739
p499
aVBATIK-738
p500
aVBATIK-737
p501
aVBATIK-736
p502
aVBATIK-735
p503
aVBATIK-734
p504
aVBATIK-733
p505
aVBATIK-732
p506
aVBATIK-731
p507
aVBATIK-730
p508
aVBATIK-729
p509
aVBATIK-728
p510
aVBATIK-727
p511
aVBATIK-726
p512
aVBATIK-725
p513
aVBATIK-724
p514
aVBATIK-723
p515
aVBATIK-722
p516
aVBATIK-721
p517
aVBATIK-720
p518
aVBATIK-719
p519
aVBATIK-718
p520
aVBATIK-717
p521
aVBATIK-716
p522
aVBATIK-715
p523
aVBATIK-714
p524
aVBATIK-713
p525
aVBATIK-712
p526
aVBATIK-711
p527
aVBATIK-710
p528
aVBATIK-709
p529
aVBATIK-708
p530
aVBATIK-707
p531
aVBATIK-706
p532
aVBATIK-705
p533
aVBATIK-704
p534
aVBATIK-703
p535
aVBATIK-702
p536
aVBATIK-701
p537
aVBATIK-700
p538
aVBATIK-699
p539
aVBATIK-698
p540
aVBATIK-697
p541
aVBATIK-696
p542
aVBATIK-695
p543
aVBATIK-694
p544
aVBATIK-693
p545
aVBATIK-692
p546
aVBATIK-691
p547
aVBATIK-690
p548
aVBATIK-689
p549
aVBATIK-688
p550
aVBATIK-687
p551
aVBATIK-686
p552
aVBATIK-685
p553
aVBATIK-684
p554
aVBATIK-683
p555
aVBATIK-682
p556
aVBATIK-681
p557
aVBATIK-680
p558
aVBATIK-679
p559
aVBATIK-678
p560
aVBATIK-677
p561
aVBATIK-676
p562
aVBATIK-675
p563
aVBATIK-674
p564
aVBATIK-673
p565
aVBATIK-672
p566
aVBATIK-671
p567
aVBATIK-670
p568
aVBATIK-669
p569
aVBATIK-668
p570
aVBATIK-667
p571
aVBATIK-666
p572
aVBATIK-665
p573
aVBATIK-664
p574
aVBATIK-663
p575
aVBATIK-662
p576
aVBATIK-661
p577
aVBATIK-660
p578
aVBATIK-659
p579
aVBATIK-658
p580
aVBATIK-657
p581
aVBATIK-656
p582
aVBATIK-655
p583
aVBATIK-654
p584
aVBATIK-653
p585
aVBATIK-652
p586
aVBATIK-651
p587
aVBATIK-650
p588
aVBATIK-649
p589
aVBATIK-648
p590
aVBATIK-647
p591
aVBATIK-646
p592
aVBATIK-645
p593
aVBATIK-644
p594
aVBATIK-643
p595
aVBATIK-642
p596
aVBATIK-641
p597
aVBATIK-640
p598
aVBATIK-639
p599
aVBATIK-638
p600
aVBATIK-637
p601
aVBATIK-636
p602
aVBATIK-635
p603
aVBATIK-634
p604
aVBATIK-633
p605
aVBATIK-632
p606
aVBATIK-631
p607
aVBATIK-630
p608
aVBATIK-629
p609
aVBATIK-628
p610
aVBATIK-627
p611
aVBATIK-626
p612
aVBATIK-625
p613
aVBATIK-624
p614
aVBATIK-623
p615
aVBATIK-622
p616
aVBATIK-621
p617
aVBATIK-620
p618
aVBATIK-619
p619
aVBATIK-618
p620
aVBATIK-617
p621
aVBATIK-616
p622
aVBATIK-615
p623
aVBATIK-614
p624
aVBATIK-613
p625
aVBATIK-612
p626
aVBATIK-611
p627
aVBATIK-610
p628
aVBATIK-609
p629
aVBATIK-608
p630
aVBATIK-607
p631
aVBATIK-606
p632
aVBATIK-605
p633
aVBATIK-604
p634
aVBATIK-603
p635
aVBATIK-602
p636
aVBATIK-601
p637
aVBATIK-600
p638
aVBATIK-599
p639
aVBATIK-598
p640
aVBATIK-597
p641
aVBATIK-596
p642
aVBATIK-595
p643
aVBATIK-594
p644
aVBATIK-593
p645
aVBATIK-592
p646
aVBATIK-591
p647
aVBATIK-590
p648
aVBATIK-589
p649
aVBATIK-588
p650
aVBATIK-587
p651
aVBATIK-586
p652
aVBATIK-585
p653
aVBATIK-584
p654
aVBATIK-583
p655
aVBATIK-582
p656
aVBATIK-581
p657
aVBATIK-580
p658
aVBATIK-579
p659
aVBATIK-578
p660
aVBATIK-577
p661
aVBATIK-576
p662
aVBATIK-575
p663
aVBATIK-574
p664
aVBATIK-573
p665
aVBATIK-572
p666
aVBATIK-571
p667
aVBATIK-570
p668
aVBATIK-569
p669
aVBATIK-568
p670
aVBATIK-567
p671
aVBATIK-566
p672
aVBATIK-565
p673
aVBATIK-564
p674
aVBATIK-563
p675
aVBATIK-562
p676
aVBATIK-561
p677
aVBATIK-560
p678
aVBATIK-559
p679
aVBATIK-558
p680
aVBATIK-557
p681
aVBATIK-556
p682
aVBATIK-555
p683
aVBATIK-554
p684
aVBATIK-553
p685
aVBATIK-552
p686
aVBATIK-551
p687
aVBATIK-550
p688
aVBATIK-549
p689
aVBATIK-548
p690
aVBATIK-547
p691
aVBATIK-546
p692
aVBATIK-545
p693
aVBATIK-544
p694
aVBATIK-543
p695
aVBATIK-542
p696
aVBATIK-541
p697
aVBATIK-540
p698
aVBATIK-539
p699
aVBATIK-538
p700
aVBATIK-537
p701
aVBATIK-536
p702
aVBATIK-535
p703
aVBATIK-534
p704
aVBATIK-533
p705
aVBATIK-532
p706
aVBATIK-531
p707
aVBATIK-530
p708
aVBATIK-529
p709
aVBATIK-528
p710
aVBATIK-527
p711
aVBATIK-526
p712
aVBATIK-525
p713
aVBATIK-524
p714
aVBATIK-523
p715
aVBATIK-522
p716
aVBATIK-521
p717
aVBATIK-520
p718
aVBATIK-519
p719
aVBATIK-518
p720
aVBATIK-517
p721
aVBATIK-516
p722
aVBATIK-515
p723
aVBATIK-514
p724
aVBATIK-513
p725
aVBATIK-512
p726
aVBATIK-511
p727
aVBATIK-510
p728
aVBATIK-509
p729
aVBATIK-508
p730
aVBATIK-507
p731
aVBATIK-506
p732
aVBATIK-505
p733
aVBATIK-504
p734
aVBATIK-503
p735
aVBATIK-502
p736
aVBATIK-501
p737
aVBATIK-500
p738
aVBATIK-499
p739
aVBATIK-498
p740
aVBATIK-497
p741
aVBATIK-496
p742
aVBATIK-495
p743
aVBATIK-494
p744
aVBATIK-493
p745
aVBATIK-492
p746
aVBATIK-491
p747
aVBATIK-490
p748
aVBATIK-489
p749
aVBATIK-488
p750
aVBATIK-487
p751
aVBATIK-486
p752
aVBATIK-485
p753
aVBATIK-484
p754
aVBATIK-483
p755
aVBATIK-482
p756
aVBATIK-481
p757
aVBATIK-480
p758
aVBATIK-479
p759
aVBATIK-478
p760
aVBATIK-477
p761
aVBATIK-476
p762
aVBATIK-475
p763
aVBATIK-474
p764
aVBATIK-473
p765
aVBATIK-472
p766
aVBATIK-471
p767
aVBATIK-470
p768
aVBATIK-469
p769
aVBATIK-468
p770
aVBATIK-467
p771
aVBATIK-466
p772
aVBATIK-465
p773
aVBATIK-464
p774
aVBATIK-463
p775
aVBATIK-462
p776
aVBATIK-461
p777
aVBATIK-460
p778
aVBATIK-459
p779
aVBATIK-458
p780
aVBATIK-457
p781
aVBATIK-456
p782
aVBATIK-455
p783
aVBATIK-454
p784
aVBATIK-453
p785
aVBATIK-452
p786
aVBATIK-451
p787
aVBATIK-450
p788
aVBATIK-449
p789
aVBATIK-448
p790
aVBATIK-447
p791
aVBATIK-446
p792
aVBATIK-445
p793
aVBATIK-444
p794
aVBATIK-443
p795
aVBATIK-442
p796
aVBATIK-441
p797
aVBATIK-440
p798
aVBATIK-439
p799
aVBATIK-438
p800
aVBATIK-437
p801
aVBATIK-436
p802
aVBATIK-435
p803
aVBATIK-434
p804
aVBATIK-433
p805
aVBATIK-432
p806
aVBATIK-431
p807
aVBATIK-430
p808
aVBATIK-429
p809
aVBATIK-428
p810
aVBATIK-427
p811
aVBATIK-426
p812
aVBATIK-425
p813
aVBATIK-424
p814
aVBATIK-423
p815
aVBATIK-422
p816
aVBATIK-421
p817
aVBATIK-420
p818
aVBATIK-419
p819
aVBATIK-418
p820
aVBATIK-417
p821
aVBATIK-416
p822
aVBATIK-415
p823
aVBATIK-414
p824
aVBATIK-413
p825
aVBATIK-412
p826
aVBATIK-411
p827
aVBATIK-410
p828
aVBATIK-409
p829
aVBATIK-408
p830
aVBATIK-407
p831
aVBATIK-406
p832
aVBATIK-405
p833
aVBATIK-404
p834
aVBATIK-403
p835
aVBATIK-402
p836
aVBATIK-401
p837
aVBATIK-400
p838
aVBATIK-399
p839
aVBATIK-398
p840
aVBATIK-397
p841
aVBATIK-396
p842
aVBATIK-395
p843
aVBATIK-394
p844
aVBATIK-393
p845
aVBATIK-392
p846
aVBATIK-391
p847
aVBATIK-390
p848
aVBATIK-389
p849
aVBATIK-388
p850
aVBATIK-387
p851
aVBATIK-386
p852
aVBATIK-385
p853
aVBATIK-384
p854
aVBATIK-383
p855
aVBATIK-382
p856
aVBATIK-381
p857
aVBATIK-380
p858
aVBATIK-379
p859
aVBATIK-378
p860
aVBATIK-377
p861
aVBATIK-376
p862
aVBATIK-375
p863
aVBATIK-374
p864
aVBATIK-373
p865
aVBATIK-372
p866
aVBATIK-371
p867
aVBATIK-370
p868
aVBATIK-369
p869
aVBATIK-368
p870
aVBATIK-367
p871
aVBATIK-366
p872
aVBATIK-365
p873
aVBATIK-364
p874
aVBATIK-363
p875
aVBATIK-362
p876
aVBATIK-361
p877
aVBATIK-360
p878
aVBATIK-359
p879
aVBATIK-358
p880
aVBATIK-357
p881
aVBATIK-356
p882
aVBATIK-355
p883
aVBATIK-354
p884
aVBATIK-353
p885
aVBATIK-352
p886
aVBATIK-351
p887
aVBATIK-350
p888
aVBATIK-349
p889
aVBATIK-348
p890
aVBATIK-347
p891
aVBATIK-346
p892
aVBATIK-345
p893
aVBATIK-344
p894
aVBATIK-343
p895
aVBATIK-342
p896
aVBATIK-341
p897
aVBATIK-340
p898
aVBATIK-339
p899
aVBATIK-338
p900
aVBATIK-337
p901
aVBATIK-336
p902
aVBATIK-335
p903
aVBATIK-334
p904
aVBATIK-333
p905
aVBATIK-332
p906
aVBATIK-331
p907
aVBATIK-330
p908
aVBATIK-329
p909
aVBATIK-328
p910
aVBATIK-327
p911
aVBATIK-326
p912
aVBATIK-325
p913
aVBATIK-324
p914
aVBATIK-323
p915
aVBATIK-322
p916
aVBATIK-321
p917
aVBATIK-320
p918
aVBATIK-319
p919
aVBATIK-318
p920
aVBATIK-317
p921
aVBATIK-316
p922
aVBATIK-315
p923
aVBATIK-314
p924
aVBATIK-313
p925
aVBATIK-312
p926
aVBATIK-311
p927
aVBATIK-310
p928
aVBATIK-309
p929
aVBATIK-308
p930
aVBATIK-307
p931
aVBATIK-306
p932
aVBATIK-305
p933
aVBATIK-304
p934
aVBATIK-303
p935
aVBATIK-302
p936
aVBATIK-301
p937
aVBATIK-300
p938
aVBATIK-299
p939
aVBATIK-298
p940
aVBATIK-297
p941
aVBATIK-296
p942
aVBATIK-295
p943
aVBATIK-294
p944
aVBATIK-293
p945
aVBATIK-292
p946
aVBATIK-291
p947
aVBATIK-290
p948
aVBATIK-289
p949
aVBATIK-288
p950
aVBATIK-287
p951
aVBATIK-286
p952
aVBATIK-285
p953
aVBATIK-284
p954
aVBATIK-283
p955
aVBATIK-282
p956
aVBATIK-281
p957
aVBATIK-280
p958
aVBATIK-279
p959
aVBATIK-278
p960
aVBATIK-277
p961
aVBATIK-276
p962
aVBATIK-275
p963
aVBATIK-274
p964
aVBATIK-273
p965
aVBATIK-272
p966
aVBATIK-271
p967
aVBATIK-270
p968
aVBATIK-269
p969
aVBATIK-268
p970
aVBATIK-267
p971
aVBATIK-266
p972
aVBATIK-265
p973
aVBATIK-264
p974
aVBATIK-263
p975
aVBATIK-262
p976
aVBATIK-261
p977
aVBATIK-260
p978
aVBATIK-259
p979
aVBATIK-258
p980
aVBATIK-257
p981
aVBATIK-256
p982
aVBATIK-255
p983
aVBATIK-254
p984
aVBATIK-253
p985
aVBATIK-252
p986
aVBATIK-251
p987
aVBATIK-250
p988
aVBATIK-249
p989
aVBATIK-248
p990
aVBATIK-247
p991
aVBATIK-246
p992
aVBATIK-245
p993
aVBATIK-244
p994
aVBATIK-243
p995
aVBATIK-242
p996
aVBATIK-241
p997
aVBATIK-240
p998
aVBATIK-239
p999
aVBATIK-238
p1000
aVBATIK-237
p1001
aVBATIK-236
p1002
aVBATIK-235
p1003
aVBATIK-234
p1004
aVBATIK-233
p1005
aVBATIK-232
p1006
aVBATIK-231
p1007
aVBATIK-230
p1008
aVBATIK-229
p1009
aVBATIK-228
p1010
aVBATIK-227
p1011
aVBATIK-226
p1012
aVBATIK-225
p1013
aVBATIK-224
p1014
aVBATIK-223
p1015
aVBATIK-222
p1016
aVBATIK-221
p1017
aVBATIK-220
p1018
aVBATIK-219
p1019
aVBATIK-218
p1020
aVBATIK-217
p1021
aVBATIK-216
p1022
aVBATIK-215
p1023
aVBATIK-214
p1024
aVBATIK-213
p1025
aVBATIK-212
p1026
aVBATIK-211
p1027
aVBATIK-210
p1028
aVBATIK-209
p1029
aVBATIK-208
p1030
aVBATIK-207
p1031
aVBATIK-206
p1032
aVBATIK-205
p1033
aVBATIK-204
p1034
aVBATIK-203
p1035
aVBATIK-202
p1036
aVBATIK-201
p1037
aVBATIK-200
p1038
aVBATIK-199
p1039
aVBATIK-198
p1040
aVBATIK-197
p1041
aVBATIK-196
p1042
aVBATIK-195
p1043
aVBATIK-194
p1044
aVBATIK-193
p1045
aVBATIK-192
p1046
aVBATIK-191
p1047
aVBATIK-190
p1048
aVBATIK-189
p1049
aVBATIK-188
p1050
aVBATIK-187
p1051
aVBATIK-186
p1052
aVBATIK-185
p1053
aVBATIK-184
p1054
aVBATIK-183
p1055
aVBATIK-182
p1056
aVBATIK-181
p1057
aVBATIK-180
p1058
aVBATIK-179
p1059
aVBATIK-178
p1060
aVBATIK-177
p1061
aVBATIK-176
p1062
aVBATIK-175
p1063
aVBATIK-174
p1064
aVBATIK-173
p1065
aVBATIK-172
p1066
aVBATIK-171
p1067
aVBATIK-170
p1068
aVBATIK-169
p1069
aVBATIK-168
p1070
aVBATIK-167
p1071
aVBATIK-166
p1072
aVBATIK-165
p1073
aVBATIK-164
p1074
aVBATIK-163
p1075
aVBATIK-162
p1076
aVBATIK-161
p1077
aVBATIK-160
p1078
aVBATIK-159
p1079
aVBATIK-158
p1080
aVBATIK-157
p1081
aVBATIK-156
p1082
aVBATIK-155
p1083
aVBATIK-154
p1084
aVBATIK-153
p1085
aVBATIK-152
p1086
aVBATIK-151
p1087
aVBATIK-150
p1088
aVBATIK-149
p1089
aVBATIK-148
p1090
aVBATIK-147
p1091
aVBATIK-146
p1092
aVBATIK-145
p1093
aVBATIK-144
p1094
aVBATIK-143
p1095
aVBATIK-142
p1096
aVBATIK-141
p1097
aVBATIK-140
p1098
aVBATIK-139
p1099
aVBATIK-138
p1100
aVBATIK-137
p1101
aVBATIK-136
p1102
aVBATIK-135
p1103
aVBATIK-134
p1104
aVBATIK-133
p1105
aVBATIK-132
p1106
aVBATIK-131
p1107
aVBATIK-130
p1108
aVBATIK-129
p1109
aVBATIK-128
p1110
aVBATIK-127
p1111
aVBATIK-126
p1112
aVBATIK-125
p1113
aVBATIK-124
p1114
aVBATIK-123
p1115
aVBATIK-122
p1116
aVBATIK-121
p1117
aVBATIK-120
p1118
aVBATIK-119
p1119
aVBATIK-118
p1120
aVBATIK-117
p1121
aVBATIK-116
p1122
aVBATIK-115
p1123
aVBATIK-114
p1124
aVBATIK-113
p1125
aVBATIK-112
p1126
aVBATIK-111
p1127
aVBATIK-110
p1128
aVBATIK-109
p1129
aVBATIK-108
p1130
aVBATIK-107
p1131
aVBATIK-106
p1132
aVBATIK-105
p1133
aVBATIK-104
p1134
aVBATIK-103
p1135
aVBATIK-102
p1136
aVBATIK-101
p1137
aVBATIK-100
p1138
aVBATIK-99
p1139
aVBATIK-98
p1140
aVBATIK-97
p1141
aVBATIK-96
p1142
aVBATIK-95
p1143
aVBATIK-94
p1144
aVBATIK-93
p1145
aVBATIK-92
p1146
aVBATIK-91
p1147
aVBATIK-90
p1148
aVBATIK-89
p1149
aVBATIK-88
p1150
aVBATIK-87
p1151
aVBATIK-86
p1152
aVBATIK-85
p1153
aVBATIK-84
p1154
aVBATIK-83
p1155
aVBATIK-82
p1156
aVBATIK-81
p1157
aVBATIK-80
p1158
aVBATIK-79
p1159
aVBATIK-78
p1160
aVBATIK-77
p1161
aVBATIK-76
p1162
aVBATIK-75
p1163
aVBATIK-74
p1164
aVBATIK-73
p1165
aVBATIK-72
p1166
aVBATIK-71
p1167
aVBATIK-70
p1168
aVBATIK-69
p1169
aVBATIK-68
p1170
aVBATIK-67
p1171
aVBATIK-66
p1172
aVBATIK-65
p1173
aVBATIK-64
p1174
aVBATIK-63
p1175
aVBATIK-62
p1176
aVBATIK-61
p1177
aVBATIK-60
p1178
aVBATIK-59
p1179
aVBATIK-58
p1180
aVBATIK-57
p1181
aVBATIK-56
p1182
aVBATIK-55
p1183
aVBATIK-54
p1184
aVBATIK-53
p1185
aVBATIK-52
p1186
aVBATIK-51
p1187
aVBATIK-50
p1188
aVBATIK-49
p1189
aVBATIK-48
p1190
aVBATIK-47
p1191
aVBATIK-46
p1192
aVBATIK-45
p1193
aVBATIK-44
p1194
aVBATIK-43
p1195
aVBATIK-42
p1196
aVBATIK-41
p1197
aVBATIK-40
p1198
aVBATIK-39
p1199
aVBATIK-38
p1200
aVBATIK-37
p1201
aVBATIK-36
p1202
aVBATIK-35
p1203
aVBATIK-34
p1204
aVBATIK-33
p1205
aVBATIK-32
p1206
aVBATIK-31
p1207
aVBATIK-30
p1208
aVBATIK-29
p1209
aVBATIK-28
p1210
aVBATIK-27
p1211
aVBATIK-26
p1212
aVBATIK-25
p1213
aVBATIK-24
p1214
aVBATIK-23
p1215
aVBATIK-22
p1216
aVBATIK-21
p1217
aVBATIK-20
p1218
aVBATIK-19
p1219
aVBATIK-18
p1220
aVBATIK-17
p1221
aVBATIK-16
p1222
aVBATIK-15
p1223
aVBATIK-14
p1224
aVBATIK-13
p1225
aVBATIK-12
p1226
aVBATIK-11
p1227
aVBATIK-10
p1228
aVBATIK-9
p1229
aVBATIK-8
p1230
aVBATIK-7
p1231
aVBATIK-6
p1232
aVBATIK-5
p1233
aVBATIK-4
p1234
aVBATIK-3
p1235
aVBATIK-2
p1236
aVBATIK-1
p1237
a.