(lp0
VBCEL-305
p1
aVBCEL-304
p2
aVBCEL-303
p3
aVBCEL-302
p4
aVBCEL-301
p5
aVBCEL-300
p6
aVBCEL-299
p7
aVBCEL-298
p8
aVBCEL-297
p9
aVBCEL-296
p10
aVBCEL-295
p11
aVBCEL-294
p12
aVBCEL-293
p13
aVBCEL-292
p14
aVBCEL-291
p15
aVBCEL-290
p16
aVBCEL-289
p17
aVBCEL-288
p18
aVBCEL-287
p19
aVBCEL-286
p20
aVBCEL-285
p21
aVBCEL-284
p22
aVBCEL-283
p23
aVBCEL-282
p24
aVBCEL-281
p25
aVBCEL-280
p26
aVBCEL-279
p27
aVBCEL-278
p28
aVBCEL-277
p29
aVBCEL-276
p30
aVBCEL-275
p31
aVBCEL-274
p32
aVBCEL-273
p33
aVBCEL-272
p34
aVBCEL-271
p35
aVBCEL-270
p36
aVBCEL-269
p37
aVBCEL-268
p38
aVBCEL-267
p39
aVBCEL-266
p40
aVBCEL-265
p41
aVBCEL-264
p42
aVBCEL-263
p43
aVBCEL-262
p44
aVBCEL-261
p45
aVBCEL-260
p46
aVBCEL-259
p47
aVBCEL-258
p48
aVBCEL-257
p49
aVBCEL-256
p50
aVBCEL-255
p51
aVBCEL-254
p52
aVBCEL-253
p53
aVBCEL-252
p54
aVBCEL-251
p55
aVBCEL-250
p56
aVBCEL-249
p57
aVBCEL-248
p58
aVBCEL-247
p59
aVBCEL-246
p60
aVBCEL-245
p61
aVBCEL-244
p62
aVBCEL-243
p63
aVBCEL-242
p64
aVBCEL-241
p65
aVBCEL-240
p66
aVBCEL-239
p67
aVBCEL-238
p68
aVBCEL-237
p69
aVBCEL-236
p70
aVBCEL-235
p71
aVBCEL-234
p72
aVBCEL-233
p73
aVBCEL-232
p74
aVBCEL-231
p75
aVBCEL-230
p76
aVBCEL-229
p77
aVBCEL-228
p78
aVBCEL-227
p79
aVBCEL-226
p80
aVBCEL-225
p81
aVBCEL-224
p82
aVBCEL-223
p83
aVBCEL-222
p84
aVBCEL-221
p85
aVBCEL-220
p86
aVBCEL-219
p87
aVBCEL-218
p88
aVBCEL-217
p89
aVBCEL-216
p90
aVBCEL-215
p91
aVBCEL-214
p92
aVBCEL-213
p93
aVBCEL-212
p94
aVBCEL-211
p95
aVBCEL-210
p96
aVBCEL-209
p97
aVBCEL-208
p98
aVBCEL-207
p99
aVBCEL-206
p100
aVBCEL-205
p101
aVBCEL-204
p102
aVBCEL-203
p103
aVBCEL-202
p104
aVBCEL-201
p105
aVBCEL-200
p106
aVBCEL-199
p107
aVBCEL-198
p108
aVBCEL-197
p109
aVBCEL-196
p110
aVBCEL-195
p111
aVBCEL-194
p112
aVBCEL-193
p113
aVBCEL-192
p114
aVBCEL-191
p115
aVBCEL-190
p116
aVBCEL-189
p117
aVBCEL-188
p118
aVBCEL-187
p119
aVBCEL-186
p120
aVBCEL-185
p121
aVBCEL-184
p122
aVBCEL-183
p123
aVBCEL-182
p124
aVBCEL-181
p125
aVBCEL-180
p126
aVBCEL-179
p127
aVBCEL-178
p128
aVBCEL-177
p129
aVBCEL-176
p130
aVBCEL-175
p131
aVBCEL-174
p132
aVBCEL-173
p133
aVBCEL-172
p134
aVBCEL-171
p135
aVBCEL-170
p136
aVBCEL-169
p137
aVBCEL-168
p138
aVBCEL-167
p139
aVBCEL-165
p140
aVBCEL-164
p141
aVBCEL-163
p142
aVBCEL-162
p143
aVBCEL-161
p144
aVBCEL-160
p145
aVBCEL-159
p146
aVBCEL-158
p147
aVBCEL-157
p148
aVBCEL-156
p149
aVBCEL-155
p150
aVBCEL-154
p151
aVBCEL-153
p152
aVBCEL-152
p153
aVBCEL-151
p154
aVBCEL-150
p155
aVBCEL-148
p156
aVBCEL-147
p157
aVBCEL-146
p158
aVBCEL-145
p159
aVBCEL-144
p160
aVBCEL-143
p161
aVBCEL-142
p162
aVBCEL-141
p163
aVBCEL-140
p164
aVBCEL-139
p165
aVBCEL-138
p166
aVBCEL-137
p167
aVBCEL-136
p168
aVBCEL-135
p169
aVBCEL-134
p170
aVBCEL-133
p171
aVBCEL-132
p172
aVBCEL-131
p173
aVBCEL-130
p174
aVBCEL-129
p175
aVBCEL-127
p176
aVBCEL-126
p177
aVBCEL-125
p178
aVBCEL-124
p179
aVBCEL-123
p180
aVBCEL-122
p181
aVBCEL-121
p182
aVBCEL-120
p183
aVBCEL-119
p184
aVBCEL-118
p185
aVBCEL-117
p186
aVBCEL-116
p187
aVBCEL-115
p188
aVBCEL-114
p189
aVBCEL-113
p190
aVBCEL-112
p191
aVBCEL-111
p192
aVBCEL-110
p193
aVBCEL-109
p194
aVBCEL-108
p195
aVBCEL-107
p196
aVBCEL-106
p197
aVBCEL-105
p198
aVBCEL-104
p199
aVBCEL-103
p200
aVBCEL-102
p201
aVBCEL-101
p202
aVBCEL-100
p203
aVBCEL-99
p204
aVBCEL-98
p205
aVBCEL-97
p206
aVBCEL-96
p207
aVBCEL-95
p208
aVBCEL-94
p209
aVBCEL-93
p210
aVBCEL-92
p211
aVBCEL-91
p212
aVBCEL-90
p213
aVBCEL-89
p214
aVBCEL-88
p215
aVBCEL-87
p216
aVBCEL-86
p217
aVBCEL-85
p218
aVBCEL-84
p219
aVBCEL-83
p220
aVBCEL-82
p221
aVBCEL-81
p222
aVBCEL-80
p223
aVBCEL-79
p224
aVBCEL-78
p225
aVBCEL-77
p226
aVBCEL-76
p227
aVBCEL-75
p228
aVBCEL-74
p229
aVBCEL-73
p230
aVBCEL-72
p231
aVBCEL-71
p232
aVBCEL-70
p233
aVBCEL-69
p234
aVBCEL-68
p235
aVBCEL-67
p236
aVBCEL-66
p237
aVBCEL-65
p238
aVBCEL-64
p239
aVBCEL-63
p240
aVBCEL-62
p241
aVBCEL-61
p242
aVBCEL-60
p243
aVBCEL-59
p244
aVBCEL-58
p245
aVBCEL-57
p246
aVBCEL-56
p247
aVBCEL-55
p248
aVBCEL-54
p249
aVBCEL-53
p250
aVBCEL-52
p251
aVBCEL-51
p252
aVBCEL-50
p253
aVBCEL-49
p254
aVBCEL-48
p255
aVBCEL-47
p256
aVBCEL-46
p257
aVBCEL-45
p258
aVBCEL-44
p259
aVBCEL-43
p260
aVBCEL-42
p261
aVBCEL-41
p262
aVBCEL-40
p263
aVBCEL-39
p264
aVBCEL-38
p265
aVBCEL-37
p266
aVBCEL-36
p267
aVBCEL-35
p268
aVBCEL-34
p269
aVBCEL-33
p270
aVBCEL-32
p271
aVBCEL-31
p272
aVBCEL-30
p273
aVBCEL-29
p274
aVBCEL-28
p275
aVBCEL-27
p276
aVBCEL-26
p277
aVBCEL-25
p278
aVBCEL-24
p279
aVBCEL-23
p280
aVBCEL-22
p281
aVBCEL-21
p282
aVBCEL-20
p283
aVBCEL-19
p284
aVBCEL-18
p285
aVBCEL-17
p286
aVBCEL-16
p287
aVBCEL-15
p288
aVBCEL-14
p289
aVBCEL-13
p290
aVBCEL-12
p291
aVBCEL-11
p292
aVBCEL-10
p293
aVBCEL-9
p294
aVBCEL-8
p295
aVBCEL-7
p296
aVBCEL-6
p297
aVBCEL-5
p298
aVBCEL-4
p299
aVBCEL-3
p300
aVBCEL-2
p301
aVBCEL-1
p302
a.