(lp0
VBEAM-5073
p1
aVBEAM-5072
p2
aVBEAM-5071
p3
aVBEAM-5070
p4
aVBEAM-5069
p5
aVBEAM-5068
p6
aVBEAM-5067
p7
aVBEAM-5066
p8
aVBEAM-5065
p9
aVBEAM-5064
p10
aVBEAM-5063
p11
aVBEAM-5062
p12
aVBEAM-5061
p13
aVBEAM-5060
p14
aVBEAM-5059
p15
aVBEAM-5058
p16
aVBEAM-5057
p17
aVBEAM-5056
p18
aVBEAM-5055
p19
aVBEAM-5054
p20
aVBEAM-5053
p21
aVBEAM-5052
p22
aVBEAM-5051
p23
aVBEAM-5050
p24
aVBEAM-5049
p25
aVBEAM-5048
p26
aVBEAM-5047
p27
aVBEAM-5046
p28
aVBEAM-5045
p29
aVBEAM-5044
p30
aVBEAM-5043
p31
aVBEAM-5042
p32
aVBEAM-5041
p33
aVBEAM-5040
p34
aVBEAM-5039
p35
aVBEAM-5038
p36
aVBEAM-5037
p37
aVBEAM-5036
p38
aVBEAM-5035
p39
aVBEAM-5034
p40
aVBEAM-5033
p41
aVBEAM-5032
p42
aVBEAM-5031
p43
aVBEAM-5030
p44
aVBEAM-5029
p45
aVBEAM-5028
p46
aVBEAM-5027
p47
aVBEAM-5026
p48
aVBEAM-5025
p49
aVBEAM-5024
p50
aVBEAM-5023
p51
aVBEAM-5022
p52
aVBEAM-5021
p53
aVBEAM-5020
p54
aVBEAM-5019
p55
aVBEAM-5018
p56
aVBEAM-5017
p57
aVBEAM-5016
p58
aVBEAM-5015
p59
aVBEAM-5014
p60
aVBEAM-5013
p61
aVBEAM-5012
p62
aVBEAM-5011
p63
aVBEAM-5010
p64
aVBEAM-5009
p65
aVBEAM-5008
p66
aVBEAM-5007
p67
aVBEAM-5006
p68
aVBEAM-5005
p69
aVBEAM-5004
p70
aVBEAM-5003
p71
aVBEAM-5002
p72
aVBEAM-5001
p73
aVBEAM-5000
p74
aVBEAM-4999
p75
aVBEAM-4998
p76
aVBEAM-4997
p77
aVBEAM-4996
p78
aVBEAM-4995
p79
aVBEAM-4994
p80
aVBEAM-4993
p81
aVBEAM-4992
p82
aVBEAM-4991
p83
aVBEAM-4990
p84
aVBEAM-4989
p85
aVBEAM-4988
p86
aVBEAM-4987
p87
aVBEAM-4986
p88
aVBEAM-4985
p89
aVBEAM-4984
p90
aVBEAM-4983
p91
aVBEAM-4982
p92
aVBEAM-4981
p93
aVBEAM-4980
p94
aVBEAM-4979
p95
aVBEAM-4978
p96
aVBEAM-4977
p97
aVBEAM-4976
p98
aVBEAM-4975
p99
aVBEAM-4974
p100
aVBEAM-4973
p101
aVBEAM-4972
p102
aVBEAM-4971
p103
aVBEAM-4970
p104
aVBEAM-4969
p105
aVBEAM-4968
p106
aVBEAM-4967
p107
aVBEAM-4966
p108
aVBEAM-4965
p109
aVBEAM-4964
p110
aVBEAM-4963
p111
aVBEAM-4962
p112
aVBEAM-4961
p113
aVBEAM-4960
p114
aVBEAM-4959
p115
aVBEAM-4958
p116
aVBEAM-4957
p117
aVBEAM-4956
p118
aVBEAM-4955
p119
aVBEAM-4954
p120
aVBEAM-4953
p121
aVBEAM-4952
p122
aVBEAM-4951
p123
aVBEAM-4950
p124
aVBEAM-4949
p125
aVBEAM-4948
p126
aVBEAM-4947
p127
aVBEAM-4946
p128
aVBEAM-4945
p129
aVBEAM-4944
p130
aVBEAM-4943
p131
aVBEAM-4942
p132
aVBEAM-4941
p133
aVBEAM-4940
p134
aVBEAM-4939
p135
aVBEAM-4938
p136
aVBEAM-4937
p137
aVBEAM-4936
p138
aVBEAM-4935
p139
aVBEAM-4934
p140
aVBEAM-4933
p141
aVBEAM-4932
p142
aVBEAM-4931
p143
aVBEAM-4930
p144
aVBEAM-4929
p145
aVBEAM-4928
p146
aVBEAM-4927
p147
aVBEAM-4926
p148
aVBEAM-4925
p149
aVBEAM-4924
p150
aVBEAM-4923
p151
aVBEAM-4922
p152
aVBEAM-4921
p153
aVBEAM-4920
p154
aVBEAM-4919
p155
aVBEAM-4918
p156
aVBEAM-4917
p157
aVBEAM-4916
p158
aVBEAM-4915
p159
aVBEAM-4914
p160
aVBEAM-4913
p161
aVBEAM-4912
p162
aVBEAM-4911
p163
aVBEAM-4910
p164
aVBEAM-4909
p165
aVBEAM-4908
p166
aVBEAM-4907
p167
aVBEAM-4906
p168
aVBEAM-4905
p169
aVBEAM-4904
p170
aVBEAM-4903
p171
aVBEAM-4902
p172
aVBEAM-4901
p173
aVBEAM-4900
p174
aVBEAM-4899
p175
aVBEAM-4898
p176
aVBEAM-4897
p177
aVBEAM-4896
p178
aVBEAM-4895
p179
aVBEAM-4894
p180
aVBEAM-4893
p181
aVBEAM-4892
p182
aVBEAM-4891
p183
aVBEAM-4890
p184
aVBEAM-4889
p185
aVBEAM-4888
p186
aVBEAM-4887
p187
aVBEAM-4886
p188
aVBEAM-4885
p189
aVBEAM-4884
p190
aVBEAM-4883
p191
aVBEAM-4882
p192
aVBEAM-4881
p193
aVBEAM-4880
p194
aVBEAM-4879
p195
aVBEAM-4878
p196
aVBEAM-4877
p197
aVBEAM-4876
p198
aVBEAM-4875
p199
aVBEAM-4874
p200
aVBEAM-4873
p201
aVBEAM-4872
p202
aVBEAM-4871
p203
aVBEAM-4870
p204
aVBEAM-4869
p205
aVBEAM-4868
p206
aVBEAM-4867
p207
aVBEAM-4866
p208
aVBEAM-4865
p209
aVBEAM-4864
p210
aVBEAM-4863
p211
aVBEAM-4862
p212
aVBEAM-4861
p213
aVBEAM-4860
p214
aVBEAM-4859
p215
aVBEAM-4858
p216
aVBEAM-4857
p217
aVBEAM-4856
p218
aVBEAM-4855
p219
aVBEAM-4854
p220
aVBEAM-4853
p221
aVBEAM-4852
p222
aVBEAM-4851
p223
aVBEAM-4850
p224
aVBEAM-4849
p225
aVBEAM-4848
p226
aVBEAM-4847
p227
aVBEAM-4846
p228
aVBEAM-4845
p229
aVBEAM-4844
p230
aVBEAM-4843
p231
aVBEAM-4842
p232
aVBEAM-4841
p233
aVBEAM-4840
p234
aVBEAM-4839
p235
aVBEAM-4838
p236
aVBEAM-4837
p237
aVBEAM-4836
p238
aVBEAM-4835
p239
aVBEAM-4834
p240
aVBEAM-4833
p241
aVBEAM-4832
p242
aVBEAM-4831
p243
aVBEAM-4830
p244
aVBEAM-4829
p245
aVBEAM-4828
p246
aVBEAM-4827
p247
aVBEAM-4826
p248
aVBEAM-4825
p249
aVBEAM-4824
p250
aVBEAM-4823
p251
aVBEAM-4822
p252
aVBEAM-4821
p253
aVBEAM-4820
p254
aVBEAM-4819
p255
aVBEAM-4818
p256
aVBEAM-4817
p257
aVBEAM-4816
p258
aVBEAM-4815
p259
aVBEAM-4814
p260
aVBEAM-4813
p261
aVBEAM-4812
p262
aVBEAM-4811
p263
aVBEAM-4810
p264
aVBEAM-4809
p265
aVBEAM-4808
p266
aVBEAM-4807
p267
aVBEAM-4806
p268
aVBEAM-4805
p269
aVBEAM-4804
p270
aVBEAM-4803
p271
aVBEAM-4802
p272
aVBEAM-4801
p273
aVBEAM-4800
p274
aVBEAM-4799
p275
aVBEAM-4798
p276
aVBEAM-4797
p277
aVBEAM-4796
p278
aVBEAM-4795
p279
aVBEAM-4794
p280
aVBEAM-4793
p281
aVBEAM-4792
p282
aVBEAM-4791
p283
aVBEAM-4790
p284
aVBEAM-4789
p285
aVBEAM-4788
p286
aVBEAM-4787
p287
aVBEAM-4786
p288
aVBEAM-4785
p289
aVBEAM-4784
p290
aVBEAM-4783
p291
aVBEAM-4782
p292
aVBEAM-4781
p293
aVBEAM-4780
p294
aVBEAM-4779
p295
aVBEAM-4778
p296
aVBEAM-4777
p297
aVBEAM-4776
p298
aVBEAM-4775
p299
aVBEAM-4774
p300
aVBEAM-4773
p301
aVBEAM-4772
p302
aVBEAM-4771
p303
aVBEAM-4770
p304
aVBEAM-4769
p305
aVBEAM-4768
p306
aVBEAM-4767
p307
aVBEAM-4766
p308
aVBEAM-4765
p309
aVBEAM-4764
p310
aVBEAM-4763
p311
aVBEAM-4762
p312
aVBEAM-4761
p313
aVBEAM-4760
p314
aVBEAM-4759
p315
aVBEAM-4758
p316
aVBEAM-4757
p317
aVBEAM-4756
p318
aVBEAM-4755
p319
aVBEAM-4754
p320
aVBEAM-4753
p321
aVBEAM-4752
p322
aVBEAM-4751
p323
aVBEAM-4750
p324
aVBEAM-4749
p325
aVBEAM-4748
p326
aVBEAM-4747
p327
aVBEAM-4746
p328
aVBEAM-4745
p329
aVBEAM-4744
p330
aVBEAM-4743
p331
aVBEAM-4742
p332
aVBEAM-4741
p333
aVBEAM-4740
p334
aVBEAM-4739
p335
aVBEAM-4738
p336
aVBEAM-4737
p337
aVBEAM-4736
p338
aVBEAM-4735
p339
aVBEAM-4734
p340
aVBEAM-4733
p341
aVBEAM-4732
p342
aVBEAM-4731
p343
aVBEAM-4730
p344
aVBEAM-4729
p345
aVBEAM-4728
p346
aVBEAM-4727
p347
aVBEAM-4726
p348
aVBEAM-4725
p349
aVBEAM-4724
p350
aVBEAM-4723
p351
aVBEAM-4722
p352
aVBEAM-4721
p353
aVBEAM-4720
p354
aVBEAM-4719
p355
aVBEAM-4718
p356
aVBEAM-4717
p357
aVBEAM-4716
p358
aVBEAM-4715
p359
aVBEAM-4714
p360
aVBEAM-4713
p361
aVBEAM-4712
p362
aVBEAM-4711
p363
aVBEAM-4710
p364
aVBEAM-4709
p365
aVBEAM-4708
p366
aVBEAM-4707
p367
aVBEAM-4706
p368
aVBEAM-4705
p369
aVBEAM-4704
p370
aVBEAM-4703
p371
aVBEAM-4702
p372
aVBEAM-4701
p373
aVBEAM-4700
p374
aVBEAM-4699
p375
aVBEAM-4698
p376
aVBEAM-4697
p377
aVBEAM-4696
p378
aVBEAM-4695
p379
aVBEAM-4694
p380
aVBEAM-4693
p381
aVBEAM-4692
p382
aVBEAM-4691
p383
aVBEAM-4690
p384
aVBEAM-4689
p385
aVBEAM-4688
p386
aVBEAM-4687
p387
aVBEAM-4686
p388
aVBEAM-4685
p389
aVBEAM-4684
p390
aVBEAM-4683
p391
aVBEAM-4682
p392
aVBEAM-4681
p393
aVBEAM-4680
p394
aVBEAM-4679
p395
aVBEAM-4678
p396
aVBEAM-4677
p397
aVBEAM-4676
p398
aVBEAM-4675
p399
aVBEAM-4674
p400
aVBEAM-4673
p401
aVBEAM-4672
p402
aVBEAM-4671
p403
aVBEAM-4670
p404
aVBEAM-4669
p405
aVBEAM-4668
p406
aVBEAM-4667
p407
aVBEAM-4666
p408
aVBEAM-4665
p409
aVBEAM-4664
p410
aVBEAM-4663
p411
aVBEAM-4662
p412
aVBEAM-4661
p413
aVBEAM-4660
p414
aVBEAM-4659
p415
aVBEAM-4658
p416
aVBEAM-4657
p417
aVBEAM-4655
p418
aVBEAM-4654
p419
aVBEAM-4653
p420
aVBEAM-4652
p421
aVBEAM-4651
p422
aVBEAM-4650
p423
aVBEAM-4649
p424
aVBEAM-4648
p425
aVBEAM-4647
p426
aVBEAM-4646
p427
aVBEAM-4645
p428
aVBEAM-4644
p429
aVBEAM-4643
p430
aVBEAM-4642
p431
aVBEAM-4641
p432
aVBEAM-4640
p433
aVBEAM-4639
p434
aVBEAM-4638
p435
aVBEAM-4637
p436
aVBEAM-4636
p437
aVBEAM-4635
p438
aVBEAM-4634
p439
aVBEAM-4633
p440
aVBEAM-4632
p441
aVBEAM-4631
p442
aVBEAM-4630
p443
aVBEAM-4629
p444
aVBEAM-4628
p445
aVBEAM-4627
p446
aVBEAM-4626
p447
aVBEAM-4625
p448
aVBEAM-4624
p449
aVBEAM-4623
p450
aVBEAM-4622
p451
aVBEAM-4621
p452
aVBEAM-4620
p453
aVBEAM-4619
p454
aVBEAM-4618
p455
aVBEAM-4617
p456
aVBEAM-4616
p457
aVBEAM-4615
p458
aVBEAM-4614
p459
aVBEAM-4613
p460
aVBEAM-4612
p461
aVBEAM-4611
p462
aVBEAM-4610
p463
aVBEAM-4609
p464
aVBEAM-4608
p465
aVBEAM-4607
p466
aVBEAM-4606
p467
aVBEAM-4605
p468
aVBEAM-4604
p469
aVBEAM-4603
p470
aVBEAM-4602
p471
aVBEAM-4601
p472
aVBEAM-4600
p473
aVBEAM-4599
p474
aVBEAM-4598
p475
aVBEAM-4597
p476
aVBEAM-4596
p477
aVBEAM-4595
p478
aVBEAM-4594
p479
aVBEAM-4593
p480
aVBEAM-4592
p481
aVBEAM-4591
p482
aVBEAM-4590
p483
aVBEAM-4589
p484
aVBEAM-4588
p485
aVBEAM-4587
p486
aVBEAM-4586
p487
aVBEAM-4585
p488
aVBEAM-4584
p489
aVBEAM-4583
p490
aVBEAM-4582
p491
aVBEAM-4581
p492
aVBEAM-4580
p493
aVBEAM-4579
p494
aVBEAM-4578
p495
aVBEAM-4577
p496
aVBEAM-4576
p497
aVBEAM-4575
p498
aVBEAM-4574
p499
aVBEAM-4573
p500
aVBEAM-4572
p501
aVBEAM-4571
p502
aVBEAM-4570
p503
aVBEAM-4569
p504
aVBEAM-4568
p505
aVBEAM-4567
p506
aVBEAM-4566
p507
aVBEAM-4565
p508
aVBEAM-4564
p509
aVBEAM-4563
p510
aVBEAM-4562
p511
aVBEAM-4561
p512
aVBEAM-4560
p513
aVBEAM-4559
p514
aVBEAM-4558
p515
aVBEAM-4557
p516
aVBEAM-4556
p517
aVBEAM-4555
p518
aVBEAM-4554
p519
aVBEAM-4553
p520
aVBEAM-4552
p521
aVBEAM-4551
p522
aVBEAM-4550
p523
aVBEAM-4549
p524
aVBEAM-4548
p525
aVBEAM-4547
p526
aVBEAM-4546
p527
aVBEAM-4545
p528
aVBEAM-4544
p529
aVBEAM-4543
p530
aVBEAM-4542
p531
aVBEAM-4541
p532
aVBEAM-4540
p533
aVBEAM-4539
p534
aVBEAM-4538
p535
aVBEAM-4537
p536
aVBEAM-4536
p537
aVBEAM-4535
p538
aVBEAM-4534
p539
aVBEAM-4533
p540
aVBEAM-4532
p541
aVBEAM-4531
p542
aVBEAM-4530
p543
aVBEAM-4529
p544
aVBEAM-4528
p545
aVBEAM-4527
p546
aVBEAM-4526
p547
aVBEAM-4525
p548
aVBEAM-4524
p549
aVBEAM-4523
p550
aVBEAM-4522
p551
aVBEAM-4521
p552
aVBEAM-4520
p553
aVBEAM-4519
p554
aVBEAM-4518
p555
aVBEAM-4517
p556
aVBEAM-4516
p557
aVBEAM-4515
p558
aVBEAM-4514
p559
aVBEAM-4513
p560
aVBEAM-4512
p561
aVBEAM-4511
p562
aVBEAM-4510
p563
aVBEAM-4509
p564
aVBEAM-4508
p565
aVBEAM-4507
p566
aVBEAM-4506
p567
aVBEAM-4505
p568
aVBEAM-4504
p569
aVBEAM-4503
p570
aVBEAM-4502
p571
aVBEAM-4501
p572
aVBEAM-4500
p573
aVBEAM-4499
p574
aVBEAM-4498
p575
aVBEAM-4497
p576
aVBEAM-4496
p577
aVBEAM-4495
p578
aVBEAM-4494
p579
aVBEAM-4493
p580
aVBEAM-4492
p581
aVBEAM-4491
p582
aVBEAM-4490
p583
aVBEAM-4489
p584
aVBEAM-4488
p585
aVBEAM-4487
p586
aVBEAM-4486
p587
aVBEAM-4485
p588
aVBEAM-4484
p589
aVBEAM-4483
p590
aVBEAM-4482
p591
aVBEAM-4481
p592
aVBEAM-4480
p593
aVBEAM-4479
p594
aVBEAM-4478
p595
aVBEAM-4477
p596
aVBEAM-4476
p597
aVBEAM-4475
p598
aVBEAM-4474
p599
aVBEAM-4473
p600
aVBEAM-4472
p601
aVBEAM-4471
p602
aVBEAM-4470
p603
aVBEAM-4469
p604
aVBEAM-4468
p605
aVBEAM-4467
p606
aVBEAM-4466
p607
aVBEAM-4465
p608
aVBEAM-4464
p609
aVBEAM-4463
p610
aVBEAM-4462
p611
aVBEAM-4461
p612
aVBEAM-4460
p613
aVBEAM-4459
p614
aVBEAM-4458
p615
aVBEAM-4457
p616
aVBEAM-4456
p617
aVBEAM-4455
p618
aVBEAM-4454
p619
aVBEAM-4453
p620
aVBEAM-4452
p621
aVBEAM-4451
p622
aVBEAM-4450
p623
aVBEAM-4449
p624
aVBEAM-4448
p625
aVBEAM-4447
p626
aVBEAM-4446
p627
aVBEAM-4445
p628
aVBEAM-4444
p629
aVBEAM-4443
p630
aVBEAM-4442
p631
aVBEAM-4441
p632
aVBEAM-4440
p633
aVBEAM-4439
p634
aVBEAM-4438
p635
aVBEAM-4437
p636
aVBEAM-4436
p637
aVBEAM-4435
p638
aVBEAM-4434
p639
aVBEAM-4433
p640
aVBEAM-4432
p641
aVBEAM-4431
p642
aVBEAM-4430
p643
aVBEAM-4429
p644
aVBEAM-4428
p645
aVBEAM-4427
p646
aVBEAM-4426
p647
aVBEAM-4425
p648
aVBEAM-4424
p649
aVBEAM-4423
p650
aVBEAM-4422
p651
aVBEAM-4421
p652
aVBEAM-4420
p653
aVBEAM-4419
p654
aVBEAM-4418
p655
aVBEAM-4417
p656
aVBEAM-4416
p657
aVBEAM-4415
p658
aVBEAM-4414
p659
aVBEAM-4413
p660
aVBEAM-4412
p661
aVBEAM-4411
p662
aVBEAM-4410
p663
aVBEAM-4409
p664
aVBEAM-4408
p665
aVBEAM-4407
p666
aVBEAM-4406
p667
aVBEAM-4405
p668
aVBEAM-4404
p669
aVBEAM-4403
p670
aVBEAM-4402
p671
aVBEAM-4401
p672
aVBEAM-4400
p673
aVBEAM-4399
p674
aVBEAM-4398
p675
aVBEAM-4397
p676
aVBEAM-4396
p677
aVBEAM-4395
p678
aVBEAM-4394
p679
aVBEAM-4393
p680
aVBEAM-4392
p681
aVBEAM-4391
p682
aVBEAM-4390
p683
aVBEAM-4389
p684
aVBEAM-4388
p685
aVBEAM-4387
p686
aVBEAM-4386
p687
aVBEAM-4385
p688
aVBEAM-4384
p689
aVBEAM-4383
p690
aVBEAM-4382
p691
aVBEAM-4381
p692
aVBEAM-4380
p693
aVBEAM-4379
p694
aVBEAM-4378
p695
aVBEAM-4377
p696
aVBEAM-4376
p697
aVBEAM-4375
p698
aVBEAM-4374
p699
aVBEAM-4373
p700
aVBEAM-4372
p701
aVBEAM-4371
p702
aVBEAM-4370
p703
aVBEAM-4369
p704
aVBEAM-4368
p705
aVBEAM-4367
p706
aVBEAM-4366
p707
aVBEAM-4365
p708
aVBEAM-4364
p709
aVBEAM-4363
p710
aVBEAM-4362
p711
aVBEAM-4361
p712
aVBEAM-4360
p713
aVBEAM-4359
p714
aVBEAM-4358
p715
aVBEAM-4357
p716
aVBEAM-4356
p717
aVBEAM-4355
p718
aVBEAM-4354
p719
aVBEAM-4353
p720
aVBEAM-4352
p721
aVBEAM-4351
p722
aVBEAM-4350
p723
aVBEAM-4349
p724
aVBEAM-4348
p725
aVBEAM-4347
p726
aVBEAM-4346
p727
aVBEAM-4345
p728
aVBEAM-4344
p729
aVBEAM-4343
p730
aVBEAM-4342
p731
aVBEAM-4341
p732
aVBEAM-4340
p733
aVBEAM-4339
p734
aVBEAM-4338
p735
aVBEAM-4337
p736
aVBEAM-4336
p737
aVBEAM-4335
p738
aVBEAM-4334
p739
aVBEAM-4333
p740
aVBEAM-4332
p741
aVBEAM-4331
p742
aVBEAM-4330
p743
aVBEAM-4329
p744
aVBEAM-4328
p745
aVBEAM-4327
p746
aVBEAM-4326
p747
aVBEAM-4325
p748
aVBEAM-4324
p749
aVBEAM-4323
p750
aVBEAM-4322
p751
aVBEAM-4321
p752
aVBEAM-4320
p753
aVBEAM-4319
p754
aVBEAM-4318
p755
aVBEAM-4317
p756
aVBEAM-4316
p757
aVBEAM-4315
p758
aVBEAM-4314
p759
aVBEAM-4313
p760
aVBEAM-4312
p761
aVBEAM-4311
p762
aVBEAM-4310
p763
aVBEAM-4309
p764
aVBEAM-4308
p765
aVBEAM-4307
p766
aVBEAM-4306
p767
aVBEAM-4305
p768
aVBEAM-4304
p769
aVBEAM-4303
p770
aVBEAM-4302
p771
aVBEAM-4301
p772
aVBEAM-4300
p773
aVBEAM-4299
p774
aVBEAM-4298
p775
aVBEAM-4297
p776
aVBEAM-4296
p777
aVBEAM-4295
p778
aVBEAM-4294
p779
aVBEAM-4293
p780
aVBEAM-4292
p781
aVBEAM-4291
p782
aVBEAM-4290
p783
aVBEAM-4289
p784
aVBEAM-4288
p785
aVBEAM-4287
p786
aVBEAM-4286
p787
aVBEAM-4285
p788
aVBEAM-4284
p789
aVBEAM-4283
p790
aVBEAM-4282
p791
aVBEAM-4281
p792
aVBEAM-4280
p793
aVBEAM-4279
p794
aVBEAM-4278
p795
aVBEAM-4277
p796
aVBEAM-4276
p797
aVBEAM-4275
p798
aVBEAM-4274
p799
aVBEAM-4273
p800
aVBEAM-4272
p801
aVBEAM-4271
p802
aVBEAM-4270
p803
aVBEAM-4269
p804
aVBEAM-4268
p805
aVBEAM-4267
p806
aVBEAM-4266
p807
aVBEAM-4265
p808
aVBEAM-4264
p809
aVBEAM-4263
p810
aVBEAM-4262
p811
aVBEAM-4261
p812
aVBEAM-4260
p813
aVBEAM-4259
p814
aVBEAM-4258
p815
aVBEAM-4257
p816
aVBEAM-4256
p817
aVBEAM-4255
p818
aVBEAM-4254
p819
aVBEAM-4253
p820
aVBEAM-4252
p821
aVBEAM-4251
p822
aVBEAM-4250
p823
aVBEAM-4249
p824
aVBEAM-4248
p825
aVBEAM-4247
p826
aVBEAM-4246
p827
aVBEAM-4245
p828
aVBEAM-4244
p829
aVBEAM-4243
p830
aVBEAM-4242
p831
aVBEAM-4241
p832
aVBEAM-4240
p833
aVBEAM-4239
p834
aVBEAM-4238
p835
aVBEAM-4237
p836
aVBEAM-4236
p837
aVBEAM-4235
p838
aVBEAM-4234
p839
aVBEAM-4233
p840
aVBEAM-4232
p841
aVBEAM-4231
p842
aVBEAM-4230
p843
aVBEAM-4229
p844
aVBEAM-4228
p845
aVBEAM-4227
p846
aVBEAM-4226
p847
aVBEAM-4225
p848
aVBEAM-4224
p849
aVBEAM-4223
p850
aVBEAM-4222
p851
aVBEAM-4221
p852
aVBEAM-4220
p853
aVBEAM-4219
p854
aVBEAM-4218
p855
aVBEAM-4217
p856
aVBEAM-4216
p857
aVBEAM-4215
p858
aVBEAM-4214
p859
aVBEAM-4213
p860
aVBEAM-4212
p861
aVBEAM-4211
p862
aVBEAM-4210
p863
aVBEAM-4209
p864
aVBEAM-4208
p865
aVBEAM-4207
p866
aVBEAM-4206
p867
aVBEAM-4205
p868
aVBEAM-4204
p869
aVBEAM-4203
p870
aVBEAM-4202
p871
aVBEAM-4201
p872
aVBEAM-4200
p873
aVBEAM-4199
p874
aVBEAM-4198
p875
aVBEAM-4197
p876
aVBEAM-4196
p877
aVBEAM-4195
p878
aVBEAM-4194
p879
aVBEAM-4193
p880
aVBEAM-4192
p881
aVBEAM-4191
p882
aVBEAM-4190
p883
aVBEAM-4189
p884
aVBEAM-4188
p885
aVBEAM-4187
p886
aVBEAM-4186
p887
aVBEAM-4185
p888
aVBEAM-4184
p889
aVBEAM-4183
p890
aVBEAM-4182
p891
aVBEAM-4181
p892
aVBEAM-4180
p893
aVBEAM-4179
p894
aVBEAM-4178
p895
aVBEAM-4177
p896
aVBEAM-4176
p897
aVBEAM-4175
p898
aVBEAM-4174
p899
aVBEAM-4173
p900
aVBEAM-4172
p901
aVBEAM-4171
p902
aVBEAM-4170
p903
aVBEAM-4169
p904
aVBEAM-4168
p905
aVBEAM-4167
p906
aVBEAM-4166
p907
aVBEAM-4165
p908
aVBEAM-4164
p909
aVBEAM-4163
p910
aVBEAM-4162
p911
aVBEAM-4161
p912
aVBEAM-4160
p913
aVBEAM-4159
p914
aVBEAM-4158
p915
aVBEAM-4157
p916
aVBEAM-4156
p917
aVBEAM-4155
p918
aVBEAM-4154
p919
aVBEAM-4153
p920
aVBEAM-4152
p921
aVBEAM-4151
p922
aVBEAM-4150
p923
aVBEAM-4149
p924
aVBEAM-4148
p925
aVBEAM-4147
p926
aVBEAM-4146
p927
aVBEAM-4145
p928
aVBEAM-4144
p929
aVBEAM-4143
p930
aVBEAM-4142
p931
aVBEAM-4141
p932
aVBEAM-4140
p933
aVBEAM-4139
p934
aVBEAM-4138
p935
aVBEAM-4137
p936
aVBEAM-4136
p937
aVBEAM-4135
p938
aVBEAM-4134
p939
aVBEAM-4133
p940
aVBEAM-4132
p941
aVBEAM-4131
p942
aVBEAM-4130
p943
aVBEAM-4129
p944
aVBEAM-4128
p945
aVBEAM-4127
p946
aVBEAM-4126
p947
aVBEAM-4125
p948
aVBEAM-4124
p949
aVBEAM-4123
p950
aVBEAM-4122
p951
aVBEAM-4121
p952
aVBEAM-4120
p953
aVBEAM-4119
p954
aVBEAM-4118
p955
aVBEAM-4117
p956
aVBEAM-4116
p957
aVBEAM-4115
p958
aVBEAM-4114
p959
aVBEAM-4113
p960
aVBEAM-4112
p961
aVBEAM-4111
p962
aVBEAM-4110
p963
aVBEAM-4109
p964
aVBEAM-4108
p965
aVBEAM-4107
p966
aVBEAM-4106
p967
aVBEAM-4105
p968
aVBEAM-4104
p969
aVBEAM-4103
p970
aVBEAM-4102
p971
aVBEAM-4101
p972
aVBEAM-4100
p973
aVBEAM-4099
p974
aVBEAM-4098
p975
aVBEAM-4097
p976
aVBEAM-4096
p977
aVBEAM-4095
p978
aVBEAM-4094
p979
aVBEAM-4093
p980
aVBEAM-4092
p981
aVBEAM-4091
p982
aVBEAM-4090
p983
aVBEAM-4089
p984
aVBEAM-4088
p985
aVBEAM-4087
p986
aVBEAM-4086
p987
aVBEAM-4085
p988
aVBEAM-4084
p989
aVBEAM-4083
p990
aVBEAM-4082
p991
aVBEAM-4081
p992
aVBEAM-4080
p993
aVBEAM-4079
p994
aVBEAM-4078
p995
aVBEAM-4077
p996
aVBEAM-4076
p997
aVBEAM-4075
p998
aVBEAM-4074
p999
aVBEAM-4073
p1000
aVBEAM-4072
p1001
aVBEAM-4071
p1002
aVBEAM-4070
p1003
aVBEAM-4069
p1004
aVBEAM-4068
p1005
aVBEAM-4067
p1006
aVBEAM-4066
p1007
aVBEAM-4065
p1008
aVBEAM-4064
p1009
aVBEAM-4063
p1010
aVBEAM-4062
p1011
aVBEAM-4061
p1012
aVBEAM-4060
p1013
aVBEAM-4059
p1014
aVBEAM-4058
p1015
aVBEAM-4057
p1016
aVBEAM-4056
p1017
aVBEAM-4055
p1018
aVBEAM-4054
p1019
aVBEAM-4053
p1020
aVBEAM-4052
p1021
aVBEAM-4051
p1022
aVBEAM-4050
p1023
aVBEAM-4049
p1024
aVBEAM-4048
p1025
aVBEAM-4047
p1026
aVBEAM-4046
p1027
aVBEAM-4045
p1028
aVBEAM-4044
p1029
aVBEAM-4043
p1030
aVBEAM-4042
p1031
aVBEAM-4041
p1032
aVBEAM-4040
p1033
aVBEAM-4039
p1034
aVBEAM-4038
p1035
aVBEAM-4037
p1036
aVBEAM-4036
p1037
aVBEAM-4035
p1038
aVBEAM-4034
p1039
aVBEAM-4033
p1040
aVBEAM-4032
p1041
aVBEAM-4031
p1042
aVBEAM-4030
p1043
aVBEAM-4029
p1044
aVBEAM-4028
p1045
aVBEAM-4027
p1046
aVBEAM-4026
p1047
aVBEAM-4025
p1048
aVBEAM-4024
p1049
aVBEAM-4023
p1050
aVBEAM-4022
p1051
aVBEAM-4021
p1052
aVBEAM-4020
p1053
aVBEAM-4019
p1054
aVBEAM-4018
p1055
aVBEAM-4017
p1056
aVBEAM-4016
p1057
aVBEAM-4015
p1058
aVBEAM-4014
p1059
aVBEAM-4013
p1060
aVBEAM-4012
p1061
aVBEAM-4011
p1062
aVBEAM-4010
p1063
aVBEAM-4009
p1064
aVBEAM-4008
p1065
aVBEAM-4007
p1066
aVBEAM-4006
p1067
aVBEAM-4005
p1068
aVBEAM-4004
p1069
aVBEAM-4003
p1070
aVBEAM-4002
p1071
aVBEAM-4001
p1072
aVBEAM-4000
p1073
aVBEAM-3999
p1074
aVBEAM-3998
p1075
aVBEAM-3997
p1076
aVBEAM-3996
p1077
aVBEAM-3995
p1078
aVBEAM-3994
p1079
aVBEAM-3993
p1080
aVBEAM-3992
p1081
aVBEAM-3991
p1082
aVBEAM-3990
p1083
aVBEAM-3989
p1084
aVBEAM-3988
p1085
aVBEAM-3987
p1086
aVBEAM-3986
p1087
aVBEAM-3985
p1088
aVBEAM-3984
p1089
aVBEAM-3983
p1090
aVBEAM-3982
p1091
aVBEAM-3981
p1092
aVBEAM-3980
p1093
aVBEAM-3979
p1094
aVBEAM-3978
p1095
aVBEAM-3977
p1096
aVBEAM-3976
p1097
aVBEAM-3975
p1098
aVBEAM-3974
p1099
aVBEAM-3973
p1100
aVBEAM-3972
p1101
aVBEAM-3971
p1102
aVBEAM-3970
p1103
aVBEAM-3969
p1104
aVBEAM-3968
p1105
aVBEAM-3967
p1106
aVBEAM-3966
p1107
aVBEAM-3965
p1108
aVBEAM-3964
p1109
aVBEAM-3963
p1110
aVBEAM-3962
p1111
aVBEAM-3961
p1112
aVBEAM-3960
p1113
aVBEAM-3959
p1114
aVBEAM-3958
p1115
aVBEAM-3957
p1116
aVBEAM-3956
p1117
aVBEAM-3955
p1118
aVBEAM-3954
p1119
aVBEAM-3953
p1120
aVBEAM-3952
p1121
aVBEAM-3951
p1122
aVBEAM-3950
p1123
aVBEAM-3949
p1124
aVBEAM-3948
p1125
aVBEAM-3947
p1126
aVBEAM-3946
p1127
aVBEAM-3945
p1128
aVBEAM-3944
p1129
aVBEAM-3943
p1130
aVBEAM-3942
p1131
aVBEAM-3941
p1132
aVBEAM-3940
p1133
aVBEAM-3939
p1134
aVBEAM-3938
p1135
aVBEAM-3937
p1136
aVBEAM-3936
p1137
aVBEAM-3935
p1138
aVBEAM-3934
p1139
aVBEAM-3933
p1140
aVBEAM-3932
p1141
aVBEAM-3931
p1142
aVBEAM-3930
p1143
aVBEAM-3929
p1144
aVBEAM-3928
p1145
aVBEAM-3927
p1146
aVBEAM-3926
p1147
aVBEAM-3925
p1148
aVBEAM-3924
p1149
aVBEAM-3923
p1150
aVBEAM-3922
p1151
aVBEAM-3921
p1152
aVBEAM-3920
p1153
aVBEAM-3919
p1154
aVBEAM-3918
p1155
aVBEAM-3917
p1156
aVBEAM-3916
p1157
aVBEAM-3915
p1158
aVBEAM-3914
p1159
aVBEAM-3913
p1160
aVBEAM-3912
p1161
aVBEAM-3911
p1162
aVBEAM-3910
p1163
aVBEAM-3909
p1164
aVBEAM-3908
p1165
aVBEAM-3907
p1166
aVBEAM-3906
p1167
aVBEAM-3905
p1168
aVBEAM-3904
p1169
aVBEAM-3903
p1170
aVBEAM-3902
p1171
aVBEAM-3901
p1172
aVBEAM-3900
p1173
aVBEAM-3899
p1174
aVBEAM-3898
p1175
aVBEAM-3897
p1176
aVBEAM-3896
p1177
aVBEAM-3895
p1178
aVBEAM-3894
p1179
aVBEAM-3893
p1180
aVBEAM-3892
p1181
aVBEAM-3891
p1182
aVBEAM-3890
p1183
aVBEAM-3889
p1184
aVBEAM-3888
p1185
aVBEAM-3887
p1186
aVBEAM-3886
p1187
aVBEAM-3885
p1188
aVBEAM-3884
p1189
aVBEAM-3883
p1190
aVBEAM-3882
p1191
aVBEAM-3881
p1192
aVBEAM-3880
p1193
aVBEAM-3879
p1194
aVBEAM-3878
p1195
aVBEAM-3877
p1196
aVBEAM-3876
p1197
aVBEAM-3875
p1198
aVBEAM-3874
p1199
aVBEAM-3873
p1200
aVBEAM-3872
p1201
aVBEAM-3871
p1202
aVBEAM-3870
p1203
aVBEAM-3869
p1204
aVBEAM-3868
p1205
aVBEAM-3867
p1206
aVBEAM-3866
p1207
aVBEAM-3865
p1208
aVBEAM-3864
p1209
aVBEAM-3863
p1210
aVBEAM-3862
p1211
aVBEAM-3861
p1212
aVBEAM-3860
p1213
aVBEAM-3859
p1214
aVBEAM-3858
p1215
aVBEAM-3857
p1216
aVBEAM-3856
p1217
aVBEAM-3855
p1218
aVBEAM-3854
p1219
aVBEAM-3853
p1220
aVBEAM-3852
p1221
aVBEAM-3851
p1222
aVBEAM-3850
p1223
aVBEAM-3849
p1224
aVBEAM-3848
p1225
aVBEAM-3847
p1226
aVBEAM-3846
p1227
aVBEAM-3845
p1228
aVBEAM-3844
p1229
aVBEAM-3843
p1230
aVBEAM-3842
p1231
aVBEAM-3841
p1232
aVBEAM-3840
p1233
aVBEAM-3839
p1234
aVBEAM-3838
p1235
aVBEAM-3837
p1236
aVBEAM-3836
p1237
aVBEAM-3835
p1238
aVBEAM-3834
p1239
aVBEAM-3833
p1240
aVBEAM-3832
p1241
aVBEAM-3831
p1242
aVBEAM-3830
p1243
aVBEAM-3829
p1244
aVBEAM-3828
p1245
aVBEAM-3827
p1246
aVBEAM-3826
p1247
aVBEAM-3825
p1248
aVBEAM-3824
p1249
aVBEAM-3823
p1250
aVBEAM-3822
p1251
aVBEAM-3821
p1252
aVBEAM-3820
p1253
aVBEAM-3819
p1254
aVBEAM-3818
p1255
aVBEAM-3817
p1256
aVBEAM-3816
p1257
aVBEAM-3815
p1258
aVBEAM-3814
p1259
aVBEAM-3813
p1260
aVBEAM-3812
p1261
aVBEAM-3811
p1262
aVBEAM-3810
p1263
aVBEAM-3809
p1264
aVBEAM-3808
p1265
aVBEAM-3807
p1266
aVBEAM-3806
p1267
aVBEAM-3805
p1268
aVBEAM-3804
p1269
aVBEAM-3803
p1270
aVBEAM-3802
p1271
aVBEAM-3801
p1272
aVBEAM-3800
p1273
aVBEAM-3799
p1274
aVBEAM-3798
p1275
aVBEAM-3797
p1276
aVBEAM-3796
p1277
aVBEAM-3795
p1278
aVBEAM-3794
p1279
aVBEAM-3793
p1280
aVBEAM-3792
p1281
aVBEAM-3791
p1282
aVBEAM-3790
p1283
aVBEAM-3789
p1284
aVBEAM-3788
p1285
aVBEAM-3787
p1286
aVBEAM-3786
p1287
aVBEAM-3785
p1288
aVBEAM-3784
p1289
aVBEAM-3783
p1290
aVBEAM-3782
p1291
aVBEAM-3781
p1292
aVBEAM-3780
p1293
aVBEAM-3779
p1294
aVBEAM-3778
p1295
aVBEAM-3777
p1296
aVBEAM-3776
p1297
aVBEAM-3775
p1298
aVBEAM-3774
p1299
aVBEAM-3773
p1300
aVBEAM-3772
p1301
aVBEAM-3771
p1302
aVBEAM-3770
p1303
aVBEAM-3769
p1304
aVBEAM-3768
p1305
aVBEAM-3767
p1306
aVBEAM-3766
p1307
aVBEAM-3765
p1308
aVBEAM-3764
p1309
aVBEAM-3763
p1310
aVBEAM-3762
p1311
aVBEAM-3761
p1312
aVBEAM-3760
p1313
aVBEAM-3759
p1314
aVBEAM-3758
p1315
aVBEAM-3757
p1316
aVBEAM-3756
p1317
aVBEAM-3755
p1318
aVBEAM-3754
p1319
aVBEAM-3753
p1320
aVBEAM-3752
p1321
aVBEAM-3751
p1322
aVBEAM-3750
p1323
aVBEAM-3749
p1324
aVBEAM-3748
p1325
aVBEAM-3747
p1326
aVBEAM-3746
p1327
aVBEAM-3745
p1328
aVBEAM-3744
p1329
aVBEAM-3743
p1330
aVBEAM-3742
p1331
aVBEAM-3741
p1332
aVBEAM-3740
p1333
aVBEAM-3739
p1334
aVBEAM-3738
p1335
aVBEAM-3737
p1336
aVBEAM-3736
p1337
aVBEAM-3735
p1338
aVBEAM-3734
p1339
aVBEAM-3733
p1340
aVBEAM-3732
p1341
aVBEAM-3731
p1342
aVBEAM-3730
p1343
aVBEAM-3729
p1344
aVBEAM-3728
p1345
aVBEAM-3727
p1346
aVBEAM-3726
p1347
aVBEAM-3725
p1348
aVBEAM-3724
p1349
aVBEAM-3723
p1350
aVBEAM-3722
p1351
aVBEAM-3721
p1352
aVBEAM-3720
p1353
aVBEAM-3719
p1354
aVBEAM-3718
p1355
aVBEAM-3717
p1356
aVBEAM-3716
p1357
aVBEAM-3715
p1358
aVBEAM-3714
p1359
aVBEAM-3713
p1360
aVBEAM-3712
p1361
aVBEAM-3711
p1362
aVBEAM-3710
p1363
aVBEAM-3709
p1364
aVBEAM-3708
p1365
aVBEAM-3707
p1366
aVBEAM-3706
p1367
aVBEAM-3705
p1368
aVBEAM-3704
p1369
aVBEAM-3703
p1370
aVBEAM-3702
p1371
aVBEAM-3701
p1372
aVBEAM-3700
p1373
aVBEAM-3699
p1374
aVBEAM-3698
p1375
aVBEAM-3697
p1376
aVBEAM-3696
p1377
aVBEAM-3695
p1378
aVBEAM-3694
p1379
aVBEAM-3693
p1380
aVBEAM-3692
p1381
aVBEAM-3691
p1382
aVBEAM-3690
p1383
aVBEAM-3689
p1384
aVBEAM-3688
p1385
aVBEAM-3687
p1386
aVBEAM-3686
p1387
aVBEAM-3685
p1388
aVBEAM-3684
p1389
aVBEAM-3683
p1390
aVBEAM-3682
p1391
aVBEAM-3681
p1392
aVBEAM-3680
p1393
aVBEAM-3679
p1394
aVBEAM-3678
p1395
aVBEAM-3677
p1396
aVBEAM-3676
p1397
aVBEAM-3675
p1398
aVBEAM-3674
p1399
aVBEAM-3673
p1400
aVBEAM-3672
p1401
aVBEAM-3671
p1402
aVBEAM-3670
p1403
aVBEAM-3669
p1404
aVBEAM-3668
p1405
aVBEAM-3667
p1406
aVBEAM-3666
p1407
aVBEAM-3665
p1408
aVBEAM-3664
p1409
aVBEAM-3663
p1410
aVBEAM-3662
p1411
aVBEAM-3661
p1412
aVBEAM-3660
p1413
aVBEAM-3659
p1414
aVBEAM-3658
p1415
aVBEAM-3657
p1416
aVBEAM-3656
p1417
aVBEAM-3655
p1418
aVBEAM-3654
p1419
aVBEAM-3653
p1420
aVBEAM-3652
p1421
aVBEAM-3651
p1422
aVBEAM-3650
p1423
aVBEAM-3649
p1424
aVBEAM-3648
p1425
aVBEAM-3647
p1426
aVBEAM-3646
p1427
aVBEAM-3645
p1428
aVBEAM-3644
p1429
aVBEAM-3643
p1430
aVBEAM-3642
p1431
aVBEAM-3641
p1432
aVBEAM-3640
p1433
aVBEAM-3639
p1434
aVBEAM-3638
p1435
aVBEAM-3637
p1436
aVBEAM-3636
p1437
aVBEAM-3635
p1438
aVBEAM-3634
p1439
aVBEAM-3633
p1440
aVBEAM-3632
p1441
aVBEAM-3631
p1442
aVBEAM-3630
p1443
aVBEAM-3629
p1444
aVBEAM-3628
p1445
aVBEAM-3627
p1446
aVBEAM-3626
p1447
aVBEAM-3625
p1448
aVBEAM-3624
p1449
aVBEAM-3623
p1450
aVBEAM-3622
p1451
aVBEAM-3621
p1452
aVBEAM-3620
p1453
aVBEAM-3619
p1454
aVBEAM-3618
p1455
aVBEAM-3617
p1456
aVBEAM-3616
p1457
aVBEAM-3615
p1458
aVBEAM-3614
p1459
aVBEAM-3613
p1460
aVBEAM-3612
p1461
aVBEAM-3611
p1462
aVBEAM-3610
p1463
aVBEAM-3609
p1464
aVBEAM-3608
p1465
aVBEAM-3607
p1466
aVBEAM-3606
p1467
aVBEAM-3605
p1468
aVBEAM-3604
p1469
aVBEAM-3603
p1470
aVBEAM-3602
p1471
aVBEAM-3601
p1472
aVBEAM-3600
p1473
aVBEAM-3599
p1474
aVBEAM-3598
p1475
aVBEAM-3597
p1476
aVBEAM-3596
p1477
aVBEAM-3595
p1478
aVBEAM-3594
p1479
aVBEAM-3593
p1480
aVBEAM-3592
p1481
aVBEAM-3591
p1482
aVBEAM-3590
p1483
aVBEAM-3589
p1484
aVBEAM-3588
p1485
aVBEAM-3587
p1486
aVBEAM-3586
p1487
aVBEAM-3585
p1488
aVBEAM-3584
p1489
aVBEAM-3583
p1490
aVBEAM-3582
p1491
aVBEAM-3581
p1492
aVBEAM-3580
p1493
aVBEAM-3579
p1494
aVBEAM-3578
p1495
aVBEAM-3577
p1496
aVBEAM-3576
p1497
aVBEAM-3575
p1498
aVBEAM-3574
p1499
aVBEAM-3573
p1500
aVBEAM-3572
p1501
aVBEAM-3571
p1502
aVBEAM-3570
p1503
aVBEAM-3569
p1504
aVBEAM-3568
p1505
aVBEAM-3567
p1506
aVBEAM-3566
p1507
aVBEAM-3565
p1508
aVBEAM-3564
p1509
aVBEAM-3563
p1510
aVBEAM-3562
p1511
aVBEAM-3561
p1512
aVBEAM-3560
p1513
aVBEAM-3559
p1514
aVBEAM-3558
p1515
aVBEAM-3557
p1516
aVBEAM-3556
p1517
aVBEAM-3555
p1518
aVBEAM-3554
p1519
aVBEAM-3553
p1520
aVBEAM-3552
p1521
aVBEAM-3551
p1522
aVBEAM-3550
p1523
aVBEAM-3549
p1524
aVBEAM-3548
p1525
aVBEAM-3547
p1526
aVBEAM-3546
p1527
aVBEAM-3545
p1528
aVBEAM-3544
p1529
aVBEAM-3543
p1530
aVBEAM-3542
p1531
aVBEAM-3541
p1532
aVBEAM-3540
p1533
aVBEAM-3539
p1534
aVBEAM-3538
p1535
aVBEAM-3537
p1536
aVBEAM-3536
p1537
aVBEAM-3535
p1538
aVBEAM-3534
p1539
aVBEAM-3533
p1540
aVBEAM-3532
p1541
aVBEAM-3531
p1542
aVBEAM-3530
p1543
aVBEAM-3529
p1544
aVBEAM-3528
p1545
aVBEAM-3527
p1546
aVBEAM-3526
p1547
aVBEAM-3525
p1548
aVBEAM-3524
p1549
aVBEAM-3523
p1550
aVBEAM-3522
p1551
aVBEAM-3521
p1552
aVBEAM-3520
p1553
aVBEAM-3519
p1554
aVBEAM-3518
p1555
aVBEAM-3517
p1556
aVBEAM-3516
p1557
aVBEAM-3515
p1558
aVBEAM-3514
p1559
aVBEAM-3513
p1560
aVBEAM-3512
p1561
aVBEAM-3511
p1562
aVBEAM-3510
p1563
aVBEAM-3509
p1564
aVBEAM-3508
p1565
aVBEAM-3507
p1566
aVBEAM-3506
p1567
aVBEAM-3505
p1568
aVBEAM-3504
p1569
aVBEAM-3503
p1570
aVBEAM-3502
p1571
aVBEAM-3501
p1572
aVBEAM-3500
p1573
aVBEAM-3499
p1574
aVBEAM-3498
p1575
aVBEAM-3497
p1576
aVBEAM-3496
p1577
aVBEAM-3495
p1578
aVBEAM-3494
p1579
aVBEAM-3493
p1580
aVBEAM-3492
p1581
aVBEAM-3491
p1582
aVBEAM-3490
p1583
aVBEAM-3489
p1584
aVBEAM-3488
p1585
aVBEAM-3487
p1586
aVBEAM-3486
p1587
aVBEAM-3485
p1588
aVBEAM-3484
p1589
aVBEAM-3483
p1590
aVBEAM-3482
p1591
aVBEAM-3481
p1592
aVBEAM-3480
p1593
aVBEAM-3479
p1594
aVBEAM-3478
p1595
aVBEAM-3477
p1596
aVBEAM-3476
p1597
aVBEAM-3475
p1598
aVBEAM-3474
p1599
aVBEAM-3473
p1600
aVBEAM-3472
p1601
aVBEAM-3471
p1602
aVBEAM-3470
p1603
aVBEAM-3469
p1604
aVBEAM-3468
p1605
aVBEAM-3467
p1606
aVBEAM-3466
p1607
aVBEAM-3465
p1608
aVBEAM-3464
p1609
aVBEAM-3463
p1610
aVBEAM-3462
p1611
aVBEAM-3461
p1612
aVBEAM-3460
p1613
aVBEAM-3459
p1614
aVBEAM-3458
p1615
aVBEAM-3457
p1616
aVBEAM-3456
p1617
aVBEAM-3455
p1618
aVBEAM-3454
p1619
aVBEAM-3453
p1620
aVBEAM-3452
p1621
aVBEAM-3451
p1622
aVBEAM-3450
p1623
aVBEAM-3449
p1624
aVBEAM-3448
p1625
aVBEAM-3447
p1626
aVBEAM-3446
p1627
aVBEAM-3445
p1628
aVBEAM-3444
p1629
aVBEAM-3443
p1630
aVBEAM-3442
p1631
aVBEAM-3441
p1632
aVBEAM-3440
p1633
aVBEAM-3439
p1634
aVBEAM-3438
p1635
aVBEAM-3437
p1636
aVBEAM-3436
p1637
aVBEAM-3435
p1638
aVBEAM-3434
p1639
aVBEAM-3433
p1640
aVBEAM-3432
p1641
aVBEAM-3431
p1642
aVBEAM-3430
p1643
aVBEAM-3429
p1644
aVBEAM-3428
p1645
aVBEAM-3427
p1646
aVBEAM-3426
p1647
aVBEAM-3425
p1648
aVBEAM-3424
p1649
aVBEAM-3423
p1650
aVBEAM-3422
p1651
aVBEAM-3421
p1652
aVBEAM-3420
p1653
aVBEAM-3419
p1654
aVBEAM-3418
p1655
aVBEAM-3417
p1656
aVBEAM-3416
p1657
aVBEAM-3415
p1658
aVBEAM-3414
p1659
aVBEAM-3413
p1660
aVBEAM-3412
p1661
aVBEAM-3411
p1662
aVBEAM-3410
p1663
aVBEAM-3409
p1664
aVBEAM-3408
p1665
aVBEAM-3407
p1666
aVBEAM-3406
p1667
aVBEAM-3405
p1668
aVBEAM-3404
p1669
aVBEAM-3403
p1670
aVBEAM-3402
p1671
aVBEAM-3401
p1672
aVBEAM-3400
p1673
aVBEAM-3399
p1674
aVBEAM-3398
p1675
aVBEAM-3397
p1676
aVBEAM-3396
p1677
aVBEAM-3395
p1678
aVBEAM-3394
p1679
aVBEAM-3393
p1680
aVBEAM-3392
p1681
aVBEAM-3391
p1682
aVBEAM-3390
p1683
aVBEAM-3389
p1684
aVBEAM-3388
p1685
aVBEAM-3387
p1686
aVBEAM-3386
p1687
aVBEAM-3385
p1688
aVBEAM-3384
p1689
aVBEAM-3383
p1690
aVBEAM-3382
p1691
aVBEAM-3381
p1692
aVBEAM-3380
p1693
aVBEAM-3379
p1694
aVBEAM-3378
p1695
aVBEAM-3377
p1696
aVBEAM-3376
p1697
aVBEAM-3375
p1698
aVBEAM-3374
p1699
aVBEAM-3373
p1700
aVBEAM-3372
p1701
aVBEAM-3371
p1702
aVBEAM-3370
p1703
aVBEAM-3369
p1704
aVBEAM-3368
p1705
aVBEAM-3367
p1706
aVBEAM-3366
p1707
aVBEAM-3365
p1708
aVBEAM-3364
p1709
aVBEAM-3363
p1710
aVBEAM-3362
p1711
aVBEAM-3361
p1712
aVBEAM-3360
p1713
aVBEAM-3359
p1714
aVBEAM-3358
p1715
aVBEAM-3357
p1716
aVBEAM-3356
p1717
aVBEAM-3355
p1718
aVBEAM-3354
p1719
aVBEAM-3353
p1720
aVBEAM-3352
p1721
aVBEAM-3351
p1722
aVBEAM-3350
p1723
aVBEAM-3349
p1724
aVBEAM-3348
p1725
aVBEAM-3347
p1726
aVBEAM-3346
p1727
aVBEAM-3345
p1728
aVBEAM-3344
p1729
aVBEAM-3343
p1730
aVBEAM-3342
p1731
aVBEAM-3341
p1732
aVBEAM-3340
p1733
aVBEAM-3339
p1734
aVBEAM-3338
p1735
aVBEAM-3337
p1736
aVBEAM-3336
p1737
aVBEAM-3335
p1738
aVBEAM-3334
p1739
aVBEAM-3333
p1740
aVBEAM-3332
p1741
aVBEAM-3331
p1742
aVBEAM-3330
p1743
aVBEAM-3329
p1744
aVBEAM-3328
p1745
aVBEAM-3327
p1746
aVBEAM-3326
p1747
aVBEAM-3325
p1748
aVBEAM-3324
p1749
aVBEAM-3323
p1750
aVBEAM-3322
p1751
aVBEAM-3321
p1752
aVBEAM-3320
p1753
aVBEAM-3319
p1754
aVBEAM-3318
p1755
aVBEAM-3317
p1756
aVBEAM-3316
p1757
aVBEAM-3315
p1758
aVBEAM-3314
p1759
aVBEAM-3313
p1760
aVBEAM-3312
p1761
aVBEAM-3311
p1762
aVBEAM-3310
p1763
aVBEAM-3309
p1764
aVBEAM-3308
p1765
aVBEAM-3307
p1766
aVBEAM-3306
p1767
aVBEAM-3305
p1768
aVBEAM-3304
p1769
aVBEAM-3303
p1770
aVBEAM-3302
p1771
aVBEAM-3301
p1772
aVBEAM-3300
p1773
aVBEAM-3299
p1774
aVBEAM-3298
p1775
aVBEAM-3297
p1776
aVBEAM-3296
p1777
aVBEAM-3295
p1778
aVBEAM-3294
p1779
aVBEAM-3293
p1780
aVBEAM-3292
p1781
aVBEAM-3291
p1782
aVBEAM-3290
p1783
aVBEAM-3289
p1784
aVBEAM-3288
p1785
aVBEAM-3287
p1786
aVBEAM-3286
p1787
aVBEAM-3285
p1788
aVBEAM-3284
p1789
aVBEAM-3283
p1790
aVBEAM-3282
p1791
aVBEAM-3281
p1792
aVBEAM-3280
p1793
aVBEAM-3279
p1794
aVBEAM-3278
p1795
aVBEAM-3277
p1796
aVBEAM-3276
p1797
aVBEAM-3275
p1798
aVBEAM-3274
p1799
aVBEAM-3273
p1800
aVBEAM-3272
p1801
aVBEAM-3271
p1802
aVBEAM-3270
p1803
aVBEAM-3269
p1804
aVBEAM-3268
p1805
aVBEAM-3267
p1806
aVBEAM-3266
p1807
aVBEAM-3265
p1808
aVBEAM-3264
p1809
aVBEAM-3263
p1810
aVBEAM-3262
p1811
aVBEAM-3261
p1812
aVBEAM-3260
p1813
aVBEAM-3259
p1814
aVBEAM-3258
p1815
aVBEAM-3257
p1816
aVBEAM-3256
p1817
aVBEAM-3255
p1818
aVBEAM-3254
p1819
aVBEAM-3253
p1820
aVBEAM-3252
p1821
aVBEAM-3251
p1822
aVBEAM-3250
p1823
aVBEAM-3249
p1824
aVBEAM-3248
p1825
aVBEAM-3247
p1826
aVBEAM-3246
p1827
aVBEAM-3245
p1828
aVBEAM-3244
p1829
aVBEAM-3243
p1830
aVBEAM-3242
p1831
aVBEAM-3241
p1832
aVBEAM-3240
p1833
aVBEAM-3239
p1834
aVBEAM-3238
p1835
aVBEAM-3237
p1836
aVBEAM-3236
p1837
aVBEAM-3235
p1838
aVBEAM-3234
p1839
aVBEAM-3233
p1840
aVBEAM-3232
p1841
aVBEAM-3231
p1842
aVBEAM-3230
p1843
aVBEAM-3229
p1844
aVBEAM-3228
p1845
aVBEAM-3227
p1846
aVBEAM-3226
p1847
aVBEAM-3225
p1848
aVBEAM-3224
p1849
aVBEAM-3223
p1850
aVBEAM-3222
p1851
aVBEAM-3221
p1852
aVBEAM-3220
p1853
aVBEAM-3219
p1854
aVBEAM-3218
p1855
aVBEAM-3217
p1856
aVBEAM-3216
p1857
aVBEAM-3215
p1858
aVBEAM-3214
p1859
aVBEAM-3213
p1860
aVBEAM-3212
p1861
aVBEAM-3211
p1862
aVBEAM-3210
p1863
aVBEAM-3209
p1864
aVBEAM-3208
p1865
aVBEAM-3207
p1866
aVBEAM-3206
p1867
aVBEAM-3205
p1868
aVBEAM-3204
p1869
aVBEAM-3203
p1870
aVBEAM-3202
p1871
aVBEAM-3201
p1872
aVBEAM-3200
p1873
aVBEAM-3199
p1874
aVBEAM-3198
p1875
aVBEAM-3197
p1876
aVBEAM-3196
p1877
aVBEAM-3195
p1878
aVBEAM-3194
p1879
aVBEAM-3193
p1880
aVBEAM-3192
p1881
aVBEAM-3191
p1882
aVBEAM-3190
p1883
aVBEAM-3189
p1884
aVBEAM-3188
p1885
aVBEAM-3187
p1886
aVBEAM-3186
p1887
aVBEAM-3185
p1888
aVBEAM-3184
p1889
aVBEAM-3183
p1890
aVBEAM-3182
p1891
aVBEAM-3181
p1892
aVBEAM-3180
p1893
aVBEAM-3179
p1894
aVBEAM-3178
p1895
aVBEAM-3177
p1896
aVBEAM-3176
p1897
aVBEAM-3175
p1898
aVBEAM-3174
p1899
aVBEAM-3173
p1900
aVBEAM-3172
p1901
aVBEAM-3171
p1902
aVBEAM-3170
p1903
aVBEAM-3169
p1904
aVBEAM-3168
p1905
aVBEAM-3167
p1906
aVBEAM-3166
p1907
aVBEAM-3165
p1908
aVBEAM-3164
p1909
aVBEAM-3163
p1910
aVBEAM-3162
p1911
aVBEAM-3161
p1912
aVBEAM-3160
p1913
aVBEAM-3159
p1914
aVBEAM-3158
p1915
aVBEAM-3157
p1916
aVBEAM-3156
p1917
aVBEAM-3155
p1918
aVBEAM-3154
p1919
aVBEAM-3153
p1920
aVBEAM-3152
p1921
aVBEAM-3151
p1922
aVBEAM-3150
p1923
aVBEAM-3149
p1924
aVBEAM-3148
p1925
aVBEAM-3147
p1926
aVBEAM-3146
p1927
aVBEAM-3145
p1928
aVBEAM-3144
p1929
aVBEAM-3143
p1930
aVBEAM-3142
p1931
aVBEAM-3141
p1932
aVBEAM-3140
p1933
aVBEAM-3139
p1934
aVBEAM-3138
p1935
aVBEAM-3137
p1936
aVBEAM-3136
p1937
aVBEAM-3135
p1938
aVBEAM-3134
p1939
aVBEAM-3133
p1940
aVBEAM-3132
p1941
aVBEAM-3131
p1942
aVBEAM-3130
p1943
aVBEAM-3129
p1944
aVBEAM-3128
p1945
aVBEAM-3127
p1946
aVBEAM-3126
p1947
aVBEAM-3125
p1948
aVBEAM-3124
p1949
aVBEAM-3123
p1950
aVBEAM-3122
p1951
aVBEAM-3121
p1952
aVBEAM-3120
p1953
aVBEAM-3119
p1954
aVBEAM-3118
p1955
aVBEAM-3117
p1956
aVBEAM-3116
p1957
aVBEAM-3115
p1958
aVBEAM-3114
p1959
aVBEAM-3113
p1960
aVBEAM-3112
p1961
aVBEAM-3111
p1962
aVBEAM-3110
p1963
aVBEAM-3109
p1964
aVBEAM-3108
p1965
aVBEAM-3107
p1966
aVBEAM-3106
p1967
aVBEAM-3105
p1968
aVBEAM-3104
p1969
aVBEAM-3103
p1970
aVBEAM-3102
p1971
aVBEAM-3101
p1972
aVBEAM-3100
p1973
aVBEAM-3099
p1974
aVBEAM-3098
p1975
aVBEAM-3097
p1976
aVBEAM-3096
p1977
aVBEAM-3095
p1978
aVBEAM-3094
p1979
aVBEAM-3093
p1980
aVBEAM-3092
p1981
aVBEAM-3091
p1982
aVBEAM-3090
p1983
aVBEAM-3089
p1984
aVBEAM-3088
p1985
aVBEAM-3087
p1986
aVBEAM-3086
p1987
aVBEAM-3085
p1988
aVBEAM-3084
p1989
aVBEAM-3083
p1990
aVBEAM-3082
p1991
aVBEAM-3081
p1992
aVBEAM-3080
p1993
aVBEAM-3079
p1994
aVBEAM-3078
p1995
aVBEAM-3077
p1996
aVBEAM-3076
p1997
aVBEAM-3075
p1998
aVBEAM-3074
p1999
aVBEAM-3073
p2000
aVBEAM-3072
p2001
aVBEAM-3071
p2002
aVBEAM-3070
p2003
aVBEAM-3069
p2004
aVBEAM-3068
p2005
aVBEAM-3067
p2006
aVBEAM-3066
p2007
aVBEAM-3065
p2008
aVBEAM-3064
p2009
aVBEAM-3063
p2010
aVBEAM-3062
p2011
aVBEAM-3061
p2012
aVBEAM-3060
p2013
aVBEAM-3059
p2014
aVBEAM-3058
p2015
aVBEAM-3057
p2016
aVBEAM-3056
p2017
aVBEAM-3055
p2018
aVBEAM-3054
p2019
aVBEAM-3053
p2020
aVBEAM-3052
p2021
aVBEAM-3051
p2022
aVBEAM-3050
p2023
aVBEAM-3049
p2024
aVBEAM-3048
p2025
aVBEAM-3047
p2026
aVBEAM-3046
p2027
aVBEAM-3045
p2028
aVBEAM-3044
p2029
aVBEAM-3043
p2030
aVBEAM-3042
p2031
aVBEAM-3041
p2032
aVBEAM-3040
p2033
aVBEAM-3039
p2034
aVBEAM-3038
p2035
aVBEAM-3037
p2036
aVBEAM-3036
p2037
aVBEAM-3035
p2038
aVBEAM-3034
p2039
aVBEAM-3033
p2040
aVBEAM-3032
p2041
aVBEAM-3031
p2042
aVBEAM-3030
p2043
aVBEAM-3029
p2044
aVBEAM-3028
p2045
aVBEAM-3027
p2046
aVBEAM-3026
p2047
aVBEAM-3025
p2048
aVBEAM-3024
p2049
aVBEAM-3023
p2050
aVBEAM-3022
p2051
aVBEAM-3021
p2052
aVBEAM-3020
p2053
aVBEAM-3019
p2054
aVBEAM-3018
p2055
aVBEAM-3017
p2056
aVBEAM-3016
p2057
aVBEAM-3015
p2058
aVBEAM-3014
p2059
aVBEAM-3013
p2060
aVBEAM-3012
p2061
aVBEAM-3011
p2062
aVBEAM-3010
p2063
aVBEAM-3009
p2064
aVBEAM-3008
p2065
aVBEAM-3007
p2066
aVBEAM-3006
p2067
aVBEAM-3005
p2068
aVBEAM-3004
p2069
aVBEAM-3003
p2070
aVBEAM-3002
p2071
aVBEAM-3001
p2072
aVBEAM-3000
p2073
aVBEAM-2999
p2074
aVBEAM-2998
p2075
aVBEAM-2997
p2076
aVBEAM-2996
p2077
aVBEAM-2995
p2078
aVBEAM-2994
p2079
aVBEAM-2993
p2080
aVBEAM-2992
p2081
aVBEAM-2991
p2082
aVBEAM-2990
p2083
aVBEAM-2989
p2084
aVBEAM-2988
p2085
aVBEAM-2987
p2086
aVBEAM-2986
p2087
aVBEAM-2985
p2088
aVBEAM-2984
p2089
aVBEAM-2983
p2090
aVBEAM-2982
p2091
aVBEAM-2981
p2092
aVBEAM-2980
p2093
aVBEAM-2979
p2094
aVBEAM-2978
p2095
aVBEAM-2977
p2096
aVBEAM-2976
p2097
aVBEAM-2975
p2098
aVBEAM-2974
p2099
aVBEAM-2973
p2100
aVBEAM-2972
p2101
aVBEAM-2971
p2102
aVBEAM-2970
p2103
aVBEAM-2969
p2104
aVBEAM-2968
p2105
aVBEAM-2967
p2106
aVBEAM-2966
p2107
aVBEAM-2965
p2108
aVBEAM-2964
p2109
aVBEAM-2963
p2110
aVBEAM-2962
p2111
aVBEAM-2961
p2112
aVBEAM-2960
p2113
aVBEAM-2959
p2114
aVBEAM-2958
p2115
aVBEAM-2957
p2116
aVBEAM-2956
p2117
aVBEAM-2955
p2118
aVBEAM-2954
p2119
aVBEAM-2953
p2120
aVBEAM-2952
p2121
aVBEAM-2951
p2122
aVBEAM-2950
p2123
aVBEAM-2949
p2124
aVBEAM-2948
p2125
aVBEAM-2947
p2126
aVBEAM-2946
p2127
aVBEAM-2945
p2128
aVBEAM-2944
p2129
aVBEAM-2943
p2130
aVBEAM-2942
p2131
aVBEAM-2941
p2132
aVBEAM-2940
p2133
aVBEAM-2939
p2134
aVBEAM-2938
p2135
aVBEAM-2937
p2136
aVBEAM-2936
p2137
aVBEAM-2935
p2138
aVBEAM-2934
p2139
aVBEAM-2933
p2140
aVBEAM-2932
p2141
aVBEAM-2931
p2142
aVBEAM-2930
p2143
aVBEAM-2929
p2144
aVBEAM-2928
p2145
aVBEAM-2927
p2146
aVBEAM-2926
p2147
aVBEAM-2925
p2148
aVBEAM-2924
p2149
aVBEAM-2923
p2150
aVBEAM-2922
p2151
aVBEAM-2921
p2152
aVBEAM-2920
p2153
aVBEAM-2919
p2154
aVBEAM-2918
p2155
aVBEAM-2917
p2156
aVBEAM-2916
p2157
aVBEAM-2915
p2158
aVBEAM-2914
p2159
aVBEAM-2913
p2160
aVBEAM-2912
p2161
aVBEAM-2911
p2162
aVBEAM-2910
p2163
aVBEAM-2909
p2164
aVBEAM-2908
p2165
aVBEAM-2907
p2166
aVBEAM-2906
p2167
aVBEAM-2905
p2168
aVBEAM-2904
p2169
aVBEAM-2903
p2170
aVBEAM-2902
p2171
aVBEAM-2901
p2172
aVBEAM-2900
p2173
aVBEAM-2899
p2174
aVBEAM-2898
p2175
aVBEAM-2897
p2176
aVBEAM-2896
p2177
aVBEAM-2895
p2178
aVBEAM-2894
p2179
aVBEAM-2893
p2180
aVBEAM-2892
p2181
aVBEAM-2891
p2182
aVBEAM-2890
p2183
aVBEAM-2889
p2184
aVBEAM-2888
p2185
aVBEAM-2887
p2186
aVBEAM-2886
p2187
aVBEAM-2885
p2188
aVBEAM-2884
p2189
aVBEAM-2883
p2190
aVBEAM-2882
p2191
aVBEAM-2881
p2192
aVBEAM-2880
p2193
aVBEAM-2879
p2194
aVBEAM-2878
p2195
aVBEAM-2877
p2196
aVBEAM-2876
p2197
aVBEAM-2875
p2198
aVBEAM-2874
p2199
aVBEAM-2873
p2200
aVBEAM-2872
p2201
aVBEAM-2871
p2202
aVBEAM-2870
p2203
aVBEAM-2869
p2204
aVBEAM-2868
p2205
aVBEAM-2867
p2206
aVBEAM-2866
p2207
aVBEAM-2865
p2208
aVBEAM-2864
p2209
aVBEAM-2863
p2210
aVBEAM-2862
p2211
aVBEAM-2861
p2212
aVBEAM-2860
p2213
aVBEAM-2859
p2214
aVBEAM-2858
p2215
aVBEAM-2857
p2216
aVBEAM-2856
p2217
aVBEAM-2855
p2218
aVBEAM-2854
p2219
aVBEAM-2853
p2220
aVBEAM-2852
p2221
aVBEAM-2851
p2222
aVBEAM-2850
p2223
aVBEAM-2849
p2224
aVBEAM-2848
p2225
aVBEAM-2847
p2226
aVBEAM-2846
p2227
aVBEAM-2845
p2228
aVBEAM-2844
p2229
aVBEAM-2843
p2230
aVBEAM-2842
p2231
aVBEAM-2841
p2232
aVBEAM-2840
p2233
aVBEAM-2839
p2234
aVBEAM-2838
p2235
aVBEAM-2837
p2236
aVBEAM-2836
p2237
aVBEAM-2835
p2238
aVBEAM-2834
p2239
aVBEAM-2833
p2240
aVBEAM-2832
p2241
aVBEAM-2831
p2242
aVBEAM-2830
p2243
aVBEAM-2829
p2244
aVBEAM-2828
p2245
aVBEAM-2827
p2246
aVBEAM-2826
p2247
aVBEAM-2825
p2248
aVBEAM-2824
p2249
aVBEAM-2823
p2250
aVBEAM-2822
p2251
aVBEAM-2821
p2252
aVBEAM-2820
p2253
aVBEAM-2819
p2254
aVBEAM-2818
p2255
aVBEAM-2817
p2256
aVBEAM-2816
p2257
aVBEAM-2815
p2258
aVBEAM-2814
p2259
aVBEAM-2813
p2260
aVBEAM-2812
p2261
aVBEAM-2811
p2262
aVBEAM-2810
p2263
aVBEAM-2809
p2264
aVBEAM-2808
p2265
aVBEAM-2807
p2266
aVBEAM-2806
p2267
aVBEAM-2805
p2268
aVBEAM-2804
p2269
aVBEAM-2803
p2270
aVBEAM-2802
p2271
aVBEAM-2801
p2272
aVBEAM-2800
p2273
aVBEAM-2799
p2274
aVBEAM-2798
p2275
aVBEAM-2797
p2276
aVBEAM-2796
p2277
aVBEAM-2795
p2278
aVBEAM-2794
p2279
aVBEAM-2793
p2280
aVBEAM-2792
p2281
aVBEAM-2791
p2282
aVBEAM-2790
p2283
aVBEAM-2789
p2284
aVBEAM-2788
p2285
aVBEAM-2787
p2286
aVBEAM-2786
p2287
aVBEAM-2785
p2288
aVBEAM-2784
p2289
aVBEAM-2783
p2290
aVBEAM-2782
p2291
aVBEAM-2781
p2292
aVBEAM-2780
p2293
aVBEAM-2779
p2294
aVBEAM-2778
p2295
aVBEAM-2777
p2296
aVBEAM-2776
p2297
aVBEAM-2775
p2298
aVBEAM-2774
p2299
aVBEAM-2773
p2300
aVBEAM-2772
p2301
aVBEAM-2771
p2302
aVBEAM-2770
p2303
aVBEAM-2769
p2304
aVBEAM-2768
p2305
aVBEAM-2767
p2306
aVBEAM-2766
p2307
aVBEAM-2765
p2308
aVBEAM-2764
p2309
aVBEAM-2763
p2310
aVBEAM-2762
p2311
aVBEAM-2761
p2312
aVBEAM-2760
p2313
aVBEAM-2759
p2314
aVBEAM-2758
p2315
aVBEAM-2757
p2316
aVBEAM-2756
p2317
aVBEAM-2755
p2318
aVBEAM-2754
p2319
aVBEAM-2753
p2320
aVBEAM-2752
p2321
aVBEAM-2751
p2322
aVBEAM-2750
p2323
aVBEAM-2749
p2324
aVBEAM-2748
p2325
aVBEAM-2747
p2326
aVBEAM-2746
p2327
aVBEAM-2745
p2328
aVBEAM-2744
p2329
aVBEAM-2743
p2330
aVBEAM-2742
p2331
aVBEAM-2741
p2332
aVBEAM-2740
p2333
aVBEAM-2739
p2334
aVBEAM-2738
p2335
aVBEAM-2737
p2336
aVBEAM-2736
p2337
aVBEAM-2735
p2338
aVBEAM-2734
p2339
aVBEAM-2733
p2340
aVBEAM-2732
p2341
aVBEAM-2731
p2342
aVBEAM-2730
p2343
aVBEAM-2729
p2344
aVBEAM-2728
p2345
aVBEAM-2727
p2346
aVBEAM-2726
p2347
aVBEAM-2725
p2348
aVBEAM-2724
p2349
aVBEAM-2723
p2350
aVBEAM-2722
p2351
aVBEAM-2721
p2352
aVBEAM-2720
p2353
aVBEAM-2719
p2354
aVBEAM-2718
p2355
aVBEAM-2717
p2356
aVBEAM-2716
p2357
aVBEAM-2715
p2358
aVBEAM-2714
p2359
aVBEAM-2713
p2360
aVBEAM-2712
p2361
aVBEAM-2711
p2362
aVBEAM-2710
p2363
aVBEAM-2709
p2364
aVBEAM-2708
p2365
aVBEAM-2707
p2366
aVBEAM-2706
p2367
aVBEAM-2705
p2368
aVBEAM-2704
p2369
aVBEAM-2703
p2370
aVBEAM-2702
p2371
aVBEAM-2701
p2372
aVBEAM-2700
p2373
aVBEAM-2699
p2374
aVBEAM-2698
p2375
aVBEAM-2697
p2376
aVBEAM-2696
p2377
aVBEAM-2695
p2378
aVBEAM-2694
p2379
aVBEAM-2693
p2380
aVBEAM-2692
p2381
aVBEAM-2691
p2382
aVBEAM-2690
p2383
aVBEAM-2689
p2384
aVBEAM-2688
p2385
aVBEAM-2687
p2386
aVBEAM-2686
p2387
aVBEAM-2685
p2388
aVBEAM-2684
p2389
aVBEAM-2683
p2390
aVBEAM-2682
p2391
aVBEAM-2681
p2392
aVBEAM-2680
p2393
aVBEAM-2679
p2394
aVBEAM-2678
p2395
aVBEAM-2677
p2396
aVBEAM-2676
p2397
aVBEAM-2675
p2398
aVBEAM-2674
p2399
aVBEAM-2673
p2400
aVBEAM-2672
p2401
aVBEAM-2671
p2402
aVBEAM-2670
p2403
aVBEAM-2669
p2404
aVBEAM-2668
p2405
aVBEAM-2667
p2406
aVBEAM-2666
p2407
aVBEAM-2665
p2408
aVBEAM-2664
p2409
aVBEAM-2663
p2410
aVBEAM-2662
p2411
aVBEAM-2661
p2412
aVBEAM-2660
p2413
aVBEAM-2659
p2414
aVBEAM-2658
p2415
aVBEAM-2657
p2416
aVBEAM-2656
p2417
aVBEAM-2655
p2418
aVBEAM-2654
p2419
aVBEAM-2653
p2420
aVBEAM-2652
p2421
aVBEAM-2651
p2422
aVBEAM-2650
p2423
aVBEAM-2649
p2424
aVBEAM-2648
p2425
aVBEAM-2647
p2426
aVBEAM-2646
p2427
aVBEAM-2645
p2428
aVBEAM-2644
p2429
aVBEAM-2643
p2430
aVBEAM-2642
p2431
aVBEAM-2641
p2432
aVBEAM-2640
p2433
aVBEAM-2639
p2434
aVBEAM-2638
p2435
aVBEAM-2637
p2436
aVBEAM-2636
p2437
aVBEAM-2635
p2438
aVBEAM-2634
p2439
aVBEAM-2633
p2440
aVBEAM-2632
p2441
aVBEAM-2631
p2442
aVBEAM-2630
p2443
aVBEAM-2629
p2444
aVBEAM-2628
p2445
aVBEAM-2627
p2446
aVBEAM-2626
p2447
aVBEAM-2625
p2448
aVBEAM-2624
p2449
aVBEAM-2623
p2450
aVBEAM-2622
p2451
aVBEAM-2621
p2452
aVBEAM-2620
p2453
aVBEAM-2619
p2454
aVBEAM-2618
p2455
aVBEAM-2617
p2456
aVBEAM-2616
p2457
aVBEAM-2615
p2458
aVBEAM-2614
p2459
aVBEAM-2613
p2460
aVBEAM-2612
p2461
aVBEAM-2611
p2462
aVBEAM-2610
p2463
aVBEAM-2609
p2464
aVBEAM-2608
p2465
aVBEAM-2607
p2466
aVBEAM-2606
p2467
aVBEAM-2605
p2468
aVBEAM-2604
p2469
aVBEAM-2603
p2470
aVBEAM-2602
p2471
aVBEAM-2601
p2472
aVBEAM-2600
p2473
aVBEAM-2599
p2474
aVBEAM-2598
p2475
aVBEAM-2597
p2476
aVBEAM-2596
p2477
aVBEAM-2595
p2478
aVBEAM-2594
p2479
aVBEAM-2593
p2480
aVBEAM-2592
p2481
aVBEAM-2591
p2482
aVBEAM-2590
p2483
aVBEAM-2589
p2484
aVBEAM-2588
p2485
aVBEAM-2587
p2486
aVBEAM-2586
p2487
aVBEAM-2585
p2488
aVBEAM-2584
p2489
aVBEAM-2583
p2490
aVBEAM-2582
p2491
aVBEAM-2581
p2492
aVBEAM-2580
p2493
aVBEAM-2579
p2494
aVBEAM-2578
p2495
aVBEAM-2577
p2496
aVBEAM-2576
p2497
aVBEAM-2575
p2498
aVBEAM-2574
p2499
aVBEAM-2573
p2500
aVBEAM-2572
p2501
aVBEAM-2571
p2502
aVBEAM-2570
p2503
aVBEAM-2569
p2504
aVBEAM-2568
p2505
aVBEAM-2567
p2506
aVBEAM-2566
p2507
aVBEAM-2565
p2508
aVBEAM-2564
p2509
aVBEAM-2563
p2510
aVBEAM-2562
p2511
aVBEAM-2561
p2512
aVBEAM-2560
p2513
aVBEAM-2559
p2514
aVBEAM-2558
p2515
aVBEAM-2557
p2516
aVBEAM-2556
p2517
aVBEAM-2555
p2518
aVBEAM-2554
p2519
aVBEAM-2553
p2520
aVBEAM-2552
p2521
aVBEAM-2551
p2522
aVBEAM-2550
p2523
aVBEAM-2549
p2524
aVBEAM-2548
p2525
aVBEAM-2547
p2526
aVBEAM-2546
p2527
aVBEAM-2545
p2528
aVBEAM-2544
p2529
aVBEAM-2543
p2530
aVBEAM-2542
p2531
aVBEAM-2541
p2532
aVBEAM-2540
p2533
aVBEAM-2539
p2534
aVBEAM-2538
p2535
aVBEAM-2537
p2536
aVBEAM-2536
p2537
aVBEAM-2535
p2538
aVBEAM-2534
p2539
aVBEAM-2533
p2540
aVBEAM-2532
p2541
aVBEAM-2531
p2542
aVBEAM-2530
p2543
aVBEAM-2529
p2544
aVBEAM-2528
p2545
aVBEAM-2527
p2546
aVBEAM-2526
p2547
aVBEAM-2525
p2548
aVBEAM-2524
p2549
aVBEAM-2523
p2550
aVBEAM-2522
p2551
aVBEAM-2521
p2552
aVBEAM-2520
p2553
aVBEAM-2519
p2554
aVBEAM-2518
p2555
aVBEAM-2517
p2556
aVBEAM-2516
p2557
aVBEAM-2515
p2558
aVBEAM-2514
p2559
aVBEAM-2513
p2560
aVBEAM-2512
p2561
aVBEAM-2511
p2562
aVBEAM-2510
p2563
aVBEAM-2509
p2564
aVBEAM-2508
p2565
aVBEAM-2507
p2566
aVBEAM-2506
p2567
aVBEAM-2505
p2568
aVBEAM-2504
p2569
aVBEAM-2503
p2570
aVBEAM-2502
p2571
aVBEAM-2501
p2572
aVBEAM-2500
p2573
aVBEAM-2499
p2574
aVBEAM-2498
p2575
aVBEAM-2497
p2576
aVBEAM-2496
p2577
aVBEAM-2495
p2578
aVBEAM-2494
p2579
aVBEAM-2493
p2580
aVBEAM-2492
p2581
aVBEAM-2491
p2582
aVBEAM-2490
p2583
aVBEAM-2489
p2584
aVBEAM-2488
p2585
aVBEAM-2487
p2586
aVBEAM-2486
p2587
aVBEAM-2485
p2588
aVBEAM-2484
p2589
aVBEAM-2483
p2590
aVBEAM-2482
p2591
aVBEAM-2481
p2592
aVBEAM-2480
p2593
aVBEAM-2479
p2594
aVBEAM-2478
p2595
aVBEAM-2477
p2596
aVBEAM-2476
p2597
aVBEAM-2475
p2598
aVBEAM-2474
p2599
aVBEAM-2473
p2600
aVBEAM-2472
p2601
aVBEAM-2471
p2602
aVBEAM-2470
p2603
aVBEAM-2469
p2604
aVBEAM-2468
p2605
aVBEAM-2467
p2606
aVBEAM-2466
p2607
aVBEAM-2465
p2608
aVBEAM-2464
p2609
aVBEAM-2463
p2610
aVBEAM-2462
p2611
aVBEAM-2461
p2612
aVBEAM-2460
p2613
aVBEAM-2459
p2614
aVBEAM-2458
p2615
aVBEAM-2457
p2616
aVBEAM-2456
p2617
aVBEAM-2455
p2618
aVBEAM-2454
p2619
aVBEAM-2453
p2620
aVBEAM-2452
p2621
aVBEAM-2451
p2622
aVBEAM-2450
p2623
aVBEAM-2449
p2624
aVBEAM-2448
p2625
aVBEAM-2447
p2626
aVBEAM-2446
p2627
aVBEAM-2445
p2628
aVBEAM-2444
p2629
aVBEAM-2443
p2630
aVBEAM-2442
p2631
aVBEAM-2441
p2632
aVBEAM-2440
p2633
aVBEAM-2439
p2634
aVBEAM-2438
p2635
aVBEAM-2437
p2636
aVBEAM-2436
p2637
aVBEAM-2435
p2638
aVBEAM-2434
p2639
aVBEAM-2433
p2640
aVBEAM-2432
p2641
aVBEAM-2431
p2642
aVBEAM-2430
p2643
aVBEAM-2429
p2644
aVBEAM-2428
p2645
aVBEAM-2427
p2646
aVBEAM-2426
p2647
aVBEAM-2425
p2648
aVBEAM-2424
p2649
aVBEAM-2423
p2650
aVBEAM-2422
p2651
aVBEAM-2421
p2652
aVBEAM-2420
p2653
aVBEAM-2419
p2654
aVBEAM-2418
p2655
aVBEAM-2417
p2656
aVBEAM-2416
p2657
aVBEAM-2415
p2658
aVBEAM-2414
p2659
aVBEAM-2413
p2660
aVBEAM-2412
p2661
aVBEAM-2411
p2662
aVBEAM-2410
p2663
aVBEAM-2409
p2664
aVBEAM-2408
p2665
aVBEAM-2407
p2666
aVBEAM-2406
p2667
aVBEAM-2405
p2668
aVBEAM-2404
p2669
aVBEAM-2403
p2670
aVBEAM-2402
p2671
aVBEAM-2401
p2672
aVBEAM-2400
p2673
aVBEAM-2399
p2674
aVBEAM-2398
p2675
aVBEAM-2397
p2676
aVBEAM-2396
p2677
aVBEAM-2395
p2678
aVBEAM-2394
p2679
aVBEAM-2393
p2680
aVBEAM-2392
p2681
aVBEAM-2391
p2682
aVBEAM-2390
p2683
aVBEAM-2389
p2684
aVBEAM-2388
p2685
aVBEAM-2387
p2686
aVBEAM-2386
p2687
aVBEAM-2385
p2688
aVBEAM-2384
p2689
aVBEAM-2383
p2690
aVBEAM-2382
p2691
aVBEAM-2381
p2692
aVBEAM-2380
p2693
aVBEAM-2379
p2694
aVBEAM-2378
p2695
aVBEAM-2377
p2696
aVBEAM-2376
p2697
aVBEAM-2375
p2698
aVBEAM-2374
p2699
aVBEAM-2373
p2700
aVBEAM-2372
p2701
aVBEAM-2371
p2702
aVBEAM-2370
p2703
aVBEAM-2369
p2704
aVBEAM-2368
p2705
aVBEAM-2367
p2706
aVBEAM-2366
p2707
aVBEAM-2365
p2708
aVBEAM-2364
p2709
aVBEAM-2363
p2710
aVBEAM-2362
p2711
aVBEAM-2361
p2712
aVBEAM-2360
p2713
aVBEAM-2359
p2714
aVBEAM-2358
p2715
aVBEAM-2357
p2716
aVBEAM-2356
p2717
aVBEAM-2355
p2718
aVBEAM-2354
p2719
aVBEAM-2353
p2720
aVBEAM-2352
p2721
aVBEAM-2351
p2722
aVBEAM-2350
p2723
aVBEAM-2349
p2724
aVBEAM-2348
p2725
aVBEAM-2347
p2726
aVBEAM-2346
p2727
aVBEAM-2345
p2728
aVBEAM-2344
p2729
aVBEAM-2343
p2730
aVBEAM-2342
p2731
aVBEAM-2341
p2732
aVBEAM-2340
p2733
aVBEAM-2339
p2734
aVBEAM-2338
p2735
aVBEAM-2337
p2736
aVBEAM-2336
p2737
aVBEAM-2335
p2738
aVBEAM-2334
p2739
aVBEAM-2333
p2740
aVBEAM-2332
p2741
aVBEAM-2331
p2742
aVBEAM-2330
p2743
aVBEAM-2329
p2744
aVBEAM-2328
p2745
aVBEAM-2327
p2746
aVBEAM-2326
p2747
aVBEAM-2325
p2748
aVBEAM-2324
p2749
aVBEAM-2323
p2750
aVBEAM-2322
p2751
aVBEAM-2321
p2752
aVBEAM-2320
p2753
aVBEAM-2319
p2754
aVBEAM-2318
p2755
aVBEAM-2317
p2756
aVBEAM-2316
p2757
aVBEAM-2315
p2758
aVBEAM-2314
p2759
aVBEAM-2313
p2760
aVBEAM-2312
p2761
aVBEAM-2311
p2762
aVBEAM-2310
p2763
aVBEAM-2309
p2764
aVBEAM-2308
p2765
aVBEAM-2307
p2766
aVBEAM-2306
p2767
aVBEAM-2305
p2768
aVBEAM-2304
p2769
aVBEAM-2303
p2770
aVBEAM-2302
p2771
aVBEAM-2301
p2772
aVBEAM-2300
p2773
aVBEAM-2299
p2774
aVBEAM-2298
p2775
aVBEAM-2297
p2776
aVBEAM-2296
p2777
aVBEAM-2295
p2778
aVBEAM-2294
p2779
aVBEAM-2293
p2780
aVBEAM-2292
p2781
aVBEAM-2291
p2782
aVBEAM-2290
p2783
aVBEAM-2289
p2784
aVBEAM-2288
p2785
aVBEAM-2287
p2786
aVBEAM-2286
p2787
aVBEAM-2285
p2788
aVBEAM-2284
p2789
aVBEAM-2283
p2790
aVBEAM-2282
p2791
aVBEAM-2281
p2792
aVBEAM-2280
p2793
aVBEAM-2279
p2794
aVBEAM-2278
p2795
aVBEAM-2277
p2796
aVBEAM-2276
p2797
aVBEAM-2275
p2798
aVBEAM-2274
p2799
aVBEAM-2273
p2800
aVBEAM-2272
p2801
aVBEAM-2271
p2802
aVBEAM-2270
p2803
aVBEAM-2269
p2804
aVBEAM-2268
p2805
aVBEAM-2267
p2806
aVBEAM-2266
p2807
aVBEAM-2265
p2808
aVBEAM-2264
p2809
aVBEAM-2263
p2810
aVBEAM-2262
p2811
aVBEAM-2261
p2812
aVBEAM-2260
p2813
aVBEAM-2259
p2814
aVBEAM-2258
p2815
aVBEAM-2257
p2816
aVBEAM-2256
p2817
aVBEAM-2255
p2818
aVBEAM-2254
p2819
aVBEAM-2253
p2820
aVBEAM-2252
p2821
aVBEAM-2251
p2822
aVBEAM-2250
p2823
aVBEAM-2249
p2824
aVBEAM-2248
p2825
aVBEAM-2247
p2826
aVBEAM-2246
p2827
aVBEAM-2245
p2828
aVBEAM-2244
p2829
aVBEAM-2243
p2830
aVBEAM-2242
p2831
aVBEAM-2241
p2832
aVBEAM-2240
p2833
aVBEAM-2239
p2834
aVBEAM-2238
p2835
aVBEAM-2237
p2836
aVBEAM-2236
p2837
aVBEAM-2235
p2838
aVBEAM-2234
p2839
aVBEAM-2233
p2840
aVBEAM-2232
p2841
aVBEAM-2231
p2842
aVBEAM-2230
p2843
aVBEAM-2229
p2844
aVBEAM-2228
p2845
aVBEAM-2227
p2846
aVBEAM-2226
p2847
aVBEAM-2225
p2848
aVBEAM-2224
p2849
aVBEAM-2223
p2850
aVBEAM-2222
p2851
aVBEAM-2221
p2852
aVBEAM-2220
p2853
aVBEAM-2219
p2854
aVBEAM-2218
p2855
aVBEAM-2217
p2856
aVBEAM-2216
p2857
aVBEAM-2215
p2858
aVBEAM-2214
p2859
aVBEAM-2213
p2860
aVBEAM-2212
p2861
aVBEAM-2211
p2862
aVBEAM-2210
p2863
aVBEAM-2209
p2864
aVBEAM-2208
p2865
aVBEAM-2207
p2866
aVBEAM-2206
p2867
aVBEAM-2205
p2868
aVBEAM-2204
p2869
aVBEAM-2203
p2870
aVBEAM-2202
p2871
aVBEAM-2201
p2872
aVBEAM-2200
p2873
aVBEAM-2199
p2874
aVBEAM-2198
p2875
aVBEAM-2197
p2876
aVBEAM-2196
p2877
aVBEAM-2195
p2878
aVBEAM-2194
p2879
aVBEAM-2193
p2880
aVBEAM-2192
p2881
aVBEAM-2191
p2882
aVBEAM-2190
p2883
aVBEAM-2189
p2884
aVBEAM-2188
p2885
aVBEAM-2187
p2886
aVBEAM-2186
p2887
aVBEAM-2185
p2888
aVBEAM-2184
p2889
aVBEAM-2183
p2890
aVBEAM-2182
p2891
aVBEAM-2181
p2892
aVBEAM-2180
p2893
aVBEAM-2179
p2894
aVBEAM-2178
p2895
aVBEAM-2177
p2896
aVBEAM-2176
p2897
aVBEAM-2175
p2898
aVBEAM-2174
p2899
aVBEAM-2173
p2900
aVBEAM-2172
p2901
aVBEAM-2171
p2902
aVBEAM-2170
p2903
aVBEAM-2169
p2904
aVBEAM-2168
p2905
aVBEAM-2167
p2906
aVBEAM-2166
p2907
aVBEAM-2165
p2908
aVBEAM-2164
p2909
aVBEAM-2163
p2910
aVBEAM-2162
p2911
aVBEAM-2161
p2912
aVBEAM-2160
p2913
aVBEAM-2159
p2914
aVBEAM-2158
p2915
aVBEAM-2157
p2916
aVBEAM-2156
p2917
aVBEAM-2155
p2918
aVBEAM-2154
p2919
aVBEAM-2153
p2920
aVBEAM-2152
p2921
aVBEAM-2151
p2922
aVBEAM-2150
p2923
aVBEAM-2149
p2924
aVBEAM-2148
p2925
aVBEAM-2147
p2926
aVBEAM-2146
p2927
aVBEAM-2145
p2928
aVBEAM-2144
p2929
aVBEAM-2143
p2930
aVBEAM-2142
p2931
aVBEAM-2141
p2932
aVBEAM-2140
p2933
aVBEAM-2139
p2934
aVBEAM-2138
p2935
aVBEAM-2137
p2936
aVBEAM-2136
p2937
aVBEAM-2135
p2938
aVBEAM-2134
p2939
aVBEAM-2133
p2940
aVBEAM-2132
p2941
aVBEAM-2131
p2942
aVBEAM-2130
p2943
aVBEAM-2129
p2944
aVBEAM-2128
p2945
aVBEAM-2127
p2946
aVBEAM-2126
p2947
aVBEAM-2125
p2948
aVBEAM-2124
p2949
aVBEAM-2123
p2950
aVBEAM-2122
p2951
aVBEAM-2121
p2952
aVBEAM-2120
p2953
aVBEAM-2119
p2954
aVBEAM-2118
p2955
aVBEAM-2117
p2956
aVBEAM-2116
p2957
aVBEAM-2115
p2958
aVBEAM-2114
p2959
aVBEAM-2113
p2960
aVBEAM-2112
p2961
aVBEAM-2111
p2962
aVBEAM-2110
p2963
aVBEAM-2109
p2964
aVBEAM-2108
p2965
aVBEAM-2107
p2966
aVBEAM-2106
p2967
aVBEAM-2105
p2968
aVBEAM-2104
p2969
aVBEAM-2103
p2970
aVBEAM-2102
p2971
aVBEAM-2101
p2972
aVBEAM-2100
p2973
aVBEAM-2099
p2974
aVBEAM-2098
p2975
aVBEAM-2097
p2976
aVBEAM-2096
p2977
aVBEAM-2095
p2978
aVBEAM-2094
p2979
aVBEAM-2093
p2980
aVBEAM-2092
p2981
aVBEAM-2091
p2982
aVBEAM-2090
p2983
aVBEAM-2089
p2984
aVBEAM-2088
p2985
aVBEAM-2087
p2986
aVBEAM-2086
p2987
aVBEAM-2085
p2988
aVBEAM-2084
p2989
aVBEAM-2083
p2990
aVBEAM-2082
p2991
aVBEAM-2081
p2992
aVBEAM-2080
p2993
aVBEAM-2079
p2994
aVBEAM-2078
p2995
aVBEAM-2077
p2996
aVBEAM-2076
p2997
aVBEAM-2075
p2998
aVBEAM-2074
p2999
aVBEAM-2073
p3000
aVBEAM-2072
p3001
aVBEAM-2071
p3002
aVBEAM-2070
p3003
aVBEAM-2069
p3004
aVBEAM-2068
p3005
aVBEAM-2067
p3006
aVBEAM-2066
p3007
aVBEAM-2065
p3008
aVBEAM-2064
p3009
aVBEAM-2063
p3010
aVBEAM-2062
p3011
aVBEAM-2061
p3012
aVBEAM-2060
p3013
aVBEAM-2059
p3014
aVBEAM-2058
p3015
aVBEAM-2057
p3016
aVBEAM-2056
p3017
aVBEAM-2055
p3018
aVBEAM-2054
p3019
aVBEAM-2053
p3020
aVBEAM-2052
p3021
aVBEAM-2051
p3022
aVBEAM-2050
p3023
aVBEAM-2049
p3024
aVBEAM-2048
p3025
aVBEAM-2047
p3026
aVBEAM-2046
p3027
aVBEAM-2045
p3028
aVBEAM-2044
p3029
aVBEAM-2043
p3030
aVBEAM-2042
p3031
aVBEAM-2041
p3032
aVBEAM-2040
p3033
aVBEAM-2039
p3034
aVBEAM-2038
p3035
aVBEAM-2037
p3036
aVBEAM-2036
p3037
aVBEAM-2035
p3038
aVBEAM-2034
p3039
aVBEAM-2033
p3040
aVBEAM-2032
p3041
aVBEAM-2031
p3042
aVBEAM-2030
p3043
aVBEAM-2029
p3044
aVBEAM-2028
p3045
aVBEAM-2027
p3046
aVBEAM-2026
p3047
aVBEAM-2025
p3048
aVBEAM-2024
p3049
aVBEAM-2023
p3050
aVBEAM-2022
p3051
aVBEAM-2021
p3052
aVBEAM-2020
p3053
aVBEAM-2019
p3054
aVBEAM-2018
p3055
aVBEAM-2017
p3056
aVBEAM-2016
p3057
aVBEAM-2015
p3058
aVBEAM-2014
p3059
aVBEAM-2013
p3060
aVBEAM-2012
p3061
aVBEAM-2011
p3062
aVBEAM-2010
p3063
aVBEAM-2009
p3064
aVBEAM-2008
p3065
aVBEAM-2007
p3066
aVBEAM-2006
p3067
aVBEAM-2005
p3068
aVBEAM-2004
p3069
aVBEAM-2003
p3070
aVBEAM-2002
p3071
aVBEAM-2001
p3072
aVBEAM-2000
p3073
aVBEAM-1999
p3074
aVBEAM-1998
p3075
aVBEAM-1997
p3076
aVBEAM-1996
p3077
aVBEAM-1995
p3078
aVBEAM-1994
p3079
aVBEAM-1993
p3080
aVBEAM-1992
p3081
aVBEAM-1991
p3082
aVBEAM-1990
p3083
aVBEAM-1989
p3084
aVBEAM-1988
p3085
aVBEAM-1987
p3086
aVBEAM-1986
p3087
aVBEAM-1985
p3088
aVBEAM-1984
p3089
aVBEAM-1983
p3090
aVBEAM-1982
p3091
aVBEAM-1981
p3092
aVBEAM-1980
p3093
aVBEAM-1979
p3094
aVBEAM-1978
p3095
aVBEAM-1977
p3096
aVBEAM-1976
p3097
aVBEAM-1975
p3098
aVBEAM-1974
p3099
aVBEAM-1973
p3100
aVBEAM-1972
p3101
aVBEAM-1971
p3102
aVBEAM-1970
p3103
aVBEAM-1969
p3104
aVBEAM-1968
p3105
aVBEAM-1967
p3106
aVBEAM-1966
p3107
aVBEAM-1965
p3108
aVBEAM-1964
p3109
aVBEAM-1963
p3110
aVBEAM-1962
p3111
aVBEAM-1961
p3112
aVBEAM-1960
p3113
aVBEAM-1959
p3114
aVBEAM-1958
p3115
aVBEAM-1957
p3116
aVBEAM-1956
p3117
aVBEAM-1955
p3118
aVBEAM-1954
p3119
aVBEAM-1953
p3120
aVBEAM-1952
p3121
aVBEAM-1951
p3122
aVBEAM-1950
p3123
aVBEAM-1949
p3124
aVBEAM-1948
p3125
aVBEAM-1947
p3126
aVBEAM-1946
p3127
aVBEAM-1945
p3128
aVBEAM-1944
p3129
aVBEAM-1943
p3130
aVBEAM-1942
p3131
aVBEAM-1941
p3132
aVBEAM-1940
p3133
aVBEAM-1939
p3134
aVBEAM-1938
p3135
aVBEAM-1937
p3136
aVBEAM-1936
p3137
aVBEAM-1935
p3138
aVBEAM-1934
p3139
aVBEAM-1933
p3140
aVBEAM-1932
p3141
aVBEAM-1931
p3142
aVBEAM-1930
p3143
aVBEAM-1929
p3144
aVBEAM-1928
p3145
aVBEAM-1927
p3146
aVBEAM-1926
p3147
aVBEAM-1925
p3148
aVBEAM-1924
p3149
aVBEAM-1923
p3150
aVBEAM-1922
p3151
aVBEAM-1921
p3152
aVBEAM-1920
p3153
aVBEAM-1919
p3154
aVBEAM-1918
p3155
aVBEAM-1917
p3156
aVBEAM-1916
p3157
aVBEAM-1915
p3158
aVBEAM-1914
p3159
aVBEAM-1913
p3160
aVBEAM-1912
p3161
aVBEAM-1911
p3162
aVBEAM-1910
p3163
aVBEAM-1909
p3164
aVBEAM-1908
p3165
aVBEAM-1907
p3166
aVBEAM-1906
p3167
aVBEAM-1905
p3168
aVBEAM-1904
p3169
aVBEAM-1903
p3170
aVBEAM-1902
p3171
aVBEAM-1901
p3172
aVBEAM-1900
p3173
aVBEAM-1899
p3174
aVBEAM-1898
p3175
aVBEAM-1897
p3176
aVBEAM-1896
p3177
aVBEAM-1895
p3178
aVBEAM-1894
p3179
aVBEAM-1893
p3180
aVBEAM-1892
p3181
aVBEAM-1891
p3182
aVBEAM-1890
p3183
aVBEAM-1889
p3184
aVBEAM-1888
p3185
aVBEAM-1887
p3186
aVBEAM-1886
p3187
aVBEAM-1885
p3188
aVBEAM-1884
p3189
aVBEAM-1883
p3190
aVBEAM-1882
p3191
aVBEAM-1881
p3192
aVBEAM-1880
p3193
aVBEAM-1879
p3194
aVBEAM-1878
p3195
aVBEAM-1877
p3196
aVBEAM-1876
p3197
aVBEAM-1875
p3198
aVBEAM-1874
p3199
aVBEAM-1873
p3200
aVBEAM-1872
p3201
aVBEAM-1871
p3202
aVBEAM-1870
p3203
aVBEAM-1869
p3204
aVBEAM-1868
p3205
aVBEAM-1867
p3206
aVBEAM-1866
p3207
aVBEAM-1865
p3208
aVBEAM-1864
p3209
aVBEAM-1863
p3210
aVBEAM-1862
p3211
aVBEAM-1861
p3212
aVBEAM-1860
p3213
aVBEAM-1859
p3214
aVBEAM-1858
p3215
aVBEAM-1857
p3216
aVBEAM-1856
p3217
aVBEAM-1855
p3218
aVBEAM-1854
p3219
aVBEAM-1853
p3220
aVBEAM-1852
p3221
aVBEAM-1851
p3222
aVBEAM-1850
p3223
aVBEAM-1849
p3224
aVBEAM-1848
p3225
aVBEAM-1847
p3226
aVBEAM-1846
p3227
aVBEAM-1845
p3228
aVBEAM-1844
p3229
aVBEAM-1843
p3230
aVBEAM-1842
p3231
aVBEAM-1841
p3232
aVBEAM-1840
p3233
aVBEAM-1839
p3234
aVBEAM-1838
p3235
aVBEAM-1837
p3236
aVBEAM-1836
p3237
aVBEAM-1835
p3238
aVBEAM-1834
p3239
aVBEAM-1833
p3240
aVBEAM-1832
p3241
aVBEAM-1831
p3242
aVBEAM-1830
p3243
aVBEAM-1829
p3244
aVBEAM-1828
p3245
aVBEAM-1827
p3246
aVBEAM-1826
p3247
aVBEAM-1825
p3248
aVBEAM-1824
p3249
aVBEAM-1823
p3250
aVBEAM-1822
p3251
aVBEAM-1821
p3252
aVBEAM-1820
p3253
aVBEAM-1819
p3254
aVBEAM-1818
p3255
aVBEAM-1817
p3256
aVBEAM-1816
p3257
aVBEAM-1815
p3258
aVBEAM-1814
p3259
aVBEAM-1813
p3260
aVBEAM-1812
p3261
aVBEAM-1811
p3262
aVBEAM-1810
p3263
aVBEAM-1809
p3264
aVBEAM-1808
p3265
aVBEAM-1807
p3266
aVBEAM-1806
p3267
aVBEAM-1805
p3268
aVBEAM-1804
p3269
aVBEAM-1803
p3270
aVBEAM-1802
p3271
aVBEAM-1801
p3272
aVBEAM-1800
p3273
aVBEAM-1799
p3274
aVBEAM-1798
p3275
aVBEAM-1797
p3276
aVBEAM-1796
p3277
aVBEAM-1795
p3278
aVBEAM-1794
p3279
aVBEAM-1793
p3280
aVBEAM-1792
p3281
aVBEAM-1791
p3282
aVBEAM-1790
p3283
aVBEAM-1789
p3284
aVBEAM-1788
p3285
aVBEAM-1787
p3286
aVBEAM-1786
p3287
aVBEAM-1785
p3288
aVBEAM-1784
p3289
aVBEAM-1783
p3290
aVBEAM-1782
p3291
aVBEAM-1781
p3292
aVBEAM-1780
p3293
aVBEAM-1779
p3294
aVBEAM-1778
p3295
aVBEAM-1777
p3296
aVBEAM-1776
p3297
aVBEAM-1775
p3298
aVBEAM-1774
p3299
aVBEAM-1773
p3300
aVBEAM-1772
p3301
aVBEAM-1771
p3302
aVBEAM-1770
p3303
aVBEAM-1769
p3304
aVBEAM-1768
p3305
aVBEAM-1767
p3306
aVBEAM-1766
p3307
aVBEAM-1765
p3308
aVBEAM-1764
p3309
aVBEAM-1763
p3310
aVBEAM-1762
p3311
aVBEAM-1761
p3312
aVBEAM-1760
p3313
aVBEAM-1759
p3314
aVBEAM-1758
p3315
aVBEAM-1757
p3316
aVBEAM-1756
p3317
aVBEAM-1755
p3318
aVBEAM-1754
p3319
aVBEAM-1753
p3320
aVBEAM-1752
p3321
aVBEAM-1751
p3322
aVBEAM-1750
p3323
aVBEAM-1749
p3324
aVBEAM-1748
p3325
aVBEAM-1747
p3326
aVBEAM-1746
p3327
aVBEAM-1745
p3328
aVBEAM-1744
p3329
aVBEAM-1743
p3330
aVBEAM-1742
p3331
aVBEAM-1741
p3332
aVBEAM-1740
p3333
aVBEAM-1739
p3334
aVBEAM-1738
p3335
aVBEAM-1737
p3336
aVBEAM-1736
p3337
aVBEAM-1735
p3338
aVBEAM-1734
p3339
aVBEAM-1733
p3340
aVBEAM-1732
p3341
aVBEAM-1731
p3342
aVBEAM-1730
p3343
aVBEAM-1729
p3344
aVBEAM-1728
p3345
aVBEAM-1727
p3346
aVBEAM-1726
p3347
aVBEAM-1725
p3348
aVBEAM-1724
p3349
aVBEAM-1723
p3350
aVBEAM-1722
p3351
aVBEAM-1721
p3352
aVBEAM-1720
p3353
aVBEAM-1719
p3354
aVBEAM-1718
p3355
aVBEAM-1717
p3356
aVBEAM-1716
p3357
aVBEAM-1715
p3358
aVBEAM-1714
p3359
aVBEAM-1713
p3360
aVBEAM-1712
p3361
aVBEAM-1711
p3362
aVBEAM-1710
p3363
aVBEAM-1709
p3364
aVBEAM-1708
p3365
aVBEAM-1707
p3366
aVBEAM-1706
p3367
aVBEAM-1705
p3368
aVBEAM-1704
p3369
aVBEAM-1703
p3370
aVBEAM-1702
p3371
aVBEAM-1701
p3372
aVBEAM-1700
p3373
aVBEAM-1699
p3374
aVBEAM-1698
p3375
aVBEAM-1697
p3376
aVBEAM-1696
p3377
aVBEAM-1695
p3378
aVBEAM-1694
p3379
aVBEAM-1693
p3380
aVBEAM-1692
p3381
aVBEAM-1691
p3382
aVBEAM-1690
p3383
aVBEAM-1689
p3384
aVBEAM-1688
p3385
aVBEAM-1687
p3386
aVBEAM-1686
p3387
aVBEAM-1685
p3388
aVBEAM-1684
p3389
aVBEAM-1683
p3390
aVBEAM-1682
p3391
aVBEAM-1681
p3392
aVBEAM-1680
p3393
aVBEAM-1679
p3394
aVBEAM-1678
p3395
aVBEAM-1677
p3396
aVBEAM-1676
p3397
aVBEAM-1675
p3398
aVBEAM-1674
p3399
aVBEAM-1673
p3400
aVBEAM-1672
p3401
aVBEAM-1671
p3402
aVBEAM-1670
p3403
aVBEAM-1669
p3404
aVBEAM-1668
p3405
aVBEAM-1667
p3406
aVBEAM-1666
p3407
aVBEAM-1665
p3408
aVBEAM-1664
p3409
aVBEAM-1663
p3410
aVBEAM-1662
p3411
aVBEAM-1661
p3412
aVBEAM-1660
p3413
aVBEAM-1659
p3414
aVBEAM-1658
p3415
aVBEAM-1657
p3416
aVBEAM-1656
p3417
aVBEAM-1655
p3418
aVBEAM-1654
p3419
aVBEAM-1653
p3420
aVBEAM-1652
p3421
aVBEAM-1651
p3422
aVBEAM-1650
p3423
aVBEAM-1649
p3424
aVBEAM-1648
p3425
aVBEAM-1647
p3426
aVBEAM-1646
p3427
aVBEAM-1645
p3428
aVBEAM-1644
p3429
aVBEAM-1643
p3430
aVBEAM-1642
p3431
aVBEAM-1641
p3432
aVBEAM-1640
p3433
aVBEAM-1639
p3434
aVBEAM-1638
p3435
aVBEAM-1637
p3436
aVBEAM-1636
p3437
aVBEAM-1635
p3438
aVBEAM-1634
p3439
aVBEAM-1633
p3440
aVBEAM-1632
p3441
aVBEAM-1631
p3442
aVBEAM-1630
p3443
aVBEAM-1629
p3444
aVBEAM-1628
p3445
aVBEAM-1627
p3446
aVBEAM-1626
p3447
aVBEAM-1625
p3448
aVBEAM-1624
p3449
aVBEAM-1623
p3450
aVBEAM-1622
p3451
aVBEAM-1621
p3452
aVBEAM-1620
p3453
aVBEAM-1619
p3454
aVBEAM-1618
p3455
aVBEAM-1617
p3456
aVBEAM-1616
p3457
aVBEAM-1615
p3458
aVBEAM-1614
p3459
aVBEAM-1613
p3460
aVBEAM-1612
p3461
aVBEAM-1611
p3462
aVBEAM-1610
p3463
aVBEAM-1609
p3464
aVBEAM-1608
p3465
aVBEAM-1607
p3466
aVBEAM-1606
p3467
aVBEAM-1605
p3468
aVBEAM-1604
p3469
aVBEAM-1603
p3470
aVBEAM-1602
p3471
aVBEAM-1601
p3472
aVBEAM-1600
p3473
aVBEAM-1599
p3474
aVBEAM-1598
p3475
aVBEAM-1597
p3476
aVBEAM-1596
p3477
aVBEAM-1595
p3478
aVBEAM-1594
p3479
aVBEAM-1593
p3480
aVBEAM-1592
p3481
aVBEAM-1591
p3482
aVBEAM-1590
p3483
aVBEAM-1589
p3484
aVBEAM-1588
p3485
aVBEAM-1587
p3486
aVBEAM-1586
p3487
aVBEAM-1585
p3488
aVBEAM-1584
p3489
aVBEAM-1583
p3490
aVBEAM-1582
p3491
aVBEAM-1581
p3492
aVBEAM-1580
p3493
aVBEAM-1579
p3494
aVBEAM-1578
p3495
aVBEAM-1577
p3496
aVBEAM-1576
p3497
aVBEAM-1575
p3498
aVBEAM-1574
p3499
aVBEAM-1573
p3500
aVBEAM-1572
p3501
aVBEAM-1571
p3502
aVBEAM-1570
p3503
aVBEAM-1569
p3504
aVBEAM-1568
p3505
aVBEAM-1567
p3506
aVBEAM-1566
p3507
aVBEAM-1565
p3508
aVBEAM-1564
p3509
aVBEAM-1563
p3510
aVBEAM-1562
p3511
aVBEAM-1561
p3512
aVBEAM-1560
p3513
aVBEAM-1559
p3514
aVBEAM-1558
p3515
aVBEAM-1557
p3516
aVBEAM-1556
p3517
aVBEAM-1555
p3518
aVBEAM-1554
p3519
aVBEAM-1553
p3520
aVBEAM-1552
p3521
aVBEAM-1551
p3522
aVBEAM-1550
p3523
aVBEAM-1549
p3524
aVBEAM-1548
p3525
aVBEAM-1547
p3526
aVBEAM-1546
p3527
aVBEAM-1545
p3528
aVBEAM-1544
p3529
aVBEAM-1543
p3530
aVBEAM-1542
p3531
aVBEAM-1541
p3532
aVBEAM-1540
p3533
aVBEAM-1539
p3534
aVBEAM-1538
p3535
aVBEAM-1537
p3536
aVBEAM-1536
p3537
aVBEAM-1535
p3538
aVBEAM-1534
p3539
aVBEAM-1533
p3540
aVBEAM-1532
p3541
aVBEAM-1531
p3542
aVBEAM-1530
p3543
aVBEAM-1529
p3544
aVBEAM-1528
p3545
aVBEAM-1527
p3546
aVBEAM-1526
p3547
aVBEAM-1525
p3548
aVBEAM-1524
p3549
aVBEAM-1523
p3550
aVBEAM-1522
p3551
aVBEAM-1521
p3552
aVBEAM-1520
p3553
aVBEAM-1519
p3554
aVBEAM-1518
p3555
aVBEAM-1517
p3556
aVBEAM-1516
p3557
aVBEAM-1515
p3558
aVBEAM-1514
p3559
aVBEAM-1513
p3560
aVBEAM-1512
p3561
aVBEAM-1511
p3562
aVBEAM-1510
p3563
aVBEAM-1509
p3564
aVBEAM-1508
p3565
aVBEAM-1507
p3566
aVBEAM-1506
p3567
aVBEAM-1505
p3568
aVBEAM-1504
p3569
aVBEAM-1503
p3570
aVBEAM-1502
p3571
aVBEAM-1501
p3572
aVBEAM-1500
p3573
aVBEAM-1499
p3574
aVBEAM-1498
p3575
aVBEAM-1497
p3576
aVBEAM-1496
p3577
aVBEAM-1495
p3578
aVBEAM-1494
p3579
aVBEAM-1493
p3580
aVBEAM-1492
p3581
aVBEAM-1491
p3582
aVBEAM-1490
p3583
aVBEAM-1489
p3584
aVBEAM-1488
p3585
aVBEAM-1487
p3586
aVBEAM-1486
p3587
aVBEAM-1485
p3588
aVBEAM-1484
p3589
aVBEAM-1483
p3590
aVBEAM-1482
p3591
aVBEAM-1481
p3592
aVBEAM-1480
p3593
aVBEAM-1479
p3594
aVBEAM-1478
p3595
aVBEAM-1477
p3596
aVBEAM-1476
p3597
aVBEAM-1475
p3598
aVBEAM-1474
p3599
aVBEAM-1473
p3600
aVBEAM-1472
p3601
aVBEAM-1471
p3602
aVBEAM-1470
p3603
aVBEAM-1469
p3604
aVBEAM-1468
p3605
aVBEAM-1467
p3606
aVBEAM-1466
p3607
aVBEAM-1465
p3608
aVBEAM-1464
p3609
aVBEAM-1463
p3610
aVBEAM-1462
p3611
aVBEAM-1461
p3612
aVBEAM-1460
p3613
aVBEAM-1459
p3614
aVBEAM-1458
p3615
aVBEAM-1457
p3616
aVBEAM-1456
p3617
aVBEAM-1455
p3618
aVBEAM-1454
p3619
aVBEAM-1453
p3620
aVBEAM-1452
p3621
aVBEAM-1451
p3622
aVBEAM-1450
p3623
aVBEAM-1449
p3624
aVBEAM-1448
p3625
aVBEAM-1447
p3626
aVBEAM-1446
p3627
aVBEAM-1445
p3628
aVBEAM-1444
p3629
aVBEAM-1443
p3630
aVBEAM-1442
p3631
aVBEAM-1441
p3632
aVBEAM-1440
p3633
aVBEAM-1439
p3634
aVBEAM-1438
p3635
aVBEAM-1437
p3636
aVBEAM-1436
p3637
aVBEAM-1435
p3638
aVBEAM-1434
p3639
aVBEAM-1433
p3640
aVBEAM-1432
p3641
aVBEAM-1431
p3642
aVBEAM-1430
p3643
aVBEAM-1429
p3644
aVBEAM-1428
p3645
aVBEAM-1427
p3646
aVBEAM-1426
p3647
aVBEAM-1425
p3648
aVBEAM-1424
p3649
aVBEAM-1423
p3650
aVBEAM-1422
p3651
aVBEAM-1421
p3652
aVBEAM-1420
p3653
aVBEAM-1419
p3654
aVBEAM-1418
p3655
aVBEAM-1417
p3656
aVBEAM-1416
p3657
aVBEAM-1415
p3658
aVBEAM-1414
p3659
aVBEAM-1413
p3660
aVBEAM-1412
p3661
aVBEAM-1411
p3662
aVBEAM-1410
p3663
aVBEAM-1409
p3664
aVBEAM-1408
p3665
aVBEAM-1407
p3666
aVBEAM-1406
p3667
aVBEAM-1405
p3668
aVBEAM-1404
p3669
aVBEAM-1403
p3670
aVBEAM-1402
p3671
aVBEAM-1401
p3672
aVBEAM-1400
p3673
aVBEAM-1399
p3674
aVBEAM-1398
p3675
aVBEAM-1397
p3676
aVBEAM-1396
p3677
aVBEAM-1395
p3678
aVBEAM-1394
p3679
aVBEAM-1393
p3680
aVBEAM-1392
p3681
aVBEAM-1391
p3682
aVBEAM-1390
p3683
aVBEAM-1389
p3684
aVBEAM-1388
p3685
aVBEAM-1387
p3686
aVBEAM-1386
p3687
aVBEAM-1385
p3688
aVBEAM-1384
p3689
aVBEAM-1383
p3690
aVBEAM-1382
p3691
aVBEAM-1381
p3692
aVBEAM-1380
p3693
aVBEAM-1379
p3694
aVBEAM-1378
p3695
aVBEAM-1377
p3696
aVBEAM-1376
p3697
aVBEAM-1375
p3698
aVBEAM-1374
p3699
aVBEAM-1373
p3700
aVBEAM-1372
p3701
aVBEAM-1371
p3702
aVBEAM-1370
p3703
aVBEAM-1369
p3704
aVBEAM-1368
p3705
aVBEAM-1367
p3706
aVBEAM-1366
p3707
aVBEAM-1365
p3708
aVBEAM-1364
p3709
aVBEAM-1363
p3710
aVBEAM-1362
p3711
aVBEAM-1361
p3712
aVBEAM-1360
p3713
aVBEAM-1359
p3714
aVBEAM-1358
p3715
aVBEAM-1357
p3716
aVBEAM-1356
p3717
aVBEAM-1355
p3718
aVBEAM-1354
p3719
aVBEAM-1353
p3720
aVBEAM-1352
p3721
aVBEAM-1351
p3722
aVBEAM-1350
p3723
aVBEAM-1349
p3724
aVBEAM-1348
p3725
aVBEAM-1347
p3726
aVBEAM-1346
p3727
aVBEAM-1345
p3728
aVBEAM-1344
p3729
aVBEAM-1343
p3730
aVBEAM-1342
p3731
aVBEAM-1341
p3732
aVBEAM-1340
p3733
aVBEAM-1339
p3734
aVBEAM-1338
p3735
aVBEAM-1337
p3736
aVBEAM-1336
p3737
aVBEAM-1335
p3738
aVBEAM-1334
p3739
aVBEAM-1333
p3740
aVBEAM-1332
p3741
aVBEAM-1331
p3742
aVBEAM-1330
p3743
aVBEAM-1329
p3744
aVBEAM-1328
p3745
aVBEAM-1327
p3746
aVBEAM-1326
p3747
aVBEAM-1325
p3748
aVBEAM-1324
p3749
aVBEAM-1323
p3750
aVBEAM-1322
p3751
aVBEAM-1321
p3752
aVBEAM-1320
p3753
aVBEAM-1319
p3754
aVBEAM-1318
p3755
aVBEAM-1317
p3756
aVBEAM-1316
p3757
aVBEAM-1315
p3758
aVBEAM-1314
p3759
aVBEAM-1313
p3760
aVBEAM-1312
p3761
aVBEAM-1311
p3762
aVBEAM-1310
p3763
aVBEAM-1309
p3764
aVBEAM-1308
p3765
aVBEAM-1307
p3766
aVBEAM-1306
p3767
aVBEAM-1305
p3768
aVBEAM-1304
p3769
aVBEAM-1303
p3770
aVBEAM-1302
p3771
aVBEAM-1301
p3772
aVBEAM-1300
p3773
aVBEAM-1299
p3774
aVBEAM-1298
p3775
aVBEAM-1297
p3776
aVBEAM-1296
p3777
aVBEAM-1295
p3778
aVBEAM-1294
p3779
aVBEAM-1293
p3780
aVBEAM-1292
p3781
aVBEAM-1291
p3782
aVBEAM-1290
p3783
aVBEAM-1289
p3784
aVBEAM-1288
p3785
aVBEAM-1287
p3786
aVBEAM-1286
p3787
aVBEAM-1285
p3788
aVBEAM-1284
p3789
aVBEAM-1283
p3790
aVBEAM-1282
p3791
aVBEAM-1281
p3792
aVBEAM-1280
p3793
aVBEAM-1279
p3794
aVBEAM-1278
p3795
aVBEAM-1277
p3796
aVBEAM-1276
p3797
aVBEAM-1275
p3798
aVBEAM-1274
p3799
aVBEAM-1273
p3800
aVBEAM-1272
p3801
aVBEAM-1271
p3802
aVBEAM-1270
p3803
aVBEAM-1269
p3804
aVBEAM-1268
p3805
aVBEAM-1267
p3806
aVBEAM-1266
p3807
aVBEAM-1265
p3808
aVBEAM-1264
p3809
aVBEAM-1263
p3810
aVBEAM-1262
p3811
aVBEAM-1261
p3812
aVBEAM-1260
p3813
aVBEAM-1259
p3814
aVBEAM-1258
p3815
aVBEAM-1257
p3816
aVBEAM-1256
p3817
aVBEAM-1255
p3818
aVBEAM-1254
p3819
aVBEAM-1253
p3820
aVBEAM-1252
p3821
aVBEAM-1251
p3822
aVBEAM-1250
p3823
aVBEAM-1249
p3824
aVBEAM-1248
p3825
aVBEAM-1247
p3826
aVBEAM-1246
p3827
aVBEAM-1245
p3828
aVBEAM-1244
p3829
aVBEAM-1243
p3830
aVBEAM-1242
p3831
aVBEAM-1241
p3832
aVBEAM-1240
p3833
aVBEAM-1239
p3834
aVBEAM-1238
p3835
aVBEAM-1237
p3836
aVBEAM-1236
p3837
aVBEAM-1235
p3838
aVBEAM-1234
p3839
aVBEAM-1233
p3840
aVBEAM-1232
p3841
aVBEAM-1231
p3842
aVBEAM-1230
p3843
aVBEAM-1229
p3844
aVBEAM-1228
p3845
aVBEAM-1227
p3846
aVBEAM-1226
p3847
aVBEAM-1225
p3848
aVBEAM-1224
p3849
aVBEAM-1223
p3850
aVBEAM-1222
p3851
aVBEAM-1221
p3852
aVBEAM-1220
p3853
aVBEAM-1219
p3854
aVBEAM-1218
p3855
aVBEAM-1217
p3856
aVBEAM-1216
p3857
aVBEAM-1215
p3858
aVBEAM-1214
p3859
aVBEAM-1213
p3860
aVBEAM-1212
p3861
aVBEAM-1211
p3862
aVBEAM-1210
p3863
aVBEAM-1209
p3864
aVBEAM-1208
p3865
aVBEAM-1207
p3866
aVBEAM-1206
p3867
aVBEAM-1205
p3868
aVBEAM-1204
p3869
aVBEAM-1203
p3870
aVBEAM-1202
p3871
aVBEAM-1201
p3872
aVBEAM-1200
p3873
aVBEAM-1199
p3874
aVBEAM-1198
p3875
aVBEAM-1197
p3876
aVBEAM-1196
p3877
aVBEAM-1195
p3878
aVBEAM-1194
p3879
aVBEAM-1193
p3880
aVBEAM-1192
p3881
aVBEAM-1191
p3882
aVBEAM-1190
p3883
aVBEAM-1189
p3884
aVBEAM-1188
p3885
aVBEAM-1187
p3886
aVBEAM-1186
p3887
aVBEAM-1185
p3888
aVBEAM-1184
p3889
aVBEAM-1183
p3890
aVBEAM-1182
p3891
aVBEAM-1181
p3892
aVBEAM-1180
p3893
aVBEAM-1179
p3894
aVBEAM-1178
p3895
aVBEAM-1177
p3896
aVBEAM-1176
p3897
aVBEAM-1175
p3898
aVBEAM-1174
p3899
aVBEAM-1173
p3900
aVBEAM-1172
p3901
aVBEAM-1171
p3902
aVBEAM-1170
p3903
aVBEAM-1169
p3904
aVBEAM-1168
p3905
aVBEAM-1167
p3906
aVBEAM-1166
p3907
aVBEAM-1165
p3908
aVBEAM-1164
p3909
aVBEAM-1163
p3910
aVBEAM-1162
p3911
aVBEAM-1161
p3912
aVBEAM-1160
p3913
aVBEAM-1159
p3914
aVBEAM-1158
p3915
aVBEAM-1157
p3916
aVBEAM-1156
p3917
aVBEAM-1155
p3918
aVBEAM-1154
p3919
aVBEAM-1153
p3920
aVBEAM-1152
p3921
aVBEAM-1151
p3922
aVBEAM-1150
p3923
aVBEAM-1149
p3924
aVBEAM-1148
p3925
aVBEAM-1147
p3926
aVBEAM-1146
p3927
aVBEAM-1145
p3928
aVBEAM-1144
p3929
aVBEAM-1143
p3930
aVBEAM-1142
p3931
aVBEAM-1141
p3932
aVBEAM-1140
p3933
aVBEAM-1139
p3934
aVBEAM-1138
p3935
aVBEAM-1137
p3936
aVBEAM-1136
p3937
aVBEAM-1135
p3938
aVBEAM-1134
p3939
aVBEAM-1133
p3940
aVBEAM-1132
p3941
aVBEAM-1131
p3942
aVBEAM-1130
p3943
aVBEAM-1129
p3944
aVBEAM-1128
p3945
aVBEAM-1127
p3946
aVBEAM-1126
p3947
aVBEAM-1125
p3948
aVBEAM-1124
p3949
aVBEAM-1123
p3950
aVBEAM-1122
p3951
aVBEAM-1121
p3952
aVBEAM-1120
p3953
aVBEAM-1119
p3954
aVBEAM-1118
p3955
aVBEAM-1117
p3956
aVBEAM-1116
p3957
aVBEAM-1115
p3958
aVBEAM-1114
p3959
aVBEAM-1113
p3960
aVBEAM-1112
p3961
aVBEAM-1111
p3962
aVBEAM-1110
p3963
aVBEAM-1109
p3964
aVBEAM-1108
p3965
aVBEAM-1107
p3966
aVBEAM-1106
p3967
aVBEAM-1105
p3968
aVBEAM-1104
p3969
aVBEAM-1103
p3970
aVBEAM-1102
p3971
aVBEAM-1101
p3972
aVBEAM-1100
p3973
aVBEAM-1099
p3974
aVBEAM-1098
p3975
aVBEAM-1097
p3976
aVBEAM-1096
p3977
aVBEAM-1095
p3978
aVBEAM-1094
p3979
aVBEAM-1093
p3980
aVBEAM-1092
p3981
aVBEAM-1091
p3982
aVBEAM-1090
p3983
aVBEAM-1089
p3984
aVBEAM-1088
p3985
aVBEAM-1087
p3986
aVBEAM-1086
p3987
aVBEAM-1085
p3988
aVBEAM-1084
p3989
aVBEAM-1083
p3990
aVBEAM-1082
p3991
aVBEAM-1081
p3992
aVBEAM-1080
p3993
aVBEAM-1079
p3994
aVBEAM-1078
p3995
aVBEAM-1077
p3996
aVBEAM-1076
p3997
aVBEAM-1075
p3998
aVBEAM-1074
p3999
aVBEAM-1073
p4000
aVBEAM-1072
p4001
aVBEAM-1071
p4002
aVBEAM-1070
p4003
aVBEAM-1069
p4004
aVBEAM-1068
p4005
aVBEAM-1067
p4006
aVBEAM-1066
p4007
aVBEAM-1065
p4008
aVBEAM-1064
p4009
aVBEAM-1063
p4010
aVBEAM-1062
p4011
aVBEAM-1061
p4012
aVBEAM-1060
p4013
aVBEAM-1059
p4014
aVBEAM-1058
p4015
aVBEAM-1057
p4016
aVBEAM-1056
p4017
aVBEAM-1055
p4018
aVBEAM-1054
p4019
aVBEAM-1053
p4020
aVBEAM-1052
p4021
aVBEAM-1051
p4022
aVBEAM-1050
p4023
aVBEAM-1049
p4024
aVBEAM-1048
p4025
aVBEAM-1047
p4026
aVBEAM-1046
p4027
aVBEAM-1045
p4028
aVBEAM-1044
p4029
aVBEAM-1043
p4030
aVBEAM-1042
p4031
aVBEAM-1041
p4032
aVBEAM-1040
p4033
aVBEAM-1039
p4034
aVBEAM-1038
p4035
aVBEAM-1037
p4036
aVBEAM-1036
p4037
aVBEAM-1035
p4038
aVBEAM-1034
p4039
aVBEAM-1033
p4040
aVBEAM-1032
p4041
aVBEAM-1031
p4042
aVBEAM-1030
p4043
aVBEAM-1029
p4044
aVBEAM-1028
p4045
aVBEAM-1027
p4046
aVBEAM-1026
p4047
aVBEAM-1025
p4048
aVBEAM-1024
p4049
aVBEAM-1023
p4050
aVBEAM-1022
p4051
aVBEAM-1021
p4052
aVBEAM-1020
p4053
aVBEAM-1019
p4054
aVBEAM-1018
p4055
aVBEAM-1017
p4056
aVBEAM-1016
p4057
aVBEAM-1015
p4058
aVBEAM-1014
p4059
aVBEAM-1013
p4060
aVBEAM-1012
p4061
aVBEAM-1011
p4062
aVBEAM-1010
p4063
aVBEAM-1009
p4064
aVBEAM-1008
p4065
aVBEAM-1007
p4066
aVBEAM-1006
p4067
aVBEAM-1005
p4068
aVBEAM-1004
p4069
aVBEAM-1003
p4070
aVBEAM-1002
p4071
aVBEAM-1001
p4072
aVBEAM-1000
p4073
aVBEAM-999
p4074
aVBEAM-998
p4075
aVBEAM-997
p4076
aVBEAM-996
p4077
aVBEAM-995
p4078
aVBEAM-994
p4079
aVBEAM-993
p4080
aVBEAM-992
p4081
aVBEAM-991
p4082
aVBEAM-990
p4083
aVBEAM-989
p4084
aVBEAM-988
p4085
aVBEAM-987
p4086
aVBEAM-986
p4087
aVBEAM-985
p4088
aVBEAM-984
p4089
aVBEAM-983
p4090
aVBEAM-982
p4091
aVBEAM-981
p4092
aVBEAM-980
p4093
aVBEAM-979
p4094
aVBEAM-978
p4095
aVBEAM-977
p4096
aVBEAM-976
p4097
aVBEAM-975
p4098
aVBEAM-974
p4099
aVBEAM-973
p4100
aVBEAM-972
p4101
aVBEAM-971
p4102
aVBEAM-970
p4103
aVBEAM-969
p4104
aVBEAM-968
p4105
aVBEAM-967
p4106
aVBEAM-966
p4107
aVBEAM-965
p4108
aVBEAM-964
p4109
aVBEAM-963
p4110
aVBEAM-962
p4111
aVBEAM-961
p4112
aVBEAM-960
p4113
aVBEAM-959
p4114
aVBEAM-958
p4115
aVBEAM-957
p4116
aVBEAM-956
p4117
aVBEAM-955
p4118
aVBEAM-954
p4119
aVBEAM-953
p4120
aVBEAM-952
p4121
aVBEAM-951
p4122
aVBEAM-950
p4123
aVBEAM-949
p4124
aVBEAM-948
p4125
aVBEAM-947
p4126
aVBEAM-946
p4127
aVBEAM-945
p4128
aVBEAM-944
p4129
aVBEAM-943
p4130
aVBEAM-942
p4131
aVBEAM-941
p4132
aVBEAM-940
p4133
aVBEAM-939
p4134
aVBEAM-938
p4135
aVBEAM-937
p4136
aVBEAM-936
p4137
aVBEAM-935
p4138
aVBEAM-934
p4139
aVBEAM-933
p4140
aVBEAM-932
p4141
aVBEAM-931
p4142
aVBEAM-930
p4143
aVBEAM-929
p4144
aVBEAM-928
p4145
aVBEAM-927
p4146
aVBEAM-926
p4147
aVBEAM-925
p4148
aVBEAM-924
p4149
aVBEAM-923
p4150
aVBEAM-922
p4151
aVBEAM-921
p4152
aVBEAM-920
p4153
aVBEAM-919
p4154
aVBEAM-918
p4155
aVBEAM-917
p4156
aVBEAM-916
p4157
aVBEAM-915
p4158
aVBEAM-914
p4159
aVBEAM-913
p4160
aVBEAM-912
p4161
aVBEAM-911
p4162
aVBEAM-910
p4163
aVBEAM-909
p4164
aVBEAM-908
p4165
aVBEAM-907
p4166
aVBEAM-906
p4167
aVBEAM-905
p4168
aVBEAM-904
p4169
aVBEAM-903
p4170
aVBEAM-902
p4171
aVBEAM-901
p4172
aVBEAM-900
p4173
aVBEAM-899
p4174
aVBEAM-898
p4175
aVBEAM-897
p4176
aVBEAM-896
p4177
aVBEAM-895
p4178
aVBEAM-894
p4179
aVBEAM-893
p4180
aVBEAM-892
p4181
aVBEAM-891
p4182
aVBEAM-890
p4183
aVBEAM-889
p4184
aVBEAM-888
p4185
aVBEAM-887
p4186
aVBEAM-886
p4187
aVBEAM-885
p4188
aVBEAM-884
p4189
aVBEAM-883
p4190
aVBEAM-882
p4191
aVBEAM-881
p4192
aVBEAM-880
p4193
aVBEAM-879
p4194
aVBEAM-878
p4195
aVBEAM-877
p4196
aVBEAM-876
p4197
aVBEAM-875
p4198
aVBEAM-874
p4199
aVBEAM-873
p4200
aVBEAM-872
p4201
aVBEAM-871
p4202
aVBEAM-870
p4203
aVBEAM-869
p4204
aVBEAM-868
p4205
aVBEAM-867
p4206
aVBEAM-866
p4207
aVBEAM-865
p4208
aVBEAM-864
p4209
aVBEAM-863
p4210
aVBEAM-862
p4211
aVBEAM-861
p4212
aVBEAM-860
p4213
aVBEAM-859
p4214
aVBEAM-858
p4215
aVBEAM-857
p4216
aVBEAM-856
p4217
aVBEAM-855
p4218
aVBEAM-854
p4219
aVBEAM-853
p4220
aVBEAM-852
p4221
aVBEAM-851
p4222
aVBEAM-850
p4223
aVBEAM-849
p4224
aVBEAM-848
p4225
aVBEAM-847
p4226
aVBEAM-846
p4227
aVBEAM-845
p4228
aVBEAM-844
p4229
aVBEAM-843
p4230
aVBEAM-842
p4231
aVBEAM-841
p4232
aVBEAM-840
p4233
aVBEAM-839
p4234
aVBEAM-838
p4235
aVBEAM-837
p4236
aVBEAM-836
p4237
aVBEAM-835
p4238
aVBEAM-834
p4239
aVBEAM-833
p4240
aVBEAM-832
p4241
aVBEAM-831
p4242
aVBEAM-830
p4243
aVBEAM-829
p4244
aVBEAM-828
p4245
aVBEAM-827
p4246
aVBEAM-826
p4247
aVBEAM-825
p4248
aVBEAM-824
p4249
aVBEAM-823
p4250
aVBEAM-822
p4251
aVBEAM-821
p4252
aVBEAM-820
p4253
aVBEAM-819
p4254
aVBEAM-818
p4255
aVBEAM-817
p4256
aVBEAM-816
p4257
aVBEAM-815
p4258
aVBEAM-814
p4259
aVBEAM-813
p4260
aVBEAM-812
p4261
aVBEAM-811
p4262
aVBEAM-810
p4263
aVBEAM-809
p4264
aVBEAM-808
p4265
aVBEAM-807
p4266
aVBEAM-806
p4267
aVBEAM-805
p4268
aVBEAM-804
p4269
aVBEAM-803
p4270
aVBEAM-802
p4271
aVBEAM-801
p4272
aVBEAM-800
p4273
aVBEAM-799
p4274
aVBEAM-798
p4275
aVBEAM-797
p4276
aVBEAM-796
p4277
aVBEAM-795
p4278
aVBEAM-794
p4279
aVBEAM-793
p4280
aVBEAM-792
p4281
aVBEAM-791
p4282
aVBEAM-790
p4283
aVBEAM-789
p4284
aVBEAM-788
p4285
aVBEAM-787
p4286
aVBEAM-786
p4287
aVBEAM-785
p4288
aVBEAM-784
p4289
aVBEAM-783
p4290
aVBEAM-782
p4291
aVBEAM-781
p4292
aVBEAM-780
p4293
aVBEAM-779
p4294
aVBEAM-778
p4295
aVBEAM-777
p4296
aVBEAM-776
p4297
aVBEAM-775
p4298
aVBEAM-774
p4299
aVBEAM-773
p4300
aVBEAM-772
p4301
aVBEAM-771
p4302
aVBEAM-770
p4303
aVBEAM-769
p4304
aVBEAM-768
p4305
aVBEAM-767
p4306
aVBEAM-766
p4307
aVBEAM-765
p4308
aVBEAM-764
p4309
aVBEAM-763
p4310
aVBEAM-762
p4311
aVBEAM-761
p4312
aVBEAM-760
p4313
aVBEAM-759
p4314
aVBEAM-758
p4315
aVBEAM-757
p4316
aVBEAM-756
p4317
aVBEAM-755
p4318
aVBEAM-754
p4319
aVBEAM-753
p4320
aVBEAM-752
p4321
aVBEAM-751
p4322
aVBEAM-750
p4323
aVBEAM-749
p4324
aVBEAM-748
p4325
aVBEAM-747
p4326
aVBEAM-746
p4327
aVBEAM-745
p4328
aVBEAM-744
p4329
aVBEAM-743
p4330
aVBEAM-742
p4331
aVBEAM-741
p4332
aVBEAM-740
p4333
aVBEAM-739
p4334
aVBEAM-738
p4335
aVBEAM-737
p4336
aVBEAM-736
p4337
aVBEAM-735
p4338
aVBEAM-734
p4339
aVBEAM-733
p4340
aVBEAM-732
p4341
aVBEAM-731
p4342
aVBEAM-730
p4343
aVBEAM-729
p4344
aVBEAM-728
p4345
aVBEAM-727
p4346
aVBEAM-726
p4347
aVBEAM-725
p4348
aVBEAM-724
p4349
aVBEAM-723
p4350
aVBEAM-722
p4351
aVBEAM-721
p4352
aVBEAM-720
p4353
aVBEAM-719
p4354
aVBEAM-718
p4355
aVBEAM-717
p4356
aVBEAM-716
p4357
aVBEAM-715
p4358
aVBEAM-714
p4359
aVBEAM-713
p4360
aVBEAM-712
p4361
aVBEAM-711
p4362
aVBEAM-710
p4363
aVBEAM-709
p4364
aVBEAM-708
p4365
aVBEAM-707
p4366
aVBEAM-706
p4367
aVBEAM-705
p4368
aVBEAM-704
p4369
aVBEAM-703
p4370
aVBEAM-702
p4371
aVBEAM-701
p4372
aVBEAM-700
p4373
aVBEAM-699
p4374
aVBEAM-698
p4375
aVBEAM-697
p4376
aVBEAM-696
p4377
aVBEAM-695
p4378
aVBEAM-694
p4379
aVBEAM-693
p4380
aVBEAM-692
p4381
aVBEAM-691
p4382
aVBEAM-690
p4383
aVBEAM-689
p4384
aVBEAM-688
p4385
aVBEAM-687
p4386
aVBEAM-686
p4387
aVBEAM-685
p4388
aVBEAM-684
p4389
aVBEAM-683
p4390
aVBEAM-682
p4391
aVBEAM-681
p4392
aVBEAM-680
p4393
aVBEAM-679
p4394
aVBEAM-678
p4395
aVBEAM-677
p4396
aVBEAM-676
p4397
aVBEAM-675
p4398
aVBEAM-674
p4399
aVBEAM-673
p4400
aVBEAM-672
p4401
aVBEAM-671
p4402
aVBEAM-670
p4403
aVBEAM-669
p4404
aVBEAM-668
p4405
aVBEAM-667
p4406
aVBEAM-666
p4407
aVBEAM-665
p4408
aVBEAM-664
p4409
aVBEAM-663
p4410
aVBEAM-662
p4411
aVBEAM-661
p4412
aVBEAM-660
p4413
aVBEAM-659
p4414
aVBEAM-658
p4415
aVBEAM-657
p4416
aVBEAM-656
p4417
aVBEAM-655
p4418
aVBEAM-654
p4419
aVBEAM-653
p4420
aVBEAM-652
p4421
aVBEAM-651
p4422
aVBEAM-650
p4423
aVBEAM-649
p4424
aVBEAM-648
p4425
aVBEAM-647
p4426
aVBEAM-646
p4427
aVBEAM-645
p4428
aVBEAM-644
p4429
aVBEAM-643
p4430
aVBEAM-642
p4431
aVBEAM-641
p4432
aVBEAM-640
p4433
aVBEAM-639
p4434
aVBEAM-638
p4435
aVBEAM-637
p4436
aVBEAM-636
p4437
aVBEAM-635
p4438
aVBEAM-634
p4439
aVBEAM-633
p4440
aVBEAM-632
p4441
aVBEAM-631
p4442
aVBEAM-630
p4443
aVBEAM-629
p4444
aVBEAM-628
p4445
aVBEAM-627
p4446
aVBEAM-626
p4447
aVBEAM-625
p4448
aVBEAM-624
p4449
aVBEAM-623
p4450
aVBEAM-622
p4451
aVBEAM-621
p4452
aVBEAM-620
p4453
aVBEAM-619
p4454
aVBEAM-618
p4455
aVBEAM-617
p4456
aVBEAM-616
p4457
aVBEAM-615
p4458
aVBEAM-614
p4459
aVBEAM-613
p4460
aVBEAM-612
p4461
aVBEAM-611
p4462
aVBEAM-610
p4463
aVBEAM-609
p4464
aVBEAM-608
p4465
aVBEAM-607
p4466
aVBEAM-606
p4467
aVBEAM-605
p4468
aVBEAM-604
p4469
aVBEAM-603
p4470
aVBEAM-602
p4471
aVBEAM-601
p4472
aVBEAM-600
p4473
aVBEAM-599
p4474
aVBEAM-598
p4475
aVBEAM-597
p4476
aVBEAM-596
p4477
aVBEAM-595
p4478
aVBEAM-594
p4479
aVBEAM-593
p4480
aVBEAM-592
p4481
aVBEAM-591
p4482
aVBEAM-590
p4483
aVBEAM-589
p4484
aVBEAM-588
p4485
aVBEAM-587
p4486
aVBEAM-586
p4487
aVBEAM-585
p4488
aVBEAM-584
p4489
aVBEAM-583
p4490
aVBEAM-582
p4491
aVBEAM-581
p4492
aVBEAM-580
p4493
aVBEAM-579
p4494
aVBEAM-578
p4495
aVBEAM-577
p4496
aVBEAM-576
p4497
aVBEAM-575
p4498
aVBEAM-574
p4499
aVBEAM-573
p4500
aVBEAM-572
p4501
aVBEAM-571
p4502
aVBEAM-570
p4503
aVBEAM-569
p4504
aVBEAM-568
p4505
aVBEAM-567
p4506
aVBEAM-566
p4507
aVBEAM-565
p4508
aVBEAM-564
p4509
aVBEAM-563
p4510
aVBEAM-562
p4511
aVBEAM-561
p4512
aVBEAM-560
p4513
aVBEAM-559
p4514
aVBEAM-558
p4515
aVBEAM-557
p4516
aVBEAM-556
p4517
aVBEAM-555
p4518
aVBEAM-554
p4519
aVBEAM-553
p4520
aVBEAM-552
p4521
aVBEAM-551
p4522
aVBEAM-550
p4523
aVBEAM-549
p4524
aVBEAM-548
p4525
aVBEAM-547
p4526
aVBEAM-546
p4527
aVBEAM-545
p4528
aVBEAM-544
p4529
aVBEAM-543
p4530
aVBEAM-542
p4531
aVBEAM-541
p4532
aVBEAM-540
p4533
aVBEAM-539
p4534
aVBEAM-538
p4535
aVBEAM-537
p4536
aVBEAM-536
p4537
aVBEAM-535
p4538
aVBEAM-534
p4539
aVBEAM-533
p4540
aVBEAM-532
p4541
aVBEAM-531
p4542
aVBEAM-530
p4543
aVBEAM-529
p4544
aVBEAM-528
p4545
aVBEAM-527
p4546
aVBEAM-526
p4547
aVBEAM-525
p4548
aVBEAM-524
p4549
aVBEAM-523
p4550
aVBEAM-522
p4551
aVBEAM-521
p4552
aVBEAM-520
p4553
aVBEAM-519
p4554
aVBEAM-518
p4555
aVBEAM-517
p4556
aVBEAM-516
p4557
aVBEAM-515
p4558
aVBEAM-514
p4559
aVBEAM-513
p4560
aVBEAM-512
p4561
aVBEAM-511
p4562
aVBEAM-510
p4563
aVBEAM-509
p4564
aVBEAM-508
p4565
aVBEAM-507
p4566
aVBEAM-506
p4567
aVBEAM-505
p4568
aVBEAM-504
p4569
aVBEAM-503
p4570
aVBEAM-502
p4571
aVBEAM-501
p4572
aVBEAM-500
p4573
aVBEAM-499
p4574
aVBEAM-498
p4575
aVBEAM-497
p4576
aVBEAM-496
p4577
aVBEAM-495
p4578
aVBEAM-494
p4579
aVBEAM-493
p4580
aVBEAM-492
p4581
aVBEAM-491
p4582
aVBEAM-490
p4583
aVBEAM-489
p4584
aVBEAM-488
p4585
aVBEAM-487
p4586
aVBEAM-486
p4587
aVBEAM-485
p4588
aVBEAM-484
p4589
aVBEAM-483
p4590
aVBEAM-482
p4591
aVBEAM-481
p4592
aVBEAM-480
p4593
aVBEAM-479
p4594
aVBEAM-478
p4595
aVBEAM-477
p4596
aVBEAM-476
p4597
aVBEAM-475
p4598
aVBEAM-474
p4599
aVBEAM-473
p4600
aVBEAM-472
p4601
aVBEAM-471
p4602
aVBEAM-470
p4603
aVBEAM-469
p4604
aVBEAM-468
p4605
aVBEAM-467
p4606
aVBEAM-466
p4607
aVBEAM-465
p4608
aVBEAM-464
p4609
aVBEAM-463
p4610
aVBEAM-462
p4611
aVBEAM-461
p4612
aVBEAM-460
p4613
aVBEAM-459
p4614
aVBEAM-458
p4615
aVBEAM-457
p4616
aVBEAM-456
p4617
aVBEAM-455
p4618
aVBEAM-454
p4619
aVBEAM-453
p4620
aVBEAM-452
p4621
aVBEAM-451
p4622
aVBEAM-450
p4623
aVBEAM-449
p4624
aVBEAM-448
p4625
aVBEAM-447
p4626
aVBEAM-446
p4627
aVBEAM-445
p4628
aVBEAM-444
p4629
aVBEAM-443
p4630
aVBEAM-442
p4631
aVBEAM-441
p4632
aVBEAM-440
p4633
aVBEAM-439
p4634
aVBEAM-438
p4635
aVBEAM-437
p4636
aVBEAM-436
p4637
aVBEAM-435
p4638
aVBEAM-434
p4639
aVBEAM-433
p4640
aVBEAM-432
p4641
aVBEAM-431
p4642
aVBEAM-430
p4643
aVBEAM-429
p4644
aVBEAM-428
p4645
aVBEAM-427
p4646
aVBEAM-426
p4647
aVBEAM-425
p4648
aVBEAM-424
p4649
aVBEAM-423
p4650
aVBEAM-422
p4651
aVBEAM-421
p4652
aVBEAM-420
p4653
aVBEAM-419
p4654
aVBEAM-418
p4655
aVBEAM-417
p4656
aVBEAM-416
p4657
aVBEAM-415
p4658
aVBEAM-414
p4659
aVBEAM-413
p4660
aVBEAM-412
p4661
aVBEAM-411
p4662
aVBEAM-410
p4663
aVBEAM-409
p4664
aVBEAM-408
p4665
aVBEAM-407
p4666
aVBEAM-406
p4667
aVBEAM-405
p4668
aVBEAM-404
p4669
aVBEAM-403
p4670
aVBEAM-402
p4671
aVBEAM-401
p4672
aVBEAM-400
p4673
aVBEAM-399
p4674
aVBEAM-398
p4675
aVBEAM-397
p4676
aVBEAM-396
p4677
aVBEAM-395
p4678
aVBEAM-394
p4679
aVBEAM-393
p4680
aVBEAM-392
p4681
aVBEAM-391
p4682
aVBEAM-390
p4683
aVBEAM-389
p4684
aVBEAM-388
p4685
aVBEAM-387
p4686
aVBEAM-386
p4687
aVBEAM-385
p4688
aVBEAM-384
p4689
aVBEAM-383
p4690
aVBEAM-382
p4691
aVBEAM-381
p4692
aVBEAM-380
p4693
aVBEAM-379
p4694
aVBEAM-378
p4695
aVBEAM-377
p4696
aVBEAM-376
p4697
aVBEAM-375
p4698
aVBEAM-374
p4699
aVBEAM-373
p4700
aVBEAM-372
p4701
aVBEAM-371
p4702
aVBEAM-370
p4703
aVBEAM-369
p4704
aVBEAM-368
p4705
aVBEAM-367
p4706
aVBEAM-366
p4707
aVBEAM-365
p4708
aVBEAM-364
p4709
aVBEAM-363
p4710
aVBEAM-362
p4711
aVBEAM-361
p4712
aVBEAM-360
p4713
aVBEAM-359
p4714
aVBEAM-358
p4715
aVBEAM-357
p4716
aVBEAM-356
p4717
aVBEAM-355
p4718
aVBEAM-354
p4719
aVBEAM-353
p4720
aVBEAM-352
p4721
aVBEAM-351
p4722
aVBEAM-350
p4723
aVBEAM-349
p4724
aVBEAM-348
p4725
aVBEAM-347
p4726
aVBEAM-346
p4727
aVBEAM-345
p4728
aVBEAM-344
p4729
aVBEAM-343
p4730
aVBEAM-342
p4731
aVBEAM-341
p4732
aVBEAM-340
p4733
aVBEAM-339
p4734
aVBEAM-338
p4735
aVBEAM-337
p4736
aVBEAM-336
p4737
aVBEAM-335
p4738
aVBEAM-334
p4739
aVBEAM-333
p4740
aVBEAM-332
p4741
aVBEAM-331
p4742
aVBEAM-330
p4743
aVBEAM-329
p4744
aVBEAM-328
p4745
aVBEAM-327
p4746
aVBEAM-326
p4747
aVBEAM-325
p4748
aVBEAM-324
p4749
aVBEAM-323
p4750
aVBEAM-322
p4751
aVBEAM-321
p4752
aVBEAM-320
p4753
aVBEAM-319
p4754
aVBEAM-318
p4755
aVBEAM-317
p4756
aVBEAM-316
p4757
aVBEAM-315
p4758
aVBEAM-314
p4759
aVBEAM-313
p4760
aVBEAM-312
p4761
aVBEAM-311
p4762
aVBEAM-310
p4763
aVBEAM-309
p4764
aVBEAM-308
p4765
aVBEAM-307
p4766
aVBEAM-306
p4767
aVBEAM-305
p4768
aVBEAM-304
p4769
aVBEAM-303
p4770
aVBEAM-302
p4771
aVBEAM-301
p4772
aVBEAM-300
p4773
aVBEAM-299
p4774
aVBEAM-298
p4775
aVBEAM-297
p4776
aVBEAM-296
p4777
aVBEAM-295
p4778
aVBEAM-294
p4779
aVBEAM-293
p4780
aVBEAM-292
p4781
aVBEAM-291
p4782
aVBEAM-290
p4783
aVBEAM-289
p4784
aVBEAM-288
p4785
aVBEAM-287
p4786
aVBEAM-286
p4787
aVBEAM-285
p4788
aVBEAM-284
p4789
aVBEAM-283
p4790
aVBEAM-282
p4791
aVBEAM-281
p4792
aVBEAM-280
p4793
aVBEAM-279
p4794
aVBEAM-278
p4795
aVBEAM-277
p4796
aVBEAM-276
p4797
aVBEAM-275
p4798
aVBEAM-274
p4799
aVBEAM-273
p4800
aVBEAM-272
p4801
aVBEAM-271
p4802
aVBEAM-270
p4803
aVBEAM-269
p4804
aVBEAM-268
p4805
aVBEAM-267
p4806
aVBEAM-266
p4807
aVBEAM-265
p4808
aVBEAM-264
p4809
aVBEAM-263
p4810
aVBEAM-262
p4811
aVBEAM-261
p4812
aVBEAM-260
p4813
aVBEAM-259
p4814
aVBEAM-258
p4815
aVBEAM-257
p4816
aVBEAM-256
p4817
aVBEAM-255
p4818
aVBEAM-254
p4819
aVBEAM-253
p4820
aVBEAM-252
p4821
aVBEAM-251
p4822
aVBEAM-250
p4823
aVBEAM-249
p4824
aVBEAM-248
p4825
aVBEAM-247
p4826
aVBEAM-246
p4827
aVBEAM-245
p4828
aVBEAM-244
p4829
aVBEAM-243
p4830
aVBEAM-242
p4831
aVBEAM-241
p4832
aVBEAM-240
p4833
aVBEAM-239
p4834
aVBEAM-238
p4835
aVBEAM-237
p4836
aVBEAM-236
p4837
aVBEAM-235
p4838
aVBEAM-234
p4839
aVBEAM-233
p4840
aVBEAM-232
p4841
aVBEAM-231
p4842
aVBEAM-230
p4843
aVBEAM-229
p4844
aVBEAM-228
p4845
aVBEAM-227
p4846
aVBEAM-226
p4847
aVBEAM-225
p4848
aVBEAM-224
p4849
aVBEAM-223
p4850
aVBEAM-222
p4851
aVBEAM-221
p4852
aVBEAM-220
p4853
aVBEAM-219
p4854
aVBEAM-218
p4855
aVBEAM-217
p4856
aVBEAM-216
p4857
aVBEAM-215
p4858
aVBEAM-214
p4859
aVBEAM-213
p4860
aVBEAM-212
p4861
aVBEAM-211
p4862
aVBEAM-210
p4863
aVBEAM-209
p4864
aVBEAM-208
p4865
aVBEAM-207
p4866
aVBEAM-206
p4867
aVBEAM-205
p4868
aVBEAM-204
p4869
aVBEAM-203
p4870
aVBEAM-202
p4871
aVBEAM-201
p4872
aVBEAM-200
p4873
aVBEAM-199
p4874
aVBEAM-198
p4875
aVBEAM-197
p4876
aVBEAM-196
p4877
aVBEAM-195
p4878
aVBEAM-194
p4879
aVBEAM-193
p4880
aVBEAM-192
p4881
aVBEAM-191
p4882
aVBEAM-190
p4883
aVBEAM-189
p4884
aVBEAM-188
p4885
aVBEAM-187
p4886
aVBEAM-186
p4887
aVBEAM-185
p4888
aVBEAM-184
p4889
aVBEAM-183
p4890
aVBEAM-182
p4891
aVBEAM-181
p4892
aVBEAM-180
p4893
aVBEAM-179
p4894
aVBEAM-178
p4895
aVBEAM-177
p4896
aVBEAM-176
p4897
aVBEAM-175
p4898
aVBEAM-174
p4899
aVBEAM-173
p4900
aVBEAM-172
p4901
aVBEAM-171
p4902
aVBEAM-170
p4903
aVBEAM-169
p4904
aVBEAM-168
p4905
aVBEAM-167
p4906
aVBEAM-166
p4907
aVBEAM-165
p4908
aVBEAM-164
p4909
aVBEAM-163
p4910
aVBEAM-162
p4911
aVBEAM-161
p4912
aVBEAM-160
p4913
aVBEAM-159
p4914
aVBEAM-158
p4915
aVBEAM-157
p4916
aVBEAM-156
p4917
aVBEAM-155
p4918
aVBEAM-154
p4919
aVBEAM-153
p4920
aVBEAM-152
p4921
aVBEAM-151
p4922
aVBEAM-150
p4923
aVBEAM-149
p4924
aVBEAM-148
p4925
aVBEAM-147
p4926
aVBEAM-146
p4927
aVBEAM-145
p4928
aVBEAM-144
p4929
aVBEAM-143
p4930
aVBEAM-142
p4931
aVBEAM-141
p4932
aVBEAM-140
p4933
aVBEAM-139
p4934
aVBEAM-138
p4935
aVBEAM-137
p4936
aVBEAM-136
p4937
aVBEAM-135
p4938
aVBEAM-134
p4939
aVBEAM-133
p4940
aVBEAM-132
p4941
aVBEAM-131
p4942
aVBEAM-130
p4943
aVBEAM-129
p4944
aVBEAM-128
p4945
aVBEAM-127
p4946
aVBEAM-126
p4947
aVBEAM-125
p4948
aVBEAM-124
p4949
aVBEAM-123
p4950
aVBEAM-122
p4951
aVBEAM-121
p4952
aVBEAM-120
p4953
aVBEAM-119
p4954
aVBEAM-118
p4955
aVBEAM-117
p4956
aVBEAM-116
p4957
aVBEAM-115
p4958
aVBEAM-114
p4959
aVBEAM-113
p4960
aVBEAM-112
p4961
aVBEAM-111
p4962
aVBEAM-110
p4963
aVBEAM-109
p4964
aVBEAM-108
p4965
aVBEAM-107
p4966
aVBEAM-106
p4967
aVBEAM-105
p4968
aVBEAM-104
p4969
aVBEAM-103
p4970
aVBEAM-102
p4971
aVBEAM-101
p4972
aVBEAM-100
p4973
aVBEAM-99
p4974
aVBEAM-98
p4975
aVBEAM-97
p4976
aVBEAM-96
p4977
aVBEAM-95
p4978
aVBEAM-94
p4979
aVBEAM-93
p4980
aVBEAM-92
p4981
aVBEAM-91
p4982
aVBEAM-90
p4983
aVBEAM-89
p4984
aVBEAM-88
p4985
aVBEAM-87
p4986
aVBEAM-86
p4987
aVBEAM-85
p4988
aVBEAM-84
p4989
aVBEAM-83
p4990
aVBEAM-82
p4991
aVBEAM-81
p4992
aVBEAM-80
p4993
aVBEAM-79
p4994
aVBEAM-78
p4995
aVBEAM-77
p4996
aVBEAM-76
p4997
aVBEAM-75
p4998
aVBEAM-74
p4999
aVBEAM-73
p5000
aVBEAM-72
p5001
aVBEAM-71
p5002
aVBEAM-70
p5003
aVBEAM-69
p5004
aVBEAM-68
p5005
aVBEAM-67
p5006
aVBEAM-66
p5007
aVBEAM-65
p5008
aVBEAM-64
p5009
aVBEAM-63
p5010
aVBEAM-62
p5011
aVBEAM-61
p5012
aVBEAM-60
p5013
aVBEAM-59
p5014
aVBEAM-58
p5015
aVBEAM-57
p5016
aVBEAM-56
p5017
aVBEAM-55
p5018
aVBEAM-54
p5019
aVBEAM-53
p5020
aVBEAM-52
p5021
aVBEAM-51
p5022
aVBEAM-50
p5023
aVBEAM-49
p5024
aVBEAM-48
p5025
aVBEAM-47
p5026
aVBEAM-46
p5027
aVBEAM-45
p5028
aVBEAM-44
p5029
aVBEAM-43
p5030
aVBEAM-42
p5031
aVBEAM-41
p5032
aVBEAM-40
p5033
aVBEAM-39
p5034
aVBEAM-38
p5035
aVBEAM-37
p5036
aVBEAM-36
p5037
aVBEAM-35
p5038
aVBEAM-34
p5039
aVBEAM-33
p5040
aVBEAM-32
p5041
aVBEAM-31
p5042
aVBEAM-30
p5043
aVBEAM-29
p5044
aVBEAM-28
p5045
aVBEAM-27
p5046
aVBEAM-26
p5047
aVBEAM-25
p5048
aVBEAM-24
p5049
aVBEAM-23
p5050
aVBEAM-22
p5051
aVBEAM-21
p5052
aVBEAM-20
p5053
aVBEAM-19
p5054
aVBEAM-18
p5055
aVBEAM-17
p5056
aVBEAM-16
p5057
aVBEAM-15
p5058
aVBEAM-14
p5059
aVBEAM-13
p5060
aVBEAM-12
p5061
aVBEAM-11
p5062
aVBEAM-10
p5063
aVBEAM-9
p5064
aVBEAM-8
p5065
aVBEAM-7
p5066
aVBEAM-6
p5067
aVBEAM-5
p5068
aVBEAM-4
p5069
aVBEAM-3
p5070
aVBEAM-2
p5071
aVBEAM-1
p5072
a.