(lp0
VBEANUTILS-511
p1
aVBEANUTILS-510
p2
aVBEANUTILS-509
p3
aVBEANUTILS-508
p4
aVBEANUTILS-507
p5
aVBEANUTILS-506
p6
aVBEANUTILS-505
p7
aVBEANUTILS-504
p8
aVBEANUTILS-503
p9
aVBEANUTILS-502
p10
aVBEANUTILS-501
p11
aVBEANUTILS-500
p12
aVBEANUTILS-499
p13
aVBEANUTILS-498
p14
aVBEANUTILS-497
p15
aVBEANUTILS-496
p16
aVBEANUTILS-495
p17
aVBEANUTILS-494
p18
aVBEANUTILS-493
p19
aVBEANUTILS-492
p20
aVBEANUTILS-491
p21
aVBEANUTILS-490
p22
aVBEANUTILS-489
p23
aVBEANUTILS-488
p24
aVBEANUTILS-487
p25
aVBEANUTILS-486
p26
aVBEANUTILS-485
p27
aVBEANUTILS-484
p28
aVBEANUTILS-483
p29
aVBEANUTILS-482
p30
aVBEANUTILS-481
p31
aVBEANUTILS-480
p32
aVBEANUTILS-479
p33
aVBEANUTILS-478
p34
aVBEANUTILS-477
p35
aVBEANUTILS-476
p36
aVBEANUTILS-475
p37
aVBEANUTILS-474
p38
aVBEANUTILS-473
p39
aVBEANUTILS-472
p40
aVBEANUTILS-471
p41
aVBEANUTILS-470
p42
aVBEANUTILS-469
p43
aVBEANUTILS-468
p44
aVBEANUTILS-467
p45
aVBEANUTILS-466
p46
aVBEANUTILS-465
p47
aVBEANUTILS-464
p48
aVBEANUTILS-463
p49
aVBEANUTILS-462
p50
aVBEANUTILS-461
p51
aVBEANUTILS-460
p52
aVBEANUTILS-459
p53
aVBEANUTILS-458
p54
aVBEANUTILS-457
p55
aVBEANUTILS-456
p56
aVBEANUTILS-455
p57
aVBEANUTILS-454
p58
aVBEANUTILS-453
p59
aVBEANUTILS-452
p60
aVBEANUTILS-451
p61
aVBEANUTILS-450
p62
aVBEANUTILS-449
p63
aVBEANUTILS-448
p64
aVBEANUTILS-447
p65
aVBEANUTILS-446
p66
aVBEANUTILS-445
p67
aVBEANUTILS-444
p68
aVBEANUTILS-443
p69
aVBEANUTILS-442
p70
aVBEANUTILS-441
p71
aVBEANUTILS-440
p72
aVBEANUTILS-439
p73
aVBEANUTILS-438
p74
aVBEANUTILS-437
p75
aVBEANUTILS-436
p76
aVBEANUTILS-435
p77
aVBEANUTILS-434
p78
aVBEANUTILS-433
p79
aVBEANUTILS-432
p80
aVBEANUTILS-431
p81
aVBEANUTILS-430
p82
aVBEANUTILS-429
p83
aVBEANUTILS-428
p84
aVBEANUTILS-427
p85
aVBEANUTILS-426
p86
aVBEANUTILS-425
p87
aVBEANUTILS-424
p88
aVBEANUTILS-423
p89
aVBEANUTILS-422
p90
aVBEANUTILS-421
p91
aVBEANUTILS-420
p92
aVBEANUTILS-419
p93
aVBEANUTILS-418
p94
aVBEANUTILS-417
p95
aVBEANUTILS-416
p96
aVBEANUTILS-415
p97
aVBEANUTILS-414
p98
aVBEANUTILS-413
p99
aVBEANUTILS-412
p100
aVBEANUTILS-411
p101
aVBEANUTILS-410
p102
aVBEANUTILS-409
p103
aVBEANUTILS-408
p104
aVBEANUTILS-407
p105
aVBEANUTILS-406
p106
aVBEANUTILS-405
p107
aVBEANUTILS-404
p108
aVBEANUTILS-403
p109
aVBEANUTILS-402
p110
aVBEANUTILS-401
p111
aVBEANUTILS-400
p112
aVBEANUTILS-399
p113
aVBEANUTILS-398
p114
aVBEANUTILS-397
p115
aVBEANUTILS-396
p116
aVBEANUTILS-395
p117
aVBEANUTILS-394
p118
aVBEANUTILS-393
p119
aVBEANUTILS-392
p120
aVBEANUTILS-391
p121
aVBEANUTILS-390
p122
aVBEANUTILS-389
p123
aVBEANUTILS-388
p124
aVBEANUTILS-387
p125
aVBEANUTILS-386
p126
aVBEANUTILS-385
p127
aVBEANUTILS-384
p128
aVBEANUTILS-383
p129
aVBEANUTILS-382
p130
aVBEANUTILS-381
p131
aVBEANUTILS-380
p132
aVBEANUTILS-379
p133
aVBEANUTILS-378
p134
aVBEANUTILS-377
p135
aVBEANUTILS-376
p136
aVBEANUTILS-375
p137
aVBEANUTILS-374
p138
aVBEANUTILS-373
p139
aVBEANUTILS-372
p140
aVBEANUTILS-371
p141
aVBEANUTILS-370
p142
aVBEANUTILS-369
p143
aVBEANUTILS-368
p144
aVBEANUTILS-367
p145
aVBEANUTILS-366
p146
aVBEANUTILS-365
p147
aVBEANUTILS-364
p148
aVBEANUTILS-363
p149
aVBEANUTILS-362
p150
aVBEANUTILS-361
p151
aVBEANUTILS-360
p152
aVBEANUTILS-359
p153
aVBEANUTILS-358
p154
aVBEANUTILS-357
p155
aVBEANUTILS-356
p156
aVBEANUTILS-355
p157
aVBEANUTILS-354
p158
aVBEANUTILS-353
p159
aVBEANUTILS-352
p160
aVBEANUTILS-351
p161
aVBEANUTILS-350
p162
aVBEANUTILS-349
p163
aVBEANUTILS-348
p164
aVBEANUTILS-347
p165
aVBEANUTILS-346
p166
aVBEANUTILS-345
p167
aVBEANUTILS-344
p168
aVBEANUTILS-343
p169
aVBEANUTILS-342
p170
aVBEANUTILS-341
p171
aVBEANUTILS-340
p172
aVBEANUTILS-339
p173
aVBEANUTILS-337
p174
aVBEANUTILS-336
p175
aVBEANUTILS-335
p176
aVBEANUTILS-334
p177
aVBEANUTILS-333
p178
aVBEANUTILS-332
p179
aVBEANUTILS-331
p180
aVBEANUTILS-330
p181
aVBEANUTILS-329
p182
aVBEANUTILS-328
p183
aVBEANUTILS-327
p184
aVBEANUTILS-326
p185
aVBEANUTILS-325
p186
aVBEANUTILS-324
p187
aVBEANUTILS-323
p188
aVBEANUTILS-322
p189
aVBEANUTILS-321
p190
aVBEANUTILS-320
p191
aVBEANUTILS-319
p192
aVBEANUTILS-318
p193
aVBEANUTILS-317
p194
aVBEANUTILS-316
p195
aVBEANUTILS-315
p196
aVBEANUTILS-314
p197
aVBEANUTILS-313
p198
aVBEANUTILS-312
p199
aVBEANUTILS-311
p200
aVBEANUTILS-310
p201
aVBEANUTILS-309
p202
aVBEANUTILS-308
p203
aVBEANUTILS-307
p204
aVBEANUTILS-306
p205
aVBEANUTILS-305
p206
aVBEANUTILS-304
p207
aVBEANUTILS-303
p208
aVBEANUTILS-302
p209
aVBEANUTILS-301
p210
aVBEANUTILS-300
p211
aVBEANUTILS-299
p212
aVBEANUTILS-298
p213
aVBEANUTILS-297
p214
aVBEANUTILS-296
p215
aVBEANUTILS-295
p216
aVBEANUTILS-294
p217
aVBEANUTILS-293
p218
aVBEANUTILS-292
p219
aVBEANUTILS-291
p220
aVBEANUTILS-290
p221
aVBEANUTILS-289
p222
aVBEANUTILS-288
p223
aVBEANUTILS-287
p224
aVBEANUTILS-286
p225
aVBEANUTILS-285
p226
aVBEANUTILS-284
p227
aVBEANUTILS-283
p228
aVBEANUTILS-282
p229
aVBEANUTILS-281
p230
aVBEANUTILS-280
p231
aVBEANUTILS-279
p232
aVBEANUTILS-278
p233
aVBEANUTILS-277
p234
aVBEANUTILS-276
p235
aVBEANUTILS-275
p236
aVBEANUTILS-274
p237
aVBEANUTILS-273
p238
aVBEANUTILS-272
p239
aVBEANUTILS-271
p240
aVBEANUTILS-270
p241
aVBEANUTILS-269
p242
aVBEANUTILS-268
p243
aVBEANUTILS-267
p244
aVBEANUTILS-266
p245
aVBEANUTILS-265
p246
aVBEANUTILS-264
p247
aVBEANUTILS-263
p248
aVBEANUTILS-262
p249
aVBEANUTILS-261
p250
aVBEANUTILS-260
p251
aVBEANUTILS-259
p252
aVBEANUTILS-258
p253
aVBEANUTILS-257
p254
aVBEANUTILS-256
p255
aVBEANUTILS-255
p256
aVBEANUTILS-254
p257
aVBEANUTILS-253
p258
aVBEANUTILS-252
p259
aVBEANUTILS-251
p260
aVBEANUTILS-250
p261
aVBEANUTILS-249
p262
aVBEANUTILS-248
p263
aVBEANUTILS-247
p264
aVBEANUTILS-246
p265
aVBEANUTILS-245
p266
aVBEANUTILS-244
p267
aVBEANUTILS-243
p268
aVBEANUTILS-242
p269
aVBEANUTILS-241
p270
aVBEANUTILS-240
p271
aVBEANUTILS-239
p272
aVBEANUTILS-238
p273
aVBEANUTILS-237
p274
aVBEANUTILS-236
p275
aVBEANUTILS-235
p276
aVBEANUTILS-234
p277
aVBEANUTILS-233
p278
aVBEANUTILS-232
p279
aVBEANUTILS-231
p280
aVBEANUTILS-230
p281
aVBEANUTILS-229
p282
aVBEANUTILS-228
p283
aVBEANUTILS-227
p284
aVBEANUTILS-226
p285
aVBEANUTILS-225
p286
aVBEANUTILS-224
p287
aVBEANUTILS-223
p288
aVBEANUTILS-222
p289
aVBEANUTILS-221
p290
aVBEANUTILS-220
p291
aVBEANUTILS-219
p292
aVBEANUTILS-218
p293
aVBEANUTILS-217
p294
aVBEANUTILS-216
p295
aVBEANUTILS-215
p296
aVBEANUTILS-214
p297
aVBEANUTILS-213
p298
aVBEANUTILS-212
p299
aVBEANUTILS-211
p300
aVBEANUTILS-210
p301
aVBEANUTILS-209
p302
aVBEANUTILS-208
p303
aVBEANUTILS-207
p304
aVBEANUTILS-206
p305
aVBEANUTILS-205
p306
aVBEANUTILS-204
p307
aVBEANUTILS-203
p308
aVBEANUTILS-202
p309
aVBEANUTILS-201
p310
aVBEANUTILS-200
p311
aVBEANUTILS-199
p312
aVBEANUTILS-198
p313
aVBEANUTILS-197
p314
aVBEANUTILS-196
p315
aVBEANUTILS-195
p316
aVBEANUTILS-194
p317
aVBEANUTILS-193
p318
aVBEANUTILS-192
p319
aVBEANUTILS-191
p320
aVBEANUTILS-190
p321
aVBEANUTILS-189
p322
aVBEANUTILS-188
p323
aVBEANUTILS-187
p324
aVBEANUTILS-186
p325
aVBEANUTILS-185
p326
aVBEANUTILS-184
p327
aVBEANUTILS-183
p328
aVBEANUTILS-182
p329
aVBEANUTILS-181
p330
aVBEANUTILS-180
p331
aVBEANUTILS-179
p332
aVBEANUTILS-178
p333
aVBEANUTILS-177
p334
aVBEANUTILS-176
p335
aVBEANUTILS-175
p336
aVBEANUTILS-174
p337
aVBEANUTILS-173
p338
aVBEANUTILS-172
p339
aVBEANUTILS-171
p340
aVBEANUTILS-170
p341
aVBEANUTILS-169
p342
aVBEANUTILS-168
p343
aVBEANUTILS-167
p344
aVBEANUTILS-166
p345
aVBEANUTILS-165
p346
aVBEANUTILS-164
p347
aVBEANUTILS-163
p348
aVBEANUTILS-162
p349
aVBEANUTILS-161
p350
aVBEANUTILS-160
p351
aVBEANUTILS-159
p352
aVBEANUTILS-158
p353
aVBEANUTILS-157
p354
aVBEANUTILS-156
p355
aVBEANUTILS-155
p356
aVBEANUTILS-154
p357
aVBEANUTILS-153
p358
aVBEANUTILS-152
p359
aVBEANUTILS-151
p360
aVBEANUTILS-150
p361
aVBEANUTILS-149
p362
aVBEANUTILS-148
p363
aVBEANUTILS-147
p364
aVBEANUTILS-146
p365
aVBEANUTILS-145
p366
aVBEANUTILS-144
p367
aVBEANUTILS-143
p368
aVBEANUTILS-142
p369
aVBEANUTILS-141
p370
aVBEANUTILS-140
p371
aVBEANUTILS-139
p372
aVBEANUTILS-138
p373
aVBEANUTILS-137
p374
aVBEANUTILS-136
p375
aVBEANUTILS-135
p376
aVBEANUTILS-134
p377
aVBEANUTILS-133
p378
aVBEANUTILS-132
p379
aVBEANUTILS-131
p380
aVBEANUTILS-130
p381
aVBEANUTILS-129
p382
aVBEANUTILS-128
p383
aVBEANUTILS-127
p384
aVBEANUTILS-126
p385
aVBEANUTILS-125
p386
aVBEANUTILS-124
p387
aVBEANUTILS-123
p388
aVBEANUTILS-122
p389
aVBEANUTILS-121
p390
aVBEANUTILS-120
p391
aVBEANUTILS-119
p392
aVBEANUTILS-118
p393
aVBEANUTILS-117
p394
aVBEANUTILS-116
p395
aVBEANUTILS-115
p396
aVBEANUTILS-114
p397
aVBEANUTILS-113
p398
aVBEANUTILS-112
p399
aVBEANUTILS-111
p400
aVBEANUTILS-110
p401
aVBEANUTILS-109
p402
aVBEANUTILS-108
p403
aVBEANUTILS-107
p404
aVBEANUTILS-106
p405
aVBEANUTILS-105
p406
aVBEANUTILS-104
p407
aVBEANUTILS-103
p408
aVBEANUTILS-102
p409
aVBEANUTILS-101
p410
aVBEANUTILS-100
p411
aVBEANUTILS-99
p412
aVBEANUTILS-98
p413
aVBEANUTILS-97
p414
aVBEANUTILS-96
p415
aVBEANUTILS-95
p416
aVBEANUTILS-94
p417
aVBEANUTILS-93
p418
aVBEANUTILS-92
p419
aVBEANUTILS-91
p420
aVBEANUTILS-90
p421
aVBEANUTILS-89
p422
aVBEANUTILS-88
p423
aVBEANUTILS-87
p424
aVBEANUTILS-86
p425
aVBEANUTILS-85
p426
aVBEANUTILS-84
p427
aVBEANUTILS-83
p428
aVBEANUTILS-82
p429
aVBEANUTILS-81
p430
aVBEANUTILS-80
p431
aVBEANUTILS-79
p432
aVBEANUTILS-78
p433
aVBEANUTILS-77
p434
aVBEANUTILS-76
p435
aVBEANUTILS-75
p436
aVBEANUTILS-74
p437
aVBEANUTILS-73
p438
aVBEANUTILS-72
p439
aVBEANUTILS-71
p440
aVBEANUTILS-70
p441
aVBEANUTILS-69
p442
aVBEANUTILS-68
p443
aVBEANUTILS-67
p444
aVBEANUTILS-66
p445
aVBEANUTILS-65
p446
aVBEANUTILS-64
p447
aVBEANUTILS-63
p448
aVBEANUTILS-62
p449
aVBEANUTILS-61
p450
aVBEANUTILS-60
p451
aVBEANUTILS-59
p452
aVBEANUTILS-58
p453
aVBEANUTILS-57
p454
aVBEANUTILS-56
p455
aVBEANUTILS-55
p456
aVBEANUTILS-54
p457
aVBEANUTILS-53
p458
aVBEANUTILS-52
p459
aVBEANUTILS-51
p460
aVBEANUTILS-50
p461
aVBEANUTILS-49
p462
aVBEANUTILS-48
p463
aVBEANUTILS-47
p464
aVBEANUTILS-46
p465
aVBEANUTILS-45
p466
aVBEANUTILS-44
p467
aVBEANUTILS-43
p468
aVBEANUTILS-42
p469
aVBEANUTILS-41
p470
aVBEANUTILS-40
p471
aVBEANUTILS-39
p472
aVBEANUTILS-38
p473
aVBEANUTILS-37
p474
aVBEANUTILS-36
p475
aVBEANUTILS-35
p476
aVBEANUTILS-34
p477
aVBEANUTILS-33
p478
aVBEANUTILS-32
p479
aVBEANUTILS-31
p480
aVBEANUTILS-30
p481
aVBEANUTILS-29
p482
aVBEANUTILS-28
p483
aVBEANUTILS-27
p484
aVBEANUTILS-26
p485
aVBEANUTILS-25
p486
aVBEANUTILS-24
p487
aVBEANUTILS-23
p488
aVBEANUTILS-22
p489
aVBEANUTILS-21
p490
aVBEANUTILS-20
p491
aVBEANUTILS-19
p492
aVBEANUTILS-18
p493
aVBEANUTILS-17
p494
aVBEANUTILS-16
p495
aVBEANUTILS-15
p496
aVBEANUTILS-14
p497
aVBEANUTILS-13
p498
aVBEANUTILS-12
p499
aVBEANUTILS-11
p500
aVBEANUTILS-10
p501
aVBEANUTILS-9
p502
aVBEANUTILS-8
p503
aVBEANUTILS-7
p504
aVBEANUTILS-6
p505
aVBEANUTILS-5
p506
aVBEANUTILS-4
p507
aVBEANUTILS-3
p508
aVBEANUTILS-2
p509
aVBEANUTILS-1
p510
a.