(lp0
VBIGTOP-3054
p1
aVBIGTOP-3053
p2
aVBIGTOP-3052
p3
aVBIGTOP-3051
p4
aVBIGTOP-3050
p5
aVBIGTOP-3049
p6
aVBIGTOP-3048
p7
aVBIGTOP-3047
p8
aVBIGTOP-3046
p9
aVBIGTOP-3045
p10
aVBIGTOP-3044
p11
aVBIGTOP-3043
p12
aVBIGTOP-3042
p13
aVBIGTOP-3041
p14
aVBIGTOP-3040
p15
aVBIGTOP-3039
p16
aVBIGTOP-3038
p17
aVBIGTOP-3037
p18
aVBIGTOP-3036
p19
aVBIGTOP-3035
p20
aVBIGTOP-3034
p21
aVBIGTOP-3033
p22
aVBIGTOP-3032
p23
aVBIGTOP-3031
p24
aVBIGTOP-3030
p25
aVBIGTOP-3029
p26
aVBIGTOP-3028
p27
aVBIGTOP-3027
p28
aVBIGTOP-3026
p29
aVBIGTOP-3025
p30
aVBIGTOP-3024
p31
aVBIGTOP-3023
p32
aVBIGTOP-3022
p33
aVBIGTOP-3021
p34
aVBIGTOP-3020
p35
aVBIGTOP-3019
p36
aVBIGTOP-3018
p37
aVBIGTOP-3017
p38
aVBIGTOP-3016
p39
aVBIGTOP-3015
p40
aVBIGTOP-3014
p41
aVBIGTOP-3013
p42
aVBIGTOP-3012
p43
aVBIGTOP-3011
p44
aVBIGTOP-3010
p45
aVBIGTOP-3009
p46
aVBIGTOP-3008
p47
aVBIGTOP-3007
p48
aVBIGTOP-3006
p49
aVBIGTOP-3005
p50
aVBIGTOP-3004
p51
aVBIGTOP-3003
p52
aVBIGTOP-3002
p53
aVBIGTOP-3001
p54
aVBIGTOP-3000
p55
aVBIGTOP-2999
p56
aVBIGTOP-2998
p57
aVBIGTOP-2997
p58
aVBIGTOP-2996
p59
aVBIGTOP-2995
p60
aVBIGTOP-2994
p61
aVBIGTOP-2993
p62
aVBIGTOP-2992
p63
aVBIGTOP-2991
p64
aVBIGTOP-2990
p65
aVBIGTOP-2989
p66
aVBIGTOP-2988
p67
aVBIGTOP-2987
p68
aVBIGTOP-2986
p69
aVBIGTOP-2985
p70
aVBIGTOP-2984
p71
aVBIGTOP-2983
p72
aVBIGTOP-2982
p73
aVBIGTOP-2981
p74
aVBIGTOP-2980
p75
aVBIGTOP-2979
p76
aVBIGTOP-2978
p77
aVBIGTOP-2977
p78
aVBIGTOP-2976
p79
aVBIGTOP-2975
p80
aVBIGTOP-2974
p81
aVBIGTOP-2973
p82
aVBIGTOP-2972
p83
aVBIGTOP-2971
p84
aVBIGTOP-2970
p85
aVBIGTOP-2969
p86
aVBIGTOP-2968
p87
aVBIGTOP-2967
p88
aVBIGTOP-2966
p89
aVBIGTOP-2965
p90
aVBIGTOP-2964
p91
aVBIGTOP-2963
p92
aVBIGTOP-2962
p93
aVBIGTOP-2961
p94
aVBIGTOP-2960
p95
aVBIGTOP-2959
p96
aVBIGTOP-2958
p97
aVBIGTOP-2957
p98
aVBIGTOP-2956
p99
aVBIGTOP-2955
p100
aVBIGTOP-2954
p101
aVBIGTOP-2953
p102
aVBIGTOP-2952
p103
aVBIGTOP-2951
p104
aVBIGTOP-2950
p105
aVBIGTOP-2949
p106
aVBIGTOP-2948
p107
aVBIGTOP-2947
p108
aVBIGTOP-2946
p109
aVBIGTOP-2945
p110
aVBIGTOP-2944
p111
aVBIGTOP-2943
p112
aVBIGTOP-2942
p113
aVBIGTOP-2941
p114
aVBIGTOP-2940
p115
aVBIGTOP-2939
p116
aVBIGTOP-2938
p117
aVBIGTOP-2937
p118
aVBIGTOP-2936
p119
aVBIGTOP-2935
p120
aVBIGTOP-2934
p121
aVBIGTOP-2933
p122
aVBIGTOP-2932
p123
aVBIGTOP-2931
p124
aVBIGTOP-2930
p125
aVBIGTOP-2929
p126
aVBIGTOP-2928
p127
aVBIGTOP-2927
p128
aVBIGTOP-2926
p129
aVBIGTOP-2925
p130
aVBIGTOP-2924
p131
aVBIGTOP-2923
p132
aVBIGTOP-2922
p133
aVBIGTOP-2921
p134
aVBIGTOP-2920
p135
aVBIGTOP-2919
p136
aVBIGTOP-2918
p137
aVBIGTOP-2917
p138
aVBIGTOP-2916
p139
aVBIGTOP-2915
p140
aVBIGTOP-2914
p141
aVBIGTOP-2913
p142
aVBIGTOP-2912
p143
aVBIGTOP-2911
p144
aVBIGTOP-2910
p145
aVBIGTOP-2909
p146
aVBIGTOP-2908
p147
aVBIGTOP-2907
p148
aVBIGTOP-2906
p149
aVBIGTOP-2905
p150
aVBIGTOP-2904
p151
aVBIGTOP-2903
p152
aVBIGTOP-2902
p153
aVBIGTOP-2901
p154
aVBIGTOP-2900
p155
aVBIGTOP-2899
p156
aVBIGTOP-2898
p157
aVBIGTOP-2897
p158
aVBIGTOP-2896
p159
aVBIGTOP-2895
p160
aVBIGTOP-2894
p161
aVBIGTOP-2893
p162
aVBIGTOP-2892
p163
aVBIGTOP-2891
p164
aVBIGTOP-2890
p165
aVBIGTOP-2889
p166
aVBIGTOP-2888
p167
aVBIGTOP-2887
p168
aVBIGTOP-2886
p169
aVBIGTOP-2885
p170
aVBIGTOP-2884
p171
aVBIGTOP-2883
p172
aVBIGTOP-2882
p173
aVBIGTOP-2881
p174
aVBIGTOP-2880
p175
aVBIGTOP-2879
p176
aVBIGTOP-2878
p177
aVBIGTOP-2877
p178
aVBIGTOP-2876
p179
aVBIGTOP-2875
p180
aVBIGTOP-2874
p181
aVBIGTOP-2873
p182
aVBIGTOP-2872
p183
aVBIGTOP-2871
p184
aVBIGTOP-2870
p185
aVBIGTOP-2869
p186
aVBIGTOP-2868
p187
aVBIGTOP-2867
p188
aVBIGTOP-2866
p189
aVBIGTOP-2865
p190
aVBIGTOP-2864
p191
aVBIGTOP-2863
p192
aVBIGTOP-2862
p193
aVBIGTOP-2861
p194
aVBIGTOP-2860
p195
aVBIGTOP-2859
p196
aVBIGTOP-2858
p197
aVBIGTOP-2857
p198
aVBIGTOP-2856
p199
aVBIGTOP-2855
p200
aVBIGTOP-2854
p201
aVBIGTOP-2853
p202
aVBIGTOP-2852
p203
aVBIGTOP-2851
p204
aVBIGTOP-2850
p205
aVBIGTOP-2849
p206
aVBIGTOP-2848
p207
aVBIGTOP-2847
p208
aVBIGTOP-2846
p209
aVBIGTOP-2845
p210
aVBIGTOP-2844
p211
aVBIGTOP-2843
p212
aVBIGTOP-2842
p213
aVBIGTOP-2841
p214
aVBIGTOP-2840
p215
aVBIGTOP-2839
p216
aVBIGTOP-2838
p217
aVBIGTOP-2837
p218
aVBIGTOP-2836
p219
aVBIGTOP-2835
p220
aVBIGTOP-2834
p221
aVBIGTOP-2833
p222
aVBIGTOP-2832
p223
aVBIGTOP-2831
p224
aVBIGTOP-2830
p225
aVBIGTOP-2829
p226
aVBIGTOP-2828
p227
aVBIGTOP-2827
p228
aVBIGTOP-2826
p229
aVBIGTOP-2825
p230
aVBIGTOP-2824
p231
aVBIGTOP-2823
p232
aVBIGTOP-2822
p233
aVBIGTOP-2821
p234
aVBIGTOP-2820
p235
aVBIGTOP-2819
p236
aVBIGTOP-2818
p237
aVBIGTOP-2817
p238
aVBIGTOP-2816
p239
aVBIGTOP-2815
p240
aVBIGTOP-2814
p241
aVBIGTOP-2813
p242
aVBIGTOP-2812
p243
aVBIGTOP-2811
p244
aVBIGTOP-2810
p245
aVBIGTOP-2809
p246
aVBIGTOP-2808
p247
aVBIGTOP-2807
p248
aVBIGTOP-2806
p249
aVBIGTOP-2805
p250
aVBIGTOP-2804
p251
aVBIGTOP-2803
p252
aVBIGTOP-2802
p253
aVBIGTOP-2801
p254
aVBIGTOP-2800
p255
aVBIGTOP-2799
p256
aVBIGTOP-2798
p257
aVBIGTOP-2797
p258
aVBIGTOP-2796
p259
aVBIGTOP-2795
p260
aVBIGTOP-2794
p261
aVBIGTOP-2793
p262
aVBIGTOP-2792
p263
aVBIGTOP-2791
p264
aVBIGTOP-2790
p265
aVBIGTOP-2789
p266
aVBIGTOP-2788
p267
aVBIGTOP-2787
p268
aVBIGTOP-2786
p269
aVBIGTOP-2785
p270
aVBIGTOP-2784
p271
aVBIGTOP-2783
p272
aVBIGTOP-2782
p273
aVBIGTOP-2781
p274
aVBIGTOP-2780
p275
aVBIGTOP-2779
p276
aVBIGTOP-2778
p277
aVBIGTOP-2777
p278
aVBIGTOP-2776
p279
aVBIGTOP-2775
p280
aVBIGTOP-2774
p281
aVBIGTOP-2773
p282
aVBIGTOP-2772
p283
aVBIGTOP-2771
p284
aVBIGTOP-2770
p285
aVBIGTOP-2769
p286
aVBIGTOP-2768
p287
aVBIGTOP-2767
p288
aVBIGTOP-2766
p289
aVBIGTOP-2765
p290
aVBIGTOP-2764
p291
aVBIGTOP-2763
p292
aVBIGTOP-2762
p293
aVBIGTOP-2761
p294
aVBIGTOP-2760
p295
aVBIGTOP-2759
p296
aVBIGTOP-2758
p297
aVBIGTOP-2757
p298
aVBIGTOP-2756
p299
aVBIGTOP-2755
p300
aVBIGTOP-2754
p301
aVBIGTOP-2753
p302
aVBIGTOP-2752
p303
aVBIGTOP-2751
p304
aVBIGTOP-2750
p305
aVBIGTOP-2749
p306
aVBIGTOP-2748
p307
aVBIGTOP-2747
p308
aVBIGTOP-2746
p309
aVBIGTOP-2745
p310
aVBIGTOP-2744
p311
aVBIGTOP-2743
p312
aVBIGTOP-2742
p313
aVBIGTOP-2741
p314
aVBIGTOP-2740
p315
aVBIGTOP-2739
p316
aVBIGTOP-2738
p317
aVBIGTOP-2737
p318
aVBIGTOP-2736
p319
aVBIGTOP-2735
p320
aVBIGTOP-2734
p321
aVBIGTOP-2733
p322
aVBIGTOP-2732
p323
aVBIGTOP-2731
p324
aVBIGTOP-2730
p325
aVBIGTOP-2729
p326
aVBIGTOP-2728
p327
aVBIGTOP-2727
p328
aVBIGTOP-2726
p329
aVBIGTOP-2725
p330
aVBIGTOP-2724
p331
aVBIGTOP-2723
p332
aVBIGTOP-2722
p333
aVBIGTOP-2721
p334
aVBIGTOP-2720
p335
aVBIGTOP-2719
p336
aVBIGTOP-2718
p337
aVBIGTOP-2717
p338
aVBIGTOP-2716
p339
aVBIGTOP-2715
p340
aVBIGTOP-2714
p341
aVBIGTOP-2713
p342
aVBIGTOP-2712
p343
aVBIGTOP-2711
p344
aVBIGTOP-2710
p345
aVBIGTOP-2709
p346
aVBIGTOP-2708
p347
aVBIGTOP-2707
p348
aVBIGTOP-2706
p349
aVBIGTOP-2705
p350
aVBIGTOP-2704
p351
aVBIGTOP-2703
p352
aVBIGTOP-2702
p353
aVBIGTOP-2701
p354
aVBIGTOP-2700
p355
aVBIGTOP-2699
p356
aVBIGTOP-2698
p357
aVBIGTOP-2697
p358
aVBIGTOP-2696
p359
aVBIGTOP-2695
p360
aVBIGTOP-2694
p361
aVBIGTOP-2693
p362
aVBIGTOP-2692
p363
aVBIGTOP-2691
p364
aVBIGTOP-2690
p365
aVBIGTOP-2689
p366
aVBIGTOP-2688
p367
aVBIGTOP-2687
p368
aVBIGTOP-2686
p369
aVBIGTOP-2685
p370
aVBIGTOP-2684
p371
aVBIGTOP-2683
p372
aVBIGTOP-2682
p373
aVBIGTOP-2681
p374
aVBIGTOP-2680
p375
aVBIGTOP-2679
p376
aVBIGTOP-2678
p377
aVBIGTOP-2677
p378
aVBIGTOP-2676
p379
aVBIGTOP-2675
p380
aVBIGTOP-2674
p381
aVBIGTOP-2673
p382
aVBIGTOP-2672
p383
aVBIGTOP-2671
p384
aVBIGTOP-2670
p385
aVBIGTOP-2669
p386
aVBIGTOP-2668
p387
aVBIGTOP-2667
p388
aVBIGTOP-2666
p389
aVBIGTOP-2665
p390
aVBIGTOP-2664
p391
aVBIGTOP-2663
p392
aVBIGTOP-2662
p393
aVBIGTOP-2661
p394
aVBIGTOP-2660
p395
aVBIGTOP-2659
p396
aVBIGTOP-2658
p397
aVBIGTOP-2657
p398
aVBIGTOP-2656
p399
aVBIGTOP-2655
p400
aVBIGTOP-2654
p401
aVBIGTOP-2653
p402
aVBIGTOP-2652
p403
aVBIGTOP-2651
p404
aVBIGTOP-2650
p405
aVBIGTOP-2649
p406
aVBIGTOP-2648
p407
aVBIGTOP-2647
p408
aVBIGTOP-2646
p409
aVBIGTOP-2645
p410
aVBIGTOP-2644
p411
aVBIGTOP-2643
p412
aVBIGTOP-2642
p413
aVBIGTOP-2641
p414
aVBIGTOP-2640
p415
aVBIGTOP-2639
p416
aVBIGTOP-2638
p417
aVBIGTOP-2637
p418
aVBIGTOP-2636
p419
aVBIGTOP-2635
p420
aVBIGTOP-2634
p421
aVBIGTOP-2633
p422
aVBIGTOP-2632
p423
aVBIGTOP-2631
p424
aVBIGTOP-2630
p425
aVBIGTOP-2629
p426
aVBIGTOP-2628
p427
aVBIGTOP-2627
p428
aVBIGTOP-2626
p429
aVBIGTOP-2625
p430
aVBIGTOP-2624
p431
aVBIGTOP-2623
p432
aVBIGTOP-2622
p433
aVBIGTOP-2621
p434
aVBIGTOP-2620
p435
aVBIGTOP-2619
p436
aVBIGTOP-2618
p437
aVBIGTOP-2617
p438
aVBIGTOP-2616
p439
aVBIGTOP-2615
p440
aVBIGTOP-2614
p441
aVBIGTOP-2613
p442
aVBIGTOP-2612
p443
aVBIGTOP-2611
p444
aVBIGTOP-2610
p445
aVBIGTOP-2609
p446
aVBIGTOP-2608
p447
aVBIGTOP-2607
p448
aVBIGTOP-2606
p449
aVBIGTOP-2605
p450
aVBIGTOP-2604
p451
aVBIGTOP-2603
p452
aVBIGTOP-2602
p453
aVBIGTOP-2601
p454
aVBIGTOP-2600
p455
aVBIGTOP-2599
p456
aVBIGTOP-2598
p457
aVBIGTOP-2597
p458
aVBIGTOP-2596
p459
aVBIGTOP-2595
p460
aVBIGTOP-2594
p461
aVBIGTOP-2593
p462
aVBIGTOP-2592
p463
aVBIGTOP-2591
p464
aVBIGTOP-2590
p465
aVBIGTOP-2589
p466
aVBIGTOP-2588
p467
aVBIGTOP-2587
p468
aVBIGTOP-2586
p469
aVBIGTOP-2585
p470
aVBIGTOP-2584
p471
aVBIGTOP-2583
p472
aVBIGTOP-2582
p473
aVBIGTOP-2581
p474
aVBIGTOP-2580
p475
aVBIGTOP-2579
p476
aVBIGTOP-2578
p477
aVBIGTOP-2577
p478
aVBIGTOP-2576
p479
aVBIGTOP-2575
p480
aVBIGTOP-2574
p481
aVBIGTOP-2573
p482
aVBIGTOP-2572
p483
aVBIGTOP-2571
p484
aVBIGTOP-2570
p485
aVBIGTOP-2569
p486
aVBIGTOP-2568
p487
aVBIGTOP-2567
p488
aVBIGTOP-2566
p489
aVBIGTOP-2565
p490
aVBIGTOP-2564
p491
aVBIGTOP-2563
p492
aVBIGTOP-2562
p493
aVBIGTOP-2561
p494
aVBIGTOP-2560
p495
aVBIGTOP-2559
p496
aVBIGTOP-2558
p497
aVBIGTOP-2557
p498
aVBIGTOP-2556
p499
aVBIGTOP-2555
p500
aVBIGTOP-2554
p501
aVBIGTOP-2553
p502
aVBIGTOP-2552
p503
aVBIGTOP-2551
p504
aVBIGTOP-2550
p505
aVBIGTOP-2549
p506
aVBIGTOP-2548
p507
aVBIGTOP-2547
p508
aVBIGTOP-2546
p509
aVBIGTOP-2545
p510
aVBIGTOP-2544
p511
aVBIGTOP-2543
p512
aVBIGTOP-2542
p513
aVBIGTOP-2541
p514
aVBIGTOP-2540
p515
aVBIGTOP-2539
p516
aVBIGTOP-2538
p517
aVBIGTOP-2537
p518
aVBIGTOP-2536
p519
aVBIGTOP-2535
p520
aVBIGTOP-2534
p521
aVBIGTOP-2533
p522
aVBIGTOP-2532
p523
aVBIGTOP-2531
p524
aVBIGTOP-2530
p525
aVBIGTOP-2529
p526
aVBIGTOP-2528
p527
aVBIGTOP-2527
p528
aVBIGTOP-2526
p529
aVBIGTOP-2525
p530
aVBIGTOP-2524
p531
aVBIGTOP-2523
p532
aVBIGTOP-2522
p533
aVBIGTOP-2521
p534
aVBIGTOP-2520
p535
aVBIGTOP-2519
p536
aVBIGTOP-2518
p537
aVBIGTOP-2517
p538
aVBIGTOP-2516
p539
aVBIGTOP-2515
p540
aVBIGTOP-2514
p541
aVBIGTOP-2513
p542
aVBIGTOP-2512
p543
aVBIGTOP-2511
p544
aVBIGTOP-2510
p545
aVBIGTOP-2509
p546
aVBIGTOP-2508
p547
aVBIGTOP-2507
p548
aVBIGTOP-2506
p549
aVBIGTOP-2505
p550
aVBIGTOP-2504
p551
aVBIGTOP-2503
p552
aVBIGTOP-2502
p553
aVBIGTOP-2501
p554
aVBIGTOP-2500
p555
aVBIGTOP-2499
p556
aVBIGTOP-2498
p557
aVBIGTOP-2497
p558
aVBIGTOP-2496
p559
aVBIGTOP-2495
p560
aVBIGTOP-2494
p561
aVBIGTOP-2493
p562
aVBIGTOP-2492
p563
aVBIGTOP-2491
p564
aVBIGTOP-2490
p565
aVBIGTOP-2489
p566
aVBIGTOP-2488
p567
aVBIGTOP-2487
p568
aVBIGTOP-2486
p569
aVBIGTOP-2485
p570
aVBIGTOP-2484
p571
aVBIGTOP-2483
p572
aVBIGTOP-2482
p573
aVBIGTOP-2481
p574
aVBIGTOP-2480
p575
aVBIGTOP-2479
p576
aVBIGTOP-2478
p577
aVBIGTOP-2477
p578
aVBIGTOP-2476
p579
aVBIGTOP-2475
p580
aVBIGTOP-2474
p581
aVBIGTOP-2473
p582
aVBIGTOP-2472
p583
aVBIGTOP-2471
p584
aVBIGTOP-2470
p585
aVBIGTOP-2469
p586
aVBIGTOP-2468
p587
aVBIGTOP-2467
p588
aVBIGTOP-2466
p589
aVBIGTOP-2465
p590
aVBIGTOP-2464
p591
aVBIGTOP-2463
p592
aVBIGTOP-2462
p593
aVBIGTOP-2461
p594
aVBIGTOP-2460
p595
aVBIGTOP-2459
p596
aVBIGTOP-2458
p597
aVBIGTOP-2457
p598
aVBIGTOP-2456
p599
aVBIGTOP-2455
p600
aVBIGTOP-2454
p601
aVBIGTOP-2453
p602
aVBIGTOP-2452
p603
aVBIGTOP-2451
p604
aVBIGTOP-2450
p605
aVBIGTOP-2449
p606
aVBIGTOP-2448
p607
aVBIGTOP-2447
p608
aVBIGTOP-2446
p609
aVBIGTOP-2445
p610
aVBIGTOP-2444
p611
aVBIGTOP-2443
p612
aVBIGTOP-2442
p613
aVBIGTOP-2441
p614
aVBIGTOP-2440
p615
aVBIGTOP-2439
p616
aVBIGTOP-2438
p617
aVBIGTOP-2437
p618
aVBIGTOP-2436
p619
aVBIGTOP-2435
p620
aVBIGTOP-2434
p621
aVBIGTOP-2433
p622
aVBIGTOP-2432
p623
aVBIGTOP-2431
p624
aVBIGTOP-2430
p625
aVBIGTOP-2429
p626
aVBIGTOP-2428
p627
aVBIGTOP-2427
p628
aVBIGTOP-2426
p629
aVBIGTOP-2425
p630
aVBIGTOP-2424
p631
aVBIGTOP-2423
p632
aVBIGTOP-2422
p633
aVBIGTOP-2421
p634
aVBIGTOP-2420
p635
aVBIGTOP-2419
p636
aVBIGTOP-2418
p637
aVBIGTOP-2417
p638
aVBIGTOP-2416
p639
aVBIGTOP-2415
p640
aVBIGTOP-2414
p641
aVBIGTOP-2413
p642
aVBIGTOP-2412
p643
aVBIGTOP-2411
p644
aVBIGTOP-2410
p645
aVBIGTOP-2409
p646
aVBIGTOP-2408
p647
aVBIGTOP-2407
p648
aVBIGTOP-2406
p649
aVBIGTOP-2405
p650
aVBIGTOP-2404
p651
aVBIGTOP-2403
p652
aVBIGTOP-2402
p653
aVBIGTOP-2401
p654
aVBIGTOP-2400
p655
aVBIGTOP-2399
p656
aVBIGTOP-2398
p657
aVBIGTOP-2397
p658
aVBIGTOP-2396
p659
aVBIGTOP-2395
p660
aVBIGTOP-2394
p661
aVBIGTOP-2393
p662
aVBIGTOP-2392
p663
aVBIGTOP-2391
p664
aVBIGTOP-2390
p665
aVBIGTOP-2389
p666
aVBIGTOP-2388
p667
aVBIGTOP-2387
p668
aVBIGTOP-2386
p669
aVBIGTOP-2385
p670
aVBIGTOP-2384
p671
aVBIGTOP-2383
p672
aVBIGTOP-2382
p673
aVBIGTOP-2381
p674
aVBIGTOP-2380
p675
aVBIGTOP-2379
p676
aVBIGTOP-2378
p677
aVBIGTOP-2377
p678
aVBIGTOP-2376
p679
aVBIGTOP-2375
p680
aVBIGTOP-2374
p681
aVBIGTOP-2373
p682
aVBIGTOP-2372
p683
aVBIGTOP-2371
p684
aVBIGTOP-2370
p685
aVBIGTOP-2369
p686
aVBIGTOP-2368
p687
aVBIGTOP-2367
p688
aVBIGTOP-2366
p689
aVBIGTOP-2365
p690
aVBIGTOP-2364
p691
aVBIGTOP-2363
p692
aVBIGTOP-2362
p693
aVBIGTOP-2361
p694
aVBIGTOP-2360
p695
aVBIGTOP-2359
p696
aVBIGTOP-2358
p697
aVBIGTOP-2357
p698
aVBIGTOP-2356
p699
aVBIGTOP-2355
p700
aVBIGTOP-2354
p701
aVBIGTOP-2353
p702
aVBIGTOP-2352
p703
aVBIGTOP-2351
p704
aVBIGTOP-2350
p705
aVBIGTOP-2349
p706
aVBIGTOP-2348
p707
aVBIGTOP-2347
p708
aVBIGTOP-2346
p709
aVBIGTOP-2345
p710
aVBIGTOP-2344
p711
aVBIGTOP-2343
p712
aVBIGTOP-2342
p713
aVBIGTOP-2341
p714
aVBIGTOP-2340
p715
aVBIGTOP-2339
p716
aVBIGTOP-2338
p717
aVBIGTOP-2337
p718
aVBIGTOP-2336
p719
aVBIGTOP-2335
p720
aVBIGTOP-2334
p721
aVBIGTOP-2333
p722
aVBIGTOP-2332
p723
aVBIGTOP-2331
p724
aVBIGTOP-2330
p725
aVBIGTOP-2329
p726
aVBIGTOP-2328
p727
aVBIGTOP-2327
p728
aVBIGTOP-2326
p729
aVBIGTOP-2325
p730
aVBIGTOP-2324
p731
aVBIGTOP-2323
p732
aVBIGTOP-2322
p733
aVBIGTOP-2321
p734
aVBIGTOP-2320
p735
aVBIGTOP-2319
p736
aVBIGTOP-2318
p737
aVBIGTOP-2317
p738
aVBIGTOP-2316
p739
aVBIGTOP-2315
p740
aVBIGTOP-2314
p741
aVBIGTOP-2313
p742
aVBIGTOP-2312
p743
aVBIGTOP-2311
p744
aVBIGTOP-2310
p745
aVBIGTOP-2309
p746
aVBIGTOP-2308
p747
aVBIGTOP-2307
p748
aVBIGTOP-2306
p749
aVBIGTOP-2305
p750
aVBIGTOP-2304
p751
aVBIGTOP-2303
p752
aVBIGTOP-2302
p753
aVBIGTOP-2301
p754
aVBIGTOP-2300
p755
aVBIGTOP-2299
p756
aVBIGTOP-2298
p757
aVBIGTOP-2297
p758
aVBIGTOP-2296
p759
aVBIGTOP-2295
p760
aVBIGTOP-2294
p761
aVBIGTOP-2293
p762
aVBIGTOP-2292
p763
aVBIGTOP-2291
p764
aVBIGTOP-2290
p765
aVBIGTOP-2289
p766
aVBIGTOP-2288
p767
aVBIGTOP-2287
p768
aVBIGTOP-2286
p769
aVBIGTOP-2285
p770
aVBIGTOP-2284
p771
aVBIGTOP-2283
p772
aVBIGTOP-2282
p773
aVBIGTOP-2281
p774
aVBIGTOP-2280
p775
aVBIGTOP-2279
p776
aVBIGTOP-2278
p777
aVBIGTOP-2277
p778
aVBIGTOP-2276
p779
aVBIGTOP-2275
p780
aVBIGTOP-2274
p781
aVBIGTOP-2273
p782
aVBIGTOP-2272
p783
aVBIGTOP-2271
p784
aVBIGTOP-2270
p785
aVBIGTOP-2269
p786
aVBIGTOP-2268
p787
aVBIGTOP-2267
p788
aVBIGTOP-2266
p789
aVBIGTOP-2265
p790
aVBIGTOP-2264
p791
aVBIGTOP-2263
p792
aVBIGTOP-2262
p793
aVBIGTOP-2261
p794
aVBIGTOP-2260
p795
aVBIGTOP-2259
p796
aVBIGTOP-2258
p797
aVBIGTOP-2257
p798
aVBIGTOP-2256
p799
aVBIGTOP-2255
p800
aVBIGTOP-2254
p801
aVBIGTOP-2253
p802
aVBIGTOP-2252
p803
aVBIGTOP-2251
p804
aVBIGTOP-2250
p805
aVBIGTOP-2249
p806
aVBIGTOP-2248
p807
aVBIGTOP-2247
p808
aVBIGTOP-2246
p809
aVBIGTOP-2245
p810
aVBIGTOP-2244
p811
aVBIGTOP-2243
p812
aVBIGTOP-2242
p813
aVBIGTOP-2241
p814
aVBIGTOP-2240
p815
aVBIGTOP-2239
p816
aVBIGTOP-2238
p817
aVBIGTOP-2237
p818
aVBIGTOP-2236
p819
aVBIGTOP-2235
p820
aVBIGTOP-2234
p821
aVBIGTOP-2233
p822
aVBIGTOP-2232
p823
aVBIGTOP-2231
p824
aVBIGTOP-2230
p825
aVBIGTOP-2229
p826
aVBIGTOP-2228
p827
aVBIGTOP-2227
p828
aVBIGTOP-2226
p829
aVBIGTOP-2225
p830
aVBIGTOP-2224
p831
aVBIGTOP-2223
p832
aVBIGTOP-2222
p833
aVBIGTOP-2221
p834
aVBIGTOP-2220
p835
aVBIGTOP-2219
p836
aVBIGTOP-2218
p837
aVBIGTOP-2217
p838
aVBIGTOP-2216
p839
aVBIGTOP-2215
p840
aVBIGTOP-2214
p841
aVBIGTOP-2213
p842
aVBIGTOP-2212
p843
aVBIGTOP-2211
p844
aVBIGTOP-2210
p845
aVBIGTOP-2209
p846
aVBIGTOP-2208
p847
aVBIGTOP-2207
p848
aVBIGTOP-2206
p849
aVBIGTOP-2205
p850
aVBIGTOP-2204
p851
aVBIGTOP-2203
p852
aVBIGTOP-2202
p853
aVBIGTOP-2201
p854
aVBIGTOP-2200
p855
aVBIGTOP-2199
p856
aVBIGTOP-2198
p857
aVBIGTOP-2197
p858
aVBIGTOP-2196
p859
aVBIGTOP-2195
p860
aVBIGTOP-2194
p861
aVBIGTOP-2193
p862
aVBIGTOP-2192
p863
aVBIGTOP-2191
p864
aVBIGTOP-2190
p865
aVBIGTOP-2189
p866
aVBIGTOP-2188
p867
aVBIGTOP-2187
p868
aVBIGTOP-2186
p869
aVBIGTOP-2185
p870
aVBIGTOP-2184
p871
aVBIGTOP-2183
p872
aVBIGTOP-2182
p873
aVBIGTOP-2181
p874
aVBIGTOP-2180
p875
aVBIGTOP-2179
p876
aVBIGTOP-2178
p877
aVBIGTOP-2177
p878
aVBIGTOP-2176
p879
aVBIGTOP-2175
p880
aVBIGTOP-2174
p881
aVBIGTOP-2173
p882
aVBIGTOP-2172
p883
aVBIGTOP-2171
p884
aVBIGTOP-2170
p885
aVBIGTOP-2169
p886
aVBIGTOP-2168
p887
aVBIGTOP-2167
p888
aVBIGTOP-2166
p889
aVBIGTOP-2165
p890
aVBIGTOP-2164
p891
aVBIGTOP-2163
p892
aVBIGTOP-2162
p893
aVBIGTOP-2161
p894
aVBIGTOP-2160
p895
aVBIGTOP-2159
p896
aVBIGTOP-2158
p897
aVBIGTOP-2157
p898
aVBIGTOP-2156
p899
aVBIGTOP-2155
p900
aVBIGTOP-2154
p901
aVBIGTOP-2153
p902
aVBIGTOP-2152
p903
aVBIGTOP-2151
p904
aVBIGTOP-2150
p905
aVBIGTOP-2149
p906
aVBIGTOP-2148
p907
aVBIGTOP-2147
p908
aVBIGTOP-2146
p909
aVBIGTOP-2145
p910
aVBIGTOP-2144
p911
aVBIGTOP-2143
p912
aVBIGTOP-2142
p913
aVBIGTOP-2141
p914
aVBIGTOP-2140
p915
aVBIGTOP-2139
p916
aVBIGTOP-2138
p917
aVBIGTOP-2137
p918
aVBIGTOP-2136
p919
aVBIGTOP-2135
p920
aVBIGTOP-2134
p921
aVBIGTOP-2133
p922
aVBIGTOP-2132
p923
aVBIGTOP-2131
p924
aVBIGTOP-2130
p925
aVBIGTOP-2129
p926
aVBIGTOP-2128
p927
aVBIGTOP-2127
p928
aVBIGTOP-2126
p929
aVBIGTOP-2125
p930
aVBIGTOP-2124
p931
aVBIGTOP-2123
p932
aVBIGTOP-2122
p933
aVBIGTOP-2121
p934
aVBIGTOP-2120
p935
aVBIGTOP-2119
p936
aVBIGTOP-2118
p937
aVBIGTOP-2117
p938
aVBIGTOP-2116
p939
aVBIGTOP-2115
p940
aVBIGTOP-2114
p941
aVBIGTOP-2113
p942
aVBIGTOP-2112
p943
aVBIGTOP-2111
p944
aVBIGTOP-2110
p945
aVBIGTOP-2109
p946
aVBIGTOP-2108
p947
aVBIGTOP-2107
p948
aVBIGTOP-2106
p949
aVBIGTOP-2105
p950
aVBIGTOP-2104
p951
aVBIGTOP-2103
p952
aVBIGTOP-2102
p953
aVBIGTOP-2101
p954
aVBIGTOP-2100
p955
aVBIGTOP-2099
p956
aVBIGTOP-2098
p957
aVBIGTOP-2097
p958
aVBIGTOP-2096
p959
aVBIGTOP-2095
p960
aVBIGTOP-2094
p961
aVBIGTOP-2093
p962
aVBIGTOP-2092
p963
aVBIGTOP-2091
p964
aVBIGTOP-2090
p965
aVBIGTOP-2089
p966
aVBIGTOP-2088
p967
aVBIGTOP-2087
p968
aVBIGTOP-2086
p969
aVBIGTOP-2085
p970
aVBIGTOP-2084
p971
aVBIGTOP-2083
p972
aVBIGTOP-2082
p973
aVBIGTOP-2081
p974
aVBIGTOP-2080
p975
aVBIGTOP-2079
p976
aVBIGTOP-2078
p977
aVBIGTOP-2077
p978
aVBIGTOP-2076
p979
aVBIGTOP-2075
p980
aVBIGTOP-2074
p981
aVBIGTOP-2073
p982
aVBIGTOP-2072
p983
aVBIGTOP-2071
p984
aVBIGTOP-2070
p985
aVBIGTOP-2069
p986
aVBIGTOP-2068
p987
aVBIGTOP-2067
p988
aVBIGTOP-2066
p989
aVBIGTOP-2065
p990
aVBIGTOP-2064
p991
aVBIGTOP-2063
p992
aVBIGTOP-2062
p993
aVBIGTOP-2061
p994
aVBIGTOP-2060
p995
aVBIGTOP-2059
p996
aVBIGTOP-2058
p997
aVBIGTOP-2057
p998
aVBIGTOP-2056
p999
aVBIGTOP-2055
p1000
aVBIGTOP-2054
p1001
aVBIGTOP-2053
p1002
aVBIGTOP-2052
p1003
aVBIGTOP-2051
p1004
aVBIGTOP-2050
p1005
aVBIGTOP-2049
p1006
aVBIGTOP-2048
p1007
aVBIGTOP-2047
p1008
aVBIGTOP-2046
p1009
aVBIGTOP-2045
p1010
aVBIGTOP-2044
p1011
aVBIGTOP-2043
p1012
aVBIGTOP-2042
p1013
aVBIGTOP-2041
p1014
aVBIGTOP-2040
p1015
aVBIGTOP-2039
p1016
aVBIGTOP-2038
p1017
aVBIGTOP-2037
p1018
aVBIGTOP-2036
p1019
aVBIGTOP-2035
p1020
aVBIGTOP-2034
p1021
aVBIGTOP-2033
p1022
aVBIGTOP-2032
p1023
aVBIGTOP-2031
p1024
aVBIGTOP-2030
p1025
aVBIGTOP-2029
p1026
aVBIGTOP-2028
p1027
aVBIGTOP-2027
p1028
aVBIGTOP-2026
p1029
aVBIGTOP-2025
p1030
aVBIGTOP-2024
p1031
aVBIGTOP-2023
p1032
aVBIGTOP-2022
p1033
aVBIGTOP-2021
p1034
aVBIGTOP-2020
p1035
aVBIGTOP-2019
p1036
aVBIGTOP-2018
p1037
aVBIGTOP-2017
p1038
aVBIGTOP-2016
p1039
aVBIGTOP-2015
p1040
aVBIGTOP-2014
p1041
aVBIGTOP-2013
p1042
aVBIGTOP-2012
p1043
aVBIGTOP-2011
p1044
aVBIGTOP-2010
p1045
aVBIGTOP-2009
p1046
aVBIGTOP-2008
p1047
aVBIGTOP-2007
p1048
aVBIGTOP-2006
p1049
aVBIGTOP-2005
p1050
aVBIGTOP-2004
p1051
aVBIGTOP-2003
p1052
aVBIGTOP-2002
p1053
aVBIGTOP-2001
p1054
aVBIGTOP-2000
p1055
aVBIGTOP-1999
p1056
aVBIGTOP-1998
p1057
aVBIGTOP-1997
p1058
aVBIGTOP-1996
p1059
aVBIGTOP-1995
p1060
aVBIGTOP-1994
p1061
aVBIGTOP-1993
p1062
aVBIGTOP-1992
p1063
aVBIGTOP-1991
p1064
aVBIGTOP-1990
p1065
aVBIGTOP-1989
p1066
aVBIGTOP-1988
p1067
aVBIGTOP-1987
p1068
aVBIGTOP-1986
p1069
aVBIGTOP-1985
p1070
aVBIGTOP-1984
p1071
aVBIGTOP-1983
p1072
aVBIGTOP-1982
p1073
aVBIGTOP-1981
p1074
aVBIGTOP-1980
p1075
aVBIGTOP-1979
p1076
aVBIGTOP-1978
p1077
aVBIGTOP-1977
p1078
aVBIGTOP-1976
p1079
aVBIGTOP-1975
p1080
aVBIGTOP-1974
p1081
aVBIGTOP-1973
p1082
aVBIGTOP-1972
p1083
aVBIGTOP-1971
p1084
aVBIGTOP-1970
p1085
aVBIGTOP-1969
p1086
aVBIGTOP-1968
p1087
aVBIGTOP-1967
p1088
aVBIGTOP-1966
p1089
aVBIGTOP-1965
p1090
aVBIGTOP-1964
p1091
aVBIGTOP-1963
p1092
aVBIGTOP-1962
p1093
aVBIGTOP-1961
p1094
aVBIGTOP-1960
p1095
aVBIGTOP-1959
p1096
aVBIGTOP-1958
p1097
aVBIGTOP-1957
p1098
aVBIGTOP-1956
p1099
aVBIGTOP-1955
p1100
aVBIGTOP-1954
p1101
aVBIGTOP-1953
p1102
aVBIGTOP-1952
p1103
aVBIGTOP-1951
p1104
aVBIGTOP-1950
p1105
aVBIGTOP-1949
p1106
aVBIGTOP-1948
p1107
aVBIGTOP-1947
p1108
aVBIGTOP-1946
p1109
aVBIGTOP-1945
p1110
aVBIGTOP-1944
p1111
aVBIGTOP-1943
p1112
aVBIGTOP-1942
p1113
aVBIGTOP-1941
p1114
aVBIGTOP-1940
p1115
aVBIGTOP-1939
p1116
aVBIGTOP-1938
p1117
aVBIGTOP-1937
p1118
aVBIGTOP-1936
p1119
aVBIGTOP-1935
p1120
aVBIGTOP-1934
p1121
aVBIGTOP-1933
p1122
aVBIGTOP-1932
p1123
aVBIGTOP-1931
p1124
aVBIGTOP-1930
p1125
aVBIGTOP-1929
p1126
aVBIGTOP-1928
p1127
aVBIGTOP-1927
p1128
aVBIGTOP-1926
p1129
aVBIGTOP-1925
p1130
aVBIGTOP-1924
p1131
aVBIGTOP-1923
p1132
aVBIGTOP-1922
p1133
aVBIGTOP-1921
p1134
aVBIGTOP-1920
p1135
aVBIGTOP-1919
p1136
aVBIGTOP-1918
p1137
aVBIGTOP-1917
p1138
aVBIGTOP-1916
p1139
aVBIGTOP-1915
p1140
aVBIGTOP-1914
p1141
aVBIGTOP-1913
p1142
aVBIGTOP-1912
p1143
aVBIGTOP-1911
p1144
aVBIGTOP-1910
p1145
aVBIGTOP-1909
p1146
aVBIGTOP-1908
p1147
aVBIGTOP-1907
p1148
aVBIGTOP-1906
p1149
aVBIGTOP-1905
p1150
aVBIGTOP-1904
p1151
aVBIGTOP-1903
p1152
aVBIGTOP-1902
p1153
aVBIGTOP-1901
p1154
aVBIGTOP-1900
p1155
aVBIGTOP-1899
p1156
aVBIGTOP-1898
p1157
aVBIGTOP-1897
p1158
aVBIGTOP-1896
p1159
aVBIGTOP-1895
p1160
aVBIGTOP-1894
p1161
aVBIGTOP-1893
p1162
aVBIGTOP-1892
p1163
aVBIGTOP-1891
p1164
aVBIGTOP-1890
p1165
aVBIGTOP-1889
p1166
aVBIGTOP-1888
p1167
aVBIGTOP-1887
p1168
aVBIGTOP-1886
p1169
aVBIGTOP-1885
p1170
aVBIGTOP-1884
p1171
aVBIGTOP-1883
p1172
aVBIGTOP-1882
p1173
aVBIGTOP-1881
p1174
aVBIGTOP-1880
p1175
aVBIGTOP-1879
p1176
aVBIGTOP-1878
p1177
aVBIGTOP-1877
p1178
aVBIGTOP-1876
p1179
aVBIGTOP-1875
p1180
aVBIGTOP-1874
p1181
aVBIGTOP-1873
p1182
aVBIGTOP-1872
p1183
aVBIGTOP-1871
p1184
aVBIGTOP-1870
p1185
aVBIGTOP-1869
p1186
aVBIGTOP-1868
p1187
aVBIGTOP-1867
p1188
aVBIGTOP-1866
p1189
aVBIGTOP-1865
p1190
aVBIGTOP-1864
p1191
aVBIGTOP-1863
p1192
aVBIGTOP-1862
p1193
aVBIGTOP-1861
p1194
aVBIGTOP-1860
p1195
aVBIGTOP-1859
p1196
aVBIGTOP-1858
p1197
aVBIGTOP-1857
p1198
aVBIGTOP-1856
p1199
aVBIGTOP-1855
p1200
aVBIGTOP-1854
p1201
aVBIGTOP-1853
p1202
aVBIGTOP-1852
p1203
aVBIGTOP-1851
p1204
aVBIGTOP-1850
p1205
aVBIGTOP-1849
p1206
aVBIGTOP-1848
p1207
aVBIGTOP-1847
p1208
aVBIGTOP-1846
p1209
aVBIGTOP-1845
p1210
aVBIGTOP-1844
p1211
aVBIGTOP-1843
p1212
aVBIGTOP-1842
p1213
aVBIGTOP-1841
p1214
aVBIGTOP-1840
p1215
aVBIGTOP-1839
p1216
aVBIGTOP-1838
p1217
aVBIGTOP-1837
p1218
aVBIGTOP-1836
p1219
aVBIGTOP-1835
p1220
aVBIGTOP-1834
p1221
aVBIGTOP-1833
p1222
aVBIGTOP-1832
p1223
aVBIGTOP-1831
p1224
aVBIGTOP-1830
p1225
aVBIGTOP-1829
p1226
aVBIGTOP-1828
p1227
aVBIGTOP-1827
p1228
aVBIGTOP-1826
p1229
aVBIGTOP-1825
p1230
aVBIGTOP-1824
p1231
aVBIGTOP-1823
p1232
aVBIGTOP-1822
p1233
aVBIGTOP-1821
p1234
aVBIGTOP-1820
p1235
aVBIGTOP-1819
p1236
aVBIGTOP-1818
p1237
aVBIGTOP-1817
p1238
aVBIGTOP-1816
p1239
aVBIGTOP-1815
p1240
aVBIGTOP-1814
p1241
aVBIGTOP-1813
p1242
aVBIGTOP-1812
p1243
aVBIGTOP-1811
p1244
aVBIGTOP-1810
p1245
aVBIGTOP-1809
p1246
aVBIGTOP-1808
p1247
aVBIGTOP-1807
p1248
aVBIGTOP-1806
p1249
aVBIGTOP-1805
p1250
aVBIGTOP-1804
p1251
aVBIGTOP-1803
p1252
aVBIGTOP-1802
p1253
aVBIGTOP-1801
p1254
aVBIGTOP-1800
p1255
aVBIGTOP-1799
p1256
aVBIGTOP-1798
p1257
aVBIGTOP-1797
p1258
aVBIGTOP-1796
p1259
aVBIGTOP-1795
p1260
aVBIGTOP-1794
p1261
aVBIGTOP-1793
p1262
aVBIGTOP-1792
p1263
aVBIGTOP-1791
p1264
aVBIGTOP-1790
p1265
aVBIGTOP-1789
p1266
aVBIGTOP-1788
p1267
aVBIGTOP-1787
p1268
aVBIGTOP-1786
p1269
aVBIGTOP-1785
p1270
aVBIGTOP-1784
p1271
aVBIGTOP-1783
p1272
aVBIGTOP-1782
p1273
aVBIGTOP-1781
p1274
aVBIGTOP-1780
p1275
aVBIGTOP-1779
p1276
aVBIGTOP-1778
p1277
aVBIGTOP-1777
p1278
aVBIGTOP-1776
p1279
aVBIGTOP-1775
p1280
aVBIGTOP-1774
p1281
aVBIGTOP-1773
p1282
aVBIGTOP-1772
p1283
aVBIGTOP-1771
p1284
aVBIGTOP-1770
p1285
aVBIGTOP-1769
p1286
aVBIGTOP-1768
p1287
aVBIGTOP-1767
p1288
aVBIGTOP-1766
p1289
aVBIGTOP-1765
p1290
aVBIGTOP-1764
p1291
aVBIGTOP-1763
p1292
aVBIGTOP-1762
p1293
aVBIGTOP-1761
p1294
aVBIGTOP-1760
p1295
aVBIGTOP-1759
p1296
aVBIGTOP-1758
p1297
aVBIGTOP-1757
p1298
aVBIGTOP-1756
p1299
aVBIGTOP-1755
p1300
aVBIGTOP-1754
p1301
aVBIGTOP-1753
p1302
aVBIGTOP-1752
p1303
aVBIGTOP-1751
p1304
aVBIGTOP-1750
p1305
aVBIGTOP-1749
p1306
aVBIGTOP-1748
p1307
aVBIGTOP-1747
p1308
aVBIGTOP-1746
p1309
aVBIGTOP-1745
p1310
aVBIGTOP-1744
p1311
aVBIGTOP-1743
p1312
aVBIGTOP-1742
p1313
aVBIGTOP-1741
p1314
aVBIGTOP-1740
p1315
aVBIGTOP-1739
p1316
aVBIGTOP-1738
p1317
aVBIGTOP-1737
p1318
aVBIGTOP-1736
p1319
aVBIGTOP-1735
p1320
aVBIGTOP-1734
p1321
aVBIGTOP-1733
p1322
aVBIGTOP-1732
p1323
aVBIGTOP-1731
p1324
aVBIGTOP-1730
p1325
aVBIGTOP-1729
p1326
aVBIGTOP-1728
p1327
aVBIGTOP-1727
p1328
aVBIGTOP-1726
p1329
aVBIGTOP-1725
p1330
aVBIGTOP-1724
p1331
aVBIGTOP-1723
p1332
aVBIGTOP-1722
p1333
aVBIGTOP-1721
p1334
aVBIGTOP-1720
p1335
aVBIGTOP-1719
p1336
aVBIGTOP-1718
p1337
aVBIGTOP-1717
p1338
aVBIGTOP-1716
p1339
aVBIGTOP-1715
p1340
aVBIGTOP-1714
p1341
aVBIGTOP-1713
p1342
aVBIGTOP-1712
p1343
aVBIGTOP-1711
p1344
aVBIGTOP-1710
p1345
aVBIGTOP-1709
p1346
aVBIGTOP-1708
p1347
aVBIGTOP-1707
p1348
aVBIGTOP-1706
p1349
aVBIGTOP-1705
p1350
aVBIGTOP-1704
p1351
aVBIGTOP-1703
p1352
aVBIGTOP-1702
p1353
aVBIGTOP-1701
p1354
aVBIGTOP-1700
p1355
aVBIGTOP-1699
p1356
aVBIGTOP-1698
p1357
aVBIGTOP-1697
p1358
aVBIGTOP-1696
p1359
aVBIGTOP-1695
p1360
aVBIGTOP-1694
p1361
aVBIGTOP-1693
p1362
aVBIGTOP-1692
p1363
aVBIGTOP-1691
p1364
aVBIGTOP-1690
p1365
aVBIGTOP-1689
p1366
aVBIGTOP-1688
p1367
aVBIGTOP-1687
p1368
aVBIGTOP-1686
p1369
aVBIGTOP-1685
p1370
aVBIGTOP-1684
p1371
aVBIGTOP-1683
p1372
aVBIGTOP-1682
p1373
aVBIGTOP-1681
p1374
aVBIGTOP-1680
p1375
aVBIGTOP-1679
p1376
aVBIGTOP-1678
p1377
aVBIGTOP-1677
p1378
aVBIGTOP-1676
p1379
aVBIGTOP-1675
p1380
aVBIGTOP-1674
p1381
aVBIGTOP-1673
p1382
aVBIGTOP-1672
p1383
aVBIGTOP-1671
p1384
aVBIGTOP-1670
p1385
aVBIGTOP-1669
p1386
aVBIGTOP-1668
p1387
aVBIGTOP-1667
p1388
aVBIGTOP-1666
p1389
aVBIGTOP-1665
p1390
aVBIGTOP-1664
p1391
aVBIGTOP-1663
p1392
aVBIGTOP-1662
p1393
aVBIGTOP-1661
p1394
aVBIGTOP-1660
p1395
aVBIGTOP-1659
p1396
aVBIGTOP-1658
p1397
aVBIGTOP-1657
p1398
aVBIGTOP-1656
p1399
aVBIGTOP-1655
p1400
aVBIGTOP-1654
p1401
aVBIGTOP-1653
p1402
aVBIGTOP-1652
p1403
aVBIGTOP-1651
p1404
aVBIGTOP-1650
p1405
aVBIGTOP-1649
p1406
aVBIGTOP-1648
p1407
aVBIGTOP-1647
p1408
aVBIGTOP-1646
p1409
aVBIGTOP-1645
p1410
aVBIGTOP-1644
p1411
aVBIGTOP-1643
p1412
aVBIGTOP-1642
p1413
aVBIGTOP-1641
p1414
aVBIGTOP-1640
p1415
aVBIGTOP-1639
p1416
aVBIGTOP-1638
p1417
aVBIGTOP-1637
p1418
aVBIGTOP-1636
p1419
aVBIGTOP-1635
p1420
aVBIGTOP-1634
p1421
aVBIGTOP-1633
p1422
aVBIGTOP-1632
p1423
aVBIGTOP-1631
p1424
aVBIGTOP-1630
p1425
aVBIGTOP-1629
p1426
aVBIGTOP-1628
p1427
aVBIGTOP-1627
p1428
aVBIGTOP-1626
p1429
aVBIGTOP-1625
p1430
aVBIGTOP-1624
p1431
aVBIGTOP-1623
p1432
aVBIGTOP-1622
p1433
aVBIGTOP-1621
p1434
aVBIGTOP-1620
p1435
aVBIGTOP-1619
p1436
aVBIGTOP-1618
p1437
aVBIGTOP-1617
p1438
aVBIGTOP-1616
p1439
aVBIGTOP-1615
p1440
aVBIGTOP-1614
p1441
aVBIGTOP-1613
p1442
aVBIGTOP-1612
p1443
aVBIGTOP-1611
p1444
aVBIGTOP-1610
p1445
aVBIGTOP-1609
p1446
aVBIGTOP-1608
p1447
aVBIGTOP-1607
p1448
aVBIGTOP-1606
p1449
aVBIGTOP-1605
p1450
aVBIGTOP-1604
p1451
aVBIGTOP-1603
p1452
aVBIGTOP-1602
p1453
aVBIGTOP-1601
p1454
aVBIGTOP-1600
p1455
aVBIGTOP-1599
p1456
aVBIGTOP-1598
p1457
aVBIGTOP-1597
p1458
aVBIGTOP-1596
p1459
aVBIGTOP-1595
p1460
aVBIGTOP-1594
p1461
aVBIGTOP-1593
p1462
aVBIGTOP-1592
p1463
aVBIGTOP-1591
p1464
aVBIGTOP-1590
p1465
aVBIGTOP-1589
p1466
aVBIGTOP-1588
p1467
aVBIGTOP-1587
p1468
aVBIGTOP-1586
p1469
aVBIGTOP-1585
p1470
aVBIGTOP-1584
p1471
aVBIGTOP-1583
p1472
aVBIGTOP-1582
p1473
aVBIGTOP-1581
p1474
aVBIGTOP-1580
p1475
aVBIGTOP-1579
p1476
aVBIGTOP-1578
p1477
aVBIGTOP-1577
p1478
aVBIGTOP-1576
p1479
aVBIGTOP-1575
p1480
aVBIGTOP-1574
p1481
aVBIGTOP-1573
p1482
aVBIGTOP-1572
p1483
aVBIGTOP-1571
p1484
aVBIGTOP-1570
p1485
aVBIGTOP-1569
p1486
aVBIGTOP-1568
p1487
aVBIGTOP-1567
p1488
aVBIGTOP-1566
p1489
aVBIGTOP-1565
p1490
aVBIGTOP-1564
p1491
aVBIGTOP-1563
p1492
aVBIGTOP-1562
p1493
aVBIGTOP-1561
p1494
aVBIGTOP-1560
p1495
aVBIGTOP-1559
p1496
aVBIGTOP-1558
p1497
aVBIGTOP-1557
p1498
aVBIGTOP-1556
p1499
aVBIGTOP-1555
p1500
aVBIGTOP-1554
p1501
aVBIGTOP-1553
p1502
aVBIGTOP-1552
p1503
aVBIGTOP-1551
p1504
aVBIGTOP-1550
p1505
aVBIGTOP-1549
p1506
aVBIGTOP-1548
p1507
aVBIGTOP-1547
p1508
aVBIGTOP-1546
p1509
aVBIGTOP-1545
p1510
aVBIGTOP-1544
p1511
aVBIGTOP-1543
p1512
aVBIGTOP-1542
p1513
aVBIGTOP-1541
p1514
aVBIGTOP-1540
p1515
aVBIGTOP-1539
p1516
aVBIGTOP-1538
p1517
aVBIGTOP-1537
p1518
aVBIGTOP-1536
p1519
aVBIGTOP-1535
p1520
aVBIGTOP-1534
p1521
aVBIGTOP-1533
p1522
aVBIGTOP-1532
p1523
aVBIGTOP-1531
p1524
aVBIGTOP-1530
p1525
aVBIGTOP-1529
p1526
aVBIGTOP-1528
p1527
aVBIGTOP-1527
p1528
aVBIGTOP-1526
p1529
aVBIGTOP-1525
p1530
aVBIGTOP-1524
p1531
aVBIGTOP-1523
p1532
aVBIGTOP-1522
p1533
aVBIGTOP-1521
p1534
aVBIGTOP-1520
p1535
aVBIGTOP-1519
p1536
aVBIGTOP-1518
p1537
aVBIGTOP-1517
p1538
aVBIGTOP-1516
p1539
aVBIGTOP-1515
p1540
aVBIGTOP-1514
p1541
aVBIGTOP-1513
p1542
aVBIGTOP-1512
p1543
aVBIGTOP-1511
p1544
aVBIGTOP-1510
p1545
aVBIGTOP-1509
p1546
aVBIGTOP-1508
p1547
aVBIGTOP-1507
p1548
aVBIGTOP-1506
p1549
aVBIGTOP-1505
p1550
aVBIGTOP-1504
p1551
aVBIGTOP-1503
p1552
aVBIGTOP-1502
p1553
aVBIGTOP-1501
p1554
aVBIGTOP-1500
p1555
aVBIGTOP-1499
p1556
aVBIGTOP-1498
p1557
aVBIGTOP-1497
p1558
aVBIGTOP-1496
p1559
aVBIGTOP-1495
p1560
aVBIGTOP-1494
p1561
aVBIGTOP-1493
p1562
aVBIGTOP-1492
p1563
aVBIGTOP-1491
p1564
aVBIGTOP-1490
p1565
aVBIGTOP-1489
p1566
aVBIGTOP-1488
p1567
aVBIGTOP-1487
p1568
aVBIGTOP-1486
p1569
aVBIGTOP-1485
p1570
aVBIGTOP-1484
p1571
aVBIGTOP-1483
p1572
aVBIGTOP-1482
p1573
aVBIGTOP-1481
p1574
aVBIGTOP-1480
p1575
aVBIGTOP-1479
p1576
aVBIGTOP-1478
p1577
aVBIGTOP-1477
p1578
aVBIGTOP-1476
p1579
aVBIGTOP-1475
p1580
aVBIGTOP-1474
p1581
aVBIGTOP-1473
p1582
aVBIGTOP-1472
p1583
aVBIGTOP-1471
p1584
aVBIGTOP-1470
p1585
aVBIGTOP-1469
p1586
aVBIGTOP-1468
p1587
aVBIGTOP-1467
p1588
aVBIGTOP-1466
p1589
aVBIGTOP-1465
p1590
aVBIGTOP-1464
p1591
aVBIGTOP-1463
p1592
aVBIGTOP-1462
p1593
aVBIGTOP-1461
p1594
aVBIGTOP-1460
p1595
aVBIGTOP-1459
p1596
aVBIGTOP-1458
p1597
aVBIGTOP-1457
p1598
aVBIGTOP-1456
p1599
aVBIGTOP-1455
p1600
aVBIGTOP-1454
p1601
aVBIGTOP-1453
p1602
aVBIGTOP-1452
p1603
aVBIGTOP-1451
p1604
aVBIGTOP-1450
p1605
aVBIGTOP-1449
p1606
aVBIGTOP-1448
p1607
aVBIGTOP-1447
p1608
aVBIGTOP-1446
p1609
aVBIGTOP-1445
p1610
aVBIGTOP-1444
p1611
aVBIGTOP-1443
p1612
aVBIGTOP-1442
p1613
aVBIGTOP-1441
p1614
aVBIGTOP-1440
p1615
aVBIGTOP-1439
p1616
aVBIGTOP-1438
p1617
aVBIGTOP-1437
p1618
aVBIGTOP-1436
p1619
aVBIGTOP-1435
p1620
aVBIGTOP-1434
p1621
aVBIGTOP-1433
p1622
aVBIGTOP-1432
p1623
aVBIGTOP-1431
p1624
aVBIGTOP-1430
p1625
aVBIGTOP-1429
p1626
aVBIGTOP-1428
p1627
aVBIGTOP-1427
p1628
aVBIGTOP-1426
p1629
aVBIGTOP-1425
p1630
aVBIGTOP-1424
p1631
aVBIGTOP-1423
p1632
aVBIGTOP-1422
p1633
aVBIGTOP-1421
p1634
aVBIGTOP-1420
p1635
aVBIGTOP-1419
p1636
aVBIGTOP-1418
p1637
aVBIGTOP-1417
p1638
aVBIGTOP-1416
p1639
aVBIGTOP-1415
p1640
aVBIGTOP-1414
p1641
aVBIGTOP-1413
p1642
aVBIGTOP-1412
p1643
aVBIGTOP-1411
p1644
aVBIGTOP-1410
p1645
aVBIGTOP-1409
p1646
aVBIGTOP-1408
p1647
aVBIGTOP-1407
p1648
aVBIGTOP-1406
p1649
aVBIGTOP-1405
p1650
aVBIGTOP-1404
p1651
aVBIGTOP-1403
p1652
aVBIGTOP-1402
p1653
aVBIGTOP-1401
p1654
aVBIGTOP-1400
p1655
aVBIGTOP-1399
p1656
aVBIGTOP-1398
p1657
aVBIGTOP-1397
p1658
aVBIGTOP-1396
p1659
aVBIGTOP-1395
p1660
aVBIGTOP-1394
p1661
aVBIGTOP-1393
p1662
aVBIGTOP-1392
p1663
aVBIGTOP-1391
p1664
aVBIGTOP-1390
p1665
aVBIGTOP-1389
p1666
aVBIGTOP-1388
p1667
aVBIGTOP-1387
p1668
aVBIGTOP-1386
p1669
aVBIGTOP-1385
p1670
aVBIGTOP-1384
p1671
aVBIGTOP-1383
p1672
aVBIGTOP-1382
p1673
aVBIGTOP-1381
p1674
aVBIGTOP-1380
p1675
aVBIGTOP-1379
p1676
aVBIGTOP-1378
p1677
aVBIGTOP-1377
p1678
aVBIGTOP-1376
p1679
aVBIGTOP-1375
p1680
aVBIGTOP-1374
p1681
aVBIGTOP-1373
p1682
aVBIGTOP-1372
p1683
aVBIGTOP-1371
p1684
aVBIGTOP-1370
p1685
aVBIGTOP-1369
p1686
aVBIGTOP-1368
p1687
aVBIGTOP-1367
p1688
aVBIGTOP-1366
p1689
aVBIGTOP-1365
p1690
aVBIGTOP-1364
p1691
aVBIGTOP-1363
p1692
aVBIGTOP-1362
p1693
aVBIGTOP-1361
p1694
aVBIGTOP-1360
p1695
aVBIGTOP-1359
p1696
aVBIGTOP-1358
p1697
aVBIGTOP-1357
p1698
aVBIGTOP-1356
p1699
aVBIGTOP-1355
p1700
aVBIGTOP-1354
p1701
aVBIGTOP-1353
p1702
aVBIGTOP-1352
p1703
aVBIGTOP-1351
p1704
aVBIGTOP-1350
p1705
aVBIGTOP-1349
p1706
aVBIGTOP-1348
p1707
aVBIGTOP-1347
p1708
aVBIGTOP-1346
p1709
aVBIGTOP-1345
p1710
aVBIGTOP-1344
p1711
aVBIGTOP-1343
p1712
aVBIGTOP-1342
p1713
aVBIGTOP-1341
p1714
aVBIGTOP-1340
p1715
aVBIGTOP-1339
p1716
aVBIGTOP-1338
p1717
aVBIGTOP-1337
p1718
aVBIGTOP-1336
p1719
aVBIGTOP-1335
p1720
aVBIGTOP-1334
p1721
aVBIGTOP-1333
p1722
aVBIGTOP-1332
p1723
aVBIGTOP-1331
p1724
aVBIGTOP-1330
p1725
aVBIGTOP-1329
p1726
aVBIGTOP-1328
p1727
aVBIGTOP-1327
p1728
aVBIGTOP-1326
p1729
aVBIGTOP-1325
p1730
aVBIGTOP-1324
p1731
aVBIGTOP-1323
p1732
aVBIGTOP-1322
p1733
aVBIGTOP-1321
p1734
aVBIGTOP-1320
p1735
aVBIGTOP-1319
p1736
aVBIGTOP-1318
p1737
aVBIGTOP-1317
p1738
aVBIGTOP-1316
p1739
aVBIGTOP-1315
p1740
aVBIGTOP-1314
p1741
aVBIGTOP-1313
p1742
aVBIGTOP-1312
p1743
aVBIGTOP-1311
p1744
aVBIGTOP-1310
p1745
aVBIGTOP-1309
p1746
aVBIGTOP-1308
p1747
aVBIGTOP-1307
p1748
aVBIGTOP-1306
p1749
aVBIGTOP-1305
p1750
aVBIGTOP-1304
p1751
aVBIGTOP-1303
p1752
aVBIGTOP-1302
p1753
aVBIGTOP-1301
p1754
aVBIGTOP-1300
p1755
aVBIGTOP-1299
p1756
aVBIGTOP-1298
p1757
aVBIGTOP-1297
p1758
aVBIGTOP-1296
p1759
aVBIGTOP-1295
p1760
aVBIGTOP-1294
p1761
aVBIGTOP-1293
p1762
aVBIGTOP-1292
p1763
aVBIGTOP-1291
p1764
aVBIGTOP-1290
p1765
aVBIGTOP-1289
p1766
aVBIGTOP-1288
p1767
aVBIGTOP-1287
p1768
aVBIGTOP-1286
p1769
aVBIGTOP-1285
p1770
aVBIGTOP-1284
p1771
aVBIGTOP-1283
p1772
aVBIGTOP-1282
p1773
aVBIGTOP-1281
p1774
aVBIGTOP-1280
p1775
aVBIGTOP-1279
p1776
aVBIGTOP-1278
p1777
aVBIGTOP-1277
p1778
aVBIGTOP-1276
p1779
aVBIGTOP-1275
p1780
aVBIGTOP-1274
p1781
aVBIGTOP-1273
p1782
aVBIGTOP-1272
p1783
aVBIGTOP-1271
p1784
aVBIGTOP-1270
p1785
aVBIGTOP-1269
p1786
aVBIGTOP-1268
p1787
aVBIGTOP-1267
p1788
aVBIGTOP-1266
p1789
aVBIGTOP-1265
p1790
aVBIGTOP-1264
p1791
aVBIGTOP-1263
p1792
aVBIGTOP-1262
p1793
aVBIGTOP-1261
p1794
aVBIGTOP-1260
p1795
aVBIGTOP-1259
p1796
aVBIGTOP-1258
p1797
aVBIGTOP-1257
p1798
aVBIGTOP-1256
p1799
aVBIGTOP-1255
p1800
aVBIGTOP-1254
p1801
aVBIGTOP-1253
p1802
aVBIGTOP-1252
p1803
aVBIGTOP-1251
p1804
aVBIGTOP-1250
p1805
aVBIGTOP-1249
p1806
aVBIGTOP-1248
p1807
aVBIGTOP-1247
p1808
aVBIGTOP-1246
p1809
aVBIGTOP-1245
p1810
aVBIGTOP-1244
p1811
aVBIGTOP-1243
p1812
aVBIGTOP-1242
p1813
aVBIGTOP-1241
p1814
aVBIGTOP-1240
p1815
aVBIGTOP-1239
p1816
aVBIGTOP-1238
p1817
aVBIGTOP-1237
p1818
aVBIGTOP-1236
p1819
aVBIGTOP-1235
p1820
aVBIGTOP-1234
p1821
aVBIGTOP-1233
p1822
aVBIGTOP-1232
p1823
aVBIGTOP-1231
p1824
aVBIGTOP-1230
p1825
aVBIGTOP-1229
p1826
aVBIGTOP-1228
p1827
aVBIGTOP-1227
p1828
aVBIGTOP-1226
p1829
aVBIGTOP-1225
p1830
aVBIGTOP-1224
p1831
aVBIGTOP-1223
p1832
aVBIGTOP-1222
p1833
aVBIGTOP-1221
p1834
aVBIGTOP-1220
p1835
aVBIGTOP-1219
p1836
aVBIGTOP-1218
p1837
aVBIGTOP-1217
p1838
aVBIGTOP-1216
p1839
aVBIGTOP-1215
p1840
aVBIGTOP-1214
p1841
aVBIGTOP-1213
p1842
aVBIGTOP-1212
p1843
aVBIGTOP-1211
p1844
aVBIGTOP-1210
p1845
aVBIGTOP-1209
p1846
aVBIGTOP-1208
p1847
aVBIGTOP-1207
p1848
aVBIGTOP-1206
p1849
aVBIGTOP-1205
p1850
aVBIGTOP-1204
p1851
aVBIGTOP-1203
p1852
aVBIGTOP-1202
p1853
aVBIGTOP-1201
p1854
aVBIGTOP-1200
p1855
aVBIGTOP-1199
p1856
aVBIGTOP-1198
p1857
aVBIGTOP-1197
p1858
aVBIGTOP-1196
p1859
aVBIGTOP-1195
p1860
aVBIGTOP-1194
p1861
aVBIGTOP-1193
p1862
aVBIGTOP-1192
p1863
aVBIGTOP-1191
p1864
aVBIGTOP-1190
p1865
aVBIGTOP-1189
p1866
aVBIGTOP-1188
p1867
aVBIGTOP-1187
p1868
aVBIGTOP-1186
p1869
aVBIGTOP-1185
p1870
aVBIGTOP-1184
p1871
aVBIGTOP-1183
p1872
aVBIGTOP-1182
p1873
aVBIGTOP-1181
p1874
aVBIGTOP-1180
p1875
aVBIGTOP-1179
p1876
aVBIGTOP-1178
p1877
aVBIGTOP-1177
p1878
aVBIGTOP-1176
p1879
aVBIGTOP-1175
p1880
aVBIGTOP-1174
p1881
aVBIGTOP-1173
p1882
aVBIGTOP-1172
p1883
aVBIGTOP-1171
p1884
aVBIGTOP-1170
p1885
aVBIGTOP-1169
p1886
aVBIGTOP-1168
p1887
aVBIGTOP-1167
p1888
aVBIGTOP-1166
p1889
aVBIGTOP-1165
p1890
aVBIGTOP-1164
p1891
aVBIGTOP-1163
p1892
aVBIGTOP-1162
p1893
aVBIGTOP-1161
p1894
aVBIGTOP-1160
p1895
aVBIGTOP-1159
p1896
aVBIGTOP-1158
p1897
aVBIGTOP-1157
p1898
aVBIGTOP-1156
p1899
aVBIGTOP-1155
p1900
aVBIGTOP-1154
p1901
aVBIGTOP-1153
p1902
aVBIGTOP-1152
p1903
aVBIGTOP-1151
p1904
aVBIGTOP-1150
p1905
aVBIGTOP-1149
p1906
aVBIGTOP-1148
p1907
aVBIGTOP-1147
p1908
aVBIGTOP-1146
p1909
aVBIGTOP-1145
p1910
aVBIGTOP-1144
p1911
aVBIGTOP-1143
p1912
aVBIGTOP-1142
p1913
aVBIGTOP-1141
p1914
aVBIGTOP-1140
p1915
aVBIGTOP-1139
p1916
aVBIGTOP-1138
p1917
aVBIGTOP-1137
p1918
aVBIGTOP-1136
p1919
aVBIGTOP-1135
p1920
aVBIGTOP-1134
p1921
aVBIGTOP-1133
p1922
aVBIGTOP-1132
p1923
aVBIGTOP-1131
p1924
aVBIGTOP-1130
p1925
aVBIGTOP-1129
p1926
aVBIGTOP-1128
p1927
aVBIGTOP-1127
p1928
aVBIGTOP-1126
p1929
aVBIGTOP-1125
p1930
aVBIGTOP-1124
p1931
aVBIGTOP-1123
p1932
aVBIGTOP-1122
p1933
aVBIGTOP-1121
p1934
aVBIGTOP-1120
p1935
aVBIGTOP-1119
p1936
aVBIGTOP-1118
p1937
aVBIGTOP-1117
p1938
aVBIGTOP-1116
p1939
aVBIGTOP-1115
p1940
aVBIGTOP-1114
p1941
aVBIGTOP-1113
p1942
aVBIGTOP-1112
p1943
aVBIGTOP-1111
p1944
aVBIGTOP-1110
p1945
aVBIGTOP-1109
p1946
aVBIGTOP-1108
p1947
aVBIGTOP-1107
p1948
aVBIGTOP-1106
p1949
aVBIGTOP-1105
p1950
aVBIGTOP-1104
p1951
aVBIGTOP-1103
p1952
aVBIGTOP-1102
p1953
aVBIGTOP-1101
p1954
aVBIGTOP-1100
p1955
aVBIGTOP-1099
p1956
aVBIGTOP-1098
p1957
aVBIGTOP-1097
p1958
aVBIGTOP-1096
p1959
aVBIGTOP-1095
p1960
aVBIGTOP-1094
p1961
aVBIGTOP-1093
p1962
aVBIGTOP-1092
p1963
aVBIGTOP-1091
p1964
aVBIGTOP-1090
p1965
aVBIGTOP-1089
p1966
aVBIGTOP-1088
p1967
aVBIGTOP-1087
p1968
aVBIGTOP-1086
p1969
aVBIGTOP-1085
p1970
aVBIGTOP-1084
p1971
aVBIGTOP-1083
p1972
aVBIGTOP-1082
p1973
aVBIGTOP-1081
p1974
aVBIGTOP-1080
p1975
aVBIGTOP-1079
p1976
aVBIGTOP-1078
p1977
aVBIGTOP-1077
p1978
aVBIGTOP-1076
p1979
aVBIGTOP-1075
p1980
aVBIGTOP-1074
p1981
aVBIGTOP-1073
p1982
aVBIGTOP-1072
p1983
aVBIGTOP-1071
p1984
aVBIGTOP-1070
p1985
aVBIGTOP-1069
p1986
aVBIGTOP-1068
p1987
aVBIGTOP-1067
p1988
aVBIGTOP-1066
p1989
aVBIGTOP-1065
p1990
aVBIGTOP-1064
p1991
aVBIGTOP-1063
p1992
aVBIGTOP-1062
p1993
aVBIGTOP-1061
p1994
aVBIGTOP-1060
p1995
aVBIGTOP-1059
p1996
aVBIGTOP-1058
p1997
aVBIGTOP-1057
p1998
aVBIGTOP-1056
p1999
aVBIGTOP-1055
p2000
aVBIGTOP-1054
p2001
aVBIGTOP-1053
p2002
aVBIGTOP-1052
p2003
aVBIGTOP-1051
p2004
aVBIGTOP-1050
p2005
aVBIGTOP-1049
p2006
aVBIGTOP-1048
p2007
aVBIGTOP-1047
p2008
aVBIGTOP-1046
p2009
aVBIGTOP-1045
p2010
aVBIGTOP-1044
p2011
aVBIGTOP-1043
p2012
aVBIGTOP-1042
p2013
aVBIGTOP-1041
p2014
aVBIGTOP-1040
p2015
aVBIGTOP-1039
p2016
aVBIGTOP-1038
p2017
aVBIGTOP-1037
p2018
aVBIGTOP-1036
p2019
aVBIGTOP-1035
p2020
aVBIGTOP-1034
p2021
aVBIGTOP-1033
p2022
aVBIGTOP-1032
p2023
aVBIGTOP-1031
p2024
aVBIGTOP-1030
p2025
aVBIGTOP-1029
p2026
aVBIGTOP-1028
p2027
aVBIGTOP-1027
p2028
aVBIGTOP-1026
p2029
aVBIGTOP-1025
p2030
aVBIGTOP-1024
p2031
aVBIGTOP-1023
p2032
aVBIGTOP-1022
p2033
aVBIGTOP-1021
p2034
aVBIGTOP-1020
p2035
aVBIGTOP-1019
p2036
aVBIGTOP-1018
p2037
aVBIGTOP-1017
p2038
aVBIGTOP-1016
p2039
aVBIGTOP-1015
p2040
aVBIGTOP-1014
p2041
aVBIGTOP-1013
p2042
aVBIGTOP-1012
p2043
aVBIGTOP-1011
p2044
aVBIGTOP-1010
p2045
aVBIGTOP-1009
p2046
aVBIGTOP-1008
p2047
aVBIGTOP-1007
p2048
aVBIGTOP-1006
p2049
aVBIGTOP-1005
p2050
aVBIGTOP-1004
p2051
aVBIGTOP-1003
p2052
aVBIGTOP-1002
p2053
aVBIGTOP-1001
p2054
aVBIGTOP-1000
p2055
aVBIGTOP-999
p2056
aVBIGTOP-998
p2057
aVBIGTOP-997
p2058
aVBIGTOP-996
p2059
aVBIGTOP-995
p2060
aVBIGTOP-994
p2061
aVBIGTOP-993
p2062
aVBIGTOP-992
p2063
aVBIGTOP-991
p2064
aVBIGTOP-990
p2065
aVBIGTOP-989
p2066
aVBIGTOP-988
p2067
aVBIGTOP-987
p2068
aVBIGTOP-986
p2069
aVBIGTOP-985
p2070
aVBIGTOP-984
p2071
aVBIGTOP-983
p2072
aVBIGTOP-982
p2073
aVBIGTOP-981
p2074
aVBIGTOP-980
p2075
aVBIGTOP-979
p2076
aVBIGTOP-978
p2077
aVBIGTOP-977
p2078
aVBIGTOP-976
p2079
aVBIGTOP-975
p2080
aVBIGTOP-974
p2081
aVBIGTOP-973
p2082
aVBIGTOP-972
p2083
aVBIGTOP-971
p2084
aVBIGTOP-970
p2085
aVBIGTOP-969
p2086
aVBIGTOP-968
p2087
aVBIGTOP-967
p2088
aVBIGTOP-966
p2089
aVBIGTOP-965
p2090
aVBIGTOP-964
p2091
aVBIGTOP-963
p2092
aVBIGTOP-962
p2093
aVBIGTOP-961
p2094
aVBIGTOP-960
p2095
aVBIGTOP-959
p2096
aVBIGTOP-958
p2097
aVBIGTOP-957
p2098
aVBIGTOP-956
p2099
aVBIGTOP-955
p2100
aVBIGTOP-954
p2101
aVBIGTOP-953
p2102
aVBIGTOP-952
p2103
aVBIGTOP-951
p2104
aVBIGTOP-950
p2105
aVBIGTOP-949
p2106
aVBIGTOP-948
p2107
aVBIGTOP-947
p2108
aVBIGTOP-946
p2109
aVBIGTOP-945
p2110
aVBIGTOP-944
p2111
aVBIGTOP-943
p2112
aVBIGTOP-942
p2113
aVBIGTOP-941
p2114
aVBIGTOP-940
p2115
aVBIGTOP-939
p2116
aVBIGTOP-938
p2117
aVBIGTOP-937
p2118
aVBIGTOP-936
p2119
aVBIGTOP-935
p2120
aVBIGTOP-934
p2121
aVBIGTOP-933
p2122
aVBIGTOP-932
p2123
aVBIGTOP-931
p2124
aVBIGTOP-930
p2125
aVBIGTOP-929
p2126
aVBIGTOP-928
p2127
aVBIGTOP-927
p2128
aVBIGTOP-926
p2129
aVBIGTOP-925
p2130
aVBIGTOP-924
p2131
aVBIGTOP-923
p2132
aVBIGTOP-922
p2133
aVBIGTOP-921
p2134
aVBIGTOP-920
p2135
aVBIGTOP-919
p2136
aVBIGTOP-918
p2137
aVBIGTOP-917
p2138
aVBIGTOP-916
p2139
aVBIGTOP-915
p2140
aVBIGTOP-914
p2141
aVBIGTOP-913
p2142
aVBIGTOP-912
p2143
aVBIGTOP-911
p2144
aVBIGTOP-910
p2145
aVBIGTOP-909
p2146
aVBIGTOP-908
p2147
aVBIGTOP-907
p2148
aVBIGTOP-906
p2149
aVBIGTOP-905
p2150
aVBIGTOP-904
p2151
aVBIGTOP-903
p2152
aVBIGTOP-902
p2153
aVBIGTOP-901
p2154
aVBIGTOP-900
p2155
aVBIGTOP-899
p2156
aVBIGTOP-898
p2157
aVBIGTOP-897
p2158
aVBIGTOP-896
p2159
aVBIGTOP-895
p2160
aVBIGTOP-894
p2161
aVBIGTOP-893
p2162
aVBIGTOP-892
p2163
aVBIGTOP-891
p2164
aVBIGTOP-890
p2165
aVBIGTOP-889
p2166
aVBIGTOP-888
p2167
aVBIGTOP-887
p2168
aVBIGTOP-886
p2169
aVBIGTOP-885
p2170
aVBIGTOP-884
p2171
aVBIGTOP-883
p2172
aVBIGTOP-882
p2173
aVBIGTOP-881
p2174
aVBIGTOP-880
p2175
aVBIGTOP-879
p2176
aVBIGTOP-878
p2177
aVBIGTOP-877
p2178
aVBIGTOP-876
p2179
aVBIGTOP-875
p2180
aVBIGTOP-874
p2181
aVBIGTOP-873
p2182
aVBIGTOP-872
p2183
aVBIGTOP-871
p2184
aVBIGTOP-870
p2185
aVBIGTOP-869
p2186
aVBIGTOP-868
p2187
aVBIGTOP-867
p2188
aVBIGTOP-866
p2189
aVBIGTOP-865
p2190
aVBIGTOP-864
p2191
aVBIGTOP-863
p2192
aVBIGTOP-862
p2193
aVBIGTOP-861
p2194
aVBIGTOP-860
p2195
aVBIGTOP-859
p2196
aVBIGTOP-858
p2197
aVBIGTOP-857
p2198
aVBIGTOP-856
p2199
aVBIGTOP-855
p2200
aVBIGTOP-854
p2201
aVBIGTOP-853
p2202
aVBIGTOP-852
p2203
aVBIGTOP-851
p2204
aVBIGTOP-850
p2205
aVBIGTOP-849
p2206
aVBIGTOP-848
p2207
aVBIGTOP-847
p2208
aVBIGTOP-846
p2209
aVBIGTOP-845
p2210
aVBIGTOP-844
p2211
aVBIGTOP-843
p2212
aVBIGTOP-842
p2213
aVBIGTOP-841
p2214
aVBIGTOP-840
p2215
aVBIGTOP-839
p2216
aVBIGTOP-838
p2217
aVBIGTOP-837
p2218
aVBIGTOP-836
p2219
aVBIGTOP-835
p2220
aVBIGTOP-834
p2221
aVBIGTOP-833
p2222
aVBIGTOP-832
p2223
aVBIGTOP-831
p2224
aVBIGTOP-830
p2225
aVBIGTOP-829
p2226
aVBIGTOP-828
p2227
aVBIGTOP-827
p2228
aVBIGTOP-826
p2229
aVBIGTOP-825
p2230
aVBIGTOP-824
p2231
aVBIGTOP-823
p2232
aVBIGTOP-822
p2233
aVBIGTOP-821
p2234
aVBIGTOP-820
p2235
aVBIGTOP-819
p2236
aVBIGTOP-818
p2237
aVBIGTOP-817
p2238
aVBIGTOP-816
p2239
aVBIGTOP-815
p2240
aVBIGTOP-814
p2241
aVBIGTOP-813
p2242
aVBIGTOP-812
p2243
aVBIGTOP-811
p2244
aVBIGTOP-810
p2245
aVBIGTOP-809
p2246
aVBIGTOP-808
p2247
aVBIGTOP-807
p2248
aVBIGTOP-806
p2249
aVBIGTOP-805
p2250
aVBIGTOP-804
p2251
aVBIGTOP-803
p2252
aVBIGTOP-802
p2253
aVBIGTOP-801
p2254
aVBIGTOP-800
p2255
aVBIGTOP-799
p2256
aVBIGTOP-798
p2257
aVBIGTOP-797
p2258
aVBIGTOP-796
p2259
aVBIGTOP-795
p2260
aVBIGTOP-794
p2261
aVBIGTOP-793
p2262
aVBIGTOP-792
p2263
aVBIGTOP-791
p2264
aVBIGTOP-790
p2265
aVBIGTOP-789
p2266
aVBIGTOP-788
p2267
aVBIGTOP-787
p2268
aVBIGTOP-786
p2269
aVBIGTOP-785
p2270
aVBIGTOP-784
p2271
aVBIGTOP-783
p2272
aVBIGTOP-782
p2273
aVBIGTOP-781
p2274
aVBIGTOP-780
p2275
aVBIGTOP-779
p2276
aVBIGTOP-778
p2277
aVBIGTOP-777
p2278
aVBIGTOP-776
p2279
aVBIGTOP-775
p2280
aVBIGTOP-774
p2281
aVBIGTOP-773
p2282
aVBIGTOP-772
p2283
aVBIGTOP-771
p2284
aVBIGTOP-770
p2285
aVBIGTOP-769
p2286
aVBIGTOP-768
p2287
aVBIGTOP-767
p2288
aVBIGTOP-766
p2289
aVBIGTOP-765
p2290
aVBIGTOP-764
p2291
aVBIGTOP-763
p2292
aVBIGTOP-762
p2293
aVBIGTOP-761
p2294
aVBIGTOP-760
p2295
aVBIGTOP-759
p2296
aVBIGTOP-758
p2297
aVBIGTOP-757
p2298
aVBIGTOP-756
p2299
aVBIGTOP-755
p2300
aVBIGTOP-754
p2301
aVBIGTOP-753
p2302
aVBIGTOP-752
p2303
aVBIGTOP-751
p2304
aVBIGTOP-750
p2305
aVBIGTOP-749
p2306
aVBIGTOP-748
p2307
aVBIGTOP-747
p2308
aVBIGTOP-746
p2309
aVBIGTOP-745
p2310
aVBIGTOP-744
p2311
aVBIGTOP-743
p2312
aVBIGTOP-742
p2313
aVBIGTOP-741
p2314
aVBIGTOP-740
p2315
aVBIGTOP-739
p2316
aVBIGTOP-738
p2317
aVBIGTOP-737
p2318
aVBIGTOP-736
p2319
aVBIGTOP-735
p2320
aVBIGTOP-734
p2321
aVBIGTOP-733
p2322
aVBIGTOP-732
p2323
aVBIGTOP-731
p2324
aVBIGTOP-730
p2325
aVBIGTOP-729
p2326
aVBIGTOP-728
p2327
aVBIGTOP-727
p2328
aVBIGTOP-726
p2329
aVBIGTOP-725
p2330
aVBIGTOP-724
p2331
aVBIGTOP-723
p2332
aVBIGTOP-722
p2333
aVBIGTOP-721
p2334
aVBIGTOP-720
p2335
aVBIGTOP-719
p2336
aVBIGTOP-718
p2337
aVBIGTOP-717
p2338
aVBIGTOP-716
p2339
aVBIGTOP-715
p2340
aVBIGTOP-714
p2341
aVBIGTOP-713
p2342
aVBIGTOP-712
p2343
aVBIGTOP-711
p2344
aVBIGTOP-710
p2345
aVBIGTOP-709
p2346
aVBIGTOP-708
p2347
aVBIGTOP-707
p2348
aVBIGTOP-706
p2349
aVBIGTOP-705
p2350
aVBIGTOP-704
p2351
aVBIGTOP-703
p2352
aVBIGTOP-702
p2353
aVBIGTOP-701
p2354
aVBIGTOP-700
p2355
aVBIGTOP-699
p2356
aVBIGTOP-698
p2357
aVBIGTOP-697
p2358
aVBIGTOP-696
p2359
aVBIGTOP-695
p2360
aVBIGTOP-694
p2361
aVBIGTOP-693
p2362
aVBIGTOP-692
p2363
aVBIGTOP-691
p2364
aVBIGTOP-690
p2365
aVBIGTOP-689
p2366
aVBIGTOP-688
p2367
aVBIGTOP-687
p2368
aVBIGTOP-686
p2369
aVBIGTOP-685
p2370
aVBIGTOP-684
p2371
aVBIGTOP-683
p2372
aVBIGTOP-682
p2373
aVBIGTOP-681
p2374
aVBIGTOP-680
p2375
aVBIGTOP-679
p2376
aVBIGTOP-678
p2377
aVBIGTOP-677
p2378
aVBIGTOP-676
p2379
aVBIGTOP-675
p2380
aVBIGTOP-674
p2381
aVBIGTOP-673
p2382
aVBIGTOP-672
p2383
aVBIGTOP-671
p2384
aVBIGTOP-670
p2385
aVBIGTOP-669
p2386
aVBIGTOP-668
p2387
aVBIGTOP-667
p2388
aVBIGTOP-666
p2389
aVBIGTOP-665
p2390
aVBIGTOP-664
p2391
aVBIGTOP-663
p2392
aVBIGTOP-662
p2393
aVBIGTOP-661
p2394
aVBIGTOP-660
p2395
aVBIGTOP-659
p2396
aVBIGTOP-658
p2397
aVBIGTOP-657
p2398
aVBIGTOP-656
p2399
aVBIGTOP-655
p2400
aVBIGTOP-654
p2401
aVBIGTOP-653
p2402
aVBIGTOP-652
p2403
aVBIGTOP-651
p2404
aVBIGTOP-650
p2405
aVBIGTOP-649
p2406
aVBIGTOP-648
p2407
aVBIGTOP-647
p2408
aVBIGTOP-646
p2409
aVBIGTOP-645
p2410
aVBIGTOP-644
p2411
aVBIGTOP-643
p2412
aVBIGTOP-642
p2413
aVBIGTOP-641
p2414
aVBIGTOP-640
p2415
aVBIGTOP-639
p2416
aVBIGTOP-638
p2417
aVBIGTOP-637
p2418
aVBIGTOP-636
p2419
aVBIGTOP-635
p2420
aVBIGTOP-634
p2421
aVBIGTOP-633
p2422
aVBIGTOP-632
p2423
aVBIGTOP-631
p2424
aVBIGTOP-630
p2425
aVBIGTOP-629
p2426
aVBIGTOP-628
p2427
aVBIGTOP-627
p2428
aVBIGTOP-626
p2429
aVBIGTOP-625
p2430
aVBIGTOP-624
p2431
aVBIGTOP-623
p2432
aVBIGTOP-622
p2433
aVBIGTOP-621
p2434
aVBIGTOP-620
p2435
aVBIGTOP-619
p2436
aVBIGTOP-618
p2437
aVBIGTOP-617
p2438
aVBIGTOP-616
p2439
aVBIGTOP-615
p2440
aVBIGTOP-614
p2441
aVBIGTOP-613
p2442
aVBIGTOP-612
p2443
aVBIGTOP-611
p2444
aVBIGTOP-610
p2445
aVBIGTOP-609
p2446
aVBIGTOP-608
p2447
aVBIGTOP-607
p2448
aVBIGTOP-606
p2449
aVBIGTOP-605
p2450
aVBIGTOP-604
p2451
aVBIGTOP-603
p2452
aVBIGTOP-602
p2453
aVBIGTOP-601
p2454
aVBIGTOP-600
p2455
aVBIGTOP-599
p2456
aVBIGTOP-598
p2457
aVBIGTOP-597
p2458
aVBIGTOP-596
p2459
aVBIGTOP-595
p2460
aVBIGTOP-594
p2461
aVBIGTOP-593
p2462
aVBIGTOP-592
p2463
aVBIGTOP-591
p2464
aVBIGTOP-590
p2465
aVBIGTOP-589
p2466
aVBIGTOP-588
p2467
aVBIGTOP-587
p2468
aVBIGTOP-586
p2469
aVBIGTOP-585
p2470
aVBIGTOP-584
p2471
aVBIGTOP-583
p2472
aVBIGTOP-582
p2473
aVBIGTOP-581
p2474
aVBIGTOP-580
p2475
aVBIGTOP-579
p2476
aVBIGTOP-578
p2477
aVBIGTOP-577
p2478
aVBIGTOP-576
p2479
aVBIGTOP-575
p2480
aVBIGTOP-574
p2481
aVBIGTOP-573
p2482
aVBIGTOP-572
p2483
aVBIGTOP-571
p2484
aVBIGTOP-570
p2485
aVBIGTOP-569
p2486
aVBIGTOP-568
p2487
aVBIGTOP-567
p2488
aVBIGTOP-566
p2489
aVBIGTOP-565
p2490
aVBIGTOP-564
p2491
aVBIGTOP-563
p2492
aVBIGTOP-562
p2493
aVBIGTOP-561
p2494
aVBIGTOP-560
p2495
aVBIGTOP-559
p2496
aVBIGTOP-558
p2497
aVBIGTOP-557
p2498
aVBIGTOP-556
p2499
aVBIGTOP-555
p2500
aVBIGTOP-554
p2501
aVBIGTOP-553
p2502
aVBIGTOP-552
p2503
aVBIGTOP-551
p2504
aVBIGTOP-550
p2505
aVBIGTOP-549
p2506
aVBIGTOP-548
p2507
aVBIGTOP-547
p2508
aVBIGTOP-546
p2509
aVBIGTOP-545
p2510
aVBIGTOP-544
p2511
aVBIGTOP-543
p2512
aVBIGTOP-542
p2513
aVBIGTOP-541
p2514
aVBIGTOP-540
p2515
aVBIGTOP-539
p2516
aVBIGTOP-538
p2517
aVBIGTOP-537
p2518
aVBIGTOP-536
p2519
aVBIGTOP-535
p2520
aVBIGTOP-534
p2521
aVBIGTOP-533
p2522
aVBIGTOP-532
p2523
aVBIGTOP-531
p2524
aVBIGTOP-530
p2525
aVBIGTOP-529
p2526
aVBIGTOP-528
p2527
aVBIGTOP-527
p2528
aVBIGTOP-526
p2529
aVBIGTOP-525
p2530
aVBIGTOP-524
p2531
aVBIGTOP-523
p2532
aVBIGTOP-522
p2533
aVBIGTOP-521
p2534
aVBIGTOP-520
p2535
aVBIGTOP-519
p2536
aVBIGTOP-518
p2537
aVBIGTOP-517
p2538
aVBIGTOP-516
p2539
aVBIGTOP-515
p2540
aVBIGTOP-514
p2541
aVBIGTOP-513
p2542
aVBIGTOP-512
p2543
aVBIGTOP-511
p2544
aVBIGTOP-510
p2545
aVBIGTOP-509
p2546
aVBIGTOP-508
p2547
aVBIGTOP-507
p2548
aVBIGTOP-506
p2549
aVBIGTOP-505
p2550
aVBIGTOP-504
p2551
aVBIGTOP-503
p2552
aVBIGTOP-502
p2553
aVBIGTOP-501
p2554
aVBIGTOP-500
p2555
aVBIGTOP-499
p2556
aVBIGTOP-498
p2557
aVBIGTOP-497
p2558
aVBIGTOP-496
p2559
aVBIGTOP-495
p2560
aVBIGTOP-494
p2561
aVBIGTOP-493
p2562
aVBIGTOP-492
p2563
aVBIGTOP-491
p2564
aVBIGTOP-490
p2565
aVBIGTOP-489
p2566
aVBIGTOP-488
p2567
aVBIGTOP-487
p2568
aVBIGTOP-486
p2569
aVBIGTOP-485
p2570
aVBIGTOP-484
p2571
aVBIGTOP-483
p2572
aVBIGTOP-482
p2573
aVBIGTOP-481
p2574
aVBIGTOP-480
p2575
aVBIGTOP-479
p2576
aVBIGTOP-478
p2577
aVBIGTOP-477
p2578
aVBIGTOP-476
p2579
aVBIGTOP-475
p2580
aVBIGTOP-474
p2581
aVBIGTOP-473
p2582
aVBIGTOP-472
p2583
aVBIGTOP-471
p2584
aVBIGTOP-470
p2585
aVBIGTOP-469
p2586
aVBIGTOP-468
p2587
aVBIGTOP-467
p2588
aVBIGTOP-466
p2589
aVBIGTOP-465
p2590
aVBIGTOP-464
p2591
aVBIGTOP-463
p2592
aVBIGTOP-462
p2593
aVBIGTOP-461
p2594
aVBIGTOP-460
p2595
aVBIGTOP-459
p2596
aVBIGTOP-458
p2597
aVBIGTOP-457
p2598
aVBIGTOP-456
p2599
aVBIGTOP-455
p2600
aVBIGTOP-454
p2601
aVBIGTOP-453
p2602
aVBIGTOP-452
p2603
aVBIGTOP-451
p2604
aVBIGTOP-450
p2605
aVBIGTOP-449
p2606
aVBIGTOP-448
p2607
aVBIGTOP-447
p2608
aVBIGTOP-446
p2609
aVBIGTOP-445
p2610
aVBIGTOP-444
p2611
aVBIGTOP-443
p2612
aVBIGTOP-442
p2613
aVBIGTOP-441
p2614
aVBIGTOP-440
p2615
aVBIGTOP-439
p2616
aVBIGTOP-438
p2617
aVBIGTOP-437
p2618
aVBIGTOP-436
p2619
aVBIGTOP-435
p2620
aVBIGTOP-434
p2621
aVBIGTOP-433
p2622
aVBIGTOP-432
p2623
aVBIGTOP-431
p2624
aVBIGTOP-430
p2625
aVBIGTOP-429
p2626
aVBIGTOP-428
p2627
aVBIGTOP-427
p2628
aVBIGTOP-426
p2629
aVBIGTOP-425
p2630
aVBIGTOP-424
p2631
aVBIGTOP-423
p2632
aVBIGTOP-422
p2633
aVBIGTOP-421
p2634
aVBIGTOP-420
p2635
aVBIGTOP-419
p2636
aVBIGTOP-418
p2637
aVBIGTOP-417
p2638
aVBIGTOP-416
p2639
aVBIGTOP-415
p2640
aVBIGTOP-414
p2641
aVBIGTOP-413
p2642
aVBIGTOP-412
p2643
aVBIGTOP-411
p2644
aVBIGTOP-410
p2645
aVBIGTOP-409
p2646
aVBIGTOP-408
p2647
aVBIGTOP-407
p2648
aVBIGTOP-406
p2649
aVBIGTOP-405
p2650
aVBIGTOP-404
p2651
aVBIGTOP-403
p2652
aVBIGTOP-402
p2653
aVBIGTOP-401
p2654
aVBIGTOP-400
p2655
aVBIGTOP-399
p2656
aVBIGTOP-398
p2657
aVBIGTOP-397
p2658
aVBIGTOP-396
p2659
aVBIGTOP-395
p2660
aVBIGTOP-394
p2661
aVBIGTOP-393
p2662
aVBIGTOP-392
p2663
aVBIGTOP-391
p2664
aVBIGTOP-390
p2665
aVBIGTOP-389
p2666
aVBIGTOP-388
p2667
aVBIGTOP-387
p2668
aVBIGTOP-386
p2669
aVBIGTOP-385
p2670
aVBIGTOP-384
p2671
aVBIGTOP-383
p2672
aVBIGTOP-382
p2673
aVBIGTOP-381
p2674
aVBIGTOP-380
p2675
aVBIGTOP-379
p2676
aVBIGTOP-378
p2677
aVBIGTOP-377
p2678
aVBIGTOP-376
p2679
aVBIGTOP-375
p2680
aVBIGTOP-374
p2681
aVBIGTOP-373
p2682
aVBIGTOP-372
p2683
aVBIGTOP-371
p2684
aVBIGTOP-370
p2685
aVBIGTOP-369
p2686
aVBIGTOP-368
p2687
aVBIGTOP-367
p2688
aVBIGTOP-366
p2689
aVBIGTOP-365
p2690
aVBIGTOP-364
p2691
aVBIGTOP-363
p2692
aVBIGTOP-362
p2693
aVBIGTOP-361
p2694
aVBIGTOP-360
p2695
aVBIGTOP-359
p2696
aVBIGTOP-358
p2697
aVBIGTOP-357
p2698
aVBIGTOP-356
p2699
aVBIGTOP-355
p2700
aVBIGTOP-354
p2701
aVBIGTOP-353
p2702
aVBIGTOP-352
p2703
aVBIGTOP-351
p2704
aVBIGTOP-350
p2705
aVBIGTOP-349
p2706
aVBIGTOP-348
p2707
aVBIGTOP-347
p2708
aVBIGTOP-346
p2709
aVBIGTOP-345
p2710
aVBIGTOP-344
p2711
aVBIGTOP-343
p2712
aVBIGTOP-342
p2713
aVBIGTOP-341
p2714
aVBIGTOP-340
p2715
aVBIGTOP-339
p2716
aVBIGTOP-338
p2717
aVBIGTOP-337
p2718
aVBIGTOP-336
p2719
aVBIGTOP-335
p2720
aVBIGTOP-334
p2721
aVBIGTOP-333
p2722
aVBIGTOP-332
p2723
aVBIGTOP-331
p2724
aVBIGTOP-330
p2725
aVBIGTOP-329
p2726
aVBIGTOP-328
p2727
aVBIGTOP-327
p2728
aVBIGTOP-326
p2729
aVBIGTOP-325
p2730
aVBIGTOP-324
p2731
aVBIGTOP-323
p2732
aVBIGTOP-322
p2733
aVBIGTOP-321
p2734
aVBIGTOP-320
p2735
aVBIGTOP-319
p2736
aVBIGTOP-318
p2737
aVBIGTOP-317
p2738
aVBIGTOP-316
p2739
aVBIGTOP-315
p2740
aVBIGTOP-314
p2741
aVBIGTOP-313
p2742
aVBIGTOP-312
p2743
aVBIGTOP-311
p2744
aVBIGTOP-310
p2745
aVBIGTOP-309
p2746
aVBIGTOP-308
p2747
aVBIGTOP-307
p2748
aVBIGTOP-306
p2749
aVBIGTOP-305
p2750
aVBIGTOP-304
p2751
aVBIGTOP-303
p2752
aVBIGTOP-302
p2753
aVBIGTOP-301
p2754
aVBIGTOP-300
p2755
aVBIGTOP-299
p2756
aVBIGTOP-298
p2757
aVBIGTOP-297
p2758
aVBIGTOP-296
p2759
aVBIGTOP-295
p2760
aVBIGTOP-294
p2761
aVBIGTOP-293
p2762
aVBIGTOP-292
p2763
aVBIGTOP-291
p2764
aVBIGTOP-290
p2765
aVBIGTOP-289
p2766
aVBIGTOP-288
p2767
aVBIGTOP-287
p2768
aVBIGTOP-286
p2769
aVBIGTOP-285
p2770
aVBIGTOP-284
p2771
aVBIGTOP-283
p2772
aVBIGTOP-282
p2773
aVBIGTOP-281
p2774
aVBIGTOP-280
p2775
aVBIGTOP-279
p2776
aVBIGTOP-278
p2777
aVBIGTOP-277
p2778
aVBIGTOP-276
p2779
aVBIGTOP-275
p2780
aVBIGTOP-274
p2781
aVBIGTOP-273
p2782
aVBIGTOP-272
p2783
aVBIGTOP-271
p2784
aVBIGTOP-270
p2785
aVBIGTOP-269
p2786
aVBIGTOP-268
p2787
aVBIGTOP-267
p2788
aVBIGTOP-266
p2789
aVBIGTOP-265
p2790
aVBIGTOP-264
p2791
aVBIGTOP-263
p2792
aVBIGTOP-262
p2793
aVBIGTOP-261
p2794
aVBIGTOP-260
p2795
aVBIGTOP-259
p2796
aVBIGTOP-258
p2797
aVBIGTOP-257
p2798
aVBIGTOP-256
p2799
aVBIGTOP-255
p2800
aVBIGTOP-254
p2801
aVBIGTOP-253
p2802
aVBIGTOP-252
p2803
aVBIGTOP-251
p2804
aVBIGTOP-250
p2805
aVBIGTOP-249
p2806
aVBIGTOP-248
p2807
aVBIGTOP-247
p2808
aVBIGTOP-246
p2809
aVBIGTOP-245
p2810
aVBIGTOP-244
p2811
aVBIGTOP-243
p2812
aVBIGTOP-242
p2813
aVBIGTOP-241
p2814
aVBIGTOP-240
p2815
aVBIGTOP-239
p2816
aVBIGTOP-238
p2817
aVBIGTOP-237
p2818
aVBIGTOP-236
p2819
aVBIGTOP-235
p2820
aVBIGTOP-234
p2821
aVBIGTOP-233
p2822
aVBIGTOP-232
p2823
aVBIGTOP-231
p2824
aVBIGTOP-230
p2825
aVBIGTOP-229
p2826
aVBIGTOP-228
p2827
aVBIGTOP-227
p2828
aVBIGTOP-226
p2829
aVBIGTOP-225
p2830
aVBIGTOP-224
p2831
aVBIGTOP-223
p2832
aVBIGTOP-222
p2833
aVBIGTOP-221
p2834
aVBIGTOP-220
p2835
aVBIGTOP-219
p2836
aVBIGTOP-218
p2837
aVBIGTOP-217
p2838
aVBIGTOP-216
p2839
aVBIGTOP-215
p2840
aVBIGTOP-214
p2841
aVBIGTOP-213
p2842
aVBIGTOP-212
p2843
aVBIGTOP-211
p2844
aVBIGTOP-210
p2845
aVBIGTOP-209
p2846
aVBIGTOP-208
p2847
aVBIGTOP-207
p2848
aVBIGTOP-206
p2849
aVBIGTOP-205
p2850
aVBIGTOP-204
p2851
aVBIGTOP-203
p2852
aVBIGTOP-202
p2853
aVBIGTOP-201
p2854
aVBIGTOP-200
p2855
aVBIGTOP-199
p2856
aVBIGTOP-198
p2857
aVBIGTOP-197
p2858
aVBIGTOP-196
p2859
aVBIGTOP-195
p2860
aVBIGTOP-194
p2861
aVBIGTOP-193
p2862
aVBIGTOP-192
p2863
aVBIGTOP-191
p2864
aVBIGTOP-190
p2865
aVBIGTOP-189
p2866
aVBIGTOP-188
p2867
aVBIGTOP-187
p2868
aVBIGTOP-186
p2869
aVBIGTOP-185
p2870
aVBIGTOP-184
p2871
aVBIGTOP-183
p2872
aVBIGTOP-182
p2873
aVBIGTOP-181
p2874
aVBIGTOP-180
p2875
aVBIGTOP-179
p2876
aVBIGTOP-178
p2877
aVBIGTOP-177
p2878
aVBIGTOP-176
p2879
aVBIGTOP-175
p2880
aVBIGTOP-174
p2881
aVBIGTOP-173
p2882
aVBIGTOP-172
p2883
aVBIGTOP-171
p2884
aVBIGTOP-170
p2885
aVBIGTOP-169
p2886
aVBIGTOP-168
p2887
aVBIGTOP-167
p2888
aVBIGTOP-166
p2889
aVBIGTOP-165
p2890
aVBIGTOP-164
p2891
aVBIGTOP-163
p2892
aVBIGTOP-162
p2893
aVBIGTOP-161
p2894
aVBIGTOP-160
p2895
aVBIGTOP-159
p2896
aVBIGTOP-158
p2897
aVBIGTOP-157
p2898
aVBIGTOP-156
p2899
aVBIGTOP-155
p2900
aVBIGTOP-154
p2901
aVBIGTOP-153
p2902
aVBIGTOP-152
p2903
aVBIGTOP-151
p2904
aVBIGTOP-150
p2905
aVBIGTOP-149
p2906
aVBIGTOP-148
p2907
aVBIGTOP-147
p2908
aVBIGTOP-146
p2909
aVBIGTOP-145
p2910
aVBIGTOP-144
p2911
aVBIGTOP-143
p2912
aVBIGTOP-142
p2913
aVBIGTOP-141
p2914
aVBIGTOP-140
p2915
aVBIGTOP-139
p2916
aVBIGTOP-138
p2917
aVBIGTOP-137
p2918
aVBIGTOP-136
p2919
aVBIGTOP-135
p2920
aVBIGTOP-134
p2921
aVBIGTOP-133
p2922
aVBIGTOP-132
p2923
aVBIGTOP-131
p2924
aVBIGTOP-130
p2925
aVBIGTOP-129
p2926
aVBIGTOP-128
p2927
aVBIGTOP-127
p2928
aVBIGTOP-126
p2929
aVBIGTOP-125
p2930
aVBIGTOP-124
p2931
aVBIGTOP-123
p2932
aVBIGTOP-122
p2933
aVBIGTOP-121
p2934
aVBIGTOP-120
p2935
aVBIGTOP-119
p2936
aVBIGTOP-118
p2937
aVBIGTOP-117
p2938
aVBIGTOP-116
p2939
aVBIGTOP-115
p2940
aVBIGTOP-114
p2941
aVBIGTOP-113
p2942
aVBIGTOP-112
p2943
aVBIGTOP-111
p2944
aVBIGTOP-110
p2945
aVBIGTOP-109
p2946
aVBIGTOP-108
p2947
aVBIGTOP-107
p2948
aVBIGTOP-106
p2949
aVBIGTOP-105
p2950
aVBIGTOP-104
p2951
aVBIGTOP-103
p2952
aVBIGTOP-102
p2953
aVBIGTOP-101
p2954
aVBIGTOP-100
p2955
aVBIGTOP-99
p2956
aVBIGTOP-98
p2957
aVBIGTOP-97
p2958
aVBIGTOP-96
p2959
aVBIGTOP-95
p2960
aVBIGTOP-94
p2961
aVBIGTOP-93
p2962
aVBIGTOP-92
p2963
aVBIGTOP-91
p2964
aVBIGTOP-90
p2965
aVBIGTOP-89
p2966
aVBIGTOP-88
p2967
aVBIGTOP-87
p2968
aVBIGTOP-86
p2969
aVBIGTOP-85
p2970
aVBIGTOP-84
p2971
aVBIGTOP-83
p2972
aVBIGTOP-82
p2973
aVBIGTOP-81
p2974
aVBIGTOP-80
p2975
aVBIGTOP-79
p2976
aVBIGTOP-78
p2977
aVBIGTOP-77
p2978
aVBIGTOP-76
p2979
aVBIGTOP-75
p2980
aVBIGTOP-74
p2981
aVBIGTOP-73
p2982
aVBIGTOP-72
p2983
aVBIGTOP-71
p2984
aVBIGTOP-70
p2985
aVBIGTOP-69
p2986
aVBIGTOP-68
p2987
aVBIGTOP-67
p2988
aVBIGTOP-66
p2989
aVBIGTOP-65
p2990
aVBIGTOP-64
p2991
aVBIGTOP-63
p2992
aVBIGTOP-62
p2993
aVBIGTOP-61
p2994
aVBIGTOP-60
p2995
aVBIGTOP-59
p2996
aVBIGTOP-58
p2997
aVBIGTOP-57
p2998
aVBIGTOP-56
p2999
aVBIGTOP-55
p3000
aVBIGTOP-54
p3001
aVBIGTOP-53
p3002
aVBIGTOP-52
p3003
aVBIGTOP-51
p3004
aVBIGTOP-50
p3005
aVBIGTOP-49
p3006
aVBIGTOP-48
p3007
aVBIGTOP-47
p3008
aVBIGTOP-46
p3009
aVBIGTOP-45
p3010
aVBIGTOP-44
p3011
aVBIGTOP-43
p3012
aVBIGTOP-42
p3013
aVBIGTOP-41
p3014
aVBIGTOP-40
p3015
aVBIGTOP-39
p3016
aVBIGTOP-38
p3017
aVBIGTOP-37
p3018
aVBIGTOP-36
p3019
aVBIGTOP-35
p3020
aVBIGTOP-34
p3021
aVBIGTOP-33
p3022
aVBIGTOP-32
p3023
aVBIGTOP-31
p3024
aVBIGTOP-30
p3025
aVBIGTOP-29
p3026
aVBIGTOP-28
p3027
aVBIGTOP-27
p3028
aVBIGTOP-26
p3029
aVBIGTOP-25
p3030
aVBIGTOP-24
p3031
aVBIGTOP-23
p3032
aVBIGTOP-22
p3033
aVBIGTOP-21
p3034
aVBIGTOP-20
p3035
aVBIGTOP-19
p3036
aVBIGTOP-18
p3037
aVBIGTOP-17
p3038
aVBIGTOP-16
p3039
aVBIGTOP-15
p3040
aVBIGTOP-14
p3041
aVBIGTOP-13
p3042
aVBIGTOP-12
p3043
aVBIGTOP-11
p3044
aVBIGTOP-10
p3045
aVBIGTOP-9
p3046
aVBIGTOP-8
p3047
aVBIGTOP-7
p3048
aVBIGTOP-6
p3049
aVBIGTOP-5
p3050
aVBIGTOP-4
p3051
aVBIGTOP-3
p3052
aVBIGTOP-2
p3053
aVBIGTOP-1
p3054
a.