(lp0
VBOOKKEEPER-1107
p1
aVBOOKKEEPER-1106
p2
aVBOOKKEEPER-1105
p3
aVBOOKKEEPER-1104
p4
aVBOOKKEEPER-1103
p5
aVBOOKKEEPER-1102
p6
aVBOOKKEEPER-1101
p7
aVBOOKKEEPER-1100
p8
aVBOOKKEEPER-1099
p9
aVBOOKKEEPER-1098
p10
aVBOOKKEEPER-1097
p11
aVBOOKKEEPER-1096
p12
aVBOOKKEEPER-1095
p13
aVBOOKKEEPER-1094
p14
aVBOOKKEEPER-1093
p15
aVBOOKKEEPER-1092
p16
aVBOOKKEEPER-1091
p17
aVBOOKKEEPER-1090
p18
aVBOOKKEEPER-1089
p19
aVBOOKKEEPER-1088
p20
aVBOOKKEEPER-1087
p21
aVBOOKKEEPER-1086
p22
aVBOOKKEEPER-1085
p23
aVBOOKKEEPER-1084
p24
aVBOOKKEEPER-1083
p25
aVBOOKKEEPER-1082
p26
aVBOOKKEEPER-1081
p27
aVBOOKKEEPER-1080
p28
aVBOOKKEEPER-1079
p29
aVBOOKKEEPER-1078
p30
aVBOOKKEEPER-1077
p31
aVBOOKKEEPER-1076
p32
aVBOOKKEEPER-1075
p33
aVBOOKKEEPER-1074
p34
aVBOOKKEEPER-1073
p35
aVBOOKKEEPER-1072
p36
aVBOOKKEEPER-1071
p37
aVBOOKKEEPER-1070
p38
aVBOOKKEEPER-1069
p39
aVBOOKKEEPER-1068
p40
aVBOOKKEEPER-1067
p41
aVBOOKKEEPER-1066
p42
aVBOOKKEEPER-1065
p43
aVBOOKKEEPER-1064
p44
aVBOOKKEEPER-1063
p45
aVBOOKKEEPER-1062
p46
aVBOOKKEEPER-1061
p47
aVBOOKKEEPER-1060
p48
aVBOOKKEEPER-1059
p49
aVBOOKKEEPER-1058
p50
aVBOOKKEEPER-1057
p51
aVBOOKKEEPER-1056
p52
aVBOOKKEEPER-1055
p53
aVBOOKKEEPER-1054
p54
aVBOOKKEEPER-1053
p55
aVBOOKKEEPER-1052
p56
aVBOOKKEEPER-1051
p57
aVBOOKKEEPER-1050
p58
aVBOOKKEEPER-1049
p59
aVBOOKKEEPER-1048
p60
aVBOOKKEEPER-1047
p61
aVBOOKKEEPER-1046
p62
aVBOOKKEEPER-1045
p63
aVBOOKKEEPER-1044
p64
aVBOOKKEEPER-1043
p65
aVBOOKKEEPER-1042
p66
aVBOOKKEEPER-1041
p67
aVBOOKKEEPER-1040
p68
aVBOOKKEEPER-1039
p69
aVBOOKKEEPER-1038
p70
aVBOOKKEEPER-1037
p71
aVBOOKKEEPER-1036
p72
aVBOOKKEEPER-1035
p73
aVBOOKKEEPER-1034
p74
aVBOOKKEEPER-1033
p75
aVBOOKKEEPER-1032
p76
aVBOOKKEEPER-1031
p77
aVBOOKKEEPER-1030
p78
aVBOOKKEEPER-1029
p79
aVBOOKKEEPER-1028
p80
aVBOOKKEEPER-1027
p81
aVBOOKKEEPER-1026
p82
aVBOOKKEEPER-1025
p83
aVBOOKKEEPER-1024
p84
aVBOOKKEEPER-1023
p85
aVBOOKKEEPER-1022
p86
aVBOOKKEEPER-1021
p87
aVBOOKKEEPER-1020
p88
aVBOOKKEEPER-1019
p89
aVBOOKKEEPER-1018
p90
aVBOOKKEEPER-1017
p91
aVBOOKKEEPER-1016
p92
aVBOOKKEEPER-1015
p93
aVBOOKKEEPER-1014
p94
aVBOOKKEEPER-1013
p95
aVBOOKKEEPER-1012
p96
aVBOOKKEEPER-1011
p97
aVBOOKKEEPER-1010
p98
aVBOOKKEEPER-1009
p99
aVBOOKKEEPER-1008
p100
aVBOOKKEEPER-1007
p101
aVBOOKKEEPER-1006
p102
aVBOOKKEEPER-1005
p103
aVBOOKKEEPER-1004
p104
aVBOOKKEEPER-1003
p105
aVBOOKKEEPER-1002
p106
aVBOOKKEEPER-1001
p107
aVBOOKKEEPER-1000
p108
aVBOOKKEEPER-999
p109
aVBOOKKEEPER-998
p110
aVBOOKKEEPER-997
p111
aVBOOKKEEPER-996
p112
aVBOOKKEEPER-995
p113
aVBOOKKEEPER-992
p114
aVBOOKKEEPER-991
p115
aVBOOKKEEPER-990
p116
aVBOOKKEEPER-989
p117
aVBOOKKEEPER-988
p118
aVBOOKKEEPER-987
p119
aVBOOKKEEPER-986
p120
aVBOOKKEEPER-985
p121
aVBOOKKEEPER-984
p122
aVBOOKKEEPER-983
p123
aVBOOKKEEPER-982
p124
aVBOOKKEEPER-981
p125
aVBOOKKEEPER-980
p126
aVBOOKKEEPER-979
p127
aVBOOKKEEPER-978
p128
aVBOOKKEEPER-977
p129
aVBOOKKEEPER-976
p130
aVBOOKKEEPER-975
p131
aVBOOKKEEPER-974
p132
aVBOOKKEEPER-973
p133
aVBOOKKEEPER-972
p134
aVBOOKKEEPER-971
p135
aVBOOKKEEPER-970
p136
aVBOOKKEEPER-969
p137
aVBOOKKEEPER-968
p138
aVBOOKKEEPER-967
p139
aVBOOKKEEPER-966
p140
aVBOOKKEEPER-965
p141
aVBOOKKEEPER-964
p142
aVBOOKKEEPER-963
p143
aVBOOKKEEPER-962
p144
aVBOOKKEEPER-961
p145
aVBOOKKEEPER-960
p146
aVBOOKKEEPER-959
p147
aVBOOKKEEPER-958
p148
aVBOOKKEEPER-957
p149
aVBOOKKEEPER-956
p150
aVBOOKKEEPER-955
p151
aVBOOKKEEPER-954
p152
aVBOOKKEEPER-953
p153
aVBOOKKEEPER-952
p154
aVBOOKKEEPER-951
p155
aVBOOKKEEPER-950
p156
aVBOOKKEEPER-949
p157
aVBOOKKEEPER-948
p158
aVBOOKKEEPER-947
p159
aVBOOKKEEPER-946
p160
aVBOOKKEEPER-945
p161
aVBOOKKEEPER-944
p162
aVBOOKKEEPER-943
p163
aVBOOKKEEPER-942
p164
aVBOOKKEEPER-941
p165
aVBOOKKEEPER-940
p166
aVBOOKKEEPER-939
p167
aVBOOKKEEPER-938
p168
aVBOOKKEEPER-937
p169
aVBOOKKEEPER-936
p170
aVBOOKKEEPER-935
p171
aVBOOKKEEPER-934
p172
aVBOOKKEEPER-933
p173
aVBOOKKEEPER-932
p174
aVBOOKKEEPER-931
p175
aVBOOKKEEPER-930
p176
aVBOOKKEEPER-929
p177
aVBOOKKEEPER-928
p178
aVBOOKKEEPER-927
p179
aVBOOKKEEPER-926
p180
aVBOOKKEEPER-925
p181
aVBOOKKEEPER-924
p182
aVBOOKKEEPER-923
p183
aVBOOKKEEPER-922
p184
aVBOOKKEEPER-921
p185
aVBOOKKEEPER-920
p186
aVBOOKKEEPER-919
p187
aVBOOKKEEPER-918
p188
aVBOOKKEEPER-917
p189
aVBOOKKEEPER-916
p190
aVBOOKKEEPER-915
p191
aVBOOKKEEPER-914
p192
aVBOOKKEEPER-913
p193
aVBOOKKEEPER-912
p194
aVBOOKKEEPER-911
p195
aVBOOKKEEPER-910
p196
aVBOOKKEEPER-909
p197
aVBOOKKEEPER-908
p198
aVBOOKKEEPER-907
p199
aVBOOKKEEPER-906
p200
aVBOOKKEEPER-905
p201
aVBOOKKEEPER-904
p202
aVBOOKKEEPER-903
p203
aVBOOKKEEPER-902
p204
aVBOOKKEEPER-901
p205
aVBOOKKEEPER-900
p206
aVBOOKKEEPER-899
p207
aVBOOKKEEPER-898
p208
aVBOOKKEEPER-897
p209
aVBOOKKEEPER-896
p210
aVBOOKKEEPER-895
p211
aVBOOKKEEPER-894
p212
aVBOOKKEEPER-893
p213
aVBOOKKEEPER-892
p214
aVBOOKKEEPER-891
p215
aVBOOKKEEPER-890
p216
aVBOOKKEEPER-889
p217
aVBOOKKEEPER-888
p218
aVBOOKKEEPER-887
p219
aVBOOKKEEPER-886
p220
aVBOOKKEEPER-885
p221
aVBOOKKEEPER-884
p222
aVBOOKKEEPER-883
p223
aVBOOKKEEPER-882
p224
aVBOOKKEEPER-881
p225
aVBOOKKEEPER-880
p226
aVBOOKKEEPER-879
p227
aVBOOKKEEPER-878
p228
aVBOOKKEEPER-877
p229
aVBOOKKEEPER-876
p230
aVBOOKKEEPER-875
p231
aVBOOKKEEPER-874
p232
aVBOOKKEEPER-873
p233
aVBOOKKEEPER-872
p234
aVBOOKKEEPER-871
p235
aVBOOKKEEPER-870
p236
aVBOOKKEEPER-869
p237
aVBOOKKEEPER-868
p238
aVBOOKKEEPER-867
p239
aVBOOKKEEPER-866
p240
aVBOOKKEEPER-865
p241
aVBOOKKEEPER-864
p242
aVBOOKKEEPER-863
p243
aVBOOKKEEPER-862
p244
aVBOOKKEEPER-861
p245
aVBOOKKEEPER-860
p246
aVBOOKKEEPER-859
p247
aVBOOKKEEPER-858
p248
aVBOOKKEEPER-857
p249
aVBOOKKEEPER-856
p250
aVBOOKKEEPER-855
p251
aVBOOKKEEPER-854
p252
aVBOOKKEEPER-853
p253
aVBOOKKEEPER-852
p254
aVBOOKKEEPER-851
p255
aVBOOKKEEPER-850
p256
aVBOOKKEEPER-849
p257
aVBOOKKEEPER-848
p258
aVBOOKKEEPER-847
p259
aVBOOKKEEPER-846
p260
aVBOOKKEEPER-845
p261
aVBOOKKEEPER-844
p262
aVBOOKKEEPER-843
p263
aVBOOKKEEPER-842
p264
aVBOOKKEEPER-841
p265
aVBOOKKEEPER-840
p266
aVBOOKKEEPER-839
p267
aVBOOKKEEPER-838
p268
aVBOOKKEEPER-837
p269
aVBOOKKEEPER-836
p270
aVBOOKKEEPER-835
p271
aVBOOKKEEPER-834
p272
aVBOOKKEEPER-833
p273
aVBOOKKEEPER-832
p274
aVBOOKKEEPER-831
p275
aVBOOKKEEPER-830
p276
aVBOOKKEEPER-829
p277
aVBOOKKEEPER-828
p278
aVBOOKKEEPER-827
p279
aVBOOKKEEPER-826
p280
aVBOOKKEEPER-825
p281
aVBOOKKEEPER-824
p282
aVBOOKKEEPER-823
p283
aVBOOKKEEPER-822
p284
aVBOOKKEEPER-821
p285
aVBOOKKEEPER-820
p286
aVBOOKKEEPER-819
p287
aVBOOKKEEPER-818
p288
aVBOOKKEEPER-817
p289
aVBOOKKEEPER-816
p290
aVBOOKKEEPER-815
p291
aVBOOKKEEPER-814
p292
aVBOOKKEEPER-813
p293
aVBOOKKEEPER-812
p294
aVBOOKKEEPER-811
p295
aVBOOKKEEPER-810
p296
aVBOOKKEEPER-809
p297
aVBOOKKEEPER-808
p298
aVBOOKKEEPER-807
p299
aVBOOKKEEPER-806
p300
aVBOOKKEEPER-805
p301
aVBOOKKEEPER-804
p302
aVBOOKKEEPER-803
p303
aVBOOKKEEPER-802
p304
aVBOOKKEEPER-801
p305
aVBOOKKEEPER-800
p306
aVBOOKKEEPER-799
p307
aVBOOKKEEPER-798
p308
aVBOOKKEEPER-797
p309
aVBOOKKEEPER-796
p310
aVBOOKKEEPER-795
p311
aVBOOKKEEPER-794
p312
aVBOOKKEEPER-793
p313
aVBOOKKEEPER-792
p314
aVBOOKKEEPER-791
p315
aVBOOKKEEPER-790
p316
aVBOOKKEEPER-789
p317
aVBOOKKEEPER-788
p318
aVBOOKKEEPER-787
p319
aVBOOKKEEPER-786
p320
aVBOOKKEEPER-785
p321
aVBOOKKEEPER-784
p322
aVBOOKKEEPER-783
p323
aVBOOKKEEPER-782
p324
aVBOOKKEEPER-781
p325
aVBOOKKEEPER-780
p326
aVBOOKKEEPER-779
p327
aVBOOKKEEPER-778
p328
aVBOOKKEEPER-777
p329
aVBOOKKEEPER-776
p330
aVBOOKKEEPER-775
p331
aVBOOKKEEPER-774
p332
aVBOOKKEEPER-773
p333
aVBOOKKEEPER-772
p334
aVBOOKKEEPER-771
p335
aVBOOKKEEPER-770
p336
aVBOOKKEEPER-769
p337
aVBOOKKEEPER-768
p338
aVBOOKKEEPER-767
p339
aVBOOKKEEPER-766
p340
aVBOOKKEEPER-765
p341
aVBOOKKEEPER-764
p342
aVBOOKKEEPER-763
p343
aVBOOKKEEPER-762
p344
aVBOOKKEEPER-761
p345
aVBOOKKEEPER-760
p346
aVBOOKKEEPER-759
p347
aVBOOKKEEPER-758
p348
aVBOOKKEEPER-757
p349
aVBOOKKEEPER-756
p350
aVBOOKKEEPER-755
p351
aVBOOKKEEPER-754
p352
aVBOOKKEEPER-753
p353
aVBOOKKEEPER-752
p354
aVBOOKKEEPER-751
p355
aVBOOKKEEPER-750
p356
aVBOOKKEEPER-749
p357
aVBOOKKEEPER-748
p358
aVBOOKKEEPER-747
p359
aVBOOKKEEPER-746
p360
aVBOOKKEEPER-745
p361
aVBOOKKEEPER-744
p362
aVBOOKKEEPER-743
p363
aVBOOKKEEPER-742
p364
aVBOOKKEEPER-741
p365
aVBOOKKEEPER-740
p366
aVBOOKKEEPER-739
p367
aVBOOKKEEPER-738
p368
aVBOOKKEEPER-737
p369
aVBOOKKEEPER-736
p370
aVBOOKKEEPER-735
p371
aVBOOKKEEPER-734
p372
aVBOOKKEEPER-733
p373
aVBOOKKEEPER-732
p374
aVBOOKKEEPER-731
p375
aVBOOKKEEPER-730
p376
aVBOOKKEEPER-729
p377
aVBOOKKEEPER-728
p378
aVBOOKKEEPER-727
p379
aVBOOKKEEPER-726
p380
aVBOOKKEEPER-725
p381
aVBOOKKEEPER-724
p382
aVBOOKKEEPER-723
p383
aVBOOKKEEPER-722
p384
aVBOOKKEEPER-721
p385
aVBOOKKEEPER-720
p386
aVBOOKKEEPER-719
p387
aVBOOKKEEPER-718
p388
aVBOOKKEEPER-717
p389
aVBOOKKEEPER-716
p390
aVBOOKKEEPER-715
p391
aVBOOKKEEPER-714
p392
aVBOOKKEEPER-713
p393
aVBOOKKEEPER-712
p394
aVBOOKKEEPER-711
p395
aVBOOKKEEPER-710
p396
aVBOOKKEEPER-709
p397
aVBOOKKEEPER-708
p398
aVBOOKKEEPER-707
p399
aVBOOKKEEPER-706
p400
aVBOOKKEEPER-705
p401
aVBOOKKEEPER-704
p402
aVBOOKKEEPER-703
p403
aVBOOKKEEPER-702
p404
aVBOOKKEEPER-701
p405
aVBOOKKEEPER-700
p406
aVBOOKKEEPER-699
p407
aVBOOKKEEPER-698
p408
aVBOOKKEEPER-697
p409
aVBOOKKEEPER-696
p410
aVBOOKKEEPER-695
p411
aVBOOKKEEPER-694
p412
aVBOOKKEEPER-693
p413
aVBOOKKEEPER-692
p414
aVBOOKKEEPER-691
p415
aVBOOKKEEPER-690
p416
aVBOOKKEEPER-689
p417
aVBOOKKEEPER-688
p418
aVBOOKKEEPER-687
p419
aVBOOKKEEPER-686
p420
aVBOOKKEEPER-685
p421
aVBOOKKEEPER-684
p422
aVBOOKKEEPER-683
p423
aVBOOKKEEPER-682
p424
aVBOOKKEEPER-681
p425
aVBOOKKEEPER-680
p426
aVBOOKKEEPER-679
p427
aVBOOKKEEPER-678
p428
aVBOOKKEEPER-677
p429
aVBOOKKEEPER-676
p430
aVBOOKKEEPER-675
p431
aVBOOKKEEPER-674
p432
aVBOOKKEEPER-673
p433
aVBOOKKEEPER-672
p434
aVBOOKKEEPER-671
p435
aVBOOKKEEPER-670
p436
aVBOOKKEEPER-669
p437
aVBOOKKEEPER-668
p438
aVBOOKKEEPER-667
p439
aVBOOKKEEPER-666
p440
aVBOOKKEEPER-665
p441
aVBOOKKEEPER-664
p442
aVBOOKKEEPER-663
p443
aVBOOKKEEPER-662
p444
aVBOOKKEEPER-661
p445
aVBOOKKEEPER-660
p446
aVBOOKKEEPER-659
p447
aVBOOKKEEPER-658
p448
aVBOOKKEEPER-657
p449
aVBOOKKEEPER-656
p450
aVBOOKKEEPER-655
p451
aVBOOKKEEPER-654
p452
aVBOOKKEEPER-653
p453
aVBOOKKEEPER-652
p454
aVBOOKKEEPER-651
p455
aVBOOKKEEPER-650
p456
aVBOOKKEEPER-649
p457
aVBOOKKEEPER-648
p458
aVBOOKKEEPER-647
p459
aVBOOKKEEPER-646
p460
aVBOOKKEEPER-645
p461
aVBOOKKEEPER-644
p462
aVBOOKKEEPER-643
p463
aVBOOKKEEPER-642
p464
aVBOOKKEEPER-641
p465
aVBOOKKEEPER-640
p466
aVBOOKKEEPER-639
p467
aVBOOKKEEPER-638
p468
aVBOOKKEEPER-637
p469
aVBOOKKEEPER-636
p470
aVBOOKKEEPER-635
p471
aVBOOKKEEPER-634
p472
aVBOOKKEEPER-633
p473
aVBOOKKEEPER-632
p474
aVBOOKKEEPER-631
p475
aVBOOKKEEPER-630
p476
aVBOOKKEEPER-629
p477
aVBOOKKEEPER-628
p478
aVBOOKKEEPER-627
p479
aVBOOKKEEPER-626
p480
aVBOOKKEEPER-625
p481
aVBOOKKEEPER-624
p482
aVBOOKKEEPER-623
p483
aVBOOKKEEPER-622
p484
aVBOOKKEEPER-621
p485
aVBOOKKEEPER-620
p486
aVBOOKKEEPER-619
p487
aVBOOKKEEPER-618
p488
aVBOOKKEEPER-617
p489
aVBOOKKEEPER-616
p490
aVBOOKKEEPER-615
p491
aVBOOKKEEPER-614
p492
aVBOOKKEEPER-613
p493
aVBOOKKEEPER-612
p494
aVBOOKKEEPER-611
p495
aVBOOKKEEPER-610
p496
aVBOOKKEEPER-609
p497
aVBOOKKEEPER-608
p498
aVBOOKKEEPER-607
p499
aVBOOKKEEPER-606
p500
aVBOOKKEEPER-605
p501
aVBOOKKEEPER-604
p502
aVBOOKKEEPER-603
p503
aVBOOKKEEPER-602
p504
aVBOOKKEEPER-601
p505
aVBOOKKEEPER-600
p506
aVBOOKKEEPER-599
p507
aVBOOKKEEPER-598
p508
aVBOOKKEEPER-597
p509
aVBOOKKEEPER-596
p510
aVBOOKKEEPER-595
p511
aVBOOKKEEPER-594
p512
aVBOOKKEEPER-593
p513
aVBOOKKEEPER-592
p514
aVBOOKKEEPER-591
p515
aVBOOKKEEPER-590
p516
aVBOOKKEEPER-589
p517
aVBOOKKEEPER-588
p518
aVBOOKKEEPER-587
p519
aVBOOKKEEPER-586
p520
aVBOOKKEEPER-585
p521
aVBOOKKEEPER-584
p522
aVBOOKKEEPER-583
p523
aVBOOKKEEPER-582
p524
aVBOOKKEEPER-581
p525
aVBOOKKEEPER-580
p526
aVBOOKKEEPER-579
p527
aVBOOKKEEPER-578
p528
aVBOOKKEEPER-577
p529
aVBOOKKEEPER-576
p530
aVBOOKKEEPER-575
p531
aVBOOKKEEPER-574
p532
aVBOOKKEEPER-573
p533
aVBOOKKEEPER-572
p534
aVBOOKKEEPER-571
p535
aVBOOKKEEPER-570
p536
aVBOOKKEEPER-569
p537
aVBOOKKEEPER-568
p538
aVBOOKKEEPER-567
p539
aVBOOKKEEPER-566
p540
aVBOOKKEEPER-565
p541
aVBOOKKEEPER-564
p542
aVBOOKKEEPER-563
p543
aVBOOKKEEPER-562
p544
aVBOOKKEEPER-561
p545
aVBOOKKEEPER-560
p546
aVBOOKKEEPER-559
p547
aVBOOKKEEPER-558
p548
aVBOOKKEEPER-557
p549
aVBOOKKEEPER-556
p550
aVBOOKKEEPER-555
p551
aVBOOKKEEPER-554
p552
aVBOOKKEEPER-553
p553
aVBOOKKEEPER-552
p554
aVBOOKKEEPER-551
p555
aVBOOKKEEPER-550
p556
aVBOOKKEEPER-549
p557
aVBOOKKEEPER-548
p558
aVBOOKKEEPER-546
p559
aVBOOKKEEPER-545
p560
aVBOOKKEEPER-544
p561
aVBOOKKEEPER-543
p562
aVBOOKKEEPER-542
p563
aVBOOKKEEPER-541
p564
aVBOOKKEEPER-540
p565
aVBOOKKEEPER-539
p566
aVBOOKKEEPER-538
p567
aVBOOKKEEPER-537
p568
aVBOOKKEEPER-536
p569
aVBOOKKEEPER-535
p570
aVBOOKKEEPER-534
p571
aVBOOKKEEPER-533
p572
aVBOOKKEEPER-532
p573
aVBOOKKEEPER-531
p574
aVBOOKKEEPER-530
p575
aVBOOKKEEPER-529
p576
aVBOOKKEEPER-528
p577
aVBOOKKEEPER-527
p578
aVBOOKKEEPER-526
p579
aVBOOKKEEPER-525
p580
aVBOOKKEEPER-524
p581
aVBOOKKEEPER-523
p582
aVBOOKKEEPER-522
p583
aVBOOKKEEPER-521
p584
aVBOOKKEEPER-520
p585
aVBOOKKEEPER-519
p586
aVBOOKKEEPER-518
p587
aVBOOKKEEPER-517
p588
aVBOOKKEEPER-516
p589
aVBOOKKEEPER-515
p590
aVBOOKKEEPER-514
p591
aVBOOKKEEPER-513
p592
aVBOOKKEEPER-512
p593
aVBOOKKEEPER-511
p594
aVBOOKKEEPER-510
p595
aVBOOKKEEPER-509
p596
aVBOOKKEEPER-508
p597
aVBOOKKEEPER-507
p598
aVBOOKKEEPER-506
p599
aVBOOKKEEPER-505
p600
aVBOOKKEEPER-504
p601
aVBOOKKEEPER-503
p602
aVBOOKKEEPER-502
p603
aVBOOKKEEPER-501
p604
aVBOOKKEEPER-500
p605
aVBOOKKEEPER-499
p606
aVBOOKKEEPER-498
p607
aVBOOKKEEPER-497
p608
aVBOOKKEEPER-496
p609
aVBOOKKEEPER-495
p610
aVBOOKKEEPER-494
p611
aVBOOKKEEPER-493
p612
aVBOOKKEEPER-492
p613
aVBOOKKEEPER-491
p614
aVBOOKKEEPER-490
p615
aVBOOKKEEPER-489
p616
aVBOOKKEEPER-488
p617
aVBOOKKEEPER-487
p618
aVBOOKKEEPER-486
p619
aVBOOKKEEPER-485
p620
aVBOOKKEEPER-484
p621
aVBOOKKEEPER-483
p622
aVBOOKKEEPER-482
p623
aVBOOKKEEPER-481
p624
aVBOOKKEEPER-480
p625
aVBOOKKEEPER-479
p626
aVBOOKKEEPER-477
p627
aVBOOKKEEPER-476
p628
aVBOOKKEEPER-475
p629
aVBOOKKEEPER-474
p630
aVBOOKKEEPER-473
p631
aVBOOKKEEPER-472
p632
aVBOOKKEEPER-471
p633
aVBOOKKEEPER-470
p634
aVBOOKKEEPER-469
p635
aVBOOKKEEPER-468
p636
aVBOOKKEEPER-467
p637
aVBOOKKEEPER-466
p638
aVBOOKKEEPER-465
p639
aVBOOKKEEPER-464
p640
aVBOOKKEEPER-463
p641
aVBOOKKEEPER-462
p642
aVBOOKKEEPER-461
p643
aVBOOKKEEPER-460
p644
aVBOOKKEEPER-459
p645
aVBOOKKEEPER-458
p646
aVBOOKKEEPER-457
p647
aVBOOKKEEPER-456
p648
aVBOOKKEEPER-455
p649
aVBOOKKEEPER-454
p650
aVBOOKKEEPER-453
p651
aVBOOKKEEPER-452
p652
aVBOOKKEEPER-451
p653
aVBOOKKEEPER-450
p654
aVBOOKKEEPER-449
p655
aVBOOKKEEPER-448
p656
aVBOOKKEEPER-447
p657
aVBOOKKEEPER-446
p658
aVBOOKKEEPER-445
p659
aVBOOKKEEPER-444
p660
aVBOOKKEEPER-443
p661
aVBOOKKEEPER-442
p662
aVBOOKKEEPER-441
p663
aVBOOKKEEPER-440
p664
aVBOOKKEEPER-439
p665
aVBOOKKEEPER-438
p666
aVBOOKKEEPER-437
p667
aVBOOKKEEPER-436
p668
aVBOOKKEEPER-435
p669
aVBOOKKEEPER-434
p670
aVBOOKKEEPER-433
p671
aVBOOKKEEPER-432
p672
aVBOOKKEEPER-431
p673
aVBOOKKEEPER-430
p674
aVBOOKKEEPER-429
p675
aVBOOKKEEPER-428
p676
aVBOOKKEEPER-427
p677
aVBOOKKEEPER-426
p678
aVBOOKKEEPER-425
p679
aVBOOKKEEPER-424
p680
aVBOOKKEEPER-423
p681
aVBOOKKEEPER-422
p682
aVBOOKKEEPER-421
p683
aVBOOKKEEPER-420
p684
aVBOOKKEEPER-419
p685
aVBOOKKEEPER-418
p686
aVBOOKKEEPER-417
p687
aVBOOKKEEPER-416
p688
aVBOOKKEEPER-415
p689
aVBOOKKEEPER-414
p690
aVBOOKKEEPER-413
p691
aVBOOKKEEPER-412
p692
aVBOOKKEEPER-411
p693
aVBOOKKEEPER-410
p694
aVBOOKKEEPER-409
p695
aVBOOKKEEPER-408
p696
aVBOOKKEEPER-407
p697
aVBOOKKEEPER-406
p698
aVBOOKKEEPER-405
p699
aVBOOKKEEPER-404
p700
aVBOOKKEEPER-403
p701
aVBOOKKEEPER-402
p702
aVBOOKKEEPER-401
p703
aVBOOKKEEPER-400
p704
aVBOOKKEEPER-399
p705
aVBOOKKEEPER-398
p706
aVBOOKKEEPER-397
p707
aVBOOKKEEPER-396
p708
aVBOOKKEEPER-395
p709
aVBOOKKEEPER-394
p710
aVBOOKKEEPER-393
p711
aVBOOKKEEPER-392
p712
aVBOOKKEEPER-391
p713
aVBOOKKEEPER-390
p714
aVBOOKKEEPER-389
p715
aVBOOKKEEPER-388
p716
aVBOOKKEEPER-387
p717
aVBOOKKEEPER-386
p718
aVBOOKKEEPER-385
p719
aVBOOKKEEPER-384
p720
aVBOOKKEEPER-383
p721
aVBOOKKEEPER-382
p722
aVBOOKKEEPER-381
p723
aVBOOKKEEPER-380
p724
aVBOOKKEEPER-379
p725
aVBOOKKEEPER-378
p726
aVBOOKKEEPER-377
p727
aVBOOKKEEPER-376
p728
aVBOOKKEEPER-375
p729
aVBOOKKEEPER-374
p730
aVBOOKKEEPER-373
p731
aVBOOKKEEPER-372
p732
aVBOOKKEEPER-371
p733
aVBOOKKEEPER-370
p734
aVBOOKKEEPER-369
p735
aVBOOKKEEPER-368
p736
aVBOOKKEEPER-367
p737
aVBOOKKEEPER-366
p738
aVBOOKKEEPER-365
p739
aVBOOKKEEPER-364
p740
aVBOOKKEEPER-363
p741
aVBOOKKEEPER-362
p742
aVBOOKKEEPER-361
p743
aVBOOKKEEPER-356
p744
aVBOOKKEEPER-355
p745
aVBOOKKEEPER-354
p746
aVBOOKKEEPER-353
p747
aVBOOKKEEPER-352
p748
aVBOOKKEEPER-351
p749
aVBOOKKEEPER-350
p750
aVBOOKKEEPER-349
p751
aVBOOKKEEPER-348
p752
aVBOOKKEEPER-347
p753
aVBOOKKEEPER-346
p754
aVBOOKKEEPER-345
p755
aVBOOKKEEPER-344
p756
aVBOOKKEEPER-343
p757
aVBOOKKEEPER-342
p758
aVBOOKKEEPER-341
p759
aVBOOKKEEPER-340
p760
aVBOOKKEEPER-339
p761
aVBOOKKEEPER-338
p762
aVBOOKKEEPER-337
p763
aVBOOKKEEPER-336
p764
aVBOOKKEEPER-335
p765
aVBOOKKEEPER-334
p766
aVBOOKKEEPER-333
p767
aVBOOKKEEPER-332
p768
aVBOOKKEEPER-331
p769
aVBOOKKEEPER-330
p770
aVBOOKKEEPER-329
p771
aVBOOKKEEPER-328
p772
aVBOOKKEEPER-327
p773
aVBOOKKEEPER-326
p774
aVBOOKKEEPER-325
p775
aVBOOKKEEPER-324
p776
aVBOOKKEEPER-323
p777
aVBOOKKEEPER-322
p778
aVBOOKKEEPER-321
p779
aVBOOKKEEPER-320
p780
aVBOOKKEEPER-319
p781
aVBOOKKEEPER-318
p782
aVBOOKKEEPER-317
p783
aVBOOKKEEPER-315
p784
aVBOOKKEEPER-314
p785
aVBOOKKEEPER-313
p786
aVBOOKKEEPER-312
p787
aVBOOKKEEPER-311
p788
aVBOOKKEEPER-310
p789
aVBOOKKEEPER-309
p790
aVBOOKKEEPER-308
p791
aVBOOKKEEPER-307
p792
aVBOOKKEEPER-306
p793
aVBOOKKEEPER-305
p794
aVBOOKKEEPER-304
p795
aVBOOKKEEPER-303
p796
aVBOOKKEEPER-302
p797
aVBOOKKEEPER-301
p798
aVBOOKKEEPER-300
p799
aVBOOKKEEPER-299
p800
aVBOOKKEEPER-298
p801
aVBOOKKEEPER-297
p802
aVBOOKKEEPER-296
p803
aVBOOKKEEPER-295
p804
aVBOOKKEEPER-294
p805
aVBOOKKEEPER-293
p806
aVBOOKKEEPER-292
p807
aVBOOKKEEPER-291
p808
aVBOOKKEEPER-290
p809
aVBOOKKEEPER-289
p810
aVBOOKKEEPER-288
p811
aVBOOKKEEPER-287
p812
aVBOOKKEEPER-286
p813
aVBOOKKEEPER-285
p814
aVBOOKKEEPER-284
p815
aVBOOKKEEPER-283
p816
aVBOOKKEEPER-282
p817
aVBOOKKEEPER-281
p818
aVBOOKKEEPER-280
p819
aVBOOKKEEPER-279
p820
aVBOOKKEEPER-278
p821
aVBOOKKEEPER-277
p822
aVBOOKKEEPER-276
p823
aVBOOKKEEPER-275
p824
aVBOOKKEEPER-274
p825
aVBOOKKEEPER-273
p826
aVBOOKKEEPER-272
p827
aVBOOKKEEPER-271
p828
aVBOOKKEEPER-270
p829
aVBOOKKEEPER-269
p830
aVBOOKKEEPER-268
p831
aVBOOKKEEPER-267
p832
aVBOOKKEEPER-266
p833
aVBOOKKEEPER-265
p834
aVBOOKKEEPER-264
p835
aVBOOKKEEPER-263
p836
aVBOOKKEEPER-262
p837
aVBOOKKEEPER-261
p838
aVBOOKKEEPER-260
p839
aVBOOKKEEPER-259
p840
aVBOOKKEEPER-258
p841
aVBOOKKEEPER-257
p842
aVBOOKKEEPER-256
p843
aVBOOKKEEPER-254
p844
aVBOOKKEEPER-252
p845
aVBOOKKEEPER-251
p846
aVBOOKKEEPER-250
p847
aVBOOKKEEPER-249
p848
aVBOOKKEEPER-248
p849
aVBOOKKEEPER-247
p850
aVBOOKKEEPER-246
p851
aVBOOKKEEPER-245
p852
aVBOOKKEEPER-243
p853
aVBOOKKEEPER-242
p854
aVBOOKKEEPER-241
p855
aVBOOKKEEPER-240
p856
aVBOOKKEEPER-239
p857
aVBOOKKEEPER-238
p858
aVBOOKKEEPER-237
p859
aVBOOKKEEPER-236
p860
aVBOOKKEEPER-235
p861
aVBOOKKEEPER-234
p862
aVBOOKKEEPER-233
p863
aVBOOKKEEPER-232
p864
aVBOOKKEEPER-231
p865
aVBOOKKEEPER-230
p866
aVBOOKKEEPER-229
p867
aVBOOKKEEPER-228
p868
aVBOOKKEEPER-227
p869
aVBOOKKEEPER-226
p870
aVBOOKKEEPER-225
p871
aVBOOKKEEPER-224
p872
aVBOOKKEEPER-223
p873
aVBOOKKEEPER-222
p874
aVBOOKKEEPER-221
p875
aVBOOKKEEPER-220
p876
aVBOOKKEEPER-219
p877
aVBOOKKEEPER-218
p878
aVBOOKKEEPER-217
p879
aVBOOKKEEPER-216
p880
aVBOOKKEEPER-215
p881
aVBOOKKEEPER-214
p882
aVBOOKKEEPER-213
p883
aVBOOKKEEPER-212
p884
aVBOOKKEEPER-211
p885
aVBOOKKEEPER-210
p886
aVBOOKKEEPER-209
p887
aVBOOKKEEPER-208
p888
aVBOOKKEEPER-207
p889
aVBOOKKEEPER-206
p890
aVBOOKKEEPER-205
p891
aVBOOKKEEPER-204
p892
aVBOOKKEEPER-203
p893
aVBOOKKEEPER-202
p894
aVBOOKKEEPER-201
p895
aVBOOKKEEPER-200
p896
aVBOOKKEEPER-199
p897
aVBOOKKEEPER-198
p898
aVBOOKKEEPER-197
p899
aVBOOKKEEPER-196
p900
aVBOOKKEEPER-195
p901
aVBOOKKEEPER-194
p902
aVBOOKKEEPER-193
p903
aVBOOKKEEPER-192
p904
aVBOOKKEEPER-191
p905
aVBOOKKEEPER-190
p906
aVBOOKKEEPER-189
p907
aVBOOKKEEPER-188
p908
aVBOOKKEEPER-187
p909
aVBOOKKEEPER-186
p910
aVBOOKKEEPER-185
p911
aVBOOKKEEPER-184
p912
aVBOOKKEEPER-183
p913
aVBOOKKEEPER-182
p914
aVBOOKKEEPER-181
p915
aVBOOKKEEPER-180
p916
aVBOOKKEEPER-179
p917
aVBOOKKEEPER-178
p918
aVBOOKKEEPER-177
p919
aVBOOKKEEPER-176
p920
aVBOOKKEEPER-175
p921
aVBOOKKEEPER-174
p922
aVBOOKKEEPER-173
p923
aVBOOKKEEPER-172
p924
aVBOOKKEEPER-171
p925
aVBOOKKEEPER-170
p926
aVBOOKKEEPER-169
p927
aVBOOKKEEPER-168
p928
aVBOOKKEEPER-167
p929
aVBOOKKEEPER-166
p930
aVBOOKKEEPER-165
p931
aVBOOKKEEPER-164
p932
aVBOOKKEEPER-163
p933
aVBOOKKEEPER-162
p934
aVBOOKKEEPER-161
p935
aVBOOKKEEPER-160
p936
aVBOOKKEEPER-159
p937
aVBOOKKEEPER-158
p938
aVBOOKKEEPER-157
p939
aVBOOKKEEPER-156
p940
aVBOOKKEEPER-155
p941
aVBOOKKEEPER-154
p942
aVBOOKKEEPER-153
p943
aVBOOKKEEPER-152
p944
aVBOOKKEEPER-151
p945
aVBOOKKEEPER-150
p946
aVBOOKKEEPER-149
p947
aVBOOKKEEPER-148
p948
aVBOOKKEEPER-147
p949
aVBOOKKEEPER-146
p950
aVBOOKKEEPER-145
p951
aVBOOKKEEPER-144
p952
aVBOOKKEEPER-143
p953
aVBOOKKEEPER-142
p954
aVBOOKKEEPER-141
p955
aVBOOKKEEPER-140
p956
aVBOOKKEEPER-139
p957
aVBOOKKEEPER-138
p958
aVBOOKKEEPER-137
p959
aVBOOKKEEPER-136
p960
aVBOOKKEEPER-135
p961
aVBOOKKEEPER-134
p962
aVBOOKKEEPER-133
p963
aVBOOKKEEPER-132
p964
aVBOOKKEEPER-131
p965
aVBOOKKEEPER-130
p966
aVBOOKKEEPER-129
p967
aVBOOKKEEPER-128
p968
aVBOOKKEEPER-127
p969
aVBOOKKEEPER-126
p970
aVBOOKKEEPER-125
p971
aVBOOKKEEPER-124
p972
aVBOOKKEEPER-123
p973
aVBOOKKEEPER-122
p974
aVBOOKKEEPER-121
p975
aVBOOKKEEPER-120
p976
aVBOOKKEEPER-119
p977
aVBOOKKEEPER-118
p978
aVBOOKKEEPER-117
p979
aVBOOKKEEPER-116
p980
aVBOOKKEEPER-115
p981
aVBOOKKEEPER-114
p982
aVBOOKKEEPER-113
p983
aVBOOKKEEPER-112
p984
aVBOOKKEEPER-111
p985
aVBOOKKEEPER-110
p986
aVBOOKKEEPER-109
p987
aVBOOKKEEPER-108
p988
aVBOOKKEEPER-107
p989
aVBOOKKEEPER-106
p990
aVBOOKKEEPER-105
p991
aVBOOKKEEPER-104
p992
aVBOOKKEEPER-103
p993
aVBOOKKEEPER-102
p994
aVBOOKKEEPER-101
p995
aVBOOKKEEPER-100
p996
aVBOOKKEEPER-99
p997
aVBOOKKEEPER-98
p998
aVBOOKKEEPER-97
p999
aVBOOKKEEPER-96
p1000
aVBOOKKEEPER-95
p1001
aVBOOKKEEPER-94
p1002
aVBOOKKEEPER-93
p1003
aVBOOKKEEPER-92
p1004
aVBOOKKEEPER-91
p1005
aVBOOKKEEPER-90
p1006
aVBOOKKEEPER-89
p1007
aVBOOKKEEPER-88
p1008
aVBOOKKEEPER-87
p1009
aVBOOKKEEPER-86
p1010
aVBOOKKEEPER-85
p1011
aVBOOKKEEPER-84
p1012
aVBOOKKEEPER-83
p1013
aVBOOKKEEPER-82
p1014
aVBOOKKEEPER-81
p1015
aVBOOKKEEPER-80
p1016
aVBOOKKEEPER-79
p1017
aVBOOKKEEPER-78
p1018
aVBOOKKEEPER-77
p1019
aVBOOKKEEPER-76
p1020
aVBOOKKEEPER-75
p1021
aVBOOKKEEPER-74
p1022
aVBOOKKEEPER-73
p1023
aVBOOKKEEPER-72
p1024
aVBOOKKEEPER-71
p1025
aVBOOKKEEPER-70
p1026
aVBOOKKEEPER-69
p1027
aVBOOKKEEPER-68
p1028
aVBOOKKEEPER-67
p1029
aVBOOKKEEPER-66
p1030
aVBOOKKEEPER-65
p1031
aVBOOKKEEPER-64
p1032
aVBOOKKEEPER-63
p1033
aVBOOKKEEPER-62
p1034
aVBOOKKEEPER-61
p1035
aVBOOKKEEPER-60
p1036
aVBOOKKEEPER-59
p1037
aVBOOKKEEPER-58
p1038
aVBOOKKEEPER-57
p1039
aVBOOKKEEPER-56
p1040
aVBOOKKEEPER-55
p1041
aVBOOKKEEPER-54
p1042
aVBOOKKEEPER-53
p1043
aVBOOKKEEPER-52
p1044
aVBOOKKEEPER-51
p1045
aVBOOKKEEPER-50
p1046
aVBOOKKEEPER-49
p1047
aVBOOKKEEPER-48
p1048
aVBOOKKEEPER-47
p1049
aVBOOKKEEPER-46
p1050
aVBOOKKEEPER-45
p1051
aVBOOKKEEPER-44
p1052
aVBOOKKEEPER-43
p1053
aVBOOKKEEPER-42
p1054
aVBOOKKEEPER-41
p1055
aVBOOKKEEPER-40
p1056
aVBOOKKEEPER-39
p1057
aVBOOKKEEPER-38
p1058
aVBOOKKEEPER-37
p1059
aVBOOKKEEPER-36
p1060
aVBOOKKEEPER-35
p1061
aVBOOKKEEPER-34
p1062
aVBOOKKEEPER-33
p1063
aVBOOKKEEPER-32
p1064
aVBOOKKEEPER-31
p1065
aVBOOKKEEPER-30
p1066
aVBOOKKEEPER-29
p1067
aVBOOKKEEPER-28
p1068
aVBOOKKEEPER-27
p1069
aVBOOKKEEPER-26
p1070
aVBOOKKEEPER-25
p1071
aVBOOKKEEPER-24
p1072
aVBOOKKEEPER-23
p1073
aVBOOKKEEPER-22
p1074
aVBOOKKEEPER-21
p1075
aVBOOKKEEPER-20
p1076
aVBOOKKEEPER-19
p1077
aVBOOKKEEPER-18
p1078
aVBOOKKEEPER-17
p1079
aVBOOKKEEPER-16
p1080
aVBOOKKEEPER-15
p1081
aVBOOKKEEPER-14
p1082
aVBOOKKEEPER-13
p1083
aVBOOKKEEPER-12
p1084
aVBOOKKEEPER-11
p1085
aVBOOKKEEPER-10
p1086
aVBOOKKEEPER-9
p1087
aVBOOKKEEPER-8
p1088
aVBOOKKEEPER-7
p1089
aVBOOKKEEPER-6
p1090
aVBOOKKEEPER-5
p1091
aVBOOKKEEPER-4
p1092
aVBOOKKEEPER-3
p1093
aVBOOKKEEPER-2
p1094
aVBOOKKEEPER-1
p1095
a.