(lp0
VBSF-44
p1
aVBSF-43
p2
aVBSF-42
p3
aVBSF-41
p4
aVBSF-40
p5
aVBSF-39
p6
aVBSF-38
p7
aVBSF-37
p8
aVBSF-36
p9
aVBSF-35
p10
aVBSF-33
p11
aVBSF-32
p12
aVBSF-31
p13
aVBSF-30
p14
aVBSF-29
p15
aVBSF-28
p16
aVBSF-27
p17
aVBSF-26
p18
aVBSF-25
p19
aVBSF-24
p20
aVBSF-23
p21
aVBSF-22
p22
aVBSF-21
p23
aVBSF-20
p24
aVBSF-19
p25
aVBSF-18
p26
aVBSF-17
p27
aVBSF-16
p28
aVBSF-15
p29
aVBSF-14
p30
aVBSF-13
p31
aVBSF-12
p32
aVBSF-11
p33
aVBSF-10
p34
aVBSF-9
p35
aVBSF-8
p36
aVBSF-7
p37
aVBSF-6
p38
aVBSF-5
p39
aVBSF-4
p40
aVBSF-3
p41
aVBSF-2
p42
aVBSF-1
p43
a.