(lp0
VBVAL-158
p1
aVBVAL-157
p2
aVBVAL-156
p3
aVBVAL-155
p4
aVBVAL-154
p5
aVBVAL-153
p6
aVBVAL-152
p7
aVBVAL-151
p8
aVBVAL-150
p9
aVBVAL-149
p10
aVBVAL-148
p11
aVBVAL-147
p12
aVBVAL-146
p13
aVBVAL-145
p14
aVBVAL-144
p15
aVBVAL-143
p16
aVBVAL-142
p17
aVBVAL-141
p18
aVBVAL-140
p19
aVBVAL-139
p20
aVBVAL-138
p21
aVBVAL-137
p22
aVBVAL-136
p23
aVBVAL-135
p24
aVBVAL-134
p25
aVBVAL-133
p26
aVBVAL-132
p27
aVBVAL-131
p28
aVBVAL-130
p29
aVBVAL-129
p30
aVBVAL-128
p31
aVBVAL-127
p32
aVBVAL-126
p33
aVBVAL-125
p34
aVBVAL-124
p35
aVBVAL-123
p36
aVBVAL-122
p37
aVBVAL-121
p38
aVBVAL-120
p39
aVBVAL-119
p40
aVBVAL-118
p41
aVBVAL-117
p42
aVBVAL-116
p43
aVBVAL-115
p44
aVBVAL-114
p45
aVBVAL-113
p46
aVBVAL-112
p47
aVBVAL-111
p48
aVBVAL-110
p49
aVBVAL-109
p50
aVBVAL-108
p51
aVBVAL-107
p52
aVBVAL-106
p53
aVBVAL-105
p54
aVBVAL-104
p55
aVBVAL-103
p56
aVBVAL-102
p57
aVBVAL-101
p58
aVBVAL-100
p59
aVBVAL-99
p60
aVBVAL-98
p61
aVBVAL-97
p62
aVBVAL-96
p63
aVBVAL-95
p64
aVBVAL-94
p65
aVBVAL-93
p66
aVBVAL-92
p67
aVBVAL-91
p68
aVBVAL-90
p69
aVBVAL-89
p70
aVBVAL-88
p71
aVBVAL-87
p72
aVBVAL-86
p73
aVBVAL-85
p74
aVBVAL-84
p75
aVBVAL-83
p76
aVBVAL-82
p77
aVBVAL-81
p78
aVBVAL-80
p79
aVBVAL-79
p80
aVBVAL-78
p81
aVBVAL-77
p82
aVBVAL-76
p83
aVBVAL-75
p84
aVBVAL-74
p85
aVBVAL-73
p86
aVBVAL-72
p87
aVBVAL-71
p88
aVBVAL-70
p89
aVBVAL-69
p90
aVBVAL-68
p91
aVBVAL-67
p92
aVBVAL-66
p93
aVBVAL-65
p94
aVBVAL-64
p95
aVBVAL-63
p96
aVBVAL-62
p97
aVBVAL-61
p98
aVBVAL-60
p99
aVBVAL-59
p100
aVBVAL-58
p101
aVBVAL-57
p102
aVBVAL-56
p103
aVBVAL-55
p104
aVBVAL-54
p105
aVBVAL-53
p106
aVBVAL-52
p107
aVBVAL-51
p108
aVBVAL-50
p109
aVBVAL-49
p110
aVBVAL-48
p111
aVBVAL-47
p112
aVBVAL-46
p113
aVBVAL-45
p114
aVBVAL-44
p115
aVBVAL-43
p116
aVBVAL-42
p117
aVBVAL-41
p118
aVBVAL-40
p119
aVBVAL-39
p120
aVBVAL-38
p121
aVBVAL-37
p122
aVBVAL-36
p123
aVBVAL-35
p124
aVBVAL-34
p125
aVBVAL-33
p126
aVBVAL-32
p127
aVBVAL-31
p128
aVBVAL-30
p129
aVBVAL-29
p130
aVBVAL-28
p131
aVBVAL-27
p132
aVBVAL-26
p133
aVBVAL-25
p134
aVBVAL-24
p135
aVBVAL-23
p136
aVBVAL-22
p137
aVBVAL-21
p138
aVBVAL-20
p139
aVBVAL-19
p140
aVBVAL-18
p141
aVBVAL-17
p142
aVBVAL-16
p143
aVBVAL-15
p144
aVBVAL-14
p145
aVBVAL-13
p146
aVBVAL-12
p147
aVBVAL-11
p148
aVBVAL-10
p149
aVBVAL-9
p150
aVBVAL-8
p151
aVBVAL-7
p152
aVBVAL-6
p153
aVBVAL-5
p154
aVBVAL-4
p155
aVBVAL-3
p156
aVBVAL-2
p157
aVBVAL-1
p158
a.