(lp0
VCALCITE-2447
p1
aVCALCITE-2446
p2
aVCALCITE-2445
p3
aVCALCITE-2444
p4
aVCALCITE-2443
p5
aVCALCITE-2442
p6
aVCALCITE-2441
p7
aVCALCITE-2440
p8
aVCALCITE-2439
p9
aVCALCITE-2438
p10
aVCALCITE-2437
p11
aVCALCITE-2436
p12
aVCALCITE-2435
p13
aVCALCITE-2434
p14
aVCALCITE-2433
p15
aVCALCITE-2432
p16
aVCALCITE-2431
p17
aVCALCITE-2430
p18
aVCALCITE-2429
p19
aVCALCITE-2428
p20
aVCALCITE-2427
p21
aVCALCITE-2426
p22
aVCALCITE-2425
p23
aVCALCITE-2424
p24
aVCALCITE-2423
p25
aVCALCITE-2422
p26
aVCALCITE-2421
p27
aVCALCITE-2420
p28
aVCALCITE-2419
p29
aVCALCITE-2418
p30
aVCALCITE-2417
p31
aVCALCITE-2416
p32
aVCALCITE-2415
p33
aVCALCITE-2414
p34
aVCALCITE-2413
p35
aVCALCITE-2412
p36
aVCALCITE-2411
p37
aVCALCITE-2410
p38
aVCALCITE-2409
p39
aVCALCITE-2408
p40
aVCALCITE-2407
p41
aVCALCITE-2406
p42
aVCALCITE-2405
p43
aVCALCITE-2404
p44
aVCALCITE-2403
p45
aVCALCITE-2402
p46
aVCALCITE-2401
p47
aVCALCITE-2400
p48
aVCALCITE-2399
p49
aVCALCITE-2398
p50
aVCALCITE-2397
p51
aVCALCITE-2396
p52
aVCALCITE-2395
p53
aVCALCITE-2394
p54
aVCALCITE-2393
p55
aVCALCITE-2392
p56
aVCALCITE-2391
p57
aVCALCITE-2390
p58
aVCALCITE-2388
p59
aVCALCITE-2387
p60
aVCALCITE-2386
p61
aVCALCITE-2385
p62
aVCALCITE-2384
p63
aVCALCITE-2383
p64
aVCALCITE-2382
p65
aVCALCITE-2381
p66
aVCALCITE-2380
p67
aVCALCITE-2379
p68
aVCALCITE-2378
p69
aVCALCITE-2377
p70
aVCALCITE-2376
p71
aVCALCITE-2375
p72
aVCALCITE-2374
p73
aVCALCITE-2373
p74
aVCALCITE-2372
p75
aVCALCITE-2371
p76
aVCALCITE-2370
p77
aVCALCITE-2369
p78
aVCALCITE-2368
p79
aVCALCITE-2367
p80
aVCALCITE-2366
p81
aVCALCITE-2365
p82
aVCALCITE-2364
p83
aVCALCITE-2363
p84
aVCALCITE-2362
p85
aVCALCITE-2361
p86
aVCALCITE-2360
p87
aVCALCITE-2359
p88
aVCALCITE-2358
p89
aVCALCITE-2357
p90
aVCALCITE-2356
p91
aVCALCITE-2355
p92
aVCALCITE-2354
p93
aVCALCITE-2353
p94
aVCALCITE-2352
p95
aVCALCITE-2351
p96
aVCALCITE-2350
p97
aVCALCITE-2349
p98
aVCALCITE-2348
p99
aVCALCITE-2347
p100
aVCALCITE-2346
p101
aVCALCITE-2345
p102
aVCALCITE-2344
p103
aVCALCITE-2343
p104
aVCALCITE-2342
p105
aVCALCITE-2341
p106
aVCALCITE-2340
p107
aVCALCITE-2339
p108
aVCALCITE-2338
p109
aVCALCITE-2337
p110
aVCALCITE-2336
p111
aVCALCITE-2335
p112
aVCALCITE-2334
p113
aVCALCITE-2333
p114
aVCALCITE-2332
p115
aVCALCITE-2331
p116
aVCALCITE-2330
p117
aVCALCITE-2329
p118
aVCALCITE-2328
p119
aVCALCITE-2327
p120
aVCALCITE-2326
p121
aVCALCITE-2325
p122
aVCALCITE-2324
p123
aVCALCITE-2323
p124
aVCALCITE-2322
p125
aVCALCITE-2321
p126
aVCALCITE-2320
p127
aVCALCITE-2319
p128
aVCALCITE-2318
p129
aVCALCITE-2317
p130
aVCALCITE-2316
p131
aVCALCITE-2315
p132
aVCALCITE-2314
p133
aVCALCITE-2313
p134
aVCALCITE-2312
p135
aVCALCITE-2311
p136
aVCALCITE-2310
p137
aVCALCITE-2309
p138
aVCALCITE-2308
p139
aVCALCITE-2307
p140
aVCALCITE-2306
p141
aVCALCITE-2305
p142
aVCALCITE-2304
p143
aVCALCITE-2303
p144
aVCALCITE-2302
p145
aVCALCITE-2301
p146
aVCALCITE-2300
p147
aVCALCITE-2299
p148
aVCALCITE-2298
p149
aVCALCITE-2297
p150
aVCALCITE-2296
p151
aVCALCITE-2295
p152
aVCALCITE-2294
p153
aVCALCITE-2293
p154
aVCALCITE-2292
p155
aVCALCITE-2291
p156
aVCALCITE-2290
p157
aVCALCITE-2289
p158
aVCALCITE-2288
p159
aVCALCITE-2287
p160
aVCALCITE-2286
p161
aVCALCITE-2285
p162
aVCALCITE-2284
p163
aVCALCITE-2283
p164
aVCALCITE-2282
p165
aVCALCITE-2281
p166
aVCALCITE-2280
p167
aVCALCITE-2279
p168
aVCALCITE-2278
p169
aVCALCITE-2277
p170
aVCALCITE-2276
p171
aVCALCITE-2275
p172
aVCALCITE-2274
p173
aVCALCITE-2273
p174
aVCALCITE-2272
p175
aVCALCITE-2271
p176
aVCALCITE-2270
p177
aVCALCITE-2269
p178
aVCALCITE-2268
p179
aVCALCITE-2267
p180
aVCALCITE-2266
p181
aVCALCITE-2265
p182
aVCALCITE-2264
p183
aVCALCITE-2263
p184
aVCALCITE-2262
p185
aVCALCITE-2261
p186
aVCALCITE-2260
p187
aVCALCITE-2259
p188
aVCALCITE-2258
p189
aVCALCITE-2257
p190
aVCALCITE-2256
p191
aVCALCITE-2255
p192
aVCALCITE-2254
p193
aVCALCITE-2253
p194
aVCALCITE-2252
p195
aVCALCITE-2251
p196
aVCALCITE-2250
p197
aVCALCITE-2249
p198
aVCALCITE-2248
p199
aVCALCITE-2247
p200
aVCALCITE-2246
p201
aVCALCITE-2245
p202
aVCALCITE-2244
p203
aVCALCITE-2243
p204
aVCALCITE-2242
p205
aVCALCITE-2241
p206
aVCALCITE-2240
p207
aVCALCITE-2239
p208
aVCALCITE-2238
p209
aVCALCITE-2237
p210
aVCALCITE-2236
p211
aVCALCITE-2235
p212
aVCALCITE-2234
p213
aVCALCITE-2233
p214
aVCALCITE-2232
p215
aVCALCITE-2231
p216
aVCALCITE-2230
p217
aVCALCITE-2229
p218
aVCALCITE-2228
p219
aVCALCITE-2227
p220
aVCALCITE-2226
p221
aVCALCITE-2225
p222
aVCALCITE-2224
p223
aVCALCITE-2223
p224
aVCALCITE-2222
p225
aVCALCITE-2221
p226
aVCALCITE-2220
p227
aVCALCITE-2219
p228
aVCALCITE-2218
p229
aVCALCITE-2217
p230
aVCALCITE-2216
p231
aVCALCITE-2215
p232
aVCALCITE-2214
p233
aVCALCITE-2213
p234
aVCALCITE-2212
p235
aVCALCITE-2211
p236
aVCALCITE-2210
p237
aVCALCITE-2209
p238
aVCALCITE-2208
p239
aVCALCITE-2207
p240
aVCALCITE-2206
p241
aVCALCITE-2205
p242
aVCALCITE-2204
p243
aVCALCITE-2203
p244
aVCALCITE-2202
p245
aVCALCITE-2201
p246
aVCALCITE-2200
p247
aVCALCITE-2199
p248
aVCALCITE-2198
p249
aVCALCITE-2197
p250
aVCALCITE-2196
p251
aVCALCITE-2195
p252
aVCALCITE-2194
p253
aVCALCITE-2193
p254
aVCALCITE-2192
p255
aVCALCITE-2191
p256
aVCALCITE-2190
p257
aVCALCITE-2189
p258
aVCALCITE-2188
p259
aVCALCITE-2187
p260
aVCALCITE-2186
p261
aVCALCITE-2185
p262
aVCALCITE-2184
p263
aVCALCITE-2183
p264
aVCALCITE-2182
p265
aVCALCITE-2181
p266
aVCALCITE-2180
p267
aVCALCITE-2179
p268
aVCALCITE-2178
p269
aVCALCITE-2177
p270
aVCALCITE-2176
p271
aVCALCITE-2175
p272
aVCALCITE-2174
p273
aVCALCITE-2173
p274
aVCALCITE-2172
p275
aVCALCITE-2171
p276
aVCALCITE-2170
p277
aVCALCITE-2169
p278
aVCALCITE-2168
p279
aVCALCITE-2167
p280
aVCALCITE-2166
p281
aVCALCITE-2165
p282
aVCALCITE-2164
p283
aVCALCITE-2163
p284
aVCALCITE-2162
p285
aVCALCITE-2161
p286
aVCALCITE-2160
p287
aVCALCITE-2159
p288
aVCALCITE-2158
p289
aVCALCITE-2157
p290
aVCALCITE-2156
p291
aVCALCITE-2155
p292
aVCALCITE-2154
p293
aVCALCITE-2153
p294
aVCALCITE-2152
p295
aVCALCITE-2151
p296
aVCALCITE-2150
p297
aVCALCITE-2149
p298
aVCALCITE-2148
p299
aVCALCITE-2147
p300
aVCALCITE-2146
p301
aVCALCITE-2145
p302
aVCALCITE-2144
p303
aVCALCITE-2143
p304
aVCALCITE-2142
p305
aVCALCITE-2141
p306
aVCALCITE-2140
p307
aVCALCITE-2139
p308
aVCALCITE-2138
p309
aVCALCITE-2137
p310
aVCALCITE-2136
p311
aVCALCITE-2135
p312
aVCALCITE-2134
p313
aVCALCITE-2133
p314
aVCALCITE-2132
p315
aVCALCITE-2131
p316
aVCALCITE-2130
p317
aVCALCITE-2129
p318
aVCALCITE-2128
p319
aVCALCITE-2127
p320
aVCALCITE-2126
p321
aVCALCITE-2125
p322
aVCALCITE-2124
p323
aVCALCITE-2123
p324
aVCALCITE-2122
p325
aVCALCITE-2121
p326
aVCALCITE-2120
p327
aVCALCITE-2119
p328
aVCALCITE-2118
p329
aVCALCITE-2117
p330
aVCALCITE-2116
p331
aVCALCITE-2115
p332
aVCALCITE-2114
p333
aVCALCITE-2113
p334
aVCALCITE-2112
p335
aVCALCITE-2111
p336
aVCALCITE-2110
p337
aVCALCITE-2109
p338
aVCALCITE-2108
p339
aVCALCITE-2107
p340
aVCALCITE-2106
p341
aVCALCITE-2105
p342
aVCALCITE-2104
p343
aVCALCITE-2103
p344
aVCALCITE-2102
p345
aVCALCITE-2101
p346
aVCALCITE-2100
p347
aVCALCITE-2099
p348
aVCALCITE-2098
p349
aVCALCITE-2097
p350
aVCALCITE-2096
p351
aVCALCITE-2095
p352
aVCALCITE-2094
p353
aVCALCITE-2093
p354
aVCALCITE-2092
p355
aVCALCITE-2091
p356
aVCALCITE-2090
p357
aVCALCITE-2089
p358
aVCALCITE-2088
p359
aVCALCITE-2087
p360
aVCALCITE-2086
p361
aVCALCITE-2085
p362
aVCALCITE-2084
p363
aVCALCITE-2083
p364
aVCALCITE-2082
p365
aVCALCITE-2081
p366
aVCALCITE-2080
p367
aVCALCITE-2079
p368
aVCALCITE-2078
p369
aVCALCITE-2077
p370
aVCALCITE-2076
p371
aVCALCITE-2075
p372
aVCALCITE-2074
p373
aVCALCITE-2073
p374
aVCALCITE-2072
p375
aVCALCITE-2071
p376
aVCALCITE-2070
p377
aVCALCITE-2069
p378
aVCALCITE-2068
p379
aVCALCITE-2067
p380
aVCALCITE-2066
p381
aVCALCITE-2065
p382
aVCALCITE-2064
p383
aVCALCITE-2063
p384
aVCALCITE-2062
p385
aVCALCITE-2061
p386
aVCALCITE-2060
p387
aVCALCITE-2059
p388
aVCALCITE-2058
p389
aVCALCITE-2057
p390
aVCALCITE-2056
p391
aVCALCITE-2055
p392
aVCALCITE-2054
p393
aVCALCITE-2053
p394
aVCALCITE-2052
p395
aVCALCITE-2051
p396
aVCALCITE-2050
p397
aVCALCITE-2049
p398
aVCALCITE-2048
p399
aVCALCITE-2047
p400
aVCALCITE-2046
p401
aVCALCITE-2045
p402
aVCALCITE-2044
p403
aVCALCITE-2043
p404
aVCALCITE-2042
p405
aVCALCITE-2041
p406
aVCALCITE-2040
p407
aVCALCITE-2039
p408
aVCALCITE-2038
p409
aVCALCITE-2037
p410
aVCALCITE-2036
p411
aVCALCITE-2035
p412
aVCALCITE-2034
p413
aVCALCITE-2033
p414
aVCALCITE-2032
p415
aVCALCITE-2031
p416
aVCALCITE-2030
p417
aVCALCITE-2029
p418
aVCALCITE-2028
p419
aVCALCITE-2027
p420
aVCALCITE-2026
p421
aVCALCITE-2025
p422
aVCALCITE-2024
p423
aVCALCITE-2023
p424
aVCALCITE-2022
p425
aVCALCITE-2021
p426
aVCALCITE-2020
p427
aVCALCITE-2019
p428
aVCALCITE-2018
p429
aVCALCITE-2017
p430
aVCALCITE-2016
p431
aVCALCITE-2015
p432
aVCALCITE-2014
p433
aVCALCITE-2013
p434
aVCALCITE-2012
p435
aVCALCITE-2011
p436
aVCALCITE-2010
p437
aVCALCITE-2009
p438
aVCALCITE-2008
p439
aVCALCITE-2007
p440
aVCALCITE-2006
p441
aVCALCITE-2005
p442
aVCALCITE-2004
p443
aVCALCITE-2003
p444
aVCALCITE-2002
p445
aVCALCITE-2001
p446
aVCALCITE-2000
p447
aVCALCITE-1999
p448
aVCALCITE-1998
p449
aVCALCITE-1997
p450
aVCALCITE-1996
p451
aVCALCITE-1995
p452
aVCALCITE-1994
p453
aVCALCITE-1993
p454
aVCALCITE-1992
p455
aVCALCITE-1991
p456
aVCALCITE-1990
p457
aVCALCITE-1989
p458
aVCALCITE-1988
p459
aVCALCITE-1987
p460
aVCALCITE-1986
p461
aVCALCITE-1985
p462
aVCALCITE-1984
p463
aVCALCITE-1983
p464
aVCALCITE-1982
p465
aVCALCITE-1981
p466
aVCALCITE-1980
p467
aVCALCITE-1979
p468
aVCALCITE-1978
p469
aVCALCITE-1977
p470
aVCALCITE-1976
p471
aVCALCITE-1975
p472
aVCALCITE-1974
p473
aVCALCITE-1973
p474
aVCALCITE-1972
p475
aVCALCITE-1971
p476
aVCALCITE-1970
p477
aVCALCITE-1969
p478
aVCALCITE-1968
p479
aVCALCITE-1967
p480
aVCALCITE-1966
p481
aVCALCITE-1965
p482
aVCALCITE-1964
p483
aVCALCITE-1963
p484
aVCALCITE-1962
p485
aVCALCITE-1961
p486
aVCALCITE-1960
p487
aVCALCITE-1959
p488
aVCALCITE-1958
p489
aVCALCITE-1957
p490
aVCALCITE-1956
p491
aVCALCITE-1955
p492
aVCALCITE-1954
p493
aVCALCITE-1953
p494
aVCALCITE-1952
p495
aVCALCITE-1951
p496
aVCALCITE-1950
p497
aVCALCITE-1949
p498
aVCALCITE-1948
p499
aVCALCITE-1947
p500
aVCALCITE-1946
p501
aVCALCITE-1945
p502
aVCALCITE-1944
p503
aVCALCITE-1943
p504
aVCALCITE-1942
p505
aVCALCITE-1941
p506
aVCALCITE-1940
p507
aVCALCITE-1939
p508
aVCALCITE-1938
p509
aVCALCITE-1937
p510
aVCALCITE-1936
p511
aVCALCITE-1935
p512
aVCALCITE-1934
p513
aVCALCITE-1933
p514
aVCALCITE-1932
p515
aVCALCITE-1931
p516
aVCALCITE-1930
p517
aVCALCITE-1929
p518
aVCALCITE-1928
p519
aVCALCITE-1927
p520
aVCALCITE-1926
p521
aVCALCITE-1925
p522
aVCALCITE-1924
p523
aVCALCITE-1923
p524
aVCALCITE-1922
p525
aVCALCITE-1921
p526
aVCALCITE-1920
p527
aVCALCITE-1919
p528
aVCALCITE-1918
p529
aVCALCITE-1917
p530
aVCALCITE-1916
p531
aVCALCITE-1915
p532
aVCALCITE-1914
p533
aVCALCITE-1913
p534
aVCALCITE-1912
p535
aVCALCITE-1911
p536
aVCALCITE-1910
p537
aVCALCITE-1909
p538
aVCALCITE-1908
p539
aVCALCITE-1907
p540
aVCALCITE-1906
p541
aVCALCITE-1905
p542
aVCALCITE-1904
p543
aVCALCITE-1903
p544
aVCALCITE-1902
p545
aVCALCITE-1901
p546
aVCALCITE-1900
p547
aVCALCITE-1899
p548
aVCALCITE-1898
p549
aVCALCITE-1897
p550
aVCALCITE-1896
p551
aVCALCITE-1895
p552
aVCALCITE-1894
p553
aVCALCITE-1893
p554
aVCALCITE-1892
p555
aVCALCITE-1891
p556
aVCALCITE-1890
p557
aVCALCITE-1889
p558
aVCALCITE-1888
p559
aVCALCITE-1887
p560
aVCALCITE-1886
p561
aVCALCITE-1885
p562
aVCALCITE-1884
p563
aVCALCITE-1883
p564
aVCALCITE-1882
p565
aVCALCITE-1881
p566
aVCALCITE-1880
p567
aVCALCITE-1879
p568
aVCALCITE-1878
p569
aVCALCITE-1877
p570
aVCALCITE-1876
p571
aVCALCITE-1875
p572
aVCALCITE-1874
p573
aVCALCITE-1873
p574
aVCALCITE-1872
p575
aVCALCITE-1871
p576
aVCALCITE-1870
p577
aVCALCITE-1869
p578
aVCALCITE-1868
p579
aVCALCITE-1867
p580
aVCALCITE-1866
p581
aVCALCITE-1865
p582
aVCALCITE-1864
p583
aVCALCITE-1863
p584
aVCALCITE-1862
p585
aVCALCITE-1861
p586
aVCALCITE-1860
p587
aVCALCITE-1859
p588
aVCALCITE-1858
p589
aVCALCITE-1857
p590
aVCALCITE-1856
p591
aVCALCITE-1855
p592
aVCALCITE-1854
p593
aVCALCITE-1853
p594
aVCALCITE-1852
p595
aVCALCITE-1851
p596
aVCALCITE-1850
p597
aVCALCITE-1849
p598
aVCALCITE-1848
p599
aVCALCITE-1847
p600
aVCALCITE-1846
p601
aVCALCITE-1845
p602
aVCALCITE-1844
p603
aVCALCITE-1843
p604
aVCALCITE-1842
p605
aVCALCITE-1841
p606
aVCALCITE-1840
p607
aVCALCITE-1839
p608
aVCALCITE-1838
p609
aVCALCITE-1837
p610
aVCALCITE-1836
p611
aVCALCITE-1835
p612
aVCALCITE-1834
p613
aVCALCITE-1833
p614
aVCALCITE-1832
p615
aVCALCITE-1831
p616
aVCALCITE-1830
p617
aVCALCITE-1829
p618
aVCALCITE-1828
p619
aVCALCITE-1827
p620
aVCALCITE-1826
p621
aVCALCITE-1825
p622
aVCALCITE-1824
p623
aVCALCITE-1823
p624
aVCALCITE-1822
p625
aVCALCITE-1821
p626
aVCALCITE-1820
p627
aVCALCITE-1819
p628
aVCALCITE-1818
p629
aVCALCITE-1817
p630
aVCALCITE-1816
p631
aVCALCITE-1815
p632
aVCALCITE-1814
p633
aVCALCITE-1813
p634
aVCALCITE-1812
p635
aVCALCITE-1811
p636
aVCALCITE-1810
p637
aVCALCITE-1809
p638
aVCALCITE-1808
p639
aVCALCITE-1807
p640
aVCALCITE-1806
p641
aVCALCITE-1805
p642
aVCALCITE-1804
p643
aVCALCITE-1803
p644
aVCALCITE-1802
p645
aVCALCITE-1801
p646
aVCALCITE-1800
p647
aVCALCITE-1799
p648
aVCALCITE-1798
p649
aVCALCITE-1797
p650
aVCALCITE-1796
p651
aVCALCITE-1795
p652
aVCALCITE-1794
p653
aVCALCITE-1793
p654
aVCALCITE-1792
p655
aVCALCITE-1791
p656
aVCALCITE-1790
p657
aVCALCITE-1789
p658
aVCALCITE-1788
p659
aVCALCITE-1787
p660
aVCALCITE-1786
p661
aVCALCITE-1785
p662
aVCALCITE-1784
p663
aVCALCITE-1783
p664
aVCALCITE-1782
p665
aVCALCITE-1781
p666
aVCALCITE-1780
p667
aVCALCITE-1779
p668
aVCALCITE-1778
p669
aVCALCITE-1777
p670
aVCALCITE-1776
p671
aVCALCITE-1775
p672
aVCALCITE-1774
p673
aVCALCITE-1773
p674
aVCALCITE-1772
p675
aVCALCITE-1771
p676
aVCALCITE-1770
p677
aVCALCITE-1769
p678
aVCALCITE-1768
p679
aVCALCITE-1767
p680
aVCALCITE-1766
p681
aVCALCITE-1765
p682
aVCALCITE-1764
p683
aVCALCITE-1763
p684
aVCALCITE-1762
p685
aVCALCITE-1761
p686
aVCALCITE-1760
p687
aVCALCITE-1759
p688
aVCALCITE-1758
p689
aVCALCITE-1757
p690
aVCALCITE-1756
p691
aVCALCITE-1755
p692
aVCALCITE-1754
p693
aVCALCITE-1753
p694
aVCALCITE-1752
p695
aVCALCITE-1751
p696
aVCALCITE-1750
p697
aVCALCITE-1749
p698
aVCALCITE-1748
p699
aVCALCITE-1747
p700
aVCALCITE-1746
p701
aVCALCITE-1745
p702
aVCALCITE-1744
p703
aVCALCITE-1743
p704
aVCALCITE-1742
p705
aVCALCITE-1741
p706
aVCALCITE-1740
p707
aVCALCITE-1739
p708
aVCALCITE-1738
p709
aVCALCITE-1737
p710
aVCALCITE-1736
p711
aVCALCITE-1735
p712
aVCALCITE-1734
p713
aVCALCITE-1733
p714
aVCALCITE-1732
p715
aVCALCITE-1731
p716
aVCALCITE-1730
p717
aVCALCITE-1729
p718
aVCALCITE-1728
p719
aVCALCITE-1727
p720
aVCALCITE-1726
p721
aVCALCITE-1725
p722
aVCALCITE-1724
p723
aVCALCITE-1723
p724
aVCALCITE-1722
p725
aVCALCITE-1721
p726
aVCALCITE-1720
p727
aVCALCITE-1719
p728
aVCALCITE-1718
p729
aVCALCITE-1717
p730
aVCALCITE-1716
p731
aVCALCITE-1715
p732
aVCALCITE-1714
p733
aVCALCITE-1713
p734
aVCALCITE-1712
p735
aVCALCITE-1711
p736
aVCALCITE-1710
p737
aVCALCITE-1709
p738
aVCALCITE-1708
p739
aVCALCITE-1707
p740
aVCALCITE-1706
p741
aVCALCITE-1705
p742
aVCALCITE-1704
p743
aVCALCITE-1703
p744
aVCALCITE-1702
p745
aVCALCITE-1701
p746
aVCALCITE-1700
p747
aVCALCITE-1699
p748
aVCALCITE-1698
p749
aVCALCITE-1697
p750
aVCALCITE-1696
p751
aVCALCITE-1695
p752
aVCALCITE-1694
p753
aVCALCITE-1693
p754
aVCALCITE-1692
p755
aVCALCITE-1691
p756
aVCALCITE-1690
p757
aVCALCITE-1689
p758
aVCALCITE-1688
p759
aVCALCITE-1687
p760
aVCALCITE-1686
p761
aVCALCITE-1685
p762
aVCALCITE-1684
p763
aVCALCITE-1683
p764
aVCALCITE-1682
p765
aVCALCITE-1681
p766
aVCALCITE-1680
p767
aVCALCITE-1679
p768
aVCALCITE-1678
p769
aVCALCITE-1677
p770
aVCALCITE-1676
p771
aVCALCITE-1675
p772
aVCALCITE-1674
p773
aVCALCITE-1673
p774
aVCALCITE-1672
p775
aVCALCITE-1671
p776
aVCALCITE-1670
p777
aVCALCITE-1669
p778
aVCALCITE-1668
p779
aVCALCITE-1667
p780
aVCALCITE-1666
p781
aVCALCITE-1665
p782
aVCALCITE-1664
p783
aVCALCITE-1663
p784
aVCALCITE-1662
p785
aVCALCITE-1661
p786
aVCALCITE-1660
p787
aVCALCITE-1659
p788
aVCALCITE-1658
p789
aVCALCITE-1657
p790
aVCALCITE-1656
p791
aVCALCITE-1655
p792
aVCALCITE-1654
p793
aVCALCITE-1653
p794
aVCALCITE-1652
p795
aVCALCITE-1651
p796
aVCALCITE-1650
p797
aVCALCITE-1649
p798
aVCALCITE-1648
p799
aVCALCITE-1647
p800
aVCALCITE-1646
p801
aVCALCITE-1645
p802
aVCALCITE-1644
p803
aVCALCITE-1643
p804
aVCALCITE-1642
p805
aVCALCITE-1641
p806
aVCALCITE-1640
p807
aVCALCITE-1639
p808
aVCALCITE-1638
p809
aVCALCITE-1637
p810
aVCALCITE-1636
p811
aVCALCITE-1635
p812
aVCALCITE-1634
p813
aVCALCITE-1633
p814
aVCALCITE-1632
p815
aVCALCITE-1631
p816
aVCALCITE-1630
p817
aVCALCITE-1629
p818
aVCALCITE-1628
p819
aVCALCITE-1627
p820
aVCALCITE-1626
p821
aVCALCITE-1625
p822
aVCALCITE-1624
p823
aVCALCITE-1623
p824
aVCALCITE-1622
p825
aVCALCITE-1621
p826
aVCALCITE-1620
p827
aVCALCITE-1619
p828
aVCALCITE-1618
p829
aVCALCITE-1617
p830
aVCALCITE-1616
p831
aVCALCITE-1615
p832
aVCALCITE-1614
p833
aVCALCITE-1613
p834
aVCALCITE-1612
p835
aVCALCITE-1611
p836
aVCALCITE-1610
p837
aVCALCITE-1609
p838
aVCALCITE-1608
p839
aVCALCITE-1607
p840
aVCALCITE-1606
p841
aVCALCITE-1605
p842
aVCALCITE-1604
p843
aVCALCITE-1603
p844
aVCALCITE-1602
p845
aVCALCITE-1601
p846
aVCALCITE-1600
p847
aVCALCITE-1599
p848
aVCALCITE-1598
p849
aVCALCITE-1597
p850
aVCALCITE-1596
p851
aVCALCITE-1595
p852
aVCALCITE-1594
p853
aVCALCITE-1593
p854
aVCALCITE-1592
p855
aVCALCITE-1591
p856
aVCALCITE-1590
p857
aVCALCITE-1589
p858
aVCALCITE-1588
p859
aVCALCITE-1587
p860
aVCALCITE-1586
p861
aVCALCITE-1585
p862
aVCALCITE-1584
p863
aVCALCITE-1583
p864
aVCALCITE-1582
p865
aVCALCITE-1581
p866
aVCALCITE-1580
p867
aVCALCITE-1579
p868
aVCALCITE-1578
p869
aVCALCITE-1577
p870
aVCALCITE-1576
p871
aVCALCITE-1575
p872
aVCALCITE-1574
p873
aVCALCITE-1573
p874
aVCALCITE-1572
p875
aVCALCITE-1571
p876
aVCALCITE-1570
p877
aVCALCITE-1569
p878
aVCALCITE-1568
p879
aVCALCITE-1567
p880
aVCALCITE-1566
p881
aVCALCITE-1565
p882
aVCALCITE-1564
p883
aVCALCITE-1563
p884
aVCALCITE-1562
p885
aVCALCITE-1561
p886
aVCALCITE-1560
p887
aVCALCITE-1559
p888
aVCALCITE-1558
p889
aVCALCITE-1557
p890
aVCALCITE-1556
p891
aVCALCITE-1555
p892
aVCALCITE-1554
p893
aVCALCITE-1553
p894
aVCALCITE-1552
p895
aVCALCITE-1551
p896
aVCALCITE-1550
p897
aVCALCITE-1549
p898
aVCALCITE-1548
p899
aVCALCITE-1547
p900
aVCALCITE-1546
p901
aVCALCITE-1545
p902
aVCALCITE-1544
p903
aVCALCITE-1543
p904
aVCALCITE-1542
p905
aVCALCITE-1541
p906
aVCALCITE-1540
p907
aVCALCITE-1539
p908
aVCALCITE-1538
p909
aVCALCITE-1537
p910
aVCALCITE-1536
p911
aVCALCITE-1535
p912
aVCALCITE-1534
p913
aVCALCITE-1533
p914
aVCALCITE-1532
p915
aVCALCITE-1531
p916
aVCALCITE-1530
p917
aVCALCITE-1529
p918
aVCALCITE-1528
p919
aVCALCITE-1527
p920
aVCALCITE-1526
p921
aVCALCITE-1525
p922
aVCALCITE-1524
p923
aVCALCITE-1523
p924
aVCALCITE-1522
p925
aVCALCITE-1521
p926
aVCALCITE-1520
p927
aVCALCITE-1519
p928
aVCALCITE-1518
p929
aVCALCITE-1517
p930
aVCALCITE-1516
p931
aVCALCITE-1515
p932
aVCALCITE-1514
p933
aVCALCITE-1513
p934
aVCALCITE-1512
p935
aVCALCITE-1511
p936
aVCALCITE-1510
p937
aVCALCITE-1509
p938
aVCALCITE-1508
p939
aVCALCITE-1507
p940
aVCALCITE-1506
p941
aVCALCITE-1505
p942
aVCALCITE-1504
p943
aVCALCITE-1503
p944
aVCALCITE-1502
p945
aVCALCITE-1501
p946
aVCALCITE-1500
p947
aVCALCITE-1499
p948
aVCALCITE-1498
p949
aVCALCITE-1497
p950
aVCALCITE-1496
p951
aVCALCITE-1495
p952
aVCALCITE-1494
p953
aVCALCITE-1493
p954
aVCALCITE-1492
p955
aVCALCITE-1491
p956
aVCALCITE-1490
p957
aVCALCITE-1489
p958
aVCALCITE-1488
p959
aVCALCITE-1487
p960
aVCALCITE-1486
p961
aVCALCITE-1485
p962
aVCALCITE-1484
p963
aVCALCITE-1483
p964
aVCALCITE-1482
p965
aVCALCITE-1481
p966
aVCALCITE-1480
p967
aVCALCITE-1479
p968
aVCALCITE-1478
p969
aVCALCITE-1477
p970
aVCALCITE-1476
p971
aVCALCITE-1475
p972
aVCALCITE-1474
p973
aVCALCITE-1473
p974
aVCALCITE-1472
p975
aVCALCITE-1471
p976
aVCALCITE-1470
p977
aVCALCITE-1469
p978
aVCALCITE-1468
p979
aVCALCITE-1467
p980
aVCALCITE-1466
p981
aVCALCITE-1465
p982
aVCALCITE-1464
p983
aVCALCITE-1463
p984
aVCALCITE-1462
p985
aVCALCITE-1461
p986
aVCALCITE-1460
p987
aVCALCITE-1459
p988
aVCALCITE-1458
p989
aVCALCITE-1457
p990
aVCALCITE-1456
p991
aVCALCITE-1455
p992
aVCALCITE-1454
p993
aVCALCITE-1453
p994
aVCALCITE-1452
p995
aVCALCITE-1451
p996
aVCALCITE-1450
p997
aVCALCITE-1449
p998
aVCALCITE-1448
p999
aVCALCITE-1447
p1000
aVCALCITE-1446
p1001
aVCALCITE-1445
p1002
aVCALCITE-1444
p1003
aVCALCITE-1443
p1004
aVCALCITE-1442
p1005
aVCALCITE-1441
p1006
aVCALCITE-1440
p1007
aVCALCITE-1439
p1008
aVCALCITE-1438
p1009
aVCALCITE-1437
p1010
aVCALCITE-1436
p1011
aVCALCITE-1435
p1012
aVCALCITE-1434
p1013
aVCALCITE-1433
p1014
aVCALCITE-1432
p1015
aVCALCITE-1431
p1016
aVCALCITE-1430
p1017
aVCALCITE-1429
p1018
aVCALCITE-1428
p1019
aVCALCITE-1427
p1020
aVCALCITE-1426
p1021
aVCALCITE-1425
p1022
aVCALCITE-1424
p1023
aVCALCITE-1423
p1024
aVCALCITE-1422
p1025
aVCALCITE-1421
p1026
aVCALCITE-1420
p1027
aVCALCITE-1419
p1028
aVCALCITE-1418
p1029
aVCALCITE-1417
p1030
aVCALCITE-1416
p1031
aVCALCITE-1415
p1032
aVCALCITE-1414
p1033
aVCALCITE-1413
p1034
aVCALCITE-1412
p1035
aVCALCITE-1411
p1036
aVCALCITE-1410
p1037
aVCALCITE-1409
p1038
aVCALCITE-1408
p1039
aVCALCITE-1407
p1040
aVCALCITE-1406
p1041
aVCALCITE-1405
p1042
aVCALCITE-1404
p1043
aVCALCITE-1403
p1044
aVCALCITE-1402
p1045
aVCALCITE-1401
p1046
aVCALCITE-1400
p1047
aVCALCITE-1399
p1048
aVCALCITE-1398
p1049
aVCALCITE-1397
p1050
aVCALCITE-1396
p1051
aVCALCITE-1395
p1052
aVCALCITE-1394
p1053
aVCALCITE-1393
p1054
aVCALCITE-1392
p1055
aVCALCITE-1391
p1056
aVCALCITE-1390
p1057
aVCALCITE-1389
p1058
aVCALCITE-1388
p1059
aVCALCITE-1387
p1060
aVCALCITE-1386
p1061
aVCALCITE-1385
p1062
aVCALCITE-1384
p1063
aVCALCITE-1383
p1064
aVCALCITE-1382
p1065
aVCALCITE-1381
p1066
aVCALCITE-1380
p1067
aVCALCITE-1379
p1068
aVCALCITE-1378
p1069
aVCALCITE-1377
p1070
aVCALCITE-1376
p1071
aVCALCITE-1375
p1072
aVCALCITE-1374
p1073
aVCALCITE-1373
p1074
aVCALCITE-1372
p1075
aVCALCITE-1371
p1076
aVCALCITE-1370
p1077
aVCALCITE-1369
p1078
aVCALCITE-1368
p1079
aVCALCITE-1367
p1080
aVCALCITE-1366
p1081
aVCALCITE-1365
p1082
aVCALCITE-1364
p1083
aVCALCITE-1363
p1084
aVCALCITE-1362
p1085
aVCALCITE-1361
p1086
aVCALCITE-1360
p1087
aVCALCITE-1359
p1088
aVCALCITE-1358
p1089
aVCALCITE-1357
p1090
aVCALCITE-1356
p1091
aVCALCITE-1355
p1092
aVCALCITE-1354
p1093
aVCALCITE-1353
p1094
aVCALCITE-1352
p1095
aVCALCITE-1351
p1096
aVCALCITE-1350
p1097
aVCALCITE-1349
p1098
aVCALCITE-1348
p1099
aVCALCITE-1347
p1100
aVCALCITE-1346
p1101
aVCALCITE-1345
p1102
aVCALCITE-1344
p1103
aVCALCITE-1343
p1104
aVCALCITE-1342
p1105
aVCALCITE-1341
p1106
aVCALCITE-1340
p1107
aVCALCITE-1339
p1108
aVCALCITE-1338
p1109
aVCALCITE-1337
p1110
aVCALCITE-1336
p1111
aVCALCITE-1335
p1112
aVCALCITE-1334
p1113
aVCALCITE-1333
p1114
aVCALCITE-1332
p1115
aVCALCITE-1331
p1116
aVCALCITE-1330
p1117
aVCALCITE-1329
p1118
aVCALCITE-1328
p1119
aVCALCITE-1327
p1120
aVCALCITE-1326
p1121
aVCALCITE-1325
p1122
aVCALCITE-1324
p1123
aVCALCITE-1323
p1124
aVCALCITE-1322
p1125
aVCALCITE-1321
p1126
aVCALCITE-1320
p1127
aVCALCITE-1319
p1128
aVCALCITE-1318
p1129
aVCALCITE-1317
p1130
aVCALCITE-1316
p1131
aVCALCITE-1315
p1132
aVCALCITE-1314
p1133
aVCALCITE-1313
p1134
aVCALCITE-1312
p1135
aVCALCITE-1311
p1136
aVCALCITE-1310
p1137
aVCALCITE-1309
p1138
aVCALCITE-1308
p1139
aVCALCITE-1307
p1140
aVCALCITE-1306
p1141
aVCALCITE-1305
p1142
aVCALCITE-1304
p1143
aVCALCITE-1303
p1144
aVCALCITE-1302
p1145
aVCALCITE-1301
p1146
aVCALCITE-1300
p1147
aVCALCITE-1299
p1148
aVCALCITE-1298
p1149
aVCALCITE-1297
p1150
aVCALCITE-1296
p1151
aVCALCITE-1295
p1152
aVCALCITE-1294
p1153
aVCALCITE-1293
p1154
aVCALCITE-1292
p1155
aVCALCITE-1291
p1156
aVCALCITE-1290
p1157
aVCALCITE-1289
p1158
aVCALCITE-1288
p1159
aVCALCITE-1287
p1160
aVCALCITE-1286
p1161
aVCALCITE-1285
p1162
aVCALCITE-1284
p1163
aVCALCITE-1283
p1164
aVCALCITE-1282
p1165
aVCALCITE-1281
p1166
aVCALCITE-1280
p1167
aVCALCITE-1279
p1168
aVCALCITE-1278
p1169
aVCALCITE-1277
p1170
aVCALCITE-1276
p1171
aVCALCITE-1275
p1172
aVCALCITE-1274
p1173
aVCALCITE-1273
p1174
aVCALCITE-1272
p1175
aVCALCITE-1271
p1176
aVCALCITE-1270
p1177
aVCALCITE-1269
p1178
aVCALCITE-1268
p1179
aVCALCITE-1267
p1180
aVCALCITE-1266
p1181
aVCALCITE-1265
p1182
aVCALCITE-1264
p1183
aVCALCITE-1263
p1184
aVCALCITE-1262
p1185
aVCALCITE-1261
p1186
aVCALCITE-1260
p1187
aVCALCITE-1259
p1188
aVCALCITE-1258
p1189
aVCALCITE-1257
p1190
aVCALCITE-1256
p1191
aVCALCITE-1255
p1192
aVCALCITE-1254
p1193
aVCALCITE-1253
p1194
aVCALCITE-1251
p1195
aVCALCITE-1250
p1196
aVCALCITE-1249
p1197
aVCALCITE-1248
p1198
aVCALCITE-1247
p1199
aVCALCITE-1246
p1200
aVCALCITE-1245
p1201
aVCALCITE-1244
p1202
aVCALCITE-1243
p1203
aVCALCITE-1242
p1204
aVCALCITE-1241
p1205
aVCALCITE-1240
p1206
aVCALCITE-1239
p1207
aVCALCITE-1238
p1208
aVCALCITE-1237
p1209
aVCALCITE-1236
p1210
aVCALCITE-1235
p1211
aVCALCITE-1234
p1212
aVCALCITE-1233
p1213
aVCALCITE-1232
p1214
aVCALCITE-1231
p1215
aVCALCITE-1230
p1216
aVCALCITE-1229
p1217
aVCALCITE-1228
p1218
aVCALCITE-1227
p1219
aVCALCITE-1226
p1220
aVCALCITE-1225
p1221
aVCALCITE-1224
p1222
aVCALCITE-1223
p1223
aVCALCITE-1222
p1224
aVCALCITE-1221
p1225
aVCALCITE-1220
p1226
aVCALCITE-1219
p1227
aVCALCITE-1218
p1228
aVCALCITE-1217
p1229
aVCALCITE-1216
p1230
aVCALCITE-1215
p1231
aVCALCITE-1214
p1232
aVCALCITE-1213
p1233
aVCALCITE-1212
p1234
aVCALCITE-1211
p1235
aVCALCITE-1210
p1236
aVCALCITE-1209
p1237
aVCALCITE-1208
p1238
aVCALCITE-1207
p1239
aVCALCITE-1206
p1240
aVCALCITE-1205
p1241
aVCALCITE-1204
p1242
aVCALCITE-1203
p1243
aVCALCITE-1202
p1244
aVCALCITE-1201
p1245
aVCALCITE-1200
p1246
aVCALCITE-1199
p1247
aVCALCITE-1198
p1248
aVCALCITE-1197
p1249
aVCALCITE-1196
p1250
aVCALCITE-1195
p1251
aVCALCITE-1194
p1252
aVCALCITE-1193
p1253
aVCALCITE-1192
p1254
aVCALCITE-1191
p1255
aVCALCITE-1190
p1256
aVCALCITE-1189
p1257
aVCALCITE-1188
p1258
aVCALCITE-1187
p1259
aVCALCITE-1186
p1260
aVCALCITE-1185
p1261
aVCALCITE-1184
p1262
aVCALCITE-1183
p1263
aVCALCITE-1182
p1264
aVCALCITE-1181
p1265
aVCALCITE-1180
p1266
aVCALCITE-1179
p1267
aVCALCITE-1178
p1268
aVCALCITE-1177
p1269
aVCALCITE-1176
p1270
aVCALCITE-1175
p1271
aVCALCITE-1174
p1272
aVCALCITE-1173
p1273
aVCALCITE-1172
p1274
aVCALCITE-1171
p1275
aVCALCITE-1170
p1276
aVCALCITE-1169
p1277
aVCALCITE-1168
p1278
aVCALCITE-1167
p1279
aVCALCITE-1166
p1280
aVCALCITE-1165
p1281
aVCALCITE-1164
p1282
aVCALCITE-1163
p1283
aVCALCITE-1162
p1284
aVCALCITE-1161
p1285
aVCALCITE-1160
p1286
aVCALCITE-1159
p1287
aVCALCITE-1158
p1288
aVCALCITE-1157
p1289
aVCALCITE-1156
p1290
aVCALCITE-1154
p1291
aVCALCITE-1153
p1292
aVCALCITE-1152
p1293
aVCALCITE-1151
p1294
aVCALCITE-1150
p1295
aVCALCITE-1149
p1296
aVCALCITE-1148
p1297
aVCALCITE-1147
p1298
aVCALCITE-1146
p1299
aVCALCITE-1145
p1300
aVCALCITE-1144
p1301
aVCALCITE-1143
p1302
aVCALCITE-1142
p1303
aVCALCITE-1141
p1304
aVCALCITE-1140
p1305
aVCALCITE-1139
p1306
aVCALCITE-1138
p1307
aVCALCITE-1137
p1308
aVCALCITE-1136
p1309
aVCALCITE-1135
p1310
aVCALCITE-1134
p1311
aVCALCITE-1133
p1312
aVCALCITE-1132
p1313
aVCALCITE-1131
p1314
aVCALCITE-1130
p1315
aVCALCITE-1129
p1316
aVCALCITE-1128
p1317
aVCALCITE-1127
p1318
aVCALCITE-1126
p1319
aVCALCITE-1125
p1320
aVCALCITE-1124
p1321
aVCALCITE-1123
p1322
aVCALCITE-1122
p1323
aVCALCITE-1121
p1324
aVCALCITE-1120
p1325
aVCALCITE-1119
p1326
aVCALCITE-1118
p1327
aVCALCITE-1117
p1328
aVCALCITE-1116
p1329
aVCALCITE-1115
p1330
aVCALCITE-1114
p1331
aVCALCITE-1113
p1332
aVCALCITE-1112
p1333
aVCALCITE-1111
p1334
aVCALCITE-1110
p1335
aVCALCITE-1109
p1336
aVCALCITE-1108
p1337
aVCALCITE-1107
p1338
aVCALCITE-1106
p1339
aVCALCITE-1105
p1340
aVCALCITE-1104
p1341
aVCALCITE-1103
p1342
aVCALCITE-1102
p1343
aVCALCITE-1101
p1344
aVCALCITE-1100
p1345
aVCALCITE-1099
p1346
aVCALCITE-1098
p1347
aVCALCITE-1097
p1348
aVCALCITE-1096
p1349
aVCALCITE-1095
p1350
aVCALCITE-1094
p1351
aVCALCITE-1093
p1352
aVCALCITE-1092
p1353
aVCALCITE-1091
p1354
aVCALCITE-1090
p1355
aVCALCITE-1089
p1356
aVCALCITE-1088
p1357
aVCALCITE-1087
p1358
aVCALCITE-1086
p1359
aVCALCITE-1085
p1360
aVCALCITE-1084
p1361
aVCALCITE-1083
p1362
aVCALCITE-1082
p1363
aVCALCITE-1081
p1364
aVCALCITE-1080
p1365
aVCALCITE-1079
p1366
aVCALCITE-1078
p1367
aVCALCITE-1077
p1368
aVCALCITE-1076
p1369
aVCALCITE-1075
p1370
aVCALCITE-1074
p1371
aVCALCITE-1073
p1372
aVCALCITE-1072
p1373
aVCALCITE-1071
p1374
aVCALCITE-1070
p1375
aVCALCITE-1069
p1376
aVCALCITE-1068
p1377
aVCALCITE-1067
p1378
aVCALCITE-1066
p1379
aVCALCITE-1065
p1380
aVCALCITE-1064
p1381
aVCALCITE-1063
p1382
aVCALCITE-1062
p1383
aVCALCITE-1061
p1384
aVCALCITE-1060
p1385
aVCALCITE-1059
p1386
aVCALCITE-1058
p1387
aVCALCITE-1057
p1388
aVCALCITE-1056
p1389
aVCALCITE-1055
p1390
aVCALCITE-1054
p1391
aVCALCITE-1053
p1392
aVCALCITE-1052
p1393
aVCALCITE-1051
p1394
aVCALCITE-1050
p1395
aVCALCITE-1049
p1396
aVCALCITE-1048
p1397
aVCALCITE-1047
p1398
aVCALCITE-1046
p1399
aVCALCITE-1045
p1400
aVCALCITE-1044
p1401
aVCALCITE-1043
p1402
aVCALCITE-1042
p1403
aVCALCITE-1041
p1404
aVCALCITE-1040
p1405
aVCALCITE-1039
p1406
aVCALCITE-1038
p1407
aVCALCITE-1037
p1408
aVCALCITE-1036
p1409
aVCALCITE-1035
p1410
aVCALCITE-1034
p1411
aVCALCITE-1033
p1412
aVCALCITE-1032
p1413
aVCALCITE-1031
p1414
aVCALCITE-1030
p1415
aVCALCITE-1029
p1416
aVCALCITE-1028
p1417
aVCALCITE-1027
p1418
aVCALCITE-1026
p1419
aVCALCITE-1025
p1420
aVCALCITE-1024
p1421
aVCALCITE-1023
p1422
aVCALCITE-1022
p1423
aVCALCITE-1021
p1424
aVCALCITE-1020
p1425
aVCALCITE-1019
p1426
aVCALCITE-1018
p1427
aVCALCITE-1017
p1428
aVCALCITE-1016
p1429
aVCALCITE-1015
p1430
aVCALCITE-1013
p1431
aVCALCITE-1012
p1432
aVCALCITE-1011
p1433
aVCALCITE-1010
p1434
aVCALCITE-1009
p1435
aVCALCITE-1008
p1436
aVCALCITE-1007
p1437
aVCALCITE-1006
p1438
aVCALCITE-1005
p1439
aVCALCITE-1004
p1440
aVCALCITE-1003
p1441
aVCALCITE-1002
p1442
aVCALCITE-1001
p1443
aVCALCITE-1000
p1444
aVCALCITE-999
p1445
aVCALCITE-998
p1446
aVCALCITE-997
p1447
aVCALCITE-996
p1448
aVCALCITE-995
p1449
aVCALCITE-994
p1450
aVCALCITE-993
p1451
aVCALCITE-992
p1452
aVCALCITE-991
p1453
aVCALCITE-990
p1454
aVCALCITE-989
p1455
aVCALCITE-988
p1456
aVCALCITE-987
p1457
aVCALCITE-986
p1458
aVCALCITE-985
p1459
aVCALCITE-984
p1460
aVCALCITE-983
p1461
aVCALCITE-982
p1462
aVCALCITE-981
p1463
aVCALCITE-980
p1464
aVCALCITE-979
p1465
aVCALCITE-978
p1466
aVCALCITE-977
p1467
aVCALCITE-976
p1468
aVCALCITE-975
p1469
aVCALCITE-974
p1470
aVCALCITE-973
p1471
aVCALCITE-972
p1472
aVCALCITE-971
p1473
aVCALCITE-970
p1474
aVCALCITE-969
p1475
aVCALCITE-968
p1476
aVCALCITE-967
p1477
aVCALCITE-966
p1478
aVCALCITE-965
p1479
aVCALCITE-964
p1480
aVCALCITE-963
p1481
aVCALCITE-962
p1482
aVCALCITE-961
p1483
aVCALCITE-960
p1484
aVCALCITE-959
p1485
aVCALCITE-958
p1486
aVCALCITE-957
p1487
aVCALCITE-956
p1488
aVCALCITE-955
p1489
aVCALCITE-954
p1490
aVCALCITE-953
p1491
aVCALCITE-952
p1492
aVCALCITE-951
p1493
aVCALCITE-950
p1494
aVCALCITE-949
p1495
aVCALCITE-948
p1496
aVCALCITE-947
p1497
aVCALCITE-946
p1498
aVCALCITE-945
p1499
aVCALCITE-944
p1500
aVCALCITE-943
p1501
aVCALCITE-942
p1502
aVCALCITE-941
p1503
aVCALCITE-940
p1504
aVCALCITE-939
p1505
aVCALCITE-938
p1506
aVCALCITE-937
p1507
aVCALCITE-936
p1508
aVCALCITE-935
p1509
aVCALCITE-934
p1510
aVCALCITE-933
p1511
aVCALCITE-932
p1512
aVCALCITE-931
p1513
aVCALCITE-930
p1514
aVCALCITE-929
p1515
aVCALCITE-928
p1516
aVCALCITE-927
p1517
aVCALCITE-926
p1518
aVCALCITE-925
p1519
aVCALCITE-924
p1520
aVCALCITE-923
p1521
aVCALCITE-922
p1522
aVCALCITE-921
p1523
aVCALCITE-920
p1524
aVCALCITE-919
p1525
aVCALCITE-918
p1526
aVCALCITE-917
p1527
aVCALCITE-916
p1528
aVCALCITE-915
p1529
aVCALCITE-914
p1530
aVCALCITE-913
p1531
aVCALCITE-912
p1532
aVCALCITE-911
p1533
aVCALCITE-910
p1534
aVCALCITE-909
p1535
aVCALCITE-908
p1536
aVCALCITE-907
p1537
aVCALCITE-906
p1538
aVCALCITE-905
p1539
aVCALCITE-904
p1540
aVCALCITE-903
p1541
aVCALCITE-902
p1542
aVCALCITE-901
p1543
aVCALCITE-900
p1544
aVCALCITE-899
p1545
aVCALCITE-898
p1546
aVCALCITE-897
p1547
aVCALCITE-896
p1548
aVCALCITE-895
p1549
aVCALCITE-894
p1550
aVCALCITE-893
p1551
aVCALCITE-892
p1552
aVCALCITE-891
p1553
aVCALCITE-890
p1554
aVCALCITE-889
p1555
aVCALCITE-888
p1556
aVCALCITE-887
p1557
aVCALCITE-886
p1558
aVCALCITE-885
p1559
aVCALCITE-884
p1560
aVCALCITE-883
p1561
aVCALCITE-882
p1562
aVCALCITE-881
p1563
aVCALCITE-880
p1564
aVCALCITE-879
p1565
aVCALCITE-878
p1566
aVCALCITE-877
p1567
aVCALCITE-876
p1568
aVCALCITE-875
p1569
aVCALCITE-874
p1570
aVCALCITE-873
p1571
aVCALCITE-872
p1572
aVCALCITE-871
p1573
aVCALCITE-870
p1574
aVCALCITE-869
p1575
aVCALCITE-868
p1576
aVCALCITE-867
p1577
aVCALCITE-866
p1578
aVCALCITE-865
p1579
aVCALCITE-864
p1580
aVCALCITE-863
p1581
aVCALCITE-862
p1582
aVCALCITE-861
p1583
aVCALCITE-860
p1584
aVCALCITE-859
p1585
aVCALCITE-858
p1586
aVCALCITE-857
p1587
aVCALCITE-856
p1588
aVCALCITE-855
p1589
aVCALCITE-854
p1590
aVCALCITE-853
p1591
aVCALCITE-852
p1592
aVCALCITE-851
p1593
aVCALCITE-850
p1594
aVCALCITE-849
p1595
aVCALCITE-848
p1596
aVCALCITE-847
p1597
aVCALCITE-846
p1598
aVCALCITE-845
p1599
aVCALCITE-844
p1600
aVCALCITE-843
p1601
aVCALCITE-842
p1602
aVCALCITE-841
p1603
aVCALCITE-840
p1604
aVCALCITE-839
p1605
aVCALCITE-838
p1606
aVCALCITE-837
p1607
aVCALCITE-836
p1608
aVCALCITE-835
p1609
aVCALCITE-834
p1610
aVCALCITE-833
p1611
aVCALCITE-832
p1612
aVCALCITE-831
p1613
aVCALCITE-830
p1614
aVCALCITE-829
p1615
aVCALCITE-828
p1616
aVCALCITE-827
p1617
aVCALCITE-826
p1618
aVCALCITE-825
p1619
aVCALCITE-824
p1620
aVCALCITE-823
p1621
aVCALCITE-822
p1622
aVCALCITE-821
p1623
aVCALCITE-820
p1624
aVCALCITE-819
p1625
aVCALCITE-818
p1626
aVCALCITE-817
p1627
aVCALCITE-816
p1628
aVCALCITE-815
p1629
aVCALCITE-814
p1630
aVCALCITE-813
p1631
aVCALCITE-812
p1632
aVCALCITE-811
p1633
aVCALCITE-810
p1634
aVCALCITE-809
p1635
aVCALCITE-808
p1636
aVCALCITE-807
p1637
aVCALCITE-806
p1638
aVCALCITE-805
p1639
aVCALCITE-804
p1640
aVCALCITE-803
p1641
aVCALCITE-802
p1642
aVCALCITE-801
p1643
aVCALCITE-800
p1644
aVCALCITE-799
p1645
aVCALCITE-798
p1646
aVCALCITE-797
p1647
aVCALCITE-796
p1648
aVCALCITE-795
p1649
aVCALCITE-794
p1650
aVCALCITE-793
p1651
aVCALCITE-792
p1652
aVCALCITE-791
p1653
aVCALCITE-790
p1654
aVCALCITE-789
p1655
aVCALCITE-788
p1656
aVCALCITE-787
p1657
aVCALCITE-786
p1658
aVCALCITE-785
p1659
aVCALCITE-784
p1660
aVCALCITE-783
p1661
aVCALCITE-782
p1662
aVCALCITE-781
p1663
aVCALCITE-780
p1664
aVCALCITE-779
p1665
aVCALCITE-778
p1666
aVCALCITE-777
p1667
aVCALCITE-776
p1668
aVCALCITE-775
p1669
aVCALCITE-774
p1670
aVCALCITE-773
p1671
aVCALCITE-772
p1672
aVCALCITE-771
p1673
aVCALCITE-770
p1674
aVCALCITE-769
p1675
aVCALCITE-768
p1676
aVCALCITE-767
p1677
aVCALCITE-766
p1678
aVCALCITE-765
p1679
aVCALCITE-764
p1680
aVCALCITE-763
p1681
aVCALCITE-762
p1682
aVCALCITE-761
p1683
aVCALCITE-760
p1684
aVCALCITE-759
p1685
aVCALCITE-758
p1686
aVCALCITE-757
p1687
aVCALCITE-756
p1688
aVCALCITE-755
p1689
aVCALCITE-754
p1690
aVCALCITE-753
p1691
aVCALCITE-752
p1692
aVCALCITE-751
p1693
aVCALCITE-750
p1694
aVCALCITE-749
p1695
aVCALCITE-748
p1696
aVCALCITE-747
p1697
aVCALCITE-746
p1698
aVCALCITE-745
p1699
aVCALCITE-744
p1700
aVCALCITE-743
p1701
aVCALCITE-742
p1702
aVCALCITE-741
p1703
aVCALCITE-740
p1704
aVCALCITE-739
p1705
aVCALCITE-738
p1706
aVCALCITE-737
p1707
aVCALCITE-736
p1708
aVCALCITE-735
p1709
aVCALCITE-734
p1710
aVCALCITE-733
p1711
aVCALCITE-732
p1712
aVCALCITE-731
p1713
aVCALCITE-730
p1714
aVCALCITE-729
p1715
aVCALCITE-728
p1716
aVCALCITE-727
p1717
aVCALCITE-726
p1718
aVCALCITE-725
p1719
aVCALCITE-724
p1720
aVCALCITE-723
p1721
aVCALCITE-722
p1722
aVCALCITE-721
p1723
aVCALCITE-720
p1724
aVCALCITE-719
p1725
aVCALCITE-718
p1726
aVCALCITE-717
p1727
aVCALCITE-716
p1728
aVCALCITE-715
p1729
aVCALCITE-714
p1730
aVCALCITE-713
p1731
aVCALCITE-712
p1732
aVCALCITE-711
p1733
aVCALCITE-710
p1734
aVCALCITE-709
p1735
aVCALCITE-708
p1736
aVCALCITE-707
p1737
aVCALCITE-706
p1738
aVCALCITE-705
p1739
aVCALCITE-704
p1740
aVCALCITE-703
p1741
aVCALCITE-702
p1742
aVCALCITE-701
p1743
aVCALCITE-700
p1744
aVCALCITE-699
p1745
aVCALCITE-698
p1746
aVCALCITE-697
p1747
aVCALCITE-696
p1748
aVCALCITE-695
p1749
aVCALCITE-694
p1750
aVCALCITE-693
p1751
aVCALCITE-692
p1752
aVCALCITE-691
p1753
aVCALCITE-690
p1754
aVCALCITE-689
p1755
aVCALCITE-688
p1756
aVCALCITE-687
p1757
aVCALCITE-686
p1758
aVCALCITE-685
p1759
aVCALCITE-684
p1760
aVCALCITE-683
p1761
aVCALCITE-682
p1762
aVCALCITE-681
p1763
aVCALCITE-680
p1764
aVCALCITE-679
p1765
aVCALCITE-678
p1766
aVCALCITE-677
p1767
aVCALCITE-676
p1768
aVCALCITE-675
p1769
aVCALCITE-674
p1770
aVCALCITE-673
p1771
aVCALCITE-672
p1772
aVCALCITE-671
p1773
aVCALCITE-670
p1774
aVCALCITE-669
p1775
aVCALCITE-668
p1776
aVCALCITE-667
p1777
aVCALCITE-666
p1778
aVCALCITE-665
p1779
aVCALCITE-664
p1780
aVCALCITE-663
p1781
aVCALCITE-662
p1782
aVCALCITE-661
p1783
aVCALCITE-660
p1784
aVCALCITE-659
p1785
aVCALCITE-658
p1786
aVCALCITE-657
p1787
aVCALCITE-656
p1788
aVCALCITE-655
p1789
aVCALCITE-654
p1790
aVCALCITE-653
p1791
aVCALCITE-652
p1792
aVCALCITE-651
p1793
aVCALCITE-650
p1794
aVCALCITE-649
p1795
aVCALCITE-648
p1796
aVCALCITE-647
p1797
aVCALCITE-646
p1798
aVCALCITE-645
p1799
aVCALCITE-644
p1800
aVCALCITE-643
p1801
aVCALCITE-642
p1802
aVCALCITE-641
p1803
aVCALCITE-640
p1804
aVCALCITE-639
p1805
aVCALCITE-638
p1806
aVCALCITE-637
p1807
aVCALCITE-636
p1808
aVCALCITE-635
p1809
aVCALCITE-634
p1810
aVCALCITE-633
p1811
aVCALCITE-632
p1812
aVCALCITE-631
p1813
aVCALCITE-630
p1814
aVCALCITE-629
p1815
aVCALCITE-628
p1816
aVCALCITE-627
p1817
aVCALCITE-626
p1818
aVCALCITE-625
p1819
aVCALCITE-624
p1820
aVCALCITE-623
p1821
aVCALCITE-622
p1822
aVCALCITE-621
p1823
aVCALCITE-620
p1824
aVCALCITE-619
p1825
aVCALCITE-618
p1826
aVCALCITE-617
p1827
aVCALCITE-616
p1828
aVCALCITE-615
p1829
aVCALCITE-614
p1830
aVCALCITE-613
p1831
aVCALCITE-612
p1832
aVCALCITE-611
p1833
aVCALCITE-610
p1834
aVCALCITE-609
p1835
aVCALCITE-608
p1836
aVCALCITE-607
p1837
aVCALCITE-606
p1838
aVCALCITE-605
p1839
aVCALCITE-604
p1840
aVCALCITE-603
p1841
aVCALCITE-602
p1842
aVCALCITE-601
p1843
aVCALCITE-600
p1844
aVCALCITE-599
p1845
aVCALCITE-598
p1846
aVCALCITE-597
p1847
aVCALCITE-596
p1848
aVCALCITE-595
p1849
aVCALCITE-594
p1850
aVCALCITE-593
p1851
aVCALCITE-592
p1852
aVCALCITE-591
p1853
aVCALCITE-590
p1854
aVCALCITE-589
p1855
aVCALCITE-588
p1856
aVCALCITE-587
p1857
aVCALCITE-586
p1858
aVCALCITE-585
p1859
aVCALCITE-584
p1860
aVCALCITE-583
p1861
aVCALCITE-582
p1862
aVCALCITE-581
p1863
aVCALCITE-580
p1864
aVCALCITE-579
p1865
aVCALCITE-577
p1866
aVCALCITE-576
p1867
aVCALCITE-575
p1868
aVCALCITE-574
p1869
aVCALCITE-573
p1870
aVCALCITE-572
p1871
aVCALCITE-571
p1872
aVCALCITE-570
p1873
aVCALCITE-569
p1874
aVCALCITE-568
p1875
aVCALCITE-567
p1876
aVCALCITE-566
p1877
aVCALCITE-565
p1878
aVCALCITE-564
p1879
aVCALCITE-563
p1880
aVCALCITE-562
p1881
aVCALCITE-561
p1882
aVCALCITE-560
p1883
aVCALCITE-559
p1884
aVCALCITE-558
p1885
aVCALCITE-557
p1886
aVCALCITE-556
p1887
aVCALCITE-555
p1888
aVCALCITE-554
p1889
aVCALCITE-553
p1890
aVCALCITE-552
p1891
aVCALCITE-551
p1892
aVCALCITE-550
p1893
aVCALCITE-549
p1894
aVCALCITE-548
p1895
aVCALCITE-547
p1896
aVCALCITE-546
p1897
aVCALCITE-545
p1898
aVCALCITE-544
p1899
aVCALCITE-543
p1900
aVCALCITE-542
p1901
aVCALCITE-541
p1902
aVCALCITE-540
p1903
aVCALCITE-539
p1904
aVCALCITE-538
p1905
aVCALCITE-537
p1906
aVCALCITE-536
p1907
aVCALCITE-535
p1908
aVCALCITE-534
p1909
aVCALCITE-533
p1910
aVCALCITE-532
p1911
aVCALCITE-531
p1912
aVCALCITE-530
p1913
aVCALCITE-529
p1914
aVCALCITE-528
p1915
aVCALCITE-527
p1916
aVCALCITE-526
p1917
aVCALCITE-525
p1918
aVCALCITE-524
p1919
aVCALCITE-523
p1920
aVCALCITE-522
p1921
aVCALCITE-521
p1922
aVCALCITE-520
p1923
aVCALCITE-519
p1924
aVCALCITE-518
p1925
aVCALCITE-517
p1926
aVCALCITE-516
p1927
aVCALCITE-515
p1928
aVCALCITE-514
p1929
aVCALCITE-513
p1930
aVCALCITE-512
p1931
aVCALCITE-511
p1932
aVCALCITE-510
p1933
aVCALCITE-509
p1934
aVCALCITE-508
p1935
aVCALCITE-507
p1936
aVCALCITE-506
p1937
aVCALCITE-505
p1938
aVCALCITE-504
p1939
aVCALCITE-503
p1940
aVCALCITE-502
p1941
aVCALCITE-501
p1942
aVCALCITE-500
p1943
aVCALCITE-499
p1944
aVCALCITE-498
p1945
aVCALCITE-497
p1946
aVCALCITE-496
p1947
aVCALCITE-495
p1948
aVCALCITE-494
p1949
aVCALCITE-493
p1950
aVCALCITE-492
p1951
aVCALCITE-491
p1952
aVCALCITE-490
p1953
aVCALCITE-489
p1954
aVCALCITE-488
p1955
aVCALCITE-487
p1956
aVCALCITE-486
p1957
aVCALCITE-485
p1958
aVCALCITE-484
p1959
aVCALCITE-483
p1960
aVCALCITE-482
p1961
aVCALCITE-481
p1962
aVCALCITE-480
p1963
aVCALCITE-479
p1964
aVCALCITE-478
p1965
aVCALCITE-477
p1966
aVCALCITE-476
p1967
aVCALCITE-475
p1968
aVCALCITE-474
p1969
aVCALCITE-473
p1970
aVCALCITE-472
p1971
aVCALCITE-471
p1972
aVCALCITE-470
p1973
aVCALCITE-469
p1974
aVCALCITE-468
p1975
aVCALCITE-467
p1976
aVCALCITE-466
p1977
aVCALCITE-465
p1978
aVCALCITE-464
p1979
aVCALCITE-463
p1980
aVCALCITE-462
p1981
aVCALCITE-461
p1982
aVCALCITE-460
p1983
aVCALCITE-459
p1984
aVCALCITE-458
p1985
aVCALCITE-457
p1986
aVCALCITE-456
p1987
aVCALCITE-455
p1988
aVCALCITE-454
p1989
aVCALCITE-453
p1990
aVCALCITE-452
p1991
aVCALCITE-451
p1992
aVCALCITE-450
p1993
aVCALCITE-449
p1994
aVCALCITE-448
p1995
aVCALCITE-447
p1996
aVCALCITE-446
p1997
aVCALCITE-445
p1998
aVCALCITE-444
p1999
aVCALCITE-443
p2000
aVCALCITE-442
p2001
aVCALCITE-441
p2002
aVCALCITE-440
p2003
aVCALCITE-439
p2004
aVCALCITE-438
p2005
aVCALCITE-437
p2006
aVCALCITE-436
p2007
aVCALCITE-435
p2008
aVCALCITE-434
p2009
aVCALCITE-433
p2010
aVCALCITE-432
p2011
aVCALCITE-431
p2012
aVCALCITE-430
p2013
aVCALCITE-429
p2014
aVCALCITE-428
p2015
aVCALCITE-427
p2016
aVCALCITE-426
p2017
aVCALCITE-425
p2018
aVCALCITE-424
p2019
aVCALCITE-423
p2020
aVCALCITE-422
p2021
aVCALCITE-421
p2022
aVCALCITE-420
p2023
aVCALCITE-419
p2024
aVCALCITE-418
p2025
aVCALCITE-417
p2026
aVCALCITE-416
p2027
aVCALCITE-415
p2028
aVCALCITE-414
p2029
aVCALCITE-413
p2030
aVCALCITE-412
p2031
aVCALCITE-411
p2032
aVCALCITE-410
p2033
aVCALCITE-409
p2034
aVCALCITE-408
p2035
aVCALCITE-407
p2036
aVCALCITE-406
p2037
aVCALCITE-405
p2038
aVCALCITE-404
p2039
aVCALCITE-403
p2040
aVCALCITE-402
p2041
aVCALCITE-401
p2042
aVCALCITE-400
p2043
aVCALCITE-399
p2044
aVCALCITE-398
p2045
aVCALCITE-397
p2046
aVCALCITE-396
p2047
aVCALCITE-395
p2048
aVCALCITE-394
p2049
aVCALCITE-393
p2050
aVCALCITE-392
p2051
aVCALCITE-391
p2052
aVCALCITE-390
p2053
aVCALCITE-389
p2054
aVCALCITE-388
p2055
aVCALCITE-387
p2056
aVCALCITE-386
p2057
aVCALCITE-385
p2058
aVCALCITE-384
p2059
aVCALCITE-383
p2060
aVCALCITE-382
p2061
aVCALCITE-381
p2062
aVCALCITE-380
p2063
aVCALCITE-379
p2064
aVCALCITE-378
p2065
aVCALCITE-377
p2066
aVCALCITE-376
p2067
aVCALCITE-375
p2068
aVCALCITE-374
p2069
aVCALCITE-373
p2070
aVCALCITE-372
p2071
aVCALCITE-371
p2072
aVCALCITE-370
p2073
aVCALCITE-369
p2074
aVCALCITE-368
p2075
aVCALCITE-367
p2076
aVCALCITE-366
p2077
aVCALCITE-365
p2078
aVCALCITE-364
p2079
aVCALCITE-363
p2080
aVCALCITE-362
p2081
aVCALCITE-361
p2082
aVCALCITE-360
p2083
aVCALCITE-359
p2084
aVCALCITE-358
p2085
aVCALCITE-357
p2086
aVCALCITE-356
p2087
aVCALCITE-355
p2088
aVCALCITE-354
p2089
aVCALCITE-353
p2090
aVCALCITE-352
p2091
aVCALCITE-351
p2092
aVCALCITE-350
p2093
aVCALCITE-349
p2094
aVCALCITE-348
p2095
aVCALCITE-347
p2096
aVCALCITE-346
p2097
aVCALCITE-345
p2098
aVCALCITE-344
p2099
aVCALCITE-343
p2100
aVCALCITE-342
p2101
aVCALCITE-341
p2102
aVCALCITE-340
p2103
aVCALCITE-339
p2104
aVCALCITE-338
p2105
aVCALCITE-337
p2106
aVCALCITE-336
p2107
aVCALCITE-335
p2108
aVCALCITE-334
p2109
aVCALCITE-333
p2110
aVCALCITE-332
p2111
aVCALCITE-331
p2112
aVCALCITE-330
p2113
aVCALCITE-329
p2114
aVCALCITE-328
p2115
aVCALCITE-327
p2116
aVCALCITE-326
p2117
aVCALCITE-325
p2118
aVCALCITE-324
p2119
aVCALCITE-323
p2120
aVCALCITE-322
p2121
aVCALCITE-321
p2122
aVCALCITE-320
p2123
aVCALCITE-319
p2124
aVCALCITE-318
p2125
aVCALCITE-317
p2126
aVCALCITE-316
p2127
aVCALCITE-315
p2128
aVCALCITE-314
p2129
aVCALCITE-313
p2130
aVCALCITE-312
p2131
aVCALCITE-311
p2132
aVCALCITE-310
p2133
aVCALCITE-309
p2134
aVCALCITE-308
p2135
aVCALCITE-307
p2136
aVCALCITE-306
p2137
aVCALCITE-305
p2138
aVCALCITE-304
p2139
aVCALCITE-303
p2140
aVCALCITE-302
p2141
aVCALCITE-301
p2142
aVCALCITE-300
p2143
aVCALCITE-299
p2144
aVCALCITE-298
p2145
aVCALCITE-297
p2146
aVCALCITE-296
p2147
aVCALCITE-295
p2148
aVCALCITE-294
p2149
aVCALCITE-293
p2150
aVCALCITE-292
p2151
aVCALCITE-291
p2152
aVCALCITE-290
p2153
aVCALCITE-289
p2154
aVCALCITE-288
p2155
aVCALCITE-287
p2156
aVCALCITE-286
p2157
aVCALCITE-285
p2158
aVCALCITE-284
p2159
aVCALCITE-283
p2160
aVCALCITE-282
p2161
aVCALCITE-281
p2162
aVCALCITE-280
p2163
aVCALCITE-279
p2164
aVCALCITE-278
p2165
aVCALCITE-277
p2166
aVCALCITE-276
p2167
aVCALCITE-275
p2168
aVCALCITE-274
p2169
aVCALCITE-273
p2170
aVCALCITE-272
p2171
aVCALCITE-271
p2172
aVCALCITE-270
p2173
aVCALCITE-269
p2174
aVCALCITE-268
p2175
aVCALCITE-267
p2176
aVCALCITE-266
p2177
aVCALCITE-265
p2178
aVCALCITE-264
p2179
aVCALCITE-263
p2180
aVCALCITE-262
p2181
aVCALCITE-261
p2182
aVCALCITE-260
p2183
aVCALCITE-259
p2184
aVCALCITE-258
p2185
aVCALCITE-257
p2186
aVCALCITE-256
p2187
aVCALCITE-255
p2188
aVCALCITE-254
p2189
aVCALCITE-253
p2190
aVCALCITE-252
p2191
aVCALCITE-251
p2192
aVCALCITE-250
p2193
aVCALCITE-249
p2194
aVCALCITE-248
p2195
aVCALCITE-247
p2196
aVCALCITE-246
p2197
aVCALCITE-245
p2198
aVCALCITE-244
p2199
aVCALCITE-243
p2200
aVCALCITE-242
p2201
aVCALCITE-241
p2202
aVCALCITE-240
p2203
aVCALCITE-239
p2204
aVCALCITE-238
p2205
aVCALCITE-237
p2206
aVCALCITE-236
p2207
aVCALCITE-235
p2208
aVCALCITE-234
p2209
aVCALCITE-233
p2210
aVCALCITE-232
p2211
aVCALCITE-231
p2212
aVCALCITE-230
p2213
aVCALCITE-229
p2214
aVCALCITE-228
p2215
aVCALCITE-227
p2216
aVCALCITE-226
p2217
aVCALCITE-225
p2218
aVCALCITE-224
p2219
aVCALCITE-223
p2220
aVCALCITE-222
p2221
aVCALCITE-221
p2222
aVCALCITE-220
p2223
aVCALCITE-219
p2224
aVCALCITE-218
p2225
aVCALCITE-217
p2226
aVCALCITE-216
p2227
aVCALCITE-215
p2228
aVCALCITE-214
p2229
aVCALCITE-213
p2230
aVCALCITE-212
p2231
aVCALCITE-211
p2232
aVCALCITE-210
p2233
aVCALCITE-209
p2234
aVCALCITE-208
p2235
aVCALCITE-207
p2236
aVCALCITE-206
p2237
aVCALCITE-205
p2238
aVCALCITE-204
p2239
aVCALCITE-203
p2240
aVCALCITE-202
p2241
aVCALCITE-201
p2242
aVCALCITE-200
p2243
aVCALCITE-199
p2244
aVCALCITE-198
p2245
aVCALCITE-197
p2246
aVCALCITE-196
p2247
aVCALCITE-195
p2248
aVCALCITE-194
p2249
aVCALCITE-193
p2250
aVCALCITE-192
p2251
aVCALCITE-191
p2252
aVCALCITE-190
p2253
aVCALCITE-189
p2254
aVCALCITE-188
p2255
aVCALCITE-187
p2256
aVCALCITE-186
p2257
aVCALCITE-185
p2258
aVCALCITE-184
p2259
aVCALCITE-183
p2260
aVCALCITE-182
p2261
aVCALCITE-181
p2262
aVCALCITE-180
p2263
aVCALCITE-179
p2264
aVCALCITE-178
p2265
aVCALCITE-177
p2266
aVCALCITE-176
p2267
aVCALCITE-175
p2268
aVCALCITE-174
p2269
aVCALCITE-173
p2270
aVCALCITE-172
p2271
aVCALCITE-171
p2272
aVCALCITE-170
p2273
aVCALCITE-169
p2274
aVCALCITE-168
p2275
aVCALCITE-167
p2276
aVCALCITE-166
p2277
aVCALCITE-165
p2278
aVCALCITE-164
p2279
aVCALCITE-163
p2280
aVCALCITE-162
p2281
aVCALCITE-161
p2282
aVCALCITE-160
p2283
aVCALCITE-159
p2284
aVCALCITE-158
p2285
aVCALCITE-157
p2286
aVCALCITE-156
p2287
aVCALCITE-155
p2288
aVCALCITE-154
p2289
aVCALCITE-153
p2290
aVCALCITE-152
p2291
aVCALCITE-151
p2292
aVCALCITE-150
p2293
aVCALCITE-149
p2294
aVCALCITE-148
p2295
aVCALCITE-147
p2296
aVCALCITE-146
p2297
aVCALCITE-145
p2298
aVCALCITE-144
p2299
aVCALCITE-143
p2300
aVCALCITE-142
p2301
aVCALCITE-141
p2302
aVCALCITE-140
p2303
aVCALCITE-139
p2304
aVCALCITE-138
p2305
aVCALCITE-137
p2306
aVCALCITE-136
p2307
aVCALCITE-135
p2308
aVCALCITE-134
p2309
aVCALCITE-133
p2310
aVCALCITE-132
p2311
aVCALCITE-131
p2312
aVCALCITE-130
p2313
aVCALCITE-129
p2314
aVCALCITE-128
p2315
aVCALCITE-127
p2316
aVCALCITE-126
p2317
aVCALCITE-125
p2318
aVCALCITE-124
p2319
aVCALCITE-123
p2320
aVCALCITE-122
p2321
aVCALCITE-121
p2322
aVCALCITE-120
p2323
aVCALCITE-119
p2324
aVCALCITE-118
p2325
aVCALCITE-117
p2326
aVCALCITE-116
p2327
aVCALCITE-115
p2328
aVCALCITE-114
p2329
aVCALCITE-113
p2330
aVCALCITE-112
p2331
aVCALCITE-111
p2332
aVCALCITE-110
p2333
aVCALCITE-109
p2334
aVCALCITE-108
p2335
aVCALCITE-107
p2336
aVCALCITE-106
p2337
aVCALCITE-105
p2338
aVCALCITE-104
p2339
aVCALCITE-103
p2340
aVCALCITE-102
p2341
aVCALCITE-101
p2342
aVCALCITE-100
p2343
aVCALCITE-99
p2344
aVCALCITE-98
p2345
aVCALCITE-97
p2346
aVCALCITE-96
p2347
aVCALCITE-95
p2348
aVCALCITE-94
p2349
aVCALCITE-93
p2350
aVCALCITE-92
p2351
aVCALCITE-91
p2352
aVCALCITE-90
p2353
aVCALCITE-89
p2354
aVCALCITE-88
p2355
aVCALCITE-87
p2356
aVCALCITE-86
p2357
aVCALCITE-85
p2358
aVCALCITE-84
p2359
aVCALCITE-83
p2360
aVCALCITE-82
p2361
aVCALCITE-81
p2362
aVCALCITE-80
p2363
aVCALCITE-79
p2364
aVCALCITE-78
p2365
aVCALCITE-77
p2366
aVCALCITE-76
p2367
aVCALCITE-75
p2368
aVCALCITE-74
p2369
aVCALCITE-73
p2370
aVCALCITE-72
p2371
aVCALCITE-71
p2372
aVCALCITE-70
p2373
aVCALCITE-69
p2374
aVCALCITE-68
p2375
aVCALCITE-67
p2376
aVCALCITE-66
p2377
aVCALCITE-65
p2378
aVCALCITE-64
p2379
aVCALCITE-63
p2380
aVCALCITE-62
p2381
aVCALCITE-61
p2382
aVCALCITE-60
p2383
aVCALCITE-59
p2384
aVCALCITE-58
p2385
aVCALCITE-57
p2386
aVCALCITE-56
p2387
aVCALCITE-55
p2388
aVCALCITE-54
p2389
aVCALCITE-53
p2390
aVCALCITE-52
p2391
aVCALCITE-51
p2392
aVCALCITE-50
p2393
aVCALCITE-49
p2394
aVCALCITE-48
p2395
aVCALCITE-47
p2396
aVCALCITE-46
p2397
aVCALCITE-45
p2398
aVCALCITE-44
p2399
aVCALCITE-43
p2400
aVCALCITE-42
p2401
aVCALCITE-41
p2402
aVCALCITE-40
p2403
aVCALCITE-39
p2404
aVCALCITE-38
p2405
aVCALCITE-37
p2406
aVCALCITE-36
p2407
aVCALCITE-35
p2408
aVCALCITE-34
p2409
aVCALCITE-33
p2410
aVCALCITE-32
p2411
aVCALCITE-31
p2412
aVCALCITE-30
p2413
aVCALCITE-29
p2414
aVCALCITE-28
p2415
aVCALCITE-27
p2416
aVCALCITE-26
p2417
aVCALCITE-25
p2418
aVCALCITE-24
p2419
aVCALCITE-23
p2420
aVCALCITE-22
p2421
aVCALCITE-21
p2422
aVCALCITE-20
p2423
aVCALCITE-19
p2424
aVCALCITE-18
p2425
aVCALCITE-17
p2426
aVCALCITE-16
p2427
aVCALCITE-15
p2428
aVCALCITE-14
p2429
aVCALCITE-13
p2430
aVCALCITE-12
p2431
aVCALCITE-11
p2432
aVCALCITE-10
p2433
aVCALCITE-9
p2434
aVCALCITE-8
p2435
aVCALCITE-7
p2436
aVCALCITE-6
p2437
aVCALCITE-5
p2438
aVCALCITE-4
p2439
aVCALCITE-3
p2440
aVCALCITE-2
p2441
aVCALCITE-1
p2442
a.