(lp0
VCAY-2447
p1
aVCAY-2446
p2
aVCAY-2445
p3
aVCAY-2444
p4
aVCAY-2443
p5
aVCAY-2442
p6
aVCAY-2441
p7
aVCAY-2440
p8
aVCAY-2439
p9
aVCAY-2438
p10
aVCAY-2437
p11
aVCAY-2436
p12
aVCAY-2435
p13
aVCAY-2434
p14
aVCAY-2433
p15
aVCAY-2432
p16
aVCAY-2431
p17
aVCAY-2430
p18
aVCAY-2429
p19
aVCAY-2428
p20
aVCAY-2427
p21
aVCAY-2426
p22
aVCAY-2425
p23
aVCAY-2424
p24
aVCAY-2423
p25
aVCAY-2422
p26
aVCAY-2421
p27
aVCAY-2420
p28
aVCAY-2419
p29
aVCAY-2418
p30
aVCAY-2417
p31
aVCAY-2416
p32
aVCAY-2415
p33
aVCAY-2414
p34
aVCAY-2413
p35
aVCAY-2412
p36
aVCAY-2411
p37
aVCAY-2410
p38
aVCAY-2409
p39
aVCAY-2408
p40
aVCAY-2407
p41
aVCAY-2406
p42
aVCAY-2405
p43
aVCAY-2404
p44
aVCAY-2403
p45
aVCAY-2402
p46
aVCAY-2401
p47
aVCAY-2400
p48
aVCAY-2399
p49
aVCAY-2398
p50
aVCAY-2397
p51
aVCAY-2396
p52
aVCAY-2395
p53
aVCAY-2394
p54
aVCAY-2393
p55
aVCAY-2392
p56
aVCAY-2391
p57
aVCAY-2390
p58
aVCAY-2389
p59
aVCAY-2388
p60
aVCAY-2387
p61
aVCAY-2386
p62
aVCAY-2385
p63
aVCAY-2384
p64
aVCAY-2383
p65
aVCAY-2382
p66
aVCAY-2381
p67
aVCAY-2380
p68
aVCAY-2379
p69
aVCAY-2378
p70
aVCAY-2377
p71
aVCAY-2376
p72
aVCAY-2375
p73
aVCAY-2374
p74
aVCAY-2373
p75
aVCAY-2372
p76
aVCAY-2371
p77
aVCAY-2370
p78
aVCAY-2369
p79
aVCAY-2368
p80
aVCAY-2367
p81
aVCAY-2366
p82
aVCAY-2365
p83
aVCAY-2364
p84
aVCAY-2363
p85
aVCAY-2362
p86
aVCAY-2361
p87
aVCAY-2360
p88
aVCAY-2359
p89
aVCAY-2358
p90
aVCAY-2357
p91
aVCAY-2356
p92
aVCAY-2355
p93
aVCAY-2354
p94
aVCAY-2353
p95
aVCAY-2352
p96
aVCAY-2351
p97
aVCAY-2350
p98
aVCAY-2349
p99
aVCAY-2348
p100
aVCAY-2347
p101
aVCAY-2346
p102
aVCAY-2345
p103
aVCAY-2344
p104
aVCAY-2343
p105
aVCAY-2342
p106
aVCAY-2341
p107
aVCAY-2340
p108
aVCAY-2339
p109
aVCAY-2338
p110
aVCAY-2337
p111
aVCAY-2336
p112
aVCAY-2335
p113
aVCAY-2334
p114
aVCAY-2333
p115
aVCAY-2332
p116
aVCAY-2331
p117
aVCAY-2330
p118
aVCAY-2329
p119
aVCAY-2328
p120
aVCAY-2327
p121
aVCAY-2326
p122
aVCAY-2325
p123
aVCAY-2324
p124
aVCAY-2323
p125
aVCAY-2322
p126
aVCAY-2321
p127
aVCAY-2320
p128
aVCAY-2319
p129
aVCAY-2318
p130
aVCAY-2317
p131
aVCAY-2316
p132
aVCAY-2315
p133
aVCAY-2314
p134
aVCAY-2313
p135
aVCAY-2312
p136
aVCAY-2311
p137
aVCAY-2310
p138
aVCAY-2309
p139
aVCAY-2308
p140
aVCAY-2307
p141
aVCAY-2306
p142
aVCAY-2305
p143
aVCAY-2304
p144
aVCAY-2303
p145
aVCAY-2302
p146
aVCAY-2301
p147
aVCAY-2300
p148
aVCAY-2299
p149
aVCAY-2298
p150
aVCAY-2297
p151
aVCAY-2296
p152
aVCAY-2295
p153
aVCAY-2294
p154
aVCAY-2293
p155
aVCAY-2292
p156
aVCAY-2291
p157
aVCAY-2290
p158
aVCAY-2289
p159
aVCAY-2288
p160
aVCAY-2287
p161
aVCAY-2286
p162
aVCAY-2285
p163
aVCAY-2284
p164
aVCAY-2283
p165
aVCAY-2282
p166
aVCAY-2281
p167
aVCAY-2280
p168
aVCAY-2279
p169
aVCAY-2278
p170
aVCAY-2277
p171
aVCAY-2276
p172
aVCAY-2275
p173
aVCAY-2274
p174
aVCAY-2273
p175
aVCAY-2272
p176
aVCAY-2271
p177
aVCAY-2270
p178
aVCAY-2269
p179
aVCAY-2268
p180
aVCAY-2267
p181
aVCAY-2266
p182
aVCAY-2265
p183
aVCAY-2264
p184
aVCAY-2263
p185
aVCAY-2262
p186
aVCAY-2261
p187
aVCAY-2260
p188
aVCAY-2259
p189
aVCAY-2258
p190
aVCAY-2257
p191
aVCAY-2256
p192
aVCAY-2255
p193
aVCAY-2254
p194
aVCAY-2253
p195
aVCAY-2252
p196
aVCAY-2251
p197
aVCAY-2250
p198
aVCAY-2249
p199
aVCAY-2248
p200
aVCAY-2247
p201
aVCAY-2246
p202
aVCAY-2245
p203
aVCAY-2244
p204
aVCAY-2243
p205
aVCAY-2242
p206
aVCAY-2241
p207
aVCAY-2240
p208
aVCAY-2239
p209
aVCAY-2238
p210
aVCAY-2237
p211
aVCAY-2236
p212
aVCAY-2235
p213
aVCAY-2234
p214
aVCAY-2233
p215
aVCAY-2232
p216
aVCAY-2231
p217
aVCAY-2230
p218
aVCAY-2229
p219
aVCAY-2228
p220
aVCAY-2227
p221
aVCAY-2226
p222
aVCAY-2225
p223
aVCAY-2224
p224
aVCAY-2223
p225
aVCAY-2222
p226
aVCAY-2221
p227
aVCAY-2220
p228
aVCAY-2219
p229
aVCAY-2218
p230
aVCAY-2217
p231
aVCAY-2216
p232
aVCAY-2215
p233
aVCAY-2214
p234
aVCAY-2213
p235
aVCAY-2212
p236
aVCAY-2211
p237
aVCAY-2210
p238
aVCAY-2209
p239
aVCAY-2208
p240
aVCAY-2207
p241
aVCAY-2206
p242
aVCAY-2205
p243
aVCAY-2204
p244
aVCAY-2203
p245
aVCAY-2202
p246
aVCAY-2200
p247
aVCAY-2199
p248
aVCAY-2198
p249
aVCAY-2197
p250
aVCAY-2196
p251
aVCAY-2195
p252
aVCAY-2194
p253
aVCAY-2193
p254
aVCAY-2192
p255
aVCAY-2191
p256
aVCAY-2190
p257
aVCAY-2189
p258
aVCAY-2188
p259
aVCAY-2187
p260
aVCAY-2186
p261
aVCAY-2185
p262
aVCAY-2184
p263
aVCAY-2183
p264
aVCAY-2182
p265
aVCAY-2181
p266
aVCAY-2180
p267
aVCAY-2179
p268
aVCAY-2178
p269
aVCAY-2177
p270
aVCAY-2176
p271
aVCAY-2175
p272
aVCAY-2174
p273
aVCAY-2173
p274
aVCAY-2172
p275
aVCAY-2171
p276
aVCAY-2170
p277
aVCAY-2169
p278
aVCAY-2168
p279
aVCAY-2167
p280
aVCAY-2166
p281
aVCAY-2165
p282
aVCAY-2164
p283
aVCAY-2163
p284
aVCAY-2162
p285
aVCAY-2161
p286
aVCAY-2160
p287
aVCAY-2159
p288
aVCAY-2158
p289
aVCAY-2157
p290
aVCAY-2156
p291
aVCAY-2155
p292
aVCAY-2154
p293
aVCAY-2153
p294
aVCAY-2152
p295
aVCAY-2151
p296
aVCAY-2150
p297
aVCAY-2149
p298
aVCAY-2148
p299
aVCAY-2147
p300
aVCAY-2146
p301
aVCAY-2145
p302
aVCAY-2144
p303
aVCAY-2143
p304
aVCAY-2142
p305
aVCAY-2141
p306
aVCAY-2140
p307
aVCAY-2139
p308
aVCAY-2138
p309
aVCAY-2137
p310
aVCAY-2136
p311
aVCAY-2135
p312
aVCAY-2134
p313
aVCAY-2133
p314
aVCAY-2132
p315
aVCAY-2131
p316
aVCAY-2130
p317
aVCAY-2129
p318
aVCAY-2128
p319
aVCAY-2127
p320
aVCAY-2126
p321
aVCAY-2125
p322
aVCAY-2124
p323
aVCAY-2123
p324
aVCAY-2122
p325
aVCAY-2121
p326
aVCAY-2120
p327
aVCAY-2119
p328
aVCAY-2118
p329
aVCAY-2117
p330
aVCAY-2116
p331
aVCAY-2115
p332
aVCAY-2114
p333
aVCAY-2113
p334
aVCAY-2112
p335
aVCAY-2111
p336
aVCAY-2110
p337
aVCAY-2109
p338
aVCAY-2108
p339
aVCAY-2107
p340
aVCAY-2106
p341
aVCAY-2105
p342
aVCAY-2104
p343
aVCAY-2103
p344
aVCAY-2102
p345
aVCAY-2101
p346
aVCAY-2100
p347
aVCAY-2099
p348
aVCAY-2098
p349
aVCAY-2097
p350
aVCAY-2096
p351
aVCAY-2095
p352
aVCAY-2094
p353
aVCAY-2093
p354
aVCAY-2092
p355
aVCAY-2091
p356
aVCAY-2090
p357
aVCAY-2089
p358
aVCAY-2088
p359
aVCAY-2087
p360
aVCAY-2086
p361
aVCAY-2085
p362
aVCAY-2084
p363
aVCAY-2083
p364
aVCAY-2082
p365
aVCAY-2081
p366
aVCAY-2080
p367
aVCAY-2079
p368
aVCAY-2078
p369
aVCAY-2077
p370
aVCAY-2076
p371
aVCAY-2075
p372
aVCAY-2074
p373
aVCAY-2073
p374
aVCAY-2072
p375
aVCAY-2071
p376
aVCAY-2070
p377
aVCAY-2069
p378
aVCAY-2068
p379
aVCAY-2067
p380
aVCAY-2066
p381
aVCAY-2065
p382
aVCAY-2064
p383
aVCAY-2063
p384
aVCAY-2062
p385
aVCAY-2061
p386
aVCAY-2060
p387
aVCAY-2059
p388
aVCAY-2058
p389
aVCAY-2057
p390
aVCAY-2056
p391
aVCAY-2055
p392
aVCAY-2054
p393
aVCAY-2053
p394
aVCAY-2052
p395
aVCAY-2051
p396
aVCAY-2050
p397
aVCAY-2049
p398
aVCAY-2048
p399
aVCAY-2047
p400
aVCAY-2046
p401
aVCAY-2045
p402
aVCAY-2044
p403
aVCAY-2043
p404
aVCAY-2042
p405
aVCAY-2041
p406
aVCAY-2040
p407
aVCAY-2039
p408
aVCAY-2038
p409
aVCAY-2037
p410
aVCAY-2036
p411
aVCAY-2035
p412
aVCAY-2034
p413
aVCAY-2033
p414
aVCAY-2032
p415
aVCAY-2031
p416
aVCAY-2030
p417
aVCAY-2029
p418
aVCAY-2028
p419
aVCAY-2027
p420
aVCAY-2026
p421
aVCAY-2025
p422
aVCAY-2024
p423
aVCAY-2023
p424
aVCAY-2022
p425
aVCAY-2021
p426
aVCAY-2020
p427
aVCAY-2019
p428
aVCAY-2018
p429
aVCAY-2017
p430
aVCAY-2016
p431
aVCAY-2015
p432
aVCAY-2014
p433
aVCAY-2013
p434
aVCAY-2012
p435
aVCAY-2011
p436
aVCAY-2010
p437
aVCAY-2009
p438
aVCAY-2008
p439
aVCAY-2007
p440
aVCAY-2006
p441
aVCAY-2005
p442
aVCAY-2004
p443
aVCAY-2003
p444
aVCAY-2002
p445
aVCAY-2001
p446
aVCAY-2000
p447
aVCAY-1999
p448
aVCAY-1998
p449
aVCAY-1997
p450
aVCAY-1996
p451
aVCAY-1995
p452
aVCAY-1994
p453
aVCAY-1993
p454
aVCAY-1992
p455
aVCAY-1991
p456
aVCAY-1990
p457
aVCAY-1989
p458
aVCAY-1988
p459
aVCAY-1987
p460
aVCAY-1986
p461
aVCAY-1985
p462
aVCAY-1984
p463
aVCAY-1983
p464
aVCAY-1982
p465
aVCAY-1981
p466
aVCAY-1980
p467
aVCAY-1979
p468
aVCAY-1978
p469
aVCAY-1977
p470
aVCAY-1976
p471
aVCAY-1975
p472
aVCAY-1974
p473
aVCAY-1973
p474
aVCAY-1972
p475
aVCAY-1971
p476
aVCAY-1970
p477
aVCAY-1969
p478
aVCAY-1968
p479
aVCAY-1967
p480
aVCAY-1966
p481
aVCAY-1965
p482
aVCAY-1964
p483
aVCAY-1963
p484
aVCAY-1962
p485
aVCAY-1961
p486
aVCAY-1960
p487
aVCAY-1959
p488
aVCAY-1958
p489
aVCAY-1957
p490
aVCAY-1956
p491
aVCAY-1955
p492
aVCAY-1954
p493
aVCAY-1953
p494
aVCAY-1952
p495
aVCAY-1951
p496
aVCAY-1950
p497
aVCAY-1949
p498
aVCAY-1948
p499
aVCAY-1947
p500
aVCAY-1946
p501
aVCAY-1945
p502
aVCAY-1944
p503
aVCAY-1943
p504
aVCAY-1942
p505
aVCAY-1941
p506
aVCAY-1940
p507
aVCAY-1939
p508
aVCAY-1938
p509
aVCAY-1937
p510
aVCAY-1936
p511
aVCAY-1935
p512
aVCAY-1934
p513
aVCAY-1933
p514
aVCAY-1932
p515
aVCAY-1931
p516
aVCAY-1930
p517
aVCAY-1929
p518
aVCAY-1928
p519
aVCAY-1927
p520
aVCAY-1926
p521
aVCAY-1925
p522
aVCAY-1924
p523
aVCAY-1923
p524
aVCAY-1922
p525
aVCAY-1921
p526
aVCAY-1920
p527
aVCAY-1919
p528
aVCAY-1918
p529
aVCAY-1917
p530
aVCAY-1916
p531
aVCAY-1915
p532
aVCAY-1914
p533
aVCAY-1913
p534
aVCAY-1912
p535
aVCAY-1911
p536
aVCAY-1910
p537
aVCAY-1909
p538
aVCAY-1908
p539
aVCAY-1907
p540
aVCAY-1906
p541
aVCAY-1905
p542
aVCAY-1904
p543
aVCAY-1903
p544
aVCAY-1902
p545
aVCAY-1901
p546
aVCAY-1900
p547
aVCAY-1899
p548
aVCAY-1898
p549
aVCAY-1897
p550
aVCAY-1896
p551
aVCAY-1895
p552
aVCAY-1894
p553
aVCAY-1893
p554
aVCAY-1892
p555
aVCAY-1891
p556
aVCAY-1890
p557
aVCAY-1889
p558
aVCAY-1888
p559
aVCAY-1887
p560
aVCAY-1886
p561
aVCAY-1885
p562
aVCAY-1884
p563
aVCAY-1883
p564
aVCAY-1882
p565
aVCAY-1881
p566
aVCAY-1880
p567
aVCAY-1879
p568
aVCAY-1878
p569
aVCAY-1877
p570
aVCAY-1876
p571
aVCAY-1875
p572
aVCAY-1874
p573
aVCAY-1873
p574
aVCAY-1872
p575
aVCAY-1871
p576
aVCAY-1870
p577
aVCAY-1869
p578
aVCAY-1868
p579
aVCAY-1867
p580
aVCAY-1866
p581
aVCAY-1865
p582
aVCAY-1864
p583
aVCAY-1863
p584
aVCAY-1862
p585
aVCAY-1861
p586
aVCAY-1860
p587
aVCAY-1859
p588
aVCAY-1858
p589
aVCAY-1857
p590
aVCAY-1856
p591
aVCAY-1855
p592
aVCAY-1854
p593
aVCAY-1853
p594
aVCAY-1852
p595
aVCAY-1851
p596
aVCAY-1850
p597
aVCAY-1849
p598
aVCAY-1848
p599
aVCAY-1847
p600
aVCAY-1846
p601
aVCAY-1845
p602
aVCAY-1844
p603
aVCAY-1843
p604
aVCAY-1842
p605
aVCAY-1841
p606
aVCAY-1840
p607
aVCAY-1839
p608
aVCAY-1838
p609
aVCAY-1837
p610
aVCAY-1836
p611
aVCAY-1835
p612
aVCAY-1834
p613
aVCAY-1833
p614
aVCAY-1832
p615
aVCAY-1831
p616
aVCAY-1830
p617
aVCAY-1829
p618
aVCAY-1828
p619
aVCAY-1827
p620
aVCAY-1826
p621
aVCAY-1825
p622
aVCAY-1824
p623
aVCAY-1823
p624
aVCAY-1822
p625
aVCAY-1821
p626
aVCAY-1820
p627
aVCAY-1819
p628
aVCAY-1818
p629
aVCAY-1817
p630
aVCAY-1816
p631
aVCAY-1815
p632
aVCAY-1814
p633
aVCAY-1813
p634
aVCAY-1812
p635
aVCAY-1811
p636
aVCAY-1810
p637
aVCAY-1809
p638
aVCAY-1808
p639
aVCAY-1807
p640
aVCAY-1806
p641
aVCAY-1805
p642
aVCAY-1804
p643
aVCAY-1803
p644
aVCAY-1802
p645
aVCAY-1801
p646
aVCAY-1800
p647
aVCAY-1799
p648
aVCAY-1798
p649
aVCAY-1797
p650
aVCAY-1796
p651
aVCAY-1795
p652
aVCAY-1794
p653
aVCAY-1793
p654
aVCAY-1792
p655
aVCAY-1791
p656
aVCAY-1790
p657
aVCAY-1789
p658
aVCAY-1788
p659
aVCAY-1787
p660
aVCAY-1786
p661
aVCAY-1785
p662
aVCAY-1784
p663
aVCAY-1783
p664
aVCAY-1782
p665
aVCAY-1781
p666
aVCAY-1780
p667
aVCAY-1779
p668
aVCAY-1778
p669
aVCAY-1777
p670
aVCAY-1776
p671
aVCAY-1775
p672
aVCAY-1774
p673
aVCAY-1773
p674
aVCAY-1772
p675
aVCAY-1771
p676
aVCAY-1770
p677
aVCAY-1769
p678
aVCAY-1768
p679
aVCAY-1767
p680
aVCAY-1766
p681
aVCAY-1765
p682
aVCAY-1764
p683
aVCAY-1763
p684
aVCAY-1762
p685
aVCAY-1761
p686
aVCAY-1760
p687
aVCAY-1759
p688
aVCAY-1758
p689
aVCAY-1757
p690
aVCAY-1756
p691
aVCAY-1755
p692
aVCAY-1754
p693
aVCAY-1753
p694
aVCAY-1752
p695
aVCAY-1751
p696
aVCAY-1750
p697
aVCAY-1749
p698
aVCAY-1748
p699
aVCAY-1747
p700
aVCAY-1746
p701
aVCAY-1745
p702
aVCAY-1744
p703
aVCAY-1743
p704
aVCAY-1742
p705
aVCAY-1741
p706
aVCAY-1740
p707
aVCAY-1739
p708
aVCAY-1738
p709
aVCAY-1737
p710
aVCAY-1736
p711
aVCAY-1735
p712
aVCAY-1734
p713
aVCAY-1733
p714
aVCAY-1732
p715
aVCAY-1731
p716
aVCAY-1730
p717
aVCAY-1729
p718
aVCAY-1728
p719
aVCAY-1727
p720
aVCAY-1726
p721
aVCAY-1725
p722
aVCAY-1724
p723
aVCAY-1723
p724
aVCAY-1722
p725
aVCAY-1721
p726
aVCAY-1720
p727
aVCAY-1719
p728
aVCAY-1718
p729
aVCAY-1717
p730
aVCAY-1716
p731
aVCAY-1715
p732
aVCAY-1714
p733
aVCAY-1713
p734
aVCAY-1712
p735
aVCAY-1711
p736
aVCAY-1710
p737
aVCAY-1709
p738
aVCAY-1708
p739
aVCAY-1707
p740
aVCAY-1706
p741
aVCAY-1705
p742
aVCAY-1704
p743
aVCAY-1703
p744
aVCAY-1702
p745
aVCAY-1701
p746
aVCAY-1700
p747
aVCAY-1699
p748
aVCAY-1698
p749
aVCAY-1697
p750
aVCAY-1696
p751
aVCAY-1695
p752
aVCAY-1694
p753
aVCAY-1693
p754
aVCAY-1692
p755
aVCAY-1691
p756
aVCAY-1690
p757
aVCAY-1689
p758
aVCAY-1688
p759
aVCAY-1687
p760
aVCAY-1686
p761
aVCAY-1685
p762
aVCAY-1684
p763
aVCAY-1683
p764
aVCAY-1682
p765
aVCAY-1681
p766
aVCAY-1680
p767
aVCAY-1679
p768
aVCAY-1678
p769
aVCAY-1677
p770
aVCAY-1676
p771
aVCAY-1675
p772
aVCAY-1674
p773
aVCAY-1673
p774
aVCAY-1672
p775
aVCAY-1671
p776
aVCAY-1670
p777
aVCAY-1669
p778
aVCAY-1668
p779
aVCAY-1667
p780
aVCAY-1666
p781
aVCAY-1665
p782
aVCAY-1664
p783
aVCAY-1663
p784
aVCAY-1662
p785
aVCAY-1661
p786
aVCAY-1660
p787
aVCAY-1659
p788
aVCAY-1658
p789
aVCAY-1657
p790
aVCAY-1656
p791
aVCAY-1655
p792
aVCAY-1654
p793
aVCAY-1653
p794
aVCAY-1652
p795
aVCAY-1651
p796
aVCAY-1650
p797
aVCAY-1649
p798
aVCAY-1648
p799
aVCAY-1647
p800
aVCAY-1646
p801
aVCAY-1645
p802
aVCAY-1644
p803
aVCAY-1643
p804
aVCAY-1642
p805
aVCAY-1641
p806
aVCAY-1640
p807
aVCAY-1639
p808
aVCAY-1638
p809
aVCAY-1637
p810
aVCAY-1636
p811
aVCAY-1635
p812
aVCAY-1634
p813
aVCAY-1633
p814
aVCAY-1632
p815
aVCAY-1631
p816
aVCAY-1630
p817
aVCAY-1629
p818
aVCAY-1628
p819
aVCAY-1627
p820
aVCAY-1626
p821
aVCAY-1625
p822
aVCAY-1624
p823
aVCAY-1623
p824
aVCAY-1622
p825
aVCAY-1621
p826
aVCAY-1620
p827
aVCAY-1619
p828
aVCAY-1618
p829
aVCAY-1617
p830
aVCAY-1616
p831
aVCAY-1615
p832
aVCAY-1614
p833
aVCAY-1613
p834
aVCAY-1612
p835
aVCAY-1611
p836
aVCAY-1610
p837
aVCAY-1609
p838
aVCAY-1608
p839
aVCAY-1607
p840
aVCAY-1606
p841
aVCAY-1605
p842
aVCAY-1604
p843
aVCAY-1603
p844
aVCAY-1602
p845
aVCAY-1601
p846
aVCAY-1600
p847
aVCAY-1599
p848
aVCAY-1598
p849
aVCAY-1597
p850
aVCAY-1596
p851
aVCAY-1595
p852
aVCAY-1594
p853
aVCAY-1593
p854
aVCAY-1592
p855
aVCAY-1591
p856
aVCAY-1590
p857
aVCAY-1589
p858
aVCAY-1588
p859
aVCAY-1587
p860
aVCAY-1586
p861
aVCAY-1585
p862
aVCAY-1584
p863
aVCAY-1583
p864
aVCAY-1582
p865
aVCAY-1581
p866
aVCAY-1580
p867
aVCAY-1579
p868
aVCAY-1578
p869
aVCAY-1577
p870
aVCAY-1576
p871
aVCAY-1575
p872
aVCAY-1574
p873
aVCAY-1573
p874
aVCAY-1572
p875
aVCAY-1571
p876
aVCAY-1570
p877
aVCAY-1569
p878
aVCAY-1568
p879
aVCAY-1567
p880
aVCAY-1566
p881
aVCAY-1565
p882
aVCAY-1564
p883
aVCAY-1563
p884
aVCAY-1562
p885
aVCAY-1561
p886
aVCAY-1560
p887
aVCAY-1559
p888
aVCAY-1558
p889
aVCAY-1557
p890
aVCAY-1556
p891
aVCAY-1555
p892
aVCAY-1554
p893
aVCAY-1553
p894
aVCAY-1552
p895
aVCAY-1551
p896
aVCAY-1550
p897
aVCAY-1549
p898
aVCAY-1548
p899
aVCAY-1547
p900
aVCAY-1546
p901
aVCAY-1545
p902
aVCAY-1544
p903
aVCAY-1543
p904
aVCAY-1542
p905
aVCAY-1541
p906
aVCAY-1540
p907
aVCAY-1539
p908
aVCAY-1538
p909
aVCAY-1537
p910
aVCAY-1536
p911
aVCAY-1535
p912
aVCAY-1534
p913
aVCAY-1533
p914
aVCAY-1532
p915
aVCAY-1531
p916
aVCAY-1530
p917
aVCAY-1529
p918
aVCAY-1528
p919
aVCAY-1527
p920
aVCAY-1526
p921
aVCAY-1525
p922
aVCAY-1524
p923
aVCAY-1523
p924
aVCAY-1522
p925
aVCAY-1521
p926
aVCAY-1520
p927
aVCAY-1519
p928
aVCAY-1518
p929
aVCAY-1517
p930
aVCAY-1516
p931
aVCAY-1515
p932
aVCAY-1514
p933
aVCAY-1513
p934
aVCAY-1512
p935
aVCAY-1511
p936
aVCAY-1510
p937
aVCAY-1509
p938
aVCAY-1508
p939
aVCAY-1507
p940
aVCAY-1506
p941
aVCAY-1505
p942
aVCAY-1504
p943
aVCAY-1503
p944
aVCAY-1502
p945
aVCAY-1501
p946
aVCAY-1500
p947
aVCAY-1499
p948
aVCAY-1498
p949
aVCAY-1497
p950
aVCAY-1496
p951
aVCAY-1495
p952
aVCAY-1494
p953
aVCAY-1493
p954
aVCAY-1492
p955
aVCAY-1491
p956
aVCAY-1490
p957
aVCAY-1489
p958
aVCAY-1488
p959
aVCAY-1487
p960
aVCAY-1486
p961
aVCAY-1485
p962
aVCAY-1484
p963
aVCAY-1483
p964
aVCAY-1482
p965
aVCAY-1481
p966
aVCAY-1480
p967
aVCAY-1479
p968
aVCAY-1478
p969
aVCAY-1477
p970
aVCAY-1476
p971
aVCAY-1475
p972
aVCAY-1474
p973
aVCAY-1473
p974
aVCAY-1472
p975
aVCAY-1471
p976
aVCAY-1470
p977
aVCAY-1469
p978
aVCAY-1468
p979
aVCAY-1467
p980
aVCAY-1466
p981
aVCAY-1465
p982
aVCAY-1464
p983
aVCAY-1463
p984
aVCAY-1462
p985
aVCAY-1461
p986
aVCAY-1460
p987
aVCAY-1459
p988
aVCAY-1458
p989
aVCAY-1457
p990
aVCAY-1456
p991
aVCAY-1455
p992
aVCAY-1454
p993
aVCAY-1453
p994
aVCAY-1452
p995
aVCAY-1451
p996
aVCAY-1450
p997
aVCAY-1449
p998
aVCAY-1448
p999
aVCAY-1447
p1000
aVCAY-1446
p1001
aVCAY-1445
p1002
aVCAY-1444
p1003
aVCAY-1443
p1004
aVCAY-1442
p1005
aVCAY-1441
p1006
aVCAY-1440
p1007
aVCAY-1439
p1008
aVCAY-1438
p1009
aVCAY-1437
p1010
aVCAY-1436
p1011
aVCAY-1435
p1012
aVCAY-1434
p1013
aVCAY-1433
p1014
aVCAY-1432
p1015
aVCAY-1431
p1016
aVCAY-1430
p1017
aVCAY-1429
p1018
aVCAY-1428
p1019
aVCAY-1427
p1020
aVCAY-1426
p1021
aVCAY-1425
p1022
aVCAY-1424
p1023
aVCAY-1423
p1024
aVCAY-1422
p1025
aVCAY-1421
p1026
aVCAY-1420
p1027
aVCAY-1419
p1028
aVCAY-1418
p1029
aVCAY-1417
p1030
aVCAY-1416
p1031
aVCAY-1415
p1032
aVCAY-1414
p1033
aVCAY-1413
p1034
aVCAY-1412
p1035
aVCAY-1411
p1036
aVCAY-1410
p1037
aVCAY-1409
p1038
aVCAY-1408
p1039
aVCAY-1407
p1040
aVCAY-1406
p1041
aVCAY-1405
p1042
aVCAY-1404
p1043
aVCAY-1403
p1044
aVCAY-1402
p1045
aVCAY-1401
p1046
aVCAY-1400
p1047
aVCAY-1399
p1048
aVCAY-1398
p1049
aVCAY-1397
p1050
aVCAY-1396
p1051
aVCAY-1395
p1052
aVCAY-1394
p1053
aVCAY-1393
p1054
aVCAY-1392
p1055
aVCAY-1391
p1056
aVCAY-1390
p1057
aVCAY-1389
p1058
aVCAY-1388
p1059
aVCAY-1387
p1060
aVCAY-1386
p1061
aVCAY-1385
p1062
aVCAY-1384
p1063
aVCAY-1383
p1064
aVCAY-1382
p1065
aVCAY-1381
p1066
aVCAY-1380
p1067
aVCAY-1379
p1068
aVCAY-1378
p1069
aVCAY-1377
p1070
aVCAY-1376
p1071
aVCAY-1375
p1072
aVCAY-1374
p1073
aVCAY-1373
p1074
aVCAY-1372
p1075
aVCAY-1371
p1076
aVCAY-1370
p1077
aVCAY-1369
p1078
aVCAY-1368
p1079
aVCAY-1367
p1080
aVCAY-1366
p1081
aVCAY-1365
p1082
aVCAY-1364
p1083
aVCAY-1363
p1084
aVCAY-1362
p1085
aVCAY-1361
p1086
aVCAY-1360
p1087
aVCAY-1359
p1088
aVCAY-1358
p1089
aVCAY-1357
p1090
aVCAY-1356
p1091
aVCAY-1355
p1092
aVCAY-1354
p1093
aVCAY-1353
p1094
aVCAY-1352
p1095
aVCAY-1351
p1096
aVCAY-1350
p1097
aVCAY-1349
p1098
aVCAY-1348
p1099
aVCAY-1347
p1100
aVCAY-1346
p1101
aVCAY-1345
p1102
aVCAY-1344
p1103
aVCAY-1343
p1104
aVCAY-1342
p1105
aVCAY-1341
p1106
aVCAY-1340
p1107
aVCAY-1339
p1108
aVCAY-1338
p1109
aVCAY-1337
p1110
aVCAY-1336
p1111
aVCAY-1335
p1112
aVCAY-1334
p1113
aVCAY-1333
p1114
aVCAY-1332
p1115
aVCAY-1331
p1116
aVCAY-1330
p1117
aVCAY-1329
p1118
aVCAY-1328
p1119
aVCAY-1327
p1120
aVCAY-1326
p1121
aVCAY-1325
p1122
aVCAY-1324
p1123
aVCAY-1323
p1124
aVCAY-1322
p1125
aVCAY-1321
p1126
aVCAY-1320
p1127
aVCAY-1319
p1128
aVCAY-1318
p1129
aVCAY-1317
p1130
aVCAY-1316
p1131
aVCAY-1315
p1132
aVCAY-1314
p1133
aVCAY-1313
p1134
aVCAY-1312
p1135
aVCAY-1311
p1136
aVCAY-1310
p1137
aVCAY-1309
p1138
aVCAY-1308
p1139
aVCAY-1307
p1140
aVCAY-1306
p1141
aVCAY-1305
p1142
aVCAY-1304
p1143
aVCAY-1303
p1144
aVCAY-1302
p1145
aVCAY-1301
p1146
aVCAY-1300
p1147
aVCAY-1299
p1148
aVCAY-1298
p1149
aVCAY-1297
p1150
aVCAY-1296
p1151
aVCAY-1295
p1152
aVCAY-1294
p1153
aVCAY-1293
p1154
aVCAY-1292
p1155
aVCAY-1291
p1156
aVCAY-1290
p1157
aVCAY-1289
p1158
aVCAY-1288
p1159
aVCAY-1287
p1160
aVCAY-1286
p1161
aVCAY-1285
p1162
aVCAY-1284
p1163
aVCAY-1283
p1164
aVCAY-1282
p1165
aVCAY-1281
p1166
aVCAY-1280
p1167
aVCAY-1279
p1168
aVCAY-1278
p1169
aVCAY-1277
p1170
aVCAY-1276
p1171
aVCAY-1275
p1172
aVCAY-1274
p1173
aVCAY-1273
p1174
aVCAY-1272
p1175
aVCAY-1271
p1176
aVCAY-1270
p1177
aVCAY-1269
p1178
aVCAY-1268
p1179
aVCAY-1267
p1180
aVCAY-1266
p1181
aVCAY-1265
p1182
aVCAY-1264
p1183
aVCAY-1263
p1184
aVCAY-1262
p1185
aVCAY-1261
p1186
aVCAY-1260
p1187
aVCAY-1259
p1188
aVCAY-1258
p1189
aVCAY-1257
p1190
aVCAY-1256
p1191
aVCAY-1255
p1192
aVCAY-1254
p1193
aVCAY-1253
p1194
aVCAY-1252
p1195
aVCAY-1251
p1196
aVCAY-1250
p1197
aVCAY-1249
p1198
aVCAY-1248
p1199
aVCAY-1247
p1200
aVCAY-1246
p1201
aVCAY-1245
p1202
aVCAY-1244
p1203
aVCAY-1243
p1204
aVCAY-1242
p1205
aVCAY-1241
p1206
aVCAY-1240
p1207
aVCAY-1239
p1208
aVCAY-1238
p1209
aVCAY-1237
p1210
aVCAY-1236
p1211
aVCAY-1235
p1212
aVCAY-1234
p1213
aVCAY-1233
p1214
aVCAY-1232
p1215
aVCAY-1231
p1216
aVCAY-1230
p1217
aVCAY-1229
p1218
aVCAY-1228
p1219
aVCAY-1227
p1220
aVCAY-1226
p1221
aVCAY-1225
p1222
aVCAY-1224
p1223
aVCAY-1223
p1224
aVCAY-1222
p1225
aVCAY-1221
p1226
aVCAY-1220
p1227
aVCAY-1219
p1228
aVCAY-1218
p1229
aVCAY-1217
p1230
aVCAY-1216
p1231
aVCAY-1215
p1232
aVCAY-1214
p1233
aVCAY-1213
p1234
aVCAY-1212
p1235
aVCAY-1211
p1236
aVCAY-1210
p1237
aVCAY-1209
p1238
aVCAY-1208
p1239
aVCAY-1207
p1240
aVCAY-1206
p1241
aVCAY-1205
p1242
aVCAY-1204
p1243
aVCAY-1203
p1244
aVCAY-1202
p1245
aVCAY-1201
p1246
aVCAY-1200
p1247
aVCAY-1199
p1248
aVCAY-1197
p1249
aVCAY-1196
p1250
aVCAY-1195
p1251
aVCAY-1194
p1252
aVCAY-1193
p1253
aVCAY-1192
p1254
aVCAY-1191
p1255
aVCAY-1190
p1256
aVCAY-1189
p1257
aVCAY-1188
p1258
aVCAY-1186
p1259
aVCAY-1185
p1260
aVCAY-1184
p1261
aVCAY-1183
p1262
aVCAY-1182
p1263
aVCAY-1181
p1264
aVCAY-1180
p1265
aVCAY-1179
p1266
aVCAY-1178
p1267
aVCAY-1177
p1268
aVCAY-1176
p1269
aVCAY-1175
p1270
aVCAY-1174
p1271
aVCAY-1173
p1272
aVCAY-1172
p1273
aVCAY-1171
p1274
aVCAY-1170
p1275
aVCAY-1169
p1276
aVCAY-1168
p1277
aVCAY-1167
p1278
aVCAY-1166
p1279
aVCAY-1165
p1280
aVCAY-1164
p1281
aVCAY-1163
p1282
aVCAY-1162
p1283
aVCAY-1161
p1284
aVCAY-1160
p1285
aVCAY-1159
p1286
aVCAY-1158
p1287
aVCAY-1157
p1288
aVCAY-1156
p1289
aVCAY-1155
p1290
aVCAY-1154
p1291
aVCAY-1153
p1292
aVCAY-1152
p1293
aVCAY-1151
p1294
aVCAY-1150
p1295
aVCAY-1149
p1296
aVCAY-1147
p1297
aVCAY-1146
p1298
aVCAY-1145
p1299
aVCAY-1144
p1300
aVCAY-1143
p1301
aVCAY-1142
p1302
aVCAY-1141
p1303
aVCAY-1140
p1304
aVCAY-1139
p1305
aVCAY-1138
p1306
aVCAY-1137
p1307
aVCAY-1136
p1308
aVCAY-1135
p1309
aVCAY-1134
p1310
aVCAY-1133
p1311
aVCAY-1132
p1312
aVCAY-1131
p1313
aVCAY-1130
p1314
aVCAY-1129
p1315
aVCAY-1128
p1316
aVCAY-1127
p1317
aVCAY-1126
p1318
aVCAY-1125
p1319
aVCAY-1124
p1320
aVCAY-1123
p1321
aVCAY-1122
p1322
aVCAY-1121
p1323
aVCAY-1120
p1324
aVCAY-1119
p1325
aVCAY-1118
p1326
aVCAY-1117
p1327
aVCAY-1116
p1328
aVCAY-1115
p1329
aVCAY-1114
p1330
aVCAY-1113
p1331
aVCAY-1112
p1332
aVCAY-1111
p1333
aVCAY-1110
p1334
aVCAY-1109
p1335
aVCAY-1108
p1336
aVCAY-1107
p1337
aVCAY-1106
p1338
aVCAY-1105
p1339
aVCAY-1104
p1340
aVCAY-1103
p1341
aVCAY-1102
p1342
aVCAY-1101
p1343
aVCAY-1100
p1344
aVCAY-1099
p1345
aVCAY-1098
p1346
aVCAY-1097
p1347
aVCAY-1096
p1348
aVCAY-1095
p1349
aVCAY-1094
p1350
aVCAY-1093
p1351
aVCAY-1092
p1352
aVCAY-1091
p1353
aVCAY-1090
p1354
aVCAY-1089
p1355
aVCAY-1088
p1356
aVCAY-1087
p1357
aVCAY-1086
p1358
aVCAY-1085
p1359
aVCAY-1084
p1360
aVCAY-1083
p1361
aVCAY-1082
p1362
aVCAY-1081
p1363
aVCAY-1080
p1364
aVCAY-1079
p1365
aVCAY-1078
p1366
aVCAY-1077
p1367
aVCAY-1076
p1368
aVCAY-1075
p1369
aVCAY-1074
p1370
aVCAY-1073
p1371
aVCAY-1072
p1372
aVCAY-1071
p1373
aVCAY-1070
p1374
aVCAY-1069
p1375
aVCAY-1068
p1376
aVCAY-1067
p1377
aVCAY-1066
p1378
aVCAY-1065
p1379
aVCAY-1064
p1380
aVCAY-1063
p1381
aVCAY-1062
p1382
aVCAY-1061
p1383
aVCAY-1060
p1384
aVCAY-1059
p1385
aVCAY-1058
p1386
aVCAY-1057
p1387
aVCAY-1056
p1388
aVCAY-1055
p1389
aVCAY-1054
p1390
aVCAY-1053
p1391
aVCAY-1052
p1392
aVCAY-1051
p1393
aVCAY-1050
p1394
aVCAY-1049
p1395
aVCAY-1048
p1396
aVCAY-1047
p1397
aVCAY-1046
p1398
aVCAY-1045
p1399
aVCAY-1044
p1400
aVCAY-1043
p1401
aVCAY-1042
p1402
aVCAY-1041
p1403
aVCAY-1040
p1404
aVCAY-1039
p1405
aVCAY-1038
p1406
aVCAY-1037
p1407
aVCAY-1036
p1408
aVCAY-1035
p1409
aVCAY-1034
p1410
aVCAY-1033
p1411
aVCAY-1032
p1412
aVCAY-1031
p1413
aVCAY-1030
p1414
aVCAY-1029
p1415
aVCAY-1028
p1416
aVCAY-1027
p1417
aVCAY-1026
p1418
aVCAY-1025
p1419
aVCAY-1024
p1420
aVCAY-1023
p1421
aVCAY-1022
p1422
aVCAY-1021
p1423
aVCAY-1020
p1424
aVCAY-1019
p1425
aVCAY-1018
p1426
aVCAY-1017
p1427
aVCAY-1016
p1428
aVCAY-1015
p1429
aVCAY-1014
p1430
aVCAY-1013
p1431
aVCAY-1012
p1432
aVCAY-1011
p1433
aVCAY-1010
p1434
aVCAY-1009
p1435
aVCAY-1008
p1436
aVCAY-1007
p1437
aVCAY-1006
p1438
aVCAY-1005
p1439
aVCAY-1004
p1440
aVCAY-1003
p1441
aVCAY-1002
p1442
aVCAY-1001
p1443
aVCAY-1000
p1444
aVCAY-999
p1445
aVCAY-998
p1446
aVCAY-997
p1447
aVCAY-996
p1448
aVCAY-995
p1449
aVCAY-994
p1450
aVCAY-993
p1451
aVCAY-992
p1452
aVCAY-991
p1453
aVCAY-990
p1454
aVCAY-989
p1455
aVCAY-988
p1456
aVCAY-987
p1457
aVCAY-986
p1458
aVCAY-985
p1459
aVCAY-984
p1460
aVCAY-983
p1461
aVCAY-982
p1462
aVCAY-981
p1463
aVCAY-980
p1464
aVCAY-979
p1465
aVCAY-978
p1466
aVCAY-977
p1467
aVCAY-976
p1468
aVCAY-975
p1469
aVCAY-974
p1470
aVCAY-973
p1471
aVCAY-972
p1472
aVCAY-971
p1473
aVCAY-970
p1474
aVCAY-969
p1475
aVCAY-968
p1476
aVCAY-967
p1477
aVCAY-966
p1478
aVCAY-965
p1479
aVCAY-964
p1480
aVCAY-963
p1481
aVCAY-962
p1482
aVCAY-961
p1483
aVCAY-960
p1484
aVCAY-959
p1485
aVCAY-958
p1486
aVCAY-957
p1487
aVCAY-956
p1488
aVCAY-955
p1489
aVCAY-954
p1490
aVCAY-953
p1491
aVCAY-952
p1492
aVCAY-951
p1493
aVCAY-950
p1494
aVCAY-949
p1495
aVCAY-948
p1496
aVCAY-947
p1497
aVCAY-946
p1498
aVCAY-945
p1499
aVCAY-944
p1500
aVCAY-943
p1501
aVCAY-942
p1502
aVCAY-941
p1503
aVCAY-940
p1504
aVCAY-939
p1505
aVCAY-938
p1506
aVCAY-937
p1507
aVCAY-936
p1508
aVCAY-935
p1509
aVCAY-934
p1510
aVCAY-933
p1511
aVCAY-932
p1512
aVCAY-931
p1513
aVCAY-930
p1514
aVCAY-929
p1515
aVCAY-928
p1516
aVCAY-927
p1517
aVCAY-926
p1518
aVCAY-925
p1519
aVCAY-924
p1520
aVCAY-923
p1521
aVCAY-922
p1522
aVCAY-921
p1523
aVCAY-920
p1524
aVCAY-919
p1525
aVCAY-918
p1526
aVCAY-916
p1527
aVCAY-915
p1528
aVCAY-914
p1529
aVCAY-913
p1530
aVCAY-912
p1531
aVCAY-911
p1532
aVCAY-910
p1533
aVCAY-909
p1534
aVCAY-908
p1535
aVCAY-907
p1536
aVCAY-906
p1537
aVCAY-905
p1538
aVCAY-904
p1539
aVCAY-903
p1540
aVCAY-902
p1541
aVCAY-901
p1542
aVCAY-900
p1543
aVCAY-899
p1544
aVCAY-898
p1545
aVCAY-897
p1546
aVCAY-896
p1547
aVCAY-895
p1548
aVCAY-894
p1549
aVCAY-893
p1550
aVCAY-892
p1551
aVCAY-891
p1552
aVCAY-890
p1553
aVCAY-889
p1554
aVCAY-888
p1555
aVCAY-887
p1556
aVCAY-886
p1557
aVCAY-885
p1558
aVCAY-884
p1559
aVCAY-883
p1560
aVCAY-882
p1561
aVCAY-881
p1562
aVCAY-880
p1563
aVCAY-879
p1564
aVCAY-878
p1565
aVCAY-877
p1566
aVCAY-876
p1567
aVCAY-875
p1568
aVCAY-874
p1569
aVCAY-873
p1570
aVCAY-872
p1571
aVCAY-871
p1572
aVCAY-870
p1573
aVCAY-869
p1574
aVCAY-868
p1575
aVCAY-867
p1576
aVCAY-866
p1577
aVCAY-865
p1578
aVCAY-863
p1579
aVCAY-862
p1580
aVCAY-861
p1581
aVCAY-860
p1582
aVCAY-859
p1583
aVCAY-858
p1584
aVCAY-857
p1585
aVCAY-856
p1586
aVCAY-855
p1587
aVCAY-854
p1588
aVCAY-853
p1589
aVCAY-852
p1590
aVCAY-851
p1591
aVCAY-850
p1592
aVCAY-849
p1593
aVCAY-848
p1594
aVCAY-847
p1595
aVCAY-846
p1596
aVCAY-845
p1597
aVCAY-844
p1598
aVCAY-843
p1599
aVCAY-842
p1600
aVCAY-841
p1601
aVCAY-840
p1602
aVCAY-839
p1603
aVCAY-838
p1604
aVCAY-837
p1605
aVCAY-836
p1606
aVCAY-835
p1607
aVCAY-834
p1608
aVCAY-833
p1609
aVCAY-832
p1610
aVCAY-831
p1611
aVCAY-830
p1612
aVCAY-828
p1613
aVCAY-827
p1614
aVCAY-826
p1615
aVCAY-825
p1616
aVCAY-824
p1617
aVCAY-823
p1618
aVCAY-822
p1619
aVCAY-821
p1620
aVCAY-820
p1621
aVCAY-819
p1622
aVCAY-818
p1623
aVCAY-817
p1624
aVCAY-816
p1625
aVCAY-815
p1626
aVCAY-814
p1627
aVCAY-813
p1628
aVCAY-812
p1629
aVCAY-811
p1630
aVCAY-810
p1631
aVCAY-809
p1632
aVCAY-808
p1633
aVCAY-807
p1634
aVCAY-806
p1635
aVCAY-805
p1636
aVCAY-804
p1637
aVCAY-803
p1638
aVCAY-802
p1639
aVCAY-801
p1640
aVCAY-800
p1641
aVCAY-799
p1642
aVCAY-798
p1643
aVCAY-797
p1644
aVCAY-796
p1645
aVCAY-795
p1646
aVCAY-794
p1647
aVCAY-793
p1648
aVCAY-792
p1649
aVCAY-791
p1650
aVCAY-790
p1651
aVCAY-789
p1652
aVCAY-788
p1653
aVCAY-787
p1654
aVCAY-786
p1655
aVCAY-785
p1656
aVCAY-784
p1657
aVCAY-783
p1658
aVCAY-782
p1659
aVCAY-781
p1660
aVCAY-780
p1661
aVCAY-779
p1662
aVCAY-778
p1663
aVCAY-777
p1664
aVCAY-776
p1665
aVCAY-775
p1666
aVCAY-774
p1667
aVCAY-773
p1668
aVCAY-772
p1669
aVCAY-771
p1670
aVCAY-770
p1671
aVCAY-769
p1672
aVCAY-768
p1673
aVCAY-767
p1674
aVCAY-766
p1675
aVCAY-765
p1676
aVCAY-764
p1677
aVCAY-763
p1678
aVCAY-762
p1679
aVCAY-761
p1680
aVCAY-760
p1681
aVCAY-759
p1682
aVCAY-758
p1683
aVCAY-757
p1684
aVCAY-756
p1685
aVCAY-755
p1686
aVCAY-754
p1687
aVCAY-753
p1688
aVCAY-752
p1689
aVCAY-751
p1690
aVCAY-750
p1691
aVCAY-749
p1692
aVCAY-748
p1693
aVCAY-747
p1694
aVCAY-746
p1695
aVCAY-745
p1696
aVCAY-744
p1697
aVCAY-743
p1698
aVCAY-742
p1699
aVCAY-741
p1700
aVCAY-740
p1701
aVCAY-739
p1702
aVCAY-738
p1703
aVCAY-737
p1704
aVCAY-736
p1705
aVCAY-735
p1706
aVCAY-734
p1707
aVCAY-733
p1708
aVCAY-732
p1709
aVCAY-731
p1710
aVCAY-730
p1711
aVCAY-729
p1712
aVCAY-728
p1713
aVCAY-727
p1714
aVCAY-726
p1715
aVCAY-725
p1716
aVCAY-724
p1717
aVCAY-723
p1718
aVCAY-722
p1719
aVCAY-721
p1720
aVCAY-720
p1721
aVCAY-719
p1722
aVCAY-718
p1723
aVCAY-717
p1724
aVCAY-716
p1725
aVCAY-715
p1726
aVCAY-714
p1727
aVCAY-713
p1728
aVCAY-712
p1729
aVCAY-711
p1730
aVCAY-710
p1731
aVCAY-709
p1732
aVCAY-708
p1733
aVCAY-707
p1734
aVCAY-706
p1735
aVCAY-705
p1736
aVCAY-704
p1737
aVCAY-703
p1738
aVCAY-702
p1739
aVCAY-701
p1740
aVCAY-700
p1741
aVCAY-699
p1742
aVCAY-698
p1743
aVCAY-697
p1744
aVCAY-696
p1745
aVCAY-695
p1746
aVCAY-694
p1747
aVCAY-693
p1748
aVCAY-692
p1749
aVCAY-691
p1750
aVCAY-690
p1751
aVCAY-689
p1752
aVCAY-688
p1753
aVCAY-687
p1754
aVCAY-686
p1755
aVCAY-685
p1756
aVCAY-684
p1757
aVCAY-683
p1758
aVCAY-682
p1759
aVCAY-681
p1760
aVCAY-680
p1761
aVCAY-679
p1762
aVCAY-678
p1763
aVCAY-677
p1764
aVCAY-676
p1765
aVCAY-675
p1766
aVCAY-674
p1767
aVCAY-673
p1768
aVCAY-672
p1769
aVCAY-671
p1770
aVCAY-670
p1771
aVCAY-669
p1772
aVCAY-668
p1773
aVCAY-667
p1774
aVCAY-666
p1775
aVCAY-665
p1776
aVCAY-664
p1777
aVCAY-663
p1778
aVCAY-662
p1779
aVCAY-661
p1780
aVCAY-660
p1781
aVCAY-659
p1782
aVCAY-658
p1783
aVCAY-657
p1784
aVCAY-656
p1785
aVCAY-655
p1786
aVCAY-654
p1787
aVCAY-653
p1788
aVCAY-652
p1789
aVCAY-651
p1790
aVCAY-650
p1791
aVCAY-649
p1792
aVCAY-648
p1793
aVCAY-647
p1794
aVCAY-646
p1795
aVCAY-645
p1796
aVCAY-644
p1797
aVCAY-643
p1798
aVCAY-642
p1799
aVCAY-641
p1800
aVCAY-640
p1801
aVCAY-639
p1802
aVCAY-638
p1803
aVCAY-637
p1804
aVCAY-636
p1805
aVCAY-635
p1806
aVCAY-634
p1807
aVCAY-633
p1808
aVCAY-632
p1809
aVCAY-631
p1810
aVCAY-630
p1811
aVCAY-629
p1812
aVCAY-628
p1813
aVCAY-627
p1814
aVCAY-626
p1815
aVCAY-625
p1816
aVCAY-624
p1817
aVCAY-623
p1818
aVCAY-622
p1819
aVCAY-621
p1820
aVCAY-620
p1821
aVCAY-619
p1822
aVCAY-618
p1823
aVCAY-617
p1824
aVCAY-616
p1825
aVCAY-615
p1826
aVCAY-614
p1827
aVCAY-613
p1828
aVCAY-612
p1829
aVCAY-611
p1830
aVCAY-610
p1831
aVCAY-609
p1832
aVCAY-608
p1833
aVCAY-607
p1834
aVCAY-606
p1835
aVCAY-605
p1836
aVCAY-604
p1837
aVCAY-603
p1838
aVCAY-602
p1839
aVCAY-601
p1840
aVCAY-600
p1841
aVCAY-599
p1842
aVCAY-598
p1843
aVCAY-597
p1844
aVCAY-596
p1845
aVCAY-595
p1846
aVCAY-594
p1847
aVCAY-593
p1848
aVCAY-592
p1849
aVCAY-591
p1850
aVCAY-590
p1851
aVCAY-589
p1852
aVCAY-588
p1853
aVCAY-587
p1854
aVCAY-586
p1855
aVCAY-585
p1856
aVCAY-584
p1857
aVCAY-583
p1858
aVCAY-582
p1859
aVCAY-581
p1860
aVCAY-580
p1861
aVCAY-579
p1862
aVCAY-578
p1863
aVCAY-577
p1864
aVCAY-576
p1865
aVCAY-575
p1866
aVCAY-574
p1867
aVCAY-573
p1868
aVCAY-572
p1869
aVCAY-571
p1870
aVCAY-570
p1871
aVCAY-569
p1872
aVCAY-568
p1873
aVCAY-567
p1874
aVCAY-566
p1875
aVCAY-565
p1876
aVCAY-564
p1877
aVCAY-563
p1878
aVCAY-562
p1879
aVCAY-561
p1880
aVCAY-560
p1881
aVCAY-559
p1882
aVCAY-558
p1883
aVCAY-557
p1884
aVCAY-556
p1885
aVCAY-555
p1886
aVCAY-554
p1887
aVCAY-553
p1888
aVCAY-552
p1889
aVCAY-551
p1890
aVCAY-550
p1891
aVCAY-549
p1892
aVCAY-548
p1893
aVCAY-547
p1894
aVCAY-546
p1895
aVCAY-545
p1896
aVCAY-544
p1897
aVCAY-543
p1898
aVCAY-542
p1899
aVCAY-541
p1900
aVCAY-540
p1901
aVCAY-539
p1902
aVCAY-538
p1903
aVCAY-537
p1904
aVCAY-536
p1905
aVCAY-535
p1906
aVCAY-534
p1907
aVCAY-533
p1908
aVCAY-532
p1909
aVCAY-531
p1910
aVCAY-530
p1911
aVCAY-529
p1912
aVCAY-528
p1913
aVCAY-527
p1914
aVCAY-526
p1915
aVCAY-525
p1916
aVCAY-524
p1917
aVCAY-523
p1918
aVCAY-522
p1919
aVCAY-521
p1920
aVCAY-520
p1921
aVCAY-519
p1922
aVCAY-518
p1923
aVCAY-517
p1924
aVCAY-516
p1925
aVCAY-515
p1926
aVCAY-514
p1927
aVCAY-513
p1928
aVCAY-512
p1929
aVCAY-511
p1930
aVCAY-510
p1931
aVCAY-509
p1932
aVCAY-508
p1933
aVCAY-504
p1934
aVCAY-503
p1935
aVCAY-502
p1936
aVCAY-501
p1937
aVCAY-500
p1938
aVCAY-499
p1939
aVCAY-498
p1940
aVCAY-497
p1941
aVCAY-496
p1942
aVCAY-495
p1943
aVCAY-494
p1944
aVCAY-493
p1945
aVCAY-492
p1946
aVCAY-491
p1947
aVCAY-490
p1948
aVCAY-489
p1949
aVCAY-488
p1950
aVCAY-487
p1951
aVCAY-486
p1952
aVCAY-485
p1953
aVCAY-484
p1954
aVCAY-483
p1955
aVCAY-482
p1956
aVCAY-481
p1957
aVCAY-480
p1958
aVCAY-479
p1959
aVCAY-478
p1960
aVCAY-477
p1961
aVCAY-476
p1962
aVCAY-475
p1963
aVCAY-474
p1964
aVCAY-473
p1965
aVCAY-472
p1966
aVCAY-471
p1967
aVCAY-470
p1968
aVCAY-469
p1969
aVCAY-468
p1970
aVCAY-467
p1971
aVCAY-466
p1972
aVCAY-465
p1973
aVCAY-464
p1974
aVCAY-463
p1975
aVCAY-462
p1976
aVCAY-461
p1977
aVCAY-460
p1978
aVCAY-459
p1979
aVCAY-458
p1980
aVCAY-457
p1981
aVCAY-456
p1982
aVCAY-455
p1983
aVCAY-454
p1984
aVCAY-453
p1985
aVCAY-452
p1986
aVCAY-451
p1987
aVCAY-450
p1988
aVCAY-449
p1989
aVCAY-448
p1990
aVCAY-447
p1991
aVCAY-446
p1992
aVCAY-445
p1993
aVCAY-444
p1994
aVCAY-443
p1995
aVCAY-442
p1996
aVCAY-441
p1997
aVCAY-440
p1998
aVCAY-439
p1999
aVCAY-438
p2000
aVCAY-437
p2001
aVCAY-436
p2002
aVCAY-435
p2003
aVCAY-434
p2004
aVCAY-433
p2005
aVCAY-432
p2006
aVCAY-431
p2007
aVCAY-430
p2008
aVCAY-429
p2009
aVCAY-428
p2010
aVCAY-427
p2011
aVCAY-426
p2012
aVCAY-425
p2013
aVCAY-424
p2014
aVCAY-423
p2015
aVCAY-422
p2016
aVCAY-421
p2017
aVCAY-420
p2018
aVCAY-419
p2019
aVCAY-418
p2020
aVCAY-417
p2021
aVCAY-416
p2022
aVCAY-415
p2023
aVCAY-414
p2024
aVCAY-413
p2025
aVCAY-412
p2026
aVCAY-411
p2027
aVCAY-410
p2028
aVCAY-409
p2029
aVCAY-408
p2030
aVCAY-407
p2031
aVCAY-406
p2032
aVCAY-405
p2033
aVCAY-404
p2034
aVCAY-403
p2035
aVCAY-402
p2036
aVCAY-401
p2037
aVCAY-400
p2038
aVCAY-399
p2039
aVCAY-398
p2040
aVCAY-397
p2041
aVCAY-396
p2042
aVCAY-395
p2043
aVCAY-394
p2044
aVCAY-393
p2045
aVCAY-392
p2046
aVCAY-391
p2047
aVCAY-390
p2048
aVCAY-389
p2049
aVCAY-388
p2050
aVCAY-387
p2051
aVCAY-386
p2052
aVCAY-385
p2053
aVCAY-384
p2054
aVCAY-383
p2055
aVCAY-382
p2056
aVCAY-381
p2057
aVCAY-380
p2058
aVCAY-379
p2059
aVCAY-378
p2060
aVCAY-377
p2061
aVCAY-376
p2062
aVCAY-375
p2063
aVCAY-374
p2064
aVCAY-373
p2065
aVCAY-372
p2066
aVCAY-371
p2067
aVCAY-370
p2068
aVCAY-369
p2069
aVCAY-368
p2070
aVCAY-367
p2071
aVCAY-366
p2072
aVCAY-365
p2073
aVCAY-364
p2074
aVCAY-363
p2075
aVCAY-362
p2076
aVCAY-361
p2077
aVCAY-360
p2078
aVCAY-359
p2079
aVCAY-358
p2080
aVCAY-357
p2081
aVCAY-356
p2082
aVCAY-355
p2083
aVCAY-354
p2084
aVCAY-353
p2085
aVCAY-352
p2086
aVCAY-351
p2087
aVCAY-350
p2088
aVCAY-349
p2089
aVCAY-348
p2090
aVCAY-347
p2091
aVCAY-346
p2092
aVCAY-345
p2093
aVCAY-344
p2094
aVCAY-343
p2095
aVCAY-342
p2096
aVCAY-341
p2097
aVCAY-340
p2098
aVCAY-339
p2099
aVCAY-338
p2100
aVCAY-337
p2101
aVCAY-336
p2102
aVCAY-335
p2103
aVCAY-334
p2104
aVCAY-333
p2105
aVCAY-332
p2106
aVCAY-331
p2107
aVCAY-330
p2108
aVCAY-329
p2109
aVCAY-328
p2110
aVCAY-327
p2111
aVCAY-326
p2112
aVCAY-325
p2113
aVCAY-324
p2114
aVCAY-323
p2115
aVCAY-322
p2116
aVCAY-321
p2117
aVCAY-320
p2118
aVCAY-319
p2119
aVCAY-318
p2120
aVCAY-317
p2121
aVCAY-316
p2122
aVCAY-315
p2123
aVCAY-314
p2124
aVCAY-313
p2125
aVCAY-312
p2126
aVCAY-311
p2127
aVCAY-310
p2128
aVCAY-309
p2129
aVCAY-308
p2130
aVCAY-307
p2131
aVCAY-306
p2132
aVCAY-305
p2133
aVCAY-304
p2134
aVCAY-303
p2135
aVCAY-302
p2136
aVCAY-301
p2137
aVCAY-300
p2138
aVCAY-299
p2139
aVCAY-298
p2140
aVCAY-297
p2141
aVCAY-296
p2142
aVCAY-295
p2143
aVCAY-294
p2144
aVCAY-293
p2145
aVCAY-292
p2146
aVCAY-291
p2147
aVCAY-290
p2148
aVCAY-289
p2149
aVCAY-288
p2150
aVCAY-287
p2151
aVCAY-286
p2152
aVCAY-285
p2153
aVCAY-284
p2154
aVCAY-283
p2155
aVCAY-282
p2156
aVCAY-281
p2157
aVCAY-280
p2158
aVCAY-279
p2159
aVCAY-278
p2160
aVCAY-277
p2161
aVCAY-276
p2162
aVCAY-275
p2163
aVCAY-274
p2164
aVCAY-273
p2165
aVCAY-272
p2166
aVCAY-271
p2167
aVCAY-270
p2168
aVCAY-269
p2169
aVCAY-268
p2170
aVCAY-267
p2171
aVCAY-266
p2172
aVCAY-265
p2173
aVCAY-264
p2174
aVCAY-263
p2175
aVCAY-262
p2176
aVCAY-261
p2177
aVCAY-260
p2178
aVCAY-259
p2179
aVCAY-258
p2180
aVCAY-257
p2181
aVCAY-256
p2182
aVCAY-255
p2183
aVCAY-254
p2184
aVCAY-253
p2185
aVCAY-252
p2186
aVCAY-251
p2187
aVCAY-250
p2188
aVCAY-249
p2189
aVCAY-248
p2190
aVCAY-247
p2191
aVCAY-246
p2192
aVCAY-245
p2193
aVCAY-244
p2194
aVCAY-243
p2195
aVCAY-242
p2196
aVCAY-240
p2197
aVCAY-239
p2198
aVCAY-238
p2199
aVCAY-237
p2200
aVCAY-236
p2201
aVCAY-235
p2202
aVCAY-234
p2203
aVCAY-233
p2204
aVCAY-232
p2205
aVCAY-231
p2206
aVCAY-230
p2207
aVCAY-229
p2208
aVCAY-228
p2209
aVCAY-227
p2210
aVCAY-226
p2211
aVCAY-225
p2212
aVCAY-224
p2213
aVCAY-223
p2214
aVCAY-222
p2215
aVCAY-221
p2216
aVCAY-220
p2217
aVCAY-219
p2218
aVCAY-218
p2219
aVCAY-217
p2220
aVCAY-216
p2221
aVCAY-215
p2222
aVCAY-214
p2223
aVCAY-213
p2224
aVCAY-212
p2225
aVCAY-211
p2226
aVCAY-210
p2227
aVCAY-209
p2228
aVCAY-208
p2229
aVCAY-207
p2230
aVCAY-206
p2231
aVCAY-205
p2232
aVCAY-204
p2233
aVCAY-203
p2234
aVCAY-202
p2235
aVCAY-201
p2236
aVCAY-200
p2237
aVCAY-199
p2238
aVCAY-198
p2239
aVCAY-197
p2240
aVCAY-196
p2241
aVCAY-195
p2242
aVCAY-194
p2243
aVCAY-193
p2244
aVCAY-192
p2245
aVCAY-191
p2246
aVCAY-190
p2247
aVCAY-189
p2248
aVCAY-188
p2249
aVCAY-187
p2250
aVCAY-186
p2251
aVCAY-185
p2252
aVCAY-184
p2253
aVCAY-183
p2254
aVCAY-182
p2255
aVCAY-181
p2256
aVCAY-180
p2257
aVCAY-179
p2258
aVCAY-178
p2259
aVCAY-177
p2260
aVCAY-176
p2261
aVCAY-175
p2262
aVCAY-174
p2263
aVCAY-173
p2264
aVCAY-172
p2265
aVCAY-171
p2266
aVCAY-170
p2267
aVCAY-169
p2268
aVCAY-168
p2269
aVCAY-167
p2270
aVCAY-166
p2271
aVCAY-165
p2272
aVCAY-164
p2273
aVCAY-163
p2274
aVCAY-162
p2275
aVCAY-161
p2276
aVCAY-160
p2277
aVCAY-159
p2278
aVCAY-158
p2279
aVCAY-157
p2280
aVCAY-156
p2281
aVCAY-155
p2282
aVCAY-154
p2283
aVCAY-153
p2284
aVCAY-152
p2285
aVCAY-151
p2286
aVCAY-150
p2287
aVCAY-149
p2288
aVCAY-148
p2289
aVCAY-147
p2290
aVCAY-146
p2291
aVCAY-145
p2292
aVCAY-144
p2293
aVCAY-143
p2294
aVCAY-142
p2295
aVCAY-141
p2296
aVCAY-140
p2297
aVCAY-139
p2298
aVCAY-138
p2299
aVCAY-137
p2300
aVCAY-136
p2301
aVCAY-135
p2302
aVCAY-134
p2303
aVCAY-133
p2304
aVCAY-132
p2305
aVCAY-131
p2306
aVCAY-130
p2307
aVCAY-129
p2308
aVCAY-128
p2309
aVCAY-127
p2310
aVCAY-126
p2311
aVCAY-125
p2312
aVCAY-124
p2313
aVCAY-123
p2314
aVCAY-122
p2315
aVCAY-121
p2316
aVCAY-120
p2317
aVCAY-119
p2318
aVCAY-118
p2319
aVCAY-117
p2320
aVCAY-116
p2321
aVCAY-115
p2322
aVCAY-114
p2323
aVCAY-113
p2324
aVCAY-112
p2325
aVCAY-111
p2326
aVCAY-110
p2327
aVCAY-109
p2328
aVCAY-108
p2329
aVCAY-107
p2330
aVCAY-106
p2331
aVCAY-105
p2332
aVCAY-104
p2333
aVCAY-103
p2334
aVCAY-102
p2335
aVCAY-101
p2336
aVCAY-100
p2337
aVCAY-99
p2338
aVCAY-98
p2339
aVCAY-97
p2340
aVCAY-96
p2341
aVCAY-95
p2342
aVCAY-94
p2343
aVCAY-93
p2344
aVCAY-92
p2345
aVCAY-91
p2346
aVCAY-90
p2347
aVCAY-89
p2348
aVCAY-88
p2349
aVCAY-87
p2350
aVCAY-86
p2351
aVCAY-85
p2352
aVCAY-84
p2353
aVCAY-83
p2354
aVCAY-82
p2355
aVCAY-81
p2356
aVCAY-80
p2357
aVCAY-79
p2358
aVCAY-78
p2359
aVCAY-77
p2360
aVCAY-76
p2361
aVCAY-75
p2362
aVCAY-74
p2363
aVCAY-73
p2364
aVCAY-72
p2365
aVCAY-71
p2366
aVCAY-70
p2367
aVCAY-69
p2368
aVCAY-68
p2369
aVCAY-67
p2370
aVCAY-66
p2371
aVCAY-65
p2372
aVCAY-64
p2373
aVCAY-63
p2374
aVCAY-62
p2375
aVCAY-61
p2376
aVCAY-60
p2377
aVCAY-59
p2378
aVCAY-58
p2379
aVCAY-57
p2380
aVCAY-56
p2381
aVCAY-55
p2382
aVCAY-54
p2383
aVCAY-53
p2384
aVCAY-52
p2385
aVCAY-51
p2386
aVCAY-50
p2387
aVCAY-49
p2388
aVCAY-48
p2389
aVCAY-47
p2390
aVCAY-46
p2391
aVCAY-45
p2392
aVCAY-44
p2393
aVCAY-43
p2394
aVCAY-42
p2395
aVCAY-41
p2396
aVCAY-40
p2397
aVCAY-39
p2398
aVCAY-38
p2399
aVCAY-37
p2400
aVCAY-36
p2401
aVCAY-35
p2402
aVCAY-34
p2403
aVCAY-33
p2404
aVCAY-32
p2405
aVCAY-31
p2406
aVCAY-30
p2407
aVCAY-29
p2408
aVCAY-28
p2409
aVCAY-27
p2410
aVCAY-26
p2411
aVCAY-25
p2412
aVCAY-24
p2413
aVCAY-23
p2414
aVCAY-22
p2415
aVCAY-21
p2416
aVCAY-20
p2417
aVCAY-19
p2418
aVCAY-18
p2419
aVCAY-17
p2420
aVCAY-16
p2421
aVCAY-15
p2422
aVCAY-14
p2423
aVCAY-13
p2424
aVCAY-12
p2425
aVCAY-11
p2426
aVCAY-10
p2427
aVCAY-9
p2428
aVCAY-8
p2429
aVCAY-7
p2430
aVCAY-6
p2431
aVCAY-5
p2432
aVCAY-4
p2433
aVCAY-3
p2434
aVCAY-2
p2435
aVCAY-1
p2436
a.