(lp0
VCHAIN-112
p1
aVCHAIN-111
p2
aVCHAIN-110
p3
aVCHAIN-109
p4
aVCHAIN-108
p5
aVCHAIN-107
p6
aVCHAIN-106
p7
aVCHAIN-105
p8
aVCHAIN-104
p9
aVCHAIN-103
p10
aVCHAIN-102
p11
aVCHAIN-101
p12
aVCHAIN-100
p13
aVCHAIN-99
p14
aVCHAIN-98
p15
aVCHAIN-97
p16
aVCHAIN-96
p17
aVCHAIN-95
p18
aVCHAIN-94
p19
aVCHAIN-93
p20
aVCHAIN-92
p21
aVCHAIN-91
p22
aVCHAIN-90
p23
aVCHAIN-89
p24
aVCHAIN-88
p25
aVCHAIN-87
p26
aVCHAIN-86
p27
aVCHAIN-85
p28
aVCHAIN-84
p29
aVCHAIN-83
p30
aVCHAIN-82
p31
aVCHAIN-81
p32
aVCHAIN-80
p33
aVCHAIN-79
p34
aVCHAIN-78
p35
aVCHAIN-77
p36
aVCHAIN-76
p37
aVCHAIN-75
p38
aVCHAIN-74
p39
aVCHAIN-73
p40
aVCHAIN-72
p41
aVCHAIN-71
p42
aVCHAIN-70
p43
aVCHAIN-69
p44
aVCHAIN-68
p45
aVCHAIN-67
p46
aVCHAIN-66
p47
aVCHAIN-65
p48
aVCHAIN-64
p49
aVCHAIN-63
p50
aVCHAIN-62
p51
aVCHAIN-61
p52
aVCHAIN-60
p53
aVCHAIN-59
p54
aVCHAIN-58
p55
aVCHAIN-57
p56
aVCHAIN-56
p57
aVCHAIN-55
p58
aVCHAIN-54
p59
aVCHAIN-53
p60
aVCHAIN-52
p61
aVCHAIN-51
p62
aVCHAIN-50
p63
aVCHAIN-49
p64
aVCHAIN-48
p65
aVCHAIN-47
p66
aVCHAIN-46
p67
aVCHAIN-45
p68
aVCHAIN-44
p69
aVCHAIN-43
p70
aVCHAIN-42
p71
aVCHAIN-41
p72
aVCHAIN-40
p73
aVCHAIN-39
p74
aVCHAIN-38
p75
aVCHAIN-37
p76
aVCHAIN-36
p77
aVCHAIN-35
p78
aVCHAIN-34
p79
aVCHAIN-33
p80
aVCHAIN-32
p81
aVCHAIN-31
p82
aVCHAIN-30
p83
aVCHAIN-29
p84
aVCHAIN-28
p85
aVCHAIN-27
p86
aVCHAIN-26
p87
aVCHAIN-25
p88
aVCHAIN-24
p89
aVCHAIN-23
p90
aVCHAIN-22
p91
aVCHAIN-21
p92
aVCHAIN-20
p93
aVCHAIN-19
p94
aVCHAIN-18
p95
aVCHAIN-17
p96
aVCHAIN-16
p97
aVCHAIN-15
p98
aVCHAIN-14
p99
aVCHAIN-13
p100
aVCHAIN-12
p101
aVCHAIN-11
p102
aVCHAIN-10
p103
aVCHAIN-9
p104
aVCHAIN-8
p105
aVCHAIN-7
p106
aVCHAIN-6
p107
aVCHAIN-5
p108
aVCHAIN-4
p109
aVCHAIN-3
p110
aVCHAIN-2
p111
aVCHAIN-1
p112
a.