(lp0
VCHUKWA-822
p1
aVCHUKWA-821
p2
aVCHUKWA-820
p3
aVCHUKWA-819
p4
aVCHUKWA-818
p5
aVCHUKWA-817
p6
aVCHUKWA-816
p7
aVCHUKWA-815
p8
aVCHUKWA-814
p9
aVCHUKWA-813
p10
aVCHUKWA-812
p11
aVCHUKWA-811
p12
aVCHUKWA-810
p13
aVCHUKWA-809
p14
aVCHUKWA-808
p15
aVCHUKWA-807
p16
aVCHUKWA-806
p17
aVCHUKWA-805
p18
aVCHUKWA-804
p19
aVCHUKWA-803
p20
aVCHUKWA-802
p21
aVCHUKWA-801
p22
aVCHUKWA-800
p23
aVCHUKWA-799
p24
aVCHUKWA-798
p25
aVCHUKWA-797
p26
aVCHUKWA-796
p27
aVCHUKWA-795
p28
aVCHUKWA-794
p29
aVCHUKWA-793
p30
aVCHUKWA-792
p31
aVCHUKWA-791
p32
aVCHUKWA-790
p33
aVCHUKWA-789
p34
aVCHUKWA-788
p35
aVCHUKWA-787
p36
aVCHUKWA-786
p37
aVCHUKWA-785
p38
aVCHUKWA-784
p39
aVCHUKWA-783
p40
aVCHUKWA-782
p41
aVCHUKWA-781
p42
aVCHUKWA-780
p43
aVCHUKWA-779
p44
aVCHUKWA-778
p45
aVCHUKWA-777
p46
aVCHUKWA-776
p47
aVCHUKWA-775
p48
aVCHUKWA-774
p49
aVCHUKWA-773
p50
aVCHUKWA-772
p51
aVCHUKWA-771
p52
aVCHUKWA-770
p53
aVCHUKWA-769
p54
aVCHUKWA-768
p55
aVCHUKWA-767
p56
aVCHUKWA-766
p57
aVCHUKWA-765
p58
aVCHUKWA-764
p59
aVCHUKWA-763
p60
aVCHUKWA-762
p61
aVCHUKWA-761
p62
aVCHUKWA-760
p63
aVCHUKWA-759
p64
aVCHUKWA-758
p65
aVCHUKWA-757
p66
aVCHUKWA-756
p67
aVCHUKWA-755
p68
aVCHUKWA-754
p69
aVCHUKWA-753
p70
aVCHUKWA-752
p71
aVCHUKWA-751
p72
aVCHUKWA-750
p73
aVCHUKWA-749
p74
aVCHUKWA-748
p75
aVCHUKWA-747
p76
aVCHUKWA-746
p77
aVCHUKWA-745
p78
aVCHUKWA-744
p79
aVCHUKWA-743
p80
aVCHUKWA-742
p81
aVCHUKWA-741
p82
aVCHUKWA-740
p83
aVCHUKWA-739
p84
aVCHUKWA-738
p85
aVCHUKWA-737
p86
aVCHUKWA-736
p87
aVCHUKWA-735
p88
aVCHUKWA-734
p89
aVCHUKWA-733
p90
aVCHUKWA-732
p91
aVCHUKWA-731
p92
aVCHUKWA-730
p93
aVCHUKWA-729
p94
aVCHUKWA-728
p95
aVCHUKWA-727
p96
aVCHUKWA-726
p97
aVCHUKWA-725
p98
aVCHUKWA-724
p99
aVCHUKWA-723
p100
aVCHUKWA-722
p101
aVCHUKWA-721
p102
aVCHUKWA-720
p103
aVCHUKWA-719
p104
aVCHUKWA-718
p105
aVCHUKWA-717
p106
aVCHUKWA-716
p107
aVCHUKWA-715
p108
aVCHUKWA-714
p109
aVCHUKWA-713
p110
aVCHUKWA-712
p111
aVCHUKWA-711
p112
aVCHUKWA-710
p113
aVCHUKWA-709
p114
aVCHUKWA-708
p115
aVCHUKWA-707
p116
aVCHUKWA-706
p117
aVCHUKWA-705
p118
aVCHUKWA-704
p119
aVCHUKWA-703
p120
aVCHUKWA-702
p121
aVCHUKWA-701
p122
aVCHUKWA-700
p123
aVCHUKWA-699
p124
aVCHUKWA-698
p125
aVCHUKWA-697
p126
aVCHUKWA-696
p127
aVCHUKWA-695
p128
aVCHUKWA-694
p129
aVCHUKWA-693
p130
aVCHUKWA-692
p131
aVCHUKWA-691
p132
aVCHUKWA-690
p133
aVCHUKWA-689
p134
aVCHUKWA-688
p135
aVCHUKWA-687
p136
aVCHUKWA-686
p137
aVCHUKWA-685
p138
aVCHUKWA-684
p139
aVCHUKWA-683
p140
aVCHUKWA-682
p141
aVCHUKWA-681
p142
aVCHUKWA-680
p143
aVCHUKWA-679
p144
aVCHUKWA-678
p145
aVCHUKWA-677
p146
aVCHUKWA-676
p147
aVCHUKWA-675
p148
aVCHUKWA-674
p149
aVCHUKWA-673
p150
aVCHUKWA-672
p151
aVCHUKWA-671
p152
aVCHUKWA-670
p153
aVCHUKWA-669
p154
aVCHUKWA-668
p155
aVCHUKWA-667
p156
aVCHUKWA-666
p157
aVCHUKWA-665
p158
aVCHUKWA-664
p159
aVCHUKWA-663
p160
aVCHUKWA-662
p161
aVCHUKWA-660
p162
aVCHUKWA-659
p163
aVCHUKWA-658
p164
aVCHUKWA-657
p165
aVCHUKWA-656
p166
aVCHUKWA-655
p167
aVCHUKWA-654
p168
aVCHUKWA-653
p169
aVCHUKWA-652
p170
aVCHUKWA-651
p171
aVCHUKWA-650
p172
aVCHUKWA-649
p173
aVCHUKWA-648
p174
aVCHUKWA-647
p175
aVCHUKWA-646
p176
aVCHUKWA-645
p177
aVCHUKWA-644
p178
aVCHUKWA-643
p179
aVCHUKWA-642
p180
aVCHUKWA-641
p181
aVCHUKWA-640
p182
aVCHUKWA-639
p183
aVCHUKWA-638
p184
aVCHUKWA-637
p185
aVCHUKWA-636
p186
aVCHUKWA-635
p187
aVCHUKWA-634
p188
aVCHUKWA-633
p189
aVCHUKWA-632
p190
aVCHUKWA-631
p191
aVCHUKWA-630
p192
aVCHUKWA-629
p193
aVCHUKWA-628
p194
aVCHUKWA-627
p195
aVCHUKWA-626
p196
aVCHUKWA-625
p197
aVCHUKWA-624
p198
aVCHUKWA-623
p199
aVCHUKWA-622
p200
aVCHUKWA-621
p201
aVCHUKWA-620
p202
aVCHUKWA-619
p203
aVCHUKWA-618
p204
aVCHUKWA-617
p205
aVCHUKWA-616
p206
aVCHUKWA-615
p207
aVCHUKWA-614
p208
aVCHUKWA-613
p209
aVCHUKWA-612
p210
aVCHUKWA-611
p211
aVCHUKWA-610
p212
aVCHUKWA-609
p213
aVCHUKWA-608
p214
aVCHUKWA-607
p215
aVCHUKWA-606
p216
aVCHUKWA-605
p217
aVCHUKWA-604
p218
aVCHUKWA-603
p219
aVCHUKWA-602
p220
aVCHUKWA-601
p221
aVCHUKWA-600
p222
aVCHUKWA-599
p223
aVCHUKWA-598
p224
aVCHUKWA-597
p225
aVCHUKWA-596
p226
aVCHUKWA-595
p227
aVCHUKWA-594
p228
aVCHUKWA-593
p229
aVCHUKWA-592
p230
aVCHUKWA-591
p231
aVCHUKWA-590
p232
aVCHUKWA-589
p233
aVCHUKWA-588
p234
aVCHUKWA-587
p235
aVCHUKWA-586
p236
aVCHUKWA-585
p237
aVCHUKWA-584
p238
aVCHUKWA-583
p239
aVCHUKWA-582
p240
aVCHUKWA-581
p241
aVCHUKWA-580
p242
aVCHUKWA-579
p243
aVCHUKWA-578
p244
aVCHUKWA-577
p245
aVCHUKWA-576
p246
aVCHUKWA-575
p247
aVCHUKWA-574
p248
aVCHUKWA-573
p249
aVCHUKWA-572
p250
aVCHUKWA-571
p251
aVCHUKWA-570
p252
aVCHUKWA-569
p253
aVCHUKWA-568
p254
aVCHUKWA-567
p255
aVCHUKWA-566
p256
aVCHUKWA-565
p257
aVCHUKWA-564
p258
aVCHUKWA-563
p259
aVCHUKWA-562
p260
aVCHUKWA-561
p261
aVCHUKWA-560
p262
aVCHUKWA-559
p263
aVCHUKWA-558
p264
aVCHUKWA-557
p265
aVCHUKWA-556
p266
aVCHUKWA-555
p267
aVCHUKWA-554
p268
aVCHUKWA-553
p269
aVCHUKWA-552
p270
aVCHUKWA-551
p271
aVCHUKWA-550
p272
aVCHUKWA-549
p273
aVCHUKWA-548
p274
aVCHUKWA-547
p275
aVCHUKWA-546
p276
aVCHUKWA-545
p277
aVCHUKWA-544
p278
aVCHUKWA-543
p279
aVCHUKWA-542
p280
aVCHUKWA-541
p281
aVCHUKWA-540
p282
aVCHUKWA-539
p283
aVCHUKWA-538
p284
aVCHUKWA-537
p285
aVCHUKWA-536
p286
aVCHUKWA-535
p287
aVCHUKWA-534
p288
aVCHUKWA-533
p289
aVCHUKWA-532
p290
aVCHUKWA-531
p291
aVCHUKWA-530
p292
aVCHUKWA-529
p293
aVCHUKWA-528
p294
aVCHUKWA-527
p295
aVCHUKWA-526
p296
aVCHUKWA-525
p297
aVCHUKWA-524
p298
aVCHUKWA-523
p299
aVCHUKWA-522
p300
aVCHUKWA-521
p301
aVCHUKWA-520
p302
aVCHUKWA-519
p303
aVCHUKWA-518
p304
aVCHUKWA-517
p305
aVCHUKWA-516
p306
aVCHUKWA-515
p307
aVCHUKWA-514
p308
aVCHUKWA-513
p309
aVCHUKWA-511
p310
aVCHUKWA-510
p311
aVCHUKWA-509
p312
aVCHUKWA-508
p313
aVCHUKWA-507
p314
aVCHUKWA-506
p315
aVCHUKWA-505
p316
aVCHUKWA-504
p317
aVCHUKWA-503
p318
aVCHUKWA-502
p319
aVCHUKWA-501
p320
aVCHUKWA-500
p321
aVCHUKWA-499
p322
aVCHUKWA-498
p323
aVCHUKWA-497
p324
aVCHUKWA-496
p325
aVCHUKWA-495
p326
aVCHUKWA-494
p327
aVCHUKWA-493
p328
aVCHUKWA-492
p329
aVCHUKWA-491
p330
aVCHUKWA-490
p331
aVCHUKWA-489
p332
aVCHUKWA-488
p333
aVCHUKWA-487
p334
aVCHUKWA-486
p335
aVCHUKWA-485
p336
aVCHUKWA-484
p337
aVCHUKWA-483
p338
aVCHUKWA-482
p339
aVCHUKWA-481
p340
aVCHUKWA-480
p341
aVCHUKWA-479
p342
aVCHUKWA-478
p343
aVCHUKWA-477
p344
aVCHUKWA-476
p345
aVCHUKWA-475
p346
aVCHUKWA-474
p347
aVCHUKWA-473
p348
aVCHUKWA-472
p349
aVCHUKWA-471
p350
aVCHUKWA-470
p351
aVCHUKWA-469
p352
aVCHUKWA-468
p353
aVCHUKWA-467
p354
aVCHUKWA-466
p355
aVCHUKWA-465
p356
aVCHUKWA-464
p357
aVCHUKWA-463
p358
aVCHUKWA-462
p359
aVCHUKWA-461
p360
aVCHUKWA-460
p361
aVCHUKWA-459
p362
aVCHUKWA-458
p363
aVCHUKWA-457
p364
aVCHUKWA-456
p365
aVCHUKWA-455
p366
aVCHUKWA-454
p367
aVCHUKWA-453
p368
aVCHUKWA-452
p369
aVCHUKWA-451
p370
aVCHUKWA-450
p371
aVCHUKWA-449
p372
aVCHUKWA-448
p373
aVCHUKWA-447
p374
aVCHUKWA-446
p375
aVCHUKWA-445
p376
aVCHUKWA-444
p377
aVCHUKWA-443
p378
aVCHUKWA-442
p379
aVCHUKWA-441
p380
aVCHUKWA-440
p381
aVCHUKWA-439
p382
aVCHUKWA-438
p383
aVCHUKWA-437
p384
aVCHUKWA-436
p385
aVCHUKWA-435
p386
aVCHUKWA-434
p387
aVCHUKWA-433
p388
aVCHUKWA-432
p389
aVCHUKWA-431
p390
aVCHUKWA-430
p391
aVCHUKWA-429
p392
aVCHUKWA-428
p393
aVCHUKWA-427
p394
aVCHUKWA-426
p395
aVCHUKWA-425
p396
aVCHUKWA-424
p397
aVCHUKWA-423
p398
aVCHUKWA-422
p399
aVCHUKWA-421
p400
aVCHUKWA-420
p401
aVCHUKWA-419
p402
aVCHUKWA-418
p403
aVCHUKWA-417
p404
aVCHUKWA-416
p405
aVCHUKWA-415
p406
aVCHUKWA-414
p407
aVCHUKWA-413
p408
aVCHUKWA-412
p409
aVCHUKWA-411
p410
aVCHUKWA-410
p411
aVCHUKWA-409
p412
aVCHUKWA-408
p413
aVCHUKWA-407
p414
aVCHUKWA-406
p415
aVCHUKWA-405
p416
aVCHUKWA-404
p417
aVCHUKWA-403
p418
aVCHUKWA-402
p419
aVCHUKWA-401
p420
aVCHUKWA-400
p421
aVCHUKWA-399
p422
aVCHUKWA-398
p423
aVCHUKWA-397
p424
aVCHUKWA-396
p425
aVCHUKWA-395
p426
aVCHUKWA-394
p427
aVCHUKWA-393
p428
aVCHUKWA-392
p429
aVCHUKWA-391
p430
aVCHUKWA-390
p431
aVCHUKWA-389
p432
aVCHUKWA-388
p433
aVCHUKWA-387
p434
aVCHUKWA-386
p435
aVCHUKWA-385
p436
aVCHUKWA-384
p437
aVCHUKWA-383
p438
aVCHUKWA-382
p439
aVCHUKWA-381
p440
aVCHUKWA-380
p441
aVCHUKWA-379
p442
aVCHUKWA-378
p443
aVCHUKWA-377
p444
aVCHUKWA-376
p445
aVCHUKWA-375
p446
aVCHUKWA-374
p447
aVCHUKWA-373
p448
aVCHUKWA-372
p449
aVCHUKWA-371
p450
aVCHUKWA-370
p451
aVCHUKWA-369
p452
aVCHUKWA-368
p453
aVCHUKWA-367
p454
aVCHUKWA-366
p455
aVCHUKWA-365
p456
aVCHUKWA-364
p457
aVCHUKWA-363
p458
aVCHUKWA-362
p459
aVCHUKWA-361
p460
aVCHUKWA-360
p461
aVCHUKWA-359
p462
aVCHUKWA-358
p463
aVCHUKWA-357
p464
aVCHUKWA-356
p465
aVCHUKWA-355
p466
aVCHUKWA-354
p467
aVCHUKWA-353
p468
aVCHUKWA-352
p469
aVCHUKWA-351
p470
aVCHUKWA-350
p471
aVCHUKWA-349
p472
aVCHUKWA-348
p473
aVCHUKWA-347
p474
aVCHUKWA-346
p475
aVCHUKWA-345
p476
aVCHUKWA-344
p477
aVCHUKWA-343
p478
aVCHUKWA-342
p479
aVCHUKWA-341
p480
aVCHUKWA-340
p481
aVCHUKWA-339
p482
aVCHUKWA-338
p483
aVCHUKWA-337
p484
aVCHUKWA-336
p485
aVCHUKWA-335
p486
aVCHUKWA-334
p487
aVCHUKWA-333
p488
aVCHUKWA-332
p489
aVCHUKWA-331
p490
aVCHUKWA-330
p491
aVCHUKWA-329
p492
aVCHUKWA-328
p493
aVCHUKWA-327
p494
aVCHUKWA-326
p495
aVCHUKWA-325
p496
aVCHUKWA-324
p497
aVCHUKWA-323
p498
aVCHUKWA-322
p499
aVCHUKWA-321
p500
aVCHUKWA-320
p501
aVCHUKWA-319
p502
aVCHUKWA-318
p503
aVCHUKWA-317
p504
aVCHUKWA-316
p505
aVCHUKWA-315
p506
aVCHUKWA-314
p507
aVCHUKWA-313
p508
aVCHUKWA-312
p509
aVCHUKWA-311
p510
aVCHUKWA-310
p511
aVCHUKWA-309
p512
aVCHUKWA-308
p513
aVCHUKWA-307
p514
aVCHUKWA-306
p515
aVCHUKWA-305
p516
aVCHUKWA-304
p517
aVCHUKWA-303
p518
aVCHUKWA-302
p519
aVCHUKWA-301
p520
aVCHUKWA-300
p521
aVCHUKWA-299
p522
aVCHUKWA-298
p523
aVCHUKWA-297
p524
aVCHUKWA-296
p525
aVCHUKWA-295
p526
aVCHUKWA-294
p527
aVCHUKWA-293
p528
aVCHUKWA-292
p529
aVCHUKWA-291
p530
aVCHUKWA-290
p531
aVCHUKWA-289
p532
aVCHUKWA-288
p533
aVCHUKWA-287
p534
aVCHUKWA-286
p535
aVCHUKWA-285
p536
aVCHUKWA-284
p537
aVCHUKWA-283
p538
aVCHUKWA-282
p539
aVCHUKWA-281
p540
aVCHUKWA-280
p541
aVCHUKWA-279
p542
aVCHUKWA-278
p543
aVCHUKWA-277
p544
aVCHUKWA-276
p545
aVCHUKWA-275
p546
aVCHUKWA-274
p547
aVCHUKWA-273
p548
aVCHUKWA-272
p549
aVCHUKWA-271
p550
aVCHUKWA-270
p551
aVCHUKWA-269
p552
aVCHUKWA-268
p553
aVCHUKWA-267
p554
aVCHUKWA-266
p555
aVCHUKWA-265
p556
aVCHUKWA-264
p557
aVCHUKWA-263
p558
aVCHUKWA-262
p559
aVCHUKWA-261
p560
aVCHUKWA-260
p561
aVCHUKWA-259
p562
aVCHUKWA-258
p563
aVCHUKWA-257
p564
aVCHUKWA-256
p565
aVCHUKWA-255
p566
aVCHUKWA-254
p567
aVCHUKWA-253
p568
aVCHUKWA-252
p569
aVCHUKWA-251
p570
aVCHUKWA-250
p571
aVCHUKWA-249
p572
aVCHUKWA-248
p573
aVCHUKWA-247
p574
aVCHUKWA-246
p575
aVCHUKWA-245
p576
aVCHUKWA-244
p577
aVCHUKWA-243
p578
aVCHUKWA-242
p579
aVCHUKWA-241
p580
aVCHUKWA-240
p581
aVCHUKWA-239
p582
aVCHUKWA-238
p583
aVCHUKWA-237
p584
aVCHUKWA-236
p585
aVCHUKWA-235
p586
aVCHUKWA-234
p587
aVCHUKWA-233
p588
aVCHUKWA-232
p589
aVCHUKWA-231
p590
aVCHUKWA-230
p591
aVCHUKWA-229
p592
aVCHUKWA-228
p593
aVCHUKWA-227
p594
aVCHUKWA-226
p595
aVCHUKWA-225
p596
aVCHUKWA-224
p597
aVCHUKWA-223
p598
aVCHUKWA-222
p599
aVCHUKWA-221
p600
aVCHUKWA-220
p601
aVCHUKWA-219
p602
aVCHUKWA-218
p603
aVCHUKWA-217
p604
aVCHUKWA-216
p605
aVCHUKWA-215
p606
aVCHUKWA-214
p607
aVCHUKWA-213
p608
aVCHUKWA-212
p609
aVCHUKWA-211
p610
aVCHUKWA-210
p611
aVCHUKWA-209
p612
aVCHUKWA-208
p613
aVCHUKWA-207
p614
aVCHUKWA-206
p615
aVCHUKWA-205
p616
aVCHUKWA-204
p617
aVCHUKWA-203
p618
aVCHUKWA-202
p619
aVCHUKWA-201
p620
aVCHUKWA-200
p621
aVCHUKWA-199
p622
aVCHUKWA-198
p623
aVCHUKWA-197
p624
aVCHUKWA-196
p625
aVCHUKWA-195
p626
aVCHUKWA-194
p627
aVCHUKWA-193
p628
aVCHUKWA-192
p629
aVCHUKWA-191
p630
aVCHUKWA-190
p631
aVCHUKWA-189
p632
aVCHUKWA-188
p633
aVCHUKWA-187
p634
aVCHUKWA-186
p635
aVCHUKWA-185
p636
aVCHUKWA-184
p637
aVCHUKWA-183
p638
aVCHUKWA-182
p639
aVCHUKWA-181
p640
aVCHUKWA-180
p641
aVCHUKWA-179
p642
aVCHUKWA-178
p643
aVCHUKWA-177
p644
aVCHUKWA-176
p645
aVCHUKWA-175
p646
aVCHUKWA-174
p647
aVCHUKWA-173
p648
aVCHUKWA-172
p649
aVCHUKWA-171
p650
aVCHUKWA-170
p651
aVCHUKWA-169
p652
aVCHUKWA-168
p653
aVCHUKWA-167
p654
aVCHUKWA-166
p655
aVCHUKWA-165
p656
aVCHUKWA-164
p657
aVCHUKWA-163
p658
aVCHUKWA-162
p659
aVCHUKWA-161
p660
aVCHUKWA-160
p661
aVCHUKWA-159
p662
aVCHUKWA-158
p663
aVCHUKWA-157
p664
aVCHUKWA-156
p665
aVCHUKWA-155
p666
aVCHUKWA-154
p667
aVCHUKWA-153
p668
aVCHUKWA-152
p669
aVCHUKWA-151
p670
aVCHUKWA-150
p671
aVCHUKWA-149
p672
aVCHUKWA-148
p673
aVCHUKWA-147
p674
aVCHUKWA-146
p675
aVCHUKWA-145
p676
aVCHUKWA-144
p677
aVCHUKWA-143
p678
aVCHUKWA-142
p679
aVCHUKWA-141
p680
aVCHUKWA-140
p681
aVCHUKWA-139
p682
aVCHUKWA-138
p683
aVCHUKWA-137
p684
aVCHUKWA-136
p685
aVCHUKWA-135
p686
aVCHUKWA-134
p687
aVCHUKWA-133
p688
aVCHUKWA-132
p689
aVCHUKWA-131
p690
aVCHUKWA-130
p691
aVCHUKWA-129
p692
aVCHUKWA-128
p693
aVCHUKWA-127
p694
aVCHUKWA-126
p695
aVCHUKWA-125
p696
aVCHUKWA-124
p697
aVCHUKWA-123
p698
aVCHUKWA-122
p699
aVCHUKWA-121
p700
aVCHUKWA-120
p701
aVCHUKWA-119
p702
aVCHUKWA-118
p703
aVCHUKWA-117
p704
aVCHUKWA-116
p705
aVCHUKWA-115
p706
aVCHUKWA-114
p707
aVCHUKWA-113
p708
aVCHUKWA-112
p709
aVCHUKWA-111
p710
aVCHUKWA-110
p711
aVCHUKWA-109
p712
aVCHUKWA-108
p713
aVCHUKWA-107
p714
aVCHUKWA-106
p715
aVCHUKWA-105
p716
aVCHUKWA-104
p717
aVCHUKWA-103
p718
aVCHUKWA-102
p719
aVCHUKWA-101
p720
aVCHUKWA-100
p721
aVCHUKWA-99
p722
aVCHUKWA-98
p723
aVCHUKWA-97
p724
aVCHUKWA-96
p725
aVCHUKWA-95
p726
aVCHUKWA-94
p727
aVCHUKWA-93
p728
aVCHUKWA-92
p729
aVCHUKWA-91
p730
aVCHUKWA-90
p731
aVCHUKWA-89
p732
aVCHUKWA-88
p733
aVCHUKWA-87
p734
aVCHUKWA-86
p735
aVCHUKWA-85
p736
aVCHUKWA-84
p737
aVCHUKWA-83
p738
aVCHUKWA-82
p739
aVCHUKWA-81
p740
aVCHUKWA-80
p741
aVCHUKWA-79
p742
aVCHUKWA-78
p743
aVCHUKWA-77
p744
aVCHUKWA-76
p745
aVCHUKWA-75
p746
aVCHUKWA-74
p747
aVCHUKWA-73
p748
aVCHUKWA-72
p749
aVCHUKWA-71
p750
aVCHUKWA-70
p751
aVCHUKWA-69
p752
aVCHUKWA-68
p753
aVCHUKWA-67
p754
aVCHUKWA-66
p755
aVCHUKWA-65
p756
aVCHUKWA-64
p757
aVCHUKWA-63
p758
aVCHUKWA-62
p759
aVCHUKWA-61
p760
aVCHUKWA-60
p761
aVCHUKWA-59
p762
aVCHUKWA-58
p763
aVCHUKWA-57
p764
aVCHUKWA-56
p765
aVCHUKWA-55
p766
aVCHUKWA-54
p767
aVCHUKWA-53
p768
aVCHUKWA-52
p769
aVCHUKWA-51
p770
aVCHUKWA-50
p771
aVCHUKWA-49
p772
aVCHUKWA-48
p773
aVCHUKWA-47
p774
aVCHUKWA-46
p775
aVCHUKWA-45
p776
aVCHUKWA-44
p777
aVCHUKWA-43
p778
aVCHUKWA-42
p779
aVCHUKWA-41
p780
aVCHUKWA-40
p781
aVCHUKWA-39
p782
aVCHUKWA-38
p783
aVCHUKWA-37
p784
aVCHUKWA-36
p785
aVCHUKWA-35
p786
aVCHUKWA-33
p787
aVCHUKWA-32
p788
aVCHUKWA-31
p789
aVCHUKWA-30
p790
aVCHUKWA-29
p791
aVCHUKWA-28
p792
aVCHUKWA-27
p793
aVCHUKWA-26
p794
aVCHUKWA-25
p795
aVCHUKWA-24
p796
aVCHUKWA-23
p797
aVCHUKWA-22
p798
aVCHUKWA-21
p799
aVCHUKWA-20
p800
aVCHUKWA-19
p801
aVCHUKWA-18
p802
aVCHUKWA-17
p803
aVCHUKWA-16
p804
aVCHUKWA-15
p805
aVCHUKWA-14
p806
aVCHUKWA-13
p807
aVCHUKWA-12
p808
aVCHUKWA-11
p809
aVCHUKWA-10
p810
aVCHUKWA-9
p811
aVCHUKWA-8
p812
aVCHUKWA-7
p813
aVCHUKWA-6
p814
aVCHUKWA-5
p815
aVCHUKWA-4
p816
aVCHUKWA-3
p817
aVCHUKWA-2
p818
aVCHUKWA-1
p819
a.