(lp0
VCLEREZZA-1026
p1
aVCLEREZZA-1025
p2
aVCLEREZZA-1024
p3
aVCLEREZZA-1023
p4
aVCLEREZZA-1022
p5
aVCLEREZZA-1021
p6
aVCLEREZZA-1020
p7
aVCLEREZZA-1019
p8
aVCLEREZZA-1018
p9
aVCLEREZZA-1017
p10
aVCLEREZZA-1016
p11
aVCLEREZZA-1015
p12
aVCLEREZZA-1014
p13
aVCLEREZZA-1013
p14
aVCLEREZZA-1012
p15
aVCLEREZZA-1011
p16
aVCLEREZZA-1010
p17
aVCLEREZZA-1009
p18
aVCLEREZZA-1008
p19
aVCLEREZZA-1007
p20
aVCLEREZZA-1006
p21
aVCLEREZZA-1005
p22
aVCLEREZZA-1004
p23
aVCLEREZZA-1003
p24
aVCLEREZZA-1002
p25
aVCLEREZZA-1001
p26
aVCLEREZZA-1000
p27
aVCLEREZZA-999
p28
aVCLEREZZA-998
p29
aVCLEREZZA-997
p30
aVCLEREZZA-996
p31
aVCLEREZZA-995
p32
aVCLEREZZA-994
p33
aVCLEREZZA-993
p34
aVCLEREZZA-992
p35
aVCLEREZZA-991
p36
aVCLEREZZA-990
p37
aVCLEREZZA-989
p38
aVCLEREZZA-988
p39
aVCLEREZZA-987
p40
aVCLEREZZA-986
p41
aVCLEREZZA-985
p42
aVCLEREZZA-984
p43
aVCLEREZZA-983
p44
aVCLEREZZA-982
p45
aVCLEREZZA-981
p46
aVCLEREZZA-980
p47
aVCLEREZZA-979
p48
aVCLEREZZA-978
p49
aVCLEREZZA-977
p50
aVCLEREZZA-976
p51
aVCLEREZZA-975
p52
aVCLEREZZA-974
p53
aVCLEREZZA-973
p54
aVCLEREZZA-972
p55
aVCLEREZZA-971
p56
aVCLEREZZA-970
p57
aVCLEREZZA-969
p58
aVCLEREZZA-968
p59
aVCLEREZZA-967
p60
aVCLEREZZA-966
p61
aVCLEREZZA-965
p62
aVCLEREZZA-964
p63
aVCLEREZZA-963
p64
aVCLEREZZA-962
p65
aVCLEREZZA-961
p66
aVCLEREZZA-960
p67
aVCLEREZZA-959
p68
aVCLEREZZA-958
p69
aVCLEREZZA-957
p70
aVCLEREZZA-956
p71
aVCLEREZZA-955
p72
aVCLEREZZA-954
p73
aVCLEREZZA-953
p74
aVCLEREZZA-952
p75
aVCLEREZZA-951
p76
aVCLEREZZA-950
p77
aVCLEREZZA-949
p78
aVCLEREZZA-948
p79
aVCLEREZZA-947
p80
aVCLEREZZA-946
p81
aVCLEREZZA-945
p82
aVCLEREZZA-944
p83
aVCLEREZZA-943
p84
aVCLEREZZA-942
p85
aVCLEREZZA-941
p86
aVCLEREZZA-940
p87
aVCLEREZZA-939
p88
aVCLEREZZA-938
p89
aVCLEREZZA-937
p90
aVCLEREZZA-936
p91
aVCLEREZZA-935
p92
aVCLEREZZA-934
p93
aVCLEREZZA-933
p94
aVCLEREZZA-932
p95
aVCLEREZZA-931
p96
aVCLEREZZA-930
p97
aVCLEREZZA-929
p98
aVCLEREZZA-928
p99
aVCLEREZZA-927
p100
aVCLEREZZA-926
p101
aVCLEREZZA-925
p102
aVCLEREZZA-924
p103
aVCLEREZZA-923
p104
aVCLEREZZA-922
p105
aVCLEREZZA-921
p106
aVCLEREZZA-920
p107
aVCLEREZZA-919
p108
aVCLEREZZA-918
p109
aVCLEREZZA-917
p110
aVCLEREZZA-916
p111
aVCLEREZZA-915
p112
aVCLEREZZA-914
p113
aVCLEREZZA-913
p114
aVCLEREZZA-912
p115
aVCLEREZZA-911
p116
aVCLEREZZA-910
p117
aVCLEREZZA-909
p118
aVCLEREZZA-908
p119
aVCLEREZZA-907
p120
aVCLEREZZA-906
p121
aVCLEREZZA-905
p122
aVCLEREZZA-904
p123
aVCLEREZZA-903
p124
aVCLEREZZA-902
p125
aVCLEREZZA-901
p126
aVCLEREZZA-900
p127
aVCLEREZZA-899
p128
aVCLEREZZA-898
p129
aVCLEREZZA-897
p130
aVCLEREZZA-896
p131
aVCLEREZZA-895
p132
aVCLEREZZA-894
p133
aVCLEREZZA-893
p134
aVCLEREZZA-892
p135
aVCLEREZZA-891
p136
aVCLEREZZA-890
p137
aVCLEREZZA-889
p138
aVCLEREZZA-888
p139
aVCLEREZZA-887
p140
aVCLEREZZA-886
p141
aVCLEREZZA-885
p142
aVCLEREZZA-884
p143
aVCLEREZZA-883
p144
aVCLEREZZA-882
p145
aVCLEREZZA-881
p146
aVCLEREZZA-880
p147
aVCLEREZZA-879
p148
aVCLEREZZA-878
p149
aVCLEREZZA-877
p150
aVCLEREZZA-876
p151
aVCLEREZZA-875
p152
aVCLEREZZA-874
p153
aVCLEREZZA-873
p154
aVCLEREZZA-872
p155
aVCLEREZZA-871
p156
aVCLEREZZA-870
p157
aVCLEREZZA-869
p158
aVCLEREZZA-868
p159
aVCLEREZZA-867
p160
aVCLEREZZA-866
p161
aVCLEREZZA-865
p162
aVCLEREZZA-864
p163
aVCLEREZZA-863
p164
aVCLEREZZA-862
p165
aVCLEREZZA-861
p166
aVCLEREZZA-860
p167
aVCLEREZZA-859
p168
aVCLEREZZA-858
p169
aVCLEREZZA-857
p170
aVCLEREZZA-856
p171
aVCLEREZZA-855
p172
aVCLEREZZA-854
p173
aVCLEREZZA-853
p174
aVCLEREZZA-852
p175
aVCLEREZZA-851
p176
aVCLEREZZA-850
p177
aVCLEREZZA-849
p178
aVCLEREZZA-848
p179
aVCLEREZZA-847
p180
aVCLEREZZA-846
p181
aVCLEREZZA-845
p182
aVCLEREZZA-844
p183
aVCLEREZZA-843
p184
aVCLEREZZA-842
p185
aVCLEREZZA-841
p186
aVCLEREZZA-840
p187
aVCLEREZZA-839
p188
aVCLEREZZA-838
p189
aVCLEREZZA-837
p190
aVCLEREZZA-836
p191
aVCLEREZZA-835
p192
aVCLEREZZA-834
p193
aVCLEREZZA-833
p194
aVCLEREZZA-832
p195
aVCLEREZZA-831
p196
aVCLEREZZA-830
p197
aVCLEREZZA-829
p198
aVCLEREZZA-828
p199
aVCLEREZZA-827
p200
aVCLEREZZA-826
p201
aVCLEREZZA-825
p202
aVCLEREZZA-824
p203
aVCLEREZZA-823
p204
aVCLEREZZA-822
p205
aVCLEREZZA-821
p206
aVCLEREZZA-820
p207
aVCLEREZZA-819
p208
aVCLEREZZA-818
p209
aVCLEREZZA-817
p210
aVCLEREZZA-816
p211
aVCLEREZZA-815
p212
aVCLEREZZA-814
p213
aVCLEREZZA-813
p214
aVCLEREZZA-812
p215
aVCLEREZZA-811
p216
aVCLEREZZA-810
p217
aVCLEREZZA-809
p218
aVCLEREZZA-808
p219
aVCLEREZZA-807
p220
aVCLEREZZA-806
p221
aVCLEREZZA-805
p222
aVCLEREZZA-804
p223
aVCLEREZZA-803
p224
aVCLEREZZA-802
p225
aVCLEREZZA-801
p226
aVCLEREZZA-800
p227
aVCLEREZZA-799
p228
aVCLEREZZA-798
p229
aVCLEREZZA-797
p230
aVCLEREZZA-796
p231
aVCLEREZZA-795
p232
aVCLEREZZA-794
p233
aVCLEREZZA-793
p234
aVCLEREZZA-792
p235
aVCLEREZZA-791
p236
aVCLEREZZA-790
p237
aVCLEREZZA-789
p238
aVCLEREZZA-788
p239
aVCLEREZZA-787
p240
aVCLEREZZA-786
p241
aVCLEREZZA-785
p242
aVCLEREZZA-784
p243
aVCLEREZZA-783
p244
aVCLEREZZA-782
p245
aVCLEREZZA-781
p246
aVCLEREZZA-780
p247
aVCLEREZZA-779
p248
aVCLEREZZA-778
p249
aVCLEREZZA-777
p250
aVCLEREZZA-776
p251
aVCLEREZZA-775
p252
aVCLEREZZA-774
p253
aVCLEREZZA-773
p254
aVCLEREZZA-772
p255
aVCLEREZZA-771
p256
aVCLEREZZA-770
p257
aVCLEREZZA-769
p258
aVCLEREZZA-768
p259
aVCLEREZZA-767
p260
aVCLEREZZA-766
p261
aVCLEREZZA-765
p262
aVCLEREZZA-764
p263
aVCLEREZZA-763
p264
aVCLEREZZA-762
p265
aVCLEREZZA-761
p266
aVCLEREZZA-760
p267
aVCLEREZZA-759
p268
aVCLEREZZA-758
p269
aVCLEREZZA-757
p270
aVCLEREZZA-756
p271
aVCLEREZZA-755
p272
aVCLEREZZA-754
p273
aVCLEREZZA-753
p274
aVCLEREZZA-752
p275
aVCLEREZZA-751
p276
aVCLEREZZA-750
p277
aVCLEREZZA-749
p278
aVCLEREZZA-748
p279
aVCLEREZZA-747
p280
aVCLEREZZA-746
p281
aVCLEREZZA-745
p282
aVCLEREZZA-744
p283
aVCLEREZZA-743
p284
aVCLEREZZA-742
p285
aVCLEREZZA-741
p286
aVCLEREZZA-740
p287
aVCLEREZZA-739
p288
aVCLEREZZA-738
p289
aVCLEREZZA-737
p290
aVCLEREZZA-736
p291
aVCLEREZZA-735
p292
aVCLEREZZA-734
p293
aVCLEREZZA-733
p294
aVCLEREZZA-732
p295
aVCLEREZZA-731
p296
aVCLEREZZA-730
p297
aVCLEREZZA-729
p298
aVCLEREZZA-728
p299
aVCLEREZZA-727
p300
aVCLEREZZA-726
p301
aVCLEREZZA-725
p302
aVCLEREZZA-724
p303
aVCLEREZZA-723
p304
aVCLEREZZA-722
p305
aVCLEREZZA-721
p306
aVCLEREZZA-720
p307
aVCLEREZZA-719
p308
aVCLEREZZA-718
p309
aVCLEREZZA-717
p310
aVCLEREZZA-716
p311
aVCLEREZZA-715
p312
aVCLEREZZA-714
p313
aVCLEREZZA-713
p314
aVCLEREZZA-712
p315
aVCLEREZZA-711
p316
aVCLEREZZA-710
p317
aVCLEREZZA-709
p318
aVCLEREZZA-708
p319
aVCLEREZZA-707
p320
aVCLEREZZA-706
p321
aVCLEREZZA-705
p322
aVCLEREZZA-704
p323
aVCLEREZZA-703
p324
aVCLEREZZA-702
p325
aVCLEREZZA-701
p326
aVCLEREZZA-700
p327
aVCLEREZZA-699
p328
aVCLEREZZA-698
p329
aVCLEREZZA-697
p330
aVCLEREZZA-696
p331
aVCLEREZZA-695
p332
aVCLEREZZA-694
p333
aVCLEREZZA-693
p334
aVCLEREZZA-692
p335
aVCLEREZZA-691
p336
aVCLEREZZA-690
p337
aVCLEREZZA-689
p338
aVCLEREZZA-688
p339
aVCLEREZZA-687
p340
aVCLEREZZA-686
p341
aVCLEREZZA-685
p342
aVCLEREZZA-684
p343
aVCLEREZZA-683
p344
aVCLEREZZA-682
p345
aVCLEREZZA-681
p346
aVCLEREZZA-680
p347
aVCLEREZZA-679
p348
aVCLEREZZA-678
p349
aVCLEREZZA-677
p350
aVCLEREZZA-676
p351
aVCLEREZZA-675
p352
aVCLEREZZA-674
p353
aVCLEREZZA-673
p354
aVCLEREZZA-672
p355
aVCLEREZZA-671
p356
aVCLEREZZA-670
p357
aVCLEREZZA-669
p358
aVCLEREZZA-668
p359
aVCLEREZZA-667
p360
aVCLEREZZA-666
p361
aVCLEREZZA-665
p362
aVCLEREZZA-664
p363
aVCLEREZZA-663
p364
aVCLEREZZA-662
p365
aVCLEREZZA-661
p366
aVCLEREZZA-660
p367
aVCLEREZZA-659
p368
aVCLEREZZA-658
p369
aVCLEREZZA-657
p370
aVCLEREZZA-656
p371
aVCLEREZZA-655
p372
aVCLEREZZA-654
p373
aVCLEREZZA-653
p374
aVCLEREZZA-652
p375
aVCLEREZZA-651
p376
aVCLEREZZA-650
p377
aVCLEREZZA-649
p378
aVCLEREZZA-648
p379
aVCLEREZZA-647
p380
aVCLEREZZA-646
p381
aVCLEREZZA-645
p382
aVCLEREZZA-644
p383
aVCLEREZZA-643
p384
aVCLEREZZA-642
p385
aVCLEREZZA-641
p386
aVCLEREZZA-640
p387
aVCLEREZZA-639
p388
aVCLEREZZA-638
p389
aVCLEREZZA-637
p390
aVCLEREZZA-636
p391
aVCLEREZZA-635
p392
aVCLEREZZA-634
p393
aVCLEREZZA-633
p394
aVCLEREZZA-632
p395
aVCLEREZZA-631
p396
aVCLEREZZA-630
p397
aVCLEREZZA-629
p398
aVCLEREZZA-628
p399
aVCLEREZZA-627
p400
aVCLEREZZA-626
p401
aVCLEREZZA-625
p402
aVCLEREZZA-624
p403
aVCLEREZZA-623
p404
aVCLEREZZA-622
p405
aVCLEREZZA-621
p406
aVCLEREZZA-620
p407
aVCLEREZZA-619
p408
aVCLEREZZA-618
p409
aVCLEREZZA-617
p410
aVCLEREZZA-616
p411
aVCLEREZZA-615
p412
aVCLEREZZA-614
p413
aVCLEREZZA-613
p414
aVCLEREZZA-612
p415
aVCLEREZZA-611
p416
aVCLEREZZA-610
p417
aVCLEREZZA-609
p418
aVCLEREZZA-608
p419
aVCLEREZZA-607
p420
aVCLEREZZA-606
p421
aVCLEREZZA-605
p422
aVCLEREZZA-604
p423
aVCLEREZZA-603
p424
aVCLEREZZA-602
p425
aVCLEREZZA-601
p426
aVCLEREZZA-600
p427
aVCLEREZZA-599
p428
aVCLEREZZA-598
p429
aVCLEREZZA-597
p430
aVCLEREZZA-596
p431
aVCLEREZZA-595
p432
aVCLEREZZA-594
p433
aVCLEREZZA-593
p434
aVCLEREZZA-592
p435
aVCLEREZZA-591
p436
aVCLEREZZA-590
p437
aVCLEREZZA-589
p438
aVCLEREZZA-588
p439
aVCLEREZZA-587
p440
aVCLEREZZA-586
p441
aVCLEREZZA-585
p442
aVCLEREZZA-584
p443
aVCLEREZZA-583
p444
aVCLEREZZA-582
p445
aVCLEREZZA-581
p446
aVCLEREZZA-580
p447
aVCLEREZZA-579
p448
aVCLEREZZA-578
p449
aVCLEREZZA-577
p450
aVCLEREZZA-576
p451
aVCLEREZZA-575
p452
aVCLEREZZA-574
p453
aVCLEREZZA-573
p454
aVCLEREZZA-572
p455
aVCLEREZZA-571
p456
aVCLEREZZA-570
p457
aVCLEREZZA-569
p458
aVCLEREZZA-568
p459
aVCLEREZZA-567
p460
aVCLEREZZA-566
p461
aVCLEREZZA-565
p462
aVCLEREZZA-564
p463
aVCLEREZZA-563
p464
aVCLEREZZA-562
p465
aVCLEREZZA-561
p466
aVCLEREZZA-560
p467
aVCLEREZZA-559
p468
aVCLEREZZA-558
p469
aVCLEREZZA-557
p470
aVCLEREZZA-556
p471
aVCLEREZZA-555
p472
aVCLEREZZA-554
p473
aVCLEREZZA-553
p474
aVCLEREZZA-552
p475
aVCLEREZZA-551
p476
aVCLEREZZA-550
p477
aVCLEREZZA-549
p478
aVCLEREZZA-548
p479
aVCLEREZZA-547
p480
aVCLEREZZA-546
p481
aVCLEREZZA-545
p482
aVCLEREZZA-544
p483
aVCLEREZZA-543
p484
aVCLEREZZA-542
p485
aVCLEREZZA-541
p486
aVCLEREZZA-540
p487
aVCLEREZZA-539
p488
aVCLEREZZA-538
p489
aVCLEREZZA-537
p490
aVCLEREZZA-536
p491
aVCLEREZZA-535
p492
aVCLEREZZA-534
p493
aVCLEREZZA-533
p494
aVCLEREZZA-532
p495
aVCLEREZZA-531
p496
aVCLEREZZA-530
p497
aVCLEREZZA-529
p498
aVCLEREZZA-528
p499
aVCLEREZZA-527
p500
aVCLEREZZA-526
p501
aVCLEREZZA-525
p502
aVCLEREZZA-524
p503
aVCLEREZZA-523
p504
aVCLEREZZA-522
p505
aVCLEREZZA-521
p506
aVCLEREZZA-520
p507
aVCLEREZZA-519
p508
aVCLEREZZA-518
p509
aVCLEREZZA-517
p510
aVCLEREZZA-516
p511
aVCLEREZZA-515
p512
aVCLEREZZA-514
p513
aVCLEREZZA-513
p514
aVCLEREZZA-512
p515
aVCLEREZZA-511
p516
aVCLEREZZA-510
p517
aVCLEREZZA-509
p518
aVCLEREZZA-508
p519
aVCLEREZZA-507
p520
aVCLEREZZA-506
p521
aVCLEREZZA-505
p522
aVCLEREZZA-504
p523
aVCLEREZZA-503
p524
aVCLEREZZA-502
p525
aVCLEREZZA-501
p526
aVCLEREZZA-500
p527
aVCLEREZZA-499
p528
aVCLEREZZA-498
p529
aVCLEREZZA-497
p530
aVCLEREZZA-496
p531
aVCLEREZZA-495
p532
aVCLEREZZA-494
p533
aVCLEREZZA-493
p534
aVCLEREZZA-492
p535
aVCLEREZZA-491
p536
aVCLEREZZA-490
p537
aVCLEREZZA-489
p538
aVCLEREZZA-488
p539
aVCLEREZZA-487
p540
aVCLEREZZA-486
p541
aVCLEREZZA-485
p542
aVCLEREZZA-484
p543
aVCLEREZZA-483
p544
aVCLEREZZA-482
p545
aVCLEREZZA-481
p546
aVCLEREZZA-480
p547
aVCLEREZZA-479
p548
aVCLEREZZA-478
p549
aVCLEREZZA-477
p550
aVCLEREZZA-476
p551
aVCLEREZZA-475
p552
aVCLEREZZA-474
p553
aVCLEREZZA-473
p554
aVCLEREZZA-472
p555
aVCLEREZZA-471
p556
aVCLEREZZA-470
p557
aVCLEREZZA-469
p558
aVCLEREZZA-468
p559
aVCLEREZZA-467
p560
aVCLEREZZA-466
p561
aVCLEREZZA-465
p562
aVCLEREZZA-464
p563
aVCLEREZZA-463
p564
aVCLEREZZA-462
p565
aVCLEREZZA-461
p566
aVCLEREZZA-460
p567
aVCLEREZZA-459
p568
aVCLEREZZA-458
p569
aVCLEREZZA-457
p570
aVCLEREZZA-456
p571
aVCLEREZZA-455
p572
aVCLEREZZA-454
p573
aVCLEREZZA-453
p574
aVCLEREZZA-452
p575
aVCLEREZZA-451
p576
aVCLEREZZA-450
p577
aVCLEREZZA-449
p578
aVCLEREZZA-448
p579
aVCLEREZZA-447
p580
aVCLEREZZA-446
p581
aVCLEREZZA-445
p582
aVCLEREZZA-444
p583
aVCLEREZZA-443
p584
aVCLEREZZA-442
p585
aVCLEREZZA-441
p586
aVCLEREZZA-440
p587
aVCLEREZZA-439
p588
aVCLEREZZA-438
p589
aVCLEREZZA-437
p590
aVCLEREZZA-436
p591
aVCLEREZZA-435
p592
aVCLEREZZA-434
p593
aVCLEREZZA-433
p594
aVCLEREZZA-432
p595
aVCLEREZZA-431
p596
aVCLEREZZA-430
p597
aVCLEREZZA-429
p598
aVCLEREZZA-428
p599
aVCLEREZZA-427
p600
aVCLEREZZA-426
p601
aVCLEREZZA-425
p602
aVCLEREZZA-424
p603
aVCLEREZZA-423
p604
aVCLEREZZA-422
p605
aVCLEREZZA-421
p606
aVCLEREZZA-420
p607
aVCLEREZZA-419
p608
aVCLEREZZA-418
p609
aVCLEREZZA-417
p610
aVCLEREZZA-416
p611
aVCLEREZZA-415
p612
aVCLEREZZA-414
p613
aVCLEREZZA-413
p614
aVCLEREZZA-412
p615
aVCLEREZZA-411
p616
aVCLEREZZA-410
p617
aVCLEREZZA-409
p618
aVCLEREZZA-408
p619
aVCLEREZZA-407
p620
aVCLEREZZA-406
p621
aVCLEREZZA-405
p622
aVCLEREZZA-404
p623
aVCLEREZZA-403
p624
aVCLEREZZA-402
p625
aVCLEREZZA-401
p626
aVCLEREZZA-400
p627
aVCLEREZZA-399
p628
aVCLEREZZA-398
p629
aVCLEREZZA-397
p630
aVCLEREZZA-396
p631
aVCLEREZZA-395
p632
aVCLEREZZA-394
p633
aVCLEREZZA-393
p634
aVCLEREZZA-392
p635
aVCLEREZZA-391
p636
aVCLEREZZA-390
p637
aVCLEREZZA-389
p638
aVCLEREZZA-388
p639
aVCLEREZZA-387
p640
aVCLEREZZA-386
p641
aVCLEREZZA-385
p642
aVCLEREZZA-384
p643
aVCLEREZZA-383
p644
aVCLEREZZA-382
p645
aVCLEREZZA-381
p646
aVCLEREZZA-380
p647
aVCLEREZZA-379
p648
aVCLEREZZA-378
p649
aVCLEREZZA-377
p650
aVCLEREZZA-376
p651
aVCLEREZZA-375
p652
aVCLEREZZA-374
p653
aVCLEREZZA-373
p654
aVCLEREZZA-372
p655
aVCLEREZZA-371
p656
aVCLEREZZA-370
p657
aVCLEREZZA-369
p658
aVCLEREZZA-368
p659
aVCLEREZZA-367
p660
aVCLEREZZA-366
p661
aVCLEREZZA-365
p662
aVCLEREZZA-364
p663
aVCLEREZZA-363
p664
aVCLEREZZA-362
p665
aVCLEREZZA-361
p666
aVCLEREZZA-360
p667
aVCLEREZZA-359
p668
aVCLEREZZA-358
p669
aVCLEREZZA-357
p670
aVCLEREZZA-356
p671
aVCLEREZZA-355
p672
aVCLEREZZA-354
p673
aVCLEREZZA-353
p674
aVCLEREZZA-352
p675
aVCLEREZZA-351
p676
aVCLEREZZA-350
p677
aVCLEREZZA-349
p678
aVCLEREZZA-348
p679
aVCLEREZZA-347
p680
aVCLEREZZA-346
p681
aVCLEREZZA-345
p682
aVCLEREZZA-344
p683
aVCLEREZZA-343
p684
aVCLEREZZA-342
p685
aVCLEREZZA-341
p686
aVCLEREZZA-340
p687
aVCLEREZZA-339
p688
aVCLEREZZA-338
p689
aVCLEREZZA-337
p690
aVCLEREZZA-336
p691
aVCLEREZZA-335
p692
aVCLEREZZA-334
p693
aVCLEREZZA-333
p694
aVCLEREZZA-332
p695
aVCLEREZZA-331
p696
aVCLEREZZA-330
p697
aVCLEREZZA-329
p698
aVCLEREZZA-328
p699
aVCLEREZZA-327
p700
aVCLEREZZA-326
p701
aVCLEREZZA-325
p702
aVCLEREZZA-324
p703
aVCLEREZZA-323
p704
aVCLEREZZA-322
p705
aVCLEREZZA-321
p706
aVCLEREZZA-320
p707
aVCLEREZZA-319
p708
aVCLEREZZA-318
p709
aVCLEREZZA-317
p710
aVCLEREZZA-316
p711
aVCLEREZZA-315
p712
aVCLEREZZA-314
p713
aVCLEREZZA-313
p714
aVCLEREZZA-312
p715
aVCLEREZZA-311
p716
aVCLEREZZA-310
p717
aVCLEREZZA-309
p718
aVCLEREZZA-308
p719
aVCLEREZZA-307
p720
aVCLEREZZA-306
p721
aVCLEREZZA-305
p722
aVCLEREZZA-304
p723
aVCLEREZZA-303
p724
aVCLEREZZA-302
p725
aVCLEREZZA-301
p726
aVCLEREZZA-300
p727
aVCLEREZZA-299
p728
aVCLEREZZA-298
p729
aVCLEREZZA-297
p730
aVCLEREZZA-296
p731
aVCLEREZZA-295
p732
aVCLEREZZA-294
p733
aVCLEREZZA-293
p734
aVCLEREZZA-292
p735
aVCLEREZZA-291
p736
aVCLEREZZA-290
p737
aVCLEREZZA-289
p738
aVCLEREZZA-288
p739
aVCLEREZZA-287
p740
aVCLEREZZA-286
p741
aVCLEREZZA-285
p742
aVCLEREZZA-284
p743
aVCLEREZZA-283
p744
aVCLEREZZA-282
p745
aVCLEREZZA-281
p746
aVCLEREZZA-280
p747
aVCLEREZZA-279
p748
aVCLEREZZA-278
p749
aVCLEREZZA-277
p750
aVCLEREZZA-276
p751
aVCLEREZZA-275
p752
aVCLEREZZA-274
p753
aVCLEREZZA-273
p754
aVCLEREZZA-272
p755
aVCLEREZZA-271
p756
aVCLEREZZA-270
p757
aVCLEREZZA-269
p758
aVCLEREZZA-268
p759
aVCLEREZZA-267
p760
aVCLEREZZA-266
p761
aVCLEREZZA-265
p762
aVCLEREZZA-264
p763
aVCLEREZZA-263
p764
aVCLEREZZA-262
p765
aVCLEREZZA-261
p766
aVCLEREZZA-260
p767
aVCLEREZZA-259
p768
aVCLEREZZA-258
p769
aVCLEREZZA-257
p770
aVCLEREZZA-256
p771
aVCLEREZZA-255
p772
aVCLEREZZA-254
p773
aVCLEREZZA-253
p774
aVCLEREZZA-252
p775
aVCLEREZZA-251
p776
aVCLEREZZA-250
p777
aVCLEREZZA-249
p778
aVCLEREZZA-248
p779
aVCLEREZZA-247
p780
aVCLEREZZA-246
p781
aVCLEREZZA-245
p782
aVCLEREZZA-244
p783
aVCLEREZZA-243
p784
aVCLEREZZA-242
p785
aVCLEREZZA-241
p786
aVCLEREZZA-240
p787
aVCLEREZZA-239
p788
aVCLEREZZA-238
p789
aVCLEREZZA-237
p790
aVCLEREZZA-236
p791
aVCLEREZZA-235
p792
aVCLEREZZA-234
p793
aVCLEREZZA-233
p794
aVCLEREZZA-232
p795
aVCLEREZZA-231
p796
aVCLEREZZA-230
p797
aVCLEREZZA-229
p798
aVCLEREZZA-228
p799
aVCLEREZZA-227
p800
aVCLEREZZA-226
p801
aVCLEREZZA-225
p802
aVCLEREZZA-224
p803
aVCLEREZZA-223
p804
aVCLEREZZA-222
p805
aVCLEREZZA-221
p806
aVCLEREZZA-220
p807
aVCLEREZZA-219
p808
aVCLEREZZA-218
p809
aVCLEREZZA-217
p810
aVCLEREZZA-216
p811
aVCLEREZZA-215
p812
aVCLEREZZA-214
p813
aVCLEREZZA-213
p814
aVCLEREZZA-212
p815
aVCLEREZZA-211
p816
aVCLEREZZA-210
p817
aVCLEREZZA-209
p818
aVCLEREZZA-208
p819
aVCLEREZZA-207
p820
aVCLEREZZA-206
p821
aVCLEREZZA-205
p822
aVCLEREZZA-204
p823
aVCLEREZZA-203
p824
aVCLEREZZA-202
p825
aVCLEREZZA-201
p826
aVCLEREZZA-200
p827
aVCLEREZZA-199
p828
aVCLEREZZA-198
p829
aVCLEREZZA-197
p830
aVCLEREZZA-196
p831
aVCLEREZZA-195
p832
aVCLEREZZA-194
p833
aVCLEREZZA-193
p834
aVCLEREZZA-192
p835
aVCLEREZZA-191
p836
aVCLEREZZA-190
p837
aVCLEREZZA-189
p838
aVCLEREZZA-188
p839
aVCLEREZZA-187
p840
aVCLEREZZA-186
p841
aVCLEREZZA-185
p842
aVCLEREZZA-184
p843
aVCLEREZZA-183
p844
aVCLEREZZA-182
p845
aVCLEREZZA-181
p846
aVCLEREZZA-180
p847
aVCLEREZZA-179
p848
aVCLEREZZA-178
p849
aVCLEREZZA-177
p850
aVCLEREZZA-176
p851
aVCLEREZZA-175
p852
aVCLEREZZA-174
p853
aVCLEREZZA-173
p854
aVCLEREZZA-172
p855
aVCLEREZZA-171
p856
aVCLEREZZA-170
p857
aVCLEREZZA-169
p858
aVCLEREZZA-168
p859
aVCLEREZZA-167
p860
aVCLEREZZA-166
p861
aVCLEREZZA-165
p862
aVCLEREZZA-164
p863
aVCLEREZZA-163
p864
aVCLEREZZA-162
p865
aVCLEREZZA-161
p866
aVCLEREZZA-160
p867
aVCLEREZZA-159
p868
aVCLEREZZA-158
p869
aVCLEREZZA-157
p870
aVCLEREZZA-156
p871
aVCLEREZZA-155
p872
aVCLEREZZA-154
p873
aVCLEREZZA-153
p874
aVCLEREZZA-152
p875
aVCLEREZZA-151
p876
aVCLEREZZA-150
p877
aVCLEREZZA-149
p878
aVCLEREZZA-148
p879
aVCLEREZZA-147
p880
aVCLEREZZA-146
p881
aVCLEREZZA-145
p882
aVCLEREZZA-144
p883
aVCLEREZZA-143
p884
aVCLEREZZA-142
p885
aVCLEREZZA-141
p886
aVCLEREZZA-140
p887
aVCLEREZZA-139
p888
aVCLEREZZA-138
p889
aVCLEREZZA-137
p890
aVCLEREZZA-136
p891
aVCLEREZZA-135
p892
aVCLEREZZA-134
p893
aVCLEREZZA-133
p894
aVCLEREZZA-132
p895
aVCLEREZZA-131
p896
aVCLEREZZA-130
p897
aVCLEREZZA-129
p898
aVCLEREZZA-128
p899
aVCLEREZZA-127
p900
aVCLEREZZA-126
p901
aVCLEREZZA-125
p902
aVCLEREZZA-124
p903
aVCLEREZZA-123
p904
aVCLEREZZA-122
p905
aVCLEREZZA-121
p906
aVCLEREZZA-120
p907
aVCLEREZZA-119
p908
aVCLEREZZA-118
p909
aVCLEREZZA-117
p910
aVCLEREZZA-116
p911
aVCLEREZZA-115
p912
aVCLEREZZA-114
p913
aVCLEREZZA-113
p914
aVCLEREZZA-112
p915
aVCLEREZZA-111
p916
aVCLEREZZA-110
p917
aVCLEREZZA-109
p918
aVCLEREZZA-108
p919
aVCLEREZZA-107
p920
aVCLEREZZA-106
p921
aVCLEREZZA-105
p922
aVCLEREZZA-104
p923
aVCLEREZZA-103
p924
aVCLEREZZA-102
p925
aVCLEREZZA-101
p926
aVCLEREZZA-100
p927
aVCLEREZZA-99
p928
aVCLEREZZA-98
p929
aVCLEREZZA-97
p930
aVCLEREZZA-96
p931
aVCLEREZZA-95
p932
aVCLEREZZA-94
p933
aVCLEREZZA-93
p934
aVCLEREZZA-92
p935
aVCLEREZZA-91
p936
aVCLEREZZA-90
p937
aVCLEREZZA-89
p938
aVCLEREZZA-88
p939
aVCLEREZZA-87
p940
aVCLEREZZA-86
p941
aVCLEREZZA-85
p942
aVCLEREZZA-84
p943
aVCLEREZZA-83
p944
aVCLEREZZA-82
p945
aVCLEREZZA-81
p946
aVCLEREZZA-80
p947
aVCLEREZZA-79
p948
aVCLEREZZA-78
p949
aVCLEREZZA-77
p950
aVCLEREZZA-76
p951
aVCLEREZZA-75
p952
aVCLEREZZA-74
p953
aVCLEREZZA-73
p954
aVCLEREZZA-72
p955
aVCLEREZZA-71
p956
aVCLEREZZA-70
p957
aVCLEREZZA-69
p958
aVCLEREZZA-68
p959
aVCLEREZZA-67
p960
aVCLEREZZA-66
p961
aVCLEREZZA-65
p962
aVCLEREZZA-64
p963
aVCLEREZZA-63
p964
aVCLEREZZA-62
p965
aVCLEREZZA-61
p966
aVCLEREZZA-60
p967
aVCLEREZZA-59
p968
aVCLEREZZA-58
p969
aVCLEREZZA-57
p970
aVCLEREZZA-55
p971
aVCLEREZZA-54
p972
aVCLEREZZA-53
p973
aVCLEREZZA-52
p974
aVCLEREZZA-51
p975
aVCLEREZZA-50
p976
aVCLEREZZA-49
p977
aVCLEREZZA-48
p978
aVCLEREZZA-47
p979
aVCLEREZZA-46
p980
aVCLEREZZA-45
p981
aVCLEREZZA-44
p982
aVCLEREZZA-43
p983
aVCLEREZZA-42
p984
aVCLEREZZA-41
p985
aVCLEREZZA-40
p986
aVCLEREZZA-39
p987
aVCLEREZZA-38
p988
aVCLEREZZA-37
p989
aVCLEREZZA-36
p990
aVCLEREZZA-35
p991
aVCLEREZZA-34
p992
aVCLEREZZA-33
p993
aVCLEREZZA-32
p994
aVCLEREZZA-31
p995
aVCLEREZZA-30
p996
aVCLEREZZA-29
p997
aVCLEREZZA-28
p998
aVCLEREZZA-27
p999
aVCLEREZZA-26
p1000
aVCLEREZZA-25
p1001
aVCLEREZZA-24
p1002
aVCLEREZZA-23
p1003
aVCLEREZZA-22
p1004
aVCLEREZZA-21
p1005
aVCLEREZZA-20
p1006
aVCLEREZZA-19
p1007
aVCLEREZZA-17
p1008
aVCLEREZZA-16
p1009
aVCLEREZZA-15
p1010
aVCLEREZZA-14
p1011
aVCLEREZZA-13
p1012
aVCLEREZZA-12
p1013
aVCLEREZZA-11
p1014
aVCLEREZZA-10
p1015
aVCLEREZZA-9
p1016
aVCLEREZZA-8
p1017
aVCLEREZZA-7
p1018
aVCLEREZZA-6
p1019
aVCLEREZZA-5
p1020
aVCLEREZZA-4
p1021
aVCLEREZZA-3
p1022
aVCLEREZZA-2
p1023
aVCLEREZZA-1
p1024
a.