(lp0
VCLI-289
p1
aVCLI-288
p2
aVCLI-287
p3
aVCLI-286
p4
aVCLI-285
p5
aVCLI-284
p6
aVCLI-283
p7
aVCLI-282
p8
aVCLI-281
p9
aVCLI-280
p10
aVCLI-279
p11
aVCLI-278
p12
aVCLI-277
p13
aVCLI-276
p14
aVCLI-275
p15
aVCLI-274
p16
aVCLI-273
p17
aVCLI-272
p18
aVCLI-271
p19
aVCLI-270
p20
aVCLI-269
p21
aVCLI-268
p22
aVCLI-267
p23
aVCLI-266
p24
aVCLI-265
p25
aVCLI-264
p26
aVCLI-263
p27
aVCLI-262
p28
aVCLI-261
p29
aVCLI-260
p30
aVCLI-259
p31
aVCLI-258
p32
aVCLI-257
p33
aVCLI-256
p34
aVCLI-255
p35
aVCLI-254
p36
aVCLI-253
p37
aVCLI-252
p38
aVCLI-251
p39
aVCLI-250
p40
aVCLI-249
p41
aVCLI-248
p42
aVCLI-247
p43
aVCLI-246
p44
aVCLI-245
p45
aVCLI-244
p46
aVCLI-243
p47
aVCLI-242
p48
aVCLI-241
p49
aVCLI-240
p50
aVCLI-239
p51
aVCLI-238
p52
aVCLI-237
p53
aVCLI-236
p54
aVCLI-235
p55
aVCLI-234
p56
aVCLI-233
p57
aVCLI-232
p58
aVCLI-231
p59
aVCLI-230
p60
aVCLI-229
p61
aVCLI-228
p62
aVCLI-227
p63
aVCLI-226
p64
aVCLI-225
p65
aVCLI-224
p66
aVCLI-223
p67
aVCLI-222
p68
aVCLI-221
p69
aVCLI-220
p70
aVCLI-219
p71
aVCLI-218
p72
aVCLI-217
p73
aVCLI-216
p74
aVCLI-215
p75
aVCLI-214
p76
aVCLI-213
p77
aVCLI-212
p78
aVCLI-211
p79
aVCLI-210
p80
aVCLI-209
p81
aVCLI-208
p82
aVCLI-207
p83
aVCLI-206
p84
aVCLI-205
p85
aVCLI-204
p86
aVCLI-203
p87
aVCLI-202
p88
aVCLI-201
p89
aVCLI-200
p90
aVCLI-199
p91
aVCLI-198
p92
aVCLI-197
p93
aVCLI-196
p94
aVCLI-195
p95
aVCLI-194
p96
aVCLI-193
p97
aVCLI-192
p98
aVCLI-191
p99
aVCLI-190
p100
aVCLI-189
p101
aVCLI-188
p102
aVCLI-187
p103
aVCLI-186
p104
aVCLI-185
p105
aVCLI-184
p106
aVCLI-183
p107
aVCLI-182
p108
aVCLI-181
p109
aVCLI-180
p110
aVCLI-179
p111
aVCLI-178
p112
aVCLI-177
p113
aVCLI-176
p114
aVCLI-175
p115
aVCLI-174
p116
aVCLI-173
p117
aVCLI-172
p118
aVCLI-171
p119
aVCLI-170
p120
aVCLI-169
p121
aVCLI-168
p122
aVCLI-167
p123
aVCLI-166
p124
aVCLI-165
p125
aVCLI-164
p126
aVCLI-163
p127
aVCLI-162
p128
aVCLI-161
p129
aVCLI-160
p130
aVCLI-159
p131
aVCLI-158
p132
aVCLI-157
p133
aVCLI-156
p134
aVCLI-155
p135
aVCLI-154
p136
aVCLI-153
p137
aVCLI-152
p138
aVCLI-151
p139
aVCLI-150
p140
aVCLI-149
p141
aVCLI-148
p142
aVCLI-147
p143
aVCLI-146
p144
aVCLI-145
p145
aVCLI-144
p146
aVCLI-143
p147
aVCLI-142
p148
aVCLI-141
p149
aVCLI-140
p150
aVCLI-139
p151
aVCLI-138
p152
aVCLI-137
p153
aVCLI-136
p154
aVCLI-135
p155
aVCLI-134
p156
aVCLI-133
p157
aVCLI-132
p158
aVCLI-131
p159
aVCLI-130
p160
aVCLI-129
p161
aVCLI-128
p162
aVCLI-127
p163
aVCLI-126
p164
aVCLI-125
p165
aVCLI-124
p166
aVCLI-123
p167
aVCLI-122
p168
aVCLI-121
p169
aVCLI-120
p170
aVCLI-119
p171
aVCLI-118
p172
aVCLI-117
p173
aVCLI-116
p174
aVCLI-115
p175
aVCLI-114
p176
aVCLI-113
p177
aVCLI-112
p178
aVCLI-111
p179
aVCLI-110
p180
aVCLI-109
p181
aVCLI-108
p182
aVCLI-107
p183
aVCLI-106
p184
aVCLI-105
p185
aVCLI-104
p186
aVCLI-103
p187
aVCLI-102
p188
aVCLI-101
p189
aVCLI-100
p190
aVCLI-99
p191
aVCLI-98
p192
aVCLI-97
p193
aVCLI-96
p194
aVCLI-95
p195
aVCLI-94
p196
aVCLI-93
p197
aVCLI-92
p198
aVCLI-91
p199
aVCLI-90
p200
aVCLI-89
p201
aVCLI-88
p202
aVCLI-87
p203
aVCLI-86
p204
aVCLI-85
p205
aVCLI-84
p206
aVCLI-83
p207
aVCLI-82
p208
aVCLI-81
p209
aVCLI-80
p210
aVCLI-79
p211
aVCLI-78
p212
aVCLI-77
p213
aVCLI-76
p214
aVCLI-75
p215
aVCLI-74
p216
aVCLI-73
p217
aVCLI-72
p218
aVCLI-71
p219
aVCLI-70
p220
aVCLI-69
p221
aVCLI-68
p222
aVCLI-67
p223
aVCLI-66
p224
aVCLI-65
p225
aVCLI-64
p226
aVCLI-63
p227
aVCLI-62
p228
aVCLI-61
p229
aVCLI-60
p230
aVCLI-59
p231
aVCLI-58
p232
aVCLI-57
p233
aVCLI-56
p234
aVCLI-55
p235
aVCLI-54
p236
aVCLI-53
p237
aVCLI-52
p238
aVCLI-51
p239
aVCLI-50
p240
aVCLI-49
p241
aVCLI-48
p242
aVCLI-47
p243
aVCLI-46
p244
aVCLI-45
p245
aVCLI-44
p246
aVCLI-43
p247
aVCLI-42
p248
aVCLI-41
p249
aVCLI-40
p250
aVCLI-39
p251
aVCLI-38
p252
aVCLI-37
p253
aVCLI-36
p254
aVCLI-35
p255
aVCLI-34
p256
aVCLI-33
p257
aVCLI-32
p258
aVCLI-31
p259
aVCLI-30
p260
aVCLI-29
p261
aVCLI-28
p262
aVCLI-27
p263
aVCLI-26
p264
aVCLI-25
p265
aVCLI-24
p266
aVCLI-23
p267
aVCLI-22
p268
aVCLI-21
p269
aVCLI-20
p270
aVCLI-19
p271
aVCLI-18
p272
aVCLI-17
p273
aVCLI-16
p274
aVCLI-15
p275
aVCLI-14
p276
aVCLI-13
p277
aVCLI-12
p278
aVCLI-11
p279
aVCLI-10
p280
aVCLI-9
p281
aVCLI-8
p282
aVCLI-7
p283
aVCLI-6
p284
aVCLI-5
p285
aVCLI-4
p286
aVCLI-3
p287
aVCLI-2
p288
aVCLI-1
p289
a.