(lp0
VCLK-809
p1
aVCLK-808
p2
aVCLK-807
p3
aVCLK-806
p4
aVCLK-805
p5
aVCLK-804
p6
aVCLK-803
p7
aVCLK-802
p8
aVCLK-801
p9
aVCLK-800
p10
aVCLK-799
p11
aVCLK-798
p12
aVCLK-797
p13
aVCLK-796
p14
aVCLK-795
p15
aVCLK-794
p16
aVCLK-793
p17
aVCLK-792
p18
aVCLK-791
p19
aVCLK-790
p20
aVCLK-789
p21
aVCLK-787
p22
aVCLK-786
p23
aVCLK-785
p24
aVCLK-784
p25
aVCLK-783
p26
aVCLK-782
p27
aVCLK-781
p28
aVCLK-780
p29
aVCLK-779
p30
aVCLK-778
p31
aVCLK-777
p32
aVCLK-776
p33
aVCLK-775
p34
aVCLK-774
p35
aVCLK-773
p36
aVCLK-772
p37
aVCLK-771
p38
aVCLK-770
p39
aVCLK-768
p40
aVCLK-767
p41
aVCLK-766
p42
aVCLK-765
p43
aVCLK-764
p44
aVCLK-763
p45
aVCLK-762
p46
aVCLK-761
p47
aVCLK-760
p48
aVCLK-759
p49
aVCLK-758
p50
aVCLK-757
p51
aVCLK-756
p52
aVCLK-755
p53
aVCLK-754
p54
aVCLK-753
p55
aVCLK-752
p56
aVCLK-751
p57
aVCLK-750
p58
aVCLK-749
p59
aVCLK-748
p60
aVCLK-747
p61
aVCLK-746
p62
aVCLK-745
p63
aVCLK-744
p64
aVCLK-743
p65
aVCLK-742
p66
aVCLK-741
p67
aVCLK-740
p68
aVCLK-739
p69
aVCLK-738
p70
aVCLK-737
p71
aVCLK-736
p72
aVCLK-735
p73
aVCLK-734
p74
aVCLK-733
p75
aVCLK-732
p76
aVCLK-731
p77
aVCLK-730
p78
aVCLK-729
p79
aVCLK-728
p80
aVCLK-727
p81
aVCLK-726
p82
aVCLK-725
p83
aVCLK-724
p84
aVCLK-723
p85
aVCLK-722
p86
aVCLK-721
p87
aVCLK-720
p88
aVCLK-719
p89
aVCLK-718
p90
aVCLK-717
p91
aVCLK-716
p92
aVCLK-715
p93
aVCLK-714
p94
aVCLK-713
p95
aVCLK-712
p96
aVCLK-711
p97
aVCLK-710
p98
aVCLK-709
p99
aVCLK-708
p100
aVCLK-707
p101
aVCLK-706
p102
aVCLK-705
p103
aVCLK-704
p104
aVCLK-703
p105
aVCLK-702
p106
aVCLK-701
p107
aVCLK-700
p108
aVCLK-699
p109
aVCLK-698
p110
aVCLK-697
p111
aVCLK-696
p112
aVCLK-695
p113
aVCLK-694
p114
aVCLK-693
p115
aVCLK-692
p116
aVCLK-691
p117
aVCLK-690
p118
aVCLK-689
p119
aVCLK-688
p120
aVCLK-687
p121
aVCLK-686
p122
aVCLK-685
p123
aVCLK-684
p124
aVCLK-683
p125
aVCLK-682
p126
aVCLK-681
p127
aVCLK-680
p128
aVCLK-679
p129
aVCLK-678
p130
aVCLK-677
p131
aVCLK-676
p132
aVCLK-675
p133
aVCLK-674
p134
aVCLK-673
p135
aVCLK-672
p136
aVCLK-671
p137
aVCLK-670
p138
aVCLK-669
p139
aVCLK-668
p140
aVCLK-667
p141
aVCLK-666
p142
aVCLK-665
p143
aVCLK-664
p144
aVCLK-663
p145
aVCLK-662
p146
aVCLK-661
p147
aVCLK-660
p148
aVCLK-659
p149
aVCLK-658
p150
aVCLK-657
p151
aVCLK-656
p152
aVCLK-655
p153
aVCLK-654
p154
aVCLK-653
p155
aVCLK-652
p156
aVCLK-651
p157
aVCLK-650
p158
aVCLK-649
p159
aVCLK-648
p160
aVCLK-647
p161
aVCLK-646
p162
aVCLK-645
p163
aVCLK-644
p164
aVCLK-643
p165
aVCLK-642
p166
aVCLK-641
p167
aVCLK-640
p168
aVCLK-639
p169
aVCLK-638
p170
aVCLK-637
p171
aVCLK-636
p172
aVCLK-635
p173
aVCLK-634
p174
aVCLK-633
p175
aVCLK-632
p176
aVCLK-631
p177
aVCLK-630
p178
aVCLK-629
p179
aVCLK-628
p180
aVCLK-627
p181
aVCLK-626
p182
aVCLK-625
p183
aVCLK-624
p184
aVCLK-623
p185
aVCLK-622
p186
aVCLK-621
p187
aVCLK-620
p188
aVCLK-619
p189
aVCLK-618
p190
aVCLK-617
p191
aVCLK-616
p192
aVCLK-615
p193
aVCLK-614
p194
aVCLK-613
p195
aVCLK-612
p196
aVCLK-611
p197
aVCLK-610
p198
aVCLK-609
p199
aVCLK-608
p200
aVCLK-607
p201
aVCLK-606
p202
aVCLK-605
p203
aVCLK-604
p204
aVCLK-603
p205
aVCLK-602
p206
aVCLK-601
p207
aVCLK-600
p208
aVCLK-599
p209
aVCLK-598
p210
aVCLK-597
p211
aVCLK-596
p212
aVCLK-595
p213
aVCLK-594
p214
aVCLK-593
p215
aVCLK-592
p216
aVCLK-591
p217
aVCLK-590
p218
aVCLK-589
p219
aVCLK-588
p220
aVCLK-587
p221
aVCLK-586
p222
aVCLK-585
p223
aVCLK-584
p224
aVCLK-583
p225
aVCLK-582
p226
aVCLK-581
p227
aVCLK-580
p228
aVCLK-579
p229
aVCLK-578
p230
aVCLK-577
p231
aVCLK-576
p232
aVCLK-575
p233
aVCLK-574
p234
aVCLK-573
p235
aVCLK-572
p236
aVCLK-571
p237
aVCLK-570
p238
aVCLK-569
p239
aVCLK-568
p240
aVCLK-567
p241
aVCLK-566
p242
aVCLK-565
p243
aVCLK-564
p244
aVCLK-563
p245
aVCLK-562
p246
aVCLK-561
p247
aVCLK-560
p248
aVCLK-559
p249
aVCLK-558
p250
aVCLK-557
p251
aVCLK-556
p252
aVCLK-555
p253
aVCLK-554
p254
aVCLK-553
p255
aVCLK-552
p256
aVCLK-551
p257
aVCLK-550
p258
aVCLK-549
p259
aVCLK-548
p260
aVCLK-547
p261
aVCLK-546
p262
aVCLK-545
p263
aVCLK-544
p264
aVCLK-543
p265
aVCLK-542
p266
aVCLK-541
p267
aVCLK-540
p268
aVCLK-539
p269
aVCLK-538
p270
aVCLK-537
p271
aVCLK-536
p272
aVCLK-535
p273
aVCLK-534
p274
aVCLK-533
p275
aVCLK-532
p276
aVCLK-531
p277
aVCLK-530
p278
aVCLK-529
p279
aVCLK-528
p280
aVCLK-527
p281
aVCLK-526
p282
aVCLK-525
p283
aVCLK-524
p284
aVCLK-523
p285
aVCLK-522
p286
aVCLK-521
p287
aVCLK-520
p288
aVCLK-519
p289
aVCLK-518
p290
aVCLK-517
p291
aVCLK-516
p292
aVCLK-515
p293
aVCLK-514
p294
aVCLK-513
p295
aVCLK-512
p296
aVCLK-511
p297
aVCLK-510
p298
aVCLK-509
p299
aVCLK-508
p300
aVCLK-507
p301
aVCLK-506
p302
aVCLK-505
p303
aVCLK-504
p304
aVCLK-503
p305
aVCLK-502
p306
aVCLK-501
p307
aVCLK-499
p308
aVCLK-498
p309
aVCLK-497
p310
aVCLK-496
p311
aVCLK-495
p312
aVCLK-494
p313
aVCLK-493
p314
aVCLK-492
p315
aVCLK-491
p316
aVCLK-490
p317
aVCLK-489
p318
aVCLK-488
p319
aVCLK-487
p320
aVCLK-486
p321
aVCLK-485
p322
aVCLK-484
p323
aVCLK-483
p324
aVCLK-482
p325
aVCLK-481
p326
aVCLK-480
p327
aVCLK-479
p328
aVCLK-478
p329
aVCLK-477
p330
aVCLK-476
p331
aVCLK-475
p332
aVCLK-474
p333
aVCLK-473
p334
aVCLK-472
p335
aVCLK-471
p336
aVCLK-470
p337
aVCLK-469
p338
aVCLK-468
p339
aVCLK-467
p340
aVCLK-466
p341
aVCLK-465
p342
aVCLK-464
p343
aVCLK-463
p344
aVCLK-462
p345
aVCLK-461
p346
aVCLK-460
p347
aVCLK-459
p348
aVCLK-458
p349
aVCLK-457
p350
aVCLK-456
p351
aVCLK-455
p352
aVCLK-454
p353
aVCLK-453
p354
aVCLK-452
p355
aVCLK-451
p356
aVCLK-450
p357
aVCLK-449
p358
aVCLK-448
p359
aVCLK-447
p360
aVCLK-446
p361
aVCLK-445
p362
aVCLK-444
p363
aVCLK-443
p364
aVCLK-442
p365
aVCLK-441
p366
aVCLK-440
p367
aVCLK-439
p368
aVCLK-438
p369
aVCLK-437
p370
aVCLK-436
p371
aVCLK-435
p372
aVCLK-434
p373
aVCLK-433
p374
aVCLK-432
p375
aVCLK-431
p376
aVCLK-430
p377
aVCLK-429
p378
aVCLK-428
p379
aVCLK-427
p380
aVCLK-426
p381
aVCLK-425
p382
aVCLK-424
p383
aVCLK-423
p384
aVCLK-422
p385
aVCLK-421
p386
aVCLK-420
p387
aVCLK-419
p388
aVCLK-418
p389
aVCLK-417
p390
aVCLK-416
p391
aVCLK-415
p392
aVCLK-414
p393
aVCLK-413
p394
aVCLK-412
p395
aVCLK-411
p396
aVCLK-410
p397
aVCLK-409
p398
aVCLK-408
p399
aVCLK-407
p400
aVCLK-406
p401
aVCLK-405
p402
aVCLK-404
p403
aVCLK-403
p404
aVCLK-402
p405
aVCLK-401
p406
aVCLK-400
p407
aVCLK-399
p408
aVCLK-398
p409
aVCLK-397
p410
aVCLK-396
p411
aVCLK-395
p412
aVCLK-394
p413
aVCLK-393
p414
aVCLK-392
p415
aVCLK-391
p416
aVCLK-390
p417
aVCLK-389
p418
aVCLK-388
p419
aVCLK-387
p420
aVCLK-386
p421
aVCLK-385
p422
aVCLK-384
p423
aVCLK-383
p424
aVCLK-382
p425
aVCLK-381
p426
aVCLK-380
p427
aVCLK-379
p428
aVCLK-378
p429
aVCLK-377
p430
aVCLK-376
p431
aVCLK-375
p432
aVCLK-374
p433
aVCLK-373
p434
aVCLK-372
p435
aVCLK-371
p436
aVCLK-370
p437
aVCLK-369
p438
aVCLK-368
p439
aVCLK-367
p440
aVCLK-366
p441
aVCLK-365
p442
aVCLK-364
p443
aVCLK-363
p444
aVCLK-362
p445
aVCLK-361
p446
aVCLK-360
p447
aVCLK-359
p448
aVCLK-358
p449
aVCLK-357
p450
aVCLK-356
p451
aVCLK-355
p452
aVCLK-354
p453
aVCLK-353
p454
aVCLK-352
p455
aVCLK-351
p456
aVCLK-350
p457
aVCLK-349
p458
aVCLK-348
p459
aVCLK-347
p460
aVCLK-346
p461
aVCLK-345
p462
aVCLK-344
p463
aVCLK-343
p464
aVCLK-342
p465
aVCLK-341
p466
aVCLK-340
p467
aVCLK-339
p468
aVCLK-338
p469
aVCLK-337
p470
aVCLK-336
p471
aVCLK-335
p472
aVCLK-334
p473
aVCLK-333
p474
aVCLK-332
p475
aVCLK-331
p476
aVCLK-330
p477
aVCLK-329
p478
aVCLK-328
p479
aVCLK-327
p480
aVCLK-326
p481
aVCLK-325
p482
aVCLK-324
p483
aVCLK-323
p484
aVCLK-322
p485
aVCLK-321
p486
aVCLK-320
p487
aVCLK-319
p488
aVCLK-318
p489
aVCLK-317
p490
aVCLK-316
p491
aVCLK-315
p492
aVCLK-314
p493
aVCLK-313
p494
aVCLK-312
p495
aVCLK-311
p496
aVCLK-310
p497
aVCLK-309
p498
aVCLK-308
p499
aVCLK-307
p500
aVCLK-306
p501
aVCLK-305
p502
aVCLK-304
p503
aVCLK-303
p504
aVCLK-302
p505
aVCLK-301
p506
aVCLK-300
p507
aVCLK-299
p508
aVCLK-298
p509
aVCLK-297
p510
aVCLK-296
p511
aVCLK-295
p512
aVCLK-294
p513
aVCLK-293
p514
aVCLK-292
p515
aVCLK-291
p516
aVCLK-290
p517
aVCLK-289
p518
aVCLK-288
p519
aVCLK-287
p520
aVCLK-286
p521
aVCLK-285
p522
aVCLK-284
p523
aVCLK-283
p524
aVCLK-282
p525
aVCLK-281
p526
aVCLK-280
p527
aVCLK-279
p528
aVCLK-278
p529
aVCLK-277
p530
aVCLK-276
p531
aVCLK-275
p532
aVCLK-274
p533
aVCLK-273
p534
aVCLK-272
p535
aVCLK-271
p536
aVCLK-270
p537
aVCLK-269
p538
aVCLK-268
p539
aVCLK-267
p540
aVCLK-266
p541
aVCLK-265
p542
aVCLK-264
p543
aVCLK-263
p544
aVCLK-262
p545
aVCLK-261
p546
aVCLK-260
p547
aVCLK-259
p548
aVCLK-258
p549
aVCLK-257
p550
aVCLK-256
p551
aVCLK-255
p552
aVCLK-254
p553
aVCLK-253
p554
aVCLK-252
p555
aVCLK-251
p556
aVCLK-250
p557
aVCLK-249
p558
aVCLK-248
p559
aVCLK-247
p560
aVCLK-246
p561
aVCLK-245
p562
aVCLK-244
p563
aVCLK-243
p564
aVCLK-242
p565
aVCLK-241
p566
aVCLK-240
p567
aVCLK-239
p568
aVCLK-238
p569
aVCLK-237
p570
aVCLK-236
p571
aVCLK-235
p572
aVCLK-234
p573
aVCLK-233
p574
aVCLK-232
p575
aVCLK-231
p576
aVCLK-230
p577
aVCLK-229
p578
aVCLK-228
p579
aVCLK-227
p580
aVCLK-226
p581
aVCLK-225
p582
aVCLK-224
p583
aVCLK-223
p584
aVCLK-222
p585
aVCLK-221
p586
aVCLK-220
p587
aVCLK-219
p588
aVCLK-218
p589
aVCLK-217
p590
aVCLK-216
p591
aVCLK-215
p592
aVCLK-214
p593
aVCLK-213
p594
aVCLK-212
p595
aVCLK-211
p596
aVCLK-210
p597
aVCLK-209
p598
aVCLK-208
p599
aVCLK-207
p600
aVCLK-206
p601
aVCLK-205
p602
aVCLK-204
p603
aVCLK-203
p604
aVCLK-202
p605
aVCLK-201
p606
aVCLK-200
p607
aVCLK-199
p608
aVCLK-198
p609
aVCLK-197
p610
aVCLK-196
p611
aVCLK-195
p612
aVCLK-194
p613
aVCLK-193
p614
aVCLK-192
p615
aVCLK-191
p616
aVCLK-190
p617
aVCLK-189
p618
aVCLK-188
p619
aVCLK-187
p620
aVCLK-186
p621
aVCLK-185
p622
aVCLK-184
p623
aVCLK-183
p624
aVCLK-182
p625
aVCLK-181
p626
aVCLK-180
p627
aVCLK-179
p628
aVCLK-178
p629
aVCLK-177
p630
aVCLK-176
p631
aVCLK-175
p632
aVCLK-174
p633
aVCLK-173
p634
aVCLK-172
p635
aVCLK-171
p636
aVCLK-170
p637
aVCLK-169
p638
aVCLK-167
p639
aVCLK-166
p640
aVCLK-165
p641
aVCLK-164
p642
aVCLK-163
p643
aVCLK-162
p644
aVCLK-161
p645
aVCLK-160
p646
aVCLK-159
p647
aVCLK-158
p648
aVCLK-157
p649
aVCLK-156
p650
aVCLK-155
p651
aVCLK-154
p652
aVCLK-153
p653
aVCLK-152
p654
aVCLK-151
p655
aVCLK-150
p656
aVCLK-149
p657
aVCLK-148
p658
aVCLK-147
p659
aVCLK-146
p660
aVCLK-145
p661
aVCLK-144
p662
aVCLK-143
p663
aVCLK-142
p664
aVCLK-141
p665
aVCLK-140
p666
aVCLK-139
p667
aVCLK-137
p668
aVCLK-136
p669
aVCLK-135
p670
aVCLK-134
p671
aVCLK-133
p672
aVCLK-132
p673
aVCLK-131
p674
aVCLK-130
p675
aVCLK-129
p676
aVCLK-128
p677
aVCLK-127
p678
aVCLK-126
p679
aVCLK-125
p680
aVCLK-124
p681
aVCLK-123
p682
aVCLK-122
p683
aVCLK-121
p684
aVCLK-120
p685
aVCLK-119
p686
aVCLK-118
p687
aVCLK-117
p688
aVCLK-116
p689
aVCLK-115
p690
aVCLK-114
p691
aVCLK-113
p692
aVCLK-112
p693
aVCLK-111
p694
aVCLK-110
p695
aVCLK-109
p696
aVCLK-108
p697
aVCLK-107
p698
aVCLK-106
p699
aVCLK-105
p700
aVCLK-104
p701
aVCLK-103
p702
aVCLK-102
p703
aVCLK-101
p704
aVCLK-100
p705
aVCLK-99
p706
aVCLK-98
p707
aVCLK-97
p708
aVCLK-96
p709
aVCLK-95
p710
aVCLK-94
p711
aVCLK-93
p712
aVCLK-92
p713
aVCLK-91
p714
aVCLK-90
p715
aVCLK-89
p716
aVCLK-88
p717
aVCLK-87
p718
aVCLK-86
p719
aVCLK-85
p720
aVCLK-84
p721
aVCLK-83
p722
aVCLK-82
p723
aVCLK-81
p724
aVCLK-80
p725
aVCLK-79
p726
aVCLK-78
p727
aVCLK-77
p728
aVCLK-76
p729
aVCLK-75
p730
aVCLK-74
p731
aVCLK-73
p732
aVCLK-72
p733
aVCLK-71
p734
aVCLK-70
p735
aVCLK-69
p736
aVCLK-68
p737
aVCLK-67
p738
aVCLK-66
p739
aVCLK-65
p740
aVCLK-64
p741
aVCLK-63
p742
aVCLK-62
p743
aVCLK-61
p744
aVCLK-60
p745
aVCLK-59
p746
aVCLK-58
p747
aVCLK-57
p748
aVCLK-56
p749
aVCLK-55
p750
aVCLK-54
p751
aVCLK-53
p752
aVCLK-52
p753
aVCLK-51
p754
aVCLK-50
p755
aVCLK-49
p756
aVCLK-48
p757
aVCLK-47
p758
aVCLK-46
p759
aVCLK-45
p760
aVCLK-44
p761
aVCLK-43
p762
aVCLK-42
p763
aVCLK-41
p764
aVCLK-40
p765
aVCLK-39
p766
aVCLK-38
p767
aVCLK-37
p768
aVCLK-36
p769
aVCLK-35
p770
aVCLK-34
p771
aVCLK-33
p772
aVCLK-32
p773
aVCLK-31
p774
aVCLK-30
p775
aVCLK-29
p776
aVCLK-28
p777
aVCLK-27
p778
aVCLK-26
p779
aVCLK-25
p780
aVCLK-24
p781
aVCLK-23
p782
aVCLK-22
p783
aVCLK-21
p784
aVCLK-20
p785
aVCLK-19
p786
aVCLK-18
p787
aVCLK-17
p788
aVCLK-16
p789
aVCLK-15
p790
aVCLK-14
p791
aVCLK-13
p792
aVCLK-12
p793
aVCLK-11
p794
aVCLK-10
p795
aVCLK-9
p796
aVCLK-8
p797
aVCLK-7
p798
aVCLK-6
p799
aVCLK-5
p800
aVCLK-4
p801
aVCLK-3
p802
aVCLK-2
p803
aVCLK-1
p804
a.