(lp0
VCLOUDSTACK-10267
p1
aVCLOUDSTACK-10266
p2
aVCLOUDSTACK-10265
p3
aVCLOUDSTACK-10264
p4
aVCLOUDSTACK-10263
p5
aVCLOUDSTACK-10262
p6
aVCLOUDSTACK-10256
p7
aVCLOUDSTACK-10063
p8
aVCLOUDSTACK-9804
p9
aVCLOUDSTACK-9778
p10
aVCLOUDSTACK-9777
p11
aVCLOUDSTACK-9293
p12
aVCLOUDSTACK-8629
p13
aVCLOUDSTACK-8310
p14
aVCLOUDSTACK-8239
p15
aVCLOUDSTACK-8223
p16
aVCLOUDSTACK-8206
p17
aVCLOUDSTACK-8104
p18
aVCLOUDSTACK-6413
p19
aVCLOUDSTACK-5740
p20
aVCLOUDSTACK-5464
p21
aVCLOUDSTACK-5241
p22
aVCLOUDSTACK-4857
p23
aVCLOUDSTACK-4841
p24
aVCLOUDSTACK-3310
p25
aVCLOUDSTACK-2868
p26
aVCLOUDSTACK-1819
p27
aVCLOUDSTACK-1678
p28
aVCLOUDSTACK-1213
p29
aVCLOUDSTACK-1143
p30
aVCLOUDSTACK-1137
p31
aVCLOUDSTACK-1058
p32
aVCLOUDSTACK-1015
p33
a.