(lp0
VCMIS-1063
p1
aVCMIS-1062
p2
aVCMIS-1061
p3
aVCMIS-1060
p4
aVCMIS-1059
p5
aVCMIS-1058
p6
aVCMIS-1057
p7
aVCMIS-1056
p8
aVCMIS-1055
p9
aVCMIS-1054
p10
aVCMIS-1053
p11
aVCMIS-1052
p12
aVCMIS-1051
p13
aVCMIS-1050
p14
aVCMIS-1049
p15
aVCMIS-1048
p16
aVCMIS-1047
p17
aVCMIS-1046
p18
aVCMIS-1045
p19
aVCMIS-1044
p20
aVCMIS-1043
p21
aVCMIS-1042
p22
aVCMIS-1041
p23
aVCMIS-1040
p24
aVCMIS-1039
p25
aVCMIS-1038
p26
aVCMIS-1037
p27
aVCMIS-1036
p28
aVCMIS-1035
p29
aVCMIS-1034
p30
aVCMIS-1033
p31
aVCMIS-1032
p32
aVCMIS-1031
p33
aVCMIS-1030
p34
aVCMIS-1029
p35
aVCMIS-1028
p36
aVCMIS-1027
p37
aVCMIS-1026
p38
aVCMIS-1025
p39
aVCMIS-1024
p40
aVCMIS-1023
p41
aVCMIS-1022
p42
aVCMIS-1021
p43
aVCMIS-1020
p44
aVCMIS-1019
p45
aVCMIS-1018
p46
aVCMIS-1017
p47
aVCMIS-1016
p48
aVCMIS-1015
p49
aVCMIS-1014
p50
aVCMIS-1013
p51
aVCMIS-1012
p52
aVCMIS-1011
p53
aVCMIS-1010
p54
aVCMIS-1009
p55
aVCMIS-1008
p56
aVCMIS-1007
p57
aVCMIS-1006
p58
aVCMIS-1005
p59
aVCMIS-1004
p60
aVCMIS-1003
p61
aVCMIS-1002
p62
aVCMIS-1001
p63
aVCMIS-1000
p64
aVCMIS-999
p65
aVCMIS-998
p66
aVCMIS-997
p67
aVCMIS-996
p68
aVCMIS-995
p69
aVCMIS-994
p70
aVCMIS-993
p71
aVCMIS-992
p72
aVCMIS-991
p73
aVCMIS-990
p74
aVCMIS-989
p75
aVCMIS-988
p76
aVCMIS-987
p77
aVCMIS-986
p78
aVCMIS-985
p79
aVCMIS-984
p80
aVCMIS-983
p81
aVCMIS-982
p82
aVCMIS-981
p83
aVCMIS-980
p84
aVCMIS-979
p85
aVCMIS-978
p86
aVCMIS-977
p87
aVCMIS-976
p88
aVCMIS-975
p89
aVCMIS-974
p90
aVCMIS-973
p91
aVCMIS-972
p92
aVCMIS-971
p93
aVCMIS-970
p94
aVCMIS-969
p95
aVCMIS-968
p96
aVCMIS-967
p97
aVCMIS-966
p98
aVCMIS-965
p99
aVCMIS-964
p100
aVCMIS-963
p101
aVCMIS-962
p102
aVCMIS-961
p103
aVCMIS-960
p104
aVCMIS-959
p105
aVCMIS-958
p106
aVCMIS-957
p107
aVCMIS-956
p108
aVCMIS-955
p109
aVCMIS-954
p110
aVCMIS-952
p111
aVCMIS-951
p112
aVCMIS-950
p113
aVCMIS-949
p114
aVCMIS-948
p115
aVCMIS-947
p116
aVCMIS-946
p117
aVCMIS-945
p118
aVCMIS-944
p119
aVCMIS-943
p120
aVCMIS-942
p121
aVCMIS-941
p122
aVCMIS-940
p123
aVCMIS-939
p124
aVCMIS-938
p125
aVCMIS-937
p126
aVCMIS-936
p127
aVCMIS-935
p128
aVCMIS-934
p129
aVCMIS-933
p130
aVCMIS-932
p131
aVCMIS-931
p132
aVCMIS-930
p133
aVCMIS-929
p134
aVCMIS-928
p135
aVCMIS-927
p136
aVCMIS-926
p137
aVCMIS-925
p138
aVCMIS-924
p139
aVCMIS-923
p140
aVCMIS-922
p141
aVCMIS-921
p142
aVCMIS-920
p143
aVCMIS-919
p144
aVCMIS-918
p145
aVCMIS-917
p146
aVCMIS-916
p147
aVCMIS-915
p148
aVCMIS-914
p149
aVCMIS-913
p150
aVCMIS-912
p151
aVCMIS-911
p152
aVCMIS-910
p153
aVCMIS-909
p154
aVCMIS-908
p155
aVCMIS-907
p156
aVCMIS-906
p157
aVCMIS-905
p158
aVCMIS-904
p159
aVCMIS-903
p160
aVCMIS-902
p161
aVCMIS-901
p162
aVCMIS-900
p163
aVCMIS-899
p164
aVCMIS-898
p165
aVCMIS-897
p166
aVCMIS-896
p167
aVCMIS-895
p168
aVCMIS-894
p169
aVCMIS-893
p170
aVCMIS-892
p171
aVCMIS-891
p172
aVCMIS-890
p173
aVCMIS-889
p174
aVCMIS-888
p175
aVCMIS-887
p176
aVCMIS-886
p177
aVCMIS-885
p178
aVCMIS-884
p179
aVCMIS-883
p180
aVCMIS-882
p181
aVCMIS-881
p182
aVCMIS-880
p183
aVCMIS-879
p184
aVCMIS-878
p185
aVCMIS-877
p186
aVCMIS-876
p187
aVCMIS-875
p188
aVCMIS-874
p189
aVCMIS-873
p190
aVCMIS-872
p191
aVCMIS-871
p192
aVCMIS-870
p193
aVCMIS-869
p194
aVCMIS-868
p195
aVCMIS-867
p196
aVCMIS-866
p197
aVCMIS-865
p198
aVCMIS-864
p199
aVCMIS-863
p200
aVCMIS-862
p201
aVCMIS-861
p202
aVCMIS-860
p203
aVCMIS-859
p204
aVCMIS-858
p205
aVCMIS-857
p206
aVCMIS-856
p207
aVCMIS-855
p208
aVCMIS-854
p209
aVCMIS-853
p210
aVCMIS-852
p211
aVCMIS-851
p212
aVCMIS-850
p213
aVCMIS-849
p214
aVCMIS-848
p215
aVCMIS-847
p216
aVCMIS-846
p217
aVCMIS-845
p218
aVCMIS-844
p219
aVCMIS-843
p220
aVCMIS-842
p221
aVCMIS-841
p222
aVCMIS-840
p223
aVCMIS-839
p224
aVCMIS-838
p225
aVCMIS-837
p226
aVCMIS-836
p227
aVCMIS-835
p228
aVCMIS-834
p229
aVCMIS-833
p230
aVCMIS-832
p231
aVCMIS-831
p232
aVCMIS-830
p233
aVCMIS-829
p234
aVCMIS-828
p235
aVCMIS-827
p236
aVCMIS-826
p237
aVCMIS-825
p238
aVCMIS-824
p239
aVCMIS-823
p240
aVCMIS-822
p241
aVCMIS-821
p242
aVCMIS-820
p243
aVCMIS-819
p244
aVCMIS-818
p245
aVCMIS-817
p246
aVCMIS-816
p247
aVCMIS-815
p248
aVCMIS-814
p249
aVCMIS-813
p250
aVCMIS-812
p251
aVCMIS-811
p252
aVCMIS-810
p253
aVCMIS-809
p254
aVCMIS-808
p255
aVCMIS-807
p256
aVCMIS-806
p257
aVCMIS-805
p258
aVCMIS-804
p259
aVCMIS-803
p260
aVCMIS-802
p261
aVCMIS-801
p262
aVCMIS-800
p263
aVCMIS-799
p264
aVCMIS-798
p265
aVCMIS-797
p266
aVCMIS-796
p267
aVCMIS-795
p268
aVCMIS-794
p269
aVCMIS-793
p270
aVCMIS-792
p271
aVCMIS-791
p272
aVCMIS-790
p273
aVCMIS-789
p274
aVCMIS-788
p275
aVCMIS-787
p276
aVCMIS-786
p277
aVCMIS-785
p278
aVCMIS-784
p279
aVCMIS-783
p280
aVCMIS-782
p281
aVCMIS-781
p282
aVCMIS-780
p283
aVCMIS-779
p284
aVCMIS-778
p285
aVCMIS-777
p286
aVCMIS-776
p287
aVCMIS-775
p288
aVCMIS-774
p289
aVCMIS-773
p290
aVCMIS-772
p291
aVCMIS-771
p292
aVCMIS-770
p293
aVCMIS-769
p294
aVCMIS-768
p295
aVCMIS-767
p296
aVCMIS-766
p297
aVCMIS-765
p298
aVCMIS-764
p299
aVCMIS-763
p300
aVCMIS-762
p301
aVCMIS-761
p302
aVCMIS-760
p303
aVCMIS-759
p304
aVCMIS-758
p305
aVCMIS-757
p306
aVCMIS-756
p307
aVCMIS-755
p308
aVCMIS-754
p309
aVCMIS-753
p310
aVCMIS-752
p311
aVCMIS-751
p312
aVCMIS-750
p313
aVCMIS-749
p314
aVCMIS-748
p315
aVCMIS-747
p316
aVCMIS-746
p317
aVCMIS-745
p318
aVCMIS-744
p319
aVCMIS-743
p320
aVCMIS-742
p321
aVCMIS-741
p322
aVCMIS-740
p323
aVCMIS-739
p324
aVCMIS-738
p325
aVCMIS-737
p326
aVCMIS-736
p327
aVCMIS-735
p328
aVCMIS-734
p329
aVCMIS-733
p330
aVCMIS-732
p331
aVCMIS-731
p332
aVCMIS-730
p333
aVCMIS-729
p334
aVCMIS-728
p335
aVCMIS-727
p336
aVCMIS-726
p337
aVCMIS-725
p338
aVCMIS-724
p339
aVCMIS-723
p340
aVCMIS-722
p341
aVCMIS-721
p342
aVCMIS-720
p343
aVCMIS-719
p344
aVCMIS-717
p345
aVCMIS-716
p346
aVCMIS-715
p347
aVCMIS-714
p348
aVCMIS-713
p349
aVCMIS-712
p350
aVCMIS-711
p351
aVCMIS-710
p352
aVCMIS-709
p353
aVCMIS-708
p354
aVCMIS-707
p355
aVCMIS-706
p356
aVCMIS-705
p357
aVCMIS-704
p358
aVCMIS-703
p359
aVCMIS-702
p360
aVCMIS-701
p361
aVCMIS-700
p362
aVCMIS-699
p363
aVCMIS-698
p364
aVCMIS-697
p365
aVCMIS-696
p366
aVCMIS-695
p367
aVCMIS-694
p368
aVCMIS-693
p369
aVCMIS-692
p370
aVCMIS-691
p371
aVCMIS-690
p372
aVCMIS-689
p373
aVCMIS-688
p374
aVCMIS-687
p375
aVCMIS-686
p376
aVCMIS-685
p377
aVCMIS-684
p378
aVCMIS-683
p379
aVCMIS-682
p380
aVCMIS-681
p381
aVCMIS-680
p382
aVCMIS-679
p383
aVCMIS-678
p384
aVCMIS-677
p385
aVCMIS-676
p386
aVCMIS-675
p387
aVCMIS-674
p388
aVCMIS-673
p389
aVCMIS-672
p390
aVCMIS-671
p391
aVCMIS-670
p392
aVCMIS-669
p393
aVCMIS-668
p394
aVCMIS-667
p395
aVCMIS-666
p396
aVCMIS-665
p397
aVCMIS-664
p398
aVCMIS-663
p399
aVCMIS-662
p400
aVCMIS-661
p401
aVCMIS-660
p402
aVCMIS-659
p403
aVCMIS-658
p404
aVCMIS-657
p405
aVCMIS-656
p406
aVCMIS-655
p407
aVCMIS-654
p408
aVCMIS-653
p409
aVCMIS-652
p410
aVCMIS-651
p411
aVCMIS-650
p412
aVCMIS-649
p413
aVCMIS-648
p414
aVCMIS-647
p415
aVCMIS-646
p416
aVCMIS-645
p417
aVCMIS-644
p418
aVCMIS-643
p419
aVCMIS-642
p420
aVCMIS-641
p421
aVCMIS-640
p422
aVCMIS-639
p423
aVCMIS-638
p424
aVCMIS-637
p425
aVCMIS-636
p426
aVCMIS-635
p427
aVCMIS-634
p428
aVCMIS-633
p429
aVCMIS-632
p430
aVCMIS-631
p431
aVCMIS-630
p432
aVCMIS-629
p433
aVCMIS-628
p434
aVCMIS-627
p435
aVCMIS-626
p436
aVCMIS-625
p437
aVCMIS-624
p438
aVCMIS-623
p439
aVCMIS-622
p440
aVCMIS-621
p441
aVCMIS-620
p442
aVCMIS-619
p443
aVCMIS-618
p444
aVCMIS-617
p445
aVCMIS-616
p446
aVCMIS-615
p447
aVCMIS-614
p448
aVCMIS-613
p449
aVCMIS-612
p450
aVCMIS-611
p451
aVCMIS-610
p452
aVCMIS-609
p453
aVCMIS-608
p454
aVCMIS-607
p455
aVCMIS-606
p456
aVCMIS-605
p457
aVCMIS-604
p458
aVCMIS-603
p459
aVCMIS-602
p460
aVCMIS-601
p461
aVCMIS-600
p462
aVCMIS-599
p463
aVCMIS-598
p464
aVCMIS-597
p465
aVCMIS-596
p466
aVCMIS-595
p467
aVCMIS-594
p468
aVCMIS-593
p469
aVCMIS-592
p470
aVCMIS-591
p471
aVCMIS-590
p472
aVCMIS-589
p473
aVCMIS-588
p474
aVCMIS-587
p475
aVCMIS-586
p476
aVCMIS-585
p477
aVCMIS-584
p478
aVCMIS-583
p479
aVCMIS-582
p480
aVCMIS-581
p481
aVCMIS-580
p482
aVCMIS-579
p483
aVCMIS-578
p484
aVCMIS-577
p485
aVCMIS-576
p486
aVCMIS-575
p487
aVCMIS-574
p488
aVCMIS-573
p489
aVCMIS-572
p490
aVCMIS-571
p491
aVCMIS-570
p492
aVCMIS-569
p493
aVCMIS-568
p494
aVCMIS-567
p495
aVCMIS-566
p496
aVCMIS-565
p497
aVCMIS-564
p498
aVCMIS-563
p499
aVCMIS-562
p500
aVCMIS-561
p501
aVCMIS-560
p502
aVCMIS-559
p503
aVCMIS-558
p504
aVCMIS-557
p505
aVCMIS-556
p506
aVCMIS-555
p507
aVCMIS-554
p508
aVCMIS-553
p509
aVCMIS-552
p510
aVCMIS-551
p511
aVCMIS-550
p512
aVCMIS-549
p513
aVCMIS-548
p514
aVCMIS-547
p515
aVCMIS-546
p516
aVCMIS-545
p517
aVCMIS-544
p518
aVCMIS-543
p519
aVCMIS-542
p520
aVCMIS-541
p521
aVCMIS-540
p522
aVCMIS-539
p523
aVCMIS-538
p524
aVCMIS-537
p525
aVCMIS-536
p526
aVCMIS-535
p527
aVCMIS-534
p528
aVCMIS-533
p529
aVCMIS-532
p530
aVCMIS-531
p531
aVCMIS-530
p532
aVCMIS-529
p533
aVCMIS-528
p534
aVCMIS-527
p535
aVCMIS-526
p536
aVCMIS-525
p537
aVCMIS-524
p538
aVCMIS-523
p539
aVCMIS-522
p540
aVCMIS-521
p541
aVCMIS-520
p542
aVCMIS-519
p543
aVCMIS-518
p544
aVCMIS-517
p545
aVCMIS-516
p546
aVCMIS-515
p547
aVCMIS-514
p548
aVCMIS-513
p549
aVCMIS-512
p550
aVCMIS-511
p551
aVCMIS-510
p552
aVCMIS-509
p553
aVCMIS-508
p554
aVCMIS-507
p555
aVCMIS-506
p556
aVCMIS-505
p557
aVCMIS-504
p558
aVCMIS-503
p559
aVCMIS-502
p560
aVCMIS-501
p561
aVCMIS-500
p562
aVCMIS-499
p563
aVCMIS-498
p564
aVCMIS-497
p565
aVCMIS-496
p566
aVCMIS-495
p567
aVCMIS-494
p568
aVCMIS-493
p569
aVCMIS-492
p570
aVCMIS-491
p571
aVCMIS-490
p572
aVCMIS-489
p573
aVCMIS-488
p574
aVCMIS-487
p575
aVCMIS-486
p576
aVCMIS-485
p577
aVCMIS-484
p578
aVCMIS-483
p579
aVCMIS-482
p580
aVCMIS-481
p581
aVCMIS-480
p582
aVCMIS-479
p583
aVCMIS-478
p584
aVCMIS-477
p585
aVCMIS-476
p586
aVCMIS-475
p587
aVCMIS-474
p588
aVCMIS-473
p589
aVCMIS-472
p590
aVCMIS-471
p591
aVCMIS-470
p592
aVCMIS-469
p593
aVCMIS-468
p594
aVCMIS-467
p595
aVCMIS-466
p596
aVCMIS-465
p597
aVCMIS-464
p598
aVCMIS-463
p599
aVCMIS-462
p600
aVCMIS-461
p601
aVCMIS-460
p602
aVCMIS-459
p603
aVCMIS-458
p604
aVCMIS-457
p605
aVCMIS-456
p606
aVCMIS-455
p607
aVCMIS-454
p608
aVCMIS-453
p609
aVCMIS-452
p610
aVCMIS-451
p611
aVCMIS-450
p612
aVCMIS-449
p613
aVCMIS-448
p614
aVCMIS-447
p615
aVCMIS-446
p616
aVCMIS-445
p617
aVCMIS-444
p618
aVCMIS-443
p619
aVCMIS-442
p620
aVCMIS-441
p621
aVCMIS-440
p622
aVCMIS-439
p623
aVCMIS-438
p624
aVCMIS-437
p625
aVCMIS-436
p626
aVCMIS-435
p627
aVCMIS-434
p628
aVCMIS-433
p629
aVCMIS-432
p630
aVCMIS-431
p631
aVCMIS-430
p632
aVCMIS-429
p633
aVCMIS-428
p634
aVCMIS-427
p635
aVCMIS-426
p636
aVCMIS-425
p637
aVCMIS-424
p638
aVCMIS-423
p639
aVCMIS-422
p640
aVCMIS-421
p641
aVCMIS-420
p642
aVCMIS-419
p643
aVCMIS-418
p644
aVCMIS-417
p645
aVCMIS-416
p646
aVCMIS-415
p647
aVCMIS-414
p648
aVCMIS-413
p649
aVCMIS-412
p650
aVCMIS-411
p651
aVCMIS-410
p652
aVCMIS-409
p653
aVCMIS-408
p654
aVCMIS-407
p655
aVCMIS-406
p656
aVCMIS-405
p657
aVCMIS-404
p658
aVCMIS-403
p659
aVCMIS-402
p660
aVCMIS-401
p661
aVCMIS-400
p662
aVCMIS-399
p663
aVCMIS-398
p664
aVCMIS-397
p665
aVCMIS-396
p666
aVCMIS-395
p667
aVCMIS-394
p668
aVCMIS-393
p669
aVCMIS-392
p670
aVCMIS-391
p671
aVCMIS-390
p672
aVCMIS-389
p673
aVCMIS-388
p674
aVCMIS-387
p675
aVCMIS-386
p676
aVCMIS-385
p677
aVCMIS-384
p678
aVCMIS-383
p679
aVCMIS-382
p680
aVCMIS-381
p681
aVCMIS-380
p682
aVCMIS-379
p683
aVCMIS-378
p684
aVCMIS-377
p685
aVCMIS-376
p686
aVCMIS-375
p687
aVCMIS-374
p688
aVCMIS-373
p689
aVCMIS-372
p690
aVCMIS-371
p691
aVCMIS-370
p692
aVCMIS-369
p693
aVCMIS-368
p694
aVCMIS-367
p695
aVCMIS-366
p696
aVCMIS-365
p697
aVCMIS-364
p698
aVCMIS-363
p699
aVCMIS-362
p700
aVCMIS-361
p701
aVCMIS-360
p702
aVCMIS-359
p703
aVCMIS-358
p704
aVCMIS-357
p705
aVCMIS-356
p706
aVCMIS-355
p707
aVCMIS-354
p708
aVCMIS-353
p709
aVCMIS-352
p710
aVCMIS-351
p711
aVCMIS-350
p712
aVCMIS-349
p713
aVCMIS-348
p714
aVCMIS-347
p715
aVCMIS-346
p716
aVCMIS-345
p717
aVCMIS-344
p718
aVCMIS-343
p719
aVCMIS-342
p720
aVCMIS-341
p721
aVCMIS-340
p722
aVCMIS-339
p723
aVCMIS-338
p724
aVCMIS-337
p725
aVCMIS-336
p726
aVCMIS-335
p727
aVCMIS-334
p728
aVCMIS-333
p729
aVCMIS-332
p730
aVCMIS-331
p731
aVCMIS-330
p732
aVCMIS-329
p733
aVCMIS-328
p734
aVCMIS-327
p735
aVCMIS-326
p736
aVCMIS-325
p737
aVCMIS-324
p738
aVCMIS-323
p739
aVCMIS-322
p740
aVCMIS-321
p741
aVCMIS-320
p742
aVCMIS-319
p743
aVCMIS-318
p744
aVCMIS-317
p745
aVCMIS-316
p746
aVCMIS-315
p747
aVCMIS-314
p748
aVCMIS-313
p749
aVCMIS-312
p750
aVCMIS-311
p751
aVCMIS-310
p752
aVCMIS-309
p753
aVCMIS-308
p754
aVCMIS-307
p755
aVCMIS-306
p756
aVCMIS-305
p757
aVCMIS-304
p758
aVCMIS-303
p759
aVCMIS-302
p760
aVCMIS-301
p761
aVCMIS-300
p762
aVCMIS-299
p763
aVCMIS-298
p764
aVCMIS-297
p765
aVCMIS-296
p766
aVCMIS-295
p767
aVCMIS-294
p768
aVCMIS-293
p769
aVCMIS-292
p770
aVCMIS-291
p771
aVCMIS-290
p772
aVCMIS-289
p773
aVCMIS-288
p774
aVCMIS-287
p775
aVCMIS-286
p776
aVCMIS-285
p777
aVCMIS-284
p778
aVCMIS-283
p779
aVCMIS-282
p780
aVCMIS-281
p781
aVCMIS-280
p782
aVCMIS-279
p783
aVCMIS-278
p784
aVCMIS-277
p785
aVCMIS-276
p786
aVCMIS-275
p787
aVCMIS-274
p788
aVCMIS-273
p789
aVCMIS-272
p790
aVCMIS-271
p791
aVCMIS-270
p792
aVCMIS-269
p793
aVCMIS-268
p794
aVCMIS-267
p795
aVCMIS-266
p796
aVCMIS-265
p797
aVCMIS-264
p798
aVCMIS-263
p799
aVCMIS-262
p800
aVCMIS-261
p801
aVCMIS-260
p802
aVCMIS-259
p803
aVCMIS-258
p804
aVCMIS-257
p805
aVCMIS-256
p806
aVCMIS-255
p807
aVCMIS-254
p808
aVCMIS-253
p809
aVCMIS-252
p810
aVCMIS-251
p811
aVCMIS-250
p812
aVCMIS-249
p813
aVCMIS-248
p814
aVCMIS-247
p815
aVCMIS-246
p816
aVCMIS-245
p817
aVCMIS-244
p818
aVCMIS-243
p819
aVCMIS-242
p820
aVCMIS-241
p821
aVCMIS-240
p822
aVCMIS-239
p823
aVCMIS-238
p824
aVCMIS-237
p825
aVCMIS-236
p826
aVCMIS-235
p827
aVCMIS-234
p828
aVCMIS-233
p829
aVCMIS-232
p830
aVCMIS-231
p831
aVCMIS-230
p832
aVCMIS-229
p833
aVCMIS-228
p834
aVCMIS-227
p835
aVCMIS-226
p836
aVCMIS-225
p837
aVCMIS-224
p838
aVCMIS-223
p839
aVCMIS-222
p840
aVCMIS-221
p841
aVCMIS-220
p842
aVCMIS-219
p843
aVCMIS-218
p844
aVCMIS-217
p845
aVCMIS-216
p846
aVCMIS-215
p847
aVCMIS-214
p848
aVCMIS-213
p849
aVCMIS-212
p850
aVCMIS-211
p851
aVCMIS-210
p852
aVCMIS-209
p853
aVCMIS-208
p854
aVCMIS-207
p855
aVCMIS-206
p856
aVCMIS-205
p857
aVCMIS-204
p858
aVCMIS-203
p859
aVCMIS-202
p860
aVCMIS-201
p861
aVCMIS-200
p862
aVCMIS-199
p863
aVCMIS-198
p864
aVCMIS-197
p865
aVCMIS-196
p866
aVCMIS-195
p867
aVCMIS-194
p868
aVCMIS-193
p869
aVCMIS-192
p870
aVCMIS-191
p871
aVCMIS-190
p872
aVCMIS-189
p873
aVCMIS-188
p874
aVCMIS-187
p875
aVCMIS-186
p876
aVCMIS-185
p877
aVCMIS-184
p878
aVCMIS-183
p879
aVCMIS-182
p880
aVCMIS-181
p881
aVCMIS-180
p882
aVCMIS-179
p883
aVCMIS-178
p884
aVCMIS-177
p885
aVCMIS-176
p886
aVCMIS-175
p887
aVCMIS-174
p888
aVCMIS-173
p889
aVCMIS-172
p890
aVCMIS-171
p891
aVCMIS-170
p892
aVCMIS-169
p893
aVCMIS-168
p894
aVCMIS-167
p895
aVCMIS-166
p896
aVCMIS-165
p897
aVCMIS-164
p898
aVCMIS-163
p899
aVCMIS-162
p900
aVCMIS-161
p901
aVCMIS-160
p902
aVCMIS-159
p903
aVCMIS-158
p904
aVCMIS-157
p905
aVCMIS-156
p906
aVCMIS-155
p907
aVCMIS-154
p908
aVCMIS-153
p909
aVCMIS-152
p910
aVCMIS-151
p911
aVCMIS-150
p912
aVCMIS-149
p913
aVCMIS-148
p914
aVCMIS-147
p915
aVCMIS-146
p916
aVCMIS-145
p917
aVCMIS-144
p918
aVCMIS-143
p919
aVCMIS-142
p920
aVCMIS-141
p921
aVCMIS-140
p922
aVCMIS-139
p923
aVCMIS-138
p924
aVCMIS-137
p925
aVCMIS-136
p926
aVCMIS-135
p927
aVCMIS-134
p928
aVCMIS-133
p929
aVCMIS-132
p930
aVCMIS-131
p931
aVCMIS-130
p932
aVCMIS-129
p933
aVCMIS-128
p934
aVCMIS-127
p935
aVCMIS-126
p936
aVCMIS-125
p937
aVCMIS-124
p938
aVCMIS-123
p939
aVCMIS-122
p940
aVCMIS-121
p941
aVCMIS-120
p942
aVCMIS-119
p943
aVCMIS-118
p944
aVCMIS-117
p945
aVCMIS-116
p946
aVCMIS-115
p947
aVCMIS-114
p948
aVCMIS-113
p949
aVCMIS-112
p950
aVCMIS-111
p951
aVCMIS-110
p952
aVCMIS-109
p953
aVCMIS-108
p954
aVCMIS-107
p955
aVCMIS-106
p956
aVCMIS-105
p957
aVCMIS-104
p958
aVCMIS-103
p959
aVCMIS-102
p960
aVCMIS-101
p961
aVCMIS-100
p962
aVCMIS-99
p963
aVCMIS-98
p964
aVCMIS-97
p965
aVCMIS-96
p966
aVCMIS-95
p967
aVCMIS-94
p968
aVCMIS-93
p969
aVCMIS-92
p970
aVCMIS-91
p971
aVCMIS-90
p972
aVCMIS-89
p973
aVCMIS-88
p974
aVCMIS-87
p975
aVCMIS-86
p976
aVCMIS-85
p977
aVCMIS-84
p978
aVCMIS-83
p979
aVCMIS-82
p980
aVCMIS-81
p981
aVCMIS-80
p982
aVCMIS-79
p983
aVCMIS-78
p984
aVCMIS-77
p985
aVCMIS-76
p986
aVCMIS-75
p987
aVCMIS-74
p988
aVCMIS-73
p989
aVCMIS-72
p990
aVCMIS-71
p991
aVCMIS-70
p992
aVCMIS-69
p993
aVCMIS-68
p994
aVCMIS-67
p995
aVCMIS-66
p996
aVCMIS-65
p997
aVCMIS-64
p998
aVCMIS-63
p999
aVCMIS-62
p1000
aVCMIS-61
p1001
aVCMIS-60
p1002
aVCMIS-59
p1003
aVCMIS-58
p1004
aVCMIS-57
p1005
aVCMIS-56
p1006
aVCMIS-55
p1007
aVCMIS-54
p1008
aVCMIS-53
p1009
aVCMIS-52
p1010
aVCMIS-51
p1011
aVCMIS-50
p1012
aVCMIS-49
p1013
aVCMIS-48
p1014
aVCMIS-47
p1015
aVCMIS-46
p1016
aVCMIS-45
p1017
aVCMIS-44
p1018
aVCMIS-43
p1019
aVCMIS-42
p1020
aVCMIS-41
p1021
aVCMIS-40
p1022
aVCMIS-39
p1023
aVCMIS-38
p1024
aVCMIS-37
p1025
aVCMIS-36
p1026
aVCMIS-35
p1027
aVCMIS-34
p1028
aVCMIS-33
p1029
aVCMIS-32
p1030
aVCMIS-31
p1031
aVCMIS-30
p1032
aVCMIS-29
p1033
aVCMIS-28
p1034
aVCMIS-27
p1035
aVCMIS-26
p1036
aVCMIS-25
p1037
aVCMIS-24
p1038
aVCMIS-23
p1039
aVCMIS-22
p1040
aVCMIS-21
p1041
aVCMIS-20
p1042
aVCMIS-19
p1043
aVCMIS-18
p1044
aVCMIS-17
p1045
aVCMIS-16
p1046
aVCMIS-15
p1047
aVCMIS-14
p1048
aVCMIS-13
p1049
aVCMIS-12
p1050
aVCMIS-11
p1051
aVCMIS-10
p1052
aVCMIS-9
p1053
aVCMIS-8
p1054
aVCMIS-7
p1055
aVCMIS-6
p1056
aVCMIS-5
p1057
aVCMIS-4
p1058
aVCMIS-3
p1059
aVCMIS-2
p1060
aVCMIS-1
p1061
a.