(lp0
VCOCOON-2360
p1
aVCOCOON-2359
p2
aVCOCOON-2358
p3
aVCOCOON-2357
p4
aVCOCOON-2356
p5
aVCOCOON-2355
p6
aVCOCOON-2354
p7
aVCOCOON-2353
p8
aVCOCOON-2352
p9
aVCOCOON-2351
p10
aVCOCOON-2350
p11
aVCOCOON-2349
p12
aVCOCOON-2348
p13
aVCOCOON-2347
p14
aVCOCOON-2346
p15
aVCOCOON-2345
p16
aVCOCOON-2344
p17
aVCOCOON-2343
p18
aVCOCOON-2342
p19
aVCOCOON-2341
p20
aVCOCOON-2340
p21
aVCOCOON-2339
p22
aVCOCOON-2338
p23
aVCOCOON-2337
p24
aVCOCOON-2336
p25
aVCOCOON-2335
p26
aVCOCOON-2334
p27
aVCOCOON-2333
p28
aVCOCOON-2332
p29
aVCOCOON-2331
p30
aVCOCOON-2330
p31
aVCOCOON-2329
p32
aVCOCOON-2328
p33
aVCOCOON-2327
p34
aVCOCOON-2326
p35
aVCOCOON-2325
p36
aVCOCOON-2324
p37
aVCOCOON-2323
p38
aVCOCOON-2322
p39
aVCOCOON-2321
p40
aVCOCOON-2320
p41
aVCOCOON-2319
p42
aVCOCOON-2318
p43
aVCOCOON-2317
p44
aVCOCOON-2316
p45
aVCOCOON-2315
p46
aVCOCOON-2314
p47
aVCOCOON-2313
p48
aVCOCOON-2312
p49
aVCOCOON-2311
p50
aVCOCOON-2310
p51
aVCOCOON-2309
p52
aVCOCOON-2308
p53
aVCOCOON-2307
p54
aVCOCOON-2306
p55
aVCOCOON-2305
p56
aVCOCOON-2304
p57
aVCOCOON-2303
p58
aVCOCOON-2302
p59
aVCOCOON-2301
p60
aVCOCOON-2300
p61
aVCOCOON-2299
p62
aVCOCOON-2298
p63
aVCOCOON-2297
p64
aVCOCOON-2296
p65
aVCOCOON-2295
p66
aVCOCOON-2294
p67
aVCOCOON-2293
p68
aVCOCOON-2292
p69
aVCOCOON-2291
p70
aVCOCOON-2290
p71
aVCOCOON-2289
p72
aVCOCOON-2288
p73
aVCOCOON-2286
p74
aVCOCOON-2285
p75
aVCOCOON-2284
p76
aVCOCOON-2283
p77
aVCOCOON-2282
p78
aVCOCOON-2281
p79
aVCOCOON-2280
p80
aVCOCOON-2279
p81
aVCOCOON-2278
p82
aVCOCOON-2277
p83
aVCOCOON-2276
p84
aVCOCOON-2275
p85
aVCOCOON-2274
p86
aVCOCOON-2273
p87
aVCOCOON-2272
p88
aVCOCOON-2271
p89
aVCOCOON-2270
p90
aVCOCOON-2269
p91
aVCOCOON-2268
p92
aVCOCOON-2267
p93
aVCOCOON-2266
p94
aVCOCOON-2265
p95
aVCOCOON-2264
p96
aVCOCOON-2263
p97
aVCOCOON-2262
p98
aVCOCOON-2261
p99
aVCOCOON-2260
p100
aVCOCOON-2259
p101
aVCOCOON-2258
p102
aVCOCOON-2257
p103
aVCOCOON-2255
p104
aVCOCOON-2254
p105
aVCOCOON-2253
p106
aVCOCOON-2252
p107
aVCOCOON-2251
p108
aVCOCOON-2250
p109
aVCOCOON-2249
p110
aVCOCOON-2247
p111
aVCOCOON-2246
p112
aVCOCOON-2245
p113
aVCOCOON-2244
p114
aVCOCOON-2243
p115
aVCOCOON-2242
p116
aVCOCOON-2241
p117
aVCOCOON-2240
p118
aVCOCOON-2239
p119
aVCOCOON-2238
p120
aVCOCOON-2237
p121
aVCOCOON-2236
p122
aVCOCOON-2235
p123
aVCOCOON-2234
p124
aVCOCOON-2233
p125
aVCOCOON-2232
p126
aVCOCOON-2231
p127
aVCOCOON-2230
p128
aVCOCOON-2229
p129
aVCOCOON-2228
p130
aVCOCOON-2227
p131
aVCOCOON-2226
p132
aVCOCOON-2225
p133
aVCOCOON-2224
p134
aVCOCOON-2223
p135
aVCOCOON-2222
p136
aVCOCOON-2221
p137
aVCOCOON-2220
p138
aVCOCOON-2219
p139
aVCOCOON-2218
p140
aVCOCOON-2217
p141
aVCOCOON-2216
p142
aVCOCOON-2215
p143
aVCOCOON-2214
p144
aVCOCOON-2213
p145
aVCOCOON-2212
p146
aVCOCOON-2211
p147
aVCOCOON-2210
p148
aVCOCOON-2209
p149
aVCOCOON-2208
p150
aVCOCOON-2207
p151
aVCOCOON-2206
p152
aVCOCOON-2205
p153
aVCOCOON-2204
p154
aVCOCOON-2203
p155
aVCOCOON-2202
p156
aVCOCOON-2201
p157
aVCOCOON-2200
p158
aVCOCOON-2199
p159
aVCOCOON-2198
p160
aVCOCOON-2197
p161
aVCOCOON-2196
p162
aVCOCOON-2195
p163
aVCOCOON-2194
p164
aVCOCOON-2193
p165
aVCOCOON-2192
p166
aVCOCOON-2191
p167
aVCOCOON-2190
p168
aVCOCOON-2189
p169
aVCOCOON-2188
p170
aVCOCOON-2187
p171
aVCOCOON-2186
p172
aVCOCOON-2185
p173
aVCOCOON-2184
p174
aVCOCOON-2183
p175
aVCOCOON-2182
p176
aVCOCOON-2181
p177
aVCOCOON-2180
p178
aVCOCOON-2179
p179
aVCOCOON-2178
p180
aVCOCOON-2177
p181
aVCOCOON-2176
p182
aVCOCOON-2175
p183
aVCOCOON-2174
p184
aVCOCOON-2173
p185
aVCOCOON-2172
p186
aVCOCOON-2171
p187
aVCOCOON-2170
p188
aVCOCOON-2169
p189
aVCOCOON-2168
p190
aVCOCOON-2167
p191
aVCOCOON-2166
p192
aVCOCOON-2165
p193
aVCOCOON-2164
p194
aVCOCOON-2163
p195
aVCOCOON-2162
p196
aVCOCOON-2161
p197
aVCOCOON-2160
p198
aVCOCOON-2159
p199
aVCOCOON-2158
p200
aVCOCOON-2157
p201
aVCOCOON-2156
p202
aVCOCOON-2155
p203
aVCOCOON-2154
p204
aVCOCOON-2153
p205
aVCOCOON-2152
p206
aVCOCOON-2151
p207
aVCOCOON-2150
p208
aVCOCOON-2149
p209
aVCOCOON-2148
p210
aVCOCOON-2147
p211
aVCOCOON-2146
p212
aVCOCOON-2145
p213
aVCOCOON-2144
p214
aVCOCOON-2143
p215
aVCOCOON-2142
p216
aVCOCOON-2141
p217
aVCOCOON-2140
p218
aVCOCOON-2139
p219
aVCOCOON-2138
p220
aVCOCOON-2137
p221
aVCOCOON-2136
p222
aVCOCOON-2135
p223
aVCOCOON-2134
p224
aVCOCOON-2133
p225
aVCOCOON-2132
p226
aVCOCOON-2131
p227
aVCOCOON-2130
p228
aVCOCOON-2129
p229
aVCOCOON-2128
p230
aVCOCOON-2127
p231
aVCOCOON-2126
p232
aVCOCOON-2125
p233
aVCOCOON-2124
p234
aVCOCOON-2123
p235
aVCOCOON-2122
p236
aVCOCOON-2121
p237
aVCOCOON-2120
p238
aVCOCOON-2119
p239
aVCOCOON-2118
p240
aVCOCOON-2117
p241
aVCOCOON-2116
p242
aVCOCOON-2115
p243
aVCOCOON-2114
p244
aVCOCOON-2113
p245
aVCOCOON-2112
p246
aVCOCOON-2111
p247
aVCOCOON-2110
p248
aVCOCOON-2109
p249
aVCOCOON-2108
p250
aVCOCOON-2107
p251
aVCOCOON-2106
p252
aVCOCOON-2105
p253
aVCOCOON-2104
p254
aVCOCOON-2103
p255
aVCOCOON-2102
p256
aVCOCOON-2101
p257
aVCOCOON-2100
p258
aVCOCOON-2099
p259
aVCOCOON-2098
p260
aVCOCOON-2097
p261
aVCOCOON-2096
p262
aVCOCOON-2095
p263
aVCOCOON-2094
p264
aVCOCOON-2093
p265
aVCOCOON-2092
p266
aVCOCOON-2091
p267
aVCOCOON-2090
p268
aVCOCOON-2089
p269
aVCOCOON-2088
p270
aVCOCOON-2087
p271
aVCOCOON-2086
p272
aVCOCOON-2085
p273
aVCOCOON-2084
p274
aVCOCOON-2083
p275
aVCOCOON-2082
p276
aVCOCOON-2081
p277
aVCOCOON-2080
p278
aVCOCOON-2079
p279
aVCOCOON-2078
p280
aVCOCOON-2077
p281
aVCOCOON-2076
p282
aVCOCOON-2075
p283
aVCOCOON-2074
p284
aVCOCOON-2073
p285
aVCOCOON-2072
p286
aVCOCOON-2071
p287
aVCOCOON-2070
p288
aVCOCOON-2069
p289
aVCOCOON-2068
p290
aVCOCOON-2067
p291
aVCOCOON-2066
p292
aVCOCOON-2065
p293
aVCOCOON-2064
p294
aVCOCOON-2063
p295
aVCOCOON-2062
p296
aVCOCOON-2061
p297
aVCOCOON-2060
p298
aVCOCOON-2059
p299
aVCOCOON-2058
p300
aVCOCOON-2057
p301
aVCOCOON-2056
p302
aVCOCOON-2055
p303
aVCOCOON-2054
p304
aVCOCOON-2053
p305
aVCOCOON-2052
p306
aVCOCOON-2051
p307
aVCOCOON-2050
p308
aVCOCOON-2049
p309
aVCOCOON-2048
p310
aVCOCOON-2047
p311
aVCOCOON-2046
p312
aVCOCOON-2045
p313
aVCOCOON-2044
p314
aVCOCOON-2043
p315
aVCOCOON-2042
p316
aVCOCOON-2041
p317
aVCOCOON-2040
p318
aVCOCOON-2039
p319
aVCOCOON-2038
p320
aVCOCOON-2037
p321
aVCOCOON-2036
p322
aVCOCOON-2035
p323
aVCOCOON-2034
p324
aVCOCOON-2033
p325
aVCOCOON-2032
p326
aVCOCOON-2031
p327
aVCOCOON-2030
p328
aVCOCOON-2029
p329
aVCOCOON-2028
p330
aVCOCOON-2027
p331
aVCOCOON-2026
p332
aVCOCOON-2025
p333
aVCOCOON-2024
p334
aVCOCOON-2023
p335
aVCOCOON-2022
p336
aVCOCOON-2021
p337
aVCOCOON-2020
p338
aVCOCOON-2019
p339
aVCOCOON-2018
p340
aVCOCOON-2017
p341
aVCOCOON-2016
p342
aVCOCOON-2015
p343
aVCOCOON-2014
p344
aVCOCOON-2013
p345
aVCOCOON-2012
p346
aVCOCOON-2011
p347
aVCOCOON-2010
p348
aVCOCOON-2009
p349
aVCOCOON-2008
p350
aVCOCOON-2007
p351
aVCOCOON-2006
p352
aVCOCOON-2005
p353
aVCOCOON-2004
p354
aVCOCOON-2003
p355
aVCOCOON-2002
p356
aVCOCOON-2001
p357
aVCOCOON-2000
p358
aVCOCOON-1999
p359
aVCOCOON-1998
p360
aVCOCOON-1997
p361
aVCOCOON-1996
p362
aVCOCOON-1995
p363
aVCOCOON-1994
p364
aVCOCOON-1993
p365
aVCOCOON-1992
p366
aVCOCOON-1991
p367
aVCOCOON-1990
p368
aVCOCOON-1989
p369
aVCOCOON-1988
p370
aVCOCOON-1987
p371
aVCOCOON-1986
p372
aVCOCOON-1985
p373
aVCOCOON-1984
p374
aVCOCOON-1983
p375
aVCOCOON-1982
p376
aVCOCOON-1981
p377
aVCOCOON-1980
p378
aVCOCOON-1979
p379
aVCOCOON-1978
p380
aVCOCOON-1977
p381
aVCOCOON-1976
p382
aVCOCOON-1975
p383
aVCOCOON-1974
p384
aVCOCOON-1973
p385
aVCOCOON-1972
p386
aVCOCOON-1971
p387
aVCOCOON-1970
p388
aVCOCOON-1969
p389
aVCOCOON-1968
p390
aVCOCOON-1967
p391
aVCOCOON-1966
p392
aVCOCOON-1965
p393
aVCOCOON-1964
p394
aVCOCOON-1963
p395
aVCOCOON-1962
p396
aVCOCOON-1961
p397
aVCOCOON-1960
p398
aVCOCOON-1959
p399
aVCOCOON-1958
p400
aVCOCOON-1957
p401
aVCOCOON-1956
p402
aVCOCOON-1955
p403
aVCOCOON-1954
p404
aVCOCOON-1953
p405
aVCOCOON-1951
p406
aVCOCOON-1950
p407
aVCOCOON-1949
p408
aVCOCOON-1948
p409
aVCOCOON-1947
p410
aVCOCOON-1946
p411
aVCOCOON-1945
p412
aVCOCOON-1944
p413
aVCOCOON-1943
p414
aVCOCOON-1942
p415
aVCOCOON-1941
p416
aVCOCOON-1940
p417
aVCOCOON-1939
p418
aVCOCOON-1938
p419
aVCOCOON-1937
p420
aVCOCOON-1936
p421
aVCOCOON-1935
p422
aVCOCOON-1934
p423
aVCOCOON-1933
p424
aVCOCOON-1932
p425
aVCOCOON-1931
p426
aVCOCOON-1930
p427
aVCOCOON-1929
p428
aVCOCOON-1928
p429
aVCOCOON-1927
p430
aVCOCOON-1926
p431
aVCOCOON-1925
p432
aVCOCOON-1924
p433
aVCOCOON-1923
p434
aVCOCOON-1922
p435
aVCOCOON-1921
p436
aVCOCOON-1920
p437
aVCOCOON-1919
p438
aVCOCOON-1918
p439
aVCOCOON-1917
p440
aVCOCOON-1916
p441
aVCOCOON-1915
p442
aVCOCOON-1914
p443
aVCOCOON-1913
p444
aVCOCOON-1912
p445
aVCOCOON-1911
p446
aVCOCOON-1910
p447
aVCOCOON-1909
p448
aVCOCOON-1908
p449
aVCOCOON-1907
p450
aVCOCOON-1906
p451
aVCOCOON-1905
p452
aVCOCOON-1904
p453
aVCOCOON-1903
p454
aVCOCOON-1902
p455
aVCOCOON-1901
p456
aVCOCOON-1900
p457
aVCOCOON-1899
p458
aVCOCOON-1898
p459
aVCOCOON-1897
p460
aVCOCOON-1896
p461
aVCOCOON-1895
p462
aVCOCOON-1894
p463
aVCOCOON-1893
p464
aVCOCOON-1892
p465
aVCOCOON-1891
p466
aVCOCOON-1890
p467
aVCOCOON-1889
p468
aVCOCOON-1888
p469
aVCOCOON-1887
p470
aVCOCOON-1886
p471
aVCOCOON-1885
p472
aVCOCOON-1884
p473
aVCOCOON-1883
p474
aVCOCOON-1882
p475
aVCOCOON-1881
p476
aVCOCOON-1880
p477
aVCOCOON-1879
p478
aVCOCOON-1878
p479
aVCOCOON-1877
p480
aVCOCOON-1876
p481
aVCOCOON-1875
p482
aVCOCOON-1874
p483
aVCOCOON-1873
p484
aVCOCOON-1872
p485
aVCOCOON-1871
p486
aVCOCOON-1870
p487
aVCOCOON-1869
p488
aVCOCOON-1868
p489
aVCOCOON-1867
p490
aVCOCOON-1866
p491
aVCOCOON-1865
p492
aVCOCOON-1864
p493
aVCOCOON-1863
p494
aVCOCOON-1862
p495
aVCOCOON-1861
p496
aVCOCOON-1860
p497
aVCOCOON-1859
p498
aVCOCOON-1858
p499
aVCOCOON-1857
p500
aVCOCOON-1856
p501
aVCOCOON-1855
p502
aVCOCOON-1854
p503
aVCOCOON-1853
p504
aVCOCOON-1852
p505
aVCOCOON-1851
p506
aVCOCOON-1850
p507
aVCOCOON-1849
p508
aVCOCOON-1848
p509
aVCOCOON-1847
p510
aVCOCOON-1846
p511
aVCOCOON-1845
p512
aVCOCOON-1844
p513
aVCOCOON-1843
p514
aVCOCOON-1842
p515
aVCOCOON-1841
p516
aVCOCOON-1840
p517
aVCOCOON-1839
p518
aVCOCOON-1838
p519
aVCOCOON-1837
p520
aVCOCOON-1836
p521
aVCOCOON-1835
p522
aVCOCOON-1834
p523
aVCOCOON-1833
p524
aVCOCOON-1832
p525
aVCOCOON-1831
p526
aVCOCOON-1830
p527
aVCOCOON-1829
p528
aVCOCOON-1828
p529
aVCOCOON-1827
p530
aVCOCOON-1826
p531
aVCOCOON-1825
p532
aVCOCOON-1824
p533
aVCOCOON-1823
p534
aVCOCOON-1822
p535
aVCOCOON-1821
p536
aVCOCOON-1820
p537
aVCOCOON-1819
p538
aVCOCOON-1818
p539
aVCOCOON-1817
p540
aVCOCOON-1816
p541
aVCOCOON-1815
p542
aVCOCOON-1814
p543
aVCOCOON-1813
p544
aVCOCOON-1812
p545
aVCOCOON-1811
p546
aVCOCOON-1810
p547
aVCOCOON-1809
p548
aVCOCOON-1808
p549
aVCOCOON-1807
p550
aVCOCOON-1806
p551
aVCOCOON-1805
p552
aVCOCOON-1804
p553
aVCOCOON-1803
p554
aVCOCOON-1802
p555
aVCOCOON-1801
p556
aVCOCOON-1800
p557
aVCOCOON-1799
p558
aVCOCOON-1798
p559
aVCOCOON-1797
p560
aVCOCOON-1796
p561
aVCOCOON-1795
p562
aVCOCOON-1794
p563
aVCOCOON-1793
p564
aVCOCOON-1792
p565
aVCOCOON-1791
p566
aVCOCOON-1790
p567
aVCOCOON-1789
p568
aVCOCOON-1788
p569
aVCOCOON-1787
p570
aVCOCOON-1786
p571
aVCOCOON-1785
p572
aVCOCOON-1784
p573
aVCOCOON-1783
p574
aVCOCOON-1782
p575
aVCOCOON-1781
p576
aVCOCOON-1780
p577
aVCOCOON-1779
p578
aVCOCOON-1778
p579
aVCOCOON-1777
p580
aVCOCOON-1776
p581
aVCOCOON-1775
p582
aVCOCOON-1774
p583
aVCOCOON-1773
p584
aVCOCOON-1772
p585
aVCOCOON-1771
p586
aVCOCOON-1770
p587
aVCOCOON-1769
p588
aVCOCOON-1768
p589
aVCOCOON-1767
p590
aVCOCOON-1766
p591
aVCOCOON-1765
p592
aVCOCOON-1764
p593
aVCOCOON-1763
p594
aVCOCOON-1762
p595
aVCOCOON-1761
p596
aVCOCOON-1760
p597
aVCOCOON-1759
p598
aVCOCOON-1758
p599
aVCOCOON-1757
p600
aVCOCOON-1756
p601
aVCOCOON-1755
p602
aVCOCOON-1754
p603
aVCOCOON-1753
p604
aVCOCOON-1752
p605
aVCOCOON-1751
p606
aVCOCOON-1750
p607
aVCOCOON-1749
p608
aVCOCOON-1748
p609
aVCOCOON-1747
p610
aVCOCOON-1746
p611
aVCOCOON-1745
p612
aVCOCOON-1744
p613
aVCOCOON-1743
p614
aVCOCOON-1742
p615
aVCOCOON-1741
p616
aVCOCOON-1740
p617
aVCOCOON-1739
p618
aVCOCOON-1738
p619
aVCOCOON-1737
p620
aVCOCOON-1736
p621
aVCOCOON-1735
p622
aVCOCOON-1734
p623
aVCOCOON-1733
p624
aVCOCOON-1732
p625
aVCOCOON-1731
p626
aVCOCOON-1730
p627
aVCOCOON-1729
p628
aVCOCOON-1728
p629
aVCOCOON-1727
p630
aVCOCOON-1726
p631
aVCOCOON-1725
p632
aVCOCOON-1724
p633
aVCOCOON-1723
p634
aVCOCOON-1721
p635
aVCOCOON-1720
p636
aVCOCOON-1719
p637
aVCOCOON-1718
p638
aVCOCOON-1717
p639
aVCOCOON-1716
p640
aVCOCOON-1715
p641
aVCOCOON-1714
p642
aVCOCOON-1713
p643
aVCOCOON-1712
p644
aVCOCOON-1711
p645
aVCOCOON-1710
p646
aVCOCOON-1709
p647
aVCOCOON-1708
p648
aVCOCOON-1707
p649
aVCOCOON-1706
p650
aVCOCOON-1705
p651
aVCOCOON-1704
p652
aVCOCOON-1703
p653
aVCOCOON-1702
p654
aVCOCOON-1701
p655
aVCOCOON-1700
p656
aVCOCOON-1699
p657
aVCOCOON-1698
p658
aVCOCOON-1697
p659
aVCOCOON-1696
p660
aVCOCOON-1695
p661
aVCOCOON-1694
p662
aVCOCOON-1693
p663
aVCOCOON-1692
p664
aVCOCOON-1691
p665
aVCOCOON-1690
p666
aVCOCOON-1689
p667
aVCOCOON-1688
p668
aVCOCOON-1687
p669
aVCOCOON-1686
p670
aVCOCOON-1685
p671
aVCOCOON-1684
p672
aVCOCOON-1683
p673
aVCOCOON-1682
p674
aVCOCOON-1681
p675
aVCOCOON-1680
p676
aVCOCOON-1679
p677
aVCOCOON-1678
p678
aVCOCOON-1677
p679
aVCOCOON-1676
p680
aVCOCOON-1675
p681
aVCOCOON-1674
p682
aVCOCOON-1673
p683
aVCOCOON-1672
p684
aVCOCOON-1671
p685
aVCOCOON-1670
p686
aVCOCOON-1669
p687
aVCOCOON-1668
p688
aVCOCOON-1667
p689
aVCOCOON-1666
p690
aVCOCOON-1665
p691
aVCOCOON-1664
p692
aVCOCOON-1662
p693
aVCOCOON-1661
p694
aVCOCOON-1660
p695
aVCOCOON-1659
p696
aVCOCOON-1658
p697
aVCOCOON-1657
p698
aVCOCOON-1656
p699
aVCOCOON-1655
p700
aVCOCOON-1654
p701
aVCOCOON-1653
p702
aVCOCOON-1652
p703
aVCOCOON-1651
p704
aVCOCOON-1650
p705
aVCOCOON-1649
p706
aVCOCOON-1648
p707
aVCOCOON-1647
p708
aVCOCOON-1646
p709
aVCOCOON-1645
p710
aVCOCOON-1644
p711
aVCOCOON-1643
p712
aVCOCOON-1642
p713
aVCOCOON-1641
p714
aVCOCOON-1640
p715
aVCOCOON-1639
p716
aVCOCOON-1638
p717
aVCOCOON-1637
p718
aVCOCOON-1636
p719
aVCOCOON-1635
p720
aVCOCOON-1634
p721
aVCOCOON-1633
p722
aVCOCOON-1632
p723
aVCOCOON-1631
p724
aVCOCOON-1630
p725
aVCOCOON-1629
p726
aVCOCOON-1628
p727
aVCOCOON-1627
p728
aVCOCOON-1626
p729
aVCOCOON-1625
p730
aVCOCOON-1624
p731
aVCOCOON-1623
p732
aVCOCOON-1622
p733
aVCOCOON-1621
p734
aVCOCOON-1620
p735
aVCOCOON-1619
p736
aVCOCOON-1618
p737
aVCOCOON-1617
p738
aVCOCOON-1616
p739
aVCOCOON-1615
p740
aVCOCOON-1614
p741
aVCOCOON-1613
p742
aVCOCOON-1612
p743
aVCOCOON-1611
p744
aVCOCOON-1610
p745
aVCOCOON-1609
p746
aVCOCOON-1608
p747
aVCOCOON-1607
p748
aVCOCOON-1606
p749
aVCOCOON-1605
p750
aVCOCOON-1604
p751
aVCOCOON-1603
p752
aVCOCOON-1602
p753
aVCOCOON-1601
p754
aVCOCOON-1600
p755
aVCOCOON-1599
p756
aVCOCOON-1598
p757
aVCOCOON-1597
p758
aVCOCOON-1596
p759
aVCOCOON-1595
p760
aVCOCOON-1594
p761
aVCOCOON-1593
p762
aVCOCOON-1592
p763
aVCOCOON-1591
p764
aVCOCOON-1590
p765
aVCOCOON-1589
p766
aVCOCOON-1588
p767
aVCOCOON-1587
p768
aVCOCOON-1586
p769
aVCOCOON-1585
p770
aVCOCOON-1584
p771
aVCOCOON-1583
p772
aVCOCOON-1582
p773
aVCOCOON-1581
p774
aVCOCOON-1580
p775
aVCOCOON-1579
p776
aVCOCOON-1578
p777
aVCOCOON-1577
p778
aVCOCOON-1576
p779
aVCOCOON-1575
p780
aVCOCOON-1574
p781
aVCOCOON-1573
p782
aVCOCOON-1572
p783
aVCOCOON-1571
p784
aVCOCOON-1570
p785
aVCOCOON-1569
p786
aVCOCOON-1568
p787
aVCOCOON-1567
p788
aVCOCOON-1566
p789
aVCOCOON-1565
p790
aVCOCOON-1564
p791
aVCOCOON-1563
p792
aVCOCOON-1562
p793
aVCOCOON-1561
p794
aVCOCOON-1560
p795
aVCOCOON-1559
p796
aVCOCOON-1558
p797
aVCOCOON-1557
p798
aVCOCOON-1556
p799
aVCOCOON-1555
p800
aVCOCOON-1554
p801
aVCOCOON-1553
p802
aVCOCOON-1552
p803
aVCOCOON-1551
p804
aVCOCOON-1550
p805
aVCOCOON-1549
p806
aVCOCOON-1548
p807
aVCOCOON-1547
p808
aVCOCOON-1546
p809
aVCOCOON-1545
p810
aVCOCOON-1544
p811
aVCOCOON-1543
p812
aVCOCOON-1542
p813
aVCOCOON-1541
p814
aVCOCOON-1540
p815
aVCOCOON-1539
p816
aVCOCOON-1538
p817
aVCOCOON-1537
p818
aVCOCOON-1536
p819
aVCOCOON-1535
p820
aVCOCOON-1534
p821
aVCOCOON-1533
p822
aVCOCOON-1532
p823
aVCOCOON-1531
p824
aVCOCOON-1530
p825
aVCOCOON-1529
p826
aVCOCOON-1528
p827
aVCOCOON-1527
p828
aVCOCOON-1526
p829
aVCOCOON-1525
p830
aVCOCOON-1524
p831
aVCOCOON-1523
p832
aVCOCOON-1522
p833
aVCOCOON-1521
p834
aVCOCOON-1520
p835
aVCOCOON-1519
p836
aVCOCOON-1518
p837
aVCOCOON-1517
p838
aVCOCOON-1516
p839
aVCOCOON-1515
p840
aVCOCOON-1514
p841
aVCOCOON-1513
p842
aVCOCOON-1512
p843
aVCOCOON-1511
p844
aVCOCOON-1510
p845
aVCOCOON-1509
p846
aVCOCOON-1508
p847
aVCOCOON-1507
p848
aVCOCOON-1506
p849
aVCOCOON-1505
p850
aVCOCOON-1504
p851
aVCOCOON-1503
p852
aVCOCOON-1502
p853
aVCOCOON-1501
p854
aVCOCOON-1500
p855
aVCOCOON-1499
p856
aVCOCOON-1498
p857
aVCOCOON-1497
p858
aVCOCOON-1496
p859
aVCOCOON-1495
p860
aVCOCOON-1494
p861
aVCOCOON-1493
p862
aVCOCOON-1492
p863
aVCOCOON-1491
p864
aVCOCOON-1490
p865
aVCOCOON-1489
p866
aVCOCOON-1488
p867
aVCOCOON-1487
p868
aVCOCOON-1486
p869
aVCOCOON-1485
p870
aVCOCOON-1484
p871
aVCOCOON-1483
p872
aVCOCOON-1482
p873
aVCOCOON-1481
p874
aVCOCOON-1480
p875
aVCOCOON-1479
p876
aVCOCOON-1478
p877
aVCOCOON-1477
p878
aVCOCOON-1476
p879
aVCOCOON-1475
p880
aVCOCOON-1474
p881
aVCOCOON-1473
p882
aVCOCOON-1472
p883
aVCOCOON-1471
p884
aVCOCOON-1470
p885
aVCOCOON-1469
p886
aVCOCOON-1468
p887
aVCOCOON-1467
p888
aVCOCOON-1466
p889
aVCOCOON-1465
p890
aVCOCOON-1464
p891
aVCOCOON-1463
p892
aVCOCOON-1462
p893
aVCOCOON-1461
p894
aVCOCOON-1460
p895
aVCOCOON-1459
p896
aVCOCOON-1458
p897
aVCOCOON-1457
p898
aVCOCOON-1456
p899
aVCOCOON-1455
p900
aVCOCOON-1454
p901
aVCOCOON-1453
p902
aVCOCOON-1452
p903
aVCOCOON-1451
p904
aVCOCOON-1450
p905
aVCOCOON-1449
p906
aVCOCOON-1448
p907
aVCOCOON-1447
p908
aVCOCOON-1446
p909
aVCOCOON-1445
p910
aVCOCOON-1444
p911
aVCOCOON-1443
p912
aVCOCOON-1442
p913
aVCOCOON-1441
p914
aVCOCOON-1440
p915
aVCOCOON-1439
p916
aVCOCOON-1438
p917
aVCOCOON-1437
p918
aVCOCOON-1436
p919
aVCOCOON-1435
p920
aVCOCOON-1434
p921
aVCOCOON-1433
p922
aVCOCOON-1432
p923
aVCOCOON-1431
p924
aVCOCOON-1430
p925
aVCOCOON-1429
p926
aVCOCOON-1428
p927
aVCOCOON-1427
p928
aVCOCOON-1426
p929
aVCOCOON-1425
p930
aVCOCOON-1424
p931
aVCOCOON-1423
p932
aVCOCOON-1422
p933
aVCOCOON-1421
p934
aVCOCOON-1420
p935
aVCOCOON-1419
p936
aVCOCOON-1418
p937
aVCOCOON-1417
p938
aVCOCOON-1416
p939
aVCOCOON-1415
p940
aVCOCOON-1414
p941
aVCOCOON-1413
p942
aVCOCOON-1412
p943
aVCOCOON-1411
p944
aVCOCOON-1410
p945
aVCOCOON-1409
p946
aVCOCOON-1408
p947
aVCOCOON-1407
p948
aVCOCOON-1406
p949
aVCOCOON-1405
p950
aVCOCOON-1404
p951
aVCOCOON-1403
p952
aVCOCOON-1402
p953
aVCOCOON-1401
p954
aVCOCOON-1400
p955
aVCOCOON-1399
p956
aVCOCOON-1398
p957
aVCOCOON-1397
p958
aVCOCOON-1396
p959
aVCOCOON-1395
p960
aVCOCOON-1394
p961
aVCOCOON-1393
p962
aVCOCOON-1392
p963
aVCOCOON-1391
p964
aVCOCOON-1390
p965
aVCOCOON-1389
p966
aVCOCOON-1388
p967
aVCOCOON-1387
p968
aVCOCOON-1386
p969
aVCOCOON-1385
p970
aVCOCOON-1384
p971
aVCOCOON-1383
p972
aVCOCOON-1382
p973
aVCOCOON-1381
p974
aVCOCOON-1380
p975
aVCOCOON-1379
p976
aVCOCOON-1378
p977
aVCOCOON-1377
p978
aVCOCOON-1376
p979
aVCOCOON-1375
p980
aVCOCOON-1374
p981
aVCOCOON-1373
p982
aVCOCOON-1372
p983
aVCOCOON-1371
p984
aVCOCOON-1370
p985
aVCOCOON-1369
p986
aVCOCOON-1368
p987
aVCOCOON-1367
p988
aVCOCOON-1366
p989
aVCOCOON-1365
p990
aVCOCOON-1364
p991
aVCOCOON-1363
p992
aVCOCOON-1362
p993
aVCOCOON-1361
p994
aVCOCOON-1360
p995
aVCOCOON-1359
p996
aVCOCOON-1358
p997
aVCOCOON-1357
p998
aVCOCOON-1356
p999
aVCOCOON-1355
p1000
aVCOCOON-1354
p1001
aVCOCOON-1353
p1002
aVCOCOON-1352
p1003
aVCOCOON-1351
p1004
aVCOCOON-1350
p1005
aVCOCOON-1349
p1006
aVCOCOON-1348
p1007
aVCOCOON-1347
p1008
aVCOCOON-1346
p1009
aVCOCOON-1345
p1010
aVCOCOON-1344
p1011
aVCOCOON-1343
p1012
aVCOCOON-1342
p1013
aVCOCOON-1341
p1014
aVCOCOON-1340
p1015
aVCOCOON-1339
p1016
aVCOCOON-1338
p1017
aVCOCOON-1337
p1018
aVCOCOON-1336
p1019
aVCOCOON-1335
p1020
aVCOCOON-1334
p1021
aVCOCOON-1333
p1022
aVCOCOON-1332
p1023
aVCOCOON-1331
p1024
aVCOCOON-1330
p1025
aVCOCOON-1329
p1026
aVCOCOON-1328
p1027
aVCOCOON-1327
p1028
aVCOCOON-1326
p1029
aVCOCOON-1325
p1030
aVCOCOON-1324
p1031
aVCOCOON-1323
p1032
aVCOCOON-1322
p1033
aVCOCOON-1321
p1034
aVCOCOON-1320
p1035
aVCOCOON-1319
p1036
aVCOCOON-1318
p1037
aVCOCOON-1317
p1038
aVCOCOON-1316
p1039
aVCOCOON-1315
p1040
aVCOCOON-1314
p1041
aVCOCOON-1313
p1042
aVCOCOON-1312
p1043
aVCOCOON-1311
p1044
aVCOCOON-1310
p1045
aVCOCOON-1309
p1046
aVCOCOON-1308
p1047
aVCOCOON-1307
p1048
aVCOCOON-1306
p1049
aVCOCOON-1305
p1050
aVCOCOON-1304
p1051
aVCOCOON-1303
p1052
aVCOCOON-1302
p1053
aVCOCOON-1301
p1054
aVCOCOON-1300
p1055
aVCOCOON-1299
p1056
aVCOCOON-1298
p1057
aVCOCOON-1297
p1058
aVCOCOON-1296
p1059
aVCOCOON-1295
p1060
aVCOCOON-1294
p1061
aVCOCOON-1293
p1062
aVCOCOON-1292
p1063
aVCOCOON-1291
p1064
aVCOCOON-1290
p1065
aVCOCOON-1289
p1066
aVCOCOON-1288
p1067
aVCOCOON-1287
p1068
aVCOCOON-1286
p1069
aVCOCOON-1285
p1070
aVCOCOON-1284
p1071
aVCOCOON-1283
p1072
aVCOCOON-1282
p1073
aVCOCOON-1281
p1074
aVCOCOON-1280
p1075
aVCOCOON-1279
p1076
aVCOCOON-1278
p1077
aVCOCOON-1277
p1078
aVCOCOON-1276
p1079
aVCOCOON-1275
p1080
aVCOCOON-1274
p1081
aVCOCOON-1273
p1082
aVCOCOON-1272
p1083
aVCOCOON-1271
p1084
aVCOCOON-1270
p1085
aVCOCOON-1269
p1086
aVCOCOON-1268
p1087
aVCOCOON-1267
p1088
aVCOCOON-1266
p1089
aVCOCOON-1265
p1090
aVCOCOON-1264
p1091
aVCOCOON-1263
p1092
aVCOCOON-1262
p1093
aVCOCOON-1261
p1094
aVCOCOON-1260
p1095
aVCOCOON-1259
p1096
aVCOCOON-1258
p1097
aVCOCOON-1257
p1098
aVCOCOON-1256
p1099
aVCOCOON-1255
p1100
aVCOCOON-1254
p1101
aVCOCOON-1253
p1102
aVCOCOON-1252
p1103
aVCOCOON-1251
p1104
aVCOCOON-1250
p1105
aVCOCOON-1249
p1106
aVCOCOON-1248
p1107
aVCOCOON-1247
p1108
aVCOCOON-1246
p1109
aVCOCOON-1245
p1110
aVCOCOON-1244
p1111
aVCOCOON-1243
p1112
aVCOCOON-1242
p1113
aVCOCOON-1241
p1114
aVCOCOON-1240
p1115
aVCOCOON-1239
p1116
aVCOCOON-1238
p1117
aVCOCOON-1237
p1118
aVCOCOON-1236
p1119
aVCOCOON-1235
p1120
aVCOCOON-1234
p1121
aVCOCOON-1233
p1122
aVCOCOON-1232
p1123
aVCOCOON-1231
p1124
aVCOCOON-1230
p1125
aVCOCOON-1229
p1126
aVCOCOON-1228
p1127
aVCOCOON-1227
p1128
aVCOCOON-1226
p1129
aVCOCOON-1225
p1130
aVCOCOON-1224
p1131
aVCOCOON-1223
p1132
aVCOCOON-1222
p1133
aVCOCOON-1221
p1134
aVCOCOON-1220
p1135
aVCOCOON-1219
p1136
aVCOCOON-1218
p1137
aVCOCOON-1217
p1138
aVCOCOON-1216
p1139
aVCOCOON-1215
p1140
aVCOCOON-1214
p1141
aVCOCOON-1213
p1142
aVCOCOON-1212
p1143
aVCOCOON-1211
p1144
aVCOCOON-1210
p1145
aVCOCOON-1209
p1146
aVCOCOON-1208
p1147
aVCOCOON-1207
p1148
aVCOCOON-1206
p1149
aVCOCOON-1205
p1150
aVCOCOON-1204
p1151
aVCOCOON-1203
p1152
aVCOCOON-1202
p1153
aVCOCOON-1201
p1154
aVCOCOON-1200
p1155
aVCOCOON-1199
p1156
aVCOCOON-1198
p1157
aVCOCOON-1197
p1158
aVCOCOON-1196
p1159
aVCOCOON-1195
p1160
aVCOCOON-1194
p1161
aVCOCOON-1193
p1162
aVCOCOON-1192
p1163
aVCOCOON-1191
p1164
aVCOCOON-1190
p1165
aVCOCOON-1189
p1166
aVCOCOON-1188
p1167
aVCOCOON-1187
p1168
aVCOCOON-1186
p1169
aVCOCOON-1185
p1170
aVCOCOON-1184
p1171
aVCOCOON-1183
p1172
aVCOCOON-1182
p1173
aVCOCOON-1181
p1174
aVCOCOON-1180
p1175
aVCOCOON-1179
p1176
aVCOCOON-1178
p1177
aVCOCOON-1177
p1178
aVCOCOON-1176
p1179
aVCOCOON-1175
p1180
aVCOCOON-1174
p1181
aVCOCOON-1173
p1182
aVCOCOON-1172
p1183
aVCOCOON-1171
p1184
aVCOCOON-1170
p1185
aVCOCOON-1169
p1186
aVCOCOON-1168
p1187
aVCOCOON-1167
p1188
aVCOCOON-1166
p1189
aVCOCOON-1165
p1190
aVCOCOON-1164
p1191
aVCOCOON-1163
p1192
aVCOCOON-1162
p1193
aVCOCOON-1161
p1194
aVCOCOON-1160
p1195
aVCOCOON-1159
p1196
aVCOCOON-1158
p1197
aVCOCOON-1157
p1198
aVCOCOON-1156
p1199
aVCOCOON-1155
p1200
aVCOCOON-1154
p1201
aVCOCOON-1153
p1202
aVCOCOON-1152
p1203
aVCOCOON-1151
p1204
aVCOCOON-1150
p1205
aVCOCOON-1149
p1206
aVCOCOON-1148
p1207
aVCOCOON-1147
p1208
aVCOCOON-1146
p1209
aVCOCOON-1145
p1210
aVCOCOON-1144
p1211
aVCOCOON-1143
p1212
aVCOCOON-1142
p1213
aVCOCOON-1141
p1214
aVCOCOON-1140
p1215
aVCOCOON-1139
p1216
aVCOCOON-1138
p1217
aVCOCOON-1137
p1218
aVCOCOON-1136
p1219
aVCOCOON-1135
p1220
aVCOCOON-1134
p1221
aVCOCOON-1133
p1222
aVCOCOON-1132
p1223
aVCOCOON-1131
p1224
aVCOCOON-1130
p1225
aVCOCOON-1129
p1226
aVCOCOON-1128
p1227
aVCOCOON-1127
p1228
aVCOCOON-1126
p1229
aVCOCOON-1125
p1230
aVCOCOON-1124
p1231
aVCOCOON-1123
p1232
aVCOCOON-1122
p1233
aVCOCOON-1121
p1234
aVCOCOON-1120
p1235
aVCOCOON-1119
p1236
aVCOCOON-1118
p1237
aVCOCOON-1117
p1238
aVCOCOON-1116
p1239
aVCOCOON-1115
p1240
aVCOCOON-1114
p1241
aVCOCOON-1113
p1242
aVCOCOON-1112
p1243
aVCOCOON-1111
p1244
aVCOCOON-1110
p1245
aVCOCOON-1109
p1246
aVCOCOON-1108
p1247
aVCOCOON-1107
p1248
aVCOCOON-1106
p1249
aVCOCOON-1105
p1250
aVCOCOON-1104
p1251
aVCOCOON-1103
p1252
aVCOCOON-1102
p1253
aVCOCOON-1101
p1254
aVCOCOON-1100
p1255
aVCOCOON-1099
p1256
aVCOCOON-1098
p1257
aVCOCOON-1097
p1258
aVCOCOON-1096
p1259
aVCOCOON-1095
p1260
aVCOCOON-1094
p1261
aVCOCOON-1093
p1262
aVCOCOON-1092
p1263
aVCOCOON-1091
p1264
aVCOCOON-1090
p1265
aVCOCOON-1089
p1266
aVCOCOON-1088
p1267
aVCOCOON-1087
p1268
aVCOCOON-1086
p1269
aVCOCOON-1085
p1270
aVCOCOON-1084
p1271
aVCOCOON-1083
p1272
aVCOCOON-1082
p1273
aVCOCOON-1081
p1274
aVCOCOON-1080
p1275
aVCOCOON-1079
p1276
aVCOCOON-1078
p1277
aVCOCOON-1077
p1278
aVCOCOON-1076
p1279
aVCOCOON-1075
p1280
aVCOCOON-1074
p1281
aVCOCOON-1073
p1282
aVCOCOON-1072
p1283
aVCOCOON-1071
p1284
aVCOCOON-1070
p1285
aVCOCOON-1069
p1286
aVCOCOON-1068
p1287
aVCOCOON-1067
p1288
aVCOCOON-1066
p1289
aVCOCOON-1065
p1290
aVCOCOON-1064
p1291
aVCOCOON-1063
p1292
aVCOCOON-1062
p1293
aVCOCOON-1061
p1294
aVCOCOON-1060
p1295
aVCOCOON-1059
p1296
aVCOCOON-1058
p1297
aVCOCOON-1057
p1298
aVCOCOON-1056
p1299
aVCOCOON-1055
p1300
aVCOCOON-1054
p1301
aVCOCOON-1053
p1302
aVCOCOON-1052
p1303
aVCOCOON-1051
p1304
aVCOCOON-1050
p1305
aVCOCOON-1049
p1306
aVCOCOON-1048
p1307
aVCOCOON-1047
p1308
aVCOCOON-1046
p1309
aVCOCOON-1045
p1310
aVCOCOON-1044
p1311
aVCOCOON-1043
p1312
aVCOCOON-1042
p1313
aVCOCOON-1041
p1314
aVCOCOON-1040
p1315
aVCOCOON-1039
p1316
aVCOCOON-1038
p1317
aVCOCOON-1037
p1318
aVCOCOON-1036
p1319
aVCOCOON-1035
p1320
aVCOCOON-1034
p1321
aVCOCOON-1033
p1322
aVCOCOON-1032
p1323
aVCOCOON-1031
p1324
aVCOCOON-1030
p1325
aVCOCOON-1029
p1326
aVCOCOON-1028
p1327
aVCOCOON-1027
p1328
aVCOCOON-1026
p1329
aVCOCOON-1025
p1330
aVCOCOON-1024
p1331
aVCOCOON-1023
p1332
aVCOCOON-1022
p1333
aVCOCOON-1021
p1334
aVCOCOON-1020
p1335
aVCOCOON-1019
p1336
aVCOCOON-1018
p1337
aVCOCOON-1017
p1338
aVCOCOON-1016
p1339
aVCOCOON-1015
p1340
aVCOCOON-1014
p1341
aVCOCOON-1013
p1342
aVCOCOON-1012
p1343
aVCOCOON-1011
p1344
aVCOCOON-1010
p1345
aVCOCOON-1009
p1346
aVCOCOON-1008
p1347
aVCOCOON-1007
p1348
aVCOCOON-1006
p1349
aVCOCOON-1005
p1350
aVCOCOON-1004
p1351
aVCOCOON-1003
p1352
aVCOCOON-1002
p1353
aVCOCOON-1001
p1354
aVCOCOON-1000
p1355
aVCOCOON-999
p1356
aVCOCOON-998
p1357
aVCOCOON-997
p1358
aVCOCOON-996
p1359
aVCOCOON-995
p1360
aVCOCOON-994
p1361
aVCOCOON-993
p1362
aVCOCOON-992
p1363
aVCOCOON-991
p1364
aVCOCOON-990
p1365
aVCOCOON-989
p1366
aVCOCOON-988
p1367
aVCOCOON-987
p1368
aVCOCOON-986
p1369
aVCOCOON-985
p1370
aVCOCOON-984
p1371
aVCOCOON-983
p1372
aVCOCOON-982
p1373
aVCOCOON-981
p1374
aVCOCOON-980
p1375
aVCOCOON-979
p1376
aVCOCOON-978
p1377
aVCOCOON-977
p1378
aVCOCOON-976
p1379
aVCOCOON-975
p1380
aVCOCOON-974
p1381
aVCOCOON-973
p1382
aVCOCOON-972
p1383
aVCOCOON-971
p1384
aVCOCOON-970
p1385
aVCOCOON-969
p1386
aVCOCOON-968
p1387
aVCOCOON-967
p1388
aVCOCOON-966
p1389
aVCOCOON-965
p1390
aVCOCOON-964
p1391
aVCOCOON-963
p1392
aVCOCOON-962
p1393
aVCOCOON-961
p1394
aVCOCOON-960
p1395
aVCOCOON-959
p1396
aVCOCOON-958
p1397
aVCOCOON-957
p1398
aVCOCOON-956
p1399
aVCOCOON-955
p1400
aVCOCOON-954
p1401
aVCOCOON-953
p1402
aVCOCOON-952
p1403
aVCOCOON-951
p1404
aVCOCOON-950
p1405
aVCOCOON-949
p1406
aVCOCOON-948
p1407
aVCOCOON-947
p1408
aVCOCOON-946
p1409
aVCOCOON-945
p1410
aVCOCOON-944
p1411
aVCOCOON-943
p1412
aVCOCOON-942
p1413
aVCOCOON-941
p1414
aVCOCOON-940
p1415
aVCOCOON-939
p1416
aVCOCOON-938
p1417
aVCOCOON-937
p1418
aVCOCOON-936
p1419
aVCOCOON-935
p1420
aVCOCOON-934
p1421
aVCOCOON-933
p1422
aVCOCOON-932
p1423
aVCOCOON-931
p1424
aVCOCOON-930
p1425
aVCOCOON-929
p1426
aVCOCOON-928
p1427
aVCOCOON-927
p1428
aVCOCOON-926
p1429
aVCOCOON-925
p1430
aVCOCOON-924
p1431
aVCOCOON-923
p1432
aVCOCOON-922
p1433
aVCOCOON-921
p1434
aVCOCOON-920
p1435
aVCOCOON-919
p1436
aVCOCOON-918
p1437
aVCOCOON-917
p1438
aVCOCOON-916
p1439
aVCOCOON-915
p1440
aVCOCOON-914
p1441
aVCOCOON-913
p1442
aVCOCOON-912
p1443
aVCOCOON-911
p1444
aVCOCOON-910
p1445
aVCOCOON-909
p1446
aVCOCOON-908
p1447
aVCOCOON-907
p1448
aVCOCOON-906
p1449
aVCOCOON-905
p1450
aVCOCOON-904
p1451
aVCOCOON-903
p1452
aVCOCOON-902
p1453
aVCOCOON-901
p1454
aVCOCOON-900
p1455
aVCOCOON-899
p1456
aVCOCOON-898
p1457
aVCOCOON-897
p1458
aVCOCOON-896
p1459
aVCOCOON-895
p1460
aVCOCOON-894
p1461
aVCOCOON-893
p1462
aVCOCOON-892
p1463
aVCOCOON-891
p1464
aVCOCOON-890
p1465
aVCOCOON-889
p1466
aVCOCOON-888
p1467
aVCOCOON-887
p1468
aVCOCOON-886
p1469
aVCOCOON-885
p1470
aVCOCOON-884
p1471
aVCOCOON-883
p1472
aVCOCOON-882
p1473
aVCOCOON-881
p1474
aVCOCOON-880
p1475
aVCOCOON-879
p1476
aVCOCOON-878
p1477
aVCOCOON-877
p1478
aVCOCOON-876
p1479
aVCOCOON-875
p1480
aVCOCOON-874
p1481
aVCOCOON-873
p1482
aVCOCOON-872
p1483
aVCOCOON-871
p1484
aVCOCOON-870
p1485
aVCOCOON-869
p1486
aVCOCOON-868
p1487
aVCOCOON-867
p1488
aVCOCOON-866
p1489
aVCOCOON-865
p1490
aVCOCOON-864
p1491
aVCOCOON-863
p1492
aVCOCOON-862
p1493
aVCOCOON-861
p1494
aVCOCOON-860
p1495
aVCOCOON-859
p1496
aVCOCOON-858
p1497
aVCOCOON-857
p1498
aVCOCOON-856
p1499
aVCOCOON-855
p1500
aVCOCOON-854
p1501
aVCOCOON-853
p1502
aVCOCOON-852
p1503
aVCOCOON-851
p1504
aVCOCOON-850
p1505
aVCOCOON-849
p1506
aVCOCOON-848
p1507
aVCOCOON-847
p1508
aVCOCOON-846
p1509
aVCOCOON-845
p1510
aVCOCOON-844
p1511
aVCOCOON-843
p1512
aVCOCOON-842
p1513
aVCOCOON-841
p1514
aVCOCOON-840
p1515
aVCOCOON-839
p1516
aVCOCOON-838
p1517
aVCOCOON-837
p1518
aVCOCOON-836
p1519
aVCOCOON-835
p1520
aVCOCOON-834
p1521
aVCOCOON-833
p1522
aVCOCOON-832
p1523
aVCOCOON-831
p1524
aVCOCOON-830
p1525
aVCOCOON-829
p1526
aVCOCOON-828
p1527
aVCOCOON-827
p1528
aVCOCOON-826
p1529
aVCOCOON-825
p1530
aVCOCOON-824
p1531
aVCOCOON-823
p1532
aVCOCOON-822
p1533
aVCOCOON-821
p1534
aVCOCOON-820
p1535
aVCOCOON-819
p1536
aVCOCOON-818
p1537
aVCOCOON-817
p1538
aVCOCOON-816
p1539
aVCOCOON-815
p1540
aVCOCOON-814
p1541
aVCOCOON-813
p1542
aVCOCOON-812
p1543
aVCOCOON-811
p1544
aVCOCOON-810
p1545
aVCOCOON-809
p1546
aVCOCOON-808
p1547
aVCOCOON-807
p1548
aVCOCOON-806
p1549
aVCOCOON-805
p1550
aVCOCOON-804
p1551
aVCOCOON-803
p1552
aVCOCOON-802
p1553
aVCOCOON-801
p1554
aVCOCOON-800
p1555
aVCOCOON-799
p1556
aVCOCOON-798
p1557
aVCOCOON-797
p1558
aVCOCOON-796
p1559
aVCOCOON-795
p1560
aVCOCOON-794
p1561
aVCOCOON-793
p1562
aVCOCOON-792
p1563
aVCOCOON-791
p1564
aVCOCOON-790
p1565
aVCOCOON-789
p1566
aVCOCOON-788
p1567
aVCOCOON-787
p1568
aVCOCOON-786
p1569
aVCOCOON-785
p1570
aVCOCOON-784
p1571
aVCOCOON-783
p1572
aVCOCOON-782
p1573
aVCOCOON-781
p1574
aVCOCOON-780
p1575
aVCOCOON-779
p1576
aVCOCOON-778
p1577
aVCOCOON-777
p1578
aVCOCOON-776
p1579
aVCOCOON-775
p1580
aVCOCOON-774
p1581
aVCOCOON-773
p1582
aVCOCOON-772
p1583
aVCOCOON-771
p1584
aVCOCOON-770
p1585
aVCOCOON-769
p1586
aVCOCOON-768
p1587
aVCOCOON-767
p1588
aVCOCOON-766
p1589
aVCOCOON-765
p1590
aVCOCOON-764
p1591
aVCOCOON-763
p1592
aVCOCOON-762
p1593
aVCOCOON-761
p1594
aVCOCOON-760
p1595
aVCOCOON-759
p1596
aVCOCOON-758
p1597
aVCOCOON-757
p1598
aVCOCOON-756
p1599
aVCOCOON-755
p1600
aVCOCOON-754
p1601
aVCOCOON-753
p1602
aVCOCOON-752
p1603
aVCOCOON-751
p1604
aVCOCOON-750
p1605
aVCOCOON-749
p1606
aVCOCOON-748
p1607
aVCOCOON-747
p1608
aVCOCOON-746
p1609
aVCOCOON-745
p1610
aVCOCOON-744
p1611
aVCOCOON-743
p1612
aVCOCOON-742
p1613
aVCOCOON-741
p1614
aVCOCOON-740
p1615
aVCOCOON-739
p1616
aVCOCOON-738
p1617
aVCOCOON-737
p1618
aVCOCOON-736
p1619
aVCOCOON-735
p1620
aVCOCOON-734
p1621
aVCOCOON-733
p1622
aVCOCOON-732
p1623
aVCOCOON-731
p1624
aVCOCOON-730
p1625
aVCOCOON-729
p1626
aVCOCOON-728
p1627
aVCOCOON-727
p1628
aVCOCOON-726
p1629
aVCOCOON-725
p1630
aVCOCOON-724
p1631
aVCOCOON-723
p1632
aVCOCOON-722
p1633
aVCOCOON-721
p1634
aVCOCOON-720
p1635
aVCOCOON-719
p1636
aVCOCOON-718
p1637
aVCOCOON-717
p1638
aVCOCOON-716
p1639
aVCOCOON-715
p1640
aVCOCOON-714
p1641
aVCOCOON-713
p1642
aVCOCOON-712
p1643
aVCOCOON-711
p1644
aVCOCOON-710
p1645
aVCOCOON-709
p1646
aVCOCOON-708
p1647
aVCOCOON-707
p1648
aVCOCOON-706
p1649
aVCOCOON-705
p1650
aVCOCOON-704
p1651
aVCOCOON-703
p1652
aVCOCOON-702
p1653
aVCOCOON-701
p1654
aVCOCOON-700
p1655
aVCOCOON-699
p1656
aVCOCOON-698
p1657
aVCOCOON-697
p1658
aVCOCOON-696
p1659
aVCOCOON-695
p1660
aVCOCOON-694
p1661
aVCOCOON-693
p1662
aVCOCOON-692
p1663
aVCOCOON-691
p1664
aVCOCOON-690
p1665
aVCOCOON-689
p1666
aVCOCOON-688
p1667
aVCOCOON-687
p1668
aVCOCOON-686
p1669
aVCOCOON-685
p1670
aVCOCOON-684
p1671
aVCOCOON-683
p1672
aVCOCOON-682
p1673
aVCOCOON-681
p1674
aVCOCOON-680
p1675
aVCOCOON-679
p1676
aVCOCOON-678
p1677
aVCOCOON-677
p1678
aVCOCOON-676
p1679
aVCOCOON-675
p1680
aVCOCOON-674
p1681
aVCOCOON-673
p1682
aVCOCOON-672
p1683
aVCOCOON-671
p1684
aVCOCOON-670
p1685
aVCOCOON-669
p1686
aVCOCOON-668
p1687
aVCOCOON-667
p1688
aVCOCOON-666
p1689
aVCOCOON-665
p1690
aVCOCOON-664
p1691
aVCOCOON-663
p1692
aVCOCOON-662
p1693
aVCOCOON-661
p1694
aVCOCOON-660
p1695
aVCOCOON-659
p1696
aVCOCOON-658
p1697
aVCOCOON-657
p1698
aVCOCOON-656
p1699
aVCOCOON-655
p1700
aVCOCOON-654
p1701
aVCOCOON-653
p1702
aVCOCOON-652
p1703
aVCOCOON-651
p1704
aVCOCOON-650
p1705
aVCOCOON-649
p1706
aVCOCOON-648
p1707
aVCOCOON-647
p1708
aVCOCOON-646
p1709
aVCOCOON-645
p1710
aVCOCOON-644
p1711
aVCOCOON-643
p1712
aVCOCOON-642
p1713
aVCOCOON-641
p1714
aVCOCOON-640
p1715
aVCOCOON-639
p1716
aVCOCOON-638
p1717
aVCOCOON-637
p1718
aVCOCOON-636
p1719
aVCOCOON-635
p1720
aVCOCOON-634
p1721
aVCOCOON-633
p1722
aVCOCOON-632
p1723
aVCOCOON-631
p1724
aVCOCOON-630
p1725
aVCOCOON-629
p1726
aVCOCOON-628
p1727
aVCOCOON-627
p1728
aVCOCOON-626
p1729
aVCOCOON-625
p1730
aVCOCOON-624
p1731
aVCOCOON-623
p1732
aVCOCOON-622
p1733
aVCOCOON-621
p1734
aVCOCOON-620
p1735
aVCOCOON-619
p1736
aVCOCOON-618
p1737
aVCOCOON-617
p1738
aVCOCOON-616
p1739
aVCOCOON-615
p1740
aVCOCOON-614
p1741
aVCOCOON-613
p1742
aVCOCOON-612
p1743
aVCOCOON-611
p1744
aVCOCOON-610
p1745
aVCOCOON-609
p1746
aVCOCOON-608
p1747
aVCOCOON-607
p1748
aVCOCOON-606
p1749
aVCOCOON-605
p1750
aVCOCOON-604
p1751
aVCOCOON-603
p1752
aVCOCOON-602
p1753
aVCOCOON-601
p1754
aVCOCOON-600
p1755
aVCOCOON-599
p1756
aVCOCOON-598
p1757
aVCOCOON-597
p1758
aVCOCOON-596
p1759
aVCOCOON-595
p1760
aVCOCOON-594
p1761
aVCOCOON-593
p1762
aVCOCOON-592
p1763
aVCOCOON-591
p1764
aVCOCOON-590
p1765
aVCOCOON-589
p1766
aVCOCOON-588
p1767
aVCOCOON-587
p1768
aVCOCOON-586
p1769
aVCOCOON-585
p1770
aVCOCOON-584
p1771
aVCOCOON-583
p1772
aVCOCOON-582
p1773
aVCOCOON-581
p1774
aVCOCOON-580
p1775
aVCOCOON-579
p1776
aVCOCOON-578
p1777
aVCOCOON-577
p1778
aVCOCOON-576
p1779
aVCOCOON-575
p1780
aVCOCOON-574
p1781
aVCOCOON-573
p1782
aVCOCOON-572
p1783
aVCOCOON-571
p1784
aVCOCOON-570
p1785
aVCOCOON-569
p1786
aVCOCOON-568
p1787
aVCOCOON-567
p1788
aVCOCOON-566
p1789
aVCOCOON-565
p1790
aVCOCOON-564
p1791
aVCOCOON-563
p1792
aVCOCOON-562
p1793
aVCOCOON-561
p1794
aVCOCOON-560
p1795
aVCOCOON-559
p1796
aVCOCOON-558
p1797
aVCOCOON-557
p1798
aVCOCOON-556
p1799
aVCOCOON-555
p1800
aVCOCOON-554
p1801
aVCOCOON-553
p1802
aVCOCOON-552
p1803
aVCOCOON-551
p1804
aVCOCOON-550
p1805
aVCOCOON-549
p1806
aVCOCOON-548
p1807
aVCOCOON-547
p1808
aVCOCOON-546
p1809
aVCOCOON-545
p1810
aVCOCOON-544
p1811
aVCOCOON-543
p1812
aVCOCOON-542
p1813
aVCOCOON-541
p1814
aVCOCOON-540
p1815
aVCOCOON-539
p1816
aVCOCOON-538
p1817
aVCOCOON-537
p1818
aVCOCOON-536
p1819
aVCOCOON-535
p1820
aVCOCOON-534
p1821
aVCOCOON-533
p1822
aVCOCOON-532
p1823
aVCOCOON-531
p1824
aVCOCOON-530
p1825
aVCOCOON-529
p1826
aVCOCOON-528
p1827
aVCOCOON-527
p1828
aVCOCOON-526
p1829
aVCOCOON-525
p1830
aVCOCOON-524
p1831
aVCOCOON-523
p1832
aVCOCOON-522
p1833
aVCOCOON-521
p1834
aVCOCOON-520
p1835
aVCOCOON-519
p1836
aVCOCOON-518
p1837
aVCOCOON-517
p1838
aVCOCOON-516
p1839
aVCOCOON-515
p1840
aVCOCOON-514
p1841
aVCOCOON-513
p1842
aVCOCOON-512
p1843
aVCOCOON-511
p1844
aVCOCOON-510
p1845
aVCOCOON-509
p1846
aVCOCOON-508
p1847
aVCOCOON-507
p1848
aVCOCOON-506
p1849
aVCOCOON-505
p1850
aVCOCOON-504
p1851
aVCOCOON-503
p1852
aVCOCOON-502
p1853
aVCOCOON-501
p1854
aVCOCOON-500
p1855
aVCOCOON-499
p1856
aVCOCOON-498
p1857
aVCOCOON-497
p1858
aVCOCOON-496
p1859
aVCOCOON-495
p1860
aVCOCOON-494
p1861
aVCOCOON-493
p1862
aVCOCOON-492
p1863
aVCOCOON-491
p1864
aVCOCOON-490
p1865
aVCOCOON-489
p1866
aVCOCOON-488
p1867
aVCOCOON-487
p1868
aVCOCOON-486
p1869
aVCOCOON-485
p1870
aVCOCOON-484
p1871
aVCOCOON-483
p1872
aVCOCOON-482
p1873
aVCOCOON-481
p1874
aVCOCOON-480
p1875
aVCOCOON-479
p1876
aVCOCOON-478
p1877
aVCOCOON-477
p1878
aVCOCOON-476
p1879
aVCOCOON-475
p1880
aVCOCOON-474
p1881
aVCOCOON-473
p1882
aVCOCOON-472
p1883
aVCOCOON-471
p1884
aVCOCOON-470
p1885
aVCOCOON-469
p1886
aVCOCOON-468
p1887
aVCOCOON-467
p1888
aVCOCOON-466
p1889
aVCOCOON-465
p1890
aVCOCOON-464
p1891
aVCOCOON-463
p1892
aVCOCOON-462
p1893
aVCOCOON-461
p1894
aVCOCOON-460
p1895
aVCOCOON-459
p1896
aVCOCOON-458
p1897
aVCOCOON-457
p1898
aVCOCOON-456
p1899
aVCOCOON-455
p1900
aVCOCOON-454
p1901
aVCOCOON-453
p1902
aVCOCOON-452
p1903
aVCOCOON-451
p1904
aVCOCOON-450
p1905
aVCOCOON-449
p1906
aVCOCOON-448
p1907
aVCOCOON-447
p1908
aVCOCOON-446
p1909
aVCOCOON-445
p1910
aVCOCOON-444
p1911
aVCOCOON-443
p1912
aVCOCOON-442
p1913
aVCOCOON-441
p1914
aVCOCOON-440
p1915
aVCOCOON-439
p1916
aVCOCOON-438
p1917
aVCOCOON-437
p1918
aVCOCOON-436
p1919
aVCOCOON-435
p1920
aVCOCOON-434
p1921
aVCOCOON-433
p1922
aVCOCOON-432
p1923
aVCOCOON-431
p1924
aVCOCOON-430
p1925
aVCOCOON-429
p1926
aVCOCOON-428
p1927
aVCOCOON-427
p1928
aVCOCOON-426
p1929
aVCOCOON-425
p1930
aVCOCOON-424
p1931
aVCOCOON-423
p1932
aVCOCOON-422
p1933
aVCOCOON-421
p1934
aVCOCOON-420
p1935
aVCOCOON-419
p1936
aVCOCOON-418
p1937
aVCOCOON-417
p1938
aVCOCOON-416
p1939
aVCOCOON-415
p1940
aVCOCOON-414
p1941
aVCOCOON-413
p1942
aVCOCOON-412
p1943
aVCOCOON-411
p1944
aVCOCOON-410
p1945
aVCOCOON-409
p1946
aVCOCOON-408
p1947
aVCOCOON-407
p1948
aVCOCOON-406
p1949
aVCOCOON-405
p1950
aVCOCOON-404
p1951
aVCOCOON-403
p1952
aVCOCOON-402
p1953
aVCOCOON-401
p1954
aVCOCOON-400
p1955
aVCOCOON-399
p1956
aVCOCOON-398
p1957
aVCOCOON-397
p1958
aVCOCOON-396
p1959
aVCOCOON-395
p1960
aVCOCOON-394
p1961
aVCOCOON-393
p1962
aVCOCOON-392
p1963
aVCOCOON-391
p1964
aVCOCOON-390
p1965
aVCOCOON-389
p1966
aVCOCOON-388
p1967
aVCOCOON-387
p1968
aVCOCOON-386
p1969
aVCOCOON-385
p1970
aVCOCOON-384
p1971
aVCOCOON-383
p1972
aVCOCOON-382
p1973
aVCOCOON-381
p1974
aVCOCOON-380
p1975
aVCOCOON-379
p1976
aVCOCOON-378
p1977
aVCOCOON-377
p1978
aVCOCOON-376
p1979
aVCOCOON-375
p1980
aVCOCOON-374
p1981
aVCOCOON-373
p1982
aVCOCOON-372
p1983
aVCOCOON-371
p1984
aVCOCOON-370
p1985
aVCOCOON-369
p1986
aVCOCOON-368
p1987
aVCOCOON-367
p1988
aVCOCOON-366
p1989
aVCOCOON-365
p1990
aVCOCOON-364
p1991
aVCOCOON-363
p1992
aVCOCOON-362
p1993
aVCOCOON-361
p1994
aVCOCOON-360
p1995
aVCOCOON-359
p1996
aVCOCOON-358
p1997
aVCOCOON-357
p1998
aVCOCOON-356
p1999
aVCOCOON-355
p2000
aVCOCOON-354
p2001
aVCOCOON-353
p2002
aVCOCOON-352
p2003
aVCOCOON-351
p2004
aVCOCOON-350
p2005
aVCOCOON-349
p2006
aVCOCOON-348
p2007
aVCOCOON-347
p2008
aVCOCOON-346
p2009
aVCOCOON-345
p2010
aVCOCOON-344
p2011
aVCOCOON-343
p2012
aVCOCOON-342
p2013
aVCOCOON-341
p2014
aVCOCOON-340
p2015
aVCOCOON-339
p2016
aVCOCOON-338
p2017
aVCOCOON-337
p2018
aVCOCOON-336
p2019
aVCOCOON-335
p2020
aVCOCOON-334
p2021
aVCOCOON-333
p2022
aVCOCOON-332
p2023
aVCOCOON-331
p2024
aVCOCOON-330
p2025
aVCOCOON-329
p2026
aVCOCOON-328
p2027
aVCOCOON-327
p2028
aVCOCOON-326
p2029
aVCOCOON-325
p2030
aVCOCOON-324
p2031
aVCOCOON-323
p2032
aVCOCOON-322
p2033
aVCOCOON-321
p2034
aVCOCOON-320
p2035
aVCOCOON-319
p2036
aVCOCOON-318
p2037
aVCOCOON-317
p2038
aVCOCOON-316
p2039
aVCOCOON-315
p2040
aVCOCOON-314
p2041
aVCOCOON-313
p2042
aVCOCOON-312
p2043
aVCOCOON-311
p2044
aVCOCOON-310
p2045
aVCOCOON-309
p2046
aVCOCOON-308
p2047
aVCOCOON-307
p2048
aVCOCOON-306
p2049
aVCOCOON-305
p2050
aVCOCOON-304
p2051
aVCOCOON-303
p2052
aVCOCOON-302
p2053
aVCOCOON-301
p2054
aVCOCOON-300
p2055
aVCOCOON-299
p2056
aVCOCOON-298
p2057
aVCOCOON-297
p2058
aVCOCOON-296
p2059
aVCOCOON-295
p2060
aVCOCOON-294
p2061
aVCOCOON-293
p2062
aVCOCOON-292
p2063
aVCOCOON-291
p2064
aVCOCOON-290
p2065
aVCOCOON-289
p2066
aVCOCOON-288
p2067
aVCOCOON-287
p2068
aVCOCOON-286
p2069
aVCOCOON-285
p2070
aVCOCOON-284
p2071
aVCOCOON-283
p2072
aVCOCOON-282
p2073
aVCOCOON-281
p2074
aVCOCOON-280
p2075
aVCOCOON-279
p2076
aVCOCOON-278
p2077
aVCOCOON-277
p2078
aVCOCOON-276
p2079
aVCOCOON-275
p2080
aVCOCOON-274
p2081
aVCOCOON-273
p2082
aVCOCOON-272
p2083
aVCOCOON-271
p2084
aVCOCOON-270
p2085
aVCOCOON-269
p2086
aVCOCOON-268
p2087
aVCOCOON-267
p2088
aVCOCOON-266
p2089
aVCOCOON-265
p2090
aVCOCOON-264
p2091
aVCOCOON-263
p2092
aVCOCOON-262
p2093
aVCOCOON-261
p2094
aVCOCOON-260
p2095
aVCOCOON-259
p2096
aVCOCOON-258
p2097
aVCOCOON-257
p2098
aVCOCOON-256
p2099
aVCOCOON-255
p2100
aVCOCOON-254
p2101
aVCOCOON-253
p2102
aVCOCOON-252
p2103
aVCOCOON-251
p2104
aVCOCOON-250
p2105
aVCOCOON-249
p2106
aVCOCOON-248
p2107
aVCOCOON-247
p2108
aVCOCOON-246
p2109
aVCOCOON-245
p2110
aVCOCOON-244
p2111
aVCOCOON-243
p2112
aVCOCOON-242
p2113
aVCOCOON-241
p2114
aVCOCOON-240
p2115
aVCOCOON-239
p2116
aVCOCOON-238
p2117
aVCOCOON-237
p2118
aVCOCOON-236
p2119
aVCOCOON-235
p2120
aVCOCOON-234
p2121
aVCOCOON-233
p2122
aVCOCOON-232
p2123
aVCOCOON-231
p2124
aVCOCOON-230
p2125
aVCOCOON-229
p2126
aVCOCOON-228
p2127
aVCOCOON-227
p2128
aVCOCOON-226
p2129
aVCOCOON-225
p2130
aVCOCOON-224
p2131
aVCOCOON-223
p2132
aVCOCOON-222
p2133
aVCOCOON-221
p2134
aVCOCOON-220
p2135
aVCOCOON-219
p2136
aVCOCOON-218
p2137
aVCOCOON-217
p2138
aVCOCOON-216
p2139
aVCOCOON-215
p2140
aVCOCOON-214
p2141
aVCOCOON-213
p2142
aVCOCOON-212
p2143
aVCOCOON-211
p2144
aVCOCOON-210
p2145
aVCOCOON-209
p2146
aVCOCOON-208
p2147
aVCOCOON-207
p2148
aVCOCOON-206
p2149
aVCOCOON-205
p2150
aVCOCOON-204
p2151
aVCOCOON-203
p2152
aVCOCOON-202
p2153
aVCOCOON-201
p2154
aVCOCOON-200
p2155
aVCOCOON-199
p2156
aVCOCOON-198
p2157
aVCOCOON-197
p2158
aVCOCOON-196
p2159
aVCOCOON-195
p2160
aVCOCOON-194
p2161
aVCOCOON-193
p2162
aVCOCOON-192
p2163
aVCOCOON-191
p2164
aVCOCOON-190
p2165
aVCOCOON-189
p2166
aVCOCOON-188
p2167
aVCOCOON-187
p2168
aVCOCOON-186
p2169
aVCOCOON-185
p2170
aVCOCOON-184
p2171
aVCOCOON-183
p2172
aVCOCOON-182
p2173
aVCOCOON-181
p2174
aVCOCOON-180
p2175
aVCOCOON-179
p2176
aVCOCOON-178
p2177
aVCOCOON-177
p2178
aVCOCOON-176
p2179
aVCOCOON-175
p2180
aVCOCOON-174
p2181
aVCOCOON-173
p2182
aVCOCOON-172
p2183
aVCOCOON-171
p2184
aVCOCOON-170
p2185
aVCOCOON-169
p2186
aVCOCOON-168
p2187
aVCOCOON-167
p2188
aVCOCOON-166
p2189
aVCOCOON-165
p2190
aVCOCOON-164
p2191
aVCOCOON-163
p2192
aVCOCOON-162
p2193
aVCOCOON-161
p2194
aVCOCOON-160
p2195
aVCOCOON-159
p2196
aVCOCOON-158
p2197
aVCOCOON-157
p2198
aVCOCOON-156
p2199
aVCOCOON-155
p2200
aVCOCOON-154
p2201
aVCOCOON-153
p2202
aVCOCOON-152
p2203
aVCOCOON-151
p2204
aVCOCOON-150
p2205
aVCOCOON-149
p2206
aVCOCOON-148
p2207
aVCOCOON-147
p2208
aVCOCOON-146
p2209
aVCOCOON-145
p2210
aVCOCOON-144
p2211
aVCOCOON-143
p2212
aVCOCOON-142
p2213
aVCOCOON-141
p2214
aVCOCOON-140
p2215
aVCOCOON-139
p2216
aVCOCOON-138
p2217
aVCOCOON-137
p2218
aVCOCOON-136
p2219
aVCOCOON-135
p2220
aVCOCOON-134
p2221
aVCOCOON-133
p2222
aVCOCOON-132
p2223
aVCOCOON-131
p2224
aVCOCOON-130
p2225
aVCOCOON-129
p2226
aVCOCOON-128
p2227
aVCOCOON-127
p2228
aVCOCOON-126
p2229
aVCOCOON-125
p2230
aVCOCOON-124
p2231
aVCOCOON-123
p2232
aVCOCOON-122
p2233
aVCOCOON-121
p2234
aVCOCOON-120
p2235
aVCOCOON-119
p2236
aVCOCOON-118
p2237
aVCOCOON-117
p2238
aVCOCOON-116
p2239
aVCOCOON-115
p2240
aVCOCOON-114
p2241
aVCOCOON-113
p2242
aVCOCOON-112
p2243
aVCOCOON-111
p2244
aVCOCOON-110
p2245
aVCOCOON-109
p2246
aVCOCOON-108
p2247
aVCOCOON-107
p2248
aVCOCOON-106
p2249
aVCOCOON-105
p2250
aVCOCOON-104
p2251
aVCOCOON-103
p2252
aVCOCOON-102
p2253
aVCOCOON-101
p2254
aVCOCOON-100
p2255
aVCOCOON-99
p2256
aVCOCOON-98
p2257
aVCOCOON-97
p2258
aVCOCOON-96
p2259
aVCOCOON-95
p2260
aVCOCOON-94
p2261
aVCOCOON-93
p2262
aVCOCOON-92
p2263
aVCOCOON-91
p2264
aVCOCOON-90
p2265
aVCOCOON-89
p2266
aVCOCOON-88
p2267
aVCOCOON-87
p2268
aVCOCOON-86
p2269
aVCOCOON-85
p2270
aVCOCOON-84
p2271
aVCOCOON-83
p2272
aVCOCOON-82
p2273
aVCOCOON-81
p2274
aVCOCOON-80
p2275
aVCOCOON-79
p2276
aVCOCOON-78
p2277
aVCOCOON-77
p2278
aVCOCOON-76
p2279
aVCOCOON-75
p2280
aVCOCOON-74
p2281
aVCOCOON-73
p2282
aVCOCOON-72
p2283
aVCOCOON-71
p2284
aVCOCOON-70
p2285
aVCOCOON-69
p2286
aVCOCOON-68
p2287
aVCOCOON-67
p2288
aVCOCOON-66
p2289
aVCOCOON-65
p2290
aVCOCOON-64
p2291
aVCOCOON-63
p2292
aVCOCOON-62
p2293
aVCOCOON-61
p2294
aVCOCOON-60
p2295
aVCOCOON-59
p2296
aVCOCOON-58
p2297
aVCOCOON-57
p2298
aVCOCOON-56
p2299
aVCOCOON-55
p2300
aVCOCOON-54
p2301
aVCOCOON-53
p2302
aVCOCOON-52
p2303
aVCOCOON-51
p2304
aVCOCOON-50
p2305
aVCOCOON-49
p2306
aVCOCOON-48
p2307
aVCOCOON-47
p2308
aVCOCOON-46
p2309
aVCOCOON-45
p2310
aVCOCOON-44
p2311
aVCOCOON-43
p2312
aVCOCOON-42
p2313
aVCOCOON-41
p2314
aVCOCOON-40
p2315
aVCOCOON-39
p2316
aVCOCOON-38
p2317
aVCOCOON-37
p2318
aVCOCOON-36
p2319
aVCOCOON-35
p2320
aVCOCOON-34
p2321
aVCOCOON-33
p2322
aVCOCOON-32
p2323
aVCOCOON-31
p2324
aVCOCOON-30
p2325
aVCOCOON-29
p2326
aVCOCOON-28
p2327
aVCOCOON-27
p2328
aVCOCOON-26
p2329
aVCOCOON-25
p2330
aVCOCOON-24
p2331
aVCOCOON-23
p2332
aVCOCOON-22
p2333
aVCOCOON-21
p2334
aVCOCOON-20
p2335
aVCOCOON-19
p2336
aVCOCOON-18
p2337
aVCOCOON-17
p2338
aVCOCOON-16
p2339
aVCOCOON-15
p2340
aVCOCOON-14
p2341
aVCOCOON-13
p2342
aVCOCOON-12
p2343
aVCOCOON-11
p2344
aVCOCOON-10
p2345
aVCOCOON-9
p2346
aVCOCOON-8
p2347
aVCOCOON-7
p2348
aVCOCOON-6
p2349
aVCOCOON-5
p2350
aVCOCOON-4
p2351
aVCOCOON-3
p2352
aVCOCOON-2
p2353
aVCOCOON-1
p2354
a.