(lp0
VCODEC-247
p1
aVCODEC-246
p2
aVCODEC-245
p3
aVCODEC-244
p4
aVCODEC-243
p5
aVCODEC-242
p6
aVCODEC-241
p7
aVCODEC-240
p8
aVCODEC-239
p9
aVCODEC-238
p10
aVCODEC-237
p11
aVCODEC-236
p12
aVCODEC-235
p13
aVCODEC-234
p14
aVCODEC-233
p15
aVCODEC-232
p16
aVCODEC-231
p17
aVCODEC-230
p18
aVCODEC-229
p19
aVCODEC-228
p20
aVCODEC-227
p21
aVCODEC-226
p22
aVCODEC-225
p23
aVCODEC-224
p24
aVCODEC-223
p25
aVCODEC-222
p26
aVCODEC-221
p27
aVCODEC-220
p28
aVCODEC-219
p29
aVCODEC-218
p30
aVCODEC-217
p31
aVCODEC-216
p32
aVCODEC-215
p33
aVCODEC-214
p34
aVCODEC-213
p35
aVCODEC-212
p36
aVCODEC-211
p37
aVCODEC-210
p38
aVCODEC-209
p39
aVCODEC-208
p40
aVCODEC-207
p41
aVCODEC-206
p42
aVCODEC-205
p43
aVCODEC-203
p44
aVCODEC-202
p45
aVCODEC-201
p46
aVCODEC-200
p47
aVCODEC-199
p48
aVCODEC-198
p49
aVCODEC-197
p50
aVCODEC-195
p51
aVCODEC-194
p52
aVCODEC-193
p53
aVCODEC-192
p54
aVCODEC-191
p55
aVCODEC-190
p56
aVCODEC-189
p57
aVCODEC-188
p58
aVCODEC-187
p59
aVCODEC-186
p60
aVCODEC-185
p61
aVCODEC-184
p62
aVCODEC-183
p63
aVCODEC-182
p64
aVCODEC-181
p65
aVCODEC-180
p66
aVCODEC-178
p67
aVCODEC-177
p68
aVCODEC-176
p69
aVCODEC-175
p70
aVCODEC-174
p71
aVCODEC-173
p72
aVCODEC-172
p73
aVCODEC-171
p74
aVCODEC-170
p75
aVCODEC-169
p76
aVCODEC-168
p77
aVCODEC-167
p78
aVCODEC-166
p79
aVCODEC-165
p80
aVCODEC-164
p81
aVCODEC-163
p82
aVCODEC-162
p83
aVCODEC-161
p84
aVCODEC-160
p85
aVCODEC-159
p86
aVCODEC-158
p87
aVCODEC-157
p88
aVCODEC-156
p89
aVCODEC-155
p90
aVCODEC-154
p91
aVCODEC-153
p92
aVCODEC-152
p93
aVCODEC-151
p94
aVCODEC-150
p95
aVCODEC-149
p96
aVCODEC-148
p97
aVCODEC-147
p98
aVCODEC-146
p99
aVCODEC-145
p100
aVCODEC-144
p101
aVCODEC-143
p102
aVCODEC-142
p103
aVCODEC-141
p104
aVCODEC-140
p105
aVCODEC-139
p106
aVCODEC-138
p107
aVCODEC-137
p108
aVCODEC-136
p109
aVCODEC-135
p110
aVCODEC-134
p111
aVCODEC-133
p112
aVCODEC-132
p113
aVCODEC-131
p114
aVCODEC-130
p115
aVCODEC-129
p116
aVCODEC-128
p117
aVCODEC-127
p118
aVCODEC-126
p119
aVCODEC-125
p120
aVCODEC-124
p121
aVCODEC-123
p122
aVCODEC-122
p123
aVCODEC-121
p124
aVCODEC-120
p125
aVCODEC-119
p126
aVCODEC-118
p127
aVCODEC-117
p128
aVCODEC-116
p129
aVCODEC-115
p130
aVCODEC-114
p131
aVCODEC-113
p132
aVCODEC-112
p133
aVCODEC-111
p134
aVCODEC-110
p135
aVCODEC-109
p136
aVCODEC-108
p137
aVCODEC-107
p138
aVCODEC-106
p139
aVCODEC-105
p140
aVCODEC-104
p141
aVCODEC-103
p142
aVCODEC-102
p143
aVCODEC-101
p144
aVCODEC-100
p145
aVCODEC-99
p146
aVCODEC-98
p147
aVCODEC-97
p148
aVCODEC-96
p149
aVCODEC-95
p150
aVCODEC-94
p151
aVCODEC-93
p152
aVCODEC-92
p153
aVCODEC-91
p154
aVCODEC-90
p155
aVCODEC-89
p156
aVCODEC-88
p157
aVCODEC-87
p158
aVCODEC-86
p159
aVCODEC-85
p160
aVCODEC-84
p161
aVCODEC-83
p162
aVCODEC-82
p163
aVCODEC-81
p164
aVCODEC-80
p165
aVCODEC-79
p166
aVCODEC-78
p167
aVCODEC-77
p168
aVCODEC-76
p169
aVCODEC-75
p170
aVCODEC-74
p171
aVCODEC-73
p172
aVCODEC-72
p173
aVCODEC-71
p174
aVCODEC-70
p175
aVCODEC-69
p176
aVCODEC-68
p177
aVCODEC-67
p178
aVCODEC-66
p179
aVCODEC-65
p180
aVCODEC-64
p181
aVCODEC-63
p182
aVCODEC-62
p183
aVCODEC-61
p184
aVCODEC-60
p185
aVCODEC-59
p186
aVCODEC-58
p187
aVCODEC-57
p188
aVCODEC-56
p189
aVCODEC-55
p190
aVCODEC-54
p191
aVCODEC-53
p192
aVCODEC-52
p193
aVCODEC-51
p194
aVCODEC-50
p195
aVCODEC-49
p196
aVCODEC-48
p197
aVCODEC-47
p198
aVCODEC-46
p199
aVCODEC-45
p200
aVCODEC-44
p201
aVCODEC-43
p202
aVCODEC-42
p203
aVCODEC-41
p204
aVCODEC-40
p205
aVCODEC-39
p206
aVCODEC-38
p207
aVCODEC-37
p208
aVCODEC-36
p209
aVCODEC-35
p210
aVCODEC-34
p211
aVCODEC-33
p212
aVCODEC-32
p213
aVCODEC-31
p214
aVCODEC-30
p215
aVCODEC-29
p216
aVCODEC-28
p217
aVCODEC-27
p218
aVCODEC-26
p219
aVCODEC-25
p220
aVCODEC-24
p221
aVCODEC-23
p222
aVCODEC-22
p223
aVCODEC-21
p224
aVCODEC-20
p225
aVCODEC-19
p226
aVCODEC-18
p227
aVCODEC-17
p228
aVCODEC-16
p229
aVCODEC-15
p230
aVCODEC-14
p231
aVCODEC-13
p232
aVCODEC-12
p233
aVCODEC-11
p234
aVCODEC-10
p235
aVCODEC-9
p236
aVCODEC-8
p237
aVCODEC-7
p238
aVCODEC-6
p239
aVCODEC-5
p240
aVCODEC-4
p241
aVCODEC-3
p242
aVCODEC-2
p243
aVCODEC-1
p244
a.