(lp0
VCOLLECTIONS-693
p1
aVCOLLECTIONS-692
p2
aVCOLLECTIONS-691
p3
aVCOLLECTIONS-690
p4
aVCOLLECTIONS-689
p5
aVCOLLECTIONS-688
p6
aVCOLLECTIONS-687
p7
aVCOLLECTIONS-686
p8
aVCOLLECTIONS-685
p9
aVCOLLECTIONS-684
p10
aVCOLLECTIONS-683
p11
aVCOLLECTIONS-682
p12
aVCOLLECTIONS-681
p13
aVCOLLECTIONS-680
p14
aVCOLLECTIONS-679
p15
aVCOLLECTIONS-678
p16
aVCOLLECTIONS-677
p17
aVCOLLECTIONS-676
p18
aVCOLLECTIONS-675
p19
aVCOLLECTIONS-674
p20
aVCOLLECTIONS-673
p21
aVCOLLECTIONS-672
p22
aVCOLLECTIONS-671
p23
aVCOLLECTIONS-670
p24
aVCOLLECTIONS-669
p25
aVCOLLECTIONS-668
p26
aVCOLLECTIONS-667
p27
aVCOLLECTIONS-666
p28
aVCOLLECTIONS-665
p29
aVCOLLECTIONS-664
p30
aVCOLLECTIONS-663
p31
aVCOLLECTIONS-662
p32
aVCOLLECTIONS-661
p33
aVCOLLECTIONS-660
p34
aVCOLLECTIONS-659
p35
aVCOLLECTIONS-658
p36
aVCOLLECTIONS-657
p37
aVCOLLECTIONS-656
p38
aVCOLLECTIONS-655
p39
aVCOLLECTIONS-654
p40
aVCOLLECTIONS-653
p41
aVCOLLECTIONS-652
p42
aVCOLLECTIONS-607
p43
aVCOLLECTIONS-606
p44
aVCOLLECTIONS-605
p45
aVCOLLECTIONS-604
p46
aVCOLLECTIONS-603
p47
aVCOLLECTIONS-602
p48
aVCOLLECTIONS-601
p49
aVCOLLECTIONS-600
p50
aVCOLLECTIONS-599
p51
aVCOLLECTIONS-598
p52
aVCOLLECTIONS-597
p53
aVCOLLECTIONS-596
p54
aVCOLLECTIONS-595
p55
aVCOLLECTIONS-594
p56
aVCOLLECTIONS-593
p57
aVCOLLECTIONS-592
p58
aVCOLLECTIONS-591
p59
aVCOLLECTIONS-590
p60
aVCOLLECTIONS-589
p61
aVCOLLECTIONS-588
p62
aVCOLLECTIONS-587
p63
aVCOLLECTIONS-586
p64
aVCOLLECTIONS-585
p65
aVCOLLECTIONS-584
p66
aVCOLLECTIONS-583
p67
aVCOLLECTIONS-582
p68
aVCOLLECTIONS-581
p69
aVCOLLECTIONS-580
p70
aVCOLLECTIONS-579
p71
aVCOLLECTIONS-578
p72
aVCOLLECTIONS-577
p73
aVCOLLECTIONS-576
p74
aVCOLLECTIONS-575
p75
aVCOLLECTIONS-574
p76
aVCOLLECTIONS-573
p77
aVCOLLECTIONS-572
p78
aVCOLLECTIONS-571
p79
aVCOLLECTIONS-570
p80
aVCOLLECTIONS-568
p81
aVCOLLECTIONS-567
p82
aVCOLLECTIONS-566
p83
aVCOLLECTIONS-565
p84
aVCOLLECTIONS-564
p85
aVCOLLECTIONS-563
p86
aVCOLLECTIONS-562
p87
aVCOLLECTIONS-561
p88
aVCOLLECTIONS-560
p89
aVCOLLECTIONS-559
p90
aVCOLLECTIONS-558
p91
aVCOLLECTIONS-557
p92
aVCOLLECTIONS-556
p93
aVCOLLECTIONS-555
p94
aVCOLLECTIONS-554
p95
aVCOLLECTIONS-553
p96
aVCOLLECTIONS-552
p97
aVCOLLECTIONS-551
p98
aVCOLLECTIONS-550
p99
aVCOLLECTIONS-549
p100
aVCOLLECTIONS-548
p101
aVCOLLECTIONS-547
p102
aVCOLLECTIONS-546
p103
aVCOLLECTIONS-545
p104
aVCOLLECTIONS-544
p105
aVCOLLECTIONS-543
p106
aVCOLLECTIONS-542
p107
aVCOLLECTIONS-541
p108
aVCOLLECTIONS-540
p109
aVCOLLECTIONS-539
p110
aVCOLLECTIONS-538
p111
aVCOLLECTIONS-537
p112
aVCOLLECTIONS-536
p113
aVCOLLECTIONS-535
p114
aVCOLLECTIONS-534
p115
aVCOLLECTIONS-533
p116
aVCOLLECTIONS-532
p117
aVCOLLECTIONS-531
p118
aVCOLLECTIONS-530
p119
aVCOLLECTIONS-529
p120
aVCOLLECTIONS-528
p121
aVCOLLECTIONS-527
p122
aVCOLLECTIONS-526
p123
aVCOLLECTIONS-525
p124
aVCOLLECTIONS-524
p125
aVCOLLECTIONS-523
p126
aVCOLLECTIONS-522
p127
aVCOLLECTIONS-521
p128
aVCOLLECTIONS-520
p129
aVCOLLECTIONS-519
p130
aVCOLLECTIONS-518
p131
aVCOLLECTIONS-517
p132
aVCOLLECTIONS-516
p133
aVCOLLECTIONS-515
p134
aVCOLLECTIONS-514
p135
aVCOLLECTIONS-513
p136
aVCOLLECTIONS-512
p137
aVCOLLECTIONS-511
p138
aVCOLLECTIONS-510
p139
aVCOLLECTIONS-509
p140
aVCOLLECTIONS-508
p141
aVCOLLECTIONS-507
p142
aVCOLLECTIONS-506
p143
aVCOLLECTIONS-505
p144
aVCOLLECTIONS-504
p145
aVCOLLECTIONS-503
p146
aVCOLLECTIONS-502
p147
aVCOLLECTIONS-501
p148
aVCOLLECTIONS-500
p149
aVCOLLECTIONS-499
p150
aVCOLLECTIONS-498
p151
aVCOLLECTIONS-497
p152
aVCOLLECTIONS-496
p153
aVCOLLECTIONS-495
p154
aVCOLLECTIONS-494
p155
aVCOLLECTIONS-493
p156
aVCOLLECTIONS-492
p157
aVCOLLECTIONS-491
p158
aVCOLLECTIONS-490
p159
aVCOLLECTIONS-489
p160
aVCOLLECTIONS-488
p161
aVCOLLECTIONS-487
p162
aVCOLLECTIONS-486
p163
aVCOLLECTIONS-485
p164
aVCOLLECTIONS-484
p165
aVCOLLECTIONS-483
p166
aVCOLLECTIONS-482
p167
aVCOLLECTIONS-481
p168
aVCOLLECTIONS-480
p169
aVCOLLECTIONS-479
p170
aVCOLLECTIONS-476
p171
aVCOLLECTIONS-475
p172
aVCOLLECTIONS-474
p173
aVCOLLECTIONS-473
p174
aVCOLLECTIONS-472
p175
aVCOLLECTIONS-471
p176
aVCOLLECTIONS-470
p177
aVCOLLECTIONS-469
p178
aVCOLLECTIONS-468
p179
aVCOLLECTIONS-467
p180
aVCOLLECTIONS-466
p181
aVCOLLECTIONS-465
p182
aVCOLLECTIONS-464
p183
aVCOLLECTIONS-463
p184
aVCOLLECTIONS-462
p185
aVCOLLECTIONS-461
p186
aVCOLLECTIONS-460
p187
aVCOLLECTIONS-459
p188
aVCOLLECTIONS-458
p189
aVCOLLECTIONS-457
p190
aVCOLLECTIONS-456
p191
aVCOLLECTIONS-455
p192
aVCOLLECTIONS-454
p193
aVCOLLECTIONS-453
p194
aVCOLLECTIONS-452
p195
aVCOLLECTIONS-451
p196
aVCOLLECTIONS-450
p197
aVCOLLECTIONS-449
p198
aVCOLLECTIONS-448
p199
aVCOLLECTIONS-447
p200
aVCOLLECTIONS-446
p201
aVCOLLECTIONS-445
p202
aVCOLLECTIONS-444
p203
aVCOLLECTIONS-443
p204
aVCOLLECTIONS-442
p205
aVCOLLECTIONS-441
p206
aVCOLLECTIONS-440
p207
aVCOLLECTIONS-439
p208
aVCOLLECTIONS-438
p209
aVCOLLECTIONS-437
p210
aVCOLLECTIONS-436
p211
aVCOLLECTIONS-435
p212
aVCOLLECTIONS-434
p213
aVCOLLECTIONS-433
p214
aVCOLLECTIONS-432
p215
aVCOLLECTIONS-431
p216
aVCOLLECTIONS-430
p217
aVCOLLECTIONS-429
p218
aVCOLLECTIONS-428
p219
aVCOLLECTIONS-427
p220
aVCOLLECTIONS-426
p221
aVCOLLECTIONS-425
p222
aVCOLLECTIONS-424
p223
aVCOLLECTIONS-423
p224
aVCOLLECTIONS-422
p225
aVCOLLECTIONS-421
p226
aVCOLLECTIONS-420
p227
aVCOLLECTIONS-419
p228
aVCOLLECTIONS-418
p229
aVCOLLECTIONS-417
p230
aVCOLLECTIONS-416
p231
aVCOLLECTIONS-415
p232
aVCOLLECTIONS-414
p233
aVCOLLECTIONS-413
p234
aVCOLLECTIONS-412
p235
aVCOLLECTIONS-411
p236
aVCOLLECTIONS-410
p237
aVCOLLECTIONS-409
p238
aVCOLLECTIONS-408
p239
aVCOLLECTIONS-407
p240
aVCOLLECTIONS-406
p241
aVCOLLECTIONS-405
p242
aVCOLLECTIONS-404
p243
aVCOLLECTIONS-403
p244
aVCOLLECTIONS-402
p245
aVCOLLECTIONS-401
p246
aVCOLLECTIONS-400
p247
aVCOLLECTIONS-399
p248
aVCOLLECTIONS-398
p249
aVCOLLECTIONS-397
p250
aVCOLLECTIONS-396
p251
aVCOLLECTIONS-395
p252
aVCOLLECTIONS-394
p253
aVCOLLECTIONS-393
p254
aVCOLLECTIONS-392
p255
aVCOLLECTIONS-391
p256
aVCOLLECTIONS-390
p257
aVCOLLECTIONS-389
p258
aVCOLLECTIONS-388
p259
aVCOLLECTIONS-387
p260
aVCOLLECTIONS-386
p261
aVCOLLECTIONS-385
p262
aVCOLLECTIONS-384
p263
aVCOLLECTIONS-383
p264
aVCOLLECTIONS-382
p265
aVCOLLECTIONS-381
p266
aVCOLLECTIONS-380
p267
aVCOLLECTIONS-379
p268
aVCOLLECTIONS-378
p269
aVCOLLECTIONS-377
p270
aVCOLLECTIONS-376
p271
aVCOLLECTIONS-375
p272
aVCOLLECTIONS-374
p273
aVCOLLECTIONS-373
p274
aVCOLLECTIONS-372
p275
aVCOLLECTIONS-371
p276
aVCOLLECTIONS-370
p277
aVCOLLECTIONS-369
p278
aVCOLLECTIONS-368
p279
aVCOLLECTIONS-367
p280
aVCOLLECTIONS-366
p281
aVCOLLECTIONS-365
p282
aVCOLLECTIONS-364
p283
aVCOLLECTIONS-363
p284
aVCOLLECTIONS-362
p285
aVCOLLECTIONS-361
p286
aVCOLLECTIONS-360
p287
aVCOLLECTIONS-359
p288
aVCOLLECTIONS-358
p289
aVCOLLECTIONS-357
p290
aVCOLLECTIONS-356
p291
aVCOLLECTIONS-355
p292
aVCOLLECTIONS-354
p293
aVCOLLECTIONS-353
p294
aVCOLLECTIONS-352
p295
aVCOLLECTIONS-351
p296
aVCOLLECTIONS-350
p297
aVCOLLECTIONS-349
p298
aVCOLLECTIONS-348
p299
aVCOLLECTIONS-347
p300
aVCOLLECTIONS-346
p301
aVCOLLECTIONS-345
p302
aVCOLLECTIONS-344
p303
aVCOLLECTIONS-343
p304
aVCOLLECTIONS-342
p305
aVCOLLECTIONS-341
p306
aVCOLLECTIONS-340
p307
aVCOLLECTIONS-339
p308
aVCOLLECTIONS-338
p309
aVCOLLECTIONS-337
p310
aVCOLLECTIONS-336
p311
aVCOLLECTIONS-335
p312
aVCOLLECTIONS-334
p313
aVCOLLECTIONS-333
p314
aVCOLLECTIONS-332
p315
aVCOLLECTIONS-331
p316
aVCOLLECTIONS-330
p317
aVCOLLECTIONS-328
p318
aVCOLLECTIONS-327
p319
aVCOLLECTIONS-325
p320
aVCOLLECTIONS-324
p321
aVCOLLECTIONS-323
p322
aVCOLLECTIONS-322
p323
aVCOLLECTIONS-321
p324
aVCOLLECTIONS-320
p325
aVCOLLECTIONS-319
p326
aVCOLLECTIONS-318
p327
aVCOLLECTIONS-317
p328
aVCOLLECTIONS-316
p329
aVCOLLECTIONS-315
p330
aVCOLLECTIONS-314
p331
aVCOLLECTIONS-313
p332
aVCOLLECTIONS-312
p333
aVCOLLECTIONS-311
p334
aVCOLLECTIONS-310
p335
aVCOLLECTIONS-309
p336
aVCOLLECTIONS-308
p337
aVCOLLECTIONS-307
p338
aVCOLLECTIONS-306
p339
aVCOLLECTIONS-304
p340
aVCOLLECTIONS-303
p341
aVCOLLECTIONS-302
p342
aVCOLLECTIONS-301
p343
aVCOLLECTIONS-300
p344
aVCOLLECTIONS-299
p345
aVCOLLECTIONS-298
p346
aVCOLLECTIONS-297
p347
aVCOLLECTIONS-296
p348
aVCOLLECTIONS-295
p349
aVCOLLECTIONS-294
p350
aVCOLLECTIONS-293
p351
aVCOLLECTIONS-291
p352
aVCOLLECTIONS-290
p353
aVCOLLECTIONS-289
p354
aVCOLLECTIONS-288
p355
aVCOLLECTIONS-287
p356
aVCOLLECTIONS-286
p357
aVCOLLECTIONS-285
p358
aVCOLLECTIONS-284
p359
aVCOLLECTIONS-283
p360
aVCOLLECTIONS-282
p361
aVCOLLECTIONS-281
p362
aVCOLLECTIONS-280
p363
aVCOLLECTIONS-279
p364
aVCOLLECTIONS-278
p365
aVCOLLECTIONS-277
p366
aVCOLLECTIONS-276
p367
aVCOLLECTIONS-275
p368
aVCOLLECTIONS-274
p369
aVCOLLECTIONS-273
p370
aVCOLLECTIONS-272
p371
aVCOLLECTIONS-271
p372
aVCOLLECTIONS-270
p373
aVCOLLECTIONS-269
p374
aVCOLLECTIONS-268
p375
aVCOLLECTIONS-267
p376
aVCOLLECTIONS-266
p377
aVCOLLECTIONS-265
p378
aVCOLLECTIONS-264
p379
aVCOLLECTIONS-263
p380
aVCOLLECTIONS-262
p381
aVCOLLECTIONS-261
p382
aVCOLLECTIONS-260
p383
aVCOLLECTIONS-259
p384
aVCOLLECTIONS-258
p385
aVCOLLECTIONS-257
p386
aVCOLLECTIONS-256
p387
aVCOLLECTIONS-255
p388
aVCOLLECTIONS-253
p389
aVCOLLECTIONS-252
p390
aVCOLLECTIONS-251
p391
aVCOLLECTIONS-250
p392
aVCOLLECTIONS-249
p393
aVCOLLECTIONS-248
p394
aVCOLLECTIONS-247
p395
aVCOLLECTIONS-246
p396
aVCOLLECTIONS-245
p397
aVCOLLECTIONS-244
p398
aVCOLLECTIONS-243
p399
aVCOLLECTIONS-242
p400
aVCOLLECTIONS-241
p401
aVCOLLECTIONS-240
p402
aVCOLLECTIONS-239
p403
aVCOLLECTIONS-238
p404
aVCOLLECTIONS-237
p405
aVCOLLECTIONS-236
p406
aVCOLLECTIONS-235
p407
aVCOLLECTIONS-234
p408
aVCOLLECTIONS-233
p409
aVCOLLECTIONS-232
p410
aVCOLLECTIONS-231
p411
aVCOLLECTIONS-230
p412
aVCOLLECTIONS-229
p413
aVCOLLECTIONS-228
p414
aVCOLLECTIONS-227
p415
aVCOLLECTIONS-226
p416
aVCOLLECTIONS-225
p417
aVCOLLECTIONS-224
p418
aVCOLLECTIONS-223
p419
aVCOLLECTIONS-222
p420
aVCOLLECTIONS-221
p421
aVCOLLECTIONS-220
p422
aVCOLLECTIONS-219
p423
aVCOLLECTIONS-218
p424
aVCOLLECTIONS-217
p425
aVCOLLECTIONS-216
p426
aVCOLLECTIONS-215
p427
aVCOLLECTIONS-214
p428
aVCOLLECTIONS-213
p429
aVCOLLECTIONS-212
p430
aVCOLLECTIONS-211
p431
aVCOLLECTIONS-210
p432
aVCOLLECTIONS-209
p433
aVCOLLECTIONS-208
p434
aVCOLLECTIONS-207
p435
aVCOLLECTIONS-206
p436
aVCOLLECTIONS-205
p437
aVCOLLECTIONS-204
p438
aVCOLLECTIONS-203
p439
aVCOLLECTIONS-202
p440
aVCOLLECTIONS-201
p441
aVCOLLECTIONS-200
p442
aVCOLLECTIONS-199
p443
aVCOLLECTIONS-198
p444
aVCOLLECTIONS-197
p445
aVCOLLECTIONS-196
p446
aVCOLLECTIONS-195
p447
aVCOLLECTIONS-194
p448
aVCOLLECTIONS-193
p449
aVCOLLECTIONS-192
p450
aVCOLLECTIONS-191
p451
aVCOLLECTIONS-190
p452
aVCOLLECTIONS-189
p453
aVCOLLECTIONS-188
p454
aVCOLLECTIONS-187
p455
aVCOLLECTIONS-186
p456
aVCOLLECTIONS-185
p457
aVCOLLECTIONS-184
p458
aVCOLLECTIONS-183
p459
aVCOLLECTIONS-182
p460
aVCOLLECTIONS-181
p461
aVCOLLECTIONS-180
p462
aVCOLLECTIONS-179
p463
aVCOLLECTIONS-178
p464
aVCOLLECTIONS-177
p465
aVCOLLECTIONS-176
p466
aVCOLLECTIONS-175
p467
aVCOLLECTIONS-174
p468
aVCOLLECTIONS-173
p469
aVCOLLECTIONS-172
p470
aVCOLLECTIONS-171
p471
aVCOLLECTIONS-170
p472
aVCOLLECTIONS-169
p473
aVCOLLECTIONS-168
p474
aVCOLLECTIONS-167
p475
aVCOLLECTIONS-166
p476
aVCOLLECTIONS-165
p477
aVCOLLECTIONS-164
p478
aVCOLLECTIONS-163
p479
aVCOLLECTIONS-162
p480
aVCOLLECTIONS-161
p481
aVCOLLECTIONS-160
p482
aVCOLLECTIONS-159
p483
aVCOLLECTIONS-158
p484
aVCOLLECTIONS-157
p485
aVCOLLECTIONS-156
p486
aVCOLLECTIONS-155
p487
aVCOLLECTIONS-154
p488
aVCOLLECTIONS-153
p489
aVCOLLECTIONS-152
p490
aVCOLLECTIONS-151
p491
aVCOLLECTIONS-150
p492
aVCOLLECTIONS-149
p493
aVCOLLECTIONS-148
p494
aVCOLLECTIONS-147
p495
aVCOLLECTIONS-146
p496
aVCOLLECTIONS-145
p497
aVCOLLECTIONS-143
p498
aVCOLLECTIONS-142
p499
aVCOLLECTIONS-141
p500
aVCOLLECTIONS-140
p501
aVCOLLECTIONS-139
p502
aVCOLLECTIONS-138
p503
aVCOLLECTIONS-137
p504
aVCOLLECTIONS-136
p505
aVCOLLECTIONS-135
p506
aVCOLLECTIONS-134
p507
aVCOLLECTIONS-133
p508
aVCOLLECTIONS-132
p509
aVCOLLECTIONS-131
p510
aVCOLLECTIONS-130
p511
aVCOLLECTIONS-129
p512
aVCOLLECTIONS-128
p513
aVCOLLECTIONS-127
p514
aVCOLLECTIONS-126
p515
aVCOLLECTIONS-125
p516
aVCOLLECTIONS-124
p517
aVCOLLECTIONS-123
p518
aVCOLLECTIONS-122
p519
aVCOLLECTIONS-121
p520
aVCOLLECTIONS-120
p521
aVCOLLECTIONS-119
p522
aVCOLLECTIONS-118
p523
aVCOLLECTIONS-117
p524
aVCOLLECTIONS-116
p525
aVCOLLECTIONS-115
p526
aVCOLLECTIONS-114
p527
aVCOLLECTIONS-113
p528
aVCOLLECTIONS-112
p529
aVCOLLECTIONS-111
p530
aVCOLLECTIONS-110
p531
aVCOLLECTIONS-109
p532
aVCOLLECTIONS-108
p533
aVCOLLECTIONS-107
p534
aVCOLLECTIONS-106
p535
aVCOLLECTIONS-105
p536
aVCOLLECTIONS-104
p537
aVCOLLECTIONS-103
p538
aVCOLLECTIONS-102
p539
aVCOLLECTIONS-101
p540
aVCOLLECTIONS-100
p541
aVCOLLECTIONS-99
p542
aVCOLLECTIONS-98
p543
aVCOLLECTIONS-97
p544
aVCOLLECTIONS-96
p545
aVCOLLECTIONS-95
p546
aVCOLLECTIONS-94
p547
aVCOLLECTIONS-93
p548
aVCOLLECTIONS-92
p549
aVCOLLECTIONS-91
p550
aVCOLLECTIONS-90
p551
aVCOLLECTIONS-89
p552
aVCOLLECTIONS-88
p553
aVCOLLECTIONS-87
p554
aVCOLLECTIONS-86
p555
aVCOLLECTIONS-85
p556
aVCOLLECTIONS-84
p557
aVCOLLECTIONS-83
p558
aVCOLLECTIONS-82
p559
aVCOLLECTIONS-81
p560
aVCOLLECTIONS-80
p561
aVCOLLECTIONS-79
p562
aVCOLLECTIONS-78
p563
aVCOLLECTIONS-77
p564
aVCOLLECTIONS-76
p565
aVCOLLECTIONS-75
p566
aVCOLLECTIONS-74
p567
aVCOLLECTIONS-73
p568
aVCOLLECTIONS-72
p569
aVCOLLECTIONS-71
p570
aVCOLLECTIONS-70
p571
aVCOLLECTIONS-69
p572
aVCOLLECTIONS-68
p573
aVCOLLECTIONS-67
p574
aVCOLLECTIONS-66
p575
aVCOLLECTIONS-65
p576
aVCOLLECTIONS-64
p577
aVCOLLECTIONS-63
p578
aVCOLLECTIONS-62
p579
aVCOLLECTIONS-61
p580
aVCOLLECTIONS-60
p581
aVCOLLECTIONS-59
p582
aVCOLLECTIONS-58
p583
aVCOLLECTIONS-57
p584
aVCOLLECTIONS-56
p585
aVCOLLECTIONS-55
p586
aVCOLLECTIONS-54
p587
aVCOLLECTIONS-53
p588
aVCOLLECTIONS-52
p589
aVCOLLECTIONS-51
p590
aVCOLLECTIONS-50
p591
aVCOLLECTIONS-49
p592
aVCOLLECTIONS-48
p593
aVCOLLECTIONS-47
p594
aVCOLLECTIONS-46
p595
aVCOLLECTIONS-45
p596
aVCOLLECTIONS-44
p597
aVCOLLECTIONS-43
p598
aVCOLLECTIONS-42
p599
aVCOLLECTIONS-41
p600
aVCOLLECTIONS-40
p601
aVCOLLECTIONS-39
p602
aVCOLLECTIONS-38
p603
aVCOLLECTIONS-37
p604
aVCOLLECTIONS-36
p605
aVCOLLECTIONS-35
p606
aVCOLLECTIONS-34
p607
aVCOLLECTIONS-33
p608
aVCOLLECTIONS-32
p609
aVCOLLECTIONS-31
p610
aVCOLLECTIONS-30
p611
aVCOLLECTIONS-29
p612
aVCOLLECTIONS-28
p613
aVCOLLECTIONS-27
p614
aVCOLLECTIONS-26
p615
aVCOLLECTIONS-25
p616
aVCOLLECTIONS-24
p617
aVCOLLECTIONS-23
p618
aVCOLLECTIONS-22
p619
aVCOLLECTIONS-21
p620
aVCOLLECTIONS-20
p621
aVCOLLECTIONS-19
p622
aVCOLLECTIONS-18
p623
aVCOLLECTIONS-17
p624
aVCOLLECTIONS-16
p625
aVCOLLECTIONS-15
p626
aVCOLLECTIONS-14
p627
aVCOLLECTIONS-13
p628
aVCOLLECTIONS-12
p629
aVCOLLECTIONS-11
p630
aVCOLLECTIONS-10
p631
aVCOLLECTIONS-9
p632
aVCOLLECTIONS-8
p633
aVCOLLECTIONS-7
p634
aVCOLLECTIONS-6
p635
aVCOLLECTIONS-5
p636
aVCOLLECTIONS-4
p637
aVCOLLECTIONS-3
p638
aVCOLLECTIONS-2
p639
aVCOLLECTIONS-1
p640
a.