(lp0
VCOMPRESS-460
p1
aVCOMPRESS-459
p2
aVCOMPRESS-458
p3
aVCOMPRESS-457
p4
aVCOMPRESS-456
p5
aVCOMPRESS-455
p6
aVCOMPRESS-454
p7
aVCOMPRESS-453
p8
aVCOMPRESS-452
p9
aVCOMPRESS-451
p10
aVCOMPRESS-450
p11
aVCOMPRESS-449
p12
aVCOMPRESS-448
p13
aVCOMPRESS-447
p14
aVCOMPRESS-446
p15
aVCOMPRESS-445
p16
aVCOMPRESS-444
p17
aVCOMPRESS-443
p18
aVCOMPRESS-442
p19
aVCOMPRESS-441
p20
aVCOMPRESS-440
p21
aVCOMPRESS-439
p22
aVCOMPRESS-438
p23
aVCOMPRESS-437
p24
aVCOMPRESS-436
p25
aVCOMPRESS-435
p26
aVCOMPRESS-434
p27
aVCOMPRESS-433
p28
aVCOMPRESS-432
p29
aVCOMPRESS-431
p30
aVCOMPRESS-430
p31
aVCOMPRESS-429
p32
aVCOMPRESS-428
p33
aVCOMPRESS-427
p34
aVCOMPRESS-426
p35
aVCOMPRESS-425
p36
aVCOMPRESS-424
p37
aVCOMPRESS-423
p38
aVCOMPRESS-422
p39
aVCOMPRESS-421
p40
aVCOMPRESS-420
p41
aVCOMPRESS-419
p42
aVCOMPRESS-418
p43
aVCOMPRESS-417
p44
aVCOMPRESS-416
p45
aVCOMPRESS-415
p46
aVCOMPRESS-414
p47
aVCOMPRESS-413
p48
aVCOMPRESS-412
p49
aVCOMPRESS-411
p50
aVCOMPRESS-410
p51
aVCOMPRESS-409
p52
aVCOMPRESS-408
p53
aVCOMPRESS-407
p54
aVCOMPRESS-406
p55
aVCOMPRESS-405
p56
aVCOMPRESS-404
p57
aVCOMPRESS-403
p58
aVCOMPRESS-402
p59
aVCOMPRESS-401
p60
aVCOMPRESS-400
p61
aVCOMPRESS-399
p62
aVCOMPRESS-398
p63
aVCOMPRESS-397
p64
aVCOMPRESS-396
p65
aVCOMPRESS-395
p66
aVCOMPRESS-394
p67
aVCOMPRESS-393
p68
aVCOMPRESS-392
p69
aVCOMPRESS-391
p70
aVCOMPRESS-390
p71
aVCOMPRESS-389
p72
aVCOMPRESS-388
p73
aVCOMPRESS-387
p74
aVCOMPRESS-386
p75
aVCOMPRESS-385
p76
aVCOMPRESS-384
p77
aVCOMPRESS-383
p78
aVCOMPRESS-382
p79
aVCOMPRESS-381
p80
aVCOMPRESS-380
p81
aVCOMPRESS-379
p82
aVCOMPRESS-378
p83
aVCOMPRESS-377
p84
aVCOMPRESS-376
p85
aVCOMPRESS-375
p86
aVCOMPRESS-374
p87
aVCOMPRESS-373
p88
aVCOMPRESS-372
p89
aVCOMPRESS-371
p90
aVCOMPRESS-370
p91
aVCOMPRESS-369
p92
aVCOMPRESS-368
p93
aVCOMPRESS-367
p94
aVCOMPRESS-366
p95
aVCOMPRESS-365
p96
aVCOMPRESS-364
p97
aVCOMPRESS-363
p98
aVCOMPRESS-362
p99
aVCOMPRESS-361
p100
aVCOMPRESS-360
p101
aVCOMPRESS-359
p102
aVCOMPRESS-358
p103
aVCOMPRESS-357
p104
aVCOMPRESS-356
p105
aVCOMPRESS-355
p106
aVCOMPRESS-354
p107
aVCOMPRESS-353
p108
aVCOMPRESS-352
p109
aVCOMPRESS-351
p110
aVCOMPRESS-350
p111
aVCOMPRESS-349
p112
aVCOMPRESS-348
p113
aVCOMPRESS-347
p114
aVCOMPRESS-346
p115
aVCOMPRESS-345
p116
aVCOMPRESS-344
p117
aVCOMPRESS-343
p118
aVCOMPRESS-342
p119
aVCOMPRESS-341
p120
aVCOMPRESS-340
p121
aVCOMPRESS-339
p122
aVCOMPRESS-338
p123
aVCOMPRESS-337
p124
aVCOMPRESS-336
p125
aVCOMPRESS-335
p126
aVCOMPRESS-334
p127
aVCOMPRESS-333
p128
aVCOMPRESS-332
p129
aVCOMPRESS-331
p130
aVCOMPRESS-330
p131
aVCOMPRESS-329
p132
aVCOMPRESS-328
p133
aVCOMPRESS-327
p134
aVCOMPRESS-326
p135
aVCOMPRESS-325
p136
aVCOMPRESS-324
p137
aVCOMPRESS-323
p138
aVCOMPRESS-322
p139
aVCOMPRESS-321
p140
aVCOMPRESS-320
p141
aVCOMPRESS-319
p142
aVCOMPRESS-318
p143
aVCOMPRESS-317
p144
aVCOMPRESS-316
p145
aVCOMPRESS-315
p146
aVCOMPRESS-314
p147
aVCOMPRESS-313
p148
aVCOMPRESS-312
p149
aVCOMPRESS-311
p150
aVCOMPRESS-310
p151
aVCOMPRESS-309
p152
aVCOMPRESS-308
p153
aVCOMPRESS-307
p154
aVCOMPRESS-306
p155
aVCOMPRESS-305
p156
aVCOMPRESS-304
p157
aVCOMPRESS-303
p158
aVCOMPRESS-302
p159
aVCOMPRESS-301
p160
aVCOMPRESS-300
p161
aVCOMPRESS-299
p162
aVCOMPRESS-298
p163
aVCOMPRESS-297
p164
aVCOMPRESS-296
p165
aVCOMPRESS-295
p166
aVCOMPRESS-294
p167
aVCOMPRESS-293
p168
aVCOMPRESS-292
p169
aVCOMPRESS-291
p170
aVCOMPRESS-290
p171
aVCOMPRESS-289
p172
aVCOMPRESS-288
p173
aVCOMPRESS-287
p174
aVCOMPRESS-286
p175
aVCOMPRESS-285
p176
aVCOMPRESS-284
p177
aVCOMPRESS-283
p178
aVCOMPRESS-282
p179
aVCOMPRESS-281
p180
aVCOMPRESS-280
p181
aVCOMPRESS-279
p182
aVCOMPRESS-278
p183
aVCOMPRESS-277
p184
aVCOMPRESS-276
p185
aVCOMPRESS-275
p186
aVCOMPRESS-274
p187
aVCOMPRESS-273
p188
aVCOMPRESS-272
p189
aVCOMPRESS-271
p190
aVCOMPRESS-270
p191
aVCOMPRESS-269
p192
aVCOMPRESS-268
p193
aVCOMPRESS-267
p194
aVCOMPRESS-266
p195
aVCOMPRESS-265
p196
aVCOMPRESS-264
p197
aVCOMPRESS-263
p198
aVCOMPRESS-262
p199
aVCOMPRESS-261
p200
aVCOMPRESS-260
p201
aVCOMPRESS-259
p202
aVCOMPRESS-258
p203
aVCOMPRESS-257
p204
aVCOMPRESS-256
p205
aVCOMPRESS-255
p206
aVCOMPRESS-254
p207
aVCOMPRESS-253
p208
aVCOMPRESS-252
p209
aVCOMPRESS-251
p210
aVCOMPRESS-250
p211
aVCOMPRESS-249
p212
aVCOMPRESS-248
p213
aVCOMPRESS-247
p214
aVCOMPRESS-246
p215
aVCOMPRESS-245
p216
aVCOMPRESS-244
p217
aVCOMPRESS-243
p218
aVCOMPRESS-242
p219
aVCOMPRESS-241
p220
aVCOMPRESS-240
p221
aVCOMPRESS-239
p222
aVCOMPRESS-238
p223
aVCOMPRESS-237
p224
aVCOMPRESS-236
p225
aVCOMPRESS-235
p226
aVCOMPRESS-234
p227
aVCOMPRESS-233
p228
aVCOMPRESS-232
p229
aVCOMPRESS-231
p230
aVCOMPRESS-230
p231
aVCOMPRESS-229
p232
aVCOMPRESS-228
p233
aVCOMPRESS-227
p234
aVCOMPRESS-226
p235
aVCOMPRESS-225
p236
aVCOMPRESS-224
p237
aVCOMPRESS-223
p238
aVCOMPRESS-222
p239
aVCOMPRESS-221
p240
aVCOMPRESS-220
p241
aVCOMPRESS-219
p242
aVCOMPRESS-218
p243
aVCOMPRESS-217
p244
aVCOMPRESS-216
p245
aVCOMPRESS-215
p246
aVCOMPRESS-214
p247
aVCOMPRESS-213
p248
aVCOMPRESS-212
p249
aVCOMPRESS-211
p250
aVCOMPRESS-210
p251
aVCOMPRESS-209
p252
aVCOMPRESS-208
p253
aVCOMPRESS-207
p254
aVCOMPRESS-206
p255
aVCOMPRESS-205
p256
aVCOMPRESS-204
p257
aVCOMPRESS-203
p258
aVCOMPRESS-202
p259
aVCOMPRESS-201
p260
aVCOMPRESS-200
p261
aVCOMPRESS-199
p262
aVCOMPRESS-198
p263
aVCOMPRESS-197
p264
aVCOMPRESS-196
p265
aVCOMPRESS-195
p266
aVCOMPRESS-194
p267
aVCOMPRESS-193
p268
aVCOMPRESS-192
p269
aVCOMPRESS-191
p270
aVCOMPRESS-190
p271
aVCOMPRESS-189
p272
aVCOMPRESS-188
p273
aVCOMPRESS-187
p274
aVCOMPRESS-186
p275
aVCOMPRESS-185
p276
aVCOMPRESS-184
p277
aVCOMPRESS-183
p278
aVCOMPRESS-182
p279
aVCOMPRESS-181
p280
aVCOMPRESS-180
p281
aVCOMPRESS-179
p282
aVCOMPRESS-178
p283
aVCOMPRESS-177
p284
aVCOMPRESS-176
p285
aVCOMPRESS-175
p286
aVCOMPRESS-174
p287
aVCOMPRESS-173
p288
aVCOMPRESS-172
p289
aVCOMPRESS-171
p290
aVCOMPRESS-170
p291
aVCOMPRESS-169
p292
aVCOMPRESS-168
p293
aVCOMPRESS-167
p294
aVCOMPRESS-166
p295
aVCOMPRESS-165
p296
aVCOMPRESS-164
p297
aVCOMPRESS-163
p298
aVCOMPRESS-162
p299
aVCOMPRESS-161
p300
aVCOMPRESS-160
p301
aVCOMPRESS-159
p302
aVCOMPRESS-158
p303
aVCOMPRESS-157
p304
aVCOMPRESS-156
p305
aVCOMPRESS-155
p306
aVCOMPRESS-154
p307
aVCOMPRESS-153
p308
aVCOMPRESS-152
p309
aVCOMPRESS-151
p310
aVCOMPRESS-150
p311
aVCOMPRESS-149
p312
aVCOMPRESS-148
p313
aVCOMPRESS-147
p314
aVCOMPRESS-146
p315
aVCOMPRESS-145
p316
aVCOMPRESS-144
p317
aVCOMPRESS-143
p318
aVCOMPRESS-142
p319
aVCOMPRESS-141
p320
aVCOMPRESS-140
p321
aVCOMPRESS-139
p322
aVCOMPRESS-138
p323
aVCOMPRESS-137
p324
aVCOMPRESS-136
p325
aVCOMPRESS-135
p326
aVCOMPRESS-134
p327
aVCOMPRESS-133
p328
aVCOMPRESS-132
p329
aVCOMPRESS-131
p330
aVCOMPRESS-130
p331
aVCOMPRESS-129
p332
aVCOMPRESS-128
p333
aVCOMPRESS-127
p334
aVCOMPRESS-126
p335
aVCOMPRESS-125
p336
aVCOMPRESS-124
p337
aVCOMPRESS-123
p338
aVCOMPRESS-122
p339
aVCOMPRESS-121
p340
aVCOMPRESS-120
p341
aVCOMPRESS-119
p342
aVCOMPRESS-118
p343
aVCOMPRESS-117
p344
aVCOMPRESS-116
p345
aVCOMPRESS-115
p346
aVCOMPRESS-114
p347
aVCOMPRESS-113
p348
aVCOMPRESS-112
p349
aVCOMPRESS-111
p350
aVCOMPRESS-110
p351
aVCOMPRESS-109
p352
aVCOMPRESS-108
p353
aVCOMPRESS-107
p354
aVCOMPRESS-106
p355
aVCOMPRESS-105
p356
aVCOMPRESS-104
p357
aVCOMPRESS-103
p358
aVCOMPRESS-102
p359
aVCOMPRESS-101
p360
aVCOMPRESS-100
p361
aVCOMPRESS-99
p362
aVCOMPRESS-98
p363
aVCOMPRESS-97
p364
aVCOMPRESS-96
p365
aVCOMPRESS-95
p366
aVCOMPRESS-94
p367
aVCOMPRESS-93
p368
aVCOMPRESS-92
p369
aVCOMPRESS-91
p370
aVCOMPRESS-90
p371
aVCOMPRESS-89
p372
aVCOMPRESS-88
p373
aVCOMPRESS-87
p374
aVCOMPRESS-86
p375
aVCOMPRESS-85
p376
aVCOMPRESS-84
p377
aVCOMPRESS-83
p378
aVCOMPRESS-82
p379
aVCOMPRESS-81
p380
aVCOMPRESS-80
p381
aVCOMPRESS-79
p382
aVCOMPRESS-78
p383
aVCOMPRESS-77
p384
aVCOMPRESS-75
p385
aVCOMPRESS-74
p386
aVCOMPRESS-73
p387
aVCOMPRESS-72
p388
aVCOMPRESS-71
p389
aVCOMPRESS-70
p390
aVCOMPRESS-69
p391
aVCOMPRESS-68
p392
aVCOMPRESS-67
p393
aVCOMPRESS-66
p394
aVCOMPRESS-65
p395
aVCOMPRESS-64
p396
aVCOMPRESS-63
p397
aVCOMPRESS-62
p398
aVCOMPRESS-61
p399
aVCOMPRESS-60
p400
aVCOMPRESS-59
p401
aVCOMPRESS-58
p402
aVCOMPRESS-57
p403
aVCOMPRESS-56
p404
aVCOMPRESS-55
p405
aVCOMPRESS-54
p406
aVCOMPRESS-53
p407
aVCOMPRESS-52
p408
aVCOMPRESS-51
p409
aVCOMPRESS-50
p410
aVCOMPRESS-49
p411
aVCOMPRESS-48
p412
aVCOMPRESS-47
p413
aVCOMPRESS-46
p414
aVCOMPRESS-45
p415
aVCOMPRESS-44
p416
aVCOMPRESS-43
p417
aVCOMPRESS-42
p418
aVCOMPRESS-41
p419
aVCOMPRESS-40
p420
aVCOMPRESS-39
p421
aVCOMPRESS-38
p422
aVCOMPRESS-37
p423
aVCOMPRESS-36
p424
aVCOMPRESS-35
p425
aVCOMPRESS-34
p426
aVCOMPRESS-33
p427
aVCOMPRESS-32
p428
aVCOMPRESS-31
p429
aVCOMPRESS-30
p430
aVCOMPRESS-29
p431
aVCOMPRESS-28
p432
aVCOMPRESS-27
p433
aVCOMPRESS-26
p434
aVCOMPRESS-25
p435
aVCOMPRESS-24
p436
aVCOMPRESS-23
p437
aVCOMPRESS-22
p438
aVCOMPRESS-21
p439
aVCOMPRESS-20
p440
aVCOMPRESS-19
p441
aVCOMPRESS-18
p442
aVCOMPRESS-17
p443
aVCOMPRESS-16
p444
aVCOMPRESS-15
p445
aVCOMPRESS-14
p446
aVCOMPRESS-13
p447
aVCOMPRESS-12
p448
aVCOMPRESS-11
p449
aVCOMPRESS-10
p450
aVCOMPRESS-9
p451
aVCOMPRESS-8
p452
aVCOMPRESS-7
p453
aVCOMPRESS-6
p454
aVCOMPRESS-5
p455
aVCOMPRESS-4
p456
aVCOMPRESS-3
p457
aVCOMPRESS-2
p458
aVCOMPRESS-1
p459
a.