(lp0
VCONFIGURATION-709
p1
aVCONFIGURATION-708
p2
aVCONFIGURATION-707
p3
aVCONFIGURATION-706
p4
aVCONFIGURATION-705
p5
aVCONFIGURATION-704
p6
aVCONFIGURATION-703
p7
aVCONFIGURATION-702
p8
aVCONFIGURATION-701
p9
aVCONFIGURATION-700
p10
aVCONFIGURATION-699
p11
aVCONFIGURATION-698
p12
aVCONFIGURATION-697
p13
aVCONFIGURATION-696
p14
aVCONFIGURATION-695
p15
aVCONFIGURATION-694
p16
aVCONFIGURATION-693
p17
aVCONFIGURATION-692
p18
aVCONFIGURATION-691
p19
aVCONFIGURATION-690
p20
aVCONFIGURATION-689
p21
aVCONFIGURATION-688
p22
aVCONFIGURATION-687
p23
aVCONFIGURATION-686
p24
aVCONFIGURATION-685
p25
aVCONFIGURATION-684
p26
aVCONFIGURATION-683
p27
aVCONFIGURATION-682
p28
aVCONFIGURATION-681
p29
aVCONFIGURATION-680
p30
aVCONFIGURATION-679
p31
aVCONFIGURATION-678
p32
aVCONFIGURATION-677
p33
aVCONFIGURATION-676
p34
aVCONFIGURATION-675
p35
aVCONFIGURATION-674
p36
aVCONFIGURATION-673
p37
aVCONFIGURATION-672
p38
aVCONFIGURATION-671
p39
aVCONFIGURATION-670
p40
aVCONFIGURATION-669
p41
aVCONFIGURATION-668
p42
aVCONFIGURATION-667
p43
aVCONFIGURATION-666
p44
aVCONFIGURATION-665
p45
aVCONFIGURATION-664
p46
aVCONFIGURATION-663
p47
aVCONFIGURATION-662
p48
aVCONFIGURATION-661
p49
aVCONFIGURATION-660
p50
aVCONFIGURATION-658
p51
aVCONFIGURATION-656
p52
aVCONFIGURATION-655
p53
aVCONFIGURATION-654
p54
aVCONFIGURATION-653
p55
aVCONFIGURATION-652
p56
aVCONFIGURATION-651
p57
aVCONFIGURATION-650
p58
aVCONFIGURATION-649
p59
aVCONFIGURATION-648
p60
aVCONFIGURATION-647
p61
aVCONFIGURATION-646
p62
aVCONFIGURATION-645
p63
aVCONFIGURATION-644
p64
aVCONFIGURATION-643
p65
aVCONFIGURATION-642
p66
aVCONFIGURATION-641
p67
aVCONFIGURATION-640
p68
aVCONFIGURATION-639
p69
aVCONFIGURATION-638
p70
aVCONFIGURATION-637
p71
aVCONFIGURATION-636
p72
aVCONFIGURATION-635
p73
aVCONFIGURATION-634
p74
aVCONFIGURATION-633
p75
aVCONFIGURATION-632
p76
aVCONFIGURATION-631
p77
aVCONFIGURATION-630
p78
aVCONFIGURATION-629
p79
aVCONFIGURATION-628
p80
aVCONFIGURATION-627
p81
aVCONFIGURATION-626
p82
aVCONFIGURATION-625
p83
aVCONFIGURATION-624
p84
aVCONFIGURATION-623
p85
aVCONFIGURATION-622
p86
aVCONFIGURATION-621
p87
aVCONFIGURATION-620
p88
aVCONFIGURATION-619
p89
aVCONFIGURATION-618
p90
aVCONFIGURATION-617
p91
aVCONFIGURATION-616
p92
aVCONFIGURATION-615
p93
aVCONFIGURATION-614
p94
aVCONFIGURATION-613
p95
aVCONFIGURATION-612
p96
aVCONFIGURATION-611
p97
aVCONFIGURATION-610
p98
aVCONFIGURATION-609
p99
aVCONFIGURATION-608
p100
aVCONFIGURATION-607
p101
aVCONFIGURATION-606
p102
aVCONFIGURATION-605
p103
aVCONFIGURATION-604
p104
aVCONFIGURATION-602
p105
aVCONFIGURATION-601
p106
aVCONFIGURATION-600
p107
aVCONFIGURATION-599
p108
aVCONFIGURATION-598
p109
aVCONFIGURATION-597
p110
aVCONFIGURATION-596
p111
aVCONFIGURATION-595
p112
aVCONFIGURATION-594
p113
aVCONFIGURATION-593
p114
aVCONFIGURATION-592
p115
aVCONFIGURATION-591
p116
aVCONFIGURATION-590
p117
aVCONFIGURATION-589
p118
aVCONFIGURATION-588
p119
aVCONFIGURATION-587
p120
aVCONFIGURATION-586
p121
aVCONFIGURATION-585
p122
aVCONFIGURATION-584
p123
aVCONFIGURATION-583
p124
aVCONFIGURATION-582
p125
aVCONFIGURATION-581
p126
aVCONFIGURATION-580
p127
aVCONFIGURATION-579
p128
aVCONFIGURATION-578
p129
aVCONFIGURATION-577
p130
aVCONFIGURATION-576
p131
aVCONFIGURATION-575
p132
aVCONFIGURATION-574
p133
aVCONFIGURATION-573
p134
aVCONFIGURATION-572
p135
aVCONFIGURATION-571
p136
aVCONFIGURATION-570
p137
aVCONFIGURATION-569
p138
aVCONFIGURATION-568
p139
aVCONFIGURATION-567
p140
aVCONFIGURATION-566
p141
aVCONFIGURATION-565
p142
aVCONFIGURATION-564
p143
aVCONFIGURATION-563
p144
aVCONFIGURATION-562
p145
aVCONFIGURATION-561
p146
aVCONFIGURATION-560
p147
aVCONFIGURATION-559
p148
aVCONFIGURATION-558
p149
aVCONFIGURATION-557
p150
aVCONFIGURATION-556
p151
aVCONFIGURATION-555
p152
aVCONFIGURATION-554
p153
aVCONFIGURATION-553
p154
aVCONFIGURATION-552
p155
aVCONFIGURATION-551
p156
aVCONFIGURATION-550
p157
aVCONFIGURATION-549
p158
aVCONFIGURATION-548
p159
aVCONFIGURATION-547
p160
aVCONFIGURATION-546
p161
aVCONFIGURATION-545
p162
aVCONFIGURATION-544
p163
aVCONFIGURATION-543
p164
aVCONFIGURATION-542
p165
aVCONFIGURATION-541
p166
aVCONFIGURATION-540
p167
aVCONFIGURATION-539
p168
aVCONFIGURATION-538
p169
aVCONFIGURATION-537
p170
aVCONFIGURATION-536
p171
aVCONFIGURATION-535
p172
aVCONFIGURATION-534
p173
aVCONFIGURATION-533
p174
aVCONFIGURATION-532
p175
aVCONFIGURATION-531
p176
aVCONFIGURATION-530
p177
aVCONFIGURATION-529
p178
aVCONFIGURATION-528
p179
aVCONFIGURATION-527
p180
aVCONFIGURATION-526
p181
aVCONFIGURATION-525
p182
aVCONFIGURATION-524
p183
aVCONFIGURATION-523
p184
aVCONFIGURATION-522
p185
aVCONFIGURATION-521
p186
aVCONFIGURATION-520
p187
aVCONFIGURATION-519
p188
aVCONFIGURATION-518
p189
aVCONFIGURATION-517
p190
aVCONFIGURATION-516
p191
aVCONFIGURATION-515
p192
aVCONFIGURATION-514
p193
aVCONFIGURATION-513
p194
aVCONFIGURATION-512
p195
aVCONFIGURATION-511
p196
aVCONFIGURATION-510
p197
aVCONFIGURATION-509
p198
aVCONFIGURATION-508
p199
aVCONFIGURATION-507
p200
aVCONFIGURATION-506
p201
aVCONFIGURATION-505
p202
aVCONFIGURATION-504
p203
aVCONFIGURATION-503
p204
aVCONFIGURATION-502
p205
aVCONFIGURATION-501
p206
aVCONFIGURATION-500
p207
aVCONFIGURATION-499
p208
aVCONFIGURATION-498
p209
aVCONFIGURATION-497
p210
aVCONFIGURATION-496
p211
aVCONFIGURATION-495
p212
aVCONFIGURATION-494
p213
aVCONFIGURATION-493
p214
aVCONFIGURATION-492
p215
aVCONFIGURATION-491
p216
aVCONFIGURATION-490
p217
aVCONFIGURATION-489
p218
aVCONFIGURATION-488
p219
aVCONFIGURATION-487
p220
aVCONFIGURATION-486
p221
aVCONFIGURATION-485
p222
aVCONFIGURATION-484
p223
aVCONFIGURATION-483
p224
aVCONFIGURATION-482
p225
aVCONFIGURATION-481
p226
aVCONFIGURATION-480
p227
aVCONFIGURATION-479
p228
aVCONFIGURATION-478
p229
aVCONFIGURATION-477
p230
aVCONFIGURATION-476
p231
aVCONFIGURATION-475
p232
aVCONFIGURATION-474
p233
aVCONFIGURATION-473
p234
aVCONFIGURATION-472
p235
aVCONFIGURATION-471
p236
aVCONFIGURATION-470
p237
aVCONFIGURATION-469
p238
aVCONFIGURATION-468
p239
aVCONFIGURATION-467
p240
aVCONFIGURATION-466
p241
aVCONFIGURATION-465
p242
aVCONFIGURATION-464
p243
aVCONFIGURATION-463
p244
aVCONFIGURATION-462
p245
aVCONFIGURATION-461
p246
aVCONFIGURATION-460
p247
aVCONFIGURATION-459
p248
aVCONFIGURATION-458
p249
aVCONFIGURATION-457
p250
aVCONFIGURATION-456
p251
aVCONFIGURATION-455
p252
aVCONFIGURATION-454
p253
aVCONFIGURATION-453
p254
aVCONFIGURATION-452
p255
aVCONFIGURATION-451
p256
aVCONFIGURATION-450
p257
aVCONFIGURATION-449
p258
aVCONFIGURATION-448
p259
aVCONFIGURATION-447
p260
aVCONFIGURATION-446
p261
aVCONFIGURATION-445
p262
aVCONFIGURATION-444
p263
aVCONFIGURATION-443
p264
aVCONFIGURATION-442
p265
aVCONFIGURATION-441
p266
aVCONFIGURATION-440
p267
aVCONFIGURATION-439
p268
aVCONFIGURATION-438
p269
aVCONFIGURATION-437
p270
aVCONFIGURATION-436
p271
aVCONFIGURATION-435
p272
aVCONFIGURATION-434
p273
aVCONFIGURATION-433
p274
aVCONFIGURATION-432
p275
aVCONFIGURATION-431
p276
aVCONFIGURATION-430
p277
aVCONFIGURATION-429
p278
aVCONFIGURATION-428
p279
aVCONFIGURATION-427
p280
aVCONFIGURATION-426
p281
aVCONFIGURATION-425
p282
aVCONFIGURATION-424
p283
aVCONFIGURATION-423
p284
aVCONFIGURATION-422
p285
aVCONFIGURATION-421
p286
aVCONFIGURATION-420
p287
aVCONFIGURATION-419
p288
aVCONFIGURATION-418
p289
aVCONFIGURATION-417
p290
aVCONFIGURATION-416
p291
aVCONFIGURATION-415
p292
aVCONFIGURATION-414
p293
aVCONFIGURATION-413
p294
aVCONFIGURATION-412
p295
aVCONFIGURATION-411
p296
aVCONFIGURATION-410
p297
aVCONFIGURATION-409
p298
aVCONFIGURATION-408
p299
aVCONFIGURATION-407
p300
aVCONFIGURATION-406
p301
aVCONFIGURATION-405
p302
aVCONFIGURATION-404
p303
aVCONFIGURATION-403
p304
aVCONFIGURATION-402
p305
aVCONFIGURATION-401
p306
aVCONFIGURATION-400
p307
aVCONFIGURATION-399
p308
aVCONFIGURATION-398
p309
aVCONFIGURATION-397
p310
aVCONFIGURATION-396
p311
aVCONFIGURATION-395
p312
aVCONFIGURATION-394
p313
aVCONFIGURATION-393
p314
aVCONFIGURATION-392
p315
aVCONFIGURATION-391
p316
aVCONFIGURATION-390
p317
aVCONFIGURATION-389
p318
aVCONFIGURATION-388
p319
aVCONFIGURATION-387
p320
aVCONFIGURATION-386
p321
aVCONFIGURATION-385
p322
aVCONFIGURATION-384
p323
aVCONFIGURATION-383
p324
aVCONFIGURATION-382
p325
aVCONFIGURATION-381
p326
aVCONFIGURATION-380
p327
aVCONFIGURATION-379
p328
aVCONFIGURATION-378
p329
aVCONFIGURATION-377
p330
aVCONFIGURATION-376
p331
aVCONFIGURATION-375
p332
aVCONFIGURATION-374
p333
aVCONFIGURATION-373
p334
aVCONFIGURATION-372
p335
aVCONFIGURATION-371
p336
aVCONFIGURATION-370
p337
aVCONFIGURATION-369
p338
aVCONFIGURATION-368
p339
aVCONFIGURATION-367
p340
aVCONFIGURATION-366
p341
aVCONFIGURATION-365
p342
aVCONFIGURATION-364
p343
aVCONFIGURATION-363
p344
aVCONFIGURATION-362
p345
aVCONFIGURATION-361
p346
aVCONFIGURATION-360
p347
aVCONFIGURATION-359
p348
aVCONFIGURATION-358
p349
aVCONFIGURATION-357
p350
aVCONFIGURATION-356
p351
aVCONFIGURATION-355
p352
aVCONFIGURATION-354
p353
aVCONFIGURATION-353
p354
aVCONFIGURATION-352
p355
aVCONFIGURATION-351
p356
aVCONFIGURATION-350
p357
aVCONFIGURATION-349
p358
aVCONFIGURATION-348
p359
aVCONFIGURATION-347
p360
aVCONFIGURATION-346
p361
aVCONFIGURATION-345
p362
aVCONFIGURATION-344
p363
aVCONFIGURATION-343
p364
aVCONFIGURATION-342
p365
aVCONFIGURATION-341
p366
aVCONFIGURATION-340
p367
aVCONFIGURATION-339
p368
aVCONFIGURATION-338
p369
aVCONFIGURATION-337
p370
aVCONFIGURATION-336
p371
aVCONFIGURATION-335
p372
aVCONFIGURATION-334
p373
aVCONFIGURATION-333
p374
aVCONFIGURATION-332
p375
aVCONFIGURATION-331
p376
aVCONFIGURATION-330
p377
aVCONFIGURATION-329
p378
aVCONFIGURATION-328
p379
aVCONFIGURATION-327
p380
aVCONFIGURATION-326
p381
aVCONFIGURATION-325
p382
aVCONFIGURATION-324
p383
aVCONFIGURATION-323
p384
aVCONFIGURATION-322
p385
aVCONFIGURATION-321
p386
aVCONFIGURATION-320
p387
aVCONFIGURATION-319
p388
aVCONFIGURATION-318
p389
aVCONFIGURATION-317
p390
aVCONFIGURATION-316
p391
aVCONFIGURATION-315
p392
aVCONFIGURATION-314
p393
aVCONFIGURATION-313
p394
aVCONFIGURATION-312
p395
aVCONFIGURATION-311
p396
aVCONFIGURATION-310
p397
aVCONFIGURATION-309
p398
aVCONFIGURATION-308
p399
aVCONFIGURATION-307
p400
aVCONFIGURATION-306
p401
aVCONFIGURATION-305
p402
aVCONFIGURATION-304
p403
aVCONFIGURATION-303
p404
aVCONFIGURATION-302
p405
aVCONFIGURATION-301
p406
aVCONFIGURATION-300
p407
aVCONFIGURATION-299
p408
aVCONFIGURATION-298
p409
aVCONFIGURATION-297
p410
aVCONFIGURATION-296
p411
aVCONFIGURATION-295
p412
aVCONFIGURATION-294
p413
aVCONFIGURATION-293
p414
aVCONFIGURATION-292
p415
aVCONFIGURATION-291
p416
aVCONFIGURATION-290
p417
aVCONFIGURATION-289
p418
aVCONFIGURATION-288
p419
aVCONFIGURATION-287
p420
aVCONFIGURATION-286
p421
aVCONFIGURATION-285
p422
aVCONFIGURATION-284
p423
aVCONFIGURATION-283
p424
aVCONFIGURATION-282
p425
aVCONFIGURATION-281
p426
aVCONFIGURATION-280
p427
aVCONFIGURATION-279
p428
aVCONFIGURATION-278
p429
aVCONFIGURATION-277
p430
aVCONFIGURATION-276
p431
aVCONFIGURATION-275
p432
aVCONFIGURATION-274
p433
aVCONFIGURATION-273
p434
aVCONFIGURATION-272
p435
aVCONFIGURATION-271
p436
aVCONFIGURATION-270
p437
aVCONFIGURATION-269
p438
aVCONFIGURATION-268
p439
aVCONFIGURATION-267
p440
aVCONFIGURATION-266
p441
aVCONFIGURATION-265
p442
aVCONFIGURATION-264
p443
aVCONFIGURATION-263
p444
aVCONFIGURATION-262
p445
aVCONFIGURATION-261
p446
aVCONFIGURATION-260
p447
aVCONFIGURATION-259
p448
aVCONFIGURATION-258
p449
aVCONFIGURATION-257
p450
aVCONFIGURATION-256
p451
aVCONFIGURATION-255
p452
aVCONFIGURATION-254
p453
aVCONFIGURATION-253
p454
aVCONFIGURATION-252
p455
aVCONFIGURATION-251
p456
aVCONFIGURATION-250
p457
aVCONFIGURATION-249
p458
aVCONFIGURATION-248
p459
aVCONFIGURATION-247
p460
aVCONFIGURATION-246
p461
aVCONFIGURATION-245
p462
aVCONFIGURATION-244
p463
aVCONFIGURATION-243
p464
aVCONFIGURATION-242
p465
aVCONFIGURATION-241
p466
aVCONFIGURATION-240
p467
aVCONFIGURATION-239
p468
aVCONFIGURATION-238
p469
aVCONFIGURATION-237
p470
aVCONFIGURATION-236
p471
aVCONFIGURATION-235
p472
aVCONFIGURATION-234
p473
aVCONFIGURATION-233
p474
aVCONFIGURATION-232
p475
aVCONFIGURATION-231
p476
aVCONFIGURATION-230
p477
aVCONFIGURATION-229
p478
aVCONFIGURATION-228
p479
aVCONFIGURATION-227
p480
aVCONFIGURATION-226
p481
aVCONFIGURATION-225
p482
aVCONFIGURATION-224
p483
aVCONFIGURATION-223
p484
aVCONFIGURATION-222
p485
aVCONFIGURATION-221
p486
aVCONFIGURATION-220
p487
aVCONFIGURATION-219
p488
aVCONFIGURATION-218
p489
aVCONFIGURATION-217
p490
aVCONFIGURATION-216
p491
aVCONFIGURATION-215
p492
aVCONFIGURATION-214
p493
aVCONFIGURATION-213
p494
aVCONFIGURATION-212
p495
aVCONFIGURATION-211
p496
aVCONFIGURATION-210
p497
aVCONFIGURATION-209
p498
aVCONFIGURATION-208
p499
aVCONFIGURATION-207
p500
aVCONFIGURATION-206
p501
aVCONFIGURATION-205
p502
aVCONFIGURATION-204
p503
aVCONFIGURATION-203
p504
aVCONFIGURATION-202
p505
aVCONFIGURATION-201
p506
aVCONFIGURATION-200
p507
aVCONFIGURATION-199
p508
aVCONFIGURATION-198
p509
aVCONFIGURATION-197
p510
aVCONFIGURATION-196
p511
aVCONFIGURATION-195
p512
aVCONFIGURATION-194
p513
aVCONFIGURATION-193
p514
aVCONFIGURATION-192
p515
aVCONFIGURATION-191
p516
aVCONFIGURATION-190
p517
aVCONFIGURATION-189
p518
aVCONFIGURATION-188
p519
aVCONFIGURATION-187
p520
aVCONFIGURATION-186
p521
aVCONFIGURATION-185
p522
aVCONFIGURATION-184
p523
aVCONFIGURATION-183
p524
aVCONFIGURATION-182
p525
aVCONFIGURATION-181
p526
aVCONFIGURATION-180
p527
aVCONFIGURATION-179
p528
aVCONFIGURATION-178
p529
aVCONFIGURATION-177
p530
aVCONFIGURATION-176
p531
aVCONFIGURATION-175
p532
aVCONFIGURATION-174
p533
aVCONFIGURATION-173
p534
aVCONFIGURATION-172
p535
aVCONFIGURATION-171
p536
aVCONFIGURATION-170
p537
aVCONFIGURATION-169
p538
aVCONFIGURATION-168
p539
aVCONFIGURATION-167
p540
aVCONFIGURATION-166
p541
aVCONFIGURATION-165
p542
aVCONFIGURATION-164
p543
aVCONFIGURATION-163
p544
aVCONFIGURATION-162
p545
aVCONFIGURATION-161
p546
aVCONFIGURATION-160
p547
aVCONFIGURATION-159
p548
aVCONFIGURATION-158
p549
aVCONFIGURATION-157
p550
aVCONFIGURATION-156
p551
aVCONFIGURATION-155
p552
aVCONFIGURATION-154
p553
aVCONFIGURATION-153
p554
aVCONFIGURATION-152
p555
aVCONFIGURATION-151
p556
aVCONFIGURATION-150
p557
aVCONFIGURATION-149
p558
aVCONFIGURATION-148
p559
aVCONFIGURATION-147
p560
aVCONFIGURATION-146
p561
aVCONFIGURATION-145
p562
aVCONFIGURATION-144
p563
aVCONFIGURATION-143
p564
aVCONFIGURATION-142
p565
aVCONFIGURATION-141
p566
aVCONFIGURATION-140
p567
aVCONFIGURATION-139
p568
aVCONFIGURATION-138
p569
aVCONFIGURATION-137
p570
aVCONFIGURATION-136
p571
aVCONFIGURATION-135
p572
aVCONFIGURATION-134
p573
aVCONFIGURATION-133
p574
aVCONFIGURATION-132
p575
aVCONFIGURATION-131
p576
aVCONFIGURATION-130
p577
aVCONFIGURATION-129
p578
aVCONFIGURATION-128
p579
aVCONFIGURATION-127
p580
aVCONFIGURATION-126
p581
aVCONFIGURATION-125
p582
aVCONFIGURATION-124
p583
aVCONFIGURATION-123
p584
aVCONFIGURATION-122
p585
aVCONFIGURATION-121
p586
aVCONFIGURATION-120
p587
aVCONFIGURATION-119
p588
aVCONFIGURATION-118
p589
aVCONFIGURATION-117
p590
aVCONFIGURATION-116
p591
aVCONFIGURATION-115
p592
aVCONFIGURATION-114
p593
aVCONFIGURATION-113
p594
aVCONFIGURATION-112
p595
aVCONFIGURATION-111
p596
aVCONFIGURATION-110
p597
aVCONFIGURATION-109
p598
aVCONFIGURATION-108
p599
aVCONFIGURATION-107
p600
aVCONFIGURATION-106
p601
aVCONFIGURATION-105
p602
aVCONFIGURATION-104
p603
aVCONFIGURATION-103
p604
aVCONFIGURATION-102
p605
aVCONFIGURATION-101
p606
aVCONFIGURATION-100
p607
aVCONFIGURATION-99
p608
aVCONFIGURATION-98
p609
aVCONFIGURATION-97
p610
aVCONFIGURATION-96
p611
aVCONFIGURATION-95
p612
aVCONFIGURATION-94
p613
aVCONFIGURATION-93
p614
aVCONFIGURATION-92
p615
aVCONFIGURATION-91
p616
aVCONFIGURATION-90
p617
aVCONFIGURATION-89
p618
aVCONFIGURATION-88
p619
aVCONFIGURATION-87
p620
aVCONFIGURATION-86
p621
aVCONFIGURATION-85
p622
aVCONFIGURATION-84
p623
aVCONFIGURATION-83
p624
aVCONFIGURATION-82
p625
aVCONFIGURATION-81
p626
aVCONFIGURATION-80
p627
aVCONFIGURATION-79
p628
aVCONFIGURATION-78
p629
aVCONFIGURATION-77
p630
aVCONFIGURATION-76
p631
aVCONFIGURATION-75
p632
aVCONFIGURATION-74
p633
aVCONFIGURATION-73
p634
aVCONFIGURATION-72
p635
aVCONFIGURATION-71
p636
aVCONFIGURATION-70
p637
aVCONFIGURATION-69
p638
aVCONFIGURATION-68
p639
aVCONFIGURATION-67
p640
aVCONFIGURATION-66
p641
aVCONFIGURATION-65
p642
aVCONFIGURATION-64
p643
aVCONFIGURATION-63
p644
aVCONFIGURATION-62
p645
aVCONFIGURATION-61
p646
aVCONFIGURATION-60
p647
aVCONFIGURATION-59
p648
aVCONFIGURATION-58
p649
aVCONFIGURATION-57
p650
aVCONFIGURATION-56
p651
aVCONFIGURATION-55
p652
aVCONFIGURATION-54
p653
aVCONFIGURATION-53
p654
aVCONFIGURATION-52
p655
aVCONFIGURATION-51
p656
aVCONFIGURATION-50
p657
aVCONFIGURATION-49
p658
aVCONFIGURATION-48
p659
aVCONFIGURATION-47
p660
aVCONFIGURATION-46
p661
aVCONFIGURATION-45
p662
aVCONFIGURATION-44
p663
aVCONFIGURATION-43
p664
aVCONFIGURATION-42
p665
aVCONFIGURATION-41
p666
aVCONFIGURATION-40
p667
aVCONFIGURATION-39
p668
aVCONFIGURATION-38
p669
aVCONFIGURATION-37
p670
aVCONFIGURATION-36
p671
aVCONFIGURATION-35
p672
aVCONFIGURATION-34
p673
aVCONFIGURATION-33
p674
aVCONFIGURATION-32
p675
aVCONFIGURATION-31
p676
aVCONFIGURATION-30
p677
aVCONFIGURATION-29
p678
aVCONFIGURATION-28
p679
aVCONFIGURATION-27
p680
aVCONFIGURATION-26
p681
aVCONFIGURATION-25
p682
aVCONFIGURATION-24
p683
aVCONFIGURATION-23
p684
aVCONFIGURATION-22
p685
aVCONFIGURATION-21
p686
aVCONFIGURATION-20
p687
aVCONFIGURATION-19
p688
aVCONFIGURATION-18
p689
aVCONFIGURATION-17
p690
aVCONFIGURATION-16
p691
aVCONFIGURATION-15
p692
aVCONFIGURATION-14
p693
aVCONFIGURATION-13
p694
aVCONFIGURATION-12
p695
aVCONFIGURATION-11
p696
aVCONFIGURATION-10
p697
aVCONFIGURATION-9
p698
aVCONFIGURATION-8
p699
aVCONFIGURATION-7
p700
aVCONFIGURATION-6
p701
aVCONFIGURATION-5
p702
aVCONFIGURATION-4
p703
aVCONFIGURATION-3
p704
aVCONFIGURATION-2
p705
aVCONFIGURATION-1
p706
a.