(lp0
VCONNECTORS-1520
p1
aVCONNECTORS-1519
p2
aVCONNECTORS-1518
p3
aVCONNECTORS-1517
p4
aVCONNECTORS-1516
p5
aVCONNECTORS-1515
p6
aVCONNECTORS-1514
p7
aVCONNECTORS-1513
p8
aVCONNECTORS-1512
p9
aVCONNECTORS-1511
p10
aVCONNECTORS-1510
p11
aVCONNECTORS-1509
p12
aVCONNECTORS-1508
p13
aVCONNECTORS-1507
p14
aVCONNECTORS-1506
p15
aVCONNECTORS-1505
p16
aVCONNECTORS-1504
p17
aVCONNECTORS-1503
p18
aVCONNECTORS-1502
p19
aVCONNECTORS-1501
p20
aVCONNECTORS-1500
p21
aVCONNECTORS-1499
p22
aVCONNECTORS-1498
p23
aVCONNECTORS-1497
p24
aVCONNECTORS-1496
p25
aVCONNECTORS-1495
p26
aVCONNECTORS-1494
p27
aVCONNECTORS-1493
p28
aVCONNECTORS-1492
p29
aVCONNECTORS-1491
p30
aVCONNECTORS-1490
p31
aVCONNECTORS-1489
p32
aVCONNECTORS-1488
p33
aVCONNECTORS-1487
p34
aVCONNECTORS-1486
p35
aVCONNECTORS-1485
p36
aVCONNECTORS-1484
p37
aVCONNECTORS-1483
p38
aVCONNECTORS-1482
p39
aVCONNECTORS-1481
p40
aVCONNECTORS-1480
p41
aVCONNECTORS-1479
p42
aVCONNECTORS-1478
p43
aVCONNECTORS-1477
p44
aVCONNECTORS-1476
p45
aVCONNECTORS-1475
p46
aVCONNECTORS-1474
p47
aVCONNECTORS-1473
p48
aVCONNECTORS-1472
p49
aVCONNECTORS-1471
p50
aVCONNECTORS-1470
p51
aVCONNECTORS-1469
p52
aVCONNECTORS-1468
p53
aVCONNECTORS-1467
p54
aVCONNECTORS-1466
p55
aVCONNECTORS-1465
p56
aVCONNECTORS-1464
p57
aVCONNECTORS-1463
p58
aVCONNECTORS-1462
p59
aVCONNECTORS-1461
p60
aVCONNECTORS-1460
p61
aVCONNECTORS-1459
p62
aVCONNECTORS-1458
p63
aVCONNECTORS-1457
p64
aVCONNECTORS-1456
p65
aVCONNECTORS-1455
p66
aVCONNECTORS-1454
p67
aVCONNECTORS-1453
p68
aVCONNECTORS-1452
p69
aVCONNECTORS-1451
p70
aVCONNECTORS-1450
p71
aVCONNECTORS-1449
p72
aVCONNECTORS-1448
p73
aVCONNECTORS-1447
p74
aVCONNECTORS-1446
p75
aVCONNECTORS-1445
p76
aVCONNECTORS-1444
p77
aVCONNECTORS-1443
p78
aVCONNECTORS-1442
p79
aVCONNECTORS-1441
p80
aVCONNECTORS-1440
p81
aVCONNECTORS-1439
p82
aVCONNECTORS-1438
p83
aVCONNECTORS-1437
p84
aVCONNECTORS-1436
p85
aVCONNECTORS-1435
p86
aVCONNECTORS-1434
p87
aVCONNECTORS-1433
p88
aVCONNECTORS-1432
p89
aVCONNECTORS-1431
p90
aVCONNECTORS-1430
p91
aVCONNECTORS-1429
p92
aVCONNECTORS-1428
p93
aVCONNECTORS-1427
p94
aVCONNECTORS-1426
p95
aVCONNECTORS-1425
p96
aVCONNECTORS-1424
p97
aVCONNECTORS-1423
p98
aVCONNECTORS-1422
p99
aVCONNECTORS-1421
p100
aVCONNECTORS-1420
p101
aVCONNECTORS-1419
p102
aVCONNECTORS-1418
p103
aVCONNECTORS-1417
p104
aVCONNECTORS-1416
p105
aVCONNECTORS-1415
p106
aVCONNECTORS-1414
p107
aVCONNECTORS-1413
p108
aVCONNECTORS-1412
p109
aVCONNECTORS-1411
p110
aVCONNECTORS-1410
p111
aVCONNECTORS-1409
p112
aVCONNECTORS-1408
p113
aVCONNECTORS-1407
p114
aVCONNECTORS-1406
p115
aVCONNECTORS-1405
p116
aVCONNECTORS-1404
p117
aVCONNECTORS-1403
p118
aVCONNECTORS-1402
p119
aVCONNECTORS-1401
p120
aVCONNECTORS-1400
p121
aVCONNECTORS-1399
p122
aVCONNECTORS-1398
p123
aVCONNECTORS-1397
p124
aVCONNECTORS-1396
p125
aVCONNECTORS-1395
p126
aVCONNECTORS-1394
p127
aVCONNECTORS-1393
p128
aVCONNECTORS-1392
p129
aVCONNECTORS-1391
p130
aVCONNECTORS-1390
p131
aVCONNECTORS-1389
p132
aVCONNECTORS-1388
p133
aVCONNECTORS-1387
p134
aVCONNECTORS-1386
p135
aVCONNECTORS-1385
p136
aVCONNECTORS-1384
p137
aVCONNECTORS-1383
p138
aVCONNECTORS-1382
p139
aVCONNECTORS-1381
p140
aVCONNECTORS-1380
p141
aVCONNECTORS-1379
p142
aVCONNECTORS-1378
p143
aVCONNECTORS-1377
p144
aVCONNECTORS-1376
p145
aVCONNECTORS-1375
p146
aVCONNECTORS-1374
p147
aVCONNECTORS-1373
p148
aVCONNECTORS-1372
p149
aVCONNECTORS-1371
p150
aVCONNECTORS-1370
p151
aVCONNECTORS-1369
p152
aVCONNECTORS-1368
p153
aVCONNECTORS-1367
p154
aVCONNECTORS-1366
p155
aVCONNECTORS-1365
p156
aVCONNECTORS-1364
p157
aVCONNECTORS-1363
p158
aVCONNECTORS-1362
p159
aVCONNECTORS-1361
p160
aVCONNECTORS-1360
p161
aVCONNECTORS-1359
p162
aVCONNECTORS-1358
p163
aVCONNECTORS-1357
p164
aVCONNECTORS-1356
p165
aVCONNECTORS-1355
p166
aVCONNECTORS-1354
p167
aVCONNECTORS-1353
p168
aVCONNECTORS-1352
p169
aVCONNECTORS-1351
p170
aVCONNECTORS-1350
p171
aVCONNECTORS-1349
p172
aVCONNECTORS-1348
p173
aVCONNECTORS-1347
p174
aVCONNECTORS-1346
p175
aVCONNECTORS-1345
p176
aVCONNECTORS-1344
p177
aVCONNECTORS-1343
p178
aVCONNECTORS-1342
p179
aVCONNECTORS-1341
p180
aVCONNECTORS-1340
p181
aVCONNECTORS-1339
p182
aVCONNECTORS-1338
p183
aVCONNECTORS-1337
p184
aVCONNECTORS-1336
p185
aVCONNECTORS-1335
p186
aVCONNECTORS-1334
p187
aVCONNECTORS-1333
p188
aVCONNECTORS-1332
p189
aVCONNECTORS-1331
p190
aVCONNECTORS-1330
p191
aVCONNECTORS-1329
p192
aVCONNECTORS-1328
p193
aVCONNECTORS-1327
p194
aVCONNECTORS-1326
p195
aVCONNECTORS-1325
p196
aVCONNECTORS-1324
p197
aVCONNECTORS-1323
p198
aVCONNECTORS-1322
p199
aVCONNECTORS-1321
p200
aVCONNECTORS-1320
p201
aVCONNECTORS-1319
p202
aVCONNECTORS-1318
p203
aVCONNECTORS-1317
p204
aVCONNECTORS-1316
p205
aVCONNECTORS-1315
p206
aVCONNECTORS-1314
p207
aVCONNECTORS-1313
p208
aVCONNECTORS-1312
p209
aVCONNECTORS-1311
p210
aVCONNECTORS-1310
p211
aVCONNECTORS-1309
p212
aVCONNECTORS-1308
p213
aVCONNECTORS-1307
p214
aVCONNECTORS-1306
p215
aVCONNECTORS-1305
p216
aVCONNECTORS-1304
p217
aVCONNECTORS-1303
p218
aVCONNECTORS-1302
p219
aVCONNECTORS-1301
p220
aVCONNECTORS-1300
p221
aVCONNECTORS-1299
p222
aVCONNECTORS-1298
p223
aVCONNECTORS-1297
p224
aVCONNECTORS-1296
p225
aVCONNECTORS-1295
p226
aVCONNECTORS-1294
p227
aVCONNECTORS-1293
p228
aVCONNECTORS-1292
p229
aVCONNECTORS-1291
p230
aVCONNECTORS-1290
p231
aVCONNECTORS-1289
p232
aVCONNECTORS-1288
p233
aVCONNECTORS-1287
p234
aVCONNECTORS-1286
p235
aVCONNECTORS-1285
p236
aVCONNECTORS-1284
p237
aVCONNECTORS-1283
p238
aVCONNECTORS-1282
p239
aVCONNECTORS-1281
p240
aVCONNECTORS-1280
p241
aVCONNECTORS-1279
p242
aVCONNECTORS-1278
p243
aVCONNECTORS-1277
p244
aVCONNECTORS-1276
p245
aVCONNECTORS-1275
p246
aVCONNECTORS-1274
p247
aVCONNECTORS-1273
p248
aVCONNECTORS-1272
p249
aVCONNECTORS-1271
p250
aVCONNECTORS-1270
p251
aVCONNECTORS-1269
p252
aVCONNECTORS-1268
p253
aVCONNECTORS-1267
p254
aVCONNECTORS-1266
p255
aVCONNECTORS-1265
p256
aVCONNECTORS-1264
p257
aVCONNECTORS-1263
p258
aVCONNECTORS-1262
p259
aVCONNECTORS-1261
p260
aVCONNECTORS-1260
p261
aVCONNECTORS-1259
p262
aVCONNECTORS-1258
p263
aVCONNECTORS-1257
p264
aVCONNECTORS-1256
p265
aVCONNECTORS-1255
p266
aVCONNECTORS-1254
p267
aVCONNECTORS-1253
p268
aVCONNECTORS-1252
p269
aVCONNECTORS-1251
p270
aVCONNECTORS-1250
p271
aVCONNECTORS-1249
p272
aVCONNECTORS-1248
p273
aVCONNECTORS-1247
p274
aVCONNECTORS-1246
p275
aVCONNECTORS-1245
p276
aVCONNECTORS-1244
p277
aVCONNECTORS-1243
p278
aVCONNECTORS-1242
p279
aVCONNECTORS-1241
p280
aVCONNECTORS-1240
p281
aVCONNECTORS-1239
p282
aVCONNECTORS-1238
p283
aVCONNECTORS-1237
p284
aVCONNECTORS-1236
p285
aVCONNECTORS-1235
p286
aVCONNECTORS-1234
p287
aVCONNECTORS-1233
p288
aVCONNECTORS-1232
p289
aVCONNECTORS-1231
p290
aVCONNECTORS-1230
p291
aVCONNECTORS-1229
p292
aVCONNECTORS-1228
p293
aVCONNECTORS-1227
p294
aVCONNECTORS-1226
p295
aVCONNECTORS-1225
p296
aVCONNECTORS-1224
p297
aVCONNECTORS-1223
p298
aVCONNECTORS-1222
p299
aVCONNECTORS-1221
p300
aVCONNECTORS-1220
p301
aVCONNECTORS-1219
p302
aVCONNECTORS-1218
p303
aVCONNECTORS-1217
p304
aVCONNECTORS-1216
p305
aVCONNECTORS-1215
p306
aVCONNECTORS-1214
p307
aVCONNECTORS-1213
p308
aVCONNECTORS-1212
p309
aVCONNECTORS-1211
p310
aVCONNECTORS-1210
p311
aVCONNECTORS-1209
p312
aVCONNECTORS-1208
p313
aVCONNECTORS-1207
p314
aVCONNECTORS-1206
p315
aVCONNECTORS-1205
p316
aVCONNECTORS-1204
p317
aVCONNECTORS-1203
p318
aVCONNECTORS-1202
p319
aVCONNECTORS-1201
p320
aVCONNECTORS-1200
p321
aVCONNECTORS-1199
p322
aVCONNECTORS-1198
p323
aVCONNECTORS-1197
p324
aVCONNECTORS-1196
p325
aVCONNECTORS-1195
p326
aVCONNECTORS-1194
p327
aVCONNECTORS-1193
p328
aVCONNECTORS-1192
p329
aVCONNECTORS-1191
p330
aVCONNECTORS-1190
p331
aVCONNECTORS-1189
p332
aVCONNECTORS-1188
p333
aVCONNECTORS-1187
p334
aVCONNECTORS-1186
p335
aVCONNECTORS-1185
p336
aVCONNECTORS-1184
p337
aVCONNECTORS-1183
p338
aVCONNECTORS-1182
p339
aVCONNECTORS-1181
p340
aVCONNECTORS-1180
p341
aVCONNECTORS-1179
p342
aVCONNECTORS-1178
p343
aVCONNECTORS-1177
p344
aVCONNECTORS-1176
p345
aVCONNECTORS-1175
p346
aVCONNECTORS-1174
p347
aVCONNECTORS-1173
p348
aVCONNECTORS-1172
p349
aVCONNECTORS-1171
p350
aVCONNECTORS-1170
p351
aVCONNECTORS-1169
p352
aVCONNECTORS-1168
p353
aVCONNECTORS-1167
p354
aVCONNECTORS-1166
p355
aVCONNECTORS-1165
p356
aVCONNECTORS-1164
p357
aVCONNECTORS-1163
p358
aVCONNECTORS-1162
p359
aVCONNECTORS-1161
p360
aVCONNECTORS-1160
p361
aVCONNECTORS-1159
p362
aVCONNECTORS-1158
p363
aVCONNECTORS-1157
p364
aVCONNECTORS-1156
p365
aVCONNECTORS-1155
p366
aVCONNECTORS-1154
p367
aVCONNECTORS-1153
p368
aVCONNECTORS-1152
p369
aVCONNECTORS-1151
p370
aVCONNECTORS-1150
p371
aVCONNECTORS-1149
p372
aVCONNECTORS-1148
p373
aVCONNECTORS-1147
p374
aVCONNECTORS-1146
p375
aVCONNECTORS-1145
p376
aVCONNECTORS-1144
p377
aVCONNECTORS-1143
p378
aVCONNECTORS-1142
p379
aVCONNECTORS-1141
p380
aVCONNECTORS-1140
p381
aVCONNECTORS-1139
p382
aVCONNECTORS-1138
p383
aVCONNECTORS-1137
p384
aVCONNECTORS-1136
p385
aVCONNECTORS-1135
p386
aVCONNECTORS-1134
p387
aVCONNECTORS-1133
p388
aVCONNECTORS-1132
p389
aVCONNECTORS-1131
p390
aVCONNECTORS-1130
p391
aVCONNECTORS-1129
p392
aVCONNECTORS-1128
p393
aVCONNECTORS-1127
p394
aVCONNECTORS-1126
p395
aVCONNECTORS-1125
p396
aVCONNECTORS-1124
p397
aVCONNECTORS-1123
p398
aVCONNECTORS-1122
p399
aVCONNECTORS-1121
p400
aVCONNECTORS-1120
p401
aVCONNECTORS-1119
p402
aVCONNECTORS-1118
p403
aVCONNECTORS-1117
p404
aVCONNECTORS-1116
p405
aVCONNECTORS-1115
p406
aVCONNECTORS-1114
p407
aVCONNECTORS-1113
p408
aVCONNECTORS-1112
p409
aVCONNECTORS-1111
p410
aVCONNECTORS-1110
p411
aVCONNECTORS-1109
p412
aVCONNECTORS-1108
p413
aVCONNECTORS-1107
p414
aVCONNECTORS-1106
p415
aVCONNECTORS-1105
p416
aVCONNECTORS-1104
p417
aVCONNECTORS-1103
p418
aVCONNECTORS-1102
p419
aVCONNECTORS-1101
p420
aVCONNECTORS-1100
p421
aVCONNECTORS-1099
p422
aVCONNECTORS-1098
p423
aVCONNECTORS-1097
p424
aVCONNECTORS-1096
p425
aVCONNECTORS-1095
p426
aVCONNECTORS-1094
p427
aVCONNECTORS-1093
p428
aVCONNECTORS-1092
p429
aVCONNECTORS-1091
p430
aVCONNECTORS-1090
p431
aVCONNECTORS-1089
p432
aVCONNECTORS-1088
p433
aVCONNECTORS-1087
p434
aVCONNECTORS-1086
p435
aVCONNECTORS-1085
p436
aVCONNECTORS-1084
p437
aVCONNECTORS-1083
p438
aVCONNECTORS-1082
p439
aVCONNECTORS-1081
p440
aVCONNECTORS-1080
p441
aVCONNECTORS-1079
p442
aVCONNECTORS-1078
p443
aVCONNECTORS-1077
p444
aVCONNECTORS-1076
p445
aVCONNECTORS-1075
p446
aVCONNECTORS-1074
p447
aVCONNECTORS-1073
p448
aVCONNECTORS-1072
p449
aVCONNECTORS-1071
p450
aVCONNECTORS-1070
p451
aVCONNECTORS-1069
p452
aVCONNECTORS-1068
p453
aVCONNECTORS-1067
p454
aVCONNECTORS-1066
p455
aVCONNECTORS-1065
p456
aVCONNECTORS-1064
p457
aVCONNECTORS-1063
p458
aVCONNECTORS-1062
p459
aVCONNECTORS-1061
p460
aVCONNECTORS-1060
p461
aVCONNECTORS-1059
p462
aVCONNECTORS-1058
p463
aVCONNECTORS-1057
p464
aVCONNECTORS-1056
p465
aVCONNECTORS-1055
p466
aVCONNECTORS-1054
p467
aVCONNECTORS-1053
p468
aVCONNECTORS-1052
p469
aVCONNECTORS-1051
p470
aVCONNECTORS-1050
p471
aVCONNECTORS-1049
p472
aVCONNECTORS-1048
p473
aVCONNECTORS-1047
p474
aVCONNECTORS-1046
p475
aVCONNECTORS-1045
p476
aVCONNECTORS-1044
p477
aVCONNECTORS-1043
p478
aVCONNECTORS-1042
p479
aVCONNECTORS-1041
p480
aVCONNECTORS-1040
p481
aVCONNECTORS-1039
p482
aVCONNECTORS-1038
p483
aVCONNECTORS-1037
p484
aVCONNECTORS-1036
p485
aVCONNECTORS-1035
p486
aVCONNECTORS-1034
p487
aVCONNECTORS-1033
p488
aVCONNECTORS-1032
p489
aVCONNECTORS-1031
p490
aVCONNECTORS-1030
p491
aVCONNECTORS-1029
p492
aVCONNECTORS-1028
p493
aVCONNECTORS-1027
p494
aVCONNECTORS-1026
p495
aVCONNECTORS-1025
p496
aVCONNECTORS-1024
p497
aVCONNECTORS-1023
p498
aVCONNECTORS-1022
p499
aVCONNECTORS-1021
p500
aVCONNECTORS-1020
p501
aVCONNECTORS-1019
p502
aVCONNECTORS-1018
p503
aVCONNECTORS-1017
p504
aVCONNECTORS-1016
p505
aVCONNECTORS-1015
p506
aVCONNECTORS-1014
p507
aVCONNECTORS-1013
p508
aVCONNECTORS-1012
p509
aVCONNECTORS-1011
p510
aVCONNECTORS-1010
p511
aVCONNECTORS-1009
p512
aVCONNECTORS-1008
p513
aVCONNECTORS-1007
p514
aVCONNECTORS-1006
p515
aVCONNECTORS-1005
p516
aVCONNECTORS-1004
p517
aVCONNECTORS-1003
p518
aVCONNECTORS-1002
p519
aVCONNECTORS-1001
p520
aVCONNECTORS-1000
p521
aVCONNECTORS-999
p522
aVCONNECTORS-998
p523
aVCONNECTORS-997
p524
aVCONNECTORS-996
p525
aVCONNECTORS-995
p526
aVCONNECTORS-994
p527
aVCONNECTORS-993
p528
aVCONNECTORS-992
p529
aVCONNECTORS-991
p530
aVCONNECTORS-990
p531
aVCONNECTORS-989
p532
aVCONNECTORS-988
p533
aVCONNECTORS-987
p534
aVCONNECTORS-986
p535
aVCONNECTORS-985
p536
aVCONNECTORS-984
p537
aVCONNECTORS-983
p538
aVCONNECTORS-982
p539
aVCONNECTORS-981
p540
aVCONNECTORS-980
p541
aVCONNECTORS-979
p542
aVCONNECTORS-978
p543
aVCONNECTORS-977
p544
aVCONNECTORS-976
p545
aVCONNECTORS-975
p546
aVCONNECTORS-974
p547
aVCONNECTORS-973
p548
aVCONNECTORS-972
p549
aVCONNECTORS-971
p550
aVCONNECTORS-970
p551
aVCONNECTORS-969
p552
aVCONNECTORS-968
p553
aVCONNECTORS-967
p554
aVCONNECTORS-966
p555
aVCONNECTORS-965
p556
aVCONNECTORS-964
p557
aVCONNECTORS-963
p558
aVCONNECTORS-962
p559
aVCONNECTORS-961
p560
aVCONNECTORS-960
p561
aVCONNECTORS-959
p562
aVCONNECTORS-958
p563
aVCONNECTORS-957
p564
aVCONNECTORS-956
p565
aVCONNECTORS-955
p566
aVCONNECTORS-954
p567
aVCONNECTORS-953
p568
aVCONNECTORS-952
p569
aVCONNECTORS-951
p570
aVCONNECTORS-950
p571
aVCONNECTORS-949
p572
aVCONNECTORS-948
p573
aVCONNECTORS-947
p574
aVCONNECTORS-946
p575
aVCONNECTORS-945
p576
aVCONNECTORS-944
p577
aVCONNECTORS-943
p578
aVCONNECTORS-942
p579
aVCONNECTORS-941
p580
aVCONNECTORS-940
p581
aVCONNECTORS-939
p582
aVCONNECTORS-938
p583
aVCONNECTORS-937
p584
aVCONNECTORS-936
p585
aVCONNECTORS-935
p586
aVCONNECTORS-934
p587
aVCONNECTORS-933
p588
aVCONNECTORS-932
p589
aVCONNECTORS-931
p590
aVCONNECTORS-930
p591
aVCONNECTORS-929
p592
aVCONNECTORS-928
p593
aVCONNECTORS-927
p594
aVCONNECTORS-926
p595
aVCONNECTORS-925
p596
aVCONNECTORS-924
p597
aVCONNECTORS-923
p598
aVCONNECTORS-922
p599
aVCONNECTORS-921
p600
aVCONNECTORS-920
p601
aVCONNECTORS-919
p602
aVCONNECTORS-918
p603
aVCONNECTORS-917
p604
aVCONNECTORS-916
p605
aVCONNECTORS-915
p606
aVCONNECTORS-914
p607
aVCONNECTORS-913
p608
aVCONNECTORS-912
p609
aVCONNECTORS-911
p610
aVCONNECTORS-910
p611
aVCONNECTORS-909
p612
aVCONNECTORS-908
p613
aVCONNECTORS-907
p614
aVCONNECTORS-906
p615
aVCONNECTORS-905
p616
aVCONNECTORS-904
p617
aVCONNECTORS-903
p618
aVCONNECTORS-902
p619
aVCONNECTORS-901
p620
aVCONNECTORS-900
p621
aVCONNECTORS-899
p622
aVCONNECTORS-898
p623
aVCONNECTORS-897
p624
aVCONNECTORS-896
p625
aVCONNECTORS-895
p626
aVCONNECTORS-894
p627
aVCONNECTORS-893
p628
aVCONNECTORS-892
p629
aVCONNECTORS-891
p630
aVCONNECTORS-890
p631
aVCONNECTORS-889
p632
aVCONNECTORS-888
p633
aVCONNECTORS-887
p634
aVCONNECTORS-886
p635
aVCONNECTORS-885
p636
aVCONNECTORS-884
p637
aVCONNECTORS-883
p638
aVCONNECTORS-882
p639
aVCONNECTORS-881
p640
aVCONNECTORS-880
p641
aVCONNECTORS-879
p642
aVCONNECTORS-878
p643
aVCONNECTORS-877
p644
aVCONNECTORS-876
p645
aVCONNECTORS-875
p646
aVCONNECTORS-874
p647
aVCONNECTORS-873
p648
aVCONNECTORS-872
p649
aVCONNECTORS-871
p650
aVCONNECTORS-870
p651
aVCONNECTORS-869
p652
aVCONNECTORS-868
p653
aVCONNECTORS-867
p654
aVCONNECTORS-866
p655
aVCONNECTORS-865
p656
aVCONNECTORS-864
p657
aVCONNECTORS-863
p658
aVCONNECTORS-862
p659
aVCONNECTORS-861
p660
aVCONNECTORS-860
p661
aVCONNECTORS-859
p662
aVCONNECTORS-858
p663
aVCONNECTORS-857
p664
aVCONNECTORS-856
p665
aVCONNECTORS-855
p666
aVCONNECTORS-854
p667
aVCONNECTORS-853
p668
aVCONNECTORS-852
p669
aVCONNECTORS-851
p670
aVCONNECTORS-850
p671
aVCONNECTORS-849
p672
aVCONNECTORS-848
p673
aVCONNECTORS-847
p674
aVCONNECTORS-846
p675
aVCONNECTORS-845
p676
aVCONNECTORS-844
p677
aVCONNECTORS-843
p678
aVCONNECTORS-842
p679
aVCONNECTORS-841
p680
aVCONNECTORS-840
p681
aVCONNECTORS-839
p682
aVCONNECTORS-838
p683
aVCONNECTORS-837
p684
aVCONNECTORS-836
p685
aVCONNECTORS-835
p686
aVCONNECTORS-834
p687
aVCONNECTORS-833
p688
aVCONNECTORS-832
p689
aVCONNECTORS-831
p690
aVCONNECTORS-830
p691
aVCONNECTORS-829
p692
aVCONNECTORS-828
p693
aVCONNECTORS-827
p694
aVCONNECTORS-826
p695
aVCONNECTORS-825
p696
aVCONNECTORS-824
p697
aVCONNECTORS-823
p698
aVCONNECTORS-822
p699
aVCONNECTORS-821
p700
aVCONNECTORS-820
p701
aVCONNECTORS-819
p702
aVCONNECTORS-818
p703
aVCONNECTORS-817
p704
aVCONNECTORS-816
p705
aVCONNECTORS-815
p706
aVCONNECTORS-814
p707
aVCONNECTORS-813
p708
aVCONNECTORS-812
p709
aVCONNECTORS-811
p710
aVCONNECTORS-810
p711
aVCONNECTORS-809
p712
aVCONNECTORS-808
p713
aVCONNECTORS-807
p714
aVCONNECTORS-806
p715
aVCONNECTORS-805
p716
aVCONNECTORS-804
p717
aVCONNECTORS-803
p718
aVCONNECTORS-802
p719
aVCONNECTORS-801
p720
aVCONNECTORS-800
p721
aVCONNECTORS-799
p722
aVCONNECTORS-798
p723
aVCONNECTORS-797
p724
aVCONNECTORS-796
p725
aVCONNECTORS-795
p726
aVCONNECTORS-794
p727
aVCONNECTORS-793
p728
aVCONNECTORS-792
p729
aVCONNECTORS-791
p730
aVCONNECTORS-790
p731
aVCONNECTORS-789
p732
aVCONNECTORS-788
p733
aVCONNECTORS-787
p734
aVCONNECTORS-786
p735
aVCONNECTORS-785
p736
aVCONNECTORS-784
p737
aVCONNECTORS-783
p738
aVCONNECTORS-782
p739
aVCONNECTORS-781
p740
aVCONNECTORS-780
p741
aVCONNECTORS-779
p742
aVCONNECTORS-778
p743
aVCONNECTORS-777
p744
aVCONNECTORS-776
p745
aVCONNECTORS-775
p746
aVCONNECTORS-774
p747
aVCONNECTORS-773
p748
aVCONNECTORS-772
p749
aVCONNECTORS-771
p750
aVCONNECTORS-770
p751
aVCONNECTORS-769
p752
aVCONNECTORS-768
p753
aVCONNECTORS-767
p754
aVCONNECTORS-766
p755
aVCONNECTORS-765
p756
aVCONNECTORS-764
p757
aVCONNECTORS-763
p758
aVCONNECTORS-762
p759
aVCONNECTORS-761
p760
aVCONNECTORS-760
p761
aVCONNECTORS-759
p762
aVCONNECTORS-758
p763
aVCONNECTORS-757
p764
aVCONNECTORS-756
p765
aVCONNECTORS-755
p766
aVCONNECTORS-754
p767
aVCONNECTORS-753
p768
aVCONNECTORS-752
p769
aVCONNECTORS-751
p770
aVCONNECTORS-750
p771
aVCONNECTORS-749
p772
aVCONNECTORS-748
p773
aVCONNECTORS-746
p774
aVCONNECTORS-745
p775
aVCONNECTORS-744
p776
aVCONNECTORS-743
p777
aVCONNECTORS-742
p778
aVCONNECTORS-741
p779
aVCONNECTORS-740
p780
aVCONNECTORS-739
p781
aVCONNECTORS-738
p782
aVCONNECTORS-737
p783
aVCONNECTORS-736
p784
aVCONNECTORS-735
p785
aVCONNECTORS-734
p786
aVCONNECTORS-733
p787
aVCONNECTORS-732
p788
aVCONNECTORS-731
p789
aVCONNECTORS-730
p790
aVCONNECTORS-729
p791
aVCONNECTORS-728
p792
aVCONNECTORS-727
p793
aVCONNECTORS-726
p794
aVCONNECTORS-725
p795
aVCONNECTORS-724
p796
aVCONNECTORS-723
p797
aVCONNECTORS-722
p798
aVCONNECTORS-721
p799
aVCONNECTORS-720
p800
aVCONNECTORS-719
p801
aVCONNECTORS-718
p802
aVCONNECTORS-717
p803
aVCONNECTORS-716
p804
aVCONNECTORS-715
p805
aVCONNECTORS-714
p806
aVCONNECTORS-713
p807
aVCONNECTORS-712
p808
aVCONNECTORS-711
p809
aVCONNECTORS-710
p810
aVCONNECTORS-709
p811
aVCONNECTORS-708
p812
aVCONNECTORS-707
p813
aVCONNECTORS-706
p814
aVCONNECTORS-705
p815
aVCONNECTORS-704
p816
aVCONNECTORS-703
p817
aVCONNECTORS-702
p818
aVCONNECTORS-701
p819
aVCONNECTORS-700
p820
aVCONNECTORS-699
p821
aVCONNECTORS-698
p822
aVCONNECTORS-697
p823
aVCONNECTORS-696
p824
aVCONNECTORS-695
p825
aVCONNECTORS-694
p826
aVCONNECTORS-693
p827
aVCONNECTORS-692
p828
aVCONNECTORS-691
p829
aVCONNECTORS-690
p830
aVCONNECTORS-689
p831
aVCONNECTORS-688
p832
aVCONNECTORS-687
p833
aVCONNECTORS-686
p834
aVCONNECTORS-685
p835
aVCONNECTORS-684
p836
aVCONNECTORS-683
p837
aVCONNECTORS-682
p838
aVCONNECTORS-681
p839
aVCONNECTORS-680
p840
aVCONNECTORS-679
p841
aVCONNECTORS-678
p842
aVCONNECTORS-677
p843
aVCONNECTORS-676
p844
aVCONNECTORS-675
p845
aVCONNECTORS-674
p846
aVCONNECTORS-673
p847
aVCONNECTORS-672
p848
aVCONNECTORS-671
p849
aVCONNECTORS-670
p850
aVCONNECTORS-669
p851
aVCONNECTORS-668
p852
aVCONNECTORS-667
p853
aVCONNECTORS-666
p854
aVCONNECTORS-665
p855
aVCONNECTORS-664
p856
aVCONNECTORS-663
p857
aVCONNECTORS-662
p858
aVCONNECTORS-661
p859
aVCONNECTORS-660
p860
aVCONNECTORS-659
p861
aVCONNECTORS-658
p862
aVCONNECTORS-657
p863
aVCONNECTORS-656
p864
aVCONNECTORS-655
p865
aVCONNECTORS-654
p866
aVCONNECTORS-653
p867
aVCONNECTORS-652
p868
aVCONNECTORS-651
p869
aVCONNECTORS-650
p870
aVCONNECTORS-649
p871
aVCONNECTORS-648
p872
aVCONNECTORS-647
p873
aVCONNECTORS-646
p874
aVCONNECTORS-645
p875
aVCONNECTORS-644
p876
aVCONNECTORS-643
p877
aVCONNECTORS-642
p878
aVCONNECTORS-641
p879
aVCONNECTORS-640
p880
aVCONNECTORS-639
p881
aVCONNECTORS-638
p882
aVCONNECTORS-637
p883
aVCONNECTORS-636
p884
aVCONNECTORS-635
p885
aVCONNECTORS-634
p886
aVCONNECTORS-633
p887
aVCONNECTORS-632
p888
aVCONNECTORS-631
p889
aVCONNECTORS-630
p890
aVCONNECTORS-629
p891
aVCONNECTORS-628
p892
aVCONNECTORS-627
p893
aVCONNECTORS-626
p894
aVCONNECTORS-625
p895
aVCONNECTORS-624
p896
aVCONNECTORS-623
p897
aVCONNECTORS-622
p898
aVCONNECTORS-621
p899
aVCONNECTORS-620
p900
aVCONNECTORS-619
p901
aVCONNECTORS-618
p902
aVCONNECTORS-617
p903
aVCONNECTORS-616
p904
aVCONNECTORS-615
p905
aVCONNECTORS-614
p906
aVCONNECTORS-613
p907
aVCONNECTORS-612
p908
aVCONNECTORS-611
p909
aVCONNECTORS-610
p910
aVCONNECTORS-609
p911
aVCONNECTORS-608
p912
aVCONNECTORS-607
p913
aVCONNECTORS-606
p914
aVCONNECTORS-605
p915
aVCONNECTORS-604
p916
aVCONNECTORS-603
p917
aVCONNECTORS-602
p918
aVCONNECTORS-601
p919
aVCONNECTORS-600
p920
aVCONNECTORS-599
p921
aVCONNECTORS-598
p922
aVCONNECTORS-597
p923
aVCONNECTORS-596
p924
aVCONNECTORS-595
p925
aVCONNECTORS-594
p926
aVCONNECTORS-593
p927
aVCONNECTORS-592
p928
aVCONNECTORS-591
p929
aVCONNECTORS-590
p930
aVCONNECTORS-589
p931
aVCONNECTORS-588
p932
aVCONNECTORS-587
p933
aVCONNECTORS-586
p934
aVCONNECTORS-585
p935
aVCONNECTORS-584
p936
aVCONNECTORS-583
p937
aVCONNECTORS-582
p938
aVCONNECTORS-581
p939
aVCONNECTORS-580
p940
aVCONNECTORS-579
p941
aVCONNECTORS-578
p942
aVCONNECTORS-577
p943
aVCONNECTORS-576
p944
aVCONNECTORS-575
p945
aVCONNECTORS-574
p946
aVCONNECTORS-573
p947
aVCONNECTORS-572
p948
aVCONNECTORS-571
p949
aVCONNECTORS-570
p950
aVCONNECTORS-569
p951
aVCONNECTORS-568
p952
aVCONNECTORS-567
p953
aVCONNECTORS-566
p954
aVCONNECTORS-565
p955
aVCONNECTORS-564
p956
aVCONNECTORS-563
p957
aVCONNECTORS-562
p958
aVCONNECTORS-561
p959
aVCONNECTORS-560
p960
aVCONNECTORS-559
p961
aVCONNECTORS-558
p962
aVCONNECTORS-557
p963
aVCONNECTORS-556
p964
aVCONNECTORS-555
p965
aVCONNECTORS-554
p966
aVCONNECTORS-553
p967
aVCONNECTORS-552
p968
aVCONNECTORS-551
p969
aVCONNECTORS-550
p970
aVCONNECTORS-549
p971
aVCONNECTORS-548
p972
aVCONNECTORS-547
p973
aVCONNECTORS-546
p974
aVCONNECTORS-545
p975
aVCONNECTORS-544
p976
aVCONNECTORS-543
p977
aVCONNECTORS-542
p978
aVCONNECTORS-541
p979
aVCONNECTORS-540
p980
aVCONNECTORS-539
p981
aVCONNECTORS-538
p982
aVCONNECTORS-537
p983
aVCONNECTORS-536
p984
aVCONNECTORS-535
p985
aVCONNECTORS-534
p986
aVCONNECTORS-533
p987
aVCONNECTORS-532
p988
aVCONNECTORS-531
p989
aVCONNECTORS-530
p990
aVCONNECTORS-529
p991
aVCONNECTORS-528
p992
aVCONNECTORS-527
p993
aVCONNECTORS-526
p994
aVCONNECTORS-525
p995
aVCONNECTORS-524
p996
aVCONNECTORS-523
p997
aVCONNECTORS-522
p998
aVCONNECTORS-521
p999
aVCONNECTORS-520
p1000
aVCONNECTORS-519
p1001
aVCONNECTORS-518
p1002
aVCONNECTORS-517
p1003
aVCONNECTORS-516
p1004
aVCONNECTORS-515
p1005
aVCONNECTORS-514
p1006
aVCONNECTORS-513
p1007
aVCONNECTORS-512
p1008
aVCONNECTORS-511
p1009
aVCONNECTORS-510
p1010
aVCONNECTORS-509
p1011
aVCONNECTORS-508
p1012
aVCONNECTORS-507
p1013
aVCONNECTORS-506
p1014
aVCONNECTORS-505
p1015
aVCONNECTORS-504
p1016
aVCONNECTORS-503
p1017
aVCONNECTORS-502
p1018
aVCONNECTORS-501
p1019
aVCONNECTORS-500
p1020
aVCONNECTORS-499
p1021
aVCONNECTORS-498
p1022
aVCONNECTORS-497
p1023
aVCONNECTORS-496
p1024
aVCONNECTORS-495
p1025
aVCONNECTORS-494
p1026
aVCONNECTORS-493
p1027
aVCONNECTORS-492
p1028
aVCONNECTORS-491
p1029
aVCONNECTORS-490
p1030
aVCONNECTORS-489
p1031
aVCONNECTORS-488
p1032
aVCONNECTORS-487
p1033
aVCONNECTORS-486
p1034
aVCONNECTORS-485
p1035
aVCONNECTORS-484
p1036
aVCONNECTORS-483
p1037
aVCONNECTORS-482
p1038
aVCONNECTORS-481
p1039
aVCONNECTORS-480
p1040
aVCONNECTORS-479
p1041
aVCONNECTORS-478
p1042
aVCONNECTORS-477
p1043
aVCONNECTORS-476
p1044
aVCONNECTORS-475
p1045
aVCONNECTORS-474
p1046
aVCONNECTORS-473
p1047
aVCONNECTORS-472
p1048
aVCONNECTORS-471
p1049
aVCONNECTORS-470
p1050
aVCONNECTORS-469
p1051
aVCONNECTORS-468
p1052
aVCONNECTORS-467
p1053
aVCONNECTORS-466
p1054
aVCONNECTORS-465
p1055
aVCONNECTORS-464
p1056
aVCONNECTORS-463
p1057
aVCONNECTORS-462
p1058
aVCONNECTORS-461
p1059
aVCONNECTORS-460
p1060
aVCONNECTORS-459
p1061
aVCONNECTORS-458
p1062
aVCONNECTORS-457
p1063
aVCONNECTORS-456
p1064
aVCONNECTORS-455
p1065
aVCONNECTORS-454
p1066
aVCONNECTORS-453
p1067
aVCONNECTORS-452
p1068
aVCONNECTORS-451
p1069
aVCONNECTORS-450
p1070
aVCONNECTORS-449
p1071
aVCONNECTORS-448
p1072
aVCONNECTORS-447
p1073
aVCONNECTORS-446
p1074
aVCONNECTORS-445
p1075
aVCONNECTORS-444
p1076
aVCONNECTORS-443
p1077
aVCONNECTORS-442
p1078
aVCONNECTORS-441
p1079
aVCONNECTORS-440
p1080
aVCONNECTORS-439
p1081
aVCONNECTORS-438
p1082
aVCONNECTORS-437
p1083
aVCONNECTORS-436
p1084
aVCONNECTORS-435
p1085
aVCONNECTORS-434
p1086
aVCONNECTORS-433
p1087
aVCONNECTORS-432
p1088
aVCONNECTORS-431
p1089
aVCONNECTORS-430
p1090
aVCONNECTORS-429
p1091
aVCONNECTORS-428
p1092
aVCONNECTORS-427
p1093
aVCONNECTORS-426
p1094
aVCONNECTORS-425
p1095
aVCONNECTORS-424
p1096
aVCONNECTORS-423
p1097
aVCONNECTORS-422
p1098
aVCONNECTORS-421
p1099
aVCONNECTORS-420
p1100
aVCONNECTORS-419
p1101
aVCONNECTORS-418
p1102
aVCONNECTORS-417
p1103
aVCONNECTORS-416
p1104
aVCONNECTORS-415
p1105
aVCONNECTORS-414
p1106
aVCONNECTORS-413
p1107
aVCONNECTORS-412
p1108
aVCONNECTORS-411
p1109
aVCONNECTORS-410
p1110
aVCONNECTORS-409
p1111
aVCONNECTORS-408
p1112
aVCONNECTORS-407
p1113
aVCONNECTORS-406
p1114
aVCONNECTORS-405
p1115
aVCONNECTORS-404
p1116
aVCONNECTORS-403
p1117
aVCONNECTORS-402
p1118
aVCONNECTORS-401
p1119
aVCONNECTORS-400
p1120
aVCONNECTORS-399
p1121
aVCONNECTORS-398
p1122
aVCONNECTORS-397
p1123
aVCONNECTORS-396
p1124
aVCONNECTORS-395
p1125
aVCONNECTORS-394
p1126
aVCONNECTORS-393
p1127
aVCONNECTORS-392
p1128
aVCONNECTORS-391
p1129
aVCONNECTORS-390
p1130
aVCONNECTORS-389
p1131
aVCONNECTORS-388
p1132
aVCONNECTORS-387
p1133
aVCONNECTORS-386
p1134
aVCONNECTORS-385
p1135
aVCONNECTORS-384
p1136
aVCONNECTORS-383
p1137
aVCONNECTORS-382
p1138
aVCONNECTORS-381
p1139
aVCONNECTORS-380
p1140
aVCONNECTORS-379
p1141
aVCONNECTORS-378
p1142
aVCONNECTORS-377
p1143
aVCONNECTORS-376
p1144
aVCONNECTORS-375
p1145
aVCONNECTORS-374
p1146
aVCONNECTORS-373
p1147
aVCONNECTORS-372
p1148
aVCONNECTORS-371
p1149
aVCONNECTORS-370
p1150
aVCONNECTORS-369
p1151
aVCONNECTORS-368
p1152
aVCONNECTORS-367
p1153
aVCONNECTORS-366
p1154
aVCONNECTORS-365
p1155
aVCONNECTORS-364
p1156
aVCONNECTORS-363
p1157
aVCONNECTORS-362
p1158
aVCONNECTORS-361
p1159
aVCONNECTORS-360
p1160
aVCONNECTORS-359
p1161
aVCONNECTORS-358
p1162
aVCONNECTORS-357
p1163
aVCONNECTORS-356
p1164
aVCONNECTORS-355
p1165
aVCONNECTORS-354
p1166
aVCONNECTORS-353
p1167
aVCONNECTORS-352
p1168
aVCONNECTORS-351
p1169
aVCONNECTORS-350
p1170
aVCONNECTORS-349
p1171
aVCONNECTORS-348
p1172
aVCONNECTORS-347
p1173
aVCONNECTORS-346
p1174
aVCONNECTORS-345
p1175
aVCONNECTORS-344
p1176
aVCONNECTORS-343
p1177
aVCONNECTORS-342
p1178
aVCONNECTORS-341
p1179
aVCONNECTORS-340
p1180
aVCONNECTORS-339
p1181
aVCONNECTORS-338
p1182
aVCONNECTORS-337
p1183
aVCONNECTORS-336
p1184
aVCONNECTORS-335
p1185
aVCONNECTORS-334
p1186
aVCONNECTORS-333
p1187
aVCONNECTORS-332
p1188
aVCONNECTORS-331
p1189
aVCONNECTORS-330
p1190
aVCONNECTORS-329
p1191
aVCONNECTORS-328
p1192
aVCONNECTORS-327
p1193
aVCONNECTORS-326
p1194
aVCONNECTORS-325
p1195
aVCONNECTORS-324
p1196
aVCONNECTORS-323
p1197
aVCONNECTORS-322
p1198
aVCONNECTORS-321
p1199
aVCONNECTORS-320
p1200
aVCONNECTORS-319
p1201
aVCONNECTORS-318
p1202
aVCONNECTORS-317
p1203
aVCONNECTORS-316
p1204
aVCONNECTORS-315
p1205
aVCONNECTORS-314
p1206
aVCONNECTORS-313
p1207
aVCONNECTORS-312
p1208
aVCONNECTORS-311
p1209
aVCONNECTORS-310
p1210
aVCONNECTORS-309
p1211
aVCONNECTORS-308
p1212
aVCONNECTORS-307
p1213
aVCONNECTORS-306
p1214
aVCONNECTORS-305
p1215
aVCONNECTORS-304
p1216
aVCONNECTORS-303
p1217
aVCONNECTORS-302
p1218
aVCONNECTORS-301
p1219
aVCONNECTORS-300
p1220
aVCONNECTORS-299
p1221
aVCONNECTORS-298
p1222
aVCONNECTORS-297
p1223
aVCONNECTORS-296
p1224
aVCONNECTORS-295
p1225
aVCONNECTORS-294
p1226
aVCONNECTORS-293
p1227
aVCONNECTORS-292
p1228
aVCONNECTORS-291
p1229
aVCONNECTORS-290
p1230
aVCONNECTORS-289
p1231
aVCONNECTORS-288
p1232
aVCONNECTORS-287
p1233
aVCONNECTORS-286
p1234
aVCONNECTORS-285
p1235
aVCONNECTORS-284
p1236
aVCONNECTORS-283
p1237
aVCONNECTORS-282
p1238
aVCONNECTORS-281
p1239
aVCONNECTORS-280
p1240
aVCONNECTORS-279
p1241
aVCONNECTORS-278
p1242
aVCONNECTORS-277
p1243
aVCONNECTORS-276
p1244
aVCONNECTORS-275
p1245
aVCONNECTORS-274
p1246
aVCONNECTORS-273
p1247
aVCONNECTORS-272
p1248
aVCONNECTORS-271
p1249
aVCONNECTORS-270
p1250
aVCONNECTORS-269
p1251
aVCONNECTORS-268
p1252
aVCONNECTORS-267
p1253
aVCONNECTORS-266
p1254
aVCONNECTORS-265
p1255
aVCONNECTORS-264
p1256
aVCONNECTORS-263
p1257
aVCONNECTORS-262
p1258
aVCONNECTORS-261
p1259
aVCONNECTORS-260
p1260
aVCONNECTORS-259
p1261
aVCONNECTORS-258
p1262
aVCONNECTORS-257
p1263
aVCONNECTORS-256
p1264
aVCONNECTORS-255
p1265
aVCONNECTORS-254
p1266
aVCONNECTORS-253
p1267
aVCONNECTORS-252
p1268
aVCONNECTORS-251
p1269
aVCONNECTORS-250
p1270
aVCONNECTORS-249
p1271
aVCONNECTORS-248
p1272
aVCONNECTORS-247
p1273
aVCONNECTORS-246
p1274
aVCONNECTORS-245
p1275
aVCONNECTORS-244
p1276
aVCONNECTORS-243
p1277
aVCONNECTORS-242
p1278
aVCONNECTORS-241
p1279
aVCONNECTORS-240
p1280
aVCONNECTORS-239
p1281
aVCONNECTORS-238
p1282
aVCONNECTORS-237
p1283
aVCONNECTORS-236
p1284
aVCONNECTORS-235
p1285
aVCONNECTORS-234
p1286
aVCONNECTORS-233
p1287
aVCONNECTORS-232
p1288
aVCONNECTORS-231
p1289
aVCONNECTORS-230
p1290
aVCONNECTORS-229
p1291
aVCONNECTORS-228
p1292
aVCONNECTORS-227
p1293
aVCONNECTORS-226
p1294
aVCONNECTORS-225
p1295
aVCONNECTORS-224
p1296
aVCONNECTORS-223
p1297
aVCONNECTORS-222
p1298
aVCONNECTORS-221
p1299
aVCONNECTORS-220
p1300
aVCONNECTORS-219
p1301
aVCONNECTORS-218
p1302
aVCONNECTORS-217
p1303
aVCONNECTORS-216
p1304
aVCONNECTORS-215
p1305
aVCONNECTORS-214
p1306
aVCONNECTORS-213
p1307
aVCONNECTORS-212
p1308
aVCONNECTORS-211
p1309
aVCONNECTORS-210
p1310
aVCONNECTORS-209
p1311
aVCONNECTORS-208
p1312
aVCONNECTORS-207
p1313
aVCONNECTORS-206
p1314
aVCONNECTORS-205
p1315
aVCONNECTORS-204
p1316
aVCONNECTORS-203
p1317
aVCONNECTORS-202
p1318
aVCONNECTORS-201
p1319
aVCONNECTORS-200
p1320
aVCONNECTORS-199
p1321
aVCONNECTORS-198
p1322
aVCONNECTORS-197
p1323
aVCONNECTORS-196
p1324
aVCONNECTORS-195
p1325
aVCONNECTORS-194
p1326
aVCONNECTORS-193
p1327
aVCONNECTORS-192
p1328
aVCONNECTORS-191
p1329
aVCONNECTORS-190
p1330
aVCONNECTORS-189
p1331
aVCONNECTORS-188
p1332
aVCONNECTORS-187
p1333
aVCONNECTORS-186
p1334
aVCONNECTORS-185
p1335
aVCONNECTORS-184
p1336
aVCONNECTORS-183
p1337
aVCONNECTORS-182
p1338
aVCONNECTORS-181
p1339
aVCONNECTORS-180
p1340
aVCONNECTORS-179
p1341
aVCONNECTORS-178
p1342
aVCONNECTORS-177
p1343
aVCONNECTORS-176
p1344
aVCONNECTORS-175
p1345
aVCONNECTORS-174
p1346
aVCONNECTORS-173
p1347
aVCONNECTORS-172
p1348
aVCONNECTORS-171
p1349
aVCONNECTORS-170
p1350
aVCONNECTORS-169
p1351
aVCONNECTORS-168
p1352
aVCONNECTORS-167
p1353
aVCONNECTORS-166
p1354
aVCONNECTORS-165
p1355
aVCONNECTORS-164
p1356
aVCONNECTORS-163
p1357
aVCONNECTORS-162
p1358
aVCONNECTORS-161
p1359
aVCONNECTORS-160
p1360
aVCONNECTORS-159
p1361
aVCONNECTORS-158
p1362
aVCONNECTORS-157
p1363
aVCONNECTORS-156
p1364
aVCONNECTORS-155
p1365
aVCONNECTORS-154
p1366
aVCONNECTORS-153
p1367
aVCONNECTORS-152
p1368
aVCONNECTORS-151
p1369
aVCONNECTORS-150
p1370
aVCONNECTORS-149
p1371
aVCONNECTORS-148
p1372
aVCONNECTORS-147
p1373
aVCONNECTORS-146
p1374
aVCONNECTORS-145
p1375
aVCONNECTORS-144
p1376
aVCONNECTORS-143
p1377
aVCONNECTORS-142
p1378
aVCONNECTORS-141
p1379
aVCONNECTORS-140
p1380
aVCONNECTORS-139
p1381
aVCONNECTORS-138
p1382
aVCONNECTORS-137
p1383
aVCONNECTORS-136
p1384
aVCONNECTORS-135
p1385
aVCONNECTORS-134
p1386
aVCONNECTORS-133
p1387
aVCONNECTORS-132
p1388
aVCONNECTORS-131
p1389
aVCONNECTORS-130
p1390
aVCONNECTORS-129
p1391
aVCONNECTORS-128
p1392
aVCONNECTORS-127
p1393
aVCONNECTORS-126
p1394
aVCONNECTORS-125
p1395
aVCONNECTORS-124
p1396
aVCONNECTORS-123
p1397
aVCONNECTORS-122
p1398
aVCONNECTORS-121
p1399
aVCONNECTORS-120
p1400
aVCONNECTORS-119
p1401
aVCONNECTORS-118
p1402
aVCONNECTORS-117
p1403
aVCONNECTORS-116
p1404
aVCONNECTORS-115
p1405
aVCONNECTORS-114
p1406
aVCONNECTORS-113
p1407
aVCONNECTORS-112
p1408
aVCONNECTORS-111
p1409
aVCONNECTORS-110
p1410
aVCONNECTORS-109
p1411
aVCONNECTORS-108
p1412
aVCONNECTORS-107
p1413
aVCONNECTORS-106
p1414
aVCONNECTORS-105
p1415
aVCONNECTORS-104
p1416
aVCONNECTORS-103
p1417
aVCONNECTORS-102
p1418
aVCONNECTORS-101
p1419
aVCONNECTORS-100
p1420
aVCONNECTORS-99
p1421
aVCONNECTORS-98
p1422
aVCONNECTORS-97
p1423
aVCONNECTORS-96
p1424
aVCONNECTORS-95
p1425
aVCONNECTORS-94
p1426
aVCONNECTORS-93
p1427
aVCONNECTORS-92
p1428
aVCONNECTORS-91
p1429
aVCONNECTORS-90
p1430
aVCONNECTORS-89
p1431
aVCONNECTORS-88
p1432
aVCONNECTORS-87
p1433
aVCONNECTORS-86
p1434
aVCONNECTORS-85
p1435
aVCONNECTORS-84
p1436
aVCONNECTORS-83
p1437
aVCONNECTORS-82
p1438
aVCONNECTORS-81
p1439
aVCONNECTORS-80
p1440
aVCONNECTORS-79
p1441
aVCONNECTORS-78
p1442
aVCONNECTORS-77
p1443
aVCONNECTORS-76
p1444
aVCONNECTORS-75
p1445
aVCONNECTORS-74
p1446
aVCONNECTORS-73
p1447
aVCONNECTORS-72
p1448
aVCONNECTORS-71
p1449
aVCONNECTORS-70
p1450
aVCONNECTORS-69
p1451
aVCONNECTORS-68
p1452
aVCONNECTORS-67
p1453
aVCONNECTORS-66
p1454
aVCONNECTORS-65
p1455
aVCONNECTORS-64
p1456
aVCONNECTORS-63
p1457
aVCONNECTORS-62
p1458
aVCONNECTORS-61
p1459
aVCONNECTORS-60
p1460
aVCONNECTORS-59
p1461
aVCONNECTORS-58
p1462
aVCONNECTORS-57
p1463
aVCONNECTORS-56
p1464
aVCONNECTORS-55
p1465
aVCONNECTORS-54
p1466
aVCONNECTORS-53
p1467
aVCONNECTORS-52
p1468
aVCONNECTORS-51
p1469
aVCONNECTORS-50
p1470
aVCONNECTORS-49
p1471
aVCONNECTORS-48
p1472
aVCONNECTORS-47
p1473
aVCONNECTORS-46
p1474
aVCONNECTORS-45
p1475
aVCONNECTORS-44
p1476
aVCONNECTORS-43
p1477
aVCONNECTORS-42
p1478
aVCONNECTORS-41
p1479
aVCONNECTORS-40
p1480
aVCONNECTORS-39
p1481
aVCONNECTORS-38
p1482
aVCONNECTORS-37
p1483
aVCONNECTORS-36
p1484
aVCONNECTORS-35
p1485
aVCONNECTORS-34
p1486
aVCONNECTORS-33
p1487
aVCONNECTORS-32
p1488
aVCONNECTORS-31
p1489
aVCONNECTORS-30
p1490
aVCONNECTORS-29
p1491
aVCONNECTORS-28
p1492
aVCONNECTORS-27
p1493
aVCONNECTORS-26
p1494
aVCONNECTORS-25
p1495
aVCONNECTORS-24
p1496
aVCONNECTORS-23
p1497
aVCONNECTORS-22
p1498
aVCONNECTORS-21
p1499
aVCONNECTORS-20
p1500
aVCONNECTORS-19
p1501
aVCONNECTORS-18
p1502
aVCONNECTORS-17
p1503
aVCONNECTORS-16
p1504
aVCONNECTORS-15
p1505
aVCONNECTORS-14
p1506
aVCONNECTORS-13
p1507
aVCONNECTORS-12
p1508
aVCONNECTORS-11
p1509
aVCONNECTORS-10
p1510
aVCONNECTORS-9
p1511
aVCONNECTORS-8
p1512
aVCONNECTORS-7
p1513
aVCONNECTORS-6
p1514
aVCONNECTORS-5
p1515
aVCONNECTORS-4
p1516
aVCONNECTORS-3
p1517
aVCONNECTORS-2
p1518
aVCONNECTORS-1
p1519
a.