(lp0
VCRUNCH-670
p1
aVCRUNCH-669
p2
aVCRUNCH-668
p3
aVCRUNCH-667
p4
aVCRUNCH-666
p5
aVCRUNCH-665
p6
aVCRUNCH-664
p7
aVCRUNCH-663
p8
aVCRUNCH-662
p9
aVCRUNCH-661
p10
aVCRUNCH-660
p11
aVCRUNCH-659
p12
aVCRUNCH-658
p13
aVCRUNCH-657
p14
aVCRUNCH-656
p15
aVCRUNCH-655
p16
aVCRUNCH-654
p17
aVCRUNCH-653
p18
aVCRUNCH-652
p19
aVCRUNCH-651
p20
aVCRUNCH-650
p21
aVCRUNCH-649
p22
aVCRUNCH-648
p23
aVCRUNCH-647
p24
aVCRUNCH-646
p25
aVCRUNCH-645
p26
aVCRUNCH-644
p27
aVCRUNCH-643
p28
aVCRUNCH-642
p29
aVCRUNCH-641
p30
aVCRUNCH-640
p31
aVCRUNCH-639
p32
aVCRUNCH-638
p33
aVCRUNCH-637
p34
aVCRUNCH-636
p35
aVCRUNCH-635
p36
aVCRUNCH-634
p37
aVCRUNCH-633
p38
aVCRUNCH-632
p39
aVCRUNCH-631
p40
aVCRUNCH-630
p41
aVCRUNCH-629
p42
aVCRUNCH-628
p43
aVCRUNCH-627
p44
aVCRUNCH-626
p45
aVCRUNCH-625
p46
aVCRUNCH-624
p47
aVCRUNCH-623
p48
aVCRUNCH-622
p49
aVCRUNCH-621
p50
aVCRUNCH-620
p51
aVCRUNCH-619
p52
aVCRUNCH-618
p53
aVCRUNCH-617
p54
aVCRUNCH-616
p55
aVCRUNCH-615
p56
aVCRUNCH-614
p57
aVCRUNCH-613
p58
aVCRUNCH-612
p59
aVCRUNCH-611
p60
aVCRUNCH-610
p61
aVCRUNCH-609
p62
aVCRUNCH-608
p63
aVCRUNCH-607
p64
aVCRUNCH-606
p65
aVCRUNCH-604
p66
aVCRUNCH-603
p67
aVCRUNCH-602
p68
aVCRUNCH-601
p69
aVCRUNCH-600
p70
aVCRUNCH-599
p71
aVCRUNCH-598
p72
aVCRUNCH-597
p73
aVCRUNCH-596
p74
aVCRUNCH-595
p75
aVCRUNCH-594
p76
aVCRUNCH-593
p77
aVCRUNCH-592
p78
aVCRUNCH-591
p79
aVCRUNCH-590
p80
aVCRUNCH-589
p81
aVCRUNCH-588
p82
aVCRUNCH-587
p83
aVCRUNCH-586
p84
aVCRUNCH-585
p85
aVCRUNCH-584
p86
aVCRUNCH-583
p87
aVCRUNCH-582
p88
aVCRUNCH-581
p89
aVCRUNCH-580
p90
aVCRUNCH-579
p91
aVCRUNCH-578
p92
aVCRUNCH-577
p93
aVCRUNCH-576
p94
aVCRUNCH-575
p95
aVCRUNCH-574
p96
aVCRUNCH-573
p97
aVCRUNCH-572
p98
aVCRUNCH-571
p99
aVCRUNCH-570
p100
aVCRUNCH-569
p101
aVCRUNCH-568
p102
aVCRUNCH-567
p103
aVCRUNCH-566
p104
aVCRUNCH-565
p105
aVCRUNCH-564
p106
aVCRUNCH-563
p107
aVCRUNCH-562
p108
aVCRUNCH-561
p109
aVCRUNCH-560
p110
aVCRUNCH-559
p111
aVCRUNCH-558
p112
aVCRUNCH-557
p113
aVCRUNCH-556
p114
aVCRUNCH-555
p115
aVCRUNCH-554
p116
aVCRUNCH-553
p117
aVCRUNCH-552
p118
aVCRUNCH-551
p119
aVCRUNCH-550
p120
aVCRUNCH-549
p121
aVCRUNCH-548
p122
aVCRUNCH-547
p123
aVCRUNCH-546
p124
aVCRUNCH-545
p125
aVCRUNCH-544
p126
aVCRUNCH-543
p127
aVCRUNCH-542
p128
aVCRUNCH-541
p129
aVCRUNCH-540
p130
aVCRUNCH-539
p131
aVCRUNCH-538
p132
aVCRUNCH-537
p133
aVCRUNCH-536
p134
aVCRUNCH-535
p135
aVCRUNCH-534
p136
aVCRUNCH-533
p137
aVCRUNCH-532
p138
aVCRUNCH-531
p139
aVCRUNCH-530
p140
aVCRUNCH-529
p141
aVCRUNCH-528
p142
aVCRUNCH-527
p143
aVCRUNCH-526
p144
aVCRUNCH-525
p145
aVCRUNCH-524
p146
aVCRUNCH-523
p147
aVCRUNCH-522
p148
aVCRUNCH-521
p149
aVCRUNCH-520
p150
aVCRUNCH-519
p151
aVCRUNCH-518
p152
aVCRUNCH-517
p153
aVCRUNCH-516
p154
aVCRUNCH-515
p155
aVCRUNCH-514
p156
aVCRUNCH-513
p157
aVCRUNCH-512
p158
aVCRUNCH-511
p159
aVCRUNCH-510
p160
aVCRUNCH-509
p161
aVCRUNCH-508
p162
aVCRUNCH-507
p163
aVCRUNCH-506
p164
aVCRUNCH-505
p165
aVCRUNCH-504
p166
aVCRUNCH-503
p167
aVCRUNCH-502
p168
aVCRUNCH-501
p169
aVCRUNCH-500
p170
aVCRUNCH-499
p171
aVCRUNCH-498
p172
aVCRUNCH-497
p173
aVCRUNCH-496
p174
aVCRUNCH-495
p175
aVCRUNCH-494
p176
aVCRUNCH-493
p177
aVCRUNCH-492
p178
aVCRUNCH-491
p179
aVCRUNCH-490
p180
aVCRUNCH-489
p181
aVCRUNCH-488
p182
aVCRUNCH-487
p183
aVCRUNCH-486
p184
aVCRUNCH-485
p185
aVCRUNCH-484
p186
aVCRUNCH-483
p187
aVCRUNCH-482
p188
aVCRUNCH-481
p189
aVCRUNCH-480
p190
aVCRUNCH-479
p191
aVCRUNCH-478
p192
aVCRUNCH-477
p193
aVCRUNCH-476
p194
aVCRUNCH-475
p195
aVCRUNCH-474
p196
aVCRUNCH-473
p197
aVCRUNCH-472
p198
aVCRUNCH-471
p199
aVCRUNCH-470
p200
aVCRUNCH-469
p201
aVCRUNCH-468
p202
aVCRUNCH-467
p203
aVCRUNCH-466
p204
aVCRUNCH-465
p205
aVCRUNCH-464
p206
aVCRUNCH-463
p207
aVCRUNCH-462
p208
aVCRUNCH-461
p209
aVCRUNCH-460
p210
aVCRUNCH-459
p211
aVCRUNCH-458
p212
aVCRUNCH-457
p213
aVCRUNCH-456
p214
aVCRUNCH-455
p215
aVCRUNCH-454
p216
aVCRUNCH-453
p217
aVCRUNCH-452
p218
aVCRUNCH-451
p219
aVCRUNCH-450
p220
aVCRUNCH-449
p221
aVCRUNCH-448
p222
aVCRUNCH-447
p223
aVCRUNCH-446
p224
aVCRUNCH-445
p225
aVCRUNCH-444
p226
aVCRUNCH-443
p227
aVCRUNCH-442
p228
aVCRUNCH-441
p229
aVCRUNCH-440
p230
aVCRUNCH-439
p231
aVCRUNCH-438
p232
aVCRUNCH-437
p233
aVCRUNCH-436
p234
aVCRUNCH-435
p235
aVCRUNCH-434
p236
aVCRUNCH-433
p237
aVCRUNCH-432
p238
aVCRUNCH-431
p239
aVCRUNCH-430
p240
aVCRUNCH-429
p241
aVCRUNCH-428
p242
aVCRUNCH-427
p243
aVCRUNCH-426
p244
aVCRUNCH-425
p245
aVCRUNCH-424
p246
aVCRUNCH-423
p247
aVCRUNCH-422
p248
aVCRUNCH-421
p249
aVCRUNCH-420
p250
aVCRUNCH-419
p251
aVCRUNCH-418
p252
aVCRUNCH-417
p253
aVCRUNCH-416
p254
aVCRUNCH-415
p255
aVCRUNCH-414
p256
aVCRUNCH-413
p257
aVCRUNCH-412
p258
aVCRUNCH-411
p259
aVCRUNCH-410
p260
aVCRUNCH-409
p261
aVCRUNCH-408
p262
aVCRUNCH-407
p263
aVCRUNCH-406
p264
aVCRUNCH-405
p265
aVCRUNCH-404
p266
aVCRUNCH-403
p267
aVCRUNCH-402
p268
aVCRUNCH-401
p269
aVCRUNCH-400
p270
aVCRUNCH-399
p271
aVCRUNCH-398
p272
aVCRUNCH-397
p273
aVCRUNCH-396
p274
aVCRUNCH-395
p275
aVCRUNCH-394
p276
aVCRUNCH-393
p277
aVCRUNCH-392
p278
aVCRUNCH-391
p279
aVCRUNCH-390
p280
aVCRUNCH-389
p281
aVCRUNCH-388
p282
aVCRUNCH-387
p283
aVCRUNCH-386
p284
aVCRUNCH-385
p285
aVCRUNCH-384
p286
aVCRUNCH-383
p287
aVCRUNCH-382
p288
aVCRUNCH-381
p289
aVCRUNCH-380
p290
aVCRUNCH-379
p291
aVCRUNCH-378
p292
aVCRUNCH-377
p293
aVCRUNCH-376
p294
aVCRUNCH-375
p295
aVCRUNCH-374
p296
aVCRUNCH-373
p297
aVCRUNCH-372
p298
aVCRUNCH-371
p299
aVCRUNCH-370
p300
aVCRUNCH-369
p301
aVCRUNCH-368
p302
aVCRUNCH-367
p303
aVCRUNCH-366
p304
aVCRUNCH-365
p305
aVCRUNCH-364
p306
aVCRUNCH-363
p307
aVCRUNCH-362
p308
aVCRUNCH-361
p309
aVCRUNCH-360
p310
aVCRUNCH-359
p311
aVCRUNCH-358
p312
aVCRUNCH-357
p313
aVCRUNCH-356
p314
aVCRUNCH-355
p315
aVCRUNCH-354
p316
aVCRUNCH-353
p317
aVCRUNCH-352
p318
aVCRUNCH-351
p319
aVCRUNCH-350
p320
aVCRUNCH-349
p321
aVCRUNCH-348
p322
aVCRUNCH-347
p323
aVCRUNCH-346
p324
aVCRUNCH-345
p325
aVCRUNCH-344
p326
aVCRUNCH-343
p327
aVCRUNCH-342
p328
aVCRUNCH-341
p329
aVCRUNCH-340
p330
aVCRUNCH-339
p331
aVCRUNCH-338
p332
aVCRUNCH-337
p333
aVCRUNCH-336
p334
aVCRUNCH-335
p335
aVCRUNCH-334
p336
aVCRUNCH-333
p337
aVCRUNCH-332
p338
aVCRUNCH-331
p339
aVCRUNCH-330
p340
aVCRUNCH-329
p341
aVCRUNCH-328
p342
aVCRUNCH-327
p343
aVCRUNCH-326
p344
aVCRUNCH-325
p345
aVCRUNCH-324
p346
aVCRUNCH-323
p347
aVCRUNCH-322
p348
aVCRUNCH-321
p349
aVCRUNCH-320
p350
aVCRUNCH-319
p351
aVCRUNCH-318
p352
aVCRUNCH-317
p353
aVCRUNCH-316
p354
aVCRUNCH-315
p355
aVCRUNCH-314
p356
aVCRUNCH-313
p357
aVCRUNCH-312
p358
aVCRUNCH-311
p359
aVCRUNCH-310
p360
aVCRUNCH-309
p361
aVCRUNCH-308
p362
aVCRUNCH-307
p363
aVCRUNCH-306
p364
aVCRUNCH-305
p365
aVCRUNCH-304
p366
aVCRUNCH-303
p367
aVCRUNCH-302
p368
aVCRUNCH-301
p369
aVCRUNCH-300
p370
aVCRUNCH-299
p371
aVCRUNCH-298
p372
aVCRUNCH-297
p373
aVCRUNCH-296
p374
aVCRUNCH-295
p375
aVCRUNCH-294
p376
aVCRUNCH-293
p377
aVCRUNCH-292
p378
aVCRUNCH-291
p379
aVCRUNCH-290
p380
aVCRUNCH-289
p381
aVCRUNCH-288
p382
aVCRUNCH-287
p383
aVCRUNCH-286
p384
aVCRUNCH-285
p385
aVCRUNCH-284
p386
aVCRUNCH-283
p387
aVCRUNCH-282
p388
aVCRUNCH-281
p389
aVCRUNCH-280
p390
aVCRUNCH-279
p391
aVCRUNCH-278
p392
aVCRUNCH-277
p393
aVCRUNCH-276
p394
aVCRUNCH-275
p395
aVCRUNCH-274
p396
aVCRUNCH-273
p397
aVCRUNCH-272
p398
aVCRUNCH-271
p399
aVCRUNCH-270
p400
aVCRUNCH-269
p401
aVCRUNCH-268
p402
aVCRUNCH-267
p403
aVCRUNCH-266
p404
aVCRUNCH-265
p405
aVCRUNCH-264
p406
aVCRUNCH-263
p407
aVCRUNCH-262
p408
aVCRUNCH-261
p409
aVCRUNCH-260
p410
aVCRUNCH-259
p411
aVCRUNCH-258
p412
aVCRUNCH-257
p413
aVCRUNCH-256
p414
aVCRUNCH-255
p415
aVCRUNCH-254
p416
aVCRUNCH-253
p417
aVCRUNCH-252
p418
aVCRUNCH-251
p419
aVCRUNCH-250
p420
aVCRUNCH-249
p421
aVCRUNCH-248
p422
aVCRUNCH-247
p423
aVCRUNCH-246
p424
aVCRUNCH-245
p425
aVCRUNCH-244
p426
aVCRUNCH-243
p427
aVCRUNCH-242
p428
aVCRUNCH-241
p429
aVCRUNCH-240
p430
aVCRUNCH-239
p431
aVCRUNCH-238
p432
aVCRUNCH-237
p433
aVCRUNCH-236
p434
aVCRUNCH-235
p435
aVCRUNCH-234
p436
aVCRUNCH-233
p437
aVCRUNCH-232
p438
aVCRUNCH-231
p439
aVCRUNCH-230
p440
aVCRUNCH-229
p441
aVCRUNCH-228
p442
aVCRUNCH-227
p443
aVCRUNCH-226
p444
aVCRUNCH-225
p445
aVCRUNCH-224
p446
aVCRUNCH-223
p447
aVCRUNCH-222
p448
aVCRUNCH-221
p449
aVCRUNCH-220
p450
aVCRUNCH-219
p451
aVCRUNCH-218
p452
aVCRUNCH-217
p453
aVCRUNCH-216
p454
aVCRUNCH-215
p455
aVCRUNCH-214
p456
aVCRUNCH-213
p457
aVCRUNCH-212
p458
aVCRUNCH-211
p459
aVCRUNCH-210
p460
aVCRUNCH-209
p461
aVCRUNCH-208
p462
aVCRUNCH-207
p463
aVCRUNCH-206
p464
aVCRUNCH-205
p465
aVCRUNCH-204
p466
aVCRUNCH-203
p467
aVCRUNCH-202
p468
aVCRUNCH-201
p469
aVCRUNCH-200
p470
aVCRUNCH-199
p471
aVCRUNCH-198
p472
aVCRUNCH-197
p473
aVCRUNCH-196
p474
aVCRUNCH-195
p475
aVCRUNCH-194
p476
aVCRUNCH-193
p477
aVCRUNCH-192
p478
aVCRUNCH-191
p479
aVCRUNCH-190
p480
aVCRUNCH-189
p481
aVCRUNCH-188
p482
aVCRUNCH-187
p483
aVCRUNCH-186
p484
aVCRUNCH-185
p485
aVCRUNCH-184
p486
aVCRUNCH-183
p487
aVCRUNCH-182
p488
aVCRUNCH-181
p489
aVCRUNCH-180
p490
aVCRUNCH-179
p491
aVCRUNCH-178
p492
aVCRUNCH-177
p493
aVCRUNCH-176
p494
aVCRUNCH-175
p495
aVCRUNCH-174
p496
aVCRUNCH-173
p497
aVCRUNCH-172
p498
aVCRUNCH-171
p499
aVCRUNCH-170
p500
aVCRUNCH-169
p501
aVCRUNCH-168
p502
aVCRUNCH-167
p503
aVCRUNCH-166
p504
aVCRUNCH-165
p505
aVCRUNCH-164
p506
aVCRUNCH-163
p507
aVCRUNCH-162
p508
aVCRUNCH-161
p509
aVCRUNCH-160
p510
aVCRUNCH-159
p511
aVCRUNCH-158
p512
aVCRUNCH-157
p513
aVCRUNCH-156
p514
aVCRUNCH-155
p515
aVCRUNCH-154
p516
aVCRUNCH-153
p517
aVCRUNCH-152
p518
aVCRUNCH-151
p519
aVCRUNCH-150
p520
aVCRUNCH-149
p521
aVCRUNCH-148
p522
aVCRUNCH-147
p523
aVCRUNCH-146
p524
aVCRUNCH-145
p525
aVCRUNCH-144
p526
aVCRUNCH-143
p527
aVCRUNCH-142
p528
aVCRUNCH-141
p529
aVCRUNCH-140
p530
aVCRUNCH-139
p531
aVCRUNCH-138
p532
aVCRUNCH-137
p533
aVCRUNCH-136
p534
aVCRUNCH-135
p535
aVCRUNCH-134
p536
aVCRUNCH-133
p537
aVCRUNCH-132
p538
aVCRUNCH-131
p539
aVCRUNCH-130
p540
aVCRUNCH-129
p541
aVCRUNCH-128
p542
aVCRUNCH-127
p543
aVCRUNCH-126
p544
aVCRUNCH-125
p545
aVCRUNCH-124
p546
aVCRUNCH-123
p547
aVCRUNCH-122
p548
aVCRUNCH-121
p549
aVCRUNCH-120
p550
aVCRUNCH-119
p551
aVCRUNCH-118
p552
aVCRUNCH-117
p553
aVCRUNCH-116
p554
aVCRUNCH-115
p555
aVCRUNCH-114
p556
aVCRUNCH-113
p557
aVCRUNCH-112
p558
aVCRUNCH-111
p559
aVCRUNCH-110
p560
aVCRUNCH-109
p561
aVCRUNCH-108
p562
aVCRUNCH-107
p563
aVCRUNCH-106
p564
aVCRUNCH-105
p565
aVCRUNCH-104
p566
aVCRUNCH-103
p567
aVCRUNCH-102
p568
aVCRUNCH-101
p569
aVCRUNCH-100
p570
aVCRUNCH-99
p571
aVCRUNCH-98
p572
aVCRUNCH-97
p573
aVCRUNCH-96
p574
aVCRUNCH-95
p575
aVCRUNCH-94
p576
aVCRUNCH-93
p577
aVCRUNCH-92
p578
aVCRUNCH-91
p579
aVCRUNCH-90
p580
aVCRUNCH-89
p581
aVCRUNCH-88
p582
aVCRUNCH-87
p583
aVCRUNCH-86
p584
aVCRUNCH-85
p585
aVCRUNCH-84
p586
aVCRUNCH-83
p587
aVCRUNCH-82
p588
aVCRUNCH-81
p589
aVCRUNCH-80
p590
aVCRUNCH-79
p591
aVCRUNCH-78
p592
aVCRUNCH-77
p593
aVCRUNCH-76
p594
aVCRUNCH-75
p595
aVCRUNCH-74
p596
aVCRUNCH-73
p597
aVCRUNCH-72
p598
aVCRUNCH-71
p599
aVCRUNCH-70
p600
aVCRUNCH-69
p601
aVCRUNCH-68
p602
aVCRUNCH-67
p603
aVCRUNCH-66
p604
aVCRUNCH-65
p605
aVCRUNCH-64
p606
aVCRUNCH-63
p607
aVCRUNCH-62
p608
aVCRUNCH-61
p609
aVCRUNCH-60
p610
aVCRUNCH-59
p611
aVCRUNCH-58
p612
aVCRUNCH-57
p613
aVCRUNCH-56
p614
aVCRUNCH-55
p615
aVCRUNCH-54
p616
aVCRUNCH-53
p617
aVCRUNCH-52
p618
aVCRUNCH-51
p619
aVCRUNCH-50
p620
aVCRUNCH-49
p621
aVCRUNCH-48
p622
aVCRUNCH-47
p623
aVCRUNCH-46
p624
aVCRUNCH-45
p625
aVCRUNCH-44
p626
aVCRUNCH-43
p627
aVCRUNCH-42
p628
aVCRUNCH-41
p629
aVCRUNCH-40
p630
aVCRUNCH-39
p631
aVCRUNCH-38
p632
aVCRUNCH-37
p633
aVCRUNCH-36
p634
aVCRUNCH-35
p635
aVCRUNCH-34
p636
aVCRUNCH-33
p637
aVCRUNCH-32
p638
aVCRUNCH-31
p639
aVCRUNCH-30
p640
aVCRUNCH-29
p641
aVCRUNCH-28
p642
aVCRUNCH-27
p643
aVCRUNCH-26
p644
aVCRUNCH-25
p645
aVCRUNCH-24
p646
aVCRUNCH-23
p647
aVCRUNCH-22
p648
aVCRUNCH-21
p649
aVCRUNCH-20
p650
aVCRUNCH-19
p651
aVCRUNCH-18
p652
aVCRUNCH-17
p653
aVCRUNCH-16
p654
aVCRUNCH-15
p655
aVCRUNCH-14
p656
aVCRUNCH-13
p657
aVCRUNCH-12
p658
aVCRUNCH-11
p659
aVCRUNCH-10
p660
aVCRUNCH-9
p661
aVCRUNCH-8
p662
aVCRUNCH-7
p663
aVCRUNCH-6
p664
aVCRUNCH-5
p665
aVCRUNCH-4
p666
aVCRUNCH-3
p667
aVCRUNCH-2
p668
aVCRUNCH-1
p669
a.