(lp0
VCRYPTO-140
p1
aVCRYPTO-139
p2
aVCRYPTO-138
p3
aVCRYPTO-137
p4
aVCRYPTO-136
p5
aVCRYPTO-135
p6
aVCRYPTO-134
p7
aVCRYPTO-133
p8
aVCRYPTO-132
p9
aVCRYPTO-131
p10
aVCRYPTO-130
p11
aVCRYPTO-129
p12
aVCRYPTO-128
p13
aVCRYPTO-127
p14
aVCRYPTO-126
p15
aVCRYPTO-125
p16
aVCRYPTO-124
p17
aVCRYPTO-123
p18
aVCRYPTO-122
p19
aVCRYPTO-121
p20
aVCRYPTO-120
p21
aVCRYPTO-119
p22
aVCRYPTO-118
p23
aVCRYPTO-117
p24
aVCRYPTO-116
p25
aVCRYPTO-115
p26
aVCRYPTO-114
p27
aVCRYPTO-113
p28
aVCRYPTO-112
p29
aVCRYPTO-111
p30
aVCRYPTO-110
p31
aVCRYPTO-109
p32
aVCRYPTO-108
p33
aVCRYPTO-107
p34
aVCRYPTO-106
p35
aVCRYPTO-105
p36
aVCRYPTO-104
p37
aVCRYPTO-103
p38
aVCRYPTO-102
p39
aVCRYPTO-101
p40
aVCRYPTO-100
p41
aVCRYPTO-99
p42
aVCRYPTO-98
p43
aVCRYPTO-97
p44
aVCRYPTO-96
p45
aVCRYPTO-95
p46
aVCRYPTO-94
p47
aVCRYPTO-93
p48
aVCRYPTO-92
p49
aVCRYPTO-91
p50
aVCRYPTO-90
p51
aVCRYPTO-89
p52
aVCRYPTO-88
p53
aVCRYPTO-87
p54
aVCRYPTO-86
p55
aVCRYPTO-85
p56
aVCRYPTO-84
p57
aVCRYPTO-83
p58
aVCRYPTO-82
p59
aVCRYPTO-81
p60
aVCRYPTO-80
p61
aVCRYPTO-79
p62
aVCRYPTO-78
p63
aVCRYPTO-77
p64
aVCRYPTO-76
p65
aVCRYPTO-75
p66
aVCRYPTO-74
p67
aVCRYPTO-73
p68
aVCRYPTO-72
p69
aVCRYPTO-71
p70
aVCRYPTO-70
p71
aVCRYPTO-69
p72
aVCRYPTO-68
p73
aVCRYPTO-67
p74
aVCRYPTO-66
p75
aVCRYPTO-65
p76
aVCRYPTO-64
p77
aVCRYPTO-63
p78
aVCRYPTO-62
p79
aVCRYPTO-61
p80
aVCRYPTO-60
p81
aVCRYPTO-59
p82
aVCRYPTO-58
p83
aVCRYPTO-57
p84
aVCRYPTO-56
p85
aVCRYPTO-55
p86
aVCRYPTO-54
p87
aVCRYPTO-53
p88
aVCRYPTO-52
p89
aVCRYPTO-51
p90
aVCRYPTO-50
p91
aVCRYPTO-49
p92
aVCRYPTO-48
p93
aVCRYPTO-47
p94
aVCRYPTO-46
p95
aVCRYPTO-45
p96
aVCRYPTO-44
p97
aVCRYPTO-43
p98
aVCRYPTO-42
p99
aVCRYPTO-41
p100
aVCRYPTO-40
p101
aVCRYPTO-39
p102
aVCRYPTO-38
p103
aVCRYPTO-37
p104
aVCRYPTO-36
p105
aVCRYPTO-35
p106
aVCRYPTO-34
p107
aVCRYPTO-33
p108
aVCRYPTO-32
p109
aVCRYPTO-31
p110
aVCRYPTO-30
p111
aVCRYPTO-29
p112
aVCRYPTO-28
p113
aVCRYPTO-27
p114
aVCRYPTO-26
p115
aVCRYPTO-25
p116
aVCRYPTO-13
p117
aVCRYPTO-12
p118
aVCRYPTO-11
p119
aVCRYPTO-10
p120
aVCRYPTO-9
p121
aVCRYPTO-8
p122
aVCRYPTO-7
p123
aVCRYPTO-6
p124
aVCRYPTO-5
p125
aVCRYPTO-4
p126
aVCRYPTO-3
p127
aVCRYPTO-2
p128
aVCRYPTO-1
p129
a.