(lp0
VCSV-229
p1
aVCSV-228
p2
aVCSV-227
p3
aVCSV-226
p4
aVCSV-225
p5
aVCSV-224
p6
aVCSV-223
p7
aVCSV-222
p8
aVCSV-221
p9
aVCSV-220
p10
aVCSV-219
p11
aVCSV-218
p12
aVCSV-217
p13
aVCSV-216
p14
aVCSV-215
p15
aVCSV-214
p16
aVCSV-213
p17
aVCSV-212
p18
aVCSV-211
p19
aVCSV-210
p20
aVCSV-209
p21
aVCSV-208
p22
aVCSV-207
p23
aVCSV-206
p24
aVCSV-205
p25
aVCSV-203
p26
aVCSV-202
p27
aVCSV-201
p28
aVCSV-200
p29
aVCSV-199
p30
aVCSV-198
p31
aVCSV-197
p32
aVCSV-196
p33
aVCSV-195
p34
aVCSV-194
p35
aVCSV-193
p36
aVCSV-192
p37
aVCSV-191
p38
aVCSV-190
p39
aVCSV-189
p40
aVCSV-188
p41
aVCSV-187
p42
aVCSV-186
p43
aVCSV-185
p44
aVCSV-184
p45
aVCSV-183
p46
aVCSV-182
p47
aVCSV-181
p48
aVCSV-180
p49
aVCSV-179
p50
aVCSV-178
p51
aVCSV-177
p52
aVCSV-176
p53
aVCSV-175
p54
aVCSV-174
p55
aVCSV-173
p56
aVCSV-172
p57
aVCSV-171
p58
aVCSV-170
p59
aVCSV-169
p60
aVCSV-168
p61
aVCSV-167
p62
aVCSV-166
p63
aVCSV-165
p64
aVCSV-164
p65
aVCSV-163
p66
aVCSV-162
p67
aVCSV-161
p68
aVCSV-160
p69
aVCSV-159
p70
aVCSV-158
p71
aVCSV-157
p72
aVCSV-156
p73
aVCSV-155
p74
aVCSV-154
p75
aVCSV-153
p76
aVCSV-152
p77
aVCSV-151
p78
aVCSV-150
p79
aVCSV-149
p80
aVCSV-148
p81
aVCSV-147
p82
aVCSV-146
p83
aVCSV-145
p84
aVCSV-144
p85
aVCSV-143
p86
aVCSV-142
p87
aVCSV-141
p88
aVCSV-140
p89
aVCSV-139
p90
aVCSV-138
p91
aVCSV-137
p92
aVCSV-135
p93
aVCSV-134
p94
aVCSV-133
p95
aVCSV-132
p96
aVCSV-131
p97
aVCSV-130
p98
aVCSV-129
p99
aVCSV-128
p100
aVCSV-127
p101
aVCSV-126
p102
aVCSV-125
p103
aVCSV-124
p104
aVCSV-123
p105
aVCSV-122
p106
aVCSV-121
p107
aVCSV-120
p108
aVCSV-119
p109
aVCSV-118
p110
aVCSV-117
p111
aVCSV-116
p112
aVCSV-115
p113
aVCSV-114
p114
aVCSV-113
p115
aVCSV-112
p116
aVCSV-111
p117
aVCSV-110
p118
aVCSV-109
p119
aVCSV-108
p120
aVCSV-107
p121
aVCSV-106
p122
aVCSV-105
p123
aVCSV-104
p124
aVCSV-103
p125
aVCSV-102
p126
aVCSV-101
p127
aVCSV-100
p128
aVCSV-99
p129
aVCSV-98
p130
aVCSV-97
p131
aVCSV-96
p132
aVCSV-95
p133
aVCSV-94
p134
aVCSV-93
p135
aVCSV-92
p136
aVCSV-91
p137
aVCSV-90
p138
aVCSV-89
p139
aVCSV-88
p140
aVCSV-87
p141
aVCSV-86
p142
aVCSV-85
p143
aVCSV-84
p144
aVCSV-83
p145
aVCSV-82
p146
aVCSV-81
p147
aVCSV-80
p148
aVCSV-79
p149
aVCSV-78
p150
aVCSV-77
p151
aVCSV-76
p152
aVCSV-75
p153
aVCSV-74
p154
aVCSV-73
p155
aVCSV-72
p156
aVCSV-71
p157
aVCSV-70
p158
aVCSV-69
p159
aVCSV-68
p160
aVCSV-67
p161
aVCSV-66
p162
aVCSV-65
p163
aVCSV-64
p164
aVCSV-63
p165
aVCSV-62
p166
aVCSV-61
p167
aVCSV-60
p168
aVCSV-59
p169
aVCSV-58
p170
aVCSV-57
p171
aVCSV-56
p172
aVCSV-55
p173
aVCSV-54
p174
aVCSV-53
p175
aVCSV-52
p176
aVCSV-51
p177
aVCSV-50
p178
aVCSV-49
p179
aVCSV-48
p180
aVCSV-47
p181
aVCSV-46
p182
aVCSV-45
p183
aVCSV-44
p184
aVCSV-43
p185
aVCSV-42
p186
aVCSV-41
p187
aVCSV-40
p188
aVCSV-39
p189
aVCSV-38
p190
aVCSV-37
p191
aVCSV-36
p192
aVCSV-35
p193
aVCSV-34
p194
aVCSV-33
p195
aVCSV-32
p196
aVCSV-31
p197
aVCSV-30
p198
aVCSV-29
p199
aVCSV-28
p200
aVCSV-27
p201
aVCSV-26
p202
aVCSV-25
p203
aVCSV-24
p204
aVCSV-23
p205
aVCSV-22
p206
aVCSV-21
p207
aVCSV-20
p208
aVCSV-19
p209
aVCSV-18
p210
aVCSV-17
p211
aVCSV-16
p212
aVCSV-15
p213
aVCSV-14
p214
aVCSV-13
p215
aVCSV-12
p216
aVCSV-11
p217
aVCSV-10
p218
aVCSV-9
p219
aVCSV-8
p220
aVCSV-7
p221
aVCSV-6
p222
aVCSV-5
p223
aVCSV-4
p224
aVCSV-3
p225
aVCSV-2
p226
aVCSV-1
p227
a.