(lp0
VCTAKES-518
p1
aVCTAKES-517
p2
aVCTAKES-516
p3
aVCTAKES-515
p4
aVCTAKES-514
p5
aVCTAKES-513
p6
aVCTAKES-512
p7
aVCTAKES-511
p8
aVCTAKES-510
p9
aVCTAKES-509
p10
aVCTAKES-508
p11
aVCTAKES-507
p12
aVCTAKES-506
p13
aVCTAKES-505
p14
aVCTAKES-504
p15
aVCTAKES-503
p16
aVCTAKES-502
p17
aVCTAKES-501
p18
aVCTAKES-500
p19
aVCTAKES-499
p20
aVCTAKES-498
p21
aVCTAKES-497
p22
aVCTAKES-496
p23
aVCTAKES-495
p24
aVCTAKES-494
p25
aVCTAKES-493
p26
aVCTAKES-492
p27
aVCTAKES-491
p28
aVCTAKES-490
p29
aVCTAKES-489
p30
aVCTAKES-488
p31
aVCTAKES-487
p32
aVCTAKES-486
p33
aVCTAKES-485
p34
aVCTAKES-484
p35
aVCTAKES-483
p36
aVCTAKES-482
p37
aVCTAKES-481
p38
aVCTAKES-480
p39
aVCTAKES-479
p40
aVCTAKES-478
p41
aVCTAKES-477
p42
aVCTAKES-476
p43
aVCTAKES-475
p44
aVCTAKES-474
p45
aVCTAKES-473
p46
aVCTAKES-472
p47
aVCTAKES-471
p48
aVCTAKES-470
p49
aVCTAKES-469
p50
aVCTAKES-468
p51
aVCTAKES-467
p52
aVCTAKES-466
p53
aVCTAKES-465
p54
aVCTAKES-464
p55
aVCTAKES-463
p56
aVCTAKES-462
p57
aVCTAKES-461
p58
aVCTAKES-460
p59
aVCTAKES-459
p60
aVCTAKES-458
p61
aVCTAKES-457
p62
aVCTAKES-456
p63
aVCTAKES-455
p64
aVCTAKES-454
p65
aVCTAKES-453
p66
aVCTAKES-452
p67
aVCTAKES-451
p68
aVCTAKES-450
p69
aVCTAKES-449
p70
aVCTAKES-448
p71
aVCTAKES-447
p72
aVCTAKES-446
p73
aVCTAKES-445
p74
aVCTAKES-444
p75
aVCTAKES-443
p76
aVCTAKES-442
p77
aVCTAKES-441
p78
aVCTAKES-440
p79
aVCTAKES-439
p80
aVCTAKES-438
p81
aVCTAKES-437
p82
aVCTAKES-436
p83
aVCTAKES-435
p84
aVCTAKES-434
p85
aVCTAKES-433
p86
aVCTAKES-432
p87
aVCTAKES-431
p88
aVCTAKES-430
p89
aVCTAKES-429
p90
aVCTAKES-428
p91
aVCTAKES-427
p92
aVCTAKES-426
p93
aVCTAKES-425
p94
aVCTAKES-424
p95
aVCTAKES-423
p96
aVCTAKES-422
p97
aVCTAKES-421
p98
aVCTAKES-420
p99
aVCTAKES-419
p100
aVCTAKES-418
p101
aVCTAKES-417
p102
aVCTAKES-416
p103
aVCTAKES-415
p104
aVCTAKES-414
p105
aVCTAKES-413
p106
aVCTAKES-412
p107
aVCTAKES-411
p108
aVCTAKES-410
p109
aVCTAKES-409
p110
aVCTAKES-408
p111
aVCTAKES-407
p112
aVCTAKES-406
p113
aVCTAKES-405
p114
aVCTAKES-404
p115
aVCTAKES-403
p116
aVCTAKES-402
p117
aVCTAKES-401
p118
aVCTAKES-400
p119
aVCTAKES-399
p120
aVCTAKES-398
p121
aVCTAKES-397
p122
aVCTAKES-396
p123
aVCTAKES-395
p124
aVCTAKES-394
p125
aVCTAKES-393
p126
aVCTAKES-392
p127
aVCTAKES-391
p128
aVCTAKES-390
p129
aVCTAKES-389
p130
aVCTAKES-388
p131
aVCTAKES-387
p132
aVCTAKES-386
p133
aVCTAKES-385
p134
aVCTAKES-384
p135
aVCTAKES-383
p136
aVCTAKES-382
p137
aVCTAKES-381
p138
aVCTAKES-380
p139
aVCTAKES-379
p140
aVCTAKES-378
p141
aVCTAKES-377
p142
aVCTAKES-376
p143
aVCTAKES-375
p144
aVCTAKES-374
p145
aVCTAKES-373
p146
aVCTAKES-372
p147
aVCTAKES-371
p148
aVCTAKES-370
p149
aVCTAKES-369
p150
aVCTAKES-368
p151
aVCTAKES-367
p152
aVCTAKES-366
p153
aVCTAKES-365
p154
aVCTAKES-364
p155
aVCTAKES-363
p156
aVCTAKES-362
p157
aVCTAKES-361
p158
aVCTAKES-360
p159
aVCTAKES-359
p160
aVCTAKES-358
p161
aVCTAKES-357
p162
aVCTAKES-356
p163
aVCTAKES-355
p164
aVCTAKES-354
p165
aVCTAKES-353
p166
aVCTAKES-352
p167
aVCTAKES-351
p168
aVCTAKES-350
p169
aVCTAKES-349
p170
aVCTAKES-348
p171
aVCTAKES-347
p172
aVCTAKES-346
p173
aVCTAKES-345
p174
aVCTAKES-344
p175
aVCTAKES-343
p176
aVCTAKES-342
p177
aVCTAKES-341
p178
aVCTAKES-340
p179
aVCTAKES-339
p180
aVCTAKES-338
p181
aVCTAKES-337
p182
aVCTAKES-336
p183
aVCTAKES-335
p184
aVCTAKES-334
p185
aVCTAKES-333
p186
aVCTAKES-332
p187
aVCTAKES-331
p188
aVCTAKES-330
p189
aVCTAKES-329
p190
aVCTAKES-328
p191
aVCTAKES-327
p192
aVCTAKES-326
p193
aVCTAKES-325
p194
aVCTAKES-324
p195
aVCTAKES-323
p196
aVCTAKES-322
p197
aVCTAKES-321
p198
aVCTAKES-320
p199
aVCTAKES-319
p200
aVCTAKES-318
p201
aVCTAKES-317
p202
aVCTAKES-316
p203
aVCTAKES-315
p204
aVCTAKES-314
p205
aVCTAKES-313
p206
aVCTAKES-312
p207
aVCTAKES-311
p208
aVCTAKES-310
p209
aVCTAKES-309
p210
aVCTAKES-308
p211
aVCTAKES-307
p212
aVCTAKES-306
p213
aVCTAKES-305
p214
aVCTAKES-304
p215
aVCTAKES-303
p216
aVCTAKES-302
p217
aVCTAKES-301
p218
aVCTAKES-300
p219
aVCTAKES-299
p220
aVCTAKES-298
p221
aVCTAKES-297
p222
aVCTAKES-296
p223
aVCTAKES-295
p224
aVCTAKES-294
p225
aVCTAKES-293
p226
aVCTAKES-292
p227
aVCTAKES-291
p228
aVCTAKES-290
p229
aVCTAKES-289
p230
aVCTAKES-288
p231
aVCTAKES-287
p232
aVCTAKES-286
p233
aVCTAKES-285
p234
aVCTAKES-284
p235
aVCTAKES-283
p236
aVCTAKES-282
p237
aVCTAKES-281
p238
aVCTAKES-280
p239
aVCTAKES-279
p240
aVCTAKES-278
p241
aVCTAKES-277
p242
aVCTAKES-276
p243
aVCTAKES-275
p244
aVCTAKES-274
p245
aVCTAKES-273
p246
aVCTAKES-272
p247
aVCTAKES-271
p248
aVCTAKES-270
p249
aVCTAKES-269
p250
aVCTAKES-268
p251
aVCTAKES-267
p252
aVCTAKES-266
p253
aVCTAKES-265
p254
aVCTAKES-264
p255
aVCTAKES-263
p256
aVCTAKES-262
p257
aVCTAKES-261
p258
aVCTAKES-260
p259
aVCTAKES-259
p260
aVCTAKES-258
p261
aVCTAKES-257
p262
aVCTAKES-256
p263
aVCTAKES-255
p264
aVCTAKES-254
p265
aVCTAKES-253
p266
aVCTAKES-252
p267
aVCTAKES-251
p268
aVCTAKES-250
p269
aVCTAKES-249
p270
aVCTAKES-248
p271
aVCTAKES-247
p272
aVCTAKES-246
p273
aVCTAKES-245
p274
aVCTAKES-244
p275
aVCTAKES-243
p276
aVCTAKES-242
p277
aVCTAKES-241
p278
aVCTAKES-240
p279
aVCTAKES-239
p280
aVCTAKES-238
p281
aVCTAKES-237
p282
aVCTAKES-236
p283
aVCTAKES-235
p284
aVCTAKES-234
p285
aVCTAKES-233
p286
aVCTAKES-232
p287
aVCTAKES-231
p288
aVCTAKES-230
p289
aVCTAKES-229
p290
aVCTAKES-228
p291
aVCTAKES-227
p292
aVCTAKES-226
p293
aVCTAKES-225
p294
aVCTAKES-224
p295
aVCTAKES-223
p296
aVCTAKES-222
p297
aVCTAKES-221
p298
aVCTAKES-220
p299
aVCTAKES-219
p300
aVCTAKES-218
p301
aVCTAKES-217
p302
aVCTAKES-216
p303
aVCTAKES-215
p304
aVCTAKES-214
p305
aVCTAKES-213
p306
aVCTAKES-212
p307
aVCTAKES-211
p308
aVCTAKES-210
p309
aVCTAKES-209
p310
aVCTAKES-208
p311
aVCTAKES-207
p312
aVCTAKES-206
p313
aVCTAKES-205
p314
aVCTAKES-204
p315
aVCTAKES-203
p316
aVCTAKES-202
p317
aVCTAKES-201
p318
aVCTAKES-200
p319
aVCTAKES-199
p320
aVCTAKES-198
p321
aVCTAKES-197
p322
aVCTAKES-196
p323
aVCTAKES-195
p324
aVCTAKES-194
p325
aVCTAKES-193
p326
aVCTAKES-192
p327
aVCTAKES-191
p328
aVCTAKES-190
p329
aVCTAKES-189
p330
aVCTAKES-188
p331
aVCTAKES-187
p332
aVCTAKES-186
p333
aVCTAKES-185
p334
aVCTAKES-184
p335
aVCTAKES-183
p336
aVCTAKES-182
p337
aVCTAKES-181
p338
aVCTAKES-180
p339
aVCTAKES-179
p340
aVCTAKES-178
p341
aVCTAKES-177
p342
aVCTAKES-176
p343
aVCTAKES-175
p344
aVCTAKES-174
p345
aVCTAKES-173
p346
aVCTAKES-172
p347
aVCTAKES-171
p348
aVCTAKES-170
p349
aVCTAKES-169
p350
aVCTAKES-168
p351
aVCTAKES-167
p352
aVCTAKES-166
p353
aVCTAKES-165
p354
aVCTAKES-164
p355
aVCTAKES-163
p356
aVCTAKES-162
p357
aVCTAKES-161
p358
aVCTAKES-160
p359
aVCTAKES-159
p360
aVCTAKES-158
p361
aVCTAKES-157
p362
aVCTAKES-156
p363
aVCTAKES-155
p364
aVCTAKES-154
p365
aVCTAKES-153
p366
aVCTAKES-152
p367
aVCTAKES-151
p368
aVCTAKES-150
p369
aVCTAKES-149
p370
aVCTAKES-148
p371
aVCTAKES-147
p372
aVCTAKES-146
p373
aVCTAKES-145
p374
aVCTAKES-144
p375
aVCTAKES-143
p376
aVCTAKES-142
p377
aVCTAKES-141
p378
aVCTAKES-140
p379
aVCTAKES-139
p380
aVCTAKES-138
p381
aVCTAKES-137
p382
aVCTAKES-136
p383
aVCTAKES-135
p384
aVCTAKES-134
p385
aVCTAKES-133
p386
aVCTAKES-132
p387
aVCTAKES-131
p388
aVCTAKES-130
p389
aVCTAKES-129
p390
aVCTAKES-128
p391
aVCTAKES-127
p392
aVCTAKES-126
p393
aVCTAKES-125
p394
aVCTAKES-124
p395
aVCTAKES-123
p396
aVCTAKES-122
p397
aVCTAKES-121
p398
aVCTAKES-120
p399
aVCTAKES-119
p400
aVCTAKES-118
p401
aVCTAKES-117
p402
aVCTAKES-116
p403
aVCTAKES-115
p404
aVCTAKES-114
p405
aVCTAKES-113
p406
aVCTAKES-112
p407
aVCTAKES-111
p408
aVCTAKES-110
p409
aVCTAKES-109
p410
aVCTAKES-108
p411
aVCTAKES-107
p412
aVCTAKES-106
p413
aVCTAKES-105
p414
aVCTAKES-104
p415
aVCTAKES-103
p416
aVCTAKES-102
p417
aVCTAKES-101
p418
aVCTAKES-100
p419
aVCTAKES-99
p420
aVCTAKES-98
p421
aVCTAKES-97
p422
aVCTAKES-96
p423
aVCTAKES-95
p424
aVCTAKES-94
p425
aVCTAKES-93
p426
aVCTAKES-92
p427
aVCTAKES-91
p428
aVCTAKES-90
p429
aVCTAKES-89
p430
aVCTAKES-88
p431
aVCTAKES-87
p432
aVCTAKES-86
p433
aVCTAKES-85
p434
aVCTAKES-84
p435
aVCTAKES-83
p436
aVCTAKES-82
p437
aVCTAKES-81
p438
aVCTAKES-80
p439
aVCTAKES-79
p440
aVCTAKES-78
p441
aVCTAKES-77
p442
aVCTAKES-76
p443
aVCTAKES-75
p444
aVCTAKES-74
p445
aVCTAKES-73
p446
aVCTAKES-72
p447
aVCTAKES-71
p448
aVCTAKES-70
p449
aVCTAKES-69
p450
aVCTAKES-68
p451
aVCTAKES-67
p452
aVCTAKES-66
p453
aVCTAKES-65
p454
aVCTAKES-64
p455
aVCTAKES-63
p456
aVCTAKES-62
p457
aVCTAKES-61
p458
aVCTAKES-60
p459
aVCTAKES-59
p460
aVCTAKES-58
p461
aVCTAKES-57
p462
aVCTAKES-56
p463
aVCTAKES-55
p464
aVCTAKES-54
p465
aVCTAKES-53
p466
aVCTAKES-52
p467
aVCTAKES-51
p468
aVCTAKES-50
p469
aVCTAKES-49
p470
aVCTAKES-48
p471
aVCTAKES-47
p472
aVCTAKES-46
p473
aVCTAKES-45
p474
aVCTAKES-44
p475
aVCTAKES-43
p476
aVCTAKES-42
p477
aVCTAKES-41
p478
aVCTAKES-40
p479
aVCTAKES-39
p480
aVCTAKES-38
p481
aVCTAKES-37
p482
aVCTAKES-36
p483
aVCTAKES-35
p484
aVCTAKES-34
p485
aVCTAKES-33
p486
aVCTAKES-32
p487
aVCTAKES-31
p488
aVCTAKES-30
p489
aVCTAKES-29
p490
aVCTAKES-28
p491
aVCTAKES-27
p492
aVCTAKES-26
p493
aVCTAKES-25
p494
aVCTAKES-24
p495
aVCTAKES-23
p496
aVCTAKES-22
p497
aVCTAKES-21
p498
aVCTAKES-20
p499
aVCTAKES-19
p500
aVCTAKES-18
p501
aVCTAKES-17
p502
aVCTAKES-16
p503
aVCTAKES-15
p504
aVCTAKES-14
p505
aVCTAKES-13
p506
aVCTAKES-12
p507
aVCTAKES-11
p508
aVCTAKES-10
p509
aVCTAKES-9
p510
aVCTAKES-8
p511
aVCTAKES-7
p512
aVCTAKES-6
p513
aVCTAKES-5
p514
aVCTAKES-4
p515
aVCTAKES-3
p516
aVCTAKES-2
p517
aVCTAKES-1
p518
a.