(lp0
VCURATOR-472
p1
aVCURATOR-471
p2
aVCURATOR-470
p3
aVCURATOR-469
p4
aVCURATOR-468
p5
aVCURATOR-467
p6
aVCURATOR-466
p7
aVCURATOR-465
p8
aVCURATOR-464
p9
aVCURATOR-463
p10
aVCURATOR-462
p11
aVCURATOR-461
p12
aVCURATOR-460
p13
aVCURATOR-459
p14
aVCURATOR-458
p15
aVCURATOR-457
p16
aVCURATOR-456
p17
aVCURATOR-455
p18
aVCURATOR-454
p19
aVCURATOR-453
p20
aVCURATOR-452
p21
aVCURATOR-451
p22
aVCURATOR-450
p23
aVCURATOR-449
p24
aVCURATOR-448
p25
aVCURATOR-447
p26
aVCURATOR-446
p27
aVCURATOR-445
p28
aVCURATOR-444
p29
aVCURATOR-443
p30
aVCURATOR-442
p31
aVCURATOR-441
p32
aVCURATOR-440
p33
aVCURATOR-439
p34
aVCURATOR-438
p35
aVCURATOR-437
p36
aVCURATOR-436
p37
aVCURATOR-435
p38
aVCURATOR-434
p39
aVCURATOR-433
p40
aVCURATOR-432
p41
aVCURATOR-431
p42
aVCURATOR-430
p43
aVCURATOR-429
p44
aVCURATOR-428
p45
aVCURATOR-427
p46
aVCURATOR-426
p47
aVCURATOR-425
p48
aVCURATOR-424
p49
aVCURATOR-423
p50
aVCURATOR-422
p51
aVCURATOR-421
p52
aVCURATOR-420
p53
aVCURATOR-419
p54
aVCURATOR-418
p55
aVCURATOR-417
p56
aVCURATOR-416
p57
aVCURATOR-415
p58
aVCURATOR-414
p59
aVCURATOR-413
p60
aVCURATOR-412
p61
aVCURATOR-411
p62
aVCURATOR-410
p63
aVCURATOR-409
p64
aVCURATOR-408
p65
aVCURATOR-407
p66
aVCURATOR-406
p67
aVCURATOR-405
p68
aVCURATOR-404
p69
aVCURATOR-403
p70
aVCURATOR-402
p71
aVCURATOR-401
p72
aVCURATOR-400
p73
aVCURATOR-399
p74
aVCURATOR-398
p75
aVCURATOR-397
p76
aVCURATOR-396
p77
aVCURATOR-395
p78
aVCURATOR-394
p79
aVCURATOR-393
p80
aVCURATOR-392
p81
aVCURATOR-391
p82
aVCURATOR-390
p83
aVCURATOR-389
p84
aVCURATOR-388
p85
aVCURATOR-387
p86
aVCURATOR-386
p87
aVCURATOR-385
p88
aVCURATOR-384
p89
aVCURATOR-383
p90
aVCURATOR-382
p91
aVCURATOR-381
p92
aVCURATOR-380
p93
aVCURATOR-379
p94
aVCURATOR-378
p95
aVCURATOR-377
p96
aVCURATOR-376
p97
aVCURATOR-375
p98
aVCURATOR-374
p99
aVCURATOR-373
p100
aVCURATOR-372
p101
aVCURATOR-371
p102
aVCURATOR-370
p103
aVCURATOR-369
p104
aVCURATOR-368
p105
aVCURATOR-367
p106
aVCURATOR-366
p107
aVCURATOR-365
p108
aVCURATOR-364
p109
aVCURATOR-363
p110
aVCURATOR-362
p111
aVCURATOR-361
p112
aVCURATOR-360
p113
aVCURATOR-359
p114
aVCURATOR-358
p115
aVCURATOR-357
p116
aVCURATOR-356
p117
aVCURATOR-355
p118
aVCURATOR-354
p119
aVCURATOR-353
p120
aVCURATOR-352
p121
aVCURATOR-351
p122
aVCURATOR-350
p123
aVCURATOR-349
p124
aVCURATOR-348
p125
aVCURATOR-347
p126
aVCURATOR-346
p127
aVCURATOR-345
p128
aVCURATOR-344
p129
aVCURATOR-343
p130
aVCURATOR-342
p131
aVCURATOR-341
p132
aVCURATOR-340
p133
aVCURATOR-339
p134
aVCURATOR-338
p135
aVCURATOR-337
p136
aVCURATOR-336
p137
aVCURATOR-335
p138
aVCURATOR-334
p139
aVCURATOR-333
p140
aVCURATOR-332
p141
aVCURATOR-331
p142
aVCURATOR-330
p143
aVCURATOR-329
p144
aVCURATOR-328
p145
aVCURATOR-327
p146
aVCURATOR-326
p147
aVCURATOR-325
p148
aVCURATOR-324
p149
aVCURATOR-323
p150
aVCURATOR-322
p151
aVCURATOR-321
p152
aVCURATOR-320
p153
aVCURATOR-319
p154
aVCURATOR-318
p155
aVCURATOR-317
p156
aVCURATOR-316
p157
aVCURATOR-315
p158
aVCURATOR-314
p159
aVCURATOR-313
p160
aVCURATOR-312
p161
aVCURATOR-311
p162
aVCURATOR-310
p163
aVCURATOR-309
p164
aVCURATOR-308
p165
aVCURATOR-307
p166
aVCURATOR-306
p167
aVCURATOR-305
p168
aVCURATOR-304
p169
aVCURATOR-303
p170
aVCURATOR-302
p171
aVCURATOR-301
p172
aVCURATOR-300
p173
aVCURATOR-299
p174
aVCURATOR-298
p175
aVCURATOR-297
p176
aVCURATOR-296
p177
aVCURATOR-295
p178
aVCURATOR-294
p179
aVCURATOR-293
p180
aVCURATOR-292
p181
aVCURATOR-291
p182
aVCURATOR-290
p183
aVCURATOR-289
p184
aVCURATOR-288
p185
aVCURATOR-287
p186
aVCURATOR-286
p187
aVCURATOR-285
p188
aVCURATOR-284
p189
aVCURATOR-283
p190
aVCURATOR-282
p191
aVCURATOR-281
p192
aVCURATOR-280
p193
aVCURATOR-279
p194
aVCURATOR-278
p195
aVCURATOR-277
p196
aVCURATOR-276
p197
aVCURATOR-275
p198
aVCURATOR-274
p199
aVCURATOR-273
p200
aVCURATOR-272
p201
aVCURATOR-271
p202
aVCURATOR-270
p203
aVCURATOR-269
p204
aVCURATOR-268
p205
aVCURATOR-267
p206
aVCURATOR-266
p207
aVCURATOR-265
p208
aVCURATOR-264
p209
aVCURATOR-263
p210
aVCURATOR-262
p211
aVCURATOR-261
p212
aVCURATOR-260
p213
aVCURATOR-259
p214
aVCURATOR-258
p215
aVCURATOR-257
p216
aVCURATOR-256
p217
aVCURATOR-255
p218
aVCURATOR-254
p219
aVCURATOR-253
p220
aVCURATOR-252
p221
aVCURATOR-251
p222
aVCURATOR-250
p223
aVCURATOR-249
p224
aVCURATOR-248
p225
aVCURATOR-247
p226
aVCURATOR-246
p227
aVCURATOR-245
p228
aVCURATOR-244
p229
aVCURATOR-243
p230
aVCURATOR-242
p231
aVCURATOR-241
p232
aVCURATOR-240
p233
aVCURATOR-239
p234
aVCURATOR-238
p235
aVCURATOR-237
p236
aVCURATOR-236
p237
aVCURATOR-235
p238
aVCURATOR-234
p239
aVCURATOR-233
p240
aVCURATOR-232
p241
aVCURATOR-231
p242
aVCURATOR-230
p243
aVCURATOR-229
p244
aVCURATOR-228
p245
aVCURATOR-227
p246
aVCURATOR-226
p247
aVCURATOR-225
p248
aVCURATOR-224
p249
aVCURATOR-223
p250
aVCURATOR-222
p251
aVCURATOR-221
p252
aVCURATOR-220
p253
aVCURATOR-219
p254
aVCURATOR-218
p255
aVCURATOR-217
p256
aVCURATOR-216
p257
aVCURATOR-215
p258
aVCURATOR-214
p259
aVCURATOR-212
p260
aVCURATOR-211
p261
aVCURATOR-210
p262
aVCURATOR-209
p263
aVCURATOR-208
p264
aVCURATOR-207
p265
aVCURATOR-206
p266
aVCURATOR-205
p267
aVCURATOR-204
p268
aVCURATOR-203
p269
aVCURATOR-202
p270
aVCURATOR-201
p271
aVCURATOR-200
p272
aVCURATOR-199
p273
aVCURATOR-198
p274
aVCURATOR-197
p275
aVCURATOR-196
p276
aVCURATOR-195
p277
aVCURATOR-194
p278
aVCURATOR-193
p279
aVCURATOR-192
p280
aVCURATOR-191
p281
aVCURATOR-190
p282
aVCURATOR-189
p283
aVCURATOR-188
p284
aVCURATOR-187
p285
aVCURATOR-186
p286
aVCURATOR-185
p287
aVCURATOR-184
p288
aVCURATOR-183
p289
aVCURATOR-182
p290
aVCURATOR-181
p291
aVCURATOR-180
p292
aVCURATOR-179
p293
aVCURATOR-178
p294
aVCURATOR-177
p295
aVCURATOR-176
p296
aVCURATOR-175
p297
aVCURATOR-174
p298
aVCURATOR-173
p299
aVCURATOR-172
p300
aVCURATOR-171
p301
aVCURATOR-170
p302
aVCURATOR-169
p303
aVCURATOR-168
p304
aVCURATOR-167
p305
aVCURATOR-166
p306
aVCURATOR-165
p307
aVCURATOR-164
p308
aVCURATOR-163
p309
aVCURATOR-162
p310
aVCURATOR-161
p311
aVCURATOR-160
p312
aVCURATOR-159
p313
aVCURATOR-158
p314
aVCURATOR-157
p315
aVCURATOR-156
p316
aVCURATOR-155
p317
aVCURATOR-154
p318
aVCURATOR-153
p319
aVCURATOR-152
p320
aVCURATOR-151
p321
aVCURATOR-150
p322
aVCURATOR-149
p323
aVCURATOR-148
p324
aVCURATOR-147
p325
aVCURATOR-146
p326
aVCURATOR-145
p327
aVCURATOR-144
p328
aVCURATOR-143
p329
aVCURATOR-142
p330
aVCURATOR-141
p331
aVCURATOR-140
p332
aVCURATOR-139
p333
aVCURATOR-138
p334
aVCURATOR-137
p335
aVCURATOR-136
p336
aVCURATOR-135
p337
aVCURATOR-134
p338
aVCURATOR-133
p339
aVCURATOR-132
p340
aVCURATOR-131
p341
aVCURATOR-130
p342
aVCURATOR-129
p343
aVCURATOR-128
p344
aVCURATOR-127
p345
aVCURATOR-126
p346
aVCURATOR-125
p347
aVCURATOR-124
p348
aVCURATOR-123
p349
aVCURATOR-122
p350
aVCURATOR-121
p351
aVCURATOR-120
p352
aVCURATOR-119
p353
aVCURATOR-118
p354
aVCURATOR-117
p355
aVCURATOR-116
p356
aVCURATOR-115
p357
aVCURATOR-114
p358
aVCURATOR-113
p359
aVCURATOR-112
p360
aVCURATOR-111
p361
aVCURATOR-110
p362
aVCURATOR-109
p363
aVCURATOR-108
p364
aVCURATOR-107
p365
aVCURATOR-106
p366
aVCURATOR-105
p367
aVCURATOR-104
p368
aVCURATOR-103
p369
aVCURATOR-102
p370
aVCURATOR-101
p371
aVCURATOR-100
p372
aVCURATOR-99
p373
aVCURATOR-98
p374
aVCURATOR-97
p375
aVCURATOR-96
p376
aVCURATOR-95
p377
aVCURATOR-94
p378
aVCURATOR-93
p379
aVCURATOR-92
p380
aVCURATOR-91
p381
aVCURATOR-90
p382
aVCURATOR-89
p383
aVCURATOR-88
p384
aVCURATOR-87
p385
aVCURATOR-86
p386
aVCURATOR-85
p387
aVCURATOR-84
p388
aVCURATOR-83
p389
aVCURATOR-82
p390
aVCURATOR-81
p391
aVCURATOR-80
p392
aVCURATOR-79
p393
aVCURATOR-78
p394
aVCURATOR-77
p395
aVCURATOR-76
p396
aVCURATOR-75
p397
aVCURATOR-74
p398
aVCURATOR-73
p399
aVCURATOR-72
p400
aVCURATOR-71
p401
aVCURATOR-70
p402
aVCURATOR-69
p403
aVCURATOR-68
p404
aVCURATOR-67
p405
aVCURATOR-66
p406
aVCURATOR-65
p407
aVCURATOR-64
p408
aVCURATOR-63
p409
aVCURATOR-62
p410
aVCURATOR-61
p411
aVCURATOR-60
p412
aVCURATOR-59
p413
aVCURATOR-58
p414
aVCURATOR-57
p415
aVCURATOR-56
p416
aVCURATOR-55
p417
aVCURATOR-54
p418
aVCURATOR-53
p419
aVCURATOR-52
p420
aVCURATOR-51
p421
aVCURATOR-50
p422
aVCURATOR-49
p423
aVCURATOR-48
p424
aVCURATOR-47
p425
aVCURATOR-46
p426
aVCURATOR-45
p427
aVCURATOR-44
p428
aVCURATOR-43
p429
aVCURATOR-42
p430
aVCURATOR-41
p431
aVCURATOR-40
p432
aVCURATOR-39
p433
aVCURATOR-38
p434
aVCURATOR-37
p435
aVCURATOR-36
p436
aVCURATOR-35
p437
aVCURATOR-34
p438
aVCURATOR-33
p439
aVCURATOR-32
p440
aVCURATOR-31
p441
aVCURATOR-30
p442
aVCURATOR-29
p443
aVCURATOR-28
p444
aVCURATOR-27
p445
aVCURATOR-26
p446
aVCURATOR-25
p447
aVCURATOR-24
p448
aVCURATOR-23
p449
aVCURATOR-22
p450
aVCURATOR-21
p451
aVCURATOR-20
p452
aVCURATOR-19
p453
aVCURATOR-18
p454
aVCURATOR-17
p455
aVCURATOR-16
p456
aVCURATOR-15
p457
aVCURATOR-14
p458
aVCURATOR-13
p459
aVCURATOR-12
p460
aVCURATOR-11
p461
aVCURATOR-10
p462
aVCURATOR-9
p463
aVCURATOR-8
p464
aVCURATOR-7
p465
aVCURATOR-6
p466
aVCURATOR-5
p467
aVCURATOR-4
p468
aVCURATOR-3
p469
aVCURATOR-2
p470
aVCURATOR-1
p471
a.