(lp0
VCXF-7810
p1
aVCXF-7809
p2
aVCXF-7808
p3
aVCXF-7807
p4
aVCXF-7806
p5
aVCXF-7805
p6
aVCXF-7804
p7
aVCXF-7803
p8
aVCXF-7802
p9
aVCXF-7801
p10
aVCXF-7800
p11
aVCXF-7799
p12
aVCXF-7798
p13
aVCXF-7797
p14
aVCXF-7796
p15
aVCXF-7795
p16
aVCXF-7794
p17
aVCXF-7793
p18
aVCXF-7792
p19
aVCXF-7791
p20
aVCXF-7790
p21
aVCXF-7789
p22
aVCXF-7788
p23
aVCXF-7787
p24
aVCXF-7786
p25
aVCXF-7785
p26
aVCXF-7784
p27
aVCXF-7783
p28
aVCXF-7782
p29
aVCXF-7781
p30
aVCXF-7780
p31
aVCXF-7779
p32
aVCXF-7778
p33
aVCXF-7777
p34
aVCXF-7776
p35
aVCXF-7775
p36
aVCXF-7774
p37
aVCXF-7773
p38
aVCXF-7772
p39
aVCXF-7771
p40
aVCXF-7770
p41
aVCXF-7769
p42
aVCXF-7768
p43
aVCXF-7767
p44
aVCXF-7766
p45
aVCXF-7765
p46
aVCXF-7764
p47
aVCXF-7763
p48
aVCXF-7762
p49
aVCXF-7761
p50
aVCXF-7760
p51
aVCXF-7759
p52
aVCXF-7758
p53
aVCXF-7757
p54
aVCXF-7756
p55
aVCXF-7754
p56
aVCXF-7753
p57
aVCXF-7752
p58
aVCXF-7751
p59
aVCXF-7750
p60
aVCXF-7749
p61
aVCXF-7748
p62
aVCXF-7747
p63
aVCXF-7746
p64
aVCXF-7745
p65
aVCXF-7744
p66
aVCXF-7743
p67
aVCXF-7742
p68
aVCXF-7741
p69
aVCXF-7740
p70
aVCXF-7739
p71
aVCXF-7738
p72
aVCXF-7737
p73
aVCXF-7736
p74
aVCXF-7735
p75
aVCXF-7734
p76
aVCXF-7733
p77
aVCXF-7732
p78
aVCXF-7731
p79
aVCXF-7730
p80
aVCXF-7729
p81
aVCXF-7728
p82
aVCXF-7727
p83
aVCXF-7726
p84
aVCXF-7725
p85
aVCXF-7724
p86
aVCXF-7723
p87
aVCXF-7722
p88
aVCXF-7721
p89
aVCXF-7720
p90
aVCXF-7719
p91
aVCXF-7718
p92
aVCXF-7717
p93
aVCXF-7716
p94
aVCXF-7715
p95
aVCXF-7714
p96
aVCXF-7713
p97
aVCXF-7712
p98
aVCXF-7711
p99
aVCXF-7710
p100
aVCXF-7709
p101
aVCXF-7708
p102
aVCXF-7707
p103
aVCXF-7706
p104
aVCXF-7705
p105
aVCXF-7704
p106
aVCXF-7703
p107
aVCXF-7702
p108
aVCXF-7701
p109
aVCXF-7700
p110
aVCXF-7699
p111
aVCXF-7698
p112
aVCXF-7697
p113
aVCXF-7696
p114
aVCXF-7695
p115
aVCXF-7694
p116
aVCXF-7693
p117
aVCXF-7692
p118
aVCXF-7691
p119
aVCXF-7690
p120
aVCXF-7689
p121
aVCXF-7688
p122
aVCXF-7687
p123
aVCXF-7686
p124
aVCXF-7685
p125
aVCXF-7684
p126
aVCXF-7683
p127
aVCXF-7682
p128
aVCXF-7680
p129
aVCXF-7679
p130
aVCXF-7678
p131
aVCXF-7677
p132
aVCXF-7676
p133
aVCXF-7675
p134
aVCXF-7674
p135
aVCXF-7673
p136
aVCXF-7672
p137
aVCXF-7671
p138
aVCXF-7670
p139
aVCXF-7669
p140
aVCXF-7668
p141
aVCXF-7667
p142
aVCXF-7666
p143
aVCXF-7665
p144
aVCXF-7664
p145
aVCXF-7663
p146
aVCXF-7662
p147
aVCXF-7661
p148
aVCXF-7660
p149
aVCXF-7659
p150
aVCXF-7658
p151
aVCXF-7657
p152
aVCXF-7656
p153
aVCXF-7655
p154
aVCXF-7654
p155
aVCXF-7653
p156
aVCXF-7652
p157
aVCXF-7651
p158
aVCXF-7650
p159
aVCXF-7649
p160
aVCXF-7648
p161
aVCXF-7647
p162
aVCXF-7646
p163
aVCXF-7645
p164
aVCXF-7644
p165
aVCXF-7643
p166
aVCXF-7642
p167
aVCXF-7641
p168
aVCXF-7640
p169
aVCXF-7639
p170
aVCXF-7638
p171
aVCXF-7637
p172
aVCXF-7636
p173
aVCXF-7635
p174
aVCXF-7634
p175
aVCXF-7633
p176
aVCXF-7632
p177
aVCXF-7631
p178
aVCXF-7630
p179
aVCXF-7629
p180
aVCXF-7628
p181
aVCXF-7627
p182
aVCXF-7626
p183
aVCXF-7625
p184
aVCXF-7624
p185
aVCXF-7623
p186
aVCXF-7622
p187
aVCXF-7621
p188
aVCXF-7620
p189
aVCXF-7619
p190
aVCXF-7618
p191
aVCXF-7617
p192
aVCXF-7616
p193
aVCXF-7615
p194
aVCXF-7614
p195
aVCXF-7613
p196
aVCXF-7612
p197
aVCXF-7611
p198
aVCXF-7610
p199
aVCXF-7609
p200
aVCXF-7608
p201
aVCXF-7607
p202
aVCXF-7606
p203
aVCXF-7605
p204
aVCXF-7604
p205
aVCXF-7603
p206
aVCXF-7602
p207
aVCXF-7601
p208
aVCXF-7600
p209
aVCXF-7599
p210
aVCXF-7598
p211
aVCXF-7597
p212
aVCXF-7596
p213
aVCXF-7595
p214
aVCXF-7594
p215
aVCXF-7593
p216
aVCXF-7592
p217
aVCXF-7591
p218
aVCXF-7590
p219
aVCXF-7589
p220
aVCXF-7588
p221
aVCXF-7587
p222
aVCXF-7586
p223
aVCXF-7585
p224
aVCXF-7584
p225
aVCXF-7583
p226
aVCXF-7581
p227
aVCXF-7580
p228
aVCXF-7579
p229
aVCXF-7578
p230
aVCXF-7577
p231
aVCXF-7576
p232
aVCXF-7575
p233
aVCXF-7574
p234
aVCXF-7573
p235
aVCXF-7572
p236
aVCXF-7571
p237
aVCXF-7570
p238
aVCXF-7569
p239
aVCXF-7568
p240
aVCXF-7567
p241
aVCXF-7566
p242
aVCXF-7565
p243
aVCXF-7564
p244
aVCXF-7563
p245
aVCXF-7562
p246
aVCXF-7561
p247
aVCXF-7560
p248
aVCXF-7559
p249
aVCXF-7558
p250
aVCXF-7557
p251
aVCXF-7556
p252
aVCXF-7555
p253
aVCXF-7554
p254
aVCXF-7553
p255
aVCXF-7552
p256
aVCXF-7551
p257
aVCXF-7550
p258
aVCXF-7549
p259
aVCXF-7548
p260
aVCXF-7547
p261
aVCXF-7546
p262
aVCXF-7545
p263
aVCXF-7544
p264
aVCXF-7543
p265
aVCXF-7542
p266
aVCXF-7541
p267
aVCXF-7540
p268
aVCXF-7539
p269
aVCXF-7538
p270
aVCXF-7537
p271
aVCXF-7536
p272
aVCXF-7535
p273
aVCXF-7534
p274
aVCXF-7533
p275
aVCXF-7532
p276
aVCXF-7531
p277
aVCXF-7530
p278
aVCXF-7529
p279
aVCXF-7528
p280
aVCXF-7527
p281
aVCXF-7526
p282
aVCXF-7525
p283
aVCXF-7524
p284
aVCXF-7523
p285
aVCXF-7522
p286
aVCXF-7521
p287
aVCXF-7520
p288
aVCXF-7519
p289
aVCXF-7518
p290
aVCXF-7517
p291
aVCXF-7516
p292
aVCXF-7515
p293
aVCXF-7514
p294
aVCXF-7513
p295
aVCXF-7512
p296
aVCXF-7511
p297
aVCXF-7510
p298
aVCXF-7509
p299
aVCXF-7508
p300
aVCXF-7507
p301
aVCXF-7506
p302
aVCXF-7505
p303
aVCXF-7504
p304
aVCXF-7503
p305
aVCXF-7502
p306
aVCXF-7501
p307
aVCXF-7500
p308
aVCXF-7499
p309
aVCXF-7498
p310
aVCXF-7497
p311
aVCXF-7496
p312
aVCXF-7495
p313
aVCXF-7494
p314
aVCXF-7493
p315
aVCXF-7492
p316
aVCXF-7491
p317
aVCXF-7490
p318
aVCXF-7489
p319
aVCXF-7488
p320
aVCXF-7487
p321
aVCXF-7486
p322
aVCXF-7485
p323
aVCXF-7484
p324
aVCXF-7483
p325
aVCXF-7482
p326
aVCXF-7481
p327
aVCXF-7480
p328
aVCXF-7479
p329
aVCXF-7478
p330
aVCXF-7477
p331
aVCXF-7476
p332
aVCXF-7475
p333
aVCXF-7474
p334
aVCXF-7473
p335
aVCXF-7472
p336
aVCXF-7471
p337
aVCXF-7470
p338
aVCXF-7469
p339
aVCXF-7468
p340
aVCXF-7467
p341
aVCXF-7466
p342
aVCXF-7465
p343
aVCXF-7464
p344
aVCXF-7463
p345
aVCXF-7462
p346
aVCXF-7461
p347
aVCXF-7460
p348
aVCXF-7459
p349
aVCXF-7458
p350
aVCXF-7457
p351
aVCXF-7456
p352
aVCXF-7455
p353
aVCXF-7454
p354
aVCXF-7453
p355
aVCXF-7452
p356
aVCXF-7451
p357
aVCXF-7450
p358
aVCXF-7449
p359
aVCXF-7448
p360
aVCXF-7447
p361
aVCXF-7446
p362
aVCXF-7445
p363
aVCXF-7444
p364
aVCXF-7443
p365
aVCXF-7442
p366
aVCXF-7441
p367
aVCXF-7440
p368
aVCXF-7439
p369
aVCXF-7438
p370
aVCXF-7437
p371
aVCXF-7436
p372
aVCXF-7435
p373
aVCXF-7434
p374
aVCXF-7433
p375
aVCXF-7432
p376
aVCXF-7431
p377
aVCXF-7430
p378
aVCXF-7429
p379
aVCXF-7428
p380
aVCXF-7427
p381
aVCXF-7426
p382
aVCXF-7425
p383
aVCXF-7424
p384
aVCXF-7423
p385
aVCXF-7422
p386
aVCXF-7421
p387
aVCXF-7420
p388
aVCXF-7419
p389
aVCXF-7418
p390
aVCXF-7417
p391
aVCXF-7416
p392
aVCXF-7415
p393
aVCXF-7414
p394
aVCXF-7413
p395
aVCXF-7412
p396
aVCXF-7411
p397
aVCXF-7410
p398
aVCXF-7409
p399
aVCXF-7408
p400
aVCXF-7407
p401
aVCXF-7406
p402
aVCXF-7405
p403
aVCXF-7404
p404
aVCXF-7403
p405
aVCXF-7402
p406
aVCXF-7401
p407
aVCXF-7400
p408
aVCXF-7399
p409
aVCXF-7398
p410
aVCXF-7397
p411
aVCXF-7396
p412
aVCXF-7395
p413
aVCXF-7394
p414
aVCXF-7393
p415
aVCXF-7392
p416
aVCXF-7391
p417
aVCXF-7390
p418
aVCXF-7389
p419
aVCXF-7388
p420
aVCXF-7387
p421
aVCXF-7386
p422
aVCXF-7385
p423
aVCXF-7384
p424
aVCXF-7383
p425
aVCXF-7382
p426
aVCXF-7381
p427
aVCXF-7380
p428
aVCXF-7379
p429
aVCXF-7378
p430
aVCXF-7377
p431
aVCXF-7376
p432
aVCXF-7375
p433
aVCXF-7374
p434
aVCXF-7373
p435
aVCXF-7372
p436
aVCXF-7371
p437
aVCXF-7370
p438
aVCXF-7369
p439
aVCXF-7368
p440
aVCXF-7367
p441
aVCXF-7366
p442
aVCXF-7365
p443
aVCXF-7364
p444
aVCXF-7363
p445
aVCXF-7362
p446
aVCXF-7361
p447
aVCXF-7360
p448
aVCXF-7359
p449
aVCXF-7358
p450
aVCXF-7357
p451
aVCXF-7356
p452
aVCXF-7355
p453
aVCXF-7354
p454
aVCXF-7353
p455
aVCXF-7352
p456
aVCXF-7351
p457
aVCXF-7350
p458
aVCXF-7349
p459
aVCXF-7348
p460
aVCXF-7347
p461
aVCXF-7346
p462
aVCXF-7345
p463
aVCXF-7344
p464
aVCXF-7343
p465
aVCXF-7342
p466
aVCXF-7341
p467
aVCXF-7340
p468
aVCXF-7339
p469
aVCXF-7338
p470
aVCXF-7337
p471
aVCXF-7336
p472
aVCXF-7335
p473
aVCXF-7334
p474
aVCXF-7333
p475
aVCXF-7332
p476
aVCXF-7331
p477
aVCXF-7330
p478
aVCXF-7329
p479
aVCXF-7328
p480
aVCXF-7327
p481
aVCXF-7326
p482
aVCXF-7325
p483
aVCXF-7324
p484
aVCXF-7323
p485
aVCXF-7322
p486
aVCXF-7321
p487
aVCXF-7320
p488
aVCXF-7319
p489
aVCXF-7318
p490
aVCXF-7317
p491
aVCXF-7316
p492
aVCXF-7315
p493
aVCXF-7314
p494
aVCXF-7313
p495
aVCXF-7312
p496
aVCXF-7311
p497
aVCXF-7310
p498
aVCXF-7309
p499
aVCXF-7308
p500
aVCXF-7307
p501
aVCXF-7306
p502
aVCXF-7305
p503
aVCXF-7304
p504
aVCXF-7303
p505
aVCXF-7302
p506
aVCXF-7301
p507
aVCXF-7300
p508
aVCXF-7299
p509
aVCXF-7298
p510
aVCXF-7297
p511
aVCXF-7296
p512
aVCXF-7295
p513
aVCXF-7294
p514
aVCXF-7293
p515
aVCXF-7292
p516
aVCXF-7291
p517
aVCXF-7290
p518
aVCXF-7289
p519
aVCXF-7288
p520
aVCXF-7287
p521
aVCXF-7286
p522
aVCXF-7285
p523
aVCXF-7284
p524
aVCXF-7283
p525
aVCXF-7282
p526
aVCXF-7281
p527
aVCXF-7280
p528
aVCXF-7279
p529
aVCXF-7278
p530
aVCXF-7277
p531
aVCXF-7276
p532
aVCXF-7275
p533
aVCXF-7274
p534
aVCXF-7273
p535
aVCXF-7272
p536
aVCXF-7271
p537
aVCXF-7270
p538
aVCXF-7269
p539
aVCXF-7268
p540
aVCXF-7267
p541
aVCXF-7266
p542
aVCXF-7265
p543
aVCXF-7264
p544
aVCXF-7263
p545
aVCXF-7262
p546
aVCXF-7261
p547
aVCXF-7260
p548
aVCXF-7259
p549
aVCXF-7258
p550
aVCXF-7257
p551
aVCXF-7256
p552
aVCXF-7255
p553
aVCXF-7254
p554
aVCXF-7253
p555
aVCXF-7252
p556
aVCXF-7251
p557
aVCXF-7250
p558
aVCXF-7249
p559
aVCXF-7248
p560
aVCXF-7247
p561
aVCXF-7246
p562
aVCXF-7245
p563
aVCXF-7244
p564
aVCXF-7243
p565
aVCXF-7242
p566
aVCXF-7241
p567
aVCXF-7240
p568
aVCXF-7239
p569
aVCXF-7238
p570
aVCXF-7237
p571
aVCXF-7236
p572
aVCXF-7235
p573
aVCXF-7234
p574
aVCXF-7233
p575
aVCXF-7232
p576
aVCXF-7231
p577
aVCXF-7230
p578
aVCXF-7229
p579
aVCXF-7228
p580
aVCXF-7227
p581
aVCXF-7226
p582
aVCXF-7225
p583
aVCXF-7224
p584
aVCXF-7223
p585
aVCXF-7222
p586
aVCXF-7221
p587
aVCXF-7220
p588
aVCXF-7219
p589
aVCXF-7218
p590
aVCXF-7217
p591
aVCXF-7216
p592
aVCXF-7215
p593
aVCXF-7214
p594
aVCXF-7213
p595
aVCXF-7212
p596
aVCXF-7211
p597
aVCXF-7210
p598
aVCXF-7209
p599
aVCXF-7208
p600
aVCXF-7207
p601
aVCXF-7206
p602
aVCXF-7205
p603
aVCXF-7204
p604
aVCXF-7203
p605
aVCXF-7202
p606
aVCXF-7201
p607
aVCXF-7200
p608
aVCXF-7199
p609
aVCXF-7198
p610
aVCXF-7197
p611
aVCXF-7196
p612
aVCXF-7195
p613
aVCXF-7194
p614
aVCXF-7193
p615
aVCXF-7192
p616
aVCXF-7191
p617
aVCXF-7190
p618
aVCXF-7189
p619
aVCXF-7188
p620
aVCXF-7187
p621
aVCXF-7186
p622
aVCXF-7185
p623
aVCXF-7184
p624
aVCXF-7183
p625
aVCXF-7182
p626
aVCXF-7181
p627
aVCXF-7180
p628
aVCXF-7179
p629
aVCXF-7178
p630
aVCXF-7177
p631
aVCXF-7176
p632
aVCXF-7175
p633
aVCXF-7174
p634
aVCXF-7173
p635
aVCXF-7172
p636
aVCXF-7171
p637
aVCXF-7170
p638
aVCXF-7169
p639
aVCXF-7168
p640
aVCXF-7167
p641
aVCXF-7166
p642
aVCXF-7165
p643
aVCXF-7164
p644
aVCXF-7162
p645
aVCXF-7161
p646
aVCXF-7160
p647
aVCXF-7159
p648
aVCXF-7158
p649
aVCXF-7157
p650
aVCXF-7156
p651
aVCXF-7155
p652
aVCXF-7154
p653
aVCXF-7153
p654
aVCXF-7152
p655
aVCXF-7151
p656
aVCXF-7150
p657
aVCXF-7149
p658
aVCXF-7148
p659
aVCXF-7147
p660
aVCXF-7146
p661
aVCXF-7145
p662
aVCXF-7144
p663
aVCXF-7143
p664
aVCXF-7142
p665
aVCXF-7141
p666
aVCXF-7140
p667
aVCXF-7139
p668
aVCXF-7138
p669
aVCXF-7137
p670
aVCXF-7136
p671
aVCXF-7135
p672
aVCXF-7134
p673
aVCXF-7133
p674
aVCXF-7132
p675
aVCXF-7131
p676
aVCXF-7130
p677
aVCXF-7129
p678
aVCXF-7128
p679
aVCXF-7127
p680
aVCXF-7126
p681
aVCXF-7125
p682
aVCXF-7124
p683
aVCXF-7123
p684
aVCXF-7122
p685
aVCXF-7121
p686
aVCXF-7120
p687
aVCXF-7119
p688
aVCXF-7118
p689
aVCXF-7117
p690
aVCXF-7116
p691
aVCXF-7115
p692
aVCXF-7114
p693
aVCXF-7113
p694
aVCXF-7112
p695
aVCXF-7111
p696
aVCXF-7110
p697
aVCXF-7109
p698
aVCXF-7108
p699
aVCXF-7107
p700
aVCXF-7106
p701
aVCXF-7105
p702
aVCXF-7104
p703
aVCXF-7103
p704
aVCXF-7102
p705
aVCXF-7101
p706
aVCXF-7100
p707
aVCXF-7099
p708
aVCXF-7098
p709
aVCXF-7097
p710
aVCXF-7096
p711
aVCXF-7095
p712
aVCXF-7094
p713
aVCXF-7093
p714
aVCXF-7092
p715
aVCXF-7091
p716
aVCXF-7090
p717
aVCXF-7089
p718
aVCXF-7088
p719
aVCXF-7087
p720
aVCXF-7086
p721
aVCXF-7085
p722
aVCXF-7084
p723
aVCXF-7083
p724
aVCXF-7082
p725
aVCXF-7081
p726
aVCXF-7080
p727
aVCXF-7079
p728
aVCXF-7078
p729
aVCXF-7077
p730
aVCXF-7076
p731
aVCXF-7075
p732
aVCXF-7074
p733
aVCXF-7073
p734
aVCXF-7072
p735
aVCXF-7071
p736
aVCXF-7070
p737
aVCXF-7069
p738
aVCXF-7068
p739
aVCXF-7067
p740
aVCXF-7066
p741
aVCXF-7065
p742
aVCXF-7064
p743
aVCXF-7063
p744
aVCXF-7062
p745
aVCXF-7061
p746
aVCXF-7060
p747
aVCXF-7059
p748
aVCXF-7058
p749
aVCXF-7057
p750
aVCXF-7056
p751
aVCXF-7055
p752
aVCXF-7054
p753
aVCXF-7053
p754
aVCXF-7052
p755
aVCXF-7051
p756
aVCXF-7050
p757
aVCXF-7049
p758
aVCXF-7048
p759
aVCXF-7047
p760
aVCXF-7046
p761
aVCXF-7045
p762
aVCXF-7044
p763
aVCXF-7043
p764
aVCXF-7042
p765
aVCXF-7041
p766
aVCXF-7040
p767
aVCXF-7039
p768
aVCXF-7038
p769
aVCXF-7037
p770
aVCXF-7036
p771
aVCXF-7035
p772
aVCXF-7034
p773
aVCXF-7033
p774
aVCXF-7032
p775
aVCXF-7031
p776
aVCXF-7030
p777
aVCXF-7029
p778
aVCXF-7028
p779
aVCXF-7027
p780
aVCXF-7026
p781
aVCXF-7025
p782
aVCXF-7024
p783
aVCXF-7023
p784
aVCXF-7022
p785
aVCXF-7021
p786
aVCXF-7020
p787
aVCXF-7019
p788
aVCXF-7018
p789
aVCXF-7017
p790
aVCXF-7016
p791
aVCXF-7015
p792
aVCXF-7014
p793
aVCXF-7013
p794
aVCXF-7012
p795
aVCXF-7011
p796
aVCXF-7010
p797
aVCXF-7009
p798
aVCXF-7008
p799
aVCXF-7007
p800
aVCXF-7006
p801
aVCXF-7005
p802
aVCXF-7004
p803
aVCXF-7003
p804
aVCXF-7002
p805
aVCXF-7001
p806
aVCXF-7000
p807
aVCXF-6999
p808
aVCXF-6998
p809
aVCXF-6997
p810
aVCXF-6996
p811
aVCXF-6995
p812
aVCXF-6994
p813
aVCXF-6993
p814
aVCXF-6992
p815
aVCXF-6991
p816
aVCXF-6990
p817
aVCXF-6989
p818
aVCXF-6988
p819
aVCXF-6987
p820
aVCXF-6986
p821
aVCXF-6985
p822
aVCXF-6984
p823
aVCXF-6983
p824
aVCXF-6982
p825
aVCXF-6981
p826
aVCXF-6980
p827
aVCXF-6979
p828
aVCXF-6978
p829
aVCXF-6977
p830
aVCXF-6976
p831
aVCXF-6975
p832
aVCXF-6974
p833
aVCXF-6973
p834
aVCXF-6972
p835
aVCXF-6971
p836
aVCXF-6970
p837
aVCXF-6969
p838
aVCXF-6968
p839
aVCXF-6967
p840
aVCXF-6966
p841
aVCXF-6965
p842
aVCXF-6964
p843
aVCXF-6963
p844
aVCXF-6962
p845
aVCXF-6961
p846
aVCXF-6960
p847
aVCXF-6959
p848
aVCXF-6958
p849
aVCXF-6957
p850
aVCXF-6956
p851
aVCXF-6955
p852
aVCXF-6954
p853
aVCXF-6953
p854
aVCXF-6952
p855
aVCXF-6951
p856
aVCXF-6950
p857
aVCXF-6949
p858
aVCXF-6948
p859
aVCXF-6947
p860
aVCXF-6946
p861
aVCXF-6945
p862
aVCXF-6944
p863
aVCXF-6943
p864
aVCXF-6942
p865
aVCXF-6941
p866
aVCXF-6940
p867
aVCXF-6939
p868
aVCXF-6938
p869
aVCXF-6937
p870
aVCXF-6936
p871
aVCXF-6935
p872
aVCXF-6934
p873
aVCXF-6933
p874
aVCXF-6932
p875
aVCXF-6931
p876
aVCXF-6930
p877
aVCXF-6929
p878
aVCXF-6928
p879
aVCXF-6927
p880
aVCXF-6926
p881
aVCXF-6925
p882
aVCXF-6924
p883
aVCXF-6923
p884
aVCXF-6922
p885
aVCXF-6921
p886
aVCXF-6920
p887
aVCXF-6919
p888
aVCXF-6918
p889
aVCXF-6917
p890
aVCXF-6915
p891
aVCXF-6914
p892
aVCXF-6913
p893
aVCXF-6912
p894
aVCXF-6911
p895
aVCXF-6910
p896
aVCXF-6909
p897
aVCXF-6908
p898
aVCXF-6907
p899
aVCXF-6906
p900
aVCXF-6905
p901
aVCXF-6904
p902
aVCXF-6903
p903
aVCXF-6902
p904
aVCXF-6901
p905
aVCXF-6900
p906
aVCXF-6899
p907
aVCXF-6898
p908
aVCXF-6897
p909
aVCXF-6896
p910
aVCXF-6895
p911
aVCXF-6894
p912
aVCXF-6893
p913
aVCXF-6892
p914
aVCXF-6891
p915
aVCXF-6890
p916
aVCXF-6889
p917
aVCXF-6888
p918
aVCXF-6887
p919
aVCXF-6886
p920
aVCXF-6885
p921
aVCXF-6884
p922
aVCXF-6883
p923
aVCXF-6882
p924
aVCXF-6881
p925
aVCXF-6880
p926
aVCXF-6879
p927
aVCXF-6878
p928
aVCXF-6877
p929
aVCXF-6876
p930
aVCXF-6875
p931
aVCXF-6874
p932
aVCXF-6873
p933
aVCXF-6872
p934
aVCXF-6871
p935
aVCXF-6870
p936
aVCXF-6869
p937
aVCXF-6868
p938
aVCXF-6867
p939
aVCXF-6866
p940
aVCXF-6865
p941
aVCXF-6864
p942
aVCXF-6863
p943
aVCXF-6862
p944
aVCXF-6861
p945
aVCXF-6860
p946
aVCXF-6859
p947
aVCXF-6858
p948
aVCXF-6857
p949
aVCXF-6856
p950
aVCXF-6855
p951
aVCXF-6854
p952
aVCXF-6853
p953
aVCXF-6852
p954
aVCXF-6851
p955
aVCXF-6850
p956
aVCXF-6849
p957
aVCXF-6848
p958
aVCXF-6847
p959
aVCXF-6846
p960
aVCXF-6845
p961
aVCXF-6844
p962
aVCXF-6843
p963
aVCXF-6842
p964
aVCXF-6841
p965
aVCXF-6840
p966
aVCXF-6839
p967
aVCXF-6838
p968
aVCXF-6837
p969
aVCXF-6836
p970
aVCXF-6835
p971
aVCXF-6834
p972
aVCXF-6833
p973
aVCXF-6832
p974
aVCXF-6831
p975
aVCXF-6830
p976
aVCXF-6829
p977
aVCXF-6828
p978
aVCXF-6827
p979
aVCXF-6826
p980
aVCXF-6825
p981
aVCXF-6824
p982
aVCXF-6823
p983
aVCXF-6822
p984
aVCXF-6821
p985
aVCXF-6820
p986
aVCXF-6819
p987
aVCXF-6818
p988
aVCXF-6817
p989
aVCXF-6816
p990
aVCXF-6815
p991
aVCXF-6814
p992
aVCXF-6813
p993
aVCXF-6812
p994
aVCXF-6811
p995
aVCXF-6810
p996
aVCXF-6809
p997
aVCXF-6808
p998
aVCXF-6807
p999
aVCXF-6806
p1000
aVCXF-6805
p1001
aVCXF-6804
p1002
aVCXF-6803
p1003
aVCXF-6802
p1004
aVCXF-6801
p1005
aVCXF-6800
p1006
aVCXF-6799
p1007
aVCXF-6798
p1008
aVCXF-6797
p1009
aVCXF-6796
p1010
aVCXF-6795
p1011
aVCXF-6794
p1012
aVCXF-6793
p1013
aVCXF-6792
p1014
aVCXF-6791
p1015
aVCXF-6790
p1016
aVCXF-6789
p1017
aVCXF-6788
p1018
aVCXF-6787
p1019
aVCXF-6786
p1020
aVCXF-6785
p1021
aVCXF-6784
p1022
aVCXF-6783
p1023
aVCXF-6782
p1024
aVCXF-6781
p1025
aVCXF-6780
p1026
aVCXF-6779
p1027
aVCXF-6778
p1028
aVCXF-6777
p1029
aVCXF-6776
p1030
aVCXF-6775
p1031
aVCXF-6774
p1032
aVCXF-6773
p1033
aVCXF-6772
p1034
aVCXF-6771
p1035
aVCXF-6770
p1036
aVCXF-6769
p1037
aVCXF-6768
p1038
aVCXF-6767
p1039
aVCXF-6766
p1040
aVCXF-6765
p1041
aVCXF-6764
p1042
aVCXF-6763
p1043
aVCXF-6762
p1044
aVCXF-6761
p1045
aVCXF-6760
p1046
aVCXF-6759
p1047
aVCXF-6758
p1048
aVCXF-6757
p1049
aVCXF-6756
p1050
aVCXF-6755
p1051
aVCXF-6754
p1052
aVCXF-6753
p1053
aVCXF-6752
p1054
aVCXF-6751
p1055
aVCXF-6750
p1056
aVCXF-6749
p1057
aVCXF-6748
p1058
aVCXF-6747
p1059
aVCXF-6746
p1060
aVCXF-6745
p1061
aVCXF-6744
p1062
aVCXF-6743
p1063
aVCXF-6742
p1064
aVCXF-6741
p1065
aVCXF-6740
p1066
aVCXF-6739
p1067
aVCXF-6738
p1068
aVCXF-6737
p1069
aVCXF-6736
p1070
aVCXF-6735
p1071
aVCXF-6734
p1072
aVCXF-6733
p1073
aVCXF-6732
p1074
aVCXF-6731
p1075
aVCXF-6730
p1076
aVCXF-6729
p1077
aVCXF-6728
p1078
aVCXF-6727
p1079
aVCXF-6726
p1080
aVCXF-6725
p1081
aVCXF-6724
p1082
aVCXF-6723
p1083
aVCXF-6722
p1084
aVCXF-6721
p1085
aVCXF-6720
p1086
aVCXF-6719
p1087
aVCXF-6718
p1088
aVCXF-6717
p1089
aVCXF-6716
p1090
aVCXF-6715
p1091
aVCXF-6714
p1092
aVCXF-6713
p1093
aVCXF-6712
p1094
aVCXF-6711
p1095
aVCXF-6710
p1096
aVCXF-6709
p1097
aVCXF-6708
p1098
aVCXF-6707
p1099
aVCXF-6706
p1100
aVCXF-6705
p1101
aVCXF-6704
p1102
aVCXF-6703
p1103
aVCXF-6702
p1104
aVCXF-6701
p1105
aVCXF-6700
p1106
aVCXF-6699
p1107
aVCXF-6698
p1108
aVCXF-6697
p1109
aVCXF-6696
p1110
aVCXF-6695
p1111
aVCXF-6694
p1112
aVCXF-6693
p1113
aVCXF-6692
p1114
aVCXF-6691
p1115
aVCXF-6690
p1116
aVCXF-6689
p1117
aVCXF-6688
p1118
aVCXF-6687
p1119
aVCXF-6686
p1120
aVCXF-6685
p1121
aVCXF-6684
p1122
aVCXF-6683
p1123
aVCXF-6682
p1124
aVCXF-6681
p1125
aVCXF-6680
p1126
aVCXF-6679
p1127
aVCXF-6678
p1128
aVCXF-6677
p1129
aVCXF-6676
p1130
aVCXF-6675
p1131
aVCXF-6674
p1132
aVCXF-6673
p1133
aVCXF-6672
p1134
aVCXF-6671
p1135
aVCXF-6670
p1136
aVCXF-6669
p1137
aVCXF-6668
p1138
aVCXF-6667
p1139
aVCXF-6666
p1140
aVCXF-6665
p1141
aVCXF-6664
p1142
aVCXF-6663
p1143
aVCXF-6662
p1144
aVCXF-6661
p1145
aVCXF-6660
p1146
aVCXF-6659
p1147
aVCXF-6658
p1148
aVCXF-6657
p1149
aVCXF-6656
p1150
aVCXF-6655
p1151
aVCXF-6654
p1152
aVCXF-6653
p1153
aVCXF-6652
p1154
aVCXF-6651
p1155
aVCXF-6650
p1156
aVCXF-6649
p1157
aVCXF-6648
p1158
aVCXF-6647
p1159
aVCXF-6646
p1160
aVCXF-6645
p1161
aVCXF-6644
p1162
aVCXF-6643
p1163
aVCXF-6642
p1164
aVCXF-6641
p1165
aVCXF-6640
p1166
aVCXF-6639
p1167
aVCXF-6638
p1168
aVCXF-6637
p1169
aVCXF-6636
p1170
aVCXF-6635
p1171
aVCXF-6634
p1172
aVCXF-6633
p1173
aVCXF-6632
p1174
aVCXF-6631
p1175
aVCXF-6630
p1176
aVCXF-6629
p1177
aVCXF-6628
p1178
aVCXF-6627
p1179
aVCXF-6626
p1180
aVCXF-6625
p1181
aVCXF-6624
p1182
aVCXF-6623
p1183
aVCXF-6622
p1184
aVCXF-6621
p1185
aVCXF-6620
p1186
aVCXF-6619
p1187
aVCXF-6618
p1188
aVCXF-6617
p1189
aVCXF-6616
p1190
aVCXF-6615
p1191
aVCXF-6614
p1192
aVCXF-6613
p1193
aVCXF-6612
p1194
aVCXF-6611
p1195
aVCXF-6610
p1196
aVCXF-6609
p1197
aVCXF-6608
p1198
aVCXF-6607
p1199
aVCXF-6606
p1200
aVCXF-6605
p1201
aVCXF-6604
p1202
aVCXF-6603
p1203
aVCXF-6602
p1204
aVCXF-6601
p1205
aVCXF-6600
p1206
aVCXF-6599
p1207
aVCXF-6598
p1208
aVCXF-6597
p1209
aVCXF-6596
p1210
aVCXF-6595
p1211
aVCXF-6594
p1212
aVCXF-6593
p1213
aVCXF-6592
p1214
aVCXF-6591
p1215
aVCXF-6590
p1216
aVCXF-6589
p1217
aVCXF-6588
p1218
aVCXF-6587
p1219
aVCXF-6586
p1220
aVCXF-6585
p1221
aVCXF-6584
p1222
aVCXF-6583
p1223
aVCXF-6582
p1224
aVCXF-6581
p1225
aVCXF-6580
p1226
aVCXF-6579
p1227
aVCXF-6577
p1228
aVCXF-6576
p1229
aVCXF-6575
p1230
aVCXF-6574
p1231
aVCXF-6573
p1232
aVCXF-6572
p1233
aVCXF-6571
p1234
aVCXF-6570
p1235
aVCXF-6569
p1236
aVCXF-6568
p1237
aVCXF-6567
p1238
aVCXF-6566
p1239
aVCXF-6565
p1240
aVCXF-6564
p1241
aVCXF-6563
p1242
aVCXF-6562
p1243
aVCXF-6561
p1244
aVCXF-6560
p1245
aVCXF-6559
p1246
aVCXF-6558
p1247
aVCXF-6557
p1248
aVCXF-6556
p1249
aVCXF-6555
p1250
aVCXF-6554
p1251
aVCXF-6553
p1252
aVCXF-6552
p1253
aVCXF-6551
p1254
aVCXF-6550
p1255
aVCXF-6549
p1256
aVCXF-6548
p1257
aVCXF-6547
p1258
aVCXF-6546
p1259
aVCXF-6545
p1260
aVCXF-6544
p1261
aVCXF-6543
p1262
aVCXF-6542
p1263
aVCXF-6541
p1264
aVCXF-6540
p1265
aVCXF-6539
p1266
aVCXF-6538
p1267
aVCXF-6537
p1268
aVCXF-6536
p1269
aVCXF-6535
p1270
aVCXF-6534
p1271
aVCXF-6533
p1272
aVCXF-6532
p1273
aVCXF-6531
p1274
aVCXF-6530
p1275
aVCXF-6529
p1276
aVCXF-6528
p1277
aVCXF-6527
p1278
aVCXF-6526
p1279
aVCXF-6525
p1280
aVCXF-6524
p1281
aVCXF-6523
p1282
aVCXF-6522
p1283
aVCXF-6521
p1284
aVCXF-6520
p1285
aVCXF-6519
p1286
aVCXF-6518
p1287
aVCXF-6517
p1288
aVCXF-6516
p1289
aVCXF-6515
p1290
aVCXF-6514
p1291
aVCXF-6513
p1292
aVCXF-6512
p1293
aVCXF-6511
p1294
aVCXF-6510
p1295
aVCXF-6509
p1296
aVCXF-6508
p1297
aVCXF-6507
p1298
aVCXF-6506
p1299
aVCXF-6505
p1300
aVCXF-6504
p1301
aVCXF-6503
p1302
aVCXF-6502
p1303
aVCXF-6501
p1304
aVCXF-6500
p1305
aVCXF-6499
p1306
aVCXF-6498
p1307
aVCXF-6497
p1308
aVCXF-6496
p1309
aVCXF-6495
p1310
aVCXF-6494
p1311
aVCXF-6493
p1312
aVCXF-6492
p1313
aVCXF-6491
p1314
aVCXF-6490
p1315
aVCXF-6489
p1316
aVCXF-6488
p1317
aVCXF-6487
p1318
aVCXF-6486
p1319
aVCXF-6485
p1320
aVCXF-6484
p1321
aVCXF-6483
p1322
aVCXF-6482
p1323
aVCXF-6481
p1324
aVCXF-6480
p1325
aVCXF-6479
p1326
aVCXF-6478
p1327
aVCXF-6477
p1328
aVCXF-6476
p1329
aVCXF-6475
p1330
aVCXF-6474
p1331
aVCXF-6473
p1332
aVCXF-6472
p1333
aVCXF-6471
p1334
aVCXF-6470
p1335
aVCXF-6469
p1336
aVCXF-6468
p1337
aVCXF-6467
p1338
aVCXF-6466
p1339
aVCXF-6465
p1340
aVCXF-6464
p1341
aVCXF-6463
p1342
aVCXF-6462
p1343
aVCXF-6461
p1344
aVCXF-6460
p1345
aVCXF-6459
p1346
aVCXF-6458
p1347
aVCXF-6457
p1348
aVCXF-6456
p1349
aVCXF-6455
p1350
aVCXF-6454
p1351
aVCXF-6453
p1352
aVCXF-6452
p1353
aVCXF-6451
p1354
aVCXF-6450
p1355
aVCXF-6449
p1356
aVCXF-6448
p1357
aVCXF-6447
p1358
aVCXF-6446
p1359
aVCXF-6445
p1360
aVCXF-6444
p1361
aVCXF-6443
p1362
aVCXF-6442
p1363
aVCXF-6441
p1364
aVCXF-6440
p1365
aVCXF-6439
p1366
aVCXF-6438
p1367
aVCXF-6437
p1368
aVCXF-6436
p1369
aVCXF-6435
p1370
aVCXF-6434
p1371
aVCXF-6433
p1372
aVCXF-6432
p1373
aVCXF-6431
p1374
aVCXF-6430
p1375
aVCXF-6429
p1376
aVCXF-6428
p1377
aVCXF-6427
p1378
aVCXF-6426
p1379
aVCXF-6425
p1380
aVCXF-6424
p1381
aVCXF-6423
p1382
aVCXF-6422
p1383
aVCXF-6421
p1384
aVCXF-6420
p1385
aVCXF-6419
p1386
aVCXF-6418
p1387
aVCXF-6417
p1388
aVCXF-6416
p1389
aVCXF-6415
p1390
aVCXF-6414
p1391
aVCXF-6413
p1392
aVCXF-6412
p1393
aVCXF-6411
p1394
aVCXF-6410
p1395
aVCXF-6409
p1396
aVCXF-6408
p1397
aVCXF-6407
p1398
aVCXF-6406
p1399
aVCXF-6405
p1400
aVCXF-6404
p1401
aVCXF-6403
p1402
aVCXF-6402
p1403
aVCXF-6401
p1404
aVCXF-6400
p1405
aVCXF-6399
p1406
aVCXF-6398
p1407
aVCXF-6397
p1408
aVCXF-6396
p1409
aVCXF-6395
p1410
aVCXF-6394
p1411
aVCXF-6393
p1412
aVCXF-6392
p1413
aVCXF-6391
p1414
aVCXF-6390
p1415
aVCXF-6389
p1416
aVCXF-6388
p1417
aVCXF-6387
p1418
aVCXF-6386
p1419
aVCXF-6385
p1420
aVCXF-6384
p1421
aVCXF-6383
p1422
aVCXF-6382
p1423
aVCXF-6381
p1424
aVCXF-6380
p1425
aVCXF-6379
p1426
aVCXF-6378
p1427
aVCXF-6377
p1428
aVCXF-6376
p1429
aVCXF-6375
p1430
aVCXF-6374
p1431
aVCXF-6373
p1432
aVCXF-6372
p1433
aVCXF-6371
p1434
aVCXF-6370
p1435
aVCXF-6369
p1436
aVCXF-6368
p1437
aVCXF-6367
p1438
aVCXF-6366
p1439
aVCXF-6365
p1440
aVCXF-6364
p1441
aVCXF-6363
p1442
aVCXF-6362
p1443
aVCXF-6361
p1444
aVCXF-6360
p1445
aVCXF-6359
p1446
aVCXF-6358
p1447
aVCXF-6357
p1448
aVCXF-6356
p1449
aVCXF-6355
p1450
aVCXF-6354
p1451
aVCXF-6353
p1452
aVCXF-6352
p1453
aVCXF-6351
p1454
aVCXF-6350
p1455
aVCXF-6349
p1456
aVCXF-6348
p1457
aVCXF-6347
p1458
aVCXF-6346
p1459
aVCXF-6345
p1460
aVCXF-6344
p1461
aVCXF-6343
p1462
aVCXF-6342
p1463
aVCXF-6341
p1464
aVCXF-6340
p1465
aVCXF-6339
p1466
aVCXF-6338
p1467
aVCXF-6337
p1468
aVCXF-6336
p1469
aVCXF-6335
p1470
aVCXF-6334
p1471
aVCXF-6333
p1472
aVCXF-6332
p1473
aVCXF-6331
p1474
aVCXF-6330
p1475
aVCXF-6329
p1476
aVCXF-6328
p1477
aVCXF-6327
p1478
aVCXF-6326
p1479
aVCXF-6325
p1480
aVCXF-6324
p1481
aVCXF-6323
p1482
aVCXF-6322
p1483
aVCXF-6321
p1484
aVCXF-6320
p1485
aVCXF-6319
p1486
aVCXF-6318
p1487
aVCXF-6317
p1488
aVCXF-6316
p1489
aVCXF-6315
p1490
aVCXF-6314
p1491
aVCXF-6313
p1492
aVCXF-6312
p1493
aVCXF-6311
p1494
aVCXF-6310
p1495
aVCXF-6309
p1496
aVCXF-6308
p1497
aVCXF-6307
p1498
aVCXF-6306
p1499
aVCXF-6305
p1500
aVCXF-6304
p1501
aVCXF-6303
p1502
aVCXF-6302
p1503
aVCXF-6301
p1504
aVCXF-6300
p1505
aVCXF-6299
p1506
aVCXF-6298
p1507
aVCXF-6297
p1508
aVCXF-6296
p1509
aVCXF-6295
p1510
aVCXF-6294
p1511
aVCXF-6293
p1512
aVCXF-6292
p1513
aVCXF-6291
p1514
aVCXF-6290
p1515
aVCXF-6289
p1516
aVCXF-6288
p1517
aVCXF-6287
p1518
aVCXF-6286
p1519
aVCXF-6285
p1520
aVCXF-6284
p1521
aVCXF-6283
p1522
aVCXF-6282
p1523
aVCXF-6281
p1524
aVCXF-6280
p1525
aVCXF-6279
p1526
aVCXF-6278
p1527
aVCXF-6277
p1528
aVCXF-6276
p1529
aVCXF-6275
p1530
aVCXF-6274
p1531
aVCXF-6273
p1532
aVCXF-6272
p1533
aVCXF-6271
p1534
aVCXF-6270
p1535
aVCXF-6269
p1536
aVCXF-6268
p1537
aVCXF-6267
p1538
aVCXF-6266
p1539
aVCXF-6265
p1540
aVCXF-6264
p1541
aVCXF-6263
p1542
aVCXF-6262
p1543
aVCXF-6261
p1544
aVCXF-6260
p1545
aVCXF-6259
p1546
aVCXF-6258
p1547
aVCXF-6257
p1548
aVCXF-6256
p1549
aVCXF-6255
p1550
aVCXF-6254
p1551
aVCXF-6253
p1552
aVCXF-6252
p1553
aVCXF-6251
p1554
aVCXF-6250
p1555
aVCXF-6249
p1556
aVCXF-6248
p1557
aVCXF-6247
p1558
aVCXF-6246
p1559
aVCXF-6245
p1560
aVCXF-6244
p1561
aVCXF-6243
p1562
aVCXF-6242
p1563
aVCXF-6241
p1564
aVCXF-6240
p1565
aVCXF-6239
p1566
aVCXF-6238
p1567
aVCXF-6237
p1568
aVCXF-6236
p1569
aVCXF-6235
p1570
aVCXF-6234
p1571
aVCXF-6233
p1572
aVCXF-6232
p1573
aVCXF-6231
p1574
aVCXF-6230
p1575
aVCXF-6229
p1576
aVCXF-6228
p1577
aVCXF-6227
p1578
aVCXF-6226
p1579
aVCXF-6225
p1580
aVCXF-6224
p1581
aVCXF-6223
p1582
aVCXF-6222
p1583
aVCXF-6221
p1584
aVCXF-6220
p1585
aVCXF-6219
p1586
aVCXF-6218
p1587
aVCXF-6217
p1588
aVCXF-6216
p1589
aVCXF-6215
p1590
aVCXF-6214
p1591
aVCXF-6213
p1592
aVCXF-6212
p1593
aVCXF-6211
p1594
aVCXF-6210
p1595
aVCXF-6209
p1596
aVCXF-6208
p1597
aVCXF-6207
p1598
aVCXF-6206
p1599
aVCXF-6205
p1600
aVCXF-6204
p1601
aVCXF-6203
p1602
aVCXF-6202
p1603
aVCXF-6201
p1604
aVCXF-6200
p1605
aVCXF-6199
p1606
aVCXF-6198
p1607
aVCXF-6197
p1608
aVCXF-6196
p1609
aVCXF-6195
p1610
aVCXF-6194
p1611
aVCXF-6193
p1612
aVCXF-6192
p1613
aVCXF-6191
p1614
aVCXF-6190
p1615
aVCXF-6189
p1616
aVCXF-6188
p1617
aVCXF-6187
p1618
aVCXF-6186
p1619
aVCXF-6185
p1620
aVCXF-6184
p1621
aVCXF-6183
p1622
aVCXF-6182
p1623
aVCXF-6181
p1624
aVCXF-6180
p1625
aVCXF-6179
p1626
aVCXF-6178
p1627
aVCXF-6177
p1628
aVCXF-6176
p1629
aVCXF-6175
p1630
aVCXF-6174
p1631
aVCXF-6173
p1632
aVCXF-6172
p1633
aVCXF-6171
p1634
aVCXF-6170
p1635
aVCXF-6169
p1636
aVCXF-6168
p1637
aVCXF-6167
p1638
aVCXF-6166
p1639
aVCXF-6165
p1640
aVCXF-6164
p1641
aVCXF-6163
p1642
aVCXF-6162
p1643
aVCXF-6161
p1644
aVCXF-6160
p1645
aVCXF-6159
p1646
aVCXF-6158
p1647
aVCXF-6157
p1648
aVCXF-6156
p1649
aVCXF-6155
p1650
aVCXF-6154
p1651
aVCXF-6153
p1652
aVCXF-6152
p1653
aVCXF-6151
p1654
aVCXF-6150
p1655
aVCXF-6149
p1656
aVCXF-6148
p1657
aVCXF-6147
p1658
aVCXF-6146
p1659
aVCXF-6145
p1660
aVCXF-6144
p1661
aVCXF-6143
p1662
aVCXF-6142
p1663
aVCXF-6141
p1664
aVCXF-6140
p1665
aVCXF-6139
p1666
aVCXF-6138
p1667
aVCXF-6137
p1668
aVCXF-6136
p1669
aVCXF-6135
p1670
aVCXF-6134
p1671
aVCXF-6133
p1672
aVCXF-6132
p1673
aVCXF-6131
p1674
aVCXF-6130
p1675
aVCXF-6129
p1676
aVCXF-6128
p1677
aVCXF-6127
p1678
aVCXF-6126
p1679
aVCXF-6125
p1680
aVCXF-6124
p1681
aVCXF-6123
p1682
aVCXF-6122
p1683
aVCXF-6121
p1684
aVCXF-6120
p1685
aVCXF-6119
p1686
aVCXF-6118
p1687
aVCXF-6117
p1688
aVCXF-6116
p1689
aVCXF-6115
p1690
aVCXF-6114
p1691
aVCXF-6113
p1692
aVCXF-6112
p1693
aVCXF-6111
p1694
aVCXF-6110
p1695
aVCXF-6109
p1696
aVCXF-6108
p1697
aVCXF-6107
p1698
aVCXF-6106
p1699
aVCXF-6105
p1700
aVCXF-6104
p1701
aVCXF-6103
p1702
aVCXF-6102
p1703
aVCXF-6101
p1704
aVCXF-6100
p1705
aVCXF-6099
p1706
aVCXF-6098
p1707
aVCXF-6097
p1708
aVCXF-6096
p1709
aVCXF-6095
p1710
aVCXF-6094
p1711
aVCXF-6093
p1712
aVCXF-6092
p1713
aVCXF-6091
p1714
aVCXF-6090
p1715
aVCXF-6089
p1716
aVCXF-6088
p1717
aVCXF-6087
p1718
aVCXF-6086
p1719
aVCXF-6085
p1720
aVCXF-6084
p1721
aVCXF-6083
p1722
aVCXF-6082
p1723
aVCXF-6081
p1724
aVCXF-6080
p1725
aVCXF-6079
p1726
aVCXF-6078
p1727
aVCXF-6077
p1728
aVCXF-6076
p1729
aVCXF-6075
p1730
aVCXF-6074
p1731
aVCXF-6073
p1732
aVCXF-6072
p1733
aVCXF-6071
p1734
aVCXF-6070
p1735
aVCXF-6069
p1736
aVCXF-6068
p1737
aVCXF-6067
p1738
aVCXF-6066
p1739
aVCXF-6065
p1740
aVCXF-6064
p1741
aVCXF-6063
p1742
aVCXF-6062
p1743
aVCXF-6061
p1744
aVCXF-6060
p1745
aVCXF-6059
p1746
aVCXF-6058
p1747
aVCXF-6057
p1748
aVCXF-6056
p1749
aVCXF-6055
p1750
aVCXF-6054
p1751
aVCXF-6053
p1752
aVCXF-6052
p1753
aVCXF-6051
p1754
aVCXF-6050
p1755
aVCXF-6049
p1756
aVCXF-6048
p1757
aVCXF-6047
p1758
aVCXF-6046
p1759
aVCXF-6045
p1760
aVCXF-6044
p1761
aVCXF-6043
p1762
aVCXF-6042
p1763
aVCXF-6041
p1764
aVCXF-6040
p1765
aVCXF-6039
p1766
aVCXF-6038
p1767
aVCXF-6037
p1768
aVCXF-6036
p1769
aVCXF-6035
p1770
aVCXF-6034
p1771
aVCXF-6033
p1772
aVCXF-6032
p1773
aVCXF-6031
p1774
aVCXF-6030
p1775
aVCXF-6029
p1776
aVCXF-6028
p1777
aVCXF-6027
p1778
aVCXF-6026
p1779
aVCXF-6025
p1780
aVCXF-6024
p1781
aVCXF-6023
p1782
aVCXF-6022
p1783
aVCXF-6021
p1784
aVCXF-6020
p1785
aVCXF-6019
p1786
aVCXF-6018
p1787
aVCXF-6017
p1788
aVCXF-6016
p1789
aVCXF-6015
p1790
aVCXF-6014
p1791
aVCXF-6013
p1792
aVCXF-6012
p1793
aVCXF-6011
p1794
aVCXF-6010
p1795
aVCXF-6009
p1796
aVCXF-6008
p1797
aVCXF-6007
p1798
aVCXF-6006
p1799
aVCXF-6005
p1800
aVCXF-6004
p1801
aVCXF-6003
p1802
aVCXF-6002
p1803
aVCXF-6001
p1804
aVCXF-6000
p1805
aVCXF-5999
p1806
aVCXF-5998
p1807
aVCXF-5997
p1808
aVCXF-5996
p1809
aVCXF-5995
p1810
aVCXF-5994
p1811
aVCXF-5993
p1812
aVCXF-5992
p1813
aVCXF-5991
p1814
aVCXF-5990
p1815
aVCXF-5989
p1816
aVCXF-5988
p1817
aVCXF-5987
p1818
aVCXF-5986
p1819
aVCXF-5985
p1820
aVCXF-5984
p1821
aVCXF-5983
p1822
aVCXF-5982
p1823
aVCXF-5981
p1824
aVCXF-5980
p1825
aVCXF-5979
p1826
aVCXF-5978
p1827
aVCXF-5977
p1828
aVCXF-5976
p1829
aVCXF-5975
p1830
aVCXF-5974
p1831
aVCXF-5973
p1832
aVCXF-5972
p1833
aVCXF-5971
p1834
aVCXF-5970
p1835
aVCXF-5969
p1836
aVCXF-5968
p1837
aVCXF-5967
p1838
aVCXF-5966
p1839
aVCXF-5965
p1840
aVCXF-5964
p1841
aVCXF-5963
p1842
aVCXF-5962
p1843
aVCXF-5961
p1844
aVCXF-5960
p1845
aVCXF-5959
p1846
aVCXF-5958
p1847
aVCXF-5957
p1848
aVCXF-5956
p1849
aVCXF-5955
p1850
aVCXF-5954
p1851
aVCXF-5953
p1852
aVCXF-5952
p1853
aVCXF-5951
p1854
aVCXF-5949
p1855
aVCXF-5948
p1856
aVCXF-5947
p1857
aVCXF-5946
p1858
aVCXF-5945
p1859
aVCXF-5944
p1860
aVCXF-5943
p1861
aVCXF-5942
p1862
aVCXF-5941
p1863
aVCXF-5940
p1864
aVCXF-5939
p1865
aVCXF-5938
p1866
aVCXF-5937
p1867
aVCXF-5936
p1868
aVCXF-5935
p1869
aVCXF-5934
p1870
aVCXF-5933
p1871
aVCXF-5932
p1872
aVCXF-5931
p1873
aVCXF-5930
p1874
aVCXF-5929
p1875
aVCXF-5928
p1876
aVCXF-5927
p1877
aVCXF-5926
p1878
aVCXF-5925
p1879
aVCXF-5924
p1880
aVCXF-5923
p1881
aVCXF-5922
p1882
aVCXF-5920
p1883
aVCXF-5919
p1884
aVCXF-5918
p1885
aVCXF-5917
p1886
aVCXF-5916
p1887
aVCXF-5915
p1888
aVCXF-5914
p1889
aVCXF-5913
p1890
aVCXF-5912
p1891
aVCXF-5911
p1892
aVCXF-5910
p1893
aVCXF-5909
p1894
aVCXF-5908
p1895
aVCXF-5907
p1896
aVCXF-5906
p1897
aVCXF-5905
p1898
aVCXF-5904
p1899
aVCXF-5903
p1900
aVCXF-5902
p1901
aVCXF-5901
p1902
aVCXF-5900
p1903
aVCXF-5899
p1904
aVCXF-5898
p1905
aVCXF-5897
p1906
aVCXF-5896
p1907
aVCXF-5895
p1908
aVCXF-5894
p1909
aVCXF-5893
p1910
aVCXF-5892
p1911
aVCXF-5891
p1912
aVCXF-5890
p1913
aVCXF-5889
p1914
aVCXF-5888
p1915
aVCXF-5887
p1916
aVCXF-5886
p1917
aVCXF-5885
p1918
aVCXF-5884
p1919
aVCXF-5883
p1920
aVCXF-5882
p1921
aVCXF-5881
p1922
aVCXF-5880
p1923
aVCXF-5879
p1924
aVCXF-5878
p1925
aVCXF-5877
p1926
aVCXF-5876
p1927
aVCXF-5875
p1928
aVCXF-5874
p1929
aVCXF-5873
p1930
aVCXF-5872
p1931
aVCXF-5871
p1932
aVCXF-5870
p1933
aVCXF-5869
p1934
aVCXF-5868
p1935
aVCXF-5867
p1936
aVCXF-5866
p1937
aVCXF-5865
p1938
aVCXF-5864
p1939
aVCXF-5863
p1940
aVCXF-5862
p1941
aVCXF-5861
p1942
aVCXF-5860
p1943
aVCXF-5859
p1944
aVCXF-5858
p1945
aVCXF-5857
p1946
aVCXF-5856
p1947
aVCXF-5855
p1948
aVCXF-5854
p1949
aVCXF-5853
p1950
aVCXF-5852
p1951
aVCXF-5851
p1952
aVCXF-5850
p1953
aVCXF-5849
p1954
aVCXF-5848
p1955
aVCXF-5847
p1956
aVCXF-5846
p1957
aVCXF-5845
p1958
aVCXF-5844
p1959
aVCXF-5843
p1960
aVCXF-5842
p1961
aVCXF-5841
p1962
aVCXF-5840
p1963
aVCXF-5839
p1964
aVCXF-5838
p1965
aVCXF-5837
p1966
aVCXF-5836
p1967
aVCXF-5835
p1968
aVCXF-5834
p1969
aVCXF-5833
p1970
aVCXF-5832
p1971
aVCXF-5831
p1972
aVCXF-5830
p1973
aVCXF-5829
p1974
aVCXF-5828
p1975
aVCXF-5827
p1976
aVCXF-5826
p1977
aVCXF-5825
p1978
aVCXF-5823
p1979
aVCXF-5822
p1980
aVCXF-5821
p1981
aVCXF-5820
p1982
aVCXF-5819
p1983
aVCXF-5818
p1984
aVCXF-5817
p1985
aVCXF-5816
p1986
aVCXF-5815
p1987
aVCXF-5814
p1988
aVCXF-5813
p1989
aVCXF-5812
p1990
aVCXF-5811
p1991
aVCXF-5810
p1992
aVCXF-5809
p1993
aVCXF-5808
p1994
aVCXF-5807
p1995
aVCXF-5806
p1996
aVCXF-5805
p1997
aVCXF-5804
p1998
aVCXF-5803
p1999
aVCXF-5802
p2000
aVCXF-5801
p2001
aVCXF-5800
p2002
aVCXF-5799
p2003
aVCXF-5798
p2004
aVCXF-5797
p2005
aVCXF-5796
p2006
aVCXF-5795
p2007
aVCXF-5794
p2008
aVCXF-5793
p2009
aVCXF-5792
p2010
aVCXF-5791
p2011
aVCXF-5790
p2012
aVCXF-5789
p2013
aVCXF-5788
p2014
aVCXF-5787
p2015
aVCXF-5786
p2016
aVCXF-5785
p2017
aVCXF-5784
p2018
aVCXF-5783
p2019
aVCXF-5782
p2020
aVCXF-5781
p2021
aVCXF-5780
p2022
aVCXF-5779
p2023
aVCXF-5778
p2024
aVCXF-5777
p2025
aVCXF-5776
p2026
aVCXF-5775
p2027
aVCXF-5774
p2028
aVCXF-5773
p2029
aVCXF-5772
p2030
aVCXF-5771
p2031
aVCXF-5770
p2032
aVCXF-5769
p2033
aVCXF-5768
p2034
aVCXF-5767
p2035
aVCXF-5766
p2036
aVCXF-5765
p2037
aVCXF-5764
p2038
aVCXF-5763
p2039
aVCXF-5762
p2040
aVCXF-5761
p2041
aVCXF-5757
p2042
aVCXF-5756
p2043
aVCXF-5755
p2044
aVCXF-5754
p2045
aVCXF-5753
p2046
aVCXF-5752
p2047
aVCXF-5751
p2048
aVCXF-5750
p2049
aVCXF-5749
p2050
aVCXF-5748
p2051
aVCXF-5747
p2052
aVCXF-5746
p2053
aVCXF-5745
p2054
aVCXF-5744
p2055
aVCXF-5743
p2056
aVCXF-5742
p2057
aVCXF-5741
p2058
aVCXF-5740
p2059
aVCXF-5739
p2060
aVCXF-5738
p2061
aVCXF-5737
p2062
aVCXF-5736
p2063
aVCXF-5735
p2064
aVCXF-5734
p2065
aVCXF-5733
p2066
aVCXF-5732
p2067
aVCXF-5731
p2068
aVCXF-5730
p2069
aVCXF-5729
p2070
aVCXF-5728
p2071
aVCXF-5727
p2072
aVCXF-5726
p2073
aVCXF-5725
p2074
aVCXF-5724
p2075
aVCXF-5723
p2076
aVCXF-5722
p2077
aVCXF-5721
p2078
aVCXF-5720
p2079
aVCXF-5719
p2080
aVCXF-5718
p2081
aVCXF-5717
p2082
aVCXF-5716
p2083
aVCXF-5715
p2084
aVCXF-5714
p2085
aVCXF-5713
p2086
aVCXF-5712
p2087
aVCXF-5711
p2088
aVCXF-5710
p2089
aVCXF-5709
p2090
aVCXF-5708
p2091
aVCXF-5707
p2092
aVCXF-5706
p2093
aVCXF-5705
p2094
aVCXF-5704
p2095
aVCXF-5703
p2096
aVCXF-5702
p2097
aVCXF-5701
p2098
aVCXF-5700
p2099
aVCXF-5699
p2100
aVCXF-5698
p2101
aVCXF-5697
p2102
aVCXF-5696
p2103
aVCXF-5695
p2104
aVCXF-5694
p2105
aVCXF-5693
p2106
aVCXF-5692
p2107
aVCXF-5691
p2108
aVCXF-5690
p2109
aVCXF-5689
p2110
aVCXF-5688
p2111
aVCXF-5687
p2112
aVCXF-5686
p2113
aVCXF-5685
p2114
aVCXF-5684
p2115
aVCXF-5683
p2116
aVCXF-5682
p2117
aVCXF-5681
p2118
aVCXF-5680
p2119
aVCXF-5679
p2120
aVCXF-5678
p2121
aVCXF-5677
p2122
aVCXF-5676
p2123
aVCXF-5675
p2124
aVCXF-5674
p2125
aVCXF-5673
p2126
aVCXF-5672
p2127
aVCXF-5671
p2128
aVCXF-5670
p2129
aVCXF-5669
p2130
aVCXF-5668
p2131
aVCXF-5667
p2132
aVCXF-5666
p2133
aVCXF-5665
p2134
aVCXF-5664
p2135
aVCXF-5663
p2136
aVCXF-5662
p2137
aVCXF-5661
p2138
aVCXF-5660
p2139
aVCXF-5659
p2140
aVCXF-5658
p2141
aVCXF-5657
p2142
aVCXF-5656
p2143
aVCXF-5655
p2144
aVCXF-5654
p2145
aVCXF-5653
p2146
aVCXF-5652
p2147
aVCXF-5651
p2148
aVCXF-5650
p2149
aVCXF-5649
p2150
aVCXF-5648
p2151
aVCXF-5647
p2152
aVCXF-5646
p2153
aVCXF-5645
p2154
aVCXF-5644
p2155
aVCXF-5643
p2156
aVCXF-5642
p2157
aVCXF-5641
p2158
aVCXF-5640
p2159
aVCXF-5639
p2160
aVCXF-5638
p2161
aVCXF-5637
p2162
aVCXF-5636
p2163
aVCXF-5635
p2164
aVCXF-5634
p2165
aVCXF-5633
p2166
aVCXF-5632
p2167
aVCXF-5631
p2168
aVCXF-5630
p2169
aVCXF-5629
p2170
aVCXF-5628
p2171
aVCXF-5627
p2172
aVCXF-5626
p2173
aVCXF-5625
p2174
aVCXF-5624
p2175
aVCXF-5623
p2176
aVCXF-5622
p2177
aVCXF-5621
p2178
aVCXF-5620
p2179
aVCXF-5619
p2180
aVCXF-5618
p2181
aVCXF-5617
p2182
aVCXF-5616
p2183
aVCXF-5615
p2184
aVCXF-5614
p2185
aVCXF-5613
p2186
aVCXF-5612
p2187
aVCXF-5611
p2188
aVCXF-5610
p2189
aVCXF-5609
p2190
aVCXF-5608
p2191
aVCXF-5607
p2192
aVCXF-5606
p2193
aVCXF-5605
p2194
aVCXF-5604
p2195
aVCXF-5603
p2196
aVCXF-5602
p2197
aVCXF-5601
p2198
aVCXF-5600
p2199
aVCXF-5599
p2200
aVCXF-5598
p2201
aVCXF-5597
p2202
aVCXF-5596
p2203
aVCXF-5595
p2204
aVCXF-5594
p2205
aVCXF-5593
p2206
aVCXF-5592
p2207
aVCXF-5591
p2208
aVCXF-5590
p2209
aVCXF-5589
p2210
aVCXF-5588
p2211
aVCXF-5587
p2212
aVCXF-5586
p2213
aVCXF-5585
p2214
aVCXF-5584
p2215
aVCXF-5583
p2216
aVCXF-5582
p2217
aVCXF-5581
p2218
aVCXF-5580
p2219
aVCXF-5579
p2220
aVCXF-5578
p2221
aVCXF-5577
p2222
aVCXF-5576
p2223
aVCXF-5575
p2224
aVCXF-5574
p2225
aVCXF-5573
p2226
aVCXF-5572
p2227
aVCXF-5571
p2228
aVCXF-5570
p2229
aVCXF-5569
p2230
aVCXF-5568
p2231
aVCXF-5567
p2232
aVCXF-5566
p2233
aVCXF-5565
p2234
aVCXF-5564
p2235
aVCXF-5563
p2236
aVCXF-5562
p2237
aVCXF-5561
p2238
aVCXF-5560
p2239
aVCXF-5559
p2240
aVCXF-5558
p2241
aVCXF-5557
p2242
aVCXF-5556
p2243
aVCXF-5555
p2244
aVCXF-5554
p2245
aVCXF-5553
p2246
aVCXF-5552
p2247
aVCXF-5551
p2248
aVCXF-5550
p2249
aVCXF-5549
p2250
aVCXF-5548
p2251
aVCXF-5547
p2252
aVCXF-5546
p2253
aVCXF-5545
p2254
aVCXF-5544
p2255
aVCXF-5543
p2256
aVCXF-5542
p2257
aVCXF-5541
p2258
aVCXF-5540
p2259
aVCXF-5539
p2260
aVCXF-5538
p2261
aVCXF-5537
p2262
aVCXF-5536
p2263
aVCXF-5535
p2264
aVCXF-5534
p2265
aVCXF-5533
p2266
aVCXF-5532
p2267
aVCXF-5531
p2268
aVCXF-5530
p2269
aVCXF-5529
p2270
aVCXF-5528
p2271
aVCXF-5527
p2272
aVCXF-5526
p2273
aVCXF-5525
p2274
aVCXF-5524
p2275
aVCXF-5523
p2276
aVCXF-5522
p2277
aVCXF-5521
p2278
aVCXF-5520
p2279
aVCXF-5519
p2280
aVCXF-5518
p2281
aVCXF-5517
p2282
aVCXF-5516
p2283
aVCXF-5515
p2284
aVCXF-5514
p2285
aVCXF-5513
p2286
aVCXF-5512
p2287
aVCXF-5511
p2288
aVCXF-5509
p2289
aVCXF-5508
p2290
aVCXF-5507
p2291
aVCXF-5506
p2292
aVCXF-5505
p2293
aVCXF-5504
p2294
aVCXF-5503
p2295
aVCXF-5502
p2296
aVCXF-5501
p2297
aVCXF-5500
p2298
aVCXF-5499
p2299
aVCXF-5498
p2300
aVCXF-5497
p2301
aVCXF-5496
p2302
aVCXF-5495
p2303
aVCXF-5494
p2304
aVCXF-5493
p2305
aVCXF-5492
p2306
aVCXF-5491
p2307
aVCXF-5490
p2308
aVCXF-5489
p2309
aVCXF-5488
p2310
aVCXF-5487
p2311
aVCXF-5486
p2312
aVCXF-5485
p2313
aVCXF-5484
p2314
aVCXF-5483
p2315
aVCXF-5482
p2316
aVCXF-5481
p2317
aVCXF-5480
p2318
aVCXF-5479
p2319
aVCXF-5478
p2320
aVCXF-5477
p2321
aVCXF-5476
p2322
aVCXF-5475
p2323
aVCXF-5474
p2324
aVCXF-5473
p2325
aVCXF-5472
p2326
aVCXF-5471
p2327
aVCXF-5470
p2328
aVCXF-5469
p2329
aVCXF-5468
p2330
aVCXF-5467
p2331
aVCXF-5466
p2332
aVCXF-5465
p2333
aVCXF-5464
p2334
aVCXF-5463
p2335
aVCXF-5462
p2336
aVCXF-5461
p2337
aVCXF-5460
p2338
aVCXF-5459
p2339
aVCXF-5458
p2340
aVCXF-5457
p2341
aVCXF-5456
p2342
aVCXF-5455
p2343
aVCXF-5454
p2344
aVCXF-5453
p2345
aVCXF-5452
p2346
aVCXF-5451
p2347
aVCXF-5450
p2348
aVCXF-5449
p2349
aVCXF-5448
p2350
aVCXF-5447
p2351
aVCXF-5446
p2352
aVCXF-5445
p2353
aVCXF-5444
p2354
aVCXF-5443
p2355
aVCXF-5442
p2356
aVCXF-5441
p2357
aVCXF-5440
p2358
aVCXF-5439
p2359
aVCXF-5438
p2360
aVCXF-5437
p2361
aVCXF-5436
p2362
aVCXF-5435
p2363
aVCXF-5434
p2364
aVCXF-5433
p2365
aVCXF-5432
p2366
aVCXF-5431
p2367
aVCXF-5430
p2368
aVCXF-5429
p2369
aVCXF-5428
p2370
aVCXF-5427
p2371
aVCXF-5426
p2372
aVCXF-5425
p2373
aVCXF-5424
p2374
aVCXF-5423
p2375
aVCXF-5422
p2376
aVCXF-5421
p2377
aVCXF-5420
p2378
aVCXF-5419
p2379
aVCXF-5418
p2380
aVCXF-5417
p2381
aVCXF-5416
p2382
aVCXF-5415
p2383
aVCXF-5414
p2384
aVCXF-5413
p2385
aVCXF-5412
p2386
aVCXF-5411
p2387
aVCXF-5410
p2388
aVCXF-5409
p2389
aVCXF-5408
p2390
aVCXF-5407
p2391
aVCXF-5406
p2392
aVCXF-5405
p2393
aVCXF-5404
p2394
aVCXF-5403
p2395
aVCXF-5402
p2396
aVCXF-5401
p2397
aVCXF-5400
p2398
aVCXF-5399
p2399
aVCXF-5398
p2400
aVCXF-5397
p2401
aVCXF-5396
p2402
aVCXF-5395
p2403
aVCXF-5394
p2404
aVCXF-5393
p2405
aVCXF-5392
p2406
aVCXF-5391
p2407
aVCXF-5390
p2408
aVCXF-5389
p2409
aVCXF-5388
p2410
aVCXF-5387
p2411
aVCXF-5386
p2412
aVCXF-5385
p2413
aVCXF-5384
p2414
aVCXF-5383
p2415
aVCXF-5382
p2416
aVCXF-5381
p2417
aVCXF-5380
p2418
aVCXF-5379
p2419
aVCXF-5378
p2420
aVCXF-5377
p2421
aVCXF-5376
p2422
aVCXF-5375
p2423
aVCXF-5374
p2424
aVCXF-5373
p2425
aVCXF-5372
p2426
aVCXF-5371
p2427
aVCXF-5370
p2428
aVCXF-5369
p2429
aVCXF-5368
p2430
aVCXF-5367
p2431
aVCXF-5366
p2432
aVCXF-5365
p2433
aVCXF-5364
p2434
aVCXF-5363
p2435
aVCXF-5362
p2436
aVCXF-5361
p2437
aVCXF-5360
p2438
aVCXF-5359
p2439
aVCXF-5358
p2440
aVCXF-5357
p2441
aVCXF-5356
p2442
aVCXF-5355
p2443
aVCXF-5354
p2444
aVCXF-5353
p2445
aVCXF-5352
p2446
aVCXF-5351
p2447
aVCXF-5350
p2448
aVCXF-5349
p2449
aVCXF-5348
p2450
aVCXF-5347
p2451
aVCXF-5346
p2452
aVCXF-5345
p2453
aVCXF-5344
p2454
aVCXF-5343
p2455
aVCXF-5342
p2456
aVCXF-5341
p2457
aVCXF-5340
p2458
aVCXF-5339
p2459
aVCXF-5338
p2460
aVCXF-5337
p2461
aVCXF-5336
p2462
aVCXF-5335
p2463
aVCXF-5334
p2464
aVCXF-5333
p2465
aVCXF-5332
p2466
aVCXF-5331
p2467
aVCXF-5330
p2468
aVCXF-5329
p2469
aVCXF-5328
p2470
aVCXF-5327
p2471
aVCXF-5326
p2472
aVCXF-5325
p2473
aVCXF-5324
p2474
aVCXF-5323
p2475
aVCXF-5322
p2476
aVCXF-5321
p2477
aVCXF-5320
p2478
aVCXF-5319
p2479
aVCXF-5318
p2480
aVCXF-5317
p2481
aVCXF-5316
p2482
aVCXF-5315
p2483
aVCXF-5314
p2484
aVCXF-5313
p2485
aVCXF-5312
p2486
aVCXF-5311
p2487
aVCXF-5310
p2488
aVCXF-5309
p2489
aVCXF-5308
p2490
aVCXF-5307
p2491
aVCXF-5306
p2492
aVCXF-5305
p2493
aVCXF-5304
p2494
aVCXF-5303
p2495
aVCXF-5302
p2496
aVCXF-5301
p2497
aVCXF-5300
p2498
aVCXF-5299
p2499
aVCXF-5298
p2500
aVCXF-5297
p2501
aVCXF-5296
p2502
aVCXF-5295
p2503
aVCXF-5294
p2504
aVCXF-5293
p2505
aVCXF-5292
p2506
aVCXF-5291
p2507
aVCXF-5290
p2508
aVCXF-5289
p2509
aVCXF-5288
p2510
aVCXF-5287
p2511
aVCXF-5286
p2512
aVCXF-5285
p2513
aVCXF-5284
p2514
aVCXF-5283
p2515
aVCXF-5282
p2516
aVCXF-5281
p2517
aVCXF-5280
p2518
aVCXF-5279
p2519
aVCXF-5278
p2520
aVCXF-5277
p2521
aVCXF-5276
p2522
aVCXF-5275
p2523
aVCXF-5274
p2524
aVCXF-5273
p2525
aVCXF-5272
p2526
aVCXF-5271
p2527
aVCXF-5270
p2528
aVCXF-5269
p2529
aVCXF-5268
p2530
aVCXF-5267
p2531
aVCXF-5266
p2532
aVCXF-5265
p2533
aVCXF-5264
p2534
aVCXF-5263
p2535
aVCXF-5262
p2536
aVCXF-5261
p2537
aVCXF-5260
p2538
aVCXF-5259
p2539
aVCXF-5258
p2540
aVCXF-5257
p2541
aVCXF-5256
p2542
aVCXF-5255
p2543
aVCXF-5254
p2544
aVCXF-5253
p2545
aVCXF-5252
p2546
aVCXF-5251
p2547
aVCXF-5250
p2548
aVCXF-5249
p2549
aVCXF-5248
p2550
aVCXF-5247
p2551
aVCXF-5246
p2552
aVCXF-5245
p2553
aVCXF-5244
p2554
aVCXF-5243
p2555
aVCXF-5242
p2556
aVCXF-5241
p2557
aVCXF-5240
p2558
aVCXF-5239
p2559
aVCXF-5238
p2560
aVCXF-5237
p2561
aVCXF-5236
p2562
aVCXF-5235
p2563
aVCXF-5234
p2564
aVCXF-5233
p2565
aVCXF-5232
p2566
aVCXF-5231
p2567
aVCXF-5230
p2568
aVCXF-5229
p2569
aVCXF-5228
p2570
aVCXF-5227
p2571
aVCXF-5226
p2572
aVCXF-5225
p2573
aVCXF-5224
p2574
aVCXF-5223
p2575
aVCXF-5222
p2576
aVCXF-5221
p2577
aVCXF-5220
p2578
aVCXF-5219
p2579
aVCXF-5218
p2580
aVCXF-5217
p2581
aVCXF-5216
p2582
aVCXF-5215
p2583
aVCXF-5214
p2584
aVCXF-5213
p2585
aVCXF-5212
p2586
aVCXF-5211
p2587
aVCXF-5210
p2588
aVCXF-5209
p2589
aVCXF-5208
p2590
aVCXF-5207
p2591
aVCXF-5206
p2592
aVCXF-5205
p2593
aVCXF-5204
p2594
aVCXF-5203
p2595
aVCXF-5202
p2596
aVCXF-5201
p2597
aVCXF-5200
p2598
aVCXF-5199
p2599
aVCXF-5198
p2600
aVCXF-5197
p2601
aVCXF-5196
p2602
aVCXF-5195
p2603
aVCXF-5194
p2604
aVCXF-5193
p2605
aVCXF-5192
p2606
aVCXF-5191
p2607
aVCXF-5190
p2608
aVCXF-5189
p2609
aVCXF-5188
p2610
aVCXF-5187
p2611
aVCXF-5186
p2612
aVCXF-5185
p2613
aVCXF-5184
p2614
aVCXF-5183
p2615
aVCXF-5182
p2616
aVCXF-5181
p2617
aVCXF-5180
p2618
aVCXF-5179
p2619
aVCXF-5178
p2620
aVCXF-5177
p2621
aVCXF-5176
p2622
aVCXF-5175
p2623
aVCXF-5174
p2624
aVCXF-5173
p2625
aVCXF-5172
p2626
aVCXF-5171
p2627
aVCXF-5170
p2628
aVCXF-5169
p2629
aVCXF-5168
p2630
aVCXF-5167
p2631
aVCXF-5166
p2632
aVCXF-5165
p2633
aVCXF-5164
p2634
aVCXF-5163
p2635
aVCXF-5162
p2636
aVCXF-5161
p2637
aVCXF-5160
p2638
aVCXF-5159
p2639
aVCXF-5157
p2640
aVCXF-5156
p2641
aVCXF-5155
p2642
aVCXF-5154
p2643
aVCXF-5153
p2644
aVCXF-5152
p2645
aVCXF-5151
p2646
aVCXF-5150
p2647
aVCXF-5149
p2648
aVCXF-5148
p2649
aVCXF-5147
p2650
aVCXF-5146
p2651
aVCXF-5145
p2652
aVCXF-5144
p2653
aVCXF-5143
p2654
aVCXF-5142
p2655
aVCXF-5141
p2656
aVCXF-5140
p2657
aVCXF-5139
p2658
aVCXF-5138
p2659
aVCXF-5137
p2660
aVCXF-5136
p2661
aVCXF-5135
p2662
aVCXF-5134
p2663
aVCXF-5133
p2664
aVCXF-5132
p2665
aVCXF-5131
p2666
aVCXF-5130
p2667
aVCXF-5129
p2668
aVCXF-5128
p2669
aVCXF-5127
p2670
aVCXF-5126
p2671
aVCXF-5125
p2672
aVCXF-5124
p2673
aVCXF-5123
p2674
aVCXF-5122
p2675
aVCXF-5121
p2676
aVCXF-5120
p2677
aVCXF-5119
p2678
aVCXF-5118
p2679
aVCXF-5117
p2680
aVCXF-5116
p2681
aVCXF-5115
p2682
aVCXF-5114
p2683
aVCXF-5113
p2684
aVCXF-5112
p2685
aVCXF-5111
p2686
aVCXF-5110
p2687
aVCXF-5109
p2688
aVCXF-5108
p2689
aVCXF-5107
p2690
aVCXF-5106
p2691
aVCXF-5105
p2692
aVCXF-5104
p2693
aVCXF-5103
p2694
aVCXF-5102
p2695
aVCXF-5101
p2696
aVCXF-5100
p2697
aVCXF-5099
p2698
aVCXF-5098
p2699
aVCXF-5097
p2700
aVCXF-5096
p2701
aVCXF-5095
p2702
aVCXF-5094
p2703
aVCXF-5093
p2704
aVCXF-5092
p2705
aVCXF-5091
p2706
aVCXF-5090
p2707
aVCXF-5089
p2708
aVCXF-5088
p2709
aVCXF-5087
p2710
aVCXF-5086
p2711
aVCXF-5085
p2712
aVCXF-5084
p2713
aVCXF-5083
p2714
aVCXF-5082
p2715
aVCXF-5081
p2716
aVCXF-5080
p2717
aVCXF-5079
p2718
aVCXF-5078
p2719
aVCXF-5077
p2720
aVCXF-5076
p2721
aVCXF-5075
p2722
aVCXF-5074
p2723
aVCXF-5073
p2724
aVCXF-5072
p2725
aVCXF-5071
p2726
aVCXF-5070
p2727
aVCXF-5069
p2728
aVCXF-5068
p2729
aVCXF-5067
p2730
aVCXF-5066
p2731
aVCXF-5065
p2732
aVCXF-5064
p2733
aVCXF-5063
p2734
aVCXF-5061
p2735
aVCXF-5060
p2736
aVCXF-5059
p2737
aVCXF-5058
p2738
aVCXF-5057
p2739
aVCXF-5056
p2740
aVCXF-5055
p2741
aVCXF-5054
p2742
aVCXF-5053
p2743
aVCXF-5052
p2744
aVCXF-5051
p2745
aVCXF-5050
p2746
aVCXF-5049
p2747
aVCXF-5048
p2748
aVCXF-5047
p2749
aVCXF-5046
p2750
aVCXF-5045
p2751
aVCXF-5044
p2752
aVCXF-5043
p2753
aVCXF-5042
p2754
aVCXF-5041
p2755
aVCXF-5040
p2756
aVCXF-5039
p2757
aVCXF-5038
p2758
aVCXF-5037
p2759
aVCXF-5036
p2760
aVCXF-5035
p2761
aVCXF-5034
p2762
aVCXF-5033
p2763
aVCXF-5032
p2764
aVCXF-5031
p2765
aVCXF-5030
p2766
aVCXF-5029
p2767
aVCXF-5028
p2768
aVCXF-5027
p2769
aVCXF-5026
p2770
aVCXF-5025
p2771
aVCXF-5024
p2772
aVCXF-5023
p2773
aVCXF-5022
p2774
aVCXF-5021
p2775
aVCXF-5020
p2776
aVCXF-5019
p2777
aVCXF-5018
p2778
aVCXF-5017
p2779
aVCXF-5016
p2780
aVCXF-5015
p2781
aVCXF-5014
p2782
aVCXF-5013
p2783
aVCXF-5012
p2784
aVCXF-5011
p2785
aVCXF-5010
p2786
aVCXF-5009
p2787
aVCXF-5008
p2788
aVCXF-5007
p2789
aVCXF-5006
p2790
aVCXF-5005
p2791
aVCXF-5004
p2792
aVCXF-5003
p2793
aVCXF-5002
p2794
aVCXF-5001
p2795
aVCXF-5000
p2796
aVCXF-4999
p2797
aVCXF-4998
p2798
aVCXF-4997
p2799
aVCXF-4996
p2800
aVCXF-4995
p2801
aVCXF-4994
p2802
aVCXF-4993
p2803
aVCXF-4992
p2804
aVCXF-4991
p2805
aVCXF-4990
p2806
aVCXF-4989
p2807
aVCXF-4988
p2808
aVCXF-4987
p2809
aVCXF-4986
p2810
aVCXF-4985
p2811
aVCXF-4984
p2812
aVCXF-4983
p2813
aVCXF-4982
p2814
aVCXF-4981
p2815
aVCXF-4980
p2816
aVCXF-4979
p2817
aVCXF-4978
p2818
aVCXF-4977
p2819
aVCXF-4976
p2820
aVCXF-4975
p2821
aVCXF-4974
p2822
aVCXF-4973
p2823
aVCXF-4972
p2824
aVCXF-4971
p2825
aVCXF-4970
p2826
aVCXF-4969
p2827
aVCXF-4968
p2828
aVCXF-4967
p2829
aVCXF-4966
p2830
aVCXF-4965
p2831
aVCXF-4964
p2832
aVCXF-4963
p2833
aVCXF-4962
p2834
aVCXF-4961
p2835
aVCXF-4960
p2836
aVCXF-4959
p2837
aVCXF-4958
p2838
aVCXF-4957
p2839
aVCXF-4956
p2840
aVCXF-4955
p2841
aVCXF-4954
p2842
aVCXF-4953
p2843
aVCXF-4952
p2844
aVCXF-4951
p2845
aVCXF-4950
p2846
aVCXF-4949
p2847
aVCXF-4948
p2848
aVCXF-4947
p2849
aVCXF-4946
p2850
aVCXF-4945
p2851
aVCXF-4944
p2852
aVCXF-4943
p2853
aVCXF-4942
p2854
aVCXF-4941
p2855
aVCXF-4940
p2856
aVCXF-4939
p2857
aVCXF-4938
p2858
aVCXF-4937
p2859
aVCXF-4936
p2860
aVCXF-4935
p2861
aVCXF-4934
p2862
aVCXF-4933
p2863
aVCXF-4932
p2864
aVCXF-4931
p2865
aVCXF-4930
p2866
aVCXF-4929
p2867
aVCXF-4928
p2868
aVCXF-4927
p2869
aVCXF-4926
p2870
aVCXF-4925
p2871
aVCXF-4924
p2872
aVCXF-4923
p2873
aVCXF-4922
p2874
aVCXF-4921
p2875
aVCXF-4920
p2876
aVCXF-4919
p2877
aVCXF-4918
p2878
aVCXF-4917
p2879
aVCXF-4916
p2880
aVCXF-4915
p2881
aVCXF-4914
p2882
aVCXF-4913
p2883
aVCXF-4912
p2884
aVCXF-4911
p2885
aVCXF-4910
p2886
aVCXF-4909
p2887
aVCXF-4908
p2888
aVCXF-4907
p2889
aVCXF-4906
p2890
aVCXF-4905
p2891
aVCXF-4904
p2892
aVCXF-4903
p2893
aVCXF-4902
p2894
aVCXF-4901
p2895
aVCXF-4900
p2896
aVCXF-4899
p2897
aVCXF-4898
p2898
aVCXF-4897
p2899
aVCXF-4896
p2900
aVCXF-4895
p2901
aVCXF-4894
p2902
aVCXF-4893
p2903
aVCXF-4892
p2904
aVCXF-4891
p2905
aVCXF-4890
p2906
aVCXF-4889
p2907
aVCXF-4888
p2908
aVCXF-4887
p2909
aVCXF-4886
p2910
aVCXF-4885
p2911
aVCXF-4884
p2912
aVCXF-4883
p2913
aVCXF-4882
p2914
aVCXF-4881
p2915
aVCXF-4880
p2916
aVCXF-4879
p2917
aVCXF-4878
p2918
aVCXF-4877
p2919
aVCXF-4876
p2920
aVCXF-4875
p2921
aVCXF-4874
p2922
aVCXF-4873
p2923
aVCXF-4872
p2924
aVCXF-4871
p2925
aVCXF-4870
p2926
aVCXF-4869
p2927
aVCXF-4868
p2928
aVCXF-4867
p2929
aVCXF-4866
p2930
aVCXF-4865
p2931
aVCXF-4864
p2932
aVCXF-4863
p2933
aVCXF-4862
p2934
aVCXF-4861
p2935
aVCXF-4860
p2936
aVCXF-4859
p2937
aVCXF-4858
p2938
aVCXF-4857
p2939
aVCXF-4856
p2940
aVCXF-4855
p2941
aVCXF-4854
p2942
aVCXF-4853
p2943
aVCXF-4852
p2944
aVCXF-4851
p2945
aVCXF-4850
p2946
aVCXF-4849
p2947
aVCXF-4848
p2948
aVCXF-4847
p2949
aVCXF-4846
p2950
aVCXF-4845
p2951
aVCXF-4844
p2952
aVCXF-4843
p2953
aVCXF-4842
p2954
aVCXF-4841
p2955
aVCXF-4840
p2956
aVCXF-4839
p2957
aVCXF-4838
p2958
aVCXF-4837
p2959
aVCXF-4836
p2960
aVCXF-4835
p2961
aVCXF-4834
p2962
aVCXF-4833
p2963
aVCXF-4832
p2964
aVCXF-4831
p2965
aVCXF-4830
p2966
aVCXF-4829
p2967
aVCXF-4828
p2968
aVCXF-4827
p2969
aVCXF-4826
p2970
aVCXF-4825
p2971
aVCXF-4824
p2972
aVCXF-4823
p2973
aVCXF-4822
p2974
aVCXF-4821
p2975
aVCXF-4820
p2976
aVCXF-4819
p2977
aVCXF-4818
p2978
aVCXF-4817
p2979
aVCXF-4816
p2980
aVCXF-4815
p2981
aVCXF-4814
p2982
aVCXF-4813
p2983
aVCXF-4812
p2984
aVCXF-4811
p2985
aVCXF-4810
p2986
aVCXF-4808
p2987
aVCXF-4806
p2988
aVCXF-4805
p2989
aVCXF-4804
p2990
aVCXF-4803
p2991
aVCXF-4802
p2992
aVCXF-4801
p2993
aVCXF-4800
p2994
aVCXF-4799
p2995
aVCXF-4798
p2996
aVCXF-4797
p2997
aVCXF-4796
p2998
aVCXF-4795
p2999
aVCXF-4794
p3000
aVCXF-4793
p3001
aVCXF-4792
p3002
aVCXF-4791
p3003
aVCXF-4790
p3004
aVCXF-4789
p3005
aVCXF-4788
p3006
aVCXF-4787
p3007
aVCXF-4786
p3008
aVCXF-4785
p3009
aVCXF-4784
p3010
aVCXF-4783
p3011
aVCXF-4782
p3012
aVCXF-4781
p3013
aVCXF-4780
p3014
aVCXF-4779
p3015
aVCXF-4778
p3016
aVCXF-4777
p3017
aVCXF-4776
p3018
aVCXF-4775
p3019
aVCXF-4774
p3020
aVCXF-4773
p3021
aVCXF-4772
p3022
aVCXF-4771
p3023
aVCXF-4770
p3024
aVCXF-4769
p3025
aVCXF-4768
p3026
aVCXF-4767
p3027
aVCXF-4766
p3028
aVCXF-4765
p3029
aVCXF-4764
p3030
aVCXF-4763
p3031
aVCXF-4762
p3032
aVCXF-4761
p3033
aVCXF-4760
p3034
aVCXF-4759
p3035
aVCXF-4758
p3036
aVCXF-4757
p3037
aVCXF-4756
p3038
aVCXF-4755
p3039
aVCXF-4754
p3040
aVCXF-4753
p3041
aVCXF-4752
p3042
aVCXF-4751
p3043
aVCXF-4750
p3044
aVCXF-4749
p3045
aVCXF-4748
p3046
aVCXF-4747
p3047
aVCXF-4746
p3048
aVCXF-4745
p3049
aVCXF-4744
p3050
aVCXF-4743
p3051
aVCXF-4742
p3052
aVCXF-4741
p3053
aVCXF-4740
p3054
aVCXF-4739
p3055
aVCXF-4738
p3056
aVCXF-4737
p3057
aVCXF-4736
p3058
aVCXF-4735
p3059
aVCXF-4734
p3060
aVCXF-4733
p3061
aVCXF-4732
p3062
aVCXF-4731
p3063
aVCXF-4730
p3064
aVCXF-4729
p3065
aVCXF-4728
p3066
aVCXF-4727
p3067
aVCXF-4726
p3068
aVCXF-4725
p3069
aVCXF-4724
p3070
aVCXF-4723
p3071
aVCXF-4722
p3072
aVCXF-4721
p3073
aVCXF-4720
p3074
aVCXF-4719
p3075
aVCXF-4718
p3076
aVCXF-4717
p3077
aVCXF-4716
p3078
aVCXF-4715
p3079
aVCXF-4714
p3080
aVCXF-4713
p3081
aVCXF-4712
p3082
aVCXF-4711
p3083
aVCXF-4710
p3084
aVCXF-4709
p3085
aVCXF-4708
p3086
aVCXF-4707
p3087
aVCXF-4706
p3088
aVCXF-4705
p3089
aVCXF-4704
p3090
aVCXF-4703
p3091
aVCXF-4702
p3092
aVCXF-4701
p3093
aVCXF-4700
p3094
aVCXF-4699
p3095
aVCXF-4698
p3096
aVCXF-4697
p3097
aVCXF-4696
p3098
aVCXF-4695
p3099
aVCXF-4694
p3100
aVCXF-4693
p3101
aVCXF-4692
p3102
aVCXF-4691
p3103
aVCXF-4690
p3104
aVCXF-4689
p3105
aVCXF-4688
p3106
aVCXF-4687
p3107
aVCXF-4686
p3108
aVCXF-4685
p3109
aVCXF-4684
p3110
aVCXF-4683
p3111
aVCXF-4682
p3112
aVCXF-4681
p3113
aVCXF-4680
p3114
aVCXF-4679
p3115
aVCXF-4678
p3116
aVCXF-4677
p3117
aVCXF-4676
p3118
aVCXF-4675
p3119
aVCXF-4674
p3120
aVCXF-4673
p3121
aVCXF-4672
p3122
aVCXF-4671
p3123
aVCXF-4670
p3124
aVCXF-4669
p3125
aVCXF-4668
p3126
aVCXF-4667
p3127
aVCXF-4666
p3128
aVCXF-4665
p3129
aVCXF-4664
p3130
aVCXF-4663
p3131
aVCXF-4662
p3132
aVCXF-4661
p3133
aVCXF-4660
p3134
aVCXF-4659
p3135
aVCXF-4658
p3136
aVCXF-4657
p3137
aVCXF-4656
p3138
aVCXF-4655
p3139
aVCXF-4654
p3140
aVCXF-4653
p3141
aVCXF-4652
p3142
aVCXF-4650
p3143
aVCXF-4649
p3144
aVCXF-4648
p3145
aVCXF-4647
p3146
aVCXF-4646
p3147
aVCXF-4645
p3148
aVCXF-4644
p3149
aVCXF-4643
p3150
aVCXF-4642
p3151
aVCXF-4641
p3152
aVCXF-4640
p3153
aVCXF-4639
p3154
aVCXF-4638
p3155
aVCXF-4637
p3156
aVCXF-4636
p3157
aVCXF-4635
p3158
aVCXF-4634
p3159
aVCXF-4633
p3160
aVCXF-4632
p3161
aVCXF-4631
p3162
aVCXF-4630
p3163
aVCXF-4629
p3164
aVCXF-4628
p3165
aVCXF-4627
p3166
aVCXF-4626
p3167
aVCXF-4625
p3168
aVCXF-4624
p3169
aVCXF-4623
p3170
aVCXF-4622
p3171
aVCXF-4621
p3172
aVCXF-4620
p3173
aVCXF-4619
p3174
aVCXF-4618
p3175
aVCXF-4617
p3176
aVCXF-4616
p3177
aVCXF-4615
p3178
aVCXF-4614
p3179
aVCXF-4613
p3180
aVCXF-4612
p3181
aVCXF-4611
p3182
aVCXF-4610
p3183
aVCXF-4609
p3184
aVCXF-4608
p3185
aVCXF-4607
p3186
aVCXF-4606
p3187
aVCXF-4605
p3188
aVCXF-4604
p3189
aVCXF-4603
p3190
aVCXF-4602
p3191
aVCXF-4601
p3192
aVCXF-4600
p3193
aVCXF-4599
p3194
aVCXF-4598
p3195
aVCXF-4597
p3196
aVCXF-4596
p3197
aVCXF-4595
p3198
aVCXF-4594
p3199
aVCXF-4593
p3200
aVCXF-4592
p3201
aVCXF-4591
p3202
aVCXF-4590
p3203
aVCXF-4589
p3204
aVCXF-4588
p3205
aVCXF-4587
p3206
aVCXF-4586
p3207
aVCXF-4585
p3208
aVCXF-4584
p3209
aVCXF-4583
p3210
aVCXF-4582
p3211
aVCXF-4581
p3212
aVCXF-4580
p3213
aVCXF-4579
p3214
aVCXF-4578
p3215
aVCXF-4577
p3216
aVCXF-4576
p3217
aVCXF-4575
p3218
aVCXF-4574
p3219
aVCXF-4573
p3220
aVCXF-4572
p3221
aVCXF-4571
p3222
aVCXF-4570
p3223
aVCXF-4569
p3224
aVCXF-4568
p3225
aVCXF-4567
p3226
aVCXF-4566
p3227
aVCXF-4565
p3228
aVCXF-4564
p3229
aVCXF-4563
p3230
aVCXF-4562
p3231
aVCXF-4561
p3232
aVCXF-4560
p3233
aVCXF-4559
p3234
aVCXF-4558
p3235
aVCXF-4557
p3236
aVCXF-4556
p3237
aVCXF-4555
p3238
aVCXF-4554
p3239
aVCXF-4553
p3240
aVCXF-4552
p3241
aVCXF-4551
p3242
aVCXF-4550
p3243
aVCXF-4549
p3244
aVCXF-4548
p3245
aVCXF-4547
p3246
aVCXF-4546
p3247
aVCXF-4545
p3248
aVCXF-4544
p3249
aVCXF-4543
p3250
aVCXF-4542
p3251
aVCXF-4541
p3252
aVCXF-4540
p3253
aVCXF-4539
p3254
aVCXF-4538
p3255
aVCXF-4537
p3256
aVCXF-4536
p3257
aVCXF-4535
p3258
aVCXF-4534
p3259
aVCXF-4533
p3260
aVCXF-4532
p3261
aVCXF-4531
p3262
aVCXF-4530
p3263
aVCXF-4529
p3264
aVCXF-4528
p3265
aVCXF-4527
p3266
aVCXF-4526
p3267
aVCXF-4525
p3268
aVCXF-4524
p3269
aVCXF-4523
p3270
aVCXF-4522
p3271
aVCXF-4521
p3272
aVCXF-4520
p3273
aVCXF-4519
p3274
aVCXF-4518
p3275
aVCXF-4517
p3276
aVCXF-4516
p3277
aVCXF-4515
p3278
aVCXF-4514
p3279
aVCXF-4513
p3280
aVCXF-4512
p3281
aVCXF-4511
p3282
aVCXF-4510
p3283
aVCXF-4509
p3284
aVCXF-4508
p3285
aVCXF-4507
p3286
aVCXF-4506
p3287
aVCXF-4505
p3288
aVCXF-4504
p3289
aVCXF-4503
p3290
aVCXF-4502
p3291
aVCXF-4501
p3292
aVCXF-4500
p3293
aVCXF-4499
p3294
aVCXF-4498
p3295
aVCXF-4497
p3296
aVCXF-4496
p3297
aVCXF-4495
p3298
aVCXF-4494
p3299
aVCXF-4493
p3300
aVCXF-4492
p3301
aVCXF-4491
p3302
aVCXF-4490
p3303
aVCXF-4489
p3304
aVCXF-4488
p3305
aVCXF-4487
p3306
aVCXF-4486
p3307
aVCXF-4485
p3308
aVCXF-4484
p3309
aVCXF-4483
p3310
aVCXF-4482
p3311
aVCXF-4481
p3312
aVCXF-4480
p3313
aVCXF-4479
p3314
aVCXF-4478
p3315
aVCXF-4477
p3316
aVCXF-4476
p3317
aVCXF-4475
p3318
aVCXF-4474
p3319
aVCXF-4473
p3320
aVCXF-4471
p3321
aVCXF-4470
p3322
aVCXF-4469
p3323
aVCXF-4468
p3324
aVCXF-4464
p3325
aVCXF-4463
p3326
aVCXF-4462
p3327
aVCXF-4461
p3328
aVCXF-4460
p3329
aVCXF-4459
p3330
aVCXF-4458
p3331
aVCXF-4457
p3332
aVCXF-4456
p3333
aVCXF-4455
p3334
aVCXF-4454
p3335
aVCXF-4453
p3336
aVCXF-4452
p3337
aVCXF-4451
p3338
aVCXF-4450
p3339
aVCXF-4449
p3340
aVCXF-4448
p3341
aVCXF-4447
p3342
aVCXF-4446
p3343
aVCXF-4445
p3344
aVCXF-4444
p3345
aVCXF-4443
p3346
aVCXF-4442
p3347
aVCXF-4440
p3348
aVCXF-4439
p3349
aVCXF-4438
p3350
aVCXF-4437
p3351
aVCXF-4436
p3352
aVCXF-4435
p3353
aVCXF-4434
p3354
aVCXF-4433
p3355
aVCXF-4432
p3356
aVCXF-4431
p3357
aVCXF-4430
p3358
aVCXF-4429
p3359
aVCXF-4428
p3360
aVCXF-4427
p3361
aVCXF-4426
p3362
aVCXF-4425
p3363
aVCXF-4424
p3364
aVCXF-4423
p3365
aVCXF-4422
p3366
aVCXF-4421
p3367
aVCXF-4420
p3368
aVCXF-4419
p3369
aVCXF-4418
p3370
aVCXF-4417
p3371
aVCXF-4416
p3372
aVCXF-4415
p3373
aVCXF-4414
p3374
aVCXF-4413
p3375
aVCXF-4412
p3376
aVCXF-4411
p3377
aVCXF-4410
p3378
aVCXF-4409
p3379
aVCXF-4408
p3380
aVCXF-4407
p3381
aVCXF-4406
p3382
aVCXF-4405
p3383
aVCXF-4404
p3384
aVCXF-4403
p3385
aVCXF-4402
p3386
aVCXF-4401
p3387
aVCXF-4400
p3388
aVCXF-4399
p3389
aVCXF-4398
p3390
aVCXF-4397
p3391
aVCXF-4396
p3392
aVCXF-4395
p3393
aVCXF-4394
p3394
aVCXF-4393
p3395
aVCXF-4392
p3396
aVCXF-4391
p3397
aVCXF-4390
p3398
aVCXF-4389
p3399
aVCXF-4388
p3400
aVCXF-4387
p3401
aVCXF-4386
p3402
aVCXF-4385
p3403
aVCXF-4384
p3404
aVCXF-4383
p3405
aVCXF-4382
p3406
aVCXF-4381
p3407
aVCXF-4380
p3408
aVCXF-4379
p3409
aVCXF-4378
p3410
aVCXF-4377
p3411
aVCXF-4376
p3412
aVCXF-4375
p3413
aVCXF-4374
p3414
aVCXF-4373
p3415
aVCXF-4372
p3416
aVCXF-4371
p3417
aVCXF-4370
p3418
aVCXF-4369
p3419
aVCXF-4368
p3420
aVCXF-4367
p3421
aVCXF-4366
p3422
aVCXF-4365
p3423
aVCXF-4364
p3424
aVCXF-4363
p3425
aVCXF-4362
p3426
aVCXF-4361
p3427
aVCXF-4360
p3428
aVCXF-4359
p3429
aVCXF-4358
p3430
aVCXF-4357
p3431
aVCXF-4356
p3432
aVCXF-4355
p3433
aVCXF-4354
p3434
aVCXF-4353
p3435
aVCXF-4352
p3436
aVCXF-4351
p3437
aVCXF-4350
p3438
aVCXF-4349
p3439
aVCXF-4348
p3440
aVCXF-4347
p3441
aVCXF-4346
p3442
aVCXF-4345
p3443
aVCXF-4344
p3444
aVCXF-4343
p3445
aVCXF-4342
p3446
aVCXF-4341
p3447
aVCXF-4340
p3448
aVCXF-4339
p3449
aVCXF-4338
p3450
aVCXF-4337
p3451
aVCXF-4336
p3452
aVCXF-4335
p3453
aVCXF-4334
p3454
aVCXF-4333
p3455
aVCXF-4332
p3456
aVCXF-4331
p3457
aVCXF-4330
p3458
aVCXF-4329
p3459
aVCXF-4328
p3460
aVCXF-4327
p3461
aVCXF-4326
p3462
aVCXF-4325
p3463
aVCXF-4324
p3464
aVCXF-4323
p3465
aVCXF-4322
p3466
aVCXF-4321
p3467
aVCXF-4320
p3468
aVCXF-4319
p3469
aVCXF-4318
p3470
aVCXF-4317
p3471
aVCXF-4316
p3472
aVCXF-4315
p3473
aVCXF-4314
p3474
aVCXF-4313
p3475
aVCXF-4312
p3476
aVCXF-4311
p3477
aVCXF-4310
p3478
aVCXF-4309
p3479
aVCXF-4308
p3480
aVCXF-4307
p3481
aVCXF-4306
p3482
aVCXF-4305
p3483
aVCXF-4304
p3484
aVCXF-4303
p3485
aVCXF-4302
p3486
aVCXF-4301
p3487
aVCXF-4300
p3488
aVCXF-4299
p3489
aVCXF-4298
p3490
aVCXF-4297
p3491
aVCXF-4296
p3492
aVCXF-4295
p3493
aVCXF-4294
p3494
aVCXF-4293
p3495
aVCXF-4292
p3496
aVCXF-4291
p3497
aVCXF-4290
p3498
aVCXF-4289
p3499
aVCXF-4288
p3500
aVCXF-4287
p3501
aVCXF-4286
p3502
aVCXF-4285
p3503
aVCXF-4284
p3504
aVCXF-4283
p3505
aVCXF-4282
p3506
aVCXF-4281
p3507
aVCXF-4280
p3508
aVCXF-4279
p3509
aVCXF-4278
p3510
aVCXF-4277
p3511
aVCXF-4276
p3512
aVCXF-4275
p3513
aVCXF-4274
p3514
aVCXF-4273
p3515
aVCXF-4272
p3516
aVCXF-4271
p3517
aVCXF-4270
p3518
aVCXF-4269
p3519
aVCXF-4268
p3520
aVCXF-4267
p3521
aVCXF-4266
p3522
aVCXF-4265
p3523
aVCXF-4263
p3524
aVCXF-4262
p3525
aVCXF-4261
p3526
aVCXF-4260
p3527
aVCXF-4259
p3528
aVCXF-4258
p3529
aVCXF-4257
p3530
aVCXF-4256
p3531
aVCXF-4255
p3532
aVCXF-4254
p3533
aVCXF-4253
p3534
aVCXF-4252
p3535
aVCXF-4251
p3536
aVCXF-4250
p3537
aVCXF-4249
p3538
aVCXF-4248
p3539
aVCXF-4247
p3540
aVCXF-4246
p3541
aVCXF-4245
p3542
aVCXF-4244
p3543
aVCXF-4243
p3544
aVCXF-4242
p3545
aVCXF-4241
p3546
aVCXF-4240
p3547
aVCXF-4239
p3548
aVCXF-4238
p3549
aVCXF-4237
p3550
aVCXF-4236
p3551
aVCXF-4235
p3552
aVCXF-4234
p3553
aVCXF-4233
p3554
aVCXF-4232
p3555
aVCXF-4231
p3556
aVCXF-4230
p3557
aVCXF-4229
p3558
aVCXF-4228
p3559
aVCXF-4227
p3560
aVCXF-4226
p3561
aVCXF-4225
p3562
aVCXF-4224
p3563
aVCXF-4223
p3564
aVCXF-4222
p3565
aVCXF-4221
p3566
aVCXF-4220
p3567
aVCXF-4219
p3568
aVCXF-4218
p3569
aVCXF-4217
p3570
aVCXF-4216
p3571
aVCXF-4215
p3572
aVCXF-4214
p3573
aVCXF-4213
p3574
aVCXF-4212
p3575
aVCXF-4211
p3576
aVCXF-4210
p3577
aVCXF-4209
p3578
aVCXF-4208
p3579
aVCXF-4207
p3580
aVCXF-4206
p3581
aVCXF-4205
p3582
aVCXF-4204
p3583
aVCXF-4203
p3584
aVCXF-4202
p3585
aVCXF-4201
p3586
aVCXF-4200
p3587
aVCXF-4199
p3588
aVCXF-4198
p3589
aVCXF-4197
p3590
aVCXF-4196
p3591
aVCXF-4195
p3592
aVCXF-4194
p3593
aVCXF-4193
p3594
aVCXF-4192
p3595
aVCXF-4191
p3596
aVCXF-4190
p3597
aVCXF-4189
p3598
aVCXF-4188
p3599
aVCXF-4187
p3600
aVCXF-4186
p3601
aVCXF-4185
p3602
aVCXF-4184
p3603
aVCXF-4183
p3604
aVCXF-4182
p3605
aVCXF-4181
p3606
aVCXF-4180
p3607
aVCXF-4179
p3608
aVCXF-4178
p3609
aVCXF-4177
p3610
aVCXF-4176
p3611
aVCXF-4175
p3612
aVCXF-4173
p3613
aVCXF-4172
p3614
aVCXF-4171
p3615
aVCXF-4170
p3616
aVCXF-4169
p3617
aVCXF-4168
p3618
aVCXF-4167
p3619
aVCXF-4166
p3620
aVCXF-4165
p3621
aVCXF-4164
p3622
aVCXF-4163
p3623
aVCXF-4162
p3624
aVCXF-4161
p3625
aVCXF-4160
p3626
aVCXF-4159
p3627
aVCXF-4158
p3628
aVCXF-4157
p3629
aVCXF-4156
p3630
aVCXF-4155
p3631
aVCXF-4154
p3632
aVCXF-4153
p3633
aVCXF-4152
p3634
aVCXF-4151
p3635
aVCXF-4150
p3636
aVCXF-4149
p3637
aVCXF-4148
p3638
aVCXF-4147
p3639
aVCXF-4146
p3640
aVCXF-4145
p3641
aVCXF-4144
p3642
aVCXF-4143
p3643
aVCXF-4142
p3644
aVCXF-4141
p3645
aVCXF-4140
p3646
aVCXF-4139
p3647
aVCXF-4138
p3648
aVCXF-4137
p3649
aVCXF-4136
p3650
aVCXF-4135
p3651
aVCXF-4134
p3652
aVCXF-4133
p3653
aVCXF-4132
p3654
aVCXF-4131
p3655
aVCXF-4130
p3656
aVCXF-4129
p3657
aVCXF-4128
p3658
aVCXF-4127
p3659
aVCXF-4126
p3660
aVCXF-4125
p3661
aVCXF-4124
p3662
aVCXF-4123
p3663
aVCXF-4122
p3664
aVCXF-4121
p3665
aVCXF-4120
p3666
aVCXF-4119
p3667
aVCXF-4118
p3668
aVCXF-4117
p3669
aVCXF-4116
p3670
aVCXF-4115
p3671
aVCXF-4114
p3672
aVCXF-4113
p3673
aVCXF-4112
p3674
aVCXF-4111
p3675
aVCXF-4110
p3676
aVCXF-4109
p3677
aVCXF-4108
p3678
aVCXF-4107
p3679
aVCXF-4106
p3680
aVCXF-4105
p3681
aVCXF-4104
p3682
aVCXF-4103
p3683
aVCXF-4102
p3684
aVCXF-4101
p3685
aVCXF-4100
p3686
aVCXF-4099
p3687
aVCXF-4098
p3688
aVCXF-4097
p3689
aVCXF-4096
p3690
aVCXF-4095
p3691
aVCXF-4094
p3692
aVCXF-4093
p3693
aVCXF-4092
p3694
aVCXF-4091
p3695
aVCXF-4090
p3696
aVCXF-4089
p3697
aVCXF-4088
p3698
aVCXF-4087
p3699
aVCXF-4086
p3700
aVCXF-4085
p3701
aVCXF-4084
p3702
aVCXF-4083
p3703
aVCXF-4082
p3704
aVCXF-4081
p3705
aVCXF-4080
p3706
aVCXF-4079
p3707
aVCXF-4078
p3708
aVCXF-4077
p3709
aVCXF-4076
p3710
aVCXF-4075
p3711
aVCXF-4074
p3712
aVCXF-4073
p3713
aVCXF-4072
p3714
aVCXF-4071
p3715
aVCXF-4070
p3716
aVCXF-4069
p3717
aVCXF-4068
p3718
aVCXF-4067
p3719
aVCXF-4066
p3720
aVCXF-4065
p3721
aVCXF-4064
p3722
aVCXF-4063
p3723
aVCXF-4062
p3724
aVCXF-4061
p3725
aVCXF-4060
p3726
aVCXF-4059
p3727
aVCXF-4058
p3728
aVCXF-4057
p3729
aVCXF-4056
p3730
aVCXF-4055
p3731
aVCXF-4054
p3732
aVCXF-4053
p3733
aVCXF-4052
p3734
aVCXF-4051
p3735
aVCXF-4050
p3736
aVCXF-4049
p3737
aVCXF-4048
p3738
aVCXF-4047
p3739
aVCXF-4046
p3740
aVCXF-4045
p3741
aVCXF-4044
p3742
aVCXF-4043
p3743
aVCXF-4042
p3744
aVCXF-4041
p3745
aVCXF-4040
p3746
aVCXF-4039
p3747
aVCXF-4038
p3748
aVCXF-4037
p3749
aVCXF-4036
p3750
aVCXF-4034
p3751
aVCXF-4033
p3752
aVCXF-4032
p3753
aVCXF-4031
p3754
aVCXF-4030
p3755
aVCXF-4029
p3756
aVCXF-4028
p3757
aVCXF-4027
p3758
aVCXF-4026
p3759
aVCXF-4025
p3760
aVCXF-4024
p3761
aVCXF-4023
p3762
aVCXF-4022
p3763
aVCXF-4021
p3764
aVCXF-4020
p3765
aVCXF-4019
p3766
aVCXF-4018
p3767
aVCXF-4017
p3768
aVCXF-4016
p3769
aVCXF-4015
p3770
aVCXF-4014
p3771
aVCXF-4013
p3772
aVCXF-4012
p3773
aVCXF-4011
p3774
aVCXF-4010
p3775
aVCXF-4009
p3776
aVCXF-4008
p3777
aVCXF-4007
p3778
aVCXF-4006
p3779
aVCXF-4005
p3780
aVCXF-4004
p3781
aVCXF-4003
p3782
aVCXF-4002
p3783
aVCXF-4001
p3784
aVCXF-4000
p3785
aVCXF-3999
p3786
aVCXF-3998
p3787
aVCXF-3997
p3788
aVCXF-3996
p3789
aVCXF-3995
p3790
aVCXF-3994
p3791
aVCXF-3993
p3792
aVCXF-3992
p3793
aVCXF-3991
p3794
aVCXF-3990
p3795
aVCXF-3989
p3796
aVCXF-3988
p3797
aVCXF-3987
p3798
aVCXF-3986
p3799
aVCXF-3985
p3800
aVCXF-3984
p3801
aVCXF-3983
p3802
aVCXF-3982
p3803
aVCXF-3981
p3804
aVCXF-3980
p3805
aVCXF-3979
p3806
aVCXF-3978
p3807
aVCXF-3977
p3808
aVCXF-3976
p3809
aVCXF-3975
p3810
aVCXF-3974
p3811
aVCXF-3973
p3812
aVCXF-3972
p3813
aVCXF-3971
p3814
aVCXF-3970
p3815
aVCXF-3969
p3816
aVCXF-3968
p3817
aVCXF-3967
p3818
aVCXF-3966
p3819
aVCXF-3965
p3820
aVCXF-3964
p3821
aVCXF-3963
p3822
aVCXF-3962
p3823
aVCXF-3961
p3824
aVCXF-3960
p3825
aVCXF-3959
p3826
aVCXF-3958
p3827
aVCXF-3957
p3828
aVCXF-3956
p3829
aVCXF-3955
p3830
aVCXF-3954
p3831
aVCXF-3953
p3832
aVCXF-3952
p3833
aVCXF-3951
p3834
aVCXF-3950
p3835
aVCXF-3949
p3836
aVCXF-3948
p3837
aVCXF-3947
p3838
aVCXF-3946
p3839
aVCXF-3945
p3840
aVCXF-3944
p3841
aVCXF-3943
p3842
aVCXF-3942
p3843
aVCXF-3941
p3844
aVCXF-3940
p3845
aVCXF-3939
p3846
aVCXF-3938
p3847
aVCXF-3937
p3848
aVCXF-3936
p3849
aVCXF-3935
p3850
aVCXF-3934
p3851
aVCXF-3933
p3852
aVCXF-3932
p3853
aVCXF-3931
p3854
aVCXF-3930
p3855
aVCXF-3929
p3856
aVCXF-3928
p3857
aVCXF-3927
p3858
aVCXF-3926
p3859
aVCXF-3925
p3860
aVCXF-3924
p3861
aVCXF-3923
p3862
aVCXF-3922
p3863
aVCXF-3921
p3864
aVCXF-3920
p3865
aVCXF-3919
p3866
aVCXF-3918
p3867
aVCXF-3917
p3868
aVCXF-3916
p3869
aVCXF-3915
p3870
aVCXF-3914
p3871
aVCXF-3913
p3872
aVCXF-3912
p3873
aVCXF-3911
p3874
aVCXF-3910
p3875
aVCXF-3909
p3876
aVCXF-3908
p3877
aVCXF-3907
p3878
aVCXF-3906
p3879
aVCXF-3905
p3880
aVCXF-3904
p3881
aVCXF-3903
p3882
aVCXF-3902
p3883
aVCXF-3901
p3884
aVCXF-3900
p3885
aVCXF-3899
p3886
aVCXF-3898
p3887
aVCXF-3897
p3888
aVCXF-3896
p3889
aVCXF-3895
p3890
aVCXF-3894
p3891
aVCXF-3893
p3892
aVCXF-3892
p3893
aVCXF-3891
p3894
aVCXF-3890
p3895
aVCXF-3889
p3896
aVCXF-3888
p3897
aVCXF-3887
p3898
aVCXF-3886
p3899
aVCXF-3885
p3900
aVCXF-3884
p3901
aVCXF-3883
p3902
aVCXF-3882
p3903
aVCXF-3881
p3904
aVCXF-3880
p3905
aVCXF-3879
p3906
aVCXF-3878
p3907
aVCXF-3877
p3908
aVCXF-3876
p3909
aVCXF-3875
p3910
aVCXF-3874
p3911
aVCXF-3873
p3912
aVCXF-3872
p3913
aVCXF-3871
p3914
aVCXF-3870
p3915
aVCXF-3869
p3916
aVCXF-3868
p3917
aVCXF-3867
p3918
aVCXF-3866
p3919
aVCXF-3865
p3920
aVCXF-3864
p3921
aVCXF-3863
p3922
aVCXF-3862
p3923
aVCXF-3861
p3924
aVCXF-3860
p3925
aVCXF-3859
p3926
aVCXF-3858
p3927
aVCXF-3857
p3928
aVCXF-3856
p3929
aVCXF-3855
p3930
aVCXF-3854
p3931
aVCXF-3853
p3932
aVCXF-3852
p3933
aVCXF-3851
p3934
aVCXF-3850
p3935
aVCXF-3849
p3936
aVCXF-3848
p3937
aVCXF-3847
p3938
aVCXF-3846
p3939
aVCXF-3845
p3940
aVCXF-3844
p3941
aVCXF-3843
p3942
aVCXF-3842
p3943
aVCXF-3841
p3944
aVCXF-3840
p3945
aVCXF-3839
p3946
aVCXF-3838
p3947
aVCXF-3837
p3948
aVCXF-3836
p3949
aVCXF-3835
p3950
aVCXF-3834
p3951
aVCXF-3833
p3952
aVCXF-3832
p3953
aVCXF-3831
p3954
aVCXF-3830
p3955
aVCXF-3829
p3956
aVCXF-3828
p3957
aVCXF-3827
p3958
aVCXF-3826
p3959
aVCXF-3825
p3960
aVCXF-3824
p3961
aVCXF-3823
p3962
aVCXF-3822
p3963
aVCXF-3821
p3964
aVCXF-3820
p3965
aVCXF-3819
p3966
aVCXF-3818
p3967
aVCXF-3817
p3968
aVCXF-3816
p3969
aVCXF-3815
p3970
aVCXF-3814
p3971
aVCXF-3813
p3972
aVCXF-3812
p3973
aVCXF-3811
p3974
aVCXF-3810
p3975
aVCXF-3809
p3976
aVCXF-3808
p3977
aVCXF-3807
p3978
aVCXF-3806
p3979
aVCXF-3805
p3980
aVCXF-3804
p3981
aVCXF-3803
p3982
aVCXF-3802
p3983
aVCXF-3801
p3984
aVCXF-3800
p3985
aVCXF-3799
p3986
aVCXF-3798
p3987
aVCXF-3797
p3988
aVCXF-3796
p3989
aVCXF-3795
p3990
aVCXF-3794
p3991
aVCXF-3793
p3992
aVCXF-3792
p3993
aVCXF-3791
p3994
aVCXF-3790
p3995
aVCXF-3789
p3996
aVCXF-3788
p3997
aVCXF-3787
p3998
aVCXF-3786
p3999
aVCXF-3785
p4000
aVCXF-3784
p4001
aVCXF-3783
p4002
aVCXF-3782
p4003
aVCXF-3781
p4004
aVCXF-3780
p4005
aVCXF-3779
p4006
aVCXF-3778
p4007
aVCXF-3777
p4008
aVCXF-3776
p4009
aVCXF-3775
p4010
aVCXF-3774
p4011
aVCXF-3773
p4012
aVCXF-3772
p4013
aVCXF-3771
p4014
aVCXF-3770
p4015
aVCXF-3769
p4016
aVCXF-3768
p4017
aVCXF-3767
p4018
aVCXF-3766
p4019
aVCXF-3765
p4020
aVCXF-3764
p4021
aVCXF-3763
p4022
aVCXF-3762
p4023
aVCXF-3761
p4024
aVCXF-3760
p4025
aVCXF-3759
p4026
aVCXF-3758
p4027
aVCXF-3757
p4028
aVCXF-3756
p4029
aVCXF-3755
p4030
aVCXF-3754
p4031
aVCXF-3753
p4032
aVCXF-3752
p4033
aVCXF-3751
p4034
aVCXF-3750
p4035
aVCXF-3749
p4036
aVCXF-3748
p4037
aVCXF-3747
p4038
aVCXF-3746
p4039
aVCXF-3745
p4040
aVCXF-3744
p4041
aVCXF-3743
p4042
aVCXF-3742
p4043
aVCXF-3741
p4044
aVCXF-3740
p4045
aVCXF-3739
p4046
aVCXF-3738
p4047
aVCXF-3737
p4048
aVCXF-3736
p4049
aVCXF-3735
p4050
aVCXF-3734
p4051
aVCXF-3733
p4052
aVCXF-3732
p4053
aVCXF-3731
p4054
aVCXF-3730
p4055
aVCXF-3729
p4056
aVCXF-3728
p4057
aVCXF-3727
p4058
aVCXF-3726
p4059
aVCXF-3725
p4060
aVCXF-3724
p4061
aVCXF-3723
p4062
aVCXF-3722
p4063
aVCXF-3721
p4064
aVCXF-3720
p4065
aVCXF-3719
p4066
aVCXF-3718
p4067
aVCXF-3717
p4068
aVCXF-3716
p4069
aVCXF-3715
p4070
aVCXF-3714
p4071
aVCXF-3713
p4072
aVCXF-3712
p4073
aVCXF-3711
p4074
aVCXF-3710
p4075
aVCXF-3709
p4076
aVCXF-3708
p4077
aVCXF-3707
p4078
aVCXF-3706
p4079
aVCXF-3705
p4080
aVCXF-3704
p4081
aVCXF-3703
p4082
aVCXF-3702
p4083
aVCXF-3701
p4084
aVCXF-3700
p4085
aVCXF-3699
p4086
aVCXF-3698
p4087
aVCXF-3697
p4088
aVCXF-3696
p4089
aVCXF-3695
p4090
aVCXF-3694
p4091
aVCXF-3693
p4092
aVCXF-3692
p4093
aVCXF-3691
p4094
aVCXF-3690
p4095
aVCXF-3689
p4096
aVCXF-3688
p4097
aVCXF-3687
p4098
aVCXF-3686
p4099
aVCXF-3685
p4100
aVCXF-3684
p4101
aVCXF-3683
p4102
aVCXF-3682
p4103
aVCXF-3681
p4104
aVCXF-3680
p4105
aVCXF-3679
p4106
aVCXF-3678
p4107
aVCXF-3677
p4108
aVCXF-3676
p4109
aVCXF-3675
p4110
aVCXF-3674
p4111
aVCXF-3673
p4112
aVCXF-3672
p4113
aVCXF-3671
p4114
aVCXF-3670
p4115
aVCXF-3669
p4116
aVCXF-3668
p4117
aVCXF-3667
p4118
aVCXF-3666
p4119
aVCXF-3665
p4120
aVCXF-3664
p4121
aVCXF-3663
p4122
aVCXF-3662
p4123
aVCXF-3661
p4124
aVCXF-3660
p4125
aVCXF-3659
p4126
aVCXF-3658
p4127
aVCXF-3657
p4128
aVCXF-3656
p4129
aVCXF-3655
p4130
aVCXF-3654
p4131
aVCXF-3653
p4132
aVCXF-3652
p4133
aVCXF-3651
p4134
aVCXF-3650
p4135
aVCXF-3649
p4136
aVCXF-3648
p4137
aVCXF-3647
p4138
aVCXF-3646
p4139
aVCXF-3645
p4140
aVCXF-3644
p4141
aVCXF-3643
p4142
aVCXF-3642
p4143
aVCXF-3641
p4144
aVCXF-3640
p4145
aVCXF-3639
p4146
aVCXF-3638
p4147
aVCXF-3637
p4148
aVCXF-3636
p4149
aVCXF-3635
p4150
aVCXF-3634
p4151
aVCXF-3633
p4152
aVCXF-3632
p4153
aVCXF-3631
p4154
aVCXF-3630
p4155
aVCXF-3629
p4156
aVCXF-3628
p4157
aVCXF-3627
p4158
aVCXF-3626
p4159
aVCXF-3625
p4160
aVCXF-3624
p4161
aVCXF-3623
p4162
aVCXF-3622
p4163
aVCXF-3621
p4164
aVCXF-3620
p4165
aVCXF-3619
p4166
aVCXF-3618
p4167
aVCXF-3617
p4168
aVCXF-3616
p4169
aVCXF-3615
p4170
aVCXF-3614
p4171
aVCXF-3613
p4172
aVCXF-3612
p4173
aVCXF-3611
p4174
aVCXF-3610
p4175
aVCXF-3609
p4176
aVCXF-3608
p4177
aVCXF-3607
p4178
aVCXF-3606
p4179
aVCXF-3605
p4180
aVCXF-3604
p4181
aVCXF-3603
p4182
aVCXF-3602
p4183
aVCXF-3601
p4184
aVCXF-3600
p4185
aVCXF-3599
p4186
aVCXF-3598
p4187
aVCXF-3597
p4188
aVCXF-3596
p4189
aVCXF-3595
p4190
aVCXF-3594
p4191
aVCXF-3593
p4192
aVCXF-3592
p4193
aVCXF-3591
p4194
aVCXF-3590
p4195
aVCXF-3589
p4196
aVCXF-3588
p4197
aVCXF-3587
p4198
aVCXF-3586
p4199
aVCXF-3585
p4200
aVCXF-3584
p4201
aVCXF-3583
p4202
aVCXF-3582
p4203
aVCXF-3581
p4204
aVCXF-3580
p4205
aVCXF-3579
p4206
aVCXF-3578
p4207
aVCXF-3577
p4208
aVCXF-3576
p4209
aVCXF-3575
p4210
aVCXF-3574
p4211
aVCXF-3573
p4212
aVCXF-3572
p4213
aVCXF-3571
p4214
aVCXF-3570
p4215
aVCXF-3569
p4216
aVCXF-3568
p4217
aVCXF-3567
p4218
aVCXF-3566
p4219
aVCXF-3565
p4220
aVCXF-3564
p4221
aVCXF-3563
p4222
aVCXF-3562
p4223
aVCXF-3561
p4224
aVCXF-3560
p4225
aVCXF-3559
p4226
aVCXF-3558
p4227
aVCXF-3557
p4228
aVCXF-3556
p4229
aVCXF-3555
p4230
aVCXF-3554
p4231
aVCXF-3553
p4232
aVCXF-3552
p4233
aVCXF-3551
p4234
aVCXF-3550
p4235
aVCXF-3549
p4236
aVCXF-3548
p4237
aVCXF-3547
p4238
aVCXF-3546
p4239
aVCXF-3545
p4240
aVCXF-3544
p4241
aVCXF-3543
p4242
aVCXF-3542
p4243
aVCXF-3541
p4244
aVCXF-3540
p4245
aVCXF-3539
p4246
aVCXF-3538
p4247
aVCXF-3537
p4248
aVCXF-3536
p4249
aVCXF-3535
p4250
aVCXF-3534
p4251
aVCXF-3532
p4252
aVCXF-3531
p4253
aVCXF-3530
p4254
aVCXF-3529
p4255
aVCXF-3528
p4256
aVCXF-3527
p4257
aVCXF-3526
p4258
aVCXF-3525
p4259
aVCXF-3524
p4260
aVCXF-3523
p4261
aVCXF-3522
p4262
aVCXF-3521
p4263
aVCXF-3520
p4264
aVCXF-3519
p4265
aVCXF-3518
p4266
aVCXF-3517
p4267
aVCXF-3516
p4268
aVCXF-3515
p4269
aVCXF-3514
p4270
aVCXF-3513
p4271
aVCXF-3512
p4272
aVCXF-3511
p4273
aVCXF-3510
p4274
aVCXF-3509
p4275
aVCXF-3508
p4276
aVCXF-3507
p4277
aVCXF-3506
p4278
aVCXF-3505
p4279
aVCXF-3504
p4280
aVCXF-3503
p4281
aVCXF-3502
p4282
aVCXF-3501
p4283
aVCXF-3500
p4284
aVCXF-3499
p4285
aVCXF-3498
p4286
aVCXF-3497
p4287
aVCXF-3496
p4288
aVCXF-3495
p4289
aVCXF-3494
p4290
aVCXF-3493
p4291
aVCXF-3492
p4292
aVCXF-3491
p4293
aVCXF-3490
p4294
aVCXF-3489
p4295
aVCXF-3488
p4296
aVCXF-3487
p4297
aVCXF-3486
p4298
aVCXF-3485
p4299
aVCXF-3484
p4300
aVCXF-3483
p4301
aVCXF-3482
p4302
aVCXF-3481
p4303
aVCXF-3480
p4304
aVCXF-3479
p4305
aVCXF-3478
p4306
aVCXF-3477
p4307
aVCXF-3476
p4308
aVCXF-3475
p4309
aVCXF-3474
p4310
aVCXF-3473
p4311
aVCXF-3472
p4312
aVCXF-3471
p4313
aVCXF-3470
p4314
aVCXF-3469
p4315
aVCXF-3468
p4316
aVCXF-3467
p4317
aVCXF-3466
p4318
aVCXF-3465
p4319
aVCXF-3464
p4320
aVCXF-3463
p4321
aVCXF-3462
p4322
aVCXF-3461
p4323
aVCXF-3460
p4324
aVCXF-3459
p4325
aVCXF-3458
p4326
aVCXF-3457
p4327
aVCXF-3456
p4328
aVCXF-3455
p4329
aVCXF-3454
p4330
aVCXF-3453
p4331
aVCXF-3452
p4332
aVCXF-3451
p4333
aVCXF-3450
p4334
aVCXF-3449
p4335
aVCXF-3448
p4336
aVCXF-3447
p4337
aVCXF-3446
p4338
aVCXF-3445
p4339
aVCXF-3444
p4340
aVCXF-3443
p4341
aVCXF-3442
p4342
aVCXF-3441
p4343
aVCXF-3440
p4344
aVCXF-3439
p4345
aVCXF-3438
p4346
aVCXF-3437
p4347
aVCXF-3436
p4348
aVCXF-3435
p4349
aVCXF-3434
p4350
aVCXF-3433
p4351
aVCXF-3432
p4352
aVCXF-3431
p4353
aVCXF-3430
p4354
aVCXF-3429
p4355
aVCXF-3428
p4356
aVCXF-3427
p4357
aVCXF-3426
p4358
aVCXF-3425
p4359
aVCXF-3424
p4360
aVCXF-3423
p4361
aVCXF-3422
p4362
aVCXF-3421
p4363
aVCXF-3420
p4364
aVCXF-3419
p4365
aVCXF-3418
p4366
aVCXF-3417
p4367
aVCXF-3416
p4368
aVCXF-3415
p4369
aVCXF-3414
p4370
aVCXF-3413
p4371
aVCXF-3412
p4372
aVCXF-3411
p4373
aVCXF-3410
p4374
aVCXF-3409
p4375
aVCXF-3408
p4376
aVCXF-3407
p4377
aVCXF-3406
p4378
aVCXF-3405
p4379
aVCXF-3404
p4380
aVCXF-3403
p4381
aVCXF-3402
p4382
aVCXF-3401
p4383
aVCXF-3400
p4384
aVCXF-3399
p4385
aVCXF-3398
p4386
aVCXF-3397
p4387
aVCXF-3396
p4388
aVCXF-3395
p4389
aVCXF-3394
p4390
aVCXF-3393
p4391
aVCXF-3392
p4392
aVCXF-3391
p4393
aVCXF-3390
p4394
aVCXF-3389
p4395
aVCXF-3388
p4396
aVCXF-3387
p4397
aVCXF-3386
p4398
aVCXF-3385
p4399
aVCXF-3384
p4400
aVCXF-3383
p4401
aVCXF-3382
p4402
aVCXF-3381
p4403
aVCXF-3380
p4404
aVCXF-3379
p4405
aVCXF-3378
p4406
aVCXF-3377
p4407
aVCXF-3376
p4408
aVCXF-3375
p4409
aVCXF-3374
p4410
aVCXF-3373
p4411
aVCXF-3372
p4412
aVCXF-3371
p4413
aVCXF-3370
p4414
aVCXF-3369
p4415
aVCXF-3368
p4416
aVCXF-3367
p4417
aVCXF-3366
p4418
aVCXF-3365
p4419
aVCXF-3364
p4420
aVCXF-3363
p4421
aVCXF-3362
p4422
aVCXF-3361
p4423
aVCXF-3360
p4424
aVCXF-3359
p4425
aVCXF-3358
p4426
aVCXF-3357
p4427
aVCXF-3356
p4428
aVCXF-3355
p4429
aVCXF-3354
p4430
aVCXF-3353
p4431
aVCXF-3352
p4432
aVCXF-3351
p4433
aVCXF-3350
p4434
aVCXF-3349
p4435
aVCXF-3348
p4436
aVCXF-3347
p4437
aVCXF-3346
p4438
aVCXF-3345
p4439
aVCXF-3344
p4440
aVCXF-3342
p4441
aVCXF-3341
p4442
aVCXF-3340
p4443
aVCXF-3339
p4444
aVCXF-3338
p4445
aVCXF-3337
p4446
aVCXF-3336
p4447
aVCXF-3335
p4448
aVCXF-3334
p4449
aVCXF-3333
p4450
aVCXF-3332
p4451
aVCXF-3331
p4452
aVCXF-3330
p4453
aVCXF-3329
p4454
aVCXF-3328
p4455
aVCXF-3327
p4456
aVCXF-3326
p4457
aVCXF-3325
p4458
aVCXF-3324
p4459
aVCXF-3323
p4460
aVCXF-3322
p4461
aVCXF-3321
p4462
aVCXF-3320
p4463
aVCXF-3319
p4464
aVCXF-3318
p4465
aVCXF-3317
p4466
aVCXF-3316
p4467
aVCXF-3315
p4468
aVCXF-3314
p4469
aVCXF-3313
p4470
aVCXF-3312
p4471
aVCXF-3311
p4472
aVCXF-3310
p4473
aVCXF-3309
p4474
aVCXF-3308
p4475
aVCXF-3307
p4476
aVCXF-3306
p4477
aVCXF-3305
p4478
aVCXF-3304
p4479
aVCXF-3303
p4480
aVCXF-3302
p4481
aVCXF-3301
p4482
aVCXF-3300
p4483
aVCXF-3299
p4484
aVCXF-3298
p4485
aVCXF-3297
p4486
aVCXF-3296
p4487
aVCXF-3295
p4488
aVCXF-3294
p4489
aVCXF-3293
p4490
aVCXF-3292
p4491
aVCXF-3291
p4492
aVCXF-3290
p4493
aVCXF-3289
p4494
aVCXF-3288
p4495
aVCXF-3287
p4496
aVCXF-3286
p4497
aVCXF-3285
p4498
aVCXF-3284
p4499
aVCXF-3283
p4500
aVCXF-3282
p4501
aVCXF-3281
p4502
aVCXF-3280
p4503
aVCXF-3279
p4504
aVCXF-3278
p4505
aVCXF-3277
p4506
aVCXF-3276
p4507
aVCXF-3275
p4508
aVCXF-3274
p4509
aVCXF-3273
p4510
aVCXF-3272
p4511
aVCXF-3271
p4512
aVCXF-3270
p4513
aVCXF-3269
p4514
aVCXF-3268
p4515
aVCXF-3267
p4516
aVCXF-3266
p4517
aVCXF-3265
p4518
aVCXF-3264
p4519
aVCXF-3263
p4520
aVCXF-3262
p4521
aVCXF-3261
p4522
aVCXF-3260
p4523
aVCXF-3259
p4524
aVCXF-3258
p4525
aVCXF-3257
p4526
aVCXF-3256
p4527
aVCXF-3255
p4528
aVCXF-3254
p4529
aVCXF-3253
p4530
aVCXF-3252
p4531
aVCXF-3250
p4532
aVCXF-3249
p4533
aVCXF-3248
p4534
aVCXF-3247
p4535
aVCXF-3246
p4536
aVCXF-3245
p4537
aVCXF-3244
p4538
aVCXF-3243
p4539
aVCXF-3242
p4540
aVCXF-3241
p4541
aVCXF-3240
p4542
aVCXF-3239
p4543
aVCXF-3238
p4544
aVCXF-3237
p4545
aVCXF-3236
p4546
aVCXF-3235
p4547
aVCXF-3234
p4548
aVCXF-3233
p4549
aVCXF-3232
p4550
aVCXF-3231
p4551
aVCXF-3230
p4552
aVCXF-3229
p4553
aVCXF-3228
p4554
aVCXF-3227
p4555
aVCXF-3226
p4556
aVCXF-3225
p4557
aVCXF-3224
p4558
aVCXF-3223
p4559
aVCXF-3222
p4560
aVCXF-3221
p4561
aVCXF-3220
p4562
aVCXF-3219
p4563
aVCXF-3218
p4564
aVCXF-3217
p4565
aVCXF-3216
p4566
aVCXF-3215
p4567
aVCXF-3214
p4568
aVCXF-3213
p4569
aVCXF-3212
p4570
aVCXF-3211
p4571
aVCXF-3210
p4572
aVCXF-3209
p4573
aVCXF-3208
p4574
aVCXF-3207
p4575
aVCXF-3206
p4576
aVCXF-3205
p4577
aVCXF-3204
p4578
aVCXF-3203
p4579
aVCXF-3202
p4580
aVCXF-3201
p4581
aVCXF-3200
p4582
aVCXF-3199
p4583
aVCXF-3198
p4584
aVCXF-3197
p4585
aVCXF-3196
p4586
aVCXF-3195
p4587
aVCXF-3194
p4588
aVCXF-3193
p4589
aVCXF-3192
p4590
aVCXF-3191
p4591
aVCXF-3190
p4592
aVCXF-3189
p4593
aVCXF-3188
p4594
aVCXF-3187
p4595
aVCXF-3186
p4596
aVCXF-3185
p4597
aVCXF-3184
p4598
aVCXF-3183
p4599
aVCXF-3182
p4600
aVCXF-3181
p4601
aVCXF-3180
p4602
aVCXF-3179
p4603
aVCXF-3178
p4604
aVCXF-3177
p4605
aVCXF-3176
p4606
aVCXF-3175
p4607
aVCXF-3174
p4608
aVCXF-3173
p4609
aVCXF-3172
p4610
aVCXF-3171
p4611
aVCXF-3170
p4612
aVCXF-3169
p4613
aVCXF-3168
p4614
aVCXF-3167
p4615
aVCXF-3166
p4616
aVCXF-3165
p4617
aVCXF-3164
p4618
aVCXF-3163
p4619
aVCXF-3162
p4620
aVCXF-3161
p4621
aVCXF-3160
p4622
aVCXF-3159
p4623
aVCXF-3158
p4624
aVCXF-3157
p4625
aVCXF-3156
p4626
aVCXF-3155
p4627
aVCXF-3154
p4628
aVCXF-3153
p4629
aVCXF-3152
p4630
aVCXF-3151
p4631
aVCXF-3150
p4632
aVCXF-3149
p4633
aVCXF-3148
p4634
aVCXF-3147
p4635
aVCXF-3146
p4636
aVCXF-3145
p4637
aVCXF-3144
p4638
aVCXF-3143
p4639
aVCXF-3142
p4640
aVCXF-3141
p4641
aVCXF-3140
p4642
aVCXF-3139
p4643
aVCXF-3138
p4644
aVCXF-3137
p4645
aVCXF-3136
p4646
aVCXF-3135
p4647
aVCXF-3134
p4648
aVCXF-3133
p4649
aVCXF-3132
p4650
aVCXF-3131
p4651
aVCXF-3130
p4652
aVCXF-3129
p4653
aVCXF-3128
p4654
aVCXF-3127
p4655
aVCXF-3126
p4656
aVCXF-3125
p4657
aVCXF-3124
p4658
aVCXF-3123
p4659
aVCXF-3122
p4660
aVCXF-3121
p4661
aVCXF-3120
p4662
aVCXF-3119
p4663
aVCXF-3118
p4664
aVCXF-3117
p4665
aVCXF-3116
p4666
aVCXF-3115
p4667
aVCXF-3114
p4668
aVCXF-3113
p4669
aVCXF-3112
p4670
aVCXF-3111
p4671
aVCXF-3110
p4672
aVCXF-3109
p4673
aVCXF-3108
p4674
aVCXF-3107
p4675
aVCXF-3106
p4676
aVCXF-3105
p4677
aVCXF-3104
p4678
aVCXF-3102
p4679
aVCXF-3101
p4680
aVCXF-3100
p4681
aVCXF-3099
p4682
aVCXF-3098
p4683
aVCXF-3097
p4684
aVCXF-3096
p4685
aVCXF-3095
p4686
aVCXF-3094
p4687
aVCXF-3093
p4688
aVCXF-3092
p4689
aVCXF-3091
p4690
aVCXF-3090
p4691
aVCXF-3089
p4692
aVCXF-3088
p4693
aVCXF-3087
p4694
aVCXF-3086
p4695
aVCXF-3085
p4696
aVCXF-3084
p4697
aVCXF-3083
p4698
aVCXF-3082
p4699
aVCXF-3081
p4700
aVCXF-3080
p4701
aVCXF-3079
p4702
aVCXF-3078
p4703
aVCXF-3077
p4704
aVCXF-3076
p4705
aVCXF-3075
p4706
aVCXF-3074
p4707
aVCXF-3073
p4708
aVCXF-3072
p4709
aVCXF-3071
p4710
aVCXF-3070
p4711
aVCXF-3069
p4712
aVCXF-3068
p4713
aVCXF-3067
p4714
aVCXF-3066
p4715
aVCXF-3065
p4716
aVCXF-3064
p4717
aVCXF-3063
p4718
aVCXF-3062
p4719
aVCXF-3061
p4720
aVCXF-3060
p4721
aVCXF-3059
p4722
aVCXF-3058
p4723
aVCXF-3057
p4724
aVCXF-3056
p4725
aVCXF-3055
p4726
aVCXF-3054
p4727
aVCXF-3053
p4728
aVCXF-3052
p4729
aVCXF-3051
p4730
aVCXF-3050
p4731
aVCXF-3049
p4732
aVCXF-3048
p4733
aVCXF-3047
p4734
aVCXF-3046
p4735
aVCXF-3045
p4736
aVCXF-3044
p4737
aVCXF-3043
p4738
aVCXF-3042
p4739
aVCXF-3041
p4740
aVCXF-3040
p4741
aVCXF-3039
p4742
aVCXF-3038
p4743
aVCXF-3037
p4744
aVCXF-3036
p4745
aVCXF-3035
p4746
aVCXF-3034
p4747
aVCXF-3033
p4748
aVCXF-3032
p4749
aVCXF-3031
p4750
aVCXF-3030
p4751
aVCXF-3029
p4752
aVCXF-3028
p4753
aVCXF-3027
p4754
aVCXF-3026
p4755
aVCXF-3025
p4756
aVCXF-3024
p4757
aVCXF-3023
p4758
aVCXF-3022
p4759
aVCXF-3021
p4760
aVCXF-3020
p4761
aVCXF-3019
p4762
aVCXF-3018
p4763
aVCXF-3017
p4764
aVCXF-3016
p4765
aVCXF-3015
p4766
aVCXF-3014
p4767
aVCXF-3013
p4768
aVCXF-3012
p4769
aVCXF-3011
p4770
aVCXF-3010
p4771
aVCXF-3009
p4772
aVCXF-3008
p4773
aVCXF-3007
p4774
aVCXF-3006
p4775
aVCXF-3005
p4776
aVCXF-3004
p4777
aVCXF-3003
p4778
aVCXF-3002
p4779
aVCXF-3001
p4780
aVCXF-3000
p4781
aVCXF-2998
p4782
aVCXF-2997
p4783
aVCXF-2996
p4784
aVCXF-2995
p4785
aVCXF-2994
p4786
aVCXF-2993
p4787
aVCXF-2992
p4788
aVCXF-2991
p4789
aVCXF-2990
p4790
aVCXF-2989
p4791
aVCXF-2988
p4792
aVCXF-2987
p4793
aVCXF-2986
p4794
aVCXF-2985
p4795
aVCXF-2984
p4796
aVCXF-2983
p4797
aVCXF-2982
p4798
aVCXF-2981
p4799
aVCXF-2980
p4800
aVCXF-2979
p4801
aVCXF-2978
p4802
aVCXF-2977
p4803
aVCXF-2976
p4804
aVCXF-2975
p4805
aVCXF-2974
p4806
aVCXF-2973
p4807
aVCXF-2972
p4808
aVCXF-2971
p4809
aVCXF-2970
p4810
aVCXF-2969
p4811
aVCXF-2968
p4812
aVCXF-2967
p4813
aVCXF-2966
p4814
aVCXF-2965
p4815
aVCXF-2964
p4816
aVCXF-2963
p4817
aVCXF-2962
p4818
aVCXF-2961
p4819
aVCXF-2959
p4820
aVCXF-2958
p4821
aVCXF-2957
p4822
aVCXF-2956
p4823
aVCXF-2955
p4824
aVCXF-2954
p4825
aVCXF-2953
p4826
aVCXF-2952
p4827
aVCXF-2951
p4828
aVCXF-2950
p4829
aVCXF-2949
p4830
aVCXF-2948
p4831
aVCXF-2947
p4832
aVCXF-2946
p4833
aVCXF-2945
p4834
aVCXF-2944
p4835
aVCXF-2943
p4836
aVCXF-2942
p4837
aVCXF-2941
p4838
aVCXF-2940
p4839
aVCXF-2939
p4840
aVCXF-2938
p4841
aVCXF-2937
p4842
aVCXF-2936
p4843
aVCXF-2935
p4844
aVCXF-2934
p4845
aVCXF-2933
p4846
aVCXF-2932
p4847
aVCXF-2931
p4848
aVCXF-2930
p4849
aVCXF-2929
p4850
aVCXF-2928
p4851
aVCXF-2927
p4852
aVCXF-2926
p4853
aVCXF-2925
p4854
aVCXF-2924
p4855
aVCXF-2923
p4856
aVCXF-2922
p4857
aVCXF-2921
p4858
aVCXF-2920
p4859
aVCXF-2919
p4860
aVCXF-2918
p4861
aVCXF-2917
p4862
aVCXF-2916
p4863
aVCXF-2915
p4864
aVCXF-2914
p4865
aVCXF-2913
p4866
aVCXF-2912
p4867
aVCXF-2911
p4868
aVCXF-2910
p4869
aVCXF-2909
p4870
aVCXF-2908
p4871
aVCXF-2907
p4872
aVCXF-2906
p4873
aVCXF-2905
p4874
aVCXF-2904
p4875
aVCXF-2903
p4876
aVCXF-2902
p4877
aVCXF-2901
p4878
aVCXF-2900
p4879
aVCXF-2899
p4880
aVCXF-2898
p4881
aVCXF-2897
p4882
aVCXF-2896
p4883
aVCXF-2895
p4884
aVCXF-2894
p4885
aVCXF-2893
p4886
aVCXF-2892
p4887
aVCXF-2891
p4888
aVCXF-2890
p4889
aVCXF-2889
p4890
aVCXF-2888
p4891
aVCXF-2887
p4892
aVCXF-2886
p4893
aVCXF-2885
p4894
aVCXF-2884
p4895
aVCXF-2883
p4896
aVCXF-2882
p4897
aVCXF-2881
p4898
aVCXF-2880
p4899
aVCXF-2879
p4900
aVCXF-2878
p4901
aVCXF-2877
p4902
aVCXF-2876
p4903
aVCXF-2875
p4904
aVCXF-2874
p4905
aVCXF-2873
p4906
aVCXF-2872
p4907
aVCXF-2871
p4908
aVCXF-2870
p4909
aVCXF-2869
p4910
aVCXF-2868
p4911
aVCXF-2867
p4912
aVCXF-2866
p4913
aVCXF-2865
p4914
aVCXF-2864
p4915
aVCXF-2863
p4916
aVCXF-2862
p4917
aVCXF-2861
p4918
aVCXF-2860
p4919
aVCXF-2859
p4920
aVCXF-2858
p4921
aVCXF-2857
p4922
aVCXF-2856
p4923
aVCXF-2855
p4924
aVCXF-2854
p4925
aVCXF-2853
p4926
aVCXF-2852
p4927
aVCXF-2851
p4928
aVCXF-2850
p4929
aVCXF-2849
p4930
aVCXF-2848
p4931
aVCXF-2847
p4932
aVCXF-2846
p4933
aVCXF-2845
p4934
aVCXF-2844
p4935
aVCXF-2843
p4936
aVCXF-2842
p4937
aVCXF-2841
p4938
aVCXF-2840
p4939
aVCXF-2839
p4940
aVCXF-2838
p4941
aVCXF-2837
p4942
aVCXF-2836
p4943
aVCXF-2835
p4944
aVCXF-2834
p4945
aVCXF-2833
p4946
aVCXF-2832
p4947
aVCXF-2831
p4948
aVCXF-2830
p4949
aVCXF-2829
p4950
aVCXF-2828
p4951
aVCXF-2827
p4952
aVCXF-2826
p4953
aVCXF-2825
p4954
aVCXF-2824
p4955
aVCXF-2823
p4956
aVCXF-2822
p4957
aVCXF-2821
p4958
aVCXF-2820
p4959
aVCXF-2819
p4960
aVCXF-2818
p4961
aVCXF-2817
p4962
aVCXF-2816
p4963
aVCXF-2815
p4964
aVCXF-2814
p4965
aVCXF-2813
p4966
aVCXF-2812
p4967
aVCXF-2811
p4968
aVCXF-2810
p4969
aVCXF-2809
p4970
aVCXF-2808
p4971
aVCXF-2807
p4972
aVCXF-2806
p4973
aVCXF-2805
p4974
aVCXF-2804
p4975
aVCXF-2803
p4976
aVCXF-2802
p4977
aVCXF-2801
p4978
aVCXF-2800
p4979
aVCXF-2799
p4980
aVCXF-2798
p4981
aVCXF-2797
p4982
aVCXF-2796
p4983
aVCXF-2795
p4984
aVCXF-2794
p4985
aVCXF-2793
p4986
aVCXF-2792
p4987
aVCXF-2791
p4988
aVCXF-2790
p4989
aVCXF-2789
p4990
aVCXF-2788
p4991
aVCXF-2787
p4992
aVCXF-2786
p4993
aVCXF-2785
p4994
aVCXF-2784
p4995
aVCXF-2783
p4996
aVCXF-2782
p4997
aVCXF-2781
p4998
aVCXF-2780
p4999
aVCXF-2779
p5000
aVCXF-2778
p5001
aVCXF-2777
p5002
aVCXF-2776
p5003
aVCXF-2775
p5004
aVCXF-2774
p5005
aVCXF-2773
p5006
aVCXF-2772
p5007
aVCXF-2771
p5008
aVCXF-2770
p5009
aVCXF-2769
p5010
aVCXF-2768
p5011
aVCXF-2767
p5012
aVCXF-2766
p5013
aVCXF-2765
p5014
aVCXF-2764
p5015
aVCXF-2763
p5016
aVCXF-2762
p5017
aVCXF-2761
p5018
aVCXF-2760
p5019
aVCXF-2759
p5020
aVCXF-2758
p5021
aVCXF-2757
p5022
aVCXF-2756
p5023
aVCXF-2755
p5024
aVCXF-2754
p5025
aVCXF-2753
p5026
aVCXF-2752
p5027
aVCXF-2751
p5028
aVCXF-2750
p5029
aVCXF-2749
p5030
aVCXF-2748
p5031
aVCXF-2747
p5032
aVCXF-2746
p5033
aVCXF-2745
p5034
aVCXF-2744
p5035
aVCXF-2743
p5036
aVCXF-2742
p5037
aVCXF-2741
p5038
aVCXF-2740
p5039
aVCXF-2739
p5040
aVCXF-2738
p5041
aVCXF-2737
p5042
aVCXF-2736
p5043
aVCXF-2735
p5044
aVCXF-2734
p5045
aVCXF-2733
p5046
aVCXF-2732
p5047
aVCXF-2731
p5048
aVCXF-2730
p5049
aVCXF-2729
p5050
aVCXF-2728
p5051
aVCXF-2727
p5052
aVCXF-2726
p5053
aVCXF-2725
p5054
aVCXF-2724
p5055
aVCXF-2723
p5056
aVCXF-2722
p5057
aVCXF-2721
p5058
aVCXF-2720
p5059
aVCXF-2719
p5060
aVCXF-2718
p5061
aVCXF-2717
p5062
aVCXF-2716
p5063
aVCXF-2715
p5064
aVCXF-2714
p5065
aVCXF-2713
p5066
aVCXF-2712
p5067
aVCXF-2711
p5068
aVCXF-2710
p5069
aVCXF-2709
p5070
aVCXF-2708
p5071
aVCXF-2707
p5072
aVCXF-2706
p5073
aVCXF-2705
p5074
aVCXF-2704
p5075
aVCXF-2703
p5076
aVCXF-2702
p5077
aVCXF-2701
p5078
aVCXF-2700
p5079
aVCXF-2699
p5080
aVCXF-2698
p5081
aVCXF-2697
p5082
aVCXF-2696
p5083
aVCXF-2695
p5084
aVCXF-2694
p5085
aVCXF-2693
p5086
aVCXF-2692
p5087
aVCXF-2691
p5088
aVCXF-2690
p5089
aVCXF-2689
p5090
aVCXF-2688
p5091
aVCXF-2687
p5092
aVCXF-2686
p5093
aVCXF-2685
p5094
aVCXF-2684
p5095
aVCXF-2683
p5096
aVCXF-2682
p5097
aVCXF-2681
p5098
aVCXF-2680
p5099
aVCXF-2679
p5100
aVCXF-2678
p5101
aVCXF-2677
p5102
aVCXF-2676
p5103
aVCXF-2675
p5104
aVCXF-2674
p5105
aVCXF-2673
p5106
aVCXF-2672
p5107
aVCXF-2671
p5108
aVCXF-2670
p5109
aVCXF-2669
p5110
aVCXF-2668
p5111
aVCXF-2667
p5112
aVCXF-2666
p5113
aVCXF-2665
p5114
aVCXF-2664
p5115
aVCXF-2663
p5116
aVCXF-2662
p5117
aVCXF-2661
p5118
aVCXF-2660
p5119
aVCXF-2659
p5120
aVCXF-2658
p5121
aVCXF-2657
p5122
aVCXF-2656
p5123
aVCXF-2655
p5124
aVCXF-2654
p5125
aVCXF-2653
p5126
aVCXF-2652
p5127
aVCXF-2651
p5128
aVCXF-2650
p5129
aVCXF-2649
p5130
aVCXF-2648
p5131
aVCXF-2647
p5132
aVCXF-2646
p5133
aVCXF-2645
p5134
aVCXF-2644
p5135
aVCXF-2642
p5136
aVCXF-2641
p5137
aVCXF-2640
p5138
aVCXF-2639
p5139
aVCXF-2638
p5140
aVCXF-2637
p5141
aVCXF-2636
p5142
aVCXF-2635
p5143
aVCXF-2634
p5144
aVCXF-2633
p5145
aVCXF-2632
p5146
aVCXF-2631
p5147
aVCXF-2630
p5148
aVCXF-2629
p5149
aVCXF-2628
p5150
aVCXF-2627
p5151
aVCXF-2626
p5152
aVCXF-2625
p5153
aVCXF-2624
p5154
aVCXF-2623
p5155
aVCXF-2622
p5156
aVCXF-2621
p5157
aVCXF-2620
p5158
aVCXF-2619
p5159
aVCXF-2618
p5160
aVCXF-2617
p5161
aVCXF-2616
p5162
aVCXF-2615
p5163
aVCXF-2614
p5164
aVCXF-2613
p5165
aVCXF-2612
p5166
aVCXF-2611
p5167
aVCXF-2610
p5168
aVCXF-2609
p5169
aVCXF-2608
p5170
aVCXF-2607
p5171
aVCXF-2606
p5172
aVCXF-2605
p5173
aVCXF-2604
p5174
aVCXF-2603
p5175
aVCXF-2602
p5176
aVCXF-2601
p5177
aVCXF-2600
p5178
aVCXF-2599
p5179
aVCXF-2598
p5180
aVCXF-2597
p5181
aVCXF-2596
p5182
aVCXF-2595
p5183
aVCXF-2594
p5184
aVCXF-2593
p5185
aVCXF-2592
p5186
aVCXF-2591
p5187
aVCXF-2590
p5188
aVCXF-2589
p5189
aVCXF-2588
p5190
aVCXF-2587
p5191
aVCXF-2586
p5192
aVCXF-2585
p5193
aVCXF-2584
p5194
aVCXF-2583
p5195
aVCXF-2582
p5196
aVCXF-2581
p5197
aVCXF-2579
p5198
aVCXF-2577
p5199
aVCXF-2576
p5200
aVCXF-2575
p5201
aVCXF-2574
p5202
aVCXF-2572
p5203
aVCXF-2571
p5204
aVCXF-2570
p5205
aVCXF-2569
p5206
aVCXF-2568
p5207
aVCXF-2567
p5208
aVCXF-2566
p5209
aVCXF-2565
p5210
aVCXF-2564
p5211
aVCXF-2563
p5212
aVCXF-2562
p5213
aVCXF-2561
p5214
aVCXF-2560
p5215
aVCXF-2559
p5216
aVCXF-2558
p5217
aVCXF-2556
p5218
aVCXF-2555
p5219
aVCXF-2554
p5220
aVCXF-2553
p5221
aVCXF-2552
p5222
aVCXF-2551
p5223
aVCXF-2550
p5224
aVCXF-2549
p5225
aVCXF-2548
p5226
aVCXF-2547
p5227
aVCXF-2546
p5228
aVCXF-2545
p5229
aVCXF-2544
p5230
aVCXF-2543
p5231
aVCXF-2542
p5232
aVCXF-2541
p5233
aVCXF-2540
p5234
aVCXF-2539
p5235
aVCXF-2538
p5236
aVCXF-2537
p5237
aVCXF-2536
p5238
aVCXF-2535
p5239
aVCXF-2534
p5240
aVCXF-2533
p5241
aVCXF-2532
p5242
aVCXF-2531
p5243
aVCXF-2530
p5244
aVCXF-2529
p5245
aVCXF-2528
p5246
aVCXF-2527
p5247
aVCXF-2526
p5248
aVCXF-2525
p5249
aVCXF-2524
p5250
aVCXF-2522
p5251
aVCXF-2521
p5252
aVCXF-2520
p5253
aVCXF-2519
p5254
aVCXF-2518
p5255
aVCXF-2517
p5256
aVCXF-2516
p5257
aVCXF-2515
p5258
aVCXF-2514
p5259
aVCXF-2513
p5260
aVCXF-2512
p5261
aVCXF-2511
p5262
aVCXF-2510
p5263
aVCXF-2509
p5264
aVCXF-2508
p5265
aVCXF-2507
p5266
aVCXF-2506
p5267
aVCXF-2505
p5268
aVCXF-2504
p5269
aVCXF-2503
p5270
aVCXF-2502
p5271
aVCXF-2501
p5272
aVCXF-2500
p5273
aVCXF-2499
p5274
aVCXF-2498
p5275
aVCXF-2497
p5276
aVCXF-2496
p5277
aVCXF-2495
p5278
aVCXF-2494
p5279
aVCXF-2493
p5280
aVCXF-2492
p5281
aVCXF-2491
p5282
aVCXF-2490
p5283
aVCXF-2489
p5284
aVCXF-2488
p5285
aVCXF-2487
p5286
aVCXF-2486
p5287
aVCXF-2485
p5288
aVCXF-2484
p5289
aVCXF-2483
p5290
aVCXF-2482
p5291
aVCXF-2481
p5292
aVCXF-2480
p5293
aVCXF-2479
p5294
aVCXF-2478
p5295
aVCXF-2477
p5296
aVCXF-2476
p5297
aVCXF-2475
p5298
aVCXF-2474
p5299
aVCXF-2473
p5300
aVCXF-2472
p5301
aVCXF-2471
p5302
aVCXF-2470
p5303
aVCXF-2469
p5304
aVCXF-2468
p5305
aVCXF-2466
p5306
aVCXF-2465
p5307
aVCXF-2464
p5308
aVCXF-2463
p5309
aVCXF-2462
p5310
aVCXF-2461
p5311
aVCXF-2460
p5312
aVCXF-2459
p5313
aVCXF-2458
p5314
aVCXF-2457
p5315
aVCXF-2456
p5316
aVCXF-2455
p5317
aVCXF-2454
p5318
aVCXF-2453
p5319
aVCXF-2451
p5320
aVCXF-2450
p5321
aVCXF-2449
p5322
aVCXF-2448
p5323
aVCXF-2447
p5324
aVCXF-2446
p5325
aVCXF-2445
p5326
aVCXF-2444
p5327
aVCXF-2443
p5328
aVCXF-2442
p5329
aVCXF-2441
p5330
aVCXF-2440
p5331
aVCXF-2439
p5332
aVCXF-2438
p5333
aVCXF-2437
p5334
aVCXF-2436
p5335
aVCXF-2434
p5336
aVCXF-2433
p5337
aVCXF-2432
p5338
aVCXF-2431
p5339
aVCXF-2430
p5340
aVCXF-2429
p5341
aVCXF-2428
p5342
aVCXF-2425
p5343
aVCXF-2424
p5344
aVCXF-2423
p5345
aVCXF-2422
p5346
aVCXF-2421
p5347
aVCXF-2419
p5348
aVCXF-2418
p5349
aVCXF-2417
p5350
aVCXF-2416
p5351
aVCXF-2415
p5352
aVCXF-2414
p5353
aVCXF-2413
p5354
aVCXF-2412
p5355
aVCXF-2411
p5356
aVCXF-2410
p5357
aVCXF-2409
p5358
aVCXF-2408
p5359
aVCXF-2407
p5360
aVCXF-2406
p5361
aVCXF-2405
p5362
aVCXF-2404
p5363
aVCXF-2403
p5364
aVCXF-2402
p5365
aVCXF-2401
p5366
aVCXF-2400
p5367
aVCXF-2399
p5368
aVCXF-2398
p5369
aVCXF-2397
p5370
aVCXF-2396
p5371
aVCXF-2395
p5372
aVCXF-2394
p5373
aVCXF-2393
p5374
aVCXF-2392
p5375
aVCXF-2391
p5376
aVCXF-2390
p5377
aVCXF-2389
p5378
aVCXF-2388
p5379
aVCXF-2387
p5380
aVCXF-2386
p5381
aVCXF-2384
p5382
aVCXF-2383
p5383
aVCXF-2382
p5384
aVCXF-2381
p5385
aVCXF-2380
p5386
aVCXF-2379
p5387
aVCXF-2378
p5388
aVCXF-2377
p5389
aVCXF-2376
p5390
aVCXF-2375
p5391
aVCXF-2374
p5392
aVCXF-2373
p5393
aVCXF-2372
p5394
aVCXF-2371
p5395
aVCXF-2370
p5396
aVCXF-2369
p5397
aVCXF-2368
p5398
aVCXF-2367
p5399
aVCXF-2366
p5400
aVCXF-2365
p5401
aVCXF-2364
p5402
aVCXF-2363
p5403
aVCXF-2362
p5404
aVCXF-2361
p5405
aVCXF-2360
p5406
aVCXF-2359
p5407
aVCXF-2358
p5408
aVCXF-2357
p5409
aVCXF-2356
p5410
aVCXF-2355
p5411
aVCXF-2354
p5412
aVCXF-2353
p5413
aVCXF-2351
p5414
aVCXF-2350
p5415
aVCXF-2349
p5416
aVCXF-2348
p5417
aVCXF-2347
p5418
aVCXF-2346
p5419
aVCXF-2345
p5420
aVCXF-2344
p5421
aVCXF-2343
p5422
aVCXF-2342
p5423
aVCXF-2341
p5424
aVCXF-2340
p5425
aVCXF-2339
p5426
aVCXF-2338
p5427
aVCXF-2336
p5428
aVCXF-2335
p5429
aVCXF-2334
p5430
aVCXF-2333
p5431
aVCXF-2332
p5432
aVCXF-2331
p5433
aVCXF-2330
p5434
aVCXF-2329
p5435
aVCXF-2328
p5436
aVCXF-2327
p5437
aVCXF-2326
p5438
aVCXF-2325
p5439
aVCXF-2324
p5440
aVCXF-2323
p5441
aVCXF-2322
p5442
aVCXF-2321
p5443
aVCXF-2320
p5444
aVCXF-2318
p5445
aVCXF-2317
p5446
aVCXF-2316
p5447
aVCXF-2315
p5448
aVCXF-2314
p5449
aVCXF-2313
p5450
aVCXF-2312
p5451
aVCXF-2311
p5452
aVCXF-2310
p5453
aVCXF-2309
p5454
aVCXF-2308
p5455
aVCXF-2307
p5456
aVCXF-2306
p5457
aVCXF-2305
p5458
aVCXF-2304
p5459
aVCXF-2303
p5460
aVCXF-2302
p5461
aVCXF-2301
p5462
aVCXF-2300
p5463
aVCXF-2299
p5464
aVCXF-2298
p5465
aVCXF-2297
p5466
aVCXF-2296
p5467
aVCXF-2295
p5468
aVCXF-2294
p5469
aVCXF-2293
p5470
aVCXF-2292
p5471
aVCXF-2291
p5472
aVCXF-2289
p5473
aVCXF-2287
p5474
aVCXF-2286
p5475
aVCXF-2285
p5476
aVCXF-2284
p5477
aVCXF-2283
p5478
aVCXF-2282
p5479
aVCXF-2281
p5480
aVCXF-2280
p5481
aVCXF-2279
p5482
aVCXF-2278
p5483
aVCXF-2277
p5484
aVCXF-2276
p5485
aVCXF-2275
p5486
aVCXF-2274
p5487
aVCXF-2273
p5488
aVCXF-2272
p5489
aVCXF-2271
p5490
aVCXF-2270
p5491
aVCXF-2269
p5492
aVCXF-2268
p5493
aVCXF-2267
p5494
aVCXF-2266
p5495
aVCXF-2265
p5496
aVCXF-2264
p5497
aVCXF-2263
p5498
aVCXF-2262
p5499
aVCXF-2261
p5500
aVCXF-2260
p5501
aVCXF-2259
p5502
aVCXF-2258
p5503
aVCXF-2257
p5504
aVCXF-2256
p5505
aVCXF-2255
p5506
aVCXF-2254
p5507
aVCXF-2253
p5508
aVCXF-2251
p5509
aVCXF-2250
p5510
aVCXF-2249
p5511
aVCXF-2248
p5512
aVCXF-2247
p5513
aVCXF-2246
p5514
aVCXF-2245
p5515
aVCXF-2244
p5516
aVCXF-2243
p5517
aVCXF-2242
p5518
aVCXF-2241
p5519
aVCXF-2240
p5520
aVCXF-2239
p5521
aVCXF-2238
p5522
aVCXF-2237
p5523
aVCXF-2236
p5524
aVCXF-2235
p5525
aVCXF-2234
p5526
aVCXF-2233
p5527
aVCXF-2232
p5528
aVCXF-2231
p5529
aVCXF-2230
p5530
aVCXF-2229
p5531
aVCXF-2228
p5532
aVCXF-2227
p5533
aVCXF-2226
p5534
aVCXF-2225
p5535
aVCXF-2224
p5536
aVCXF-2223
p5537
aVCXF-2222
p5538
aVCXF-2221
p5539
aVCXF-2220
p5540
aVCXF-2219
p5541
aVCXF-2218
p5542
aVCXF-2217
p5543
aVCXF-2216
p5544
aVCXF-2215
p5545
aVCXF-2213
p5546
aVCXF-2212
p5547
aVCXF-2211
p5548
aVCXF-2210
p5549
aVCXF-2209
p5550
aVCXF-2208
p5551
aVCXF-2207
p5552
aVCXF-2206
p5553
aVCXF-2205
p5554
aVCXF-2204
p5555
aVCXF-2203
p5556
aVCXF-2202
p5557
aVCXF-2201
p5558
aVCXF-2199
p5559
aVCXF-2198
p5560
aVCXF-2197
p5561
aVCXF-2196
p5562
aVCXF-2195
p5563
aVCXF-2194
p5564
aVCXF-2193
p5565
aVCXF-2192
p5566
aVCXF-2191
p5567
aVCXF-2190
p5568
aVCXF-2189
p5569
aVCXF-2186
p5570
aVCXF-2185
p5571
aVCXF-2184
p5572
aVCXF-2183
p5573
aVCXF-2181
p5574
aVCXF-2180
p5575
aVCXF-2179
p5576
aVCXF-2178
p5577
aVCXF-2177
p5578
aVCXF-2175
p5579
aVCXF-2174
p5580
aVCXF-2172
p5581
aVCXF-2171
p5582
aVCXF-2170
p5583
aVCXF-2169
p5584
aVCXF-2168
p5585
aVCXF-2167
p5586
aVCXF-2166
p5587
aVCXF-2165
p5588
aVCXF-2164
p5589
aVCXF-2163
p5590
aVCXF-2162
p5591
aVCXF-2161
p5592
aVCXF-2160
p5593
aVCXF-2159
p5594
aVCXF-2158
p5595
aVCXF-2155
p5596
aVCXF-2154
p5597
aVCXF-2153
p5598
aVCXF-2152
p5599
aVCXF-2151
p5600
aVCXF-2150
p5601
aVCXF-2149
p5602
aVCXF-2148
p5603
aVCXF-2147
p5604
aVCXF-2145
p5605
aVCXF-2144
p5606
aVCXF-2143
p5607
aVCXF-2142
p5608
aVCXF-2141
p5609
aVCXF-2140
p5610
aVCXF-2139
p5611
aVCXF-2138
p5612
aVCXF-2136
p5613
aVCXF-2135
p5614
aVCXF-2134
p5615
aVCXF-2133
p5616
aVCXF-2132
p5617
aVCXF-2131
p5618
aVCXF-2130
p5619
aVCXF-2129
p5620
aVCXF-2128
p5621
aVCXF-2127
p5622
aVCXF-2126
p5623
aVCXF-2125
p5624
aVCXF-2124
p5625
aVCXF-2123
p5626
aVCXF-2122
p5627
aVCXF-2120
p5628
aVCXF-2119
p5629
aVCXF-2118
p5630
aVCXF-2117
p5631
aVCXF-2116
p5632
aVCXF-2115
p5633
aVCXF-2114
p5634
aVCXF-2113
p5635
aVCXF-2112
p5636
aVCXF-2111
p5637
aVCXF-2110
p5638
aVCXF-2109
p5639
aVCXF-2108
p5640
aVCXF-2107
p5641
aVCXF-2106
p5642
aVCXF-2105
p5643
aVCXF-2104
p5644
aVCXF-2103
p5645
aVCXF-2102
p5646
aVCXF-2101
p5647
aVCXF-2100
p5648
aVCXF-2099
p5649
aVCXF-2098
p5650
aVCXF-2097
p5651
aVCXF-2096
p5652
aVCXF-2095
p5653
aVCXF-2094
p5654
aVCXF-2093
p5655
aVCXF-2092
p5656
aVCXF-2091
p5657
aVCXF-2090
p5658
aVCXF-2089
p5659
aVCXF-2088
p5660
aVCXF-2087
p5661
aVCXF-2086
p5662
aVCXF-2085
p5663
aVCXF-2084
p5664
aVCXF-2083
p5665
aVCXF-2082
p5666
aVCXF-2081
p5667
aVCXF-2080
p5668
aVCXF-2079
p5669
aVCXF-2077
p5670
aVCXF-2076
p5671
aVCXF-2075
p5672
aVCXF-2074
p5673
aVCXF-2073
p5674
aVCXF-2072
p5675
aVCXF-2071
p5676
aVCXF-2070
p5677
aVCXF-2069
p5678
aVCXF-2068
p5679
aVCXF-2067
p5680
aVCXF-2065
p5681
aVCXF-2064
p5682
aVCXF-2063
p5683
aVCXF-2062
p5684
aVCXF-2060
p5685
aVCXF-2059
p5686
aVCXF-2058
p5687
aVCXF-2057
p5688
aVCXF-2056
p5689
aVCXF-2055
p5690
aVCXF-2054
p5691
aVCXF-2053
p5692
aVCXF-2052
p5693
aVCXF-2051
p5694
aVCXF-2050
p5695
aVCXF-2049
p5696
aVCXF-2048
p5697
aVCXF-2047
p5698
aVCXF-2046
p5699
aVCXF-2045
p5700
aVCXF-2044
p5701
aVCXF-2043
p5702
aVCXF-2042
p5703
aVCXF-2041
p5704
aVCXF-2040
p5705
aVCXF-2039
p5706
aVCXF-2038
p5707
aVCXF-2037
p5708
aVCXF-2036
p5709
aVCXF-2035
p5710
aVCXF-2034
p5711
aVCXF-2033
p5712
aVCXF-2032
p5713
aVCXF-2031
p5714
aVCXF-2030
p5715
aVCXF-2027
p5716
aVCXF-2026
p5717
aVCXF-2025
p5718
aVCXF-2024
p5719
aVCXF-2023
p5720
aVCXF-2022
p5721
aVCXF-2021
p5722
aVCXF-2020
p5723
aVCXF-2019
p5724
aVCXF-2018
p5725
aVCXF-2017
p5726
aVCXF-2016
p5727
aVCXF-2015
p5728
aVCXF-2014
p5729
aVCXF-2013
p5730
aVCXF-2012
p5731
aVCXF-2011
p5732
aVCXF-2010
p5733
aVCXF-2009
p5734
aVCXF-2008
p5735
aVCXF-2007
p5736
aVCXF-2006
p5737
aVCXF-2005
p5738
aVCXF-2004
p5739
aVCXF-2003
p5740
aVCXF-2002
p5741
aVCXF-2001
p5742
aVCXF-2000
p5743
aVCXF-1999
p5744
aVCXF-1998
p5745
aVCXF-1997
p5746
aVCXF-1996
p5747
aVCXF-1995
p5748
aVCXF-1994
p5749
aVCXF-1993
p5750
aVCXF-1992
p5751
aVCXF-1991
p5752
aVCXF-1990
p5753
aVCXF-1989
p5754
aVCXF-1983
p5755
aVCXF-1982
p5756
aVCXF-1981
p5757
aVCXF-1980
p5758
aVCXF-1979
p5759
aVCXF-1978
p5760
aVCXF-1977
p5761
aVCXF-1976
p5762
aVCXF-1975
p5763
aVCXF-1974
p5764
aVCXF-1973
p5765
aVCXF-1972
p5766
aVCXF-1971
p5767
aVCXF-1970
p5768
aVCXF-1969
p5769
aVCXF-1968
p5770
aVCXF-1964
p5771
aVCXF-1963
p5772
aVCXF-1962
p5773
aVCXF-1959
p5774
aVCXF-1958
p5775
aVCXF-1957
p5776
aVCXF-1956
p5777
aVCXF-1955
p5778
aVCXF-1954
p5779
aVCXF-1953
p5780
aVCXF-1952
p5781
aVCXF-1951
p5782
aVCXF-1950
p5783
aVCXF-1949
p5784
aVCXF-1948
p5785
aVCXF-1947
p5786
aVCXF-1946
p5787
aVCXF-1945
p5788
aVCXF-1943
p5789
aVCXF-1941
p5790
aVCXF-1940
p5791
aVCXF-1939
p5792
aVCXF-1938
p5793
aVCXF-1937
p5794
aVCXF-1936
p5795
aVCXF-1935
p5796
aVCXF-1934
p5797
aVCXF-1933
p5798
aVCXF-1932
p5799
aVCXF-1931
p5800
aVCXF-1930
p5801
aVCXF-1929
p5802
aVCXF-1928
p5803
aVCXF-1927
p5804
aVCXF-1926
p5805
aVCXF-1925
p5806
aVCXF-1924
p5807
aVCXF-1923
p5808
aVCXF-1922
p5809
aVCXF-1921
p5810
aVCXF-1920
p5811
aVCXF-1919
p5812
aVCXF-1918
p5813
aVCXF-1917
p5814
aVCXF-1916
p5815
aVCXF-1915
p5816
aVCXF-1914
p5817
aVCXF-1913
p5818
aVCXF-1912
p5819
aVCXF-1911
p5820
aVCXF-1910
p5821
aVCXF-1909
p5822
aVCXF-1908
p5823
aVCXF-1907
p5824
aVCXF-1906
p5825
aVCXF-1905
p5826
aVCXF-1904
p5827
aVCXF-1903
p5828
aVCXF-1902
p5829
aVCXF-1901
p5830
aVCXF-1900
p5831
aVCXF-1899
p5832
aVCXF-1898
p5833
aVCXF-1897
p5834
aVCXF-1896
p5835
aVCXF-1895
p5836
aVCXF-1894
p5837
aVCXF-1893
p5838
aVCXF-1892
p5839
aVCXF-1891
p5840
aVCXF-1890
p5841
aVCXF-1889
p5842
aVCXF-1888
p5843
aVCXF-1887
p5844
aVCXF-1886
p5845
aVCXF-1885
p5846
aVCXF-1884
p5847
aVCXF-1883
p5848
aVCXF-1882
p5849
aVCXF-1881
p5850
aVCXF-1880
p5851
aVCXF-1879
p5852
aVCXF-1878
p5853
aVCXF-1877
p5854
aVCXF-1875
p5855
aVCXF-1874
p5856
aVCXF-1873
p5857
aVCXF-1872
p5858
aVCXF-1871
p5859
aVCXF-1870
p5860
aVCXF-1866
p5861
aVCXF-1865
p5862
aVCXF-1864
p5863
aVCXF-1863
p5864
aVCXF-1862
p5865
aVCXF-1861
p5866
aVCXF-1860
p5867
aVCXF-1859
p5868
aVCXF-1858
p5869
aVCXF-1857
p5870
aVCXF-1856
p5871
aVCXF-1855
p5872
aVCXF-1854
p5873
aVCXF-1853
p5874
aVCXF-1852
p5875
aVCXF-1851
p5876
aVCXF-1850
p5877
aVCXF-1849
p5878
aVCXF-1848
p5879
aVCXF-1847
p5880
aVCXF-1846
p5881
aVCXF-1845
p5882
aVCXF-1844
p5883
aVCXF-1843
p5884
aVCXF-1842
p5885
aVCXF-1841
p5886
aVCXF-1840
p5887
aVCXF-1839
p5888
aVCXF-1838
p5889
aVCXF-1837
p5890
aVCXF-1836
p5891
aVCXF-1835
p5892
aVCXF-1834
p5893
aVCXF-1833
p5894
aVCXF-1832
p5895
aVCXF-1831
p5896
aVCXF-1830
p5897
aVCXF-1829
p5898
aVCXF-1828
p5899
aVCXF-1827
p5900
aVCXF-1826
p5901
aVCXF-1825
p5902
aVCXF-1824
p5903
aVCXF-1823
p5904
aVCXF-1822
p5905
aVCXF-1821
p5906
aVCXF-1820
p5907
aVCXF-1819
p5908
aVCXF-1818
p5909
aVCXF-1817
p5910
aVCXF-1816
p5911
aVCXF-1815
p5912
aVCXF-1814
p5913
aVCXF-1813
p5914
aVCXF-1812
p5915
aVCXF-1811
p5916
aVCXF-1810
p5917
aVCXF-1809
p5918
aVCXF-1808
p5919
aVCXF-1807
p5920
aVCXF-1806
p5921
aVCXF-1805
p5922
aVCXF-1804
p5923
aVCXF-1803
p5924
aVCXF-1802
p5925
aVCXF-1801
p5926
aVCXF-1800
p5927
aVCXF-1799
p5928
aVCXF-1798
p5929
aVCXF-1797
p5930
aVCXF-1796
p5931
aVCXF-1795
p5932
aVCXF-1794
p5933
aVCXF-1793
p5934
aVCXF-1792
p5935
aVCXF-1791
p5936
aVCXF-1790
p5937
aVCXF-1789
p5938
aVCXF-1788
p5939
aVCXF-1787
p5940
aVCXF-1786
p5941
aVCXF-1785
p5942
aVCXF-1784
p5943
aVCXF-1783
p5944
aVCXF-1782
p5945
aVCXF-1781
p5946
aVCXF-1780
p5947
aVCXF-1779
p5948
aVCXF-1778
p5949
aVCXF-1777
p5950
aVCXF-1776
p5951
aVCXF-1775
p5952
aVCXF-1774
p5953
aVCXF-1773
p5954
aVCXF-1772
p5955
aVCXF-1771
p5956
aVCXF-1770
p5957
aVCXF-1769
p5958
aVCXF-1768
p5959
aVCXF-1767
p5960
aVCXF-1766
p5961
aVCXF-1765
p5962
aVCXF-1764
p5963
aVCXF-1763
p5964
aVCXF-1762
p5965
aVCXF-1761
p5966
aVCXF-1760
p5967
aVCXF-1759
p5968
aVCXF-1758
p5969
aVCXF-1757
p5970
aVCXF-1756
p5971
aVCXF-1755
p5972
aVCXF-1754
p5973
aVCXF-1753
p5974
aVCXF-1752
p5975
aVCXF-1751
p5976
aVCXF-1750
p5977
aVCXF-1749
p5978
aVCXF-1748
p5979
aVCXF-1747
p5980
aVCXF-1746
p5981
aVCXF-1745
p5982
aVCXF-1744
p5983
aVCXF-1743
p5984
aVCXF-1742
p5985
aVCXF-1741
p5986
aVCXF-1740
p5987
aVCXF-1739
p5988
aVCXF-1738
p5989
aVCXF-1737
p5990
aVCXF-1736
p5991
aVCXF-1735
p5992
aVCXF-1734
p5993
aVCXF-1733
p5994
aVCXF-1732
p5995
aVCXF-1731
p5996
aVCXF-1730
p5997
aVCXF-1729
p5998
aVCXF-1728
p5999
aVCXF-1727
p6000
aVCXF-1726
p6001
aVCXF-1725
p6002
aVCXF-1724
p6003
aVCXF-1723
p6004
aVCXF-1722
p6005
aVCXF-1721
p6006
aVCXF-1720
p6007
aVCXF-1719
p6008
aVCXF-1718
p6009
aVCXF-1717
p6010
aVCXF-1716
p6011
aVCXF-1715
p6012
aVCXF-1714
p6013
aVCXF-1713
p6014
aVCXF-1712
p6015
aVCXF-1711
p6016
aVCXF-1710
p6017
aVCXF-1709
p6018
aVCXF-1708
p6019
aVCXF-1707
p6020
aVCXF-1706
p6021
aVCXF-1705
p6022
aVCXF-1704
p6023
aVCXF-1703
p6024
aVCXF-1702
p6025
aVCXF-1701
p6026
aVCXF-1700
p6027
aVCXF-1699
p6028
aVCXF-1698
p6029
aVCXF-1697
p6030
aVCXF-1696
p6031
aVCXF-1695
p6032
aVCXF-1694
p6033
aVCXF-1693
p6034
aVCXF-1692
p6035
aVCXF-1691
p6036
aVCXF-1690
p6037
aVCXF-1689
p6038
aVCXF-1688
p6039
aVCXF-1687
p6040
aVCXF-1686
p6041
aVCXF-1685
p6042
aVCXF-1684
p6043
aVCXF-1683
p6044
aVCXF-1682
p6045
aVCXF-1681
p6046
aVCXF-1680
p6047
aVCXF-1679
p6048
aVCXF-1678
p6049
aVCXF-1677
p6050
aVCXF-1676
p6051
aVCXF-1675
p6052
aVCXF-1674
p6053
aVCXF-1673
p6054
aVCXF-1672
p6055
aVCXF-1671
p6056
aVCXF-1670
p6057
aVCXF-1669
p6058
aVCXF-1668
p6059
aVCXF-1667
p6060
aVCXF-1666
p6061
aVCXF-1665
p6062
aVCXF-1664
p6063
aVCXF-1663
p6064
aVCXF-1662
p6065
aVCXF-1661
p6066
aVCXF-1660
p6067
aVCXF-1659
p6068
aVCXF-1658
p6069
aVCXF-1657
p6070
aVCXF-1656
p6071
aVCXF-1655
p6072
aVCXF-1654
p6073
aVCXF-1653
p6074
aVCXF-1652
p6075
aVCXF-1651
p6076
aVCXF-1650
p6077
aVCXF-1649
p6078
aVCXF-1648
p6079
aVCXF-1647
p6080
aVCXF-1646
p6081
aVCXF-1645
p6082
aVCXF-1644
p6083
aVCXF-1643
p6084
aVCXF-1642
p6085
aVCXF-1641
p6086
aVCXF-1640
p6087
aVCXF-1639
p6088
aVCXF-1638
p6089
aVCXF-1637
p6090
aVCXF-1636
p6091
aVCXF-1635
p6092
aVCXF-1634
p6093
aVCXF-1633
p6094
aVCXF-1632
p6095
aVCXF-1631
p6096
aVCXF-1630
p6097
aVCXF-1629
p6098
aVCXF-1628
p6099
aVCXF-1627
p6100
aVCXF-1626
p6101
aVCXF-1625
p6102
aVCXF-1624
p6103
aVCXF-1623
p6104
aVCXF-1622
p6105
aVCXF-1621
p6106
aVCXF-1620
p6107
aVCXF-1619
p6108
aVCXF-1618
p6109
aVCXF-1617
p6110
aVCXF-1616
p6111
aVCXF-1615
p6112
aVCXF-1614
p6113
aVCXF-1613
p6114
aVCXF-1612
p6115
aVCXF-1611
p6116
aVCXF-1610
p6117
aVCXF-1609
p6118
aVCXF-1608
p6119
aVCXF-1607
p6120
aVCXF-1606
p6121
aVCXF-1605
p6122
aVCXF-1604
p6123
aVCXF-1603
p6124
aVCXF-1602
p6125
aVCXF-1601
p6126
aVCXF-1600
p6127
aVCXF-1599
p6128
aVCXF-1598
p6129
aVCXF-1597
p6130
aVCXF-1596
p6131
aVCXF-1595
p6132
aVCXF-1594
p6133
aVCXF-1593
p6134
aVCXF-1592
p6135
aVCXF-1591
p6136
aVCXF-1590
p6137
aVCXF-1589
p6138
aVCXF-1588
p6139
aVCXF-1587
p6140
aVCXF-1586
p6141
aVCXF-1585
p6142
aVCXF-1584
p6143
aVCXF-1583
p6144
aVCXF-1582
p6145
aVCXF-1581
p6146
aVCXF-1580
p6147
aVCXF-1579
p6148
aVCXF-1578
p6149
aVCXF-1577
p6150
aVCXF-1576
p6151
aVCXF-1575
p6152
aVCXF-1574
p6153
aVCXF-1573
p6154
aVCXF-1572
p6155
aVCXF-1571
p6156
aVCXF-1570
p6157
aVCXF-1569
p6158
aVCXF-1568
p6159
aVCXF-1567
p6160
aVCXF-1566
p6161
aVCXF-1565
p6162
aVCXF-1564
p6163
aVCXF-1563
p6164
aVCXF-1562
p6165
aVCXF-1561
p6166
aVCXF-1560
p6167
aVCXF-1559
p6168
aVCXF-1558
p6169
aVCXF-1557
p6170
aVCXF-1556
p6171
aVCXF-1555
p6172
aVCXF-1554
p6173
aVCXF-1553
p6174
aVCXF-1552
p6175
aVCXF-1551
p6176
aVCXF-1550
p6177
aVCXF-1549
p6178
aVCXF-1548
p6179
aVCXF-1547
p6180
aVCXF-1546
p6181
aVCXF-1545
p6182
aVCXF-1544
p6183
aVCXF-1543
p6184
aVCXF-1542
p6185
aVCXF-1541
p6186
aVCXF-1540
p6187
aVCXF-1539
p6188
aVCXF-1538
p6189
aVCXF-1537
p6190
aVCXF-1536
p6191
aVCXF-1535
p6192
aVCXF-1534
p6193
aVCXF-1533
p6194
aVCXF-1532
p6195
aVCXF-1531
p6196
aVCXF-1530
p6197
aVCXF-1529
p6198
aVCXF-1528
p6199
aVCXF-1527
p6200
aVCXF-1526
p6201
aVCXF-1525
p6202
aVCXF-1524
p6203
aVCXF-1523
p6204
aVCXF-1522
p6205
aVCXF-1521
p6206
aVCXF-1520
p6207
aVCXF-1519
p6208
aVCXF-1518
p6209
aVCXF-1517
p6210
aVCXF-1516
p6211
aVCXF-1515
p6212
aVCXF-1514
p6213
aVCXF-1513
p6214
aVCXF-1512
p6215
aVCXF-1511
p6216
aVCXF-1510
p6217
aVCXF-1509
p6218
aVCXF-1508
p6219
aVCXF-1507
p6220
aVCXF-1506
p6221
aVCXF-1505
p6222
aVCXF-1504
p6223
aVCXF-1503
p6224
aVCXF-1502
p6225
aVCXF-1501
p6226
aVCXF-1500
p6227
aVCXF-1499
p6228
aVCXF-1498
p6229
aVCXF-1497
p6230
aVCXF-1496
p6231
aVCXF-1495
p6232
aVCXF-1494
p6233
aVCXF-1493
p6234
aVCXF-1492
p6235
aVCXF-1491
p6236
aVCXF-1490
p6237
aVCXF-1489
p6238
aVCXF-1488
p6239
aVCXF-1487
p6240
aVCXF-1486
p6241
aVCXF-1485
p6242
aVCXF-1484
p6243
aVCXF-1483
p6244
aVCXF-1482
p6245
aVCXF-1481
p6246
aVCXF-1480
p6247
aVCXF-1479
p6248
aVCXF-1478
p6249
aVCXF-1477
p6250
aVCXF-1476
p6251
aVCXF-1475
p6252
aVCXF-1474
p6253
aVCXF-1473
p6254
aVCXF-1472
p6255
aVCXF-1471
p6256
aVCXF-1470
p6257
aVCXF-1469
p6258
aVCXF-1468
p6259
aVCXF-1467
p6260
aVCXF-1466
p6261
aVCXF-1465
p6262
aVCXF-1464
p6263
aVCXF-1463
p6264
aVCXF-1462
p6265
aVCXF-1461
p6266
aVCXF-1460
p6267
aVCXF-1459
p6268
aVCXF-1458
p6269
aVCXF-1457
p6270
aVCXF-1456
p6271
aVCXF-1455
p6272
aVCXF-1454
p6273
aVCXF-1453
p6274
aVCXF-1452
p6275
aVCXF-1451
p6276
aVCXF-1450
p6277
aVCXF-1449
p6278
aVCXF-1448
p6279
aVCXF-1447
p6280
aVCXF-1446
p6281
aVCXF-1445
p6282
aVCXF-1444
p6283
aVCXF-1443
p6284
aVCXF-1442
p6285
aVCXF-1441
p6286
aVCXF-1440
p6287
aVCXF-1439
p6288
aVCXF-1438
p6289
aVCXF-1437
p6290
aVCXF-1436
p6291
aVCXF-1435
p6292
aVCXF-1434
p6293
aVCXF-1433
p6294
aVCXF-1432
p6295
aVCXF-1431
p6296
aVCXF-1430
p6297
aVCXF-1429
p6298
aVCXF-1428
p6299
aVCXF-1427
p6300
aVCXF-1426
p6301
aVCXF-1425
p6302
aVCXF-1424
p6303
aVCXF-1423
p6304
aVCXF-1422
p6305
aVCXF-1421
p6306
aVCXF-1420
p6307
aVCXF-1419
p6308
aVCXF-1418
p6309
aVCXF-1417
p6310
aVCXF-1416
p6311
aVCXF-1415
p6312
aVCXF-1414
p6313
aVCXF-1413
p6314
aVCXF-1412
p6315
aVCXF-1411
p6316
aVCXF-1410
p6317
aVCXF-1409
p6318
aVCXF-1408
p6319
aVCXF-1407
p6320
aVCXF-1406
p6321
aVCXF-1405
p6322
aVCXF-1404
p6323
aVCXF-1403
p6324
aVCXF-1402
p6325
aVCXF-1401
p6326
aVCXF-1400
p6327
aVCXF-1399
p6328
aVCXF-1398
p6329
aVCXF-1397
p6330
aVCXF-1396
p6331
aVCXF-1395
p6332
aVCXF-1394
p6333
aVCXF-1393
p6334
aVCXF-1392
p6335
aVCXF-1391
p6336
aVCXF-1390
p6337
aVCXF-1389
p6338
aVCXF-1388
p6339
aVCXF-1387
p6340
aVCXF-1386
p6341
aVCXF-1385
p6342
aVCXF-1384
p6343
aVCXF-1383
p6344
aVCXF-1382
p6345
aVCXF-1381
p6346
aVCXF-1380
p6347
aVCXF-1379
p6348
aVCXF-1378
p6349
aVCXF-1377
p6350
aVCXF-1376
p6351
aVCXF-1375
p6352
aVCXF-1374
p6353
aVCXF-1373
p6354
aVCXF-1372
p6355
aVCXF-1371
p6356
aVCXF-1370
p6357
aVCXF-1369
p6358
aVCXF-1368
p6359
aVCXF-1367
p6360
aVCXF-1366
p6361
aVCXF-1365
p6362
aVCXF-1364
p6363
aVCXF-1363
p6364
aVCXF-1362
p6365
aVCXF-1361
p6366
aVCXF-1360
p6367
aVCXF-1359
p6368
aVCXF-1358
p6369
aVCXF-1357
p6370
aVCXF-1356
p6371
aVCXF-1355
p6372
aVCXF-1354
p6373
aVCXF-1353
p6374
aVCXF-1352
p6375
aVCXF-1351
p6376
aVCXF-1350
p6377
aVCXF-1349
p6378
aVCXF-1348
p6379
aVCXF-1347
p6380
aVCXF-1346
p6381
aVCXF-1345
p6382
aVCXF-1344
p6383
aVCXF-1343
p6384
aVCXF-1342
p6385
aVCXF-1341
p6386
aVCXF-1340
p6387
aVCXF-1339
p6388
aVCXF-1338
p6389
aVCXF-1337
p6390
aVCXF-1336
p6391
aVCXF-1335
p6392
aVCXF-1334
p6393
aVCXF-1333
p6394
aVCXF-1332
p6395
aVCXF-1331
p6396
aVCXF-1330
p6397
aVCXF-1329
p6398
aVCXF-1328
p6399
aVCXF-1327
p6400
aVCXF-1326
p6401
aVCXF-1325
p6402
aVCXF-1324
p6403
aVCXF-1323
p6404
aVCXF-1322
p6405
aVCXF-1321
p6406
aVCXF-1320
p6407
aVCXF-1319
p6408
aVCXF-1318
p6409
aVCXF-1317
p6410
aVCXF-1316
p6411
aVCXF-1315
p6412
aVCXF-1314
p6413
aVCXF-1313
p6414
aVCXF-1312
p6415
aVCXF-1311
p6416
aVCXF-1310
p6417
aVCXF-1309
p6418
aVCXF-1308
p6419
aVCXF-1307
p6420
aVCXF-1306
p6421
aVCXF-1305
p6422
aVCXF-1304
p6423
aVCXF-1303
p6424
aVCXF-1302
p6425
aVCXF-1301
p6426
aVCXF-1300
p6427
aVCXF-1299
p6428
aVCXF-1298
p6429
aVCXF-1297
p6430
aVCXF-1296
p6431
aVCXF-1295
p6432
aVCXF-1294
p6433
aVCXF-1293
p6434
aVCXF-1292
p6435
aVCXF-1291
p6436
aVCXF-1290
p6437
aVCXF-1289
p6438
aVCXF-1288
p6439
aVCXF-1287
p6440
aVCXF-1286
p6441
aVCXF-1285
p6442
aVCXF-1284
p6443
aVCXF-1283
p6444
aVCXF-1282
p6445
aVCXF-1281
p6446
aVCXF-1280
p6447
aVCXF-1279
p6448
aVCXF-1278
p6449
aVCXF-1277
p6450
aVCXF-1276
p6451
aVCXF-1275
p6452
aVCXF-1274
p6453
aVCXF-1273
p6454
aVCXF-1272
p6455
aVCXF-1271
p6456
aVCXF-1270
p6457
aVCXF-1269
p6458
aVCXF-1268
p6459
aVCXF-1267
p6460
aVCXF-1266
p6461
aVCXF-1265
p6462
aVCXF-1264
p6463
aVCXF-1263
p6464
aVCXF-1262
p6465
aVCXF-1261
p6466
aVCXF-1260
p6467
aVCXF-1259
p6468
aVCXF-1258
p6469
aVCXF-1257
p6470
aVCXF-1256
p6471
aVCXF-1255
p6472
aVCXF-1254
p6473
aVCXF-1253
p6474
aVCXF-1252
p6475
aVCXF-1251
p6476
aVCXF-1250
p6477
aVCXF-1249
p6478
aVCXF-1248
p6479
aVCXF-1247
p6480
aVCXF-1246
p6481
aVCXF-1245
p6482
aVCXF-1244
p6483
aVCXF-1243
p6484
aVCXF-1242
p6485
aVCXF-1241
p6486
aVCXF-1240
p6487
aVCXF-1239
p6488
aVCXF-1238
p6489
aVCXF-1237
p6490
aVCXF-1236
p6491
aVCXF-1235
p6492
aVCXF-1234
p6493
aVCXF-1233
p6494
aVCXF-1232
p6495
aVCXF-1231
p6496
aVCXF-1230
p6497
aVCXF-1229
p6498
aVCXF-1228
p6499
aVCXF-1227
p6500
aVCXF-1226
p6501
aVCXF-1225
p6502
aVCXF-1224
p6503
aVCXF-1223
p6504
aVCXF-1222
p6505
aVCXF-1221
p6506
aVCXF-1220
p6507
aVCXF-1219
p6508
aVCXF-1218
p6509
aVCXF-1217
p6510
aVCXF-1216
p6511
aVCXF-1215
p6512
aVCXF-1214
p6513
aVCXF-1213
p6514
aVCXF-1212
p6515
aVCXF-1211
p6516
aVCXF-1210
p6517
aVCXF-1209
p6518
aVCXF-1208
p6519
aVCXF-1207
p6520
aVCXF-1206
p6521
aVCXF-1205
p6522
aVCXF-1204
p6523
aVCXF-1203
p6524
aVCXF-1202
p6525
aVCXF-1201
p6526
aVCXF-1200
p6527
aVCXF-1199
p6528
aVCXF-1198
p6529
aVCXF-1197
p6530
aVCXF-1196
p6531
aVCXF-1195
p6532
aVCXF-1194
p6533
aVCXF-1193
p6534
aVCXF-1192
p6535
aVCXF-1191
p6536
aVCXF-1190
p6537
aVCXF-1189
p6538
aVCXF-1188
p6539
aVCXF-1187
p6540
aVCXF-1186
p6541
aVCXF-1185
p6542
aVCXF-1184
p6543
aVCXF-1183
p6544
aVCXF-1182
p6545
aVCXF-1181
p6546
aVCXF-1180
p6547
aVCXF-1179
p6548
aVCXF-1178
p6549
aVCXF-1177
p6550
aVCXF-1176
p6551
aVCXF-1175
p6552
aVCXF-1174
p6553
aVCXF-1173
p6554
aVCXF-1172
p6555
aVCXF-1171
p6556
aVCXF-1170
p6557
aVCXF-1169
p6558
aVCXF-1168
p6559
aVCXF-1167
p6560
aVCXF-1166
p6561
aVCXF-1165
p6562
aVCXF-1164
p6563
aVCXF-1163
p6564
aVCXF-1162
p6565
aVCXF-1161
p6566
aVCXF-1160
p6567
aVCXF-1159
p6568
aVCXF-1158
p6569
aVCXF-1157
p6570
aVCXF-1156
p6571
aVCXF-1155
p6572
aVCXF-1154
p6573
aVCXF-1153
p6574
aVCXF-1152
p6575
aVCXF-1151
p6576
aVCXF-1150
p6577
aVCXF-1149
p6578
aVCXF-1148
p6579
aVCXF-1147
p6580
aVCXF-1146
p6581
aVCXF-1145
p6582
aVCXF-1144
p6583
aVCXF-1143
p6584
aVCXF-1142
p6585
aVCXF-1141
p6586
aVCXF-1140
p6587
aVCXF-1139
p6588
aVCXF-1138
p6589
aVCXF-1137
p6590
aVCXF-1136
p6591
aVCXF-1135
p6592
aVCXF-1134
p6593
aVCXF-1133
p6594
aVCXF-1132
p6595
aVCXF-1131
p6596
aVCXF-1130
p6597
aVCXF-1129
p6598
aVCXF-1128
p6599
aVCXF-1127
p6600
aVCXF-1126
p6601
aVCXF-1125
p6602
aVCXF-1124
p6603
aVCXF-1123
p6604
aVCXF-1122
p6605
aVCXF-1121
p6606
aVCXF-1120
p6607
aVCXF-1119
p6608
aVCXF-1118
p6609
aVCXF-1117
p6610
aVCXF-1116
p6611
aVCXF-1115
p6612
aVCXF-1114
p6613
aVCXF-1113
p6614
aVCXF-1112
p6615
aVCXF-1111
p6616
aVCXF-1110
p6617
aVCXF-1109
p6618
aVCXF-1108
p6619
aVCXF-1107
p6620
aVCXF-1106
p6621
aVCXF-1105
p6622
aVCXF-1104
p6623
aVCXF-1103
p6624
aVCXF-1102
p6625
aVCXF-1101
p6626
aVCXF-1100
p6627
aVCXF-1099
p6628
aVCXF-1098
p6629
aVCXF-1097
p6630
aVCXF-1096
p6631
aVCXF-1095
p6632
aVCXF-1094
p6633
aVCXF-1093
p6634
aVCXF-1092
p6635
aVCXF-1091
p6636
aVCXF-1090
p6637
aVCXF-1089
p6638
aVCXF-1088
p6639
aVCXF-1087
p6640
aVCXF-1086
p6641
aVCXF-1085
p6642
aVCXF-1084
p6643
aVCXF-1083
p6644
aVCXF-1082
p6645
aVCXF-1081
p6646
aVCXF-1080
p6647
aVCXF-1079
p6648
aVCXF-1078
p6649
aVCXF-1077
p6650
aVCXF-1076
p6651
aVCXF-1075
p6652
aVCXF-1074
p6653
aVCXF-1073
p6654
aVCXF-1072
p6655
aVCXF-1071
p6656
aVCXF-1070
p6657
aVCXF-1069
p6658
aVCXF-1068
p6659
aVCXF-1067
p6660
aVCXF-1066
p6661
aVCXF-1065
p6662
aVCXF-1064
p6663
aVCXF-1063
p6664
aVCXF-1062
p6665
aVCXF-1061
p6666
aVCXF-1060
p6667
aVCXF-1059
p6668
aVCXF-1058
p6669
aVCXF-1057
p6670
aVCXF-1056
p6671
aVCXF-1055
p6672
aVCXF-1054
p6673
aVCXF-1053
p6674
aVCXF-1052
p6675
aVCXF-1051
p6676
aVCXF-1050
p6677
aVCXF-1049
p6678
aVCXF-1048
p6679
aVCXF-1047
p6680
aVCXF-1046
p6681
aVCXF-1045
p6682
aVCXF-1044
p6683
aVCXF-1043
p6684
aVCXF-1042
p6685
aVCXF-1037
p6686
aVCXF-1036
p6687
aVCXF-1035
p6688
aVCXF-1034
p6689
aVCXF-1033
p6690
aVCXF-1032
p6691
aVCXF-1031
p6692
aVCXF-1030
p6693
aVCXF-1029
p6694
aVCXF-1028
p6695
aVCXF-1027
p6696
aVCXF-1026
p6697
aVCXF-1025
p6698
aVCXF-1024
p6699
aVCXF-1023
p6700
aVCXF-1022
p6701
aVCXF-1021
p6702
aVCXF-1020
p6703
aVCXF-1019
p6704
aVCXF-1018
p6705
aVCXF-1017
p6706
aVCXF-1016
p6707
aVCXF-1015
p6708
aVCXF-1014
p6709
aVCXF-1013
p6710
aVCXF-1012
p6711
aVCXF-1011
p6712
aVCXF-1010
p6713
aVCXF-1009
p6714
aVCXF-1008
p6715
aVCXF-1007
p6716
aVCXF-1006
p6717
aVCXF-1005
p6718
aVCXF-1004
p6719
aVCXF-1003
p6720
aVCXF-1002
p6721
aVCXF-1001
p6722
aVCXF-1000
p6723
aVCXF-999
p6724
aVCXF-998
p6725
aVCXF-997
p6726
aVCXF-996
p6727
aVCXF-995
p6728
aVCXF-994
p6729
aVCXF-993
p6730
aVCXF-992
p6731
aVCXF-991
p6732
aVCXF-990
p6733
aVCXF-989
p6734
aVCXF-988
p6735
aVCXF-987
p6736
aVCXF-986
p6737
aVCXF-985
p6738
aVCXF-984
p6739
aVCXF-983
p6740
aVCXF-982
p6741
aVCXF-981
p6742
aVCXF-980
p6743
aVCXF-979
p6744
aVCXF-978
p6745
aVCXF-977
p6746
aVCXF-976
p6747
aVCXF-975
p6748
aVCXF-974
p6749
aVCXF-973
p6750
aVCXF-972
p6751
aVCXF-971
p6752
aVCXF-970
p6753
aVCXF-969
p6754
aVCXF-968
p6755
aVCXF-967
p6756
aVCXF-966
p6757
aVCXF-965
p6758
aVCXF-964
p6759
aVCXF-963
p6760
aVCXF-962
p6761
aVCXF-961
p6762
aVCXF-960
p6763
aVCXF-959
p6764
aVCXF-958
p6765
aVCXF-957
p6766
aVCXF-956
p6767
aVCXF-955
p6768
aVCXF-954
p6769
aVCXF-953
p6770
aVCXF-952
p6771
aVCXF-951
p6772
aVCXF-950
p6773
aVCXF-949
p6774
aVCXF-948
p6775
aVCXF-947
p6776
aVCXF-946
p6777
aVCXF-945
p6778
aVCXF-944
p6779
aVCXF-943
p6780
aVCXF-942
p6781
aVCXF-941
p6782
aVCXF-940
p6783
aVCXF-939
p6784
aVCXF-938
p6785
aVCXF-937
p6786
aVCXF-936
p6787
aVCXF-935
p6788
aVCXF-934
p6789
aVCXF-933
p6790
aVCXF-932
p6791
aVCXF-931
p6792
aVCXF-930
p6793
aVCXF-929
p6794
aVCXF-928
p6795
aVCXF-927
p6796
aVCXF-926
p6797
aVCXF-925
p6798
aVCXF-924
p6799
aVCXF-923
p6800
aVCXF-922
p6801
aVCXF-921
p6802
aVCXF-920
p6803
aVCXF-919
p6804
aVCXF-918
p6805
aVCXF-917
p6806
aVCXF-916
p6807
aVCXF-915
p6808
aVCXF-914
p6809
aVCXF-913
p6810
aVCXF-912
p6811
aVCXF-911
p6812
aVCXF-910
p6813
aVCXF-909
p6814
aVCXF-908
p6815
aVCXF-907
p6816
aVCXF-906
p6817
aVCXF-905
p6818
aVCXF-904
p6819
aVCXF-903
p6820
aVCXF-902
p6821
aVCXF-901
p6822
aVCXF-900
p6823
aVCXF-899
p6824
aVCXF-898
p6825
aVCXF-897
p6826
aVCXF-896
p6827
aVCXF-895
p6828
aVCXF-894
p6829
aVCXF-893
p6830
aVCXF-892
p6831
aVCXF-891
p6832
aVCXF-890
p6833
aVCXF-889
p6834
aVCXF-888
p6835
aVCXF-887
p6836
aVCXF-886
p6837
aVCXF-885
p6838
aVCXF-884
p6839
aVCXF-883
p6840
aVCXF-882
p6841
aVCXF-881
p6842
aVCXF-880
p6843
aVCXF-879
p6844
aVCXF-878
p6845
aVCXF-877
p6846
aVCXF-876
p6847
aVCXF-875
p6848
aVCXF-874
p6849
aVCXF-873
p6850
aVCXF-872
p6851
aVCXF-871
p6852
aVCXF-870
p6853
aVCXF-869
p6854
aVCXF-868
p6855
aVCXF-867
p6856
aVCXF-866
p6857
aVCXF-865
p6858
aVCXF-864
p6859
aVCXF-863
p6860
aVCXF-862
p6861
aVCXF-861
p6862
aVCXF-860
p6863
aVCXF-859
p6864
aVCXF-858
p6865
aVCXF-857
p6866
aVCXF-856
p6867
aVCXF-855
p6868
aVCXF-854
p6869
aVCXF-853
p6870
aVCXF-852
p6871
aVCXF-851
p6872
aVCXF-850
p6873
aVCXF-849
p6874
aVCXF-848
p6875
aVCXF-847
p6876
aVCXF-846
p6877
aVCXF-845
p6878
aVCXF-844
p6879
aVCXF-843
p6880
aVCXF-842
p6881
aVCXF-841
p6882
aVCXF-840
p6883
aVCXF-839
p6884
aVCXF-838
p6885
aVCXF-837
p6886
aVCXF-836
p6887
aVCXF-835
p6888
aVCXF-834
p6889
aVCXF-833
p6890
aVCXF-832
p6891
aVCXF-831
p6892
aVCXF-830
p6893
aVCXF-829
p6894
aVCXF-828
p6895
aVCXF-827
p6896
aVCXF-826
p6897
aVCXF-825
p6898
aVCXF-824
p6899
aVCXF-823
p6900
aVCXF-822
p6901
aVCXF-821
p6902
aVCXF-820
p6903
aVCXF-819
p6904
aVCXF-818
p6905
aVCXF-817
p6906
aVCXF-816
p6907
aVCXF-815
p6908
aVCXF-814
p6909
aVCXF-813
p6910
aVCXF-812
p6911
aVCXF-811
p6912
aVCXF-810
p6913
aVCXF-809
p6914
aVCXF-808
p6915
aVCXF-807
p6916
aVCXF-806
p6917
aVCXF-805
p6918
aVCXF-804
p6919
aVCXF-803
p6920
aVCXF-802
p6921
aVCXF-801
p6922
aVCXF-800
p6923
aVCXF-799
p6924
aVCXF-798
p6925
aVCXF-797
p6926
aVCXF-796
p6927
aVCXF-795
p6928
aVCXF-794
p6929
aVCXF-793
p6930
aVCXF-792
p6931
aVCXF-791
p6932
aVCXF-790
p6933
aVCXF-789
p6934
aVCXF-788
p6935
aVCXF-787
p6936
aVCXF-786
p6937
aVCXF-785
p6938
aVCXF-784
p6939
aVCXF-783
p6940
aVCXF-782
p6941
aVCXF-781
p6942
aVCXF-780
p6943
aVCXF-779
p6944
aVCXF-778
p6945
aVCXF-777
p6946
aVCXF-776
p6947
aVCXF-775
p6948
aVCXF-774
p6949
aVCXF-773
p6950
aVCXF-772
p6951
aVCXF-771
p6952
aVCXF-770
p6953
aVCXF-769
p6954
aVCXF-768
p6955
aVCXF-767
p6956
aVCXF-766
p6957
aVCXF-765
p6958
aVCXF-764
p6959
aVCXF-763
p6960
aVCXF-762
p6961
aVCXF-761
p6962
aVCXF-760
p6963
aVCXF-759
p6964
aVCXF-758
p6965
aVCXF-757
p6966
aVCXF-756
p6967
aVCXF-755
p6968
aVCXF-754
p6969
aVCXF-753
p6970
aVCXF-752
p6971
aVCXF-751
p6972
aVCXF-750
p6973
aVCXF-749
p6974
aVCXF-748
p6975
aVCXF-747
p6976
aVCXF-746
p6977
aVCXF-745
p6978
aVCXF-744
p6979
aVCXF-743
p6980
aVCXF-742
p6981
aVCXF-741
p6982
aVCXF-740
p6983
aVCXF-739
p6984
aVCXF-738
p6985
aVCXF-737
p6986
aVCXF-736
p6987
aVCXF-735
p6988
aVCXF-734
p6989
aVCXF-733
p6990
aVCXF-732
p6991
aVCXF-731
p6992
aVCXF-730
p6993
aVCXF-729
p6994
aVCXF-728
p6995
aVCXF-727
p6996
aVCXF-726
p6997
aVCXF-725
p6998
aVCXF-724
p6999
aVCXF-723
p7000
aVCXF-722
p7001
aVCXF-721
p7002
aVCXF-720
p7003
aVCXF-719
p7004
aVCXF-718
p7005
aVCXF-717
p7006
aVCXF-716
p7007
aVCXF-715
p7008
aVCXF-714
p7009
aVCXF-713
p7010
aVCXF-712
p7011
aVCXF-711
p7012
aVCXF-710
p7013
aVCXF-709
p7014
aVCXF-708
p7015
aVCXF-707
p7016
aVCXF-706
p7017
aVCXF-705
p7018
aVCXF-704
p7019
aVCXF-703
p7020
aVCXF-702
p7021
aVCXF-701
p7022
aVCXF-700
p7023
aVCXF-699
p7024
aVCXF-698
p7025
aVCXF-697
p7026
aVCXF-696
p7027
aVCXF-695
p7028
aVCXF-694
p7029
aVCXF-693
p7030
aVCXF-692
p7031
aVCXF-691
p7032
aVCXF-690
p7033
aVCXF-689
p7034
aVCXF-688
p7035
aVCXF-687
p7036
aVCXF-686
p7037
aVCXF-685
p7038
aVCXF-684
p7039
aVCXF-683
p7040
aVCXF-682
p7041
aVCXF-681
p7042
aVCXF-680
p7043
aVCXF-679
p7044
aVCXF-678
p7045
aVCXF-677
p7046
aVCXF-676
p7047
aVCXF-675
p7048
aVCXF-674
p7049
aVCXF-673
p7050
aVCXF-672
p7051
aVCXF-671
p7052
aVCXF-670
p7053
aVCXF-669
p7054
aVCXF-668
p7055
aVCXF-667
p7056
aVCXF-666
p7057
aVCXF-665
p7058
aVCXF-664
p7059
aVCXF-663
p7060
aVCXF-662
p7061
aVCXF-661
p7062
aVCXF-660
p7063
aVCXF-659
p7064
aVCXF-658
p7065
aVCXF-656
p7066
aVCXF-655
p7067
aVCXF-654
p7068
aVCXF-653
p7069
aVCXF-652
p7070
aVCXF-651
p7071
aVCXF-650
p7072
aVCXF-649
p7073
aVCXF-648
p7074
aVCXF-647
p7075
aVCXF-646
p7076
aVCXF-645
p7077
aVCXF-644
p7078
aVCXF-643
p7079
aVCXF-642
p7080
aVCXF-641
p7081
aVCXF-640
p7082
aVCXF-639
p7083
aVCXF-638
p7084
aVCXF-637
p7085
aVCXF-636
p7086
aVCXF-635
p7087
aVCXF-634
p7088
aVCXF-633
p7089
aVCXF-632
p7090
aVCXF-631
p7091
aVCXF-630
p7092
aVCXF-629
p7093
aVCXF-628
p7094
aVCXF-627
p7095
aVCXF-626
p7096
aVCXF-625
p7097
aVCXF-624
p7098
aVCXF-623
p7099
aVCXF-622
p7100
aVCXF-621
p7101
aVCXF-620
p7102
aVCXF-619
p7103
aVCXF-618
p7104
aVCXF-617
p7105
aVCXF-616
p7106
aVCXF-615
p7107
aVCXF-614
p7108
aVCXF-613
p7109
aVCXF-612
p7110
aVCXF-611
p7111
aVCXF-610
p7112
aVCXF-609
p7113
aVCXF-608
p7114
aVCXF-607
p7115
aVCXF-606
p7116
aVCXF-605
p7117
aVCXF-604
p7118
aVCXF-603
p7119
aVCXF-602
p7120
aVCXF-601
p7121
aVCXF-600
p7122
aVCXF-599
p7123
aVCXF-598
p7124
aVCXF-597
p7125
aVCXF-596
p7126
aVCXF-595
p7127
aVCXF-594
p7128
aVCXF-593
p7129
aVCXF-592
p7130
aVCXF-591
p7131
aVCXF-590
p7132
aVCXF-589
p7133
aVCXF-588
p7134
aVCXF-587
p7135
aVCXF-586
p7136
aVCXF-585
p7137
aVCXF-584
p7138
aVCXF-583
p7139
aVCXF-582
p7140
aVCXF-581
p7141
aVCXF-580
p7142
aVCXF-579
p7143
aVCXF-578
p7144
aVCXF-577
p7145
aVCXF-576
p7146
aVCXF-575
p7147
aVCXF-574
p7148
aVCXF-573
p7149
aVCXF-572
p7150
aVCXF-571
p7151
aVCXF-570
p7152
aVCXF-569
p7153
aVCXF-568
p7154
aVCXF-567
p7155
aVCXF-566
p7156
aVCXF-565
p7157
aVCXF-564
p7158
aVCXF-563
p7159
aVCXF-562
p7160
aVCXF-561
p7161
aVCXF-560
p7162
aVCXF-559
p7163
aVCXF-558
p7164
aVCXF-557
p7165
aVCXF-556
p7166
aVCXF-555
p7167
aVCXF-554
p7168
aVCXF-553
p7169
aVCXF-552
p7170
aVCXF-551
p7171
aVCXF-550
p7172
aVCXF-549
p7173
aVCXF-548
p7174
aVCXF-547
p7175
aVCXF-546
p7176
aVCXF-545
p7177
aVCXF-544
p7178
aVCXF-543
p7179
aVCXF-542
p7180
aVCXF-541
p7181
aVCXF-540
p7182
aVCXF-539
p7183
aVCXF-538
p7184
aVCXF-537
p7185
aVCXF-536
p7186
aVCXF-535
p7187
aVCXF-534
p7188
aVCXF-533
p7189
aVCXF-532
p7190
aVCXF-531
p7191
aVCXF-530
p7192
aVCXF-529
p7193
aVCXF-528
p7194
aVCXF-527
p7195
aVCXF-526
p7196
aVCXF-525
p7197
aVCXF-524
p7198
aVCXF-523
p7199
aVCXF-522
p7200
aVCXF-521
p7201
aVCXF-520
p7202
aVCXF-519
p7203
aVCXF-518
p7204
aVCXF-516
p7205
aVCXF-515
p7206
aVCXF-514
p7207
aVCXF-513
p7208
aVCXF-512
p7209
aVCXF-511
p7210
aVCXF-510
p7211
aVCXF-509
p7212
aVCXF-508
p7213
aVCXF-507
p7214
aVCXF-506
p7215
aVCXF-505
p7216
aVCXF-504
p7217
aVCXF-503
p7218
aVCXF-502
p7219
aVCXF-501
p7220
aVCXF-500
p7221
aVCXF-499
p7222
aVCXF-498
p7223
aVCXF-497
p7224
aVCXF-496
p7225
aVCXF-495
p7226
aVCXF-494
p7227
aVCXF-493
p7228
aVCXF-492
p7229
aVCXF-491
p7230
aVCXF-490
p7231
aVCXF-489
p7232
aVCXF-488
p7233
aVCXF-487
p7234
aVCXF-486
p7235
aVCXF-485
p7236
aVCXF-484
p7237
aVCXF-483
p7238
aVCXF-482
p7239
aVCXF-481
p7240
aVCXF-480
p7241
aVCXF-479
p7242
aVCXF-478
p7243
aVCXF-477
p7244
aVCXF-476
p7245
aVCXF-475
p7246
aVCXF-474
p7247
aVCXF-473
p7248
aVCXF-472
p7249
aVCXF-471
p7250
aVCXF-470
p7251
aVCXF-469
p7252
aVCXF-468
p7253
aVCXF-467
p7254
aVCXF-466
p7255
aVCXF-465
p7256
aVCXF-464
p7257
aVCXF-463
p7258
aVCXF-462
p7259
aVCXF-461
p7260
aVCXF-460
p7261
aVCXF-459
p7262
aVCXF-458
p7263
aVCXF-457
p7264
aVCXF-456
p7265
aVCXF-455
p7266
aVCXF-454
p7267
aVCXF-453
p7268
aVCXF-452
p7269
aVCXF-451
p7270
aVCXF-450
p7271
aVCXF-449
p7272
aVCXF-448
p7273
aVCXF-447
p7274
aVCXF-446
p7275
aVCXF-445
p7276
aVCXF-444
p7277
aVCXF-443
p7278
aVCXF-442
p7279
aVCXF-441
p7280
aVCXF-440
p7281
aVCXF-439
p7282
aVCXF-438
p7283
aVCXF-437
p7284
aVCXF-436
p7285
aVCXF-435
p7286
aVCXF-434
p7287
aVCXF-433
p7288
aVCXF-432
p7289
aVCXF-431
p7290
aVCXF-430
p7291
aVCXF-429
p7292
aVCXF-428
p7293
aVCXF-427
p7294
aVCXF-426
p7295
aVCXF-425
p7296
aVCXF-424
p7297
aVCXF-423
p7298
aVCXF-422
p7299
aVCXF-421
p7300
aVCXF-420
p7301
aVCXF-419
p7302
aVCXF-418
p7303
aVCXF-417
p7304
aVCXF-416
p7305
aVCXF-415
p7306
aVCXF-414
p7307
aVCXF-413
p7308
aVCXF-412
p7309
aVCXF-411
p7310
aVCXF-410
p7311
aVCXF-409
p7312
aVCXF-408
p7313
aVCXF-407
p7314
aVCXF-406
p7315
aVCXF-405
p7316
aVCXF-404
p7317
aVCXF-403
p7318
aVCXF-402
p7319
aVCXF-401
p7320
aVCXF-400
p7321
aVCXF-399
p7322
aVCXF-398
p7323
aVCXF-397
p7324
aVCXF-396
p7325
aVCXF-395
p7326
aVCXF-394
p7327
aVCXF-393
p7328
aVCXF-392
p7329
aVCXF-391
p7330
aVCXF-390
p7331
aVCXF-389
p7332
aVCXF-388
p7333
aVCXF-387
p7334
aVCXF-386
p7335
aVCXF-385
p7336
aVCXF-384
p7337
aVCXF-383
p7338
aVCXF-382
p7339
aVCXF-381
p7340
aVCXF-380
p7341
aVCXF-379
p7342
aVCXF-378
p7343
aVCXF-377
p7344
aVCXF-376
p7345
aVCXF-375
p7346
aVCXF-374
p7347
aVCXF-373
p7348
aVCXF-372
p7349
aVCXF-371
p7350
aVCXF-370
p7351
aVCXF-369
p7352
aVCXF-368
p7353
aVCXF-367
p7354
aVCXF-366
p7355
aVCXF-365
p7356
aVCXF-364
p7357
aVCXF-363
p7358
aVCXF-362
p7359
aVCXF-361
p7360
aVCXF-360
p7361
aVCXF-359
p7362
aVCXF-358
p7363
aVCXF-357
p7364
aVCXF-356
p7365
aVCXF-355
p7366
aVCXF-354
p7367
aVCXF-353
p7368
aVCXF-352
p7369
aVCXF-351
p7370
aVCXF-350
p7371
aVCXF-349
p7372
aVCXF-348
p7373
aVCXF-347
p7374
aVCXF-346
p7375
aVCXF-345
p7376
aVCXF-344
p7377
aVCXF-343
p7378
aVCXF-342
p7379
aVCXF-341
p7380
aVCXF-340
p7381
aVCXF-339
p7382
aVCXF-338
p7383
aVCXF-337
p7384
aVCXF-336
p7385
aVCXF-335
p7386
aVCXF-334
p7387
aVCXF-333
p7388
aVCXF-332
p7389
aVCXF-331
p7390
aVCXF-330
p7391
aVCXF-329
p7392
aVCXF-328
p7393
aVCXF-327
p7394
aVCXF-326
p7395
aVCXF-325
p7396
aVCXF-324
p7397
aVCXF-323
p7398
aVCXF-322
p7399
aVCXF-321
p7400
aVCXF-320
p7401
aVCXF-319
p7402
aVCXF-318
p7403
aVCXF-317
p7404
aVCXF-316
p7405
aVCXF-315
p7406
aVCXF-314
p7407
aVCXF-313
p7408
aVCXF-312
p7409
aVCXF-311
p7410
aVCXF-310
p7411
aVCXF-309
p7412
aVCXF-308
p7413
aVCXF-307
p7414
aVCXF-306
p7415
aVCXF-305
p7416
aVCXF-304
p7417
aVCXF-303
p7418
aVCXF-302
p7419
aVCXF-301
p7420
aVCXF-300
p7421
aVCXF-299
p7422
aVCXF-298
p7423
aVCXF-297
p7424
aVCXF-296
p7425
aVCXF-295
p7426
aVCXF-294
p7427
aVCXF-293
p7428
aVCXF-292
p7429
aVCXF-291
p7430
aVCXF-290
p7431
aVCXF-289
p7432
aVCXF-288
p7433
aVCXF-287
p7434
aVCXF-286
p7435
aVCXF-285
p7436
aVCXF-284
p7437
aVCXF-283
p7438
aVCXF-282
p7439
aVCXF-281
p7440
aVCXF-280
p7441
aVCXF-279
p7442
aVCXF-278
p7443
aVCXF-277
p7444
aVCXF-276
p7445
aVCXF-275
p7446
aVCXF-274
p7447
aVCXF-273
p7448
aVCXF-272
p7449
aVCXF-271
p7450
aVCXF-270
p7451
aVCXF-269
p7452
aVCXF-268
p7453
aVCXF-267
p7454
aVCXF-266
p7455
aVCXF-265
p7456
aVCXF-264
p7457
aVCXF-263
p7458
aVCXF-262
p7459
aVCXF-261
p7460
aVCXF-260
p7461
aVCXF-259
p7462
aVCXF-258
p7463
aVCXF-257
p7464
aVCXF-256
p7465
aVCXF-255
p7466
aVCXF-254
p7467
aVCXF-253
p7468
aVCXF-252
p7469
aVCXF-251
p7470
aVCXF-250
p7471
aVCXF-249
p7472
aVCXF-248
p7473
aVCXF-247
p7474
aVCXF-246
p7475
aVCXF-245
p7476
aVCXF-244
p7477
aVCXF-243
p7478
aVCXF-242
p7479
aVCXF-241
p7480
aVCXF-240
p7481
aVCXF-239
p7482
aVCXF-238
p7483
aVCXF-237
p7484
aVCXF-236
p7485
aVCXF-235
p7486
aVCXF-234
p7487
aVCXF-233
p7488
aVCXF-232
p7489
aVCXF-231
p7490
aVCXF-229
p7491
aVCXF-228
p7492
aVCXF-227
p7493
aVCXF-226
p7494
aVCXF-225
p7495
aVCXF-224
p7496
aVCXF-223
p7497
aVCXF-222
p7498
aVCXF-221
p7499
aVCXF-220
p7500
aVCXF-219
p7501
aVCXF-218
p7502
aVCXF-217
p7503
aVCXF-216
p7504
aVCXF-215
p7505
aVCXF-214
p7506
aVCXF-213
p7507
aVCXF-212
p7508
aVCXF-211
p7509
aVCXF-210
p7510
aVCXF-209
p7511
aVCXF-208
p7512
aVCXF-207
p7513
aVCXF-206
p7514
aVCXF-205
p7515
aVCXF-204
p7516
aVCXF-203
p7517
aVCXF-202
p7518
aVCXF-201
p7519
aVCXF-200
p7520
aVCXF-199
p7521
aVCXF-198
p7522
aVCXF-197
p7523
aVCXF-196
p7524
aVCXF-195
p7525
aVCXF-194
p7526
aVCXF-193
p7527
aVCXF-192
p7528
aVCXF-191
p7529
aVCXF-190
p7530
aVCXF-189
p7531
aVCXF-188
p7532
aVCXF-187
p7533
aVCXF-186
p7534
aVCXF-185
p7535
aVCXF-184
p7536
aVCXF-183
p7537
aVCXF-182
p7538
aVCXF-181
p7539
aVCXF-180
p7540
aVCXF-179
p7541
aVCXF-178
p7542
aVCXF-177
p7543
aVCXF-176
p7544
aVCXF-175
p7545
aVCXF-174
p7546
aVCXF-173
p7547
aVCXF-172
p7548
aVCXF-171
p7549
aVCXF-170
p7550
aVCXF-169
p7551
aVCXF-168
p7552
aVCXF-167
p7553
aVCXF-165
p7554
aVCXF-164
p7555
aVCXF-163
p7556
aVCXF-162
p7557
aVCXF-161
p7558
aVCXF-160
p7559
aVCXF-159
p7560
aVCXF-158
p7561
aVCXF-157
p7562
aVCXF-156
p7563
aVCXF-155
p7564
aVCXF-154
p7565
aVCXF-153
p7566
aVCXF-152
p7567
aVCXF-151
p7568
aVCXF-150
p7569
aVCXF-149
p7570
aVCXF-148
p7571
aVCXF-147
p7572
aVCXF-146
p7573
aVCXF-145
p7574
aVCXF-144
p7575
aVCXF-143
p7576
aVCXF-142
p7577
aVCXF-141
p7578
aVCXF-140
p7579
aVCXF-139
p7580
aVCXF-138
p7581
aVCXF-137
p7582
aVCXF-136
p7583
aVCXF-135
p7584
aVCXF-134
p7585
aVCXF-133
p7586
aVCXF-132
p7587
aVCXF-131
p7588
aVCXF-130
p7589
aVCXF-129
p7590
aVCXF-128
p7591
aVCXF-127
p7592
aVCXF-126
p7593
aVCXF-123
p7594
aVCXF-122
p7595
aVCXF-121
p7596
aVCXF-120
p7597
aVCXF-119
p7598
aVCXF-118
p7599
aVCXF-117
p7600
aVCXF-116
p7601
aVCXF-115
p7602
aVCXF-114
p7603
aVCXF-112
p7604
aVCXF-111
p7605
aVCXF-110
p7606
aVCXF-109
p7607
aVCXF-108
p7608
aVCXF-107
p7609
aVCXF-106
p7610
aVCXF-105
p7611
aVCXF-104
p7612
aVCXF-103
p7613
aVCXF-102
p7614
aVCXF-101
p7615
aVCXF-100
p7616
aVCXF-99
p7617
aVCXF-98
p7618
aVCXF-97
p7619
aVCXF-96
p7620
aVCXF-95
p7621
aVCXF-94
p7622
aVCXF-93
p7623
aVCXF-92
p7624
aVCXF-91
p7625
aVCXF-90
p7626
aVCXF-89
p7627
aVCXF-88
p7628
aVCXF-87
p7629
aVCXF-86
p7630
aVCXF-85
p7631
aVCXF-84
p7632
aVCXF-83
p7633
aVCXF-82
p7634
aVCXF-81
p7635
aVCXF-80
p7636
aVCXF-79
p7637
aVCXF-78
p7638
aVCXF-77
p7639
aVCXF-76
p7640
aVCXF-75
p7641
aVCXF-74
p7642
aVCXF-73
p7643
aVCXF-72
p7644
aVCXF-71
p7645
aVCXF-70
p7646
aVCXF-69
p7647
aVCXF-68
p7648
aVCXF-67
p7649
aVCXF-66
p7650
aVCXF-65
p7651
aVCXF-64
p7652
aVCXF-63
p7653
aVCXF-62
p7654
aVCXF-60
p7655
aVCXF-59
p7656
aVCXF-58
p7657
aVCXF-57
p7658
aVCXF-56
p7659
aVCXF-55
p7660
aVCXF-54
p7661
aVCXF-53
p7662
aVCXF-52
p7663
aVCXF-51
p7664
aVCXF-50
p7665
aVCXF-49
p7666
aVCXF-48
p7667
aVCXF-47
p7668
aVCXF-46
p7669
aVCXF-45
p7670
aVCXF-44
p7671
aVCXF-43
p7672
aVCXF-42
p7673
aVCXF-41
p7674
aVCXF-40
p7675
aVCXF-39
p7676
aVCXF-38
p7677
aVCXF-37
p7678
aVCXF-36
p7679
aVCXF-35
p7680
aVCXF-34
p7681
aVCXF-33
p7682
aVCXF-32
p7683
aVCXF-31
p7684
aVCXF-30
p7685
aVCXF-29
p7686
aVCXF-28
p7687
aVCXF-27
p7688
aVCXF-26
p7689
aVCXF-25
p7690
aVCXF-24
p7691
aVCXF-23
p7692
aVCXF-22
p7693
aVCXF-21
p7694
aVCXF-20
p7695
aVCXF-19
p7696
aVCXF-18
p7697
aVCXF-17
p7698
aVCXF-16
p7699
aVCXF-15
p7700
aVCXF-14
p7701
aVCXF-13
p7702
aVCXF-12
p7703
aVCXF-11
p7704
aVCXF-10
p7705
aVCXF-9
p7706
aVCXF-8
p7707
aVCXF-7
p7708
aVCXF-6
p7709
aVCXF-5
p7710
aVCXF-4
p7711
aVCXF-3
p7712
aVCXF-2
p7713
aVCXF-1
p7714
a.