(lp0
VCXFXJC-28
p1
aVCXFXJC-27
p2
aVCXFXJC-26
p3
aVCXFXJC-25
p4
aVCXFXJC-24
p5
aVCXFXJC-23
p6
aVCXFXJC-22
p7
aVCXFXJC-21
p8
aVCXFXJC-20
p9
aVCXFXJC-19
p10
aVCXFXJC-18
p11
aVCXFXJC-17
p12
aVCXFXJC-16
p13
aVCXFXJC-15
p14
aVCXFXJC-14
p15
aVCXFXJC-13
p16
aVCXFXJC-12
p17
aVCXFXJC-11
p18
aVCXFXJC-10
p19
aVCXFXJC-9
p20
aVCXFXJC-8
p21
aVCXFXJC-7
p22
aVCXFXJC-6
p23
aVCXFXJC-5
p24
aVCXFXJC-4
p25
aVCXFXJC-3
p26
aVCXFXJC-2
p27
aVCXFXJC-1
p28
a.