(lp0
VDATAFU-147
p1
aVDATAFU-146
p2
aVDATAFU-145
p3
aVDATAFU-144
p4
aVDATAFU-143
p5
aVDATAFU-142
p6
aVDATAFU-141
p7
aVDATAFU-140
p8
aVDATAFU-139
p9
aVDATAFU-138
p10
aVDATAFU-137
p11
aVDATAFU-136
p12
aVDATAFU-135
p13
aVDATAFU-134
p14
aVDATAFU-133
p15
aVDATAFU-132
p16
aVDATAFU-131
p17
aVDATAFU-130
p18
aVDATAFU-129
p19
aVDATAFU-128
p20
aVDATAFU-127
p21
aVDATAFU-126
p22
aVDATAFU-125
p23
aVDATAFU-124
p24
aVDATAFU-123
p25
aVDATAFU-122
p26
aVDATAFU-121
p27
aVDATAFU-120
p28
aVDATAFU-119
p29
aVDATAFU-118
p30
aVDATAFU-117
p31
aVDATAFU-116
p32
aVDATAFU-115
p33
aVDATAFU-114
p34
aVDATAFU-113
p35
aVDATAFU-112
p36
aVDATAFU-111
p37
aVDATAFU-110
p38
aVDATAFU-109
p39
aVDATAFU-108
p40
aVDATAFU-107
p41
aVDATAFU-106
p42
aVDATAFU-105
p43
aVDATAFU-104
p44
aVDATAFU-103
p45
aVDATAFU-102
p46
aVDATAFU-101
p47
aVDATAFU-100
p48
aVDATAFU-99
p49
aVDATAFU-98
p50
aVDATAFU-97
p51
aVDATAFU-96
p52
aVDATAFU-95
p53
aVDATAFU-94
p54
aVDATAFU-93
p55
aVDATAFU-92
p56
aVDATAFU-91
p57
aVDATAFU-90
p58
aVDATAFU-89
p59
aVDATAFU-88
p60
aVDATAFU-87
p61
aVDATAFU-86
p62
aVDATAFU-85
p63
aVDATAFU-84
p64
aVDATAFU-83
p65
aVDATAFU-82
p66
aVDATAFU-81
p67
aVDATAFU-80
p68
aVDATAFU-79
p69
aVDATAFU-78
p70
aVDATAFU-77
p71
aVDATAFU-76
p72
aVDATAFU-75
p73
aVDATAFU-74
p74
aVDATAFU-73
p75
aVDATAFU-72
p76
aVDATAFU-71
p77
aVDATAFU-70
p78
aVDATAFU-69
p79
aVDATAFU-68
p80
aVDATAFU-67
p81
aVDATAFU-66
p82
aVDATAFU-65
p83
aVDATAFU-64
p84
aVDATAFU-63
p85
aVDATAFU-62
p86
aVDATAFU-61
p87
aVDATAFU-60
p88
aVDATAFU-59
p89
aVDATAFU-58
p90
aVDATAFU-57
p91
aVDATAFU-56
p92
aVDATAFU-55
p93
aVDATAFU-54
p94
aVDATAFU-53
p95
aVDATAFU-52
p96
aVDATAFU-51
p97
aVDATAFU-50
p98
aVDATAFU-49
p99
aVDATAFU-48
p100
aVDATAFU-47
p101
aVDATAFU-46
p102
aVDATAFU-45
p103
aVDATAFU-44
p104
aVDATAFU-43
p105
aVDATAFU-42
p106
aVDATAFU-41
p107
aVDATAFU-40
p108
aVDATAFU-39
p109
aVDATAFU-38
p110
aVDATAFU-37
p111
aVDATAFU-36
p112
aVDATAFU-35
p113
aVDATAFU-34
p114
aVDATAFU-33
p115
aVDATAFU-32
p116
aVDATAFU-31
p117
aVDATAFU-30
p118
aVDATAFU-29
p119
aVDATAFU-28
p120
aVDATAFU-27
p121
aVDATAFU-26
p122
aVDATAFU-25
p123
aVDATAFU-24
p124
aVDATAFU-23
p125
aVDATAFU-22
p126
aVDATAFU-21
p127
aVDATAFU-20
p128
aVDATAFU-19
p129
aVDATAFU-18
p130
aVDATAFU-17
p131
aVDATAFU-16
p132
aVDATAFU-15
p133
aVDATAFU-14
p134
aVDATAFU-13
p135
aVDATAFU-12
p136
aVDATAFU-11
p137
aVDATAFU-10
p138
aVDATAFU-9
p139
aVDATAFU-8
p140
aVDATAFU-7
p141
aVDATAFU-6
p142
aVDATAFU-5
p143
aVDATAFU-4
p144
aVDATAFU-3
p145
aVDATAFU-2
p146
aVDATAFU-1
p147
a.