(lp0
VDBCP-517
p1
aVDBCP-516
p2
aVDBCP-515
p3
aVDBCP-514
p4
aVDBCP-513
p5
aVDBCP-512
p6
aVDBCP-510
p7
aVDBCP-509
p8
aVDBCP-508
p9
aVDBCP-507
p10
aVDBCP-506
p11
aVDBCP-505
p12
aVDBCP-504
p13
aVDBCP-503
p14
aVDBCP-502
p15
aVDBCP-501
p16
aVDBCP-500
p17
aVDBCP-499
p18
aVDBCP-498
p19
aVDBCP-497
p20
aVDBCP-496
p21
aVDBCP-495
p22
aVDBCP-494
p23
aVDBCP-493
p24
aVDBCP-492
p25
aVDBCP-491
p26
aVDBCP-490
p27
aVDBCP-489
p28
aVDBCP-488
p29
aVDBCP-487
p30
aVDBCP-486
p31
aVDBCP-485
p32
aVDBCP-484
p33
aVDBCP-483
p34
aVDBCP-482
p35
aVDBCP-481
p36
aVDBCP-479
p37
aVDBCP-478
p38
aVDBCP-477
p39
aVDBCP-476
p40
aVDBCP-475
p41
aVDBCP-474
p42
aVDBCP-473
p43
aVDBCP-472
p44
aVDBCP-471
p45
aVDBCP-470
p46
aVDBCP-469
p47
aVDBCP-468
p48
aVDBCP-467
p49
aVDBCP-466
p50
aVDBCP-465
p51
aVDBCP-464
p52
aVDBCP-463
p53
aVDBCP-462
p54
aVDBCP-461
p55
aVDBCP-460
p56
aVDBCP-459
p57
aVDBCP-458
p58
aVDBCP-457
p59
aVDBCP-456
p60
aVDBCP-455
p61
aVDBCP-454
p62
aVDBCP-453
p63
aVDBCP-452
p64
aVDBCP-451
p65
aVDBCP-450
p66
aVDBCP-449
p67
aVDBCP-448
p68
aVDBCP-447
p69
aVDBCP-446
p70
aVDBCP-445
p71
aVDBCP-444
p72
aVDBCP-443
p73
aVDBCP-442
p74
aVDBCP-441
p75
aVDBCP-440
p76
aVDBCP-439
p77
aVDBCP-438
p78
aVDBCP-437
p79
aVDBCP-436
p80
aVDBCP-435
p81
aVDBCP-434
p82
aVDBCP-433
p83
aVDBCP-432
p84
aVDBCP-431
p85
aVDBCP-429
p86
aVDBCP-428
p87
aVDBCP-427
p88
aVDBCP-426
p89
aVDBCP-425
p90
aVDBCP-424
p91
aVDBCP-423
p92
aVDBCP-422
p93
aVDBCP-421
p94
aVDBCP-420
p95
aVDBCP-419
p96
aVDBCP-418
p97
aVDBCP-417
p98
aVDBCP-416
p99
aVDBCP-415
p100
aVDBCP-414
p101
aVDBCP-413
p102
aVDBCP-412
p103
aVDBCP-411
p104
aVDBCP-410
p105
aVDBCP-409
p106
aVDBCP-408
p107
aVDBCP-407
p108
aVDBCP-406
p109
aVDBCP-405
p110
aVDBCP-404
p111
aVDBCP-403
p112
aVDBCP-402
p113
aVDBCP-401
p114
aVDBCP-400
p115
aVDBCP-399
p116
aVDBCP-398
p117
aVDBCP-397
p118
aVDBCP-396
p119
aVDBCP-395
p120
aVDBCP-394
p121
aVDBCP-393
p122
aVDBCP-392
p123
aVDBCP-391
p124
aVDBCP-390
p125
aVDBCP-389
p126
aVDBCP-388
p127
aVDBCP-387
p128
aVDBCP-386
p129
aVDBCP-385
p130
aVDBCP-384
p131
aVDBCP-383
p132
aVDBCP-382
p133
aVDBCP-381
p134
aVDBCP-380
p135
aVDBCP-379
p136
aVDBCP-378
p137
aVDBCP-377
p138
aVDBCP-376
p139
aVDBCP-375
p140
aVDBCP-374
p141
aVDBCP-373
p142
aVDBCP-372
p143
aVDBCP-371
p144
aVDBCP-370
p145
aVDBCP-369
p146
aVDBCP-368
p147
aVDBCP-367
p148
aVDBCP-366
p149
aVDBCP-365
p150
aVDBCP-364
p151
aVDBCP-363
p152
aVDBCP-362
p153
aVDBCP-361
p154
aVDBCP-360
p155
aVDBCP-359
p156
aVDBCP-358
p157
aVDBCP-357
p158
aVDBCP-356
p159
aVDBCP-355
p160
aVDBCP-354
p161
aVDBCP-353
p162
aVDBCP-352
p163
aVDBCP-351
p164
aVDBCP-350
p165
aVDBCP-349
p166
aVDBCP-348
p167
aVDBCP-347
p168
aVDBCP-346
p169
aVDBCP-345
p170
aVDBCP-344
p171
aVDBCP-343
p172
aVDBCP-342
p173
aVDBCP-341
p174
aVDBCP-340
p175
aVDBCP-339
p176
aVDBCP-338
p177
aVDBCP-337
p178
aVDBCP-336
p179
aVDBCP-335
p180
aVDBCP-334
p181
aVDBCP-333
p182
aVDBCP-332
p183
aVDBCP-330
p184
aVDBCP-329
p185
aVDBCP-328
p186
aVDBCP-327
p187
aVDBCP-326
p188
aVDBCP-325
p189
aVDBCP-324
p190
aVDBCP-323
p191
aVDBCP-322
p192
aVDBCP-321
p193
aVDBCP-320
p194
aVDBCP-319
p195
aVDBCP-318
p196
aVDBCP-317
p197
aVDBCP-316
p198
aVDBCP-315
p199
aVDBCP-314
p200
aVDBCP-313
p201
aVDBCP-312
p202
aVDBCP-311
p203
aVDBCP-310
p204
aVDBCP-309
p205
aVDBCP-308
p206
aVDBCP-307
p207
aVDBCP-306
p208
aVDBCP-305
p209
aVDBCP-304
p210
aVDBCP-303
p211
aVDBCP-302
p212
aVDBCP-301
p213
aVDBCP-300
p214
aVDBCP-299
p215
aVDBCP-298
p216
aVDBCP-297
p217
aVDBCP-296
p218
aVDBCP-295
p219
aVDBCP-294
p220
aVDBCP-293
p221
aVDBCP-292
p222
aVDBCP-291
p223
aVDBCP-290
p224
aVDBCP-289
p225
aVDBCP-288
p226
aVDBCP-287
p227
aVDBCP-286
p228
aVDBCP-285
p229
aVDBCP-284
p230
aVDBCP-283
p231
aVDBCP-282
p232
aVDBCP-281
p233
aVDBCP-280
p234
aVDBCP-279
p235
aVDBCP-278
p236
aVDBCP-277
p237
aVDBCP-276
p238
aVDBCP-275
p239
aVDBCP-274
p240
aVDBCP-273
p241
aVDBCP-272
p242
aVDBCP-271
p243
aVDBCP-270
p244
aVDBCP-269
p245
aVDBCP-268
p246
aVDBCP-267
p247
aVDBCP-266
p248
aVDBCP-265
p249
aVDBCP-264
p250
aVDBCP-263
p251
aVDBCP-262
p252
aVDBCP-261
p253
aVDBCP-260
p254
aVDBCP-259
p255
aVDBCP-258
p256
aVDBCP-257
p257
aVDBCP-256
p258
aVDBCP-255
p259
aVDBCP-254
p260
aVDBCP-253
p261
aVDBCP-252
p262
aVDBCP-251
p263
aVDBCP-250
p264
aVDBCP-249
p265
aVDBCP-247
p266
aVDBCP-246
p267
aVDBCP-245
p268
aVDBCP-244
p269
aVDBCP-243
p270
aVDBCP-242
p271
aVDBCP-241
p272
aVDBCP-240
p273
aVDBCP-239
p274
aVDBCP-238
p275
aVDBCP-237
p276
aVDBCP-236
p277
aVDBCP-235
p278
aVDBCP-234
p279
aVDBCP-233
p280
aVDBCP-232
p281
aVDBCP-231
p282
aVDBCP-230
p283
aVDBCP-229
p284
aVDBCP-228
p285
aVDBCP-227
p286
aVDBCP-226
p287
aVDBCP-225
p288
aVDBCP-224
p289
aVDBCP-223
p290
aVDBCP-222
p291
aVDBCP-221
p292
aVDBCP-220
p293
aVDBCP-219
p294
aVDBCP-218
p295
aVDBCP-217
p296
aVDBCP-216
p297
aVDBCP-215
p298
aVDBCP-214
p299
aVDBCP-213
p300
aVDBCP-212
p301
aVDBCP-211
p302
aVDBCP-210
p303
aVDBCP-209
p304
aVDBCP-208
p305
aVDBCP-207
p306
aVDBCP-206
p307
aVDBCP-205
p308
aVDBCP-204
p309
aVDBCP-203
p310
aVDBCP-202
p311
aVDBCP-201
p312
aVDBCP-200
p313
aVDBCP-199
p314
aVDBCP-198
p315
aVDBCP-197
p316
aVDBCP-195
p317
aVDBCP-194
p318
aVDBCP-193
p319
aVDBCP-192
p320
aVDBCP-191
p321
aVDBCP-190
p322
aVDBCP-189
p323
aVDBCP-188
p324
aVDBCP-187
p325
aVDBCP-186
p326
aVDBCP-185
p327
aVDBCP-184
p328
aVDBCP-183
p329
aVDBCP-182
p330
aVDBCP-181
p331
aVDBCP-180
p332
aVDBCP-179
p333
aVDBCP-178
p334
aVDBCP-177
p335
aVDBCP-176
p336
aVDBCP-175
p337
aVDBCP-174
p338
aVDBCP-173
p339
aVDBCP-172
p340
aVDBCP-171
p341
aVDBCP-170
p342
aVDBCP-169
p343
aVDBCP-168
p344
aVDBCP-167
p345
aVDBCP-166
p346
aVDBCP-165
p347
aVDBCP-164
p348
aVDBCP-163
p349
aVDBCP-162
p350
aVDBCP-161
p351
aVDBCP-160
p352
aVDBCP-159
p353
aVDBCP-158
p354
aVDBCP-157
p355
aVDBCP-156
p356
aVDBCP-155
p357
aVDBCP-154
p358
aVDBCP-153
p359
aVDBCP-152
p360
aVDBCP-151
p361
aVDBCP-150
p362
aVDBCP-149
p363
aVDBCP-148
p364
aVDBCP-147
p365
aVDBCP-146
p366
aVDBCP-145
p367
aVDBCP-144
p368
aVDBCP-143
p369
aVDBCP-142
p370
aVDBCP-141
p371
aVDBCP-140
p372
aVDBCP-139
p373
aVDBCP-138
p374
aVDBCP-137
p375
aVDBCP-136
p376
aVDBCP-135
p377
aVDBCP-134
p378
aVDBCP-133
p379
aVDBCP-132
p380
aVDBCP-131
p381
aVDBCP-130
p382
aVDBCP-129
p383
aVDBCP-128
p384
aVDBCP-127
p385
aVDBCP-126
p386
aVDBCP-125
p387
aVDBCP-124
p388
aVDBCP-123
p389
aVDBCP-122
p390
aVDBCP-121
p391
aVDBCP-120
p392
aVDBCP-119
p393
aVDBCP-118
p394
aVDBCP-117
p395
aVDBCP-116
p396
aVDBCP-115
p397
aVDBCP-114
p398
aVDBCP-113
p399
aVDBCP-112
p400
aVDBCP-111
p401
aVDBCP-110
p402
aVDBCP-109
p403
aVDBCP-108
p404
aVDBCP-107
p405
aVDBCP-106
p406
aVDBCP-105
p407
aVDBCP-104
p408
aVDBCP-103
p409
aVDBCP-102
p410
aVDBCP-101
p411
aVDBCP-100
p412
aVDBCP-99
p413
aVDBCP-98
p414
aVDBCP-97
p415
aVDBCP-96
p416
aVDBCP-95
p417
aVDBCP-94
p418
aVDBCP-93
p419
aVDBCP-92
p420
aVDBCP-91
p421
aVDBCP-90
p422
aVDBCP-89
p423
aVDBCP-88
p424
aVDBCP-87
p425
aVDBCP-86
p426
aVDBCP-85
p427
aVDBCP-84
p428
aVDBCP-83
p429
aVDBCP-82
p430
aVDBCP-81
p431
aVDBCP-80
p432
aVDBCP-79
p433
aVDBCP-78
p434
aVDBCP-77
p435
aVDBCP-76
p436
aVDBCP-75
p437
aVDBCP-74
p438
aVDBCP-73
p439
aVDBCP-72
p440
aVDBCP-71
p441
aVDBCP-70
p442
aVDBCP-69
p443
aVDBCP-68
p444
aVDBCP-67
p445
aVDBCP-66
p446
aVDBCP-65
p447
aVDBCP-64
p448
aVDBCP-63
p449
aVDBCP-62
p450
aVDBCP-61
p451
aVDBCP-60
p452
aVDBCP-59
p453
aVDBCP-58
p454
aVDBCP-57
p455
aVDBCP-56
p456
aVDBCP-55
p457
aVDBCP-54
p458
aVDBCP-52
p459
aVDBCP-51
p460
aVDBCP-50
p461
aVDBCP-49
p462
aVDBCP-48
p463
aVDBCP-47
p464
aVDBCP-46
p465
aVDBCP-45
p466
aVDBCP-44
p467
aVDBCP-43
p468
aVDBCP-42
p469
aVDBCP-41
p470
aVDBCP-40
p471
aVDBCP-39
p472
aVDBCP-38
p473
aVDBCP-37
p474
aVDBCP-36
p475
aVDBCP-35
p476
aVDBCP-34
p477
aVDBCP-33
p478
aVDBCP-32
p479
aVDBCP-31
p480
aVDBCP-30
p481
aVDBCP-29
p482
aVDBCP-28
p483
aVDBCP-27
p484
aVDBCP-26
p485
aVDBCP-25
p486
aVDBCP-24
p487
aVDBCP-23
p488
aVDBCP-22
p489
aVDBCP-21
p490
aVDBCP-20
p491
aVDBCP-19
p492
aVDBCP-18
p493
aVDBCP-17
p494
aVDBCP-16
p495
aVDBCP-15
p496
aVDBCP-14
p497
aVDBCP-13
p498
aVDBCP-12
p499
aVDBCP-11
p500
aVDBCP-10
p501
aVDBCP-9
p502
aVDBCP-8
p503
aVDBCP-7
p504
aVDBCP-6
p505
aVDBCP-5
p506
aVDBCP-4
p507
aVDBCP-3
p508
aVDBCP-2
p509
aVDBCP-1
p510
a.