(lp0
VDBUTILS-140
p1
aVDBUTILS-139
p2
aVDBUTILS-138
p3
aVDBUTILS-137
p4
aVDBUTILS-136
p5
aVDBUTILS-135
p6
aVDBUTILS-134
p7
aVDBUTILS-133
p8
aVDBUTILS-132
p9
aVDBUTILS-131
p10
aVDBUTILS-130
p11
aVDBUTILS-129
p12
aVDBUTILS-128
p13
aVDBUTILS-127
p14
aVDBUTILS-126
p15
aVDBUTILS-125
p16
aVDBUTILS-124
p17
aVDBUTILS-123
p18
aVDBUTILS-122
p19
aVDBUTILS-121
p20
aVDBUTILS-120
p21
aVDBUTILS-119
p22
aVDBUTILS-118
p23
aVDBUTILS-117
p24
aVDBUTILS-116
p25
aVDBUTILS-115
p26
aVDBUTILS-114
p27
aVDBUTILS-113
p28
aVDBUTILS-112
p29
aVDBUTILS-111
p30
aVDBUTILS-110
p31
aVDBUTILS-109
p32
aVDBUTILS-108
p33
aVDBUTILS-107
p34
aVDBUTILS-106
p35
aVDBUTILS-105
p36
aVDBUTILS-104
p37
aVDBUTILS-103
p38
aVDBUTILS-102
p39
aVDBUTILS-101
p40
aVDBUTILS-100
p41
aVDBUTILS-99
p42
aVDBUTILS-98
p43
aVDBUTILS-97
p44
aVDBUTILS-96
p45
aVDBUTILS-95
p46
aVDBUTILS-94
p47
aVDBUTILS-93
p48
aVDBUTILS-92
p49
aVDBUTILS-91
p50
aVDBUTILS-90
p51
aVDBUTILS-89
p52
aVDBUTILS-88
p53
aVDBUTILS-87
p54
aVDBUTILS-86
p55
aVDBUTILS-85
p56
aVDBUTILS-84
p57
aVDBUTILS-83
p58
aVDBUTILS-82
p59
aVDBUTILS-81
p60
aVDBUTILS-80
p61
aVDBUTILS-79
p62
aVDBUTILS-78
p63
aVDBUTILS-77
p64
aVDBUTILS-76
p65
aVDBUTILS-75
p66
aVDBUTILS-74
p67
aVDBUTILS-73
p68
aVDBUTILS-72
p69
aVDBUTILS-71
p70
aVDBUTILS-70
p71
aVDBUTILS-69
p72
aVDBUTILS-68
p73
aVDBUTILS-67
p74
aVDBUTILS-66
p75
aVDBUTILS-65
p76
aVDBUTILS-64
p77
aVDBUTILS-63
p78
aVDBUTILS-62
p79
aVDBUTILS-61
p80
aVDBUTILS-60
p81
aVDBUTILS-59
p82
aVDBUTILS-58
p83
aVDBUTILS-57
p84
aVDBUTILS-56
p85
aVDBUTILS-55
p86
aVDBUTILS-54
p87
aVDBUTILS-53
p88
aVDBUTILS-52
p89
aVDBUTILS-51
p90
aVDBUTILS-50
p91
aVDBUTILS-49
p92
aVDBUTILS-48
p93
aVDBUTILS-47
p94
aVDBUTILS-46
p95
aVDBUTILS-45
p96
aVDBUTILS-44
p97
aVDBUTILS-43
p98
aVDBUTILS-42
p99
aVDBUTILS-41
p100
aVDBUTILS-40
p101
aVDBUTILS-39
p102
aVDBUTILS-38
p103
aVDBUTILS-37
p104
aVDBUTILS-36
p105
aVDBUTILS-35
p106
aVDBUTILS-34
p107
aVDBUTILS-33
p108
aVDBUTILS-32
p109
aVDBUTILS-31
p110
aVDBUTILS-30
p111
aVDBUTILS-29
p112
aVDBUTILS-28
p113
aVDBUTILS-27
p114
aVDBUTILS-26
p115
aVDBUTILS-25
p116
aVDBUTILS-24
p117
aVDBUTILS-23
p118
aVDBUTILS-22
p119
aVDBUTILS-21
p120
aVDBUTILS-20
p121
aVDBUTILS-19
p122
aVDBUTILS-18
p123
aVDBUTILS-17
p124
aVDBUTILS-16
p125
aVDBUTILS-15
p126
aVDBUTILS-14
p127
aVDBUTILS-13
p128
aVDBUTILS-12
p129
aVDBUTILS-11
p130
aVDBUTILS-10
p131
aVDBUTILS-9
p132
aVDBUTILS-8
p133
aVDBUTILS-7
p134
aVDBUTILS-6
p135
aVDBUTILS-5
p136
aVDBUTILS-4
p137
aVDBUTILS-3
p138
aVDBUTILS-2
p139
aVDBUTILS-1
p140
a.