(lp0
VDDLUTILS-289
p1
aVDDLUTILS-288
p2
aVDDLUTILS-287
p3
aVDDLUTILS-286
p4
aVDDLUTILS-285
p5
aVDDLUTILS-284
p6
aVDDLUTILS-283
p7
aVDDLUTILS-282
p8
aVDDLUTILS-281
p9
aVDDLUTILS-280
p10
aVDDLUTILS-279
p11
aVDDLUTILS-278
p12
aVDDLUTILS-277
p13
aVDDLUTILS-276
p14
aVDDLUTILS-275
p15
aVDDLUTILS-274
p16
aVDDLUTILS-273
p17
aVDDLUTILS-272
p18
aVDDLUTILS-271
p19
aVDDLUTILS-270
p20
aVDDLUTILS-269
p21
aVDDLUTILS-268
p22
aVDDLUTILS-267
p23
aVDDLUTILS-266
p24
aVDDLUTILS-265
p25
aVDDLUTILS-264
p26
aVDDLUTILS-263
p27
aVDDLUTILS-262
p28
aVDDLUTILS-261
p29
aVDDLUTILS-260
p30
aVDDLUTILS-259
p31
aVDDLUTILS-258
p32
aVDDLUTILS-257
p33
aVDDLUTILS-256
p34
aVDDLUTILS-255
p35
aVDDLUTILS-254
p36
aVDDLUTILS-253
p37
aVDDLUTILS-252
p38
aVDDLUTILS-251
p39
aVDDLUTILS-250
p40
aVDDLUTILS-249
p41
aVDDLUTILS-248
p42
aVDDLUTILS-247
p43
aVDDLUTILS-246
p44
aVDDLUTILS-245
p45
aVDDLUTILS-244
p46
aVDDLUTILS-243
p47
aVDDLUTILS-242
p48
aVDDLUTILS-241
p49
aVDDLUTILS-240
p50
aVDDLUTILS-239
p51
aVDDLUTILS-238
p52
aVDDLUTILS-237
p53
aVDDLUTILS-236
p54
aVDDLUTILS-235
p55
aVDDLUTILS-234
p56
aVDDLUTILS-233
p57
aVDDLUTILS-232
p58
aVDDLUTILS-231
p59
aVDDLUTILS-230
p60
aVDDLUTILS-229
p61
aVDDLUTILS-228
p62
aVDDLUTILS-227
p63
aVDDLUTILS-226
p64
aVDDLUTILS-225
p65
aVDDLUTILS-224
p66
aVDDLUTILS-223
p67
aVDDLUTILS-222
p68
aVDDLUTILS-221
p69
aVDDLUTILS-220
p70
aVDDLUTILS-219
p71
aVDDLUTILS-218
p72
aVDDLUTILS-217
p73
aVDDLUTILS-216
p74
aVDDLUTILS-215
p75
aVDDLUTILS-214
p76
aVDDLUTILS-213
p77
aVDDLUTILS-212
p78
aVDDLUTILS-211
p79
aVDDLUTILS-210
p80
aVDDLUTILS-209
p81
aVDDLUTILS-208
p82
aVDDLUTILS-207
p83
aVDDLUTILS-206
p84
aVDDLUTILS-205
p85
aVDDLUTILS-204
p86
aVDDLUTILS-203
p87
aVDDLUTILS-202
p88
aVDDLUTILS-201
p89
aVDDLUTILS-200
p90
aVDDLUTILS-199
p91
aVDDLUTILS-198
p92
aVDDLUTILS-197
p93
aVDDLUTILS-196
p94
aVDDLUTILS-195
p95
aVDDLUTILS-194
p96
aVDDLUTILS-193
p97
aVDDLUTILS-192
p98
aVDDLUTILS-191
p99
aVDDLUTILS-190
p100
aVDDLUTILS-189
p101
aVDDLUTILS-188
p102
aVDDLUTILS-187
p103
aVDDLUTILS-186
p104
aVDDLUTILS-185
p105
aVDDLUTILS-184
p106
aVDDLUTILS-183
p107
aVDDLUTILS-182
p108
aVDDLUTILS-181
p109
aVDDLUTILS-180
p110
aVDDLUTILS-179
p111
aVDDLUTILS-178
p112
aVDDLUTILS-177
p113
aVDDLUTILS-176
p114
aVDDLUTILS-175
p115
aVDDLUTILS-174
p116
aVDDLUTILS-173
p117
aVDDLUTILS-172
p118
aVDDLUTILS-171
p119
aVDDLUTILS-170
p120
aVDDLUTILS-169
p121
aVDDLUTILS-168
p122
aVDDLUTILS-167
p123
aVDDLUTILS-166
p124
aVDDLUTILS-165
p125
aVDDLUTILS-164
p126
aVDDLUTILS-163
p127
aVDDLUTILS-162
p128
aVDDLUTILS-161
p129
aVDDLUTILS-160
p130
aVDDLUTILS-159
p131
aVDDLUTILS-158
p132
aVDDLUTILS-157
p133
aVDDLUTILS-156
p134
aVDDLUTILS-155
p135
aVDDLUTILS-154
p136
aVDDLUTILS-153
p137
aVDDLUTILS-152
p138
aVDDLUTILS-151
p139
aVDDLUTILS-150
p140
aVDDLUTILS-149
p141
aVDDLUTILS-148
p142
aVDDLUTILS-147
p143
aVDDLUTILS-146
p144
aVDDLUTILS-145
p145
aVDDLUTILS-144
p146
aVDDLUTILS-143
p147
aVDDLUTILS-142
p148
aVDDLUTILS-141
p149
aVDDLUTILS-140
p150
aVDDLUTILS-139
p151
aVDDLUTILS-138
p152
aVDDLUTILS-137
p153
aVDDLUTILS-136
p154
aVDDLUTILS-135
p155
aVDDLUTILS-134
p156
aVDDLUTILS-133
p157
aVDDLUTILS-132
p158
aVDDLUTILS-131
p159
aVDDLUTILS-130
p160
aVDDLUTILS-129
p161
aVDDLUTILS-128
p162
aVDDLUTILS-127
p163
aVDDLUTILS-126
p164
aVDDLUTILS-125
p165
aVDDLUTILS-124
p166
aVDDLUTILS-123
p167
aVDDLUTILS-122
p168
aVDDLUTILS-121
p169
aVDDLUTILS-120
p170
aVDDLUTILS-119
p171
aVDDLUTILS-118
p172
aVDDLUTILS-117
p173
aVDDLUTILS-116
p174
aVDDLUTILS-115
p175
aVDDLUTILS-114
p176
aVDDLUTILS-113
p177
aVDDLUTILS-112
p178
aVDDLUTILS-111
p179
aVDDLUTILS-110
p180
aVDDLUTILS-109
p181
aVDDLUTILS-108
p182
aVDDLUTILS-107
p183
aVDDLUTILS-106
p184
aVDDLUTILS-105
p185
aVDDLUTILS-104
p186
aVDDLUTILS-103
p187
aVDDLUTILS-102
p188
aVDDLUTILS-101
p189
aVDDLUTILS-100
p190
aVDDLUTILS-99
p191
aVDDLUTILS-98
p192
aVDDLUTILS-97
p193
aVDDLUTILS-96
p194
aVDDLUTILS-95
p195
aVDDLUTILS-94
p196
aVDDLUTILS-93
p197
aVDDLUTILS-92
p198
aVDDLUTILS-91
p199
aVDDLUTILS-90
p200
aVDDLUTILS-89
p201
aVDDLUTILS-88
p202
aVDDLUTILS-87
p203
aVDDLUTILS-86
p204
aVDDLUTILS-85
p205
aVDDLUTILS-84
p206
aVDDLUTILS-83
p207
aVDDLUTILS-82
p208
aVDDLUTILS-81
p209
aVDDLUTILS-80
p210
aVDDLUTILS-79
p211
aVDDLUTILS-78
p212
aVDDLUTILS-77
p213
aVDDLUTILS-76
p214
aVDDLUTILS-75
p215
aVDDLUTILS-74
p216
aVDDLUTILS-73
p217
aVDDLUTILS-72
p218
aVDDLUTILS-71
p219
aVDDLUTILS-70
p220
aVDDLUTILS-69
p221
aVDDLUTILS-68
p222
aVDDLUTILS-67
p223
aVDDLUTILS-66
p224
aVDDLUTILS-65
p225
aVDDLUTILS-64
p226
aVDDLUTILS-63
p227
aVDDLUTILS-62
p228
aVDDLUTILS-61
p229
aVDDLUTILS-60
p230
aVDDLUTILS-59
p231
aVDDLUTILS-58
p232
aVDDLUTILS-57
p233
aVDDLUTILS-56
p234
aVDDLUTILS-55
p235
aVDDLUTILS-54
p236
aVDDLUTILS-53
p237
aVDDLUTILS-52
p238
aVDDLUTILS-51
p239
aVDDLUTILS-50
p240
aVDDLUTILS-49
p241
aVDDLUTILS-48
p242
aVDDLUTILS-47
p243
aVDDLUTILS-46
p244
aVDDLUTILS-45
p245
aVDDLUTILS-44
p246
aVDDLUTILS-43
p247
aVDDLUTILS-42
p248
aVDDLUTILS-41
p249
aVDDLUTILS-40
p250
aVDDLUTILS-39
p251
aVDDLUTILS-38
p252
aVDDLUTILS-37
p253
aVDDLUTILS-36
p254
aVDDLUTILS-35
p255
aVDDLUTILS-34
p256
aVDDLUTILS-33
p257
aVDDLUTILS-32
p258
aVDDLUTILS-31
p259
aVDDLUTILS-30
p260
aVDDLUTILS-29
p261
aVDDLUTILS-28
p262
aVDDLUTILS-27
p263
aVDDLUTILS-26
p264
aVDDLUTILS-25
p265
aVDDLUTILS-24
p266
aVDDLUTILS-23
p267
aVDDLUTILS-22
p268
aVDDLUTILS-21
p269
aVDDLUTILS-20
p270
aVDDLUTILS-19
p271
aVDDLUTILS-18
p272
aVDDLUTILS-17
p273
aVDDLUTILS-16
p274
aVDDLUTILS-15
p275
aVDDLUTILS-14
p276
aVDDLUTILS-13
p277
aVDDLUTILS-12
p278
aVDDLUTILS-11
p279
aVDDLUTILS-10
p280
aVDDLUTILS-9
p281
aVDDLUTILS-8
p282
aVDDLUTILS-7
p283
aVDDLUTILS-6
p284
aVDDLUTILS-5
p285
aVDDLUTILS-4
p286
aVDDLUTILS-3
p287
aVDDLUTILS-2
p288
aVDDLUTILS-1
p289
a.