(lp0
VDELTASPIKE-1353
p1
aVDELTASPIKE-1352
p2
aVDELTASPIKE-1351
p3
aVDELTASPIKE-1350
p4
aVDELTASPIKE-1349
p5
aVDELTASPIKE-1348
p6
aVDELTASPIKE-1347
p7
aVDELTASPIKE-1346
p8
aVDELTASPIKE-1345
p9
aVDELTASPIKE-1344
p10
aVDELTASPIKE-1343
p11
aVDELTASPIKE-1342
p12
aVDELTASPIKE-1341
p13
aVDELTASPIKE-1340
p14
aVDELTASPIKE-1339
p15
aVDELTASPIKE-1338
p16
aVDELTASPIKE-1337
p17
aVDELTASPIKE-1336
p18
aVDELTASPIKE-1335
p19
aVDELTASPIKE-1334
p20
aVDELTASPIKE-1333
p21
aVDELTASPIKE-1332
p22
aVDELTASPIKE-1331
p23
aVDELTASPIKE-1330
p24
aVDELTASPIKE-1329
p25
aVDELTASPIKE-1328
p26
aVDELTASPIKE-1327
p27
aVDELTASPIKE-1326
p28
aVDELTASPIKE-1325
p29
aVDELTASPIKE-1324
p30
aVDELTASPIKE-1323
p31
aVDELTASPIKE-1322
p32
aVDELTASPIKE-1321
p33
aVDELTASPIKE-1320
p34
aVDELTASPIKE-1319
p35
aVDELTASPIKE-1318
p36
aVDELTASPIKE-1317
p37
aVDELTASPIKE-1316
p38
aVDELTASPIKE-1315
p39
aVDELTASPIKE-1314
p40
aVDELTASPIKE-1313
p41
aVDELTASPIKE-1312
p42
aVDELTASPIKE-1311
p43
aVDELTASPIKE-1310
p44
aVDELTASPIKE-1309
p45
aVDELTASPIKE-1308
p46
aVDELTASPIKE-1307
p47
aVDELTASPIKE-1306
p48
aVDELTASPIKE-1305
p49
aVDELTASPIKE-1304
p50
aVDELTASPIKE-1303
p51
aVDELTASPIKE-1302
p52
aVDELTASPIKE-1301
p53
aVDELTASPIKE-1300
p54
aVDELTASPIKE-1299
p55
aVDELTASPIKE-1298
p56
aVDELTASPIKE-1297
p57
aVDELTASPIKE-1296
p58
aVDELTASPIKE-1295
p59
aVDELTASPIKE-1294
p60
aVDELTASPIKE-1293
p61
aVDELTASPIKE-1292
p62
aVDELTASPIKE-1291
p63
aVDELTASPIKE-1290
p64
aVDELTASPIKE-1289
p65
aVDELTASPIKE-1288
p66
aVDELTASPIKE-1287
p67
aVDELTASPIKE-1286
p68
aVDELTASPIKE-1285
p69
aVDELTASPIKE-1284
p70
aVDELTASPIKE-1283
p71
aVDELTASPIKE-1282
p72
aVDELTASPIKE-1281
p73
aVDELTASPIKE-1280
p74
aVDELTASPIKE-1279
p75
aVDELTASPIKE-1278
p76
aVDELTASPIKE-1277
p77
aVDELTASPIKE-1276
p78
aVDELTASPIKE-1275
p79
aVDELTASPIKE-1274
p80
aVDELTASPIKE-1273
p81
aVDELTASPIKE-1272
p82
aVDELTASPIKE-1271
p83
aVDELTASPIKE-1270
p84
aVDELTASPIKE-1269
p85
aVDELTASPIKE-1268
p86
aVDELTASPIKE-1267
p87
aVDELTASPIKE-1266
p88
aVDELTASPIKE-1265
p89
aVDELTASPIKE-1264
p90
aVDELTASPIKE-1263
p91
aVDELTASPIKE-1262
p92
aVDELTASPIKE-1261
p93
aVDELTASPIKE-1260
p94
aVDELTASPIKE-1259
p95
aVDELTASPIKE-1258
p96
aVDELTASPIKE-1257
p97
aVDELTASPIKE-1256
p98
aVDELTASPIKE-1255
p99
aVDELTASPIKE-1254
p100
aVDELTASPIKE-1253
p101
aVDELTASPIKE-1252
p102
aVDELTASPIKE-1251
p103
aVDELTASPIKE-1250
p104
aVDELTASPIKE-1249
p105
aVDELTASPIKE-1248
p106
aVDELTASPIKE-1247
p107
aVDELTASPIKE-1246
p108
aVDELTASPIKE-1245
p109
aVDELTASPIKE-1244
p110
aVDELTASPIKE-1243
p111
aVDELTASPIKE-1242
p112
aVDELTASPIKE-1241
p113
aVDELTASPIKE-1240
p114
aVDELTASPIKE-1239
p115
aVDELTASPIKE-1238
p116
aVDELTASPIKE-1237
p117
aVDELTASPIKE-1236
p118
aVDELTASPIKE-1235
p119
aVDELTASPIKE-1234
p120
aVDELTASPIKE-1233
p121
aVDELTASPIKE-1232
p122
aVDELTASPIKE-1231
p123
aVDELTASPIKE-1230
p124
aVDELTASPIKE-1229
p125
aVDELTASPIKE-1228
p126
aVDELTASPIKE-1227
p127
aVDELTASPIKE-1226
p128
aVDELTASPIKE-1225
p129
aVDELTASPIKE-1224
p130
aVDELTASPIKE-1223
p131
aVDELTASPIKE-1222
p132
aVDELTASPIKE-1221
p133
aVDELTASPIKE-1220
p134
aVDELTASPIKE-1219
p135
aVDELTASPIKE-1218
p136
aVDELTASPIKE-1217
p137
aVDELTASPIKE-1216
p138
aVDELTASPIKE-1215
p139
aVDELTASPIKE-1214
p140
aVDELTASPIKE-1213
p141
aVDELTASPIKE-1212
p142
aVDELTASPIKE-1211
p143
aVDELTASPIKE-1210
p144
aVDELTASPIKE-1209
p145
aVDELTASPIKE-1208
p146
aVDELTASPIKE-1207
p147
aVDELTASPIKE-1206
p148
aVDELTASPIKE-1205
p149
aVDELTASPIKE-1204
p150
aVDELTASPIKE-1203
p151
aVDELTASPIKE-1202
p152
aVDELTASPIKE-1201
p153
aVDELTASPIKE-1200
p154
aVDELTASPIKE-1199
p155
aVDELTASPIKE-1198
p156
aVDELTASPIKE-1197
p157
aVDELTASPIKE-1196
p158
aVDELTASPIKE-1195
p159
aVDELTASPIKE-1194
p160
aVDELTASPIKE-1193
p161
aVDELTASPIKE-1192
p162
aVDELTASPIKE-1191
p163
aVDELTASPIKE-1190
p164
aVDELTASPIKE-1189
p165
aVDELTASPIKE-1188
p166
aVDELTASPIKE-1187
p167
aVDELTASPIKE-1186
p168
aVDELTASPIKE-1185
p169
aVDELTASPIKE-1184
p170
aVDELTASPIKE-1183
p171
aVDELTASPIKE-1182
p172
aVDELTASPIKE-1181
p173
aVDELTASPIKE-1180
p174
aVDELTASPIKE-1179
p175
aVDELTASPIKE-1178
p176
aVDELTASPIKE-1177
p177
aVDELTASPIKE-1176
p178
aVDELTASPIKE-1175
p179
aVDELTASPIKE-1174
p180
aVDELTASPIKE-1173
p181
aVDELTASPIKE-1172
p182
aVDELTASPIKE-1171
p183
aVDELTASPIKE-1170
p184
aVDELTASPIKE-1169
p185
aVDELTASPIKE-1168
p186
aVDELTASPIKE-1167
p187
aVDELTASPIKE-1166
p188
aVDELTASPIKE-1165
p189
aVDELTASPIKE-1164
p190
aVDELTASPIKE-1163
p191
aVDELTASPIKE-1162
p192
aVDELTASPIKE-1161
p193
aVDELTASPIKE-1160
p194
aVDELTASPIKE-1159
p195
aVDELTASPIKE-1158
p196
aVDELTASPIKE-1157
p197
aVDELTASPIKE-1156
p198
aVDELTASPIKE-1155
p199
aVDELTASPIKE-1154
p200
aVDELTASPIKE-1153
p201
aVDELTASPIKE-1152
p202
aVDELTASPIKE-1151
p203
aVDELTASPIKE-1150
p204
aVDELTASPIKE-1149
p205
aVDELTASPIKE-1148
p206
aVDELTASPIKE-1147
p207
aVDELTASPIKE-1146
p208
aVDELTASPIKE-1145
p209
aVDELTASPIKE-1144
p210
aVDELTASPIKE-1143
p211
aVDELTASPIKE-1142
p212
aVDELTASPIKE-1141
p213
aVDELTASPIKE-1140
p214
aVDELTASPIKE-1139
p215
aVDELTASPIKE-1138
p216
aVDELTASPIKE-1137
p217
aVDELTASPIKE-1136
p218
aVDELTASPIKE-1135
p219
aVDELTASPIKE-1134
p220
aVDELTASPIKE-1133
p221
aVDELTASPIKE-1132
p222
aVDELTASPIKE-1131
p223
aVDELTASPIKE-1130
p224
aVDELTASPIKE-1129
p225
aVDELTASPIKE-1128
p226
aVDELTASPIKE-1127
p227
aVDELTASPIKE-1126
p228
aVDELTASPIKE-1125
p229
aVDELTASPIKE-1124
p230
aVDELTASPIKE-1123
p231
aVDELTASPIKE-1122
p232
aVDELTASPIKE-1121
p233
aVDELTASPIKE-1120
p234
aVDELTASPIKE-1119
p235
aVDELTASPIKE-1118
p236
aVDELTASPIKE-1117
p237
aVDELTASPIKE-1116
p238
aVDELTASPIKE-1115
p239
aVDELTASPIKE-1114
p240
aVDELTASPIKE-1113
p241
aVDELTASPIKE-1112
p242
aVDELTASPIKE-1111
p243
aVDELTASPIKE-1110
p244
aVDELTASPIKE-1109
p245
aVDELTASPIKE-1108
p246
aVDELTASPIKE-1107
p247
aVDELTASPIKE-1106
p248
aVDELTASPIKE-1105
p249
aVDELTASPIKE-1104
p250
aVDELTASPIKE-1103
p251
aVDELTASPIKE-1102
p252
aVDELTASPIKE-1101
p253
aVDELTASPIKE-1100
p254
aVDELTASPIKE-1099
p255
aVDELTASPIKE-1098
p256
aVDELTASPIKE-1097
p257
aVDELTASPIKE-1096
p258
aVDELTASPIKE-1095
p259
aVDELTASPIKE-1094
p260
aVDELTASPIKE-1093
p261
aVDELTASPIKE-1092
p262
aVDELTASPIKE-1091
p263
aVDELTASPIKE-1090
p264
aVDELTASPIKE-1089
p265
aVDELTASPIKE-1088
p266
aVDELTASPIKE-1087
p267
aVDELTASPIKE-1086
p268
aVDELTASPIKE-1085
p269
aVDELTASPIKE-1084
p270
aVDELTASPIKE-1083
p271
aVDELTASPIKE-1082
p272
aVDELTASPIKE-1081
p273
aVDELTASPIKE-1080
p274
aVDELTASPIKE-1079
p275
aVDELTASPIKE-1078
p276
aVDELTASPIKE-1077
p277
aVDELTASPIKE-1076
p278
aVDELTASPIKE-1075
p279
aVDELTASPIKE-1074
p280
aVDELTASPIKE-1073
p281
aVDELTASPIKE-1072
p282
aVDELTASPIKE-1071
p283
aVDELTASPIKE-1070
p284
aVDELTASPIKE-1069
p285
aVDELTASPIKE-1068
p286
aVDELTASPIKE-1067
p287
aVDELTASPIKE-1066
p288
aVDELTASPIKE-1065
p289
aVDELTASPIKE-1064
p290
aVDELTASPIKE-1063
p291
aVDELTASPIKE-1062
p292
aVDELTASPIKE-1061
p293
aVDELTASPIKE-1060
p294
aVDELTASPIKE-1059
p295
aVDELTASPIKE-1058
p296
aVDELTASPIKE-1057
p297
aVDELTASPIKE-1056
p298
aVDELTASPIKE-1055
p299
aVDELTASPIKE-1054
p300
aVDELTASPIKE-1053
p301
aVDELTASPIKE-1052
p302
aVDELTASPIKE-1051
p303
aVDELTASPIKE-1050
p304
aVDELTASPIKE-1049
p305
aVDELTASPIKE-1048
p306
aVDELTASPIKE-1047
p307
aVDELTASPIKE-1046
p308
aVDELTASPIKE-1045
p309
aVDELTASPIKE-1044
p310
aVDELTASPIKE-1043
p311
aVDELTASPIKE-1042
p312
aVDELTASPIKE-1041
p313
aVDELTASPIKE-1040
p314
aVDELTASPIKE-1039
p315
aVDELTASPIKE-1038
p316
aVDELTASPIKE-1037
p317
aVDELTASPIKE-1036
p318
aVDELTASPIKE-1035
p319
aVDELTASPIKE-1034
p320
aVDELTASPIKE-1033
p321
aVDELTASPIKE-1032
p322
aVDELTASPIKE-1031
p323
aVDELTASPIKE-1030
p324
aVDELTASPIKE-1029
p325
aVDELTASPIKE-1028
p326
aVDELTASPIKE-1027
p327
aVDELTASPIKE-1026
p328
aVDELTASPIKE-1025
p329
aVDELTASPIKE-1024
p330
aVDELTASPIKE-1023
p331
aVDELTASPIKE-1022
p332
aVDELTASPIKE-1021
p333
aVDELTASPIKE-1020
p334
aVDELTASPIKE-1019
p335
aVDELTASPIKE-1018
p336
aVDELTASPIKE-1017
p337
aVDELTASPIKE-1016
p338
aVDELTASPIKE-1015
p339
aVDELTASPIKE-1014
p340
aVDELTASPIKE-1013
p341
aVDELTASPIKE-1012
p342
aVDELTASPIKE-1011
p343
aVDELTASPIKE-1010
p344
aVDELTASPIKE-1009
p345
aVDELTASPIKE-1008
p346
aVDELTASPIKE-1007
p347
aVDELTASPIKE-1006
p348
aVDELTASPIKE-1005
p349
aVDELTASPIKE-1004
p350
aVDELTASPIKE-1003
p351
aVDELTASPIKE-1002
p352
aVDELTASPIKE-1001
p353
aVDELTASPIKE-1000
p354
aVDELTASPIKE-999
p355
aVDELTASPIKE-998
p356
aVDELTASPIKE-997
p357
aVDELTASPIKE-996
p358
aVDELTASPIKE-995
p359
aVDELTASPIKE-994
p360
aVDELTASPIKE-993
p361
aVDELTASPIKE-992
p362
aVDELTASPIKE-991
p363
aVDELTASPIKE-990
p364
aVDELTASPIKE-989
p365
aVDELTASPIKE-988
p366
aVDELTASPIKE-987
p367
aVDELTASPIKE-986
p368
aVDELTASPIKE-985
p369
aVDELTASPIKE-984
p370
aVDELTASPIKE-983
p371
aVDELTASPIKE-982
p372
aVDELTASPIKE-981
p373
aVDELTASPIKE-980
p374
aVDELTASPIKE-979
p375
aVDELTASPIKE-978
p376
aVDELTASPIKE-977
p377
aVDELTASPIKE-976
p378
aVDELTASPIKE-975
p379
aVDELTASPIKE-974
p380
aVDELTASPIKE-973
p381
aVDELTASPIKE-972
p382
aVDELTASPIKE-971
p383
aVDELTASPIKE-970
p384
aVDELTASPIKE-969
p385
aVDELTASPIKE-968
p386
aVDELTASPIKE-967
p387
aVDELTASPIKE-966
p388
aVDELTASPIKE-965
p389
aVDELTASPIKE-964
p390
aVDELTASPIKE-963
p391
aVDELTASPIKE-962
p392
aVDELTASPIKE-961
p393
aVDELTASPIKE-960
p394
aVDELTASPIKE-959
p395
aVDELTASPIKE-958
p396
aVDELTASPIKE-957
p397
aVDELTASPIKE-956
p398
aVDELTASPIKE-955
p399
aVDELTASPIKE-954
p400
aVDELTASPIKE-953
p401
aVDELTASPIKE-952
p402
aVDELTASPIKE-951
p403
aVDELTASPIKE-950
p404
aVDELTASPIKE-949
p405
aVDELTASPIKE-948
p406
aVDELTASPIKE-947
p407
aVDELTASPIKE-946
p408
aVDELTASPIKE-945
p409
aVDELTASPIKE-944
p410
aVDELTASPIKE-943
p411
aVDELTASPIKE-942
p412
aVDELTASPIKE-941
p413
aVDELTASPIKE-940
p414
aVDELTASPIKE-939
p415
aVDELTASPIKE-938
p416
aVDELTASPIKE-937
p417
aVDELTASPIKE-936
p418
aVDELTASPIKE-935
p419
aVDELTASPIKE-934
p420
aVDELTASPIKE-933
p421
aVDELTASPIKE-932
p422
aVDELTASPIKE-931
p423
aVDELTASPIKE-930
p424
aVDELTASPIKE-929
p425
aVDELTASPIKE-928
p426
aVDELTASPIKE-927
p427
aVDELTASPIKE-926
p428
aVDELTASPIKE-925
p429
aVDELTASPIKE-924
p430
aVDELTASPIKE-923
p431
aVDELTASPIKE-922
p432
aVDELTASPIKE-921
p433
aVDELTASPIKE-920
p434
aVDELTASPIKE-919
p435
aVDELTASPIKE-918
p436
aVDELTASPIKE-917
p437
aVDELTASPIKE-916
p438
aVDELTASPIKE-915
p439
aVDELTASPIKE-914
p440
aVDELTASPIKE-913
p441
aVDELTASPIKE-912
p442
aVDELTASPIKE-911
p443
aVDELTASPIKE-910
p444
aVDELTASPIKE-909
p445
aVDELTASPIKE-908
p446
aVDELTASPIKE-907
p447
aVDELTASPIKE-906
p448
aVDELTASPIKE-905
p449
aVDELTASPIKE-904
p450
aVDELTASPIKE-903
p451
aVDELTASPIKE-902
p452
aVDELTASPIKE-901
p453
aVDELTASPIKE-900
p454
aVDELTASPIKE-899
p455
aVDELTASPIKE-898
p456
aVDELTASPIKE-897
p457
aVDELTASPIKE-896
p458
aVDELTASPIKE-895
p459
aVDELTASPIKE-894
p460
aVDELTASPIKE-893
p461
aVDELTASPIKE-892
p462
aVDELTASPIKE-891
p463
aVDELTASPIKE-890
p464
aVDELTASPIKE-889
p465
aVDELTASPIKE-888
p466
aVDELTASPIKE-887
p467
aVDELTASPIKE-886
p468
aVDELTASPIKE-885
p469
aVDELTASPIKE-884
p470
aVDELTASPIKE-883
p471
aVDELTASPIKE-882
p472
aVDELTASPIKE-881
p473
aVDELTASPIKE-880
p474
aVDELTASPIKE-879
p475
aVDELTASPIKE-878
p476
aVDELTASPIKE-877
p477
aVDELTASPIKE-876
p478
aVDELTASPIKE-875
p479
aVDELTASPIKE-874
p480
aVDELTASPIKE-873
p481
aVDELTASPIKE-872
p482
aVDELTASPIKE-871
p483
aVDELTASPIKE-870
p484
aVDELTASPIKE-869
p485
aVDELTASPIKE-868
p486
aVDELTASPIKE-867
p487
aVDELTASPIKE-866
p488
aVDELTASPIKE-865
p489
aVDELTASPIKE-864
p490
aVDELTASPIKE-863
p491
aVDELTASPIKE-862
p492
aVDELTASPIKE-861
p493
aVDELTASPIKE-860
p494
aVDELTASPIKE-859
p495
aVDELTASPIKE-858
p496
aVDELTASPIKE-857
p497
aVDELTASPIKE-856
p498
aVDELTASPIKE-855
p499
aVDELTASPIKE-854
p500
aVDELTASPIKE-853
p501
aVDELTASPIKE-852
p502
aVDELTASPIKE-851
p503
aVDELTASPIKE-850
p504
aVDELTASPIKE-849
p505
aVDELTASPIKE-848
p506
aVDELTASPIKE-847
p507
aVDELTASPIKE-846
p508
aVDELTASPIKE-845
p509
aVDELTASPIKE-844
p510
aVDELTASPIKE-843
p511
aVDELTASPIKE-842
p512
aVDELTASPIKE-841
p513
aVDELTASPIKE-840
p514
aVDELTASPIKE-839
p515
aVDELTASPIKE-838
p516
aVDELTASPIKE-837
p517
aVDELTASPIKE-836
p518
aVDELTASPIKE-835
p519
aVDELTASPIKE-834
p520
aVDELTASPIKE-833
p521
aVDELTASPIKE-832
p522
aVDELTASPIKE-831
p523
aVDELTASPIKE-830
p524
aVDELTASPIKE-829
p525
aVDELTASPIKE-828
p526
aVDELTASPIKE-827
p527
aVDELTASPIKE-826
p528
aVDELTASPIKE-825
p529
aVDELTASPIKE-824
p530
aVDELTASPIKE-823
p531
aVDELTASPIKE-822
p532
aVDELTASPIKE-821
p533
aVDELTASPIKE-820
p534
aVDELTASPIKE-819
p535
aVDELTASPIKE-818
p536
aVDELTASPIKE-817
p537
aVDELTASPIKE-816
p538
aVDELTASPIKE-815
p539
aVDELTASPIKE-814
p540
aVDELTASPIKE-813
p541
aVDELTASPIKE-812
p542
aVDELTASPIKE-811
p543
aVDELTASPIKE-810
p544
aVDELTASPIKE-809
p545
aVDELTASPIKE-808
p546
aVDELTASPIKE-807
p547
aVDELTASPIKE-806
p548
aVDELTASPIKE-805
p549
aVDELTASPIKE-804
p550
aVDELTASPIKE-803
p551
aVDELTASPIKE-802
p552
aVDELTASPIKE-801
p553
aVDELTASPIKE-800
p554
aVDELTASPIKE-799
p555
aVDELTASPIKE-798
p556
aVDELTASPIKE-797
p557
aVDELTASPIKE-796
p558
aVDELTASPIKE-795
p559
aVDELTASPIKE-794
p560
aVDELTASPIKE-793
p561
aVDELTASPIKE-792
p562
aVDELTASPIKE-791
p563
aVDELTASPIKE-790
p564
aVDELTASPIKE-789
p565
aVDELTASPIKE-788
p566
aVDELTASPIKE-787
p567
aVDELTASPIKE-786
p568
aVDELTASPIKE-785
p569
aVDELTASPIKE-784
p570
aVDELTASPIKE-783
p571
aVDELTASPIKE-782
p572
aVDELTASPIKE-781
p573
aVDELTASPIKE-780
p574
aVDELTASPIKE-779
p575
aVDELTASPIKE-778
p576
aVDELTASPIKE-777
p577
aVDELTASPIKE-776
p578
aVDELTASPIKE-775
p579
aVDELTASPIKE-774
p580
aVDELTASPIKE-773
p581
aVDELTASPIKE-772
p582
aVDELTASPIKE-771
p583
aVDELTASPIKE-770
p584
aVDELTASPIKE-769
p585
aVDELTASPIKE-768
p586
aVDELTASPIKE-767
p587
aVDELTASPIKE-766
p588
aVDELTASPIKE-765
p589
aVDELTASPIKE-764
p590
aVDELTASPIKE-763
p591
aVDELTASPIKE-762
p592
aVDELTASPIKE-761
p593
aVDELTASPIKE-760
p594
aVDELTASPIKE-759
p595
aVDELTASPIKE-758
p596
aVDELTASPIKE-757
p597
aVDELTASPIKE-756
p598
aVDELTASPIKE-755
p599
aVDELTASPIKE-754
p600
aVDELTASPIKE-753
p601
aVDELTASPIKE-752
p602
aVDELTASPIKE-751
p603
aVDELTASPIKE-750
p604
aVDELTASPIKE-749
p605
aVDELTASPIKE-748
p606
aVDELTASPIKE-747
p607
aVDELTASPIKE-746
p608
aVDELTASPIKE-745
p609
aVDELTASPIKE-744
p610
aVDELTASPIKE-743
p611
aVDELTASPIKE-742
p612
aVDELTASPIKE-741
p613
aVDELTASPIKE-740
p614
aVDELTASPIKE-739
p615
aVDELTASPIKE-738
p616
aVDELTASPIKE-737
p617
aVDELTASPIKE-736
p618
aVDELTASPIKE-735
p619
aVDELTASPIKE-734
p620
aVDELTASPIKE-733
p621
aVDELTASPIKE-732
p622
aVDELTASPIKE-731
p623
aVDELTASPIKE-730
p624
aVDELTASPIKE-729
p625
aVDELTASPIKE-728
p626
aVDELTASPIKE-727
p627
aVDELTASPIKE-726
p628
aVDELTASPIKE-725
p629
aVDELTASPIKE-724
p630
aVDELTASPIKE-723
p631
aVDELTASPIKE-722
p632
aVDELTASPIKE-721
p633
aVDELTASPIKE-720
p634
aVDELTASPIKE-719
p635
aVDELTASPIKE-718
p636
aVDELTASPIKE-717
p637
aVDELTASPIKE-716
p638
aVDELTASPIKE-715
p639
aVDELTASPIKE-714
p640
aVDELTASPIKE-713
p641
aVDELTASPIKE-712
p642
aVDELTASPIKE-711
p643
aVDELTASPIKE-710
p644
aVDELTASPIKE-709
p645
aVDELTASPIKE-708
p646
aVDELTASPIKE-707
p647
aVDELTASPIKE-706
p648
aVDELTASPIKE-705
p649
aVDELTASPIKE-704
p650
aVDELTASPIKE-703
p651
aVDELTASPIKE-702
p652
aVDELTASPIKE-701
p653
aVDELTASPIKE-700
p654
aVDELTASPIKE-699
p655
aVDELTASPIKE-698
p656
aVDELTASPIKE-697
p657
aVDELTASPIKE-696
p658
aVDELTASPIKE-695
p659
aVDELTASPIKE-694
p660
aVDELTASPIKE-693
p661
aVDELTASPIKE-692
p662
aVDELTASPIKE-691
p663
aVDELTASPIKE-690
p664
aVDELTASPIKE-689
p665
aVDELTASPIKE-688
p666
aVDELTASPIKE-687
p667
aVDELTASPIKE-686
p668
aVDELTASPIKE-685
p669
aVDELTASPIKE-684
p670
aVDELTASPIKE-683
p671
aVDELTASPIKE-682
p672
aVDELTASPIKE-681
p673
aVDELTASPIKE-680
p674
aVDELTASPIKE-679
p675
aVDELTASPIKE-678
p676
aVDELTASPIKE-677
p677
aVDELTASPIKE-676
p678
aVDELTASPIKE-675
p679
aVDELTASPIKE-674
p680
aVDELTASPIKE-673
p681
aVDELTASPIKE-672
p682
aVDELTASPIKE-671
p683
aVDELTASPIKE-670
p684
aVDELTASPIKE-669
p685
aVDELTASPIKE-668
p686
aVDELTASPIKE-667
p687
aVDELTASPIKE-666
p688
aVDELTASPIKE-665
p689
aVDELTASPIKE-664
p690
aVDELTASPIKE-663
p691
aVDELTASPIKE-662
p692
aVDELTASPIKE-661
p693
aVDELTASPIKE-660
p694
aVDELTASPIKE-659
p695
aVDELTASPIKE-658
p696
aVDELTASPIKE-657
p697
aVDELTASPIKE-656
p698
aVDELTASPIKE-655
p699
aVDELTASPIKE-654
p700
aVDELTASPIKE-653
p701
aVDELTASPIKE-652
p702
aVDELTASPIKE-651
p703
aVDELTASPIKE-650
p704
aVDELTASPIKE-649
p705
aVDELTASPIKE-648
p706
aVDELTASPIKE-647
p707
aVDELTASPIKE-646
p708
aVDELTASPIKE-645
p709
aVDELTASPIKE-644
p710
aVDELTASPIKE-643
p711
aVDELTASPIKE-642
p712
aVDELTASPIKE-641
p713
aVDELTASPIKE-640
p714
aVDELTASPIKE-639
p715
aVDELTASPIKE-638
p716
aVDELTASPIKE-637
p717
aVDELTASPIKE-636
p718
aVDELTASPIKE-635
p719
aVDELTASPIKE-634
p720
aVDELTASPIKE-633
p721
aVDELTASPIKE-632
p722
aVDELTASPIKE-631
p723
aVDELTASPIKE-630
p724
aVDELTASPIKE-629
p725
aVDELTASPIKE-628
p726
aVDELTASPIKE-627
p727
aVDELTASPIKE-626
p728
aVDELTASPIKE-625
p729
aVDELTASPIKE-624
p730
aVDELTASPIKE-623
p731
aVDELTASPIKE-622
p732
aVDELTASPIKE-621
p733
aVDELTASPIKE-620
p734
aVDELTASPIKE-619
p735
aVDELTASPIKE-618
p736
aVDELTASPIKE-617
p737
aVDELTASPIKE-616
p738
aVDELTASPIKE-615
p739
aVDELTASPIKE-614
p740
aVDELTASPIKE-613
p741
aVDELTASPIKE-612
p742
aVDELTASPIKE-611
p743
aVDELTASPIKE-610
p744
aVDELTASPIKE-609
p745
aVDELTASPIKE-608
p746
aVDELTASPIKE-607
p747
aVDELTASPIKE-606
p748
aVDELTASPIKE-605
p749
aVDELTASPIKE-604
p750
aVDELTASPIKE-603
p751
aVDELTASPIKE-602
p752
aVDELTASPIKE-601
p753
aVDELTASPIKE-600
p754
aVDELTASPIKE-599
p755
aVDELTASPIKE-598
p756
aVDELTASPIKE-597
p757
aVDELTASPIKE-596
p758
aVDELTASPIKE-595
p759
aVDELTASPIKE-594
p760
aVDELTASPIKE-593
p761
aVDELTASPIKE-592
p762
aVDELTASPIKE-591
p763
aVDELTASPIKE-590
p764
aVDELTASPIKE-589
p765
aVDELTASPIKE-588
p766
aVDELTASPIKE-587
p767
aVDELTASPIKE-586
p768
aVDELTASPIKE-585
p769
aVDELTASPIKE-584
p770
aVDELTASPIKE-583
p771
aVDELTASPIKE-582
p772
aVDELTASPIKE-581
p773
aVDELTASPIKE-580
p774
aVDELTASPIKE-579
p775
aVDELTASPIKE-578
p776
aVDELTASPIKE-577
p777
aVDELTASPIKE-576
p778
aVDELTASPIKE-575
p779
aVDELTASPIKE-574
p780
aVDELTASPIKE-573
p781
aVDELTASPIKE-572
p782
aVDELTASPIKE-571
p783
aVDELTASPIKE-570
p784
aVDELTASPIKE-569
p785
aVDELTASPIKE-568
p786
aVDELTASPIKE-567
p787
aVDELTASPIKE-566
p788
aVDELTASPIKE-565
p789
aVDELTASPIKE-564
p790
aVDELTASPIKE-563
p791
aVDELTASPIKE-562
p792
aVDELTASPIKE-561
p793
aVDELTASPIKE-560
p794
aVDELTASPIKE-559
p795
aVDELTASPIKE-558
p796
aVDELTASPIKE-557
p797
aVDELTASPIKE-556
p798
aVDELTASPIKE-555
p799
aVDELTASPIKE-554
p800
aVDELTASPIKE-553
p801
aVDELTASPIKE-552
p802
aVDELTASPIKE-551
p803
aVDELTASPIKE-550
p804
aVDELTASPIKE-549
p805
aVDELTASPIKE-548
p806
aVDELTASPIKE-547
p807
aVDELTASPIKE-546
p808
aVDELTASPIKE-545
p809
aVDELTASPIKE-544
p810
aVDELTASPIKE-543
p811
aVDELTASPIKE-542
p812
aVDELTASPIKE-541
p813
aVDELTASPIKE-540
p814
aVDELTASPIKE-539
p815
aVDELTASPIKE-538
p816
aVDELTASPIKE-537
p817
aVDELTASPIKE-536
p818
aVDELTASPIKE-535
p819
aVDELTASPIKE-534
p820
aVDELTASPIKE-533
p821
aVDELTASPIKE-532
p822
aVDELTASPIKE-531
p823
aVDELTASPIKE-530
p824
aVDELTASPIKE-529
p825
aVDELTASPIKE-528
p826
aVDELTASPIKE-527
p827
aVDELTASPIKE-526
p828
aVDELTASPIKE-525
p829
aVDELTASPIKE-524
p830
aVDELTASPIKE-523
p831
aVDELTASPIKE-522
p832
aVDELTASPIKE-521
p833
aVDELTASPIKE-520
p834
aVDELTASPIKE-519
p835
aVDELTASPIKE-518
p836
aVDELTASPIKE-517
p837
aVDELTASPIKE-516
p838
aVDELTASPIKE-515
p839
aVDELTASPIKE-514
p840
aVDELTASPIKE-513
p841
aVDELTASPIKE-512
p842
aVDELTASPIKE-511
p843
aVDELTASPIKE-510
p844
aVDELTASPIKE-509
p845
aVDELTASPIKE-508
p846
aVDELTASPIKE-507
p847
aVDELTASPIKE-506
p848
aVDELTASPIKE-505
p849
aVDELTASPIKE-504
p850
aVDELTASPIKE-503
p851
aVDELTASPIKE-502
p852
aVDELTASPIKE-501
p853
aVDELTASPIKE-500
p854
aVDELTASPIKE-499
p855
aVDELTASPIKE-498
p856
aVDELTASPIKE-497
p857
aVDELTASPIKE-496
p858
aVDELTASPIKE-495
p859
aVDELTASPIKE-494
p860
aVDELTASPIKE-493
p861
aVDELTASPIKE-492
p862
aVDELTASPIKE-491
p863
aVDELTASPIKE-490
p864
aVDELTASPIKE-489
p865
aVDELTASPIKE-488
p866
aVDELTASPIKE-487
p867
aVDELTASPIKE-486
p868
aVDELTASPIKE-485
p869
aVDELTASPIKE-484
p870
aVDELTASPIKE-483
p871
aVDELTASPIKE-482
p872
aVDELTASPIKE-481
p873
aVDELTASPIKE-480
p874
aVDELTASPIKE-479
p875
aVDELTASPIKE-478
p876
aVDELTASPIKE-477
p877
aVDELTASPIKE-476
p878
aVDELTASPIKE-475
p879
aVDELTASPIKE-474
p880
aVDELTASPIKE-473
p881
aVDELTASPIKE-472
p882
aVDELTASPIKE-471
p883
aVDELTASPIKE-470
p884
aVDELTASPIKE-469
p885
aVDELTASPIKE-468
p886
aVDELTASPIKE-467
p887
aVDELTASPIKE-466
p888
aVDELTASPIKE-465
p889
aVDELTASPIKE-464
p890
aVDELTASPIKE-463
p891
aVDELTASPIKE-462
p892
aVDELTASPIKE-461
p893
aVDELTASPIKE-460
p894
aVDELTASPIKE-459
p895
aVDELTASPIKE-458
p896
aVDELTASPIKE-457
p897
aVDELTASPIKE-456
p898
aVDELTASPIKE-455
p899
aVDELTASPIKE-454
p900
aVDELTASPIKE-453
p901
aVDELTASPIKE-452
p902
aVDELTASPIKE-451
p903
aVDELTASPIKE-450
p904
aVDELTASPIKE-449
p905
aVDELTASPIKE-448
p906
aVDELTASPIKE-447
p907
aVDELTASPIKE-446
p908
aVDELTASPIKE-445
p909
aVDELTASPIKE-444
p910
aVDELTASPIKE-443
p911
aVDELTASPIKE-442
p912
aVDELTASPIKE-441
p913
aVDELTASPIKE-440
p914
aVDELTASPIKE-439
p915
aVDELTASPIKE-438
p916
aVDELTASPIKE-437
p917
aVDELTASPIKE-436
p918
aVDELTASPIKE-435
p919
aVDELTASPIKE-434
p920
aVDELTASPIKE-433
p921
aVDELTASPIKE-432
p922
aVDELTASPIKE-431
p923
aVDELTASPIKE-430
p924
aVDELTASPIKE-429
p925
aVDELTASPIKE-428
p926
aVDELTASPIKE-427
p927
aVDELTASPIKE-426
p928
aVDELTASPIKE-425
p929
aVDELTASPIKE-424
p930
aVDELTASPIKE-423
p931
aVDELTASPIKE-422
p932
aVDELTASPIKE-421
p933
aVDELTASPIKE-420
p934
aVDELTASPIKE-419
p935
aVDELTASPIKE-418
p936
aVDELTASPIKE-417
p937
aVDELTASPIKE-416
p938
aVDELTASPIKE-415
p939
aVDELTASPIKE-414
p940
aVDELTASPIKE-413
p941
aVDELTASPIKE-412
p942
aVDELTASPIKE-411
p943
aVDELTASPIKE-410
p944
aVDELTASPIKE-409
p945
aVDELTASPIKE-408
p946
aVDELTASPIKE-407
p947
aVDELTASPIKE-406
p948
aVDELTASPIKE-405
p949
aVDELTASPIKE-404
p950
aVDELTASPIKE-403
p951
aVDELTASPIKE-402
p952
aVDELTASPIKE-401
p953
aVDELTASPIKE-400
p954
aVDELTASPIKE-399
p955
aVDELTASPIKE-398
p956
aVDELTASPIKE-397
p957
aVDELTASPIKE-396
p958
aVDELTASPIKE-395
p959
aVDELTASPIKE-394
p960
aVDELTASPIKE-393
p961
aVDELTASPIKE-392
p962
aVDELTASPIKE-391
p963
aVDELTASPIKE-390
p964
aVDELTASPIKE-389
p965
aVDELTASPIKE-388
p966
aVDELTASPIKE-387
p967
aVDELTASPIKE-386
p968
aVDELTASPIKE-385
p969
aVDELTASPIKE-384
p970
aVDELTASPIKE-383
p971
aVDELTASPIKE-382
p972
aVDELTASPIKE-381
p973
aVDELTASPIKE-380
p974
aVDELTASPIKE-379
p975
aVDELTASPIKE-378
p976
aVDELTASPIKE-377
p977
aVDELTASPIKE-376
p978
aVDELTASPIKE-375
p979
aVDELTASPIKE-374
p980
aVDELTASPIKE-373
p981
aVDELTASPIKE-372
p982
aVDELTASPIKE-371
p983
aVDELTASPIKE-370
p984
aVDELTASPIKE-369
p985
aVDELTASPIKE-368
p986
aVDELTASPIKE-367
p987
aVDELTASPIKE-366
p988
aVDELTASPIKE-365
p989
aVDELTASPIKE-364
p990
aVDELTASPIKE-363
p991
aVDELTASPIKE-362
p992
aVDELTASPIKE-361
p993
aVDELTASPIKE-360
p994
aVDELTASPIKE-359
p995
aVDELTASPIKE-358
p996
aVDELTASPIKE-357
p997
aVDELTASPIKE-356
p998
aVDELTASPIKE-355
p999
aVDELTASPIKE-354
p1000
aVDELTASPIKE-353
p1001
aVDELTASPIKE-352
p1002
aVDELTASPIKE-351
p1003
aVDELTASPIKE-350
p1004
aVDELTASPIKE-349
p1005
aVDELTASPIKE-348
p1006
aVDELTASPIKE-347
p1007
aVDELTASPIKE-346
p1008
aVDELTASPIKE-345
p1009
aVDELTASPIKE-344
p1010
aVDELTASPIKE-343
p1011
aVDELTASPIKE-342
p1012
aVDELTASPIKE-341
p1013
aVDELTASPIKE-340
p1014
aVDELTASPIKE-339
p1015
aVDELTASPIKE-338
p1016
aVDELTASPIKE-337
p1017
aVDELTASPIKE-336
p1018
aVDELTASPIKE-335
p1019
aVDELTASPIKE-334
p1020
aVDELTASPIKE-333
p1021
aVDELTASPIKE-332
p1022
aVDELTASPIKE-331
p1023
aVDELTASPIKE-330
p1024
aVDELTASPIKE-329
p1025
aVDELTASPIKE-328
p1026
aVDELTASPIKE-327
p1027
aVDELTASPIKE-326
p1028
aVDELTASPIKE-325
p1029
aVDELTASPIKE-324
p1030
aVDELTASPIKE-323
p1031
aVDELTASPIKE-322
p1032
aVDELTASPIKE-321
p1033
aVDELTASPIKE-320
p1034
aVDELTASPIKE-319
p1035
aVDELTASPIKE-318
p1036
aVDELTASPIKE-317
p1037
aVDELTASPIKE-316
p1038
aVDELTASPIKE-315
p1039
aVDELTASPIKE-314
p1040
aVDELTASPIKE-313
p1041
aVDELTASPIKE-312
p1042
aVDELTASPIKE-311
p1043
aVDELTASPIKE-310
p1044
aVDELTASPIKE-309
p1045
aVDELTASPIKE-308
p1046
aVDELTASPIKE-307
p1047
aVDELTASPIKE-306
p1048
aVDELTASPIKE-305
p1049
aVDELTASPIKE-304
p1050
aVDELTASPIKE-303
p1051
aVDELTASPIKE-302
p1052
aVDELTASPIKE-301
p1053
aVDELTASPIKE-300
p1054
aVDELTASPIKE-299
p1055
aVDELTASPIKE-298
p1056
aVDELTASPIKE-297
p1057
aVDELTASPIKE-296
p1058
aVDELTASPIKE-295
p1059
aVDELTASPIKE-294
p1060
aVDELTASPIKE-293
p1061
aVDELTASPIKE-292
p1062
aVDELTASPIKE-291
p1063
aVDELTASPIKE-290
p1064
aVDELTASPIKE-289
p1065
aVDELTASPIKE-288
p1066
aVDELTASPIKE-287
p1067
aVDELTASPIKE-286
p1068
aVDELTASPIKE-285
p1069
aVDELTASPIKE-284
p1070
aVDELTASPIKE-283
p1071
aVDELTASPIKE-282
p1072
aVDELTASPIKE-281
p1073
aVDELTASPIKE-280
p1074
aVDELTASPIKE-279
p1075
aVDELTASPIKE-278
p1076
aVDELTASPIKE-277
p1077
aVDELTASPIKE-276
p1078
aVDELTASPIKE-275
p1079
aVDELTASPIKE-274
p1080
aVDELTASPIKE-273
p1081
aVDELTASPIKE-272
p1082
aVDELTASPIKE-271
p1083
aVDELTASPIKE-270
p1084
aVDELTASPIKE-269
p1085
aVDELTASPIKE-268
p1086
aVDELTASPIKE-267
p1087
aVDELTASPIKE-266
p1088
aVDELTASPIKE-265
p1089
aVDELTASPIKE-264
p1090
aVDELTASPIKE-263
p1091
aVDELTASPIKE-262
p1092
aVDELTASPIKE-261
p1093
aVDELTASPIKE-260
p1094
aVDELTASPIKE-259
p1095
aVDELTASPIKE-258
p1096
aVDELTASPIKE-257
p1097
aVDELTASPIKE-256
p1098
aVDELTASPIKE-255
p1099
aVDELTASPIKE-254
p1100
aVDELTASPIKE-253
p1101
aVDELTASPIKE-252
p1102
aVDELTASPIKE-251
p1103
aVDELTASPIKE-250
p1104
aVDELTASPIKE-249
p1105
aVDELTASPIKE-248
p1106
aVDELTASPIKE-247
p1107
aVDELTASPIKE-246
p1108
aVDELTASPIKE-245
p1109
aVDELTASPIKE-244
p1110
aVDELTASPIKE-243
p1111
aVDELTASPIKE-242
p1112
aVDELTASPIKE-241
p1113
aVDELTASPIKE-240
p1114
aVDELTASPIKE-239
p1115
aVDELTASPIKE-238
p1116
aVDELTASPIKE-237
p1117
aVDELTASPIKE-236
p1118
aVDELTASPIKE-235
p1119
aVDELTASPIKE-234
p1120
aVDELTASPIKE-233
p1121
aVDELTASPIKE-232
p1122
aVDELTASPIKE-231
p1123
aVDELTASPIKE-230
p1124
aVDELTASPIKE-229
p1125
aVDELTASPIKE-228
p1126
aVDELTASPIKE-227
p1127
aVDELTASPIKE-226
p1128
aVDELTASPIKE-225
p1129
aVDELTASPIKE-224
p1130
aVDELTASPIKE-223
p1131
aVDELTASPIKE-222
p1132
aVDELTASPIKE-221
p1133
aVDELTASPIKE-220
p1134
aVDELTASPIKE-219
p1135
aVDELTASPIKE-218
p1136
aVDELTASPIKE-217
p1137
aVDELTASPIKE-216
p1138
aVDELTASPIKE-215
p1139
aVDELTASPIKE-214
p1140
aVDELTASPIKE-213
p1141
aVDELTASPIKE-212
p1142
aVDELTASPIKE-211
p1143
aVDELTASPIKE-210
p1144
aVDELTASPIKE-209
p1145
aVDELTASPIKE-208
p1146
aVDELTASPIKE-207
p1147
aVDELTASPIKE-206
p1148
aVDELTASPIKE-205
p1149
aVDELTASPIKE-204
p1150
aVDELTASPIKE-203
p1151
aVDELTASPIKE-202
p1152
aVDELTASPIKE-201
p1153
aVDELTASPIKE-200
p1154
aVDELTASPIKE-199
p1155
aVDELTASPIKE-198
p1156
aVDELTASPIKE-197
p1157
aVDELTASPIKE-196
p1158
aVDELTASPIKE-195
p1159
aVDELTASPIKE-194
p1160
aVDELTASPIKE-193
p1161
aVDELTASPIKE-192
p1162
aVDELTASPIKE-191
p1163
aVDELTASPIKE-190
p1164
aVDELTASPIKE-189
p1165
aVDELTASPIKE-188
p1166
aVDELTASPIKE-187
p1167
aVDELTASPIKE-186
p1168
aVDELTASPIKE-185
p1169
aVDELTASPIKE-184
p1170
aVDELTASPIKE-183
p1171
aVDELTASPIKE-182
p1172
aVDELTASPIKE-181
p1173
aVDELTASPIKE-180
p1174
aVDELTASPIKE-179
p1175
aVDELTASPIKE-178
p1176
aVDELTASPIKE-177
p1177
aVDELTASPIKE-176
p1178
aVDELTASPIKE-175
p1179
aVDELTASPIKE-174
p1180
aVDELTASPIKE-173
p1181
aVDELTASPIKE-172
p1182
aVDELTASPIKE-171
p1183
aVDELTASPIKE-170
p1184
aVDELTASPIKE-169
p1185
aVDELTASPIKE-168
p1186
aVDELTASPIKE-167
p1187
aVDELTASPIKE-166
p1188
aVDELTASPIKE-165
p1189
aVDELTASPIKE-164
p1190
aVDELTASPIKE-163
p1191
aVDELTASPIKE-162
p1192
aVDELTASPIKE-161
p1193
aVDELTASPIKE-160
p1194
aVDELTASPIKE-159
p1195
aVDELTASPIKE-158
p1196
aVDELTASPIKE-157
p1197
aVDELTASPIKE-156
p1198
aVDELTASPIKE-155
p1199
aVDELTASPIKE-154
p1200
aVDELTASPIKE-153
p1201
aVDELTASPIKE-152
p1202
aVDELTASPIKE-151
p1203
aVDELTASPIKE-150
p1204
aVDELTASPIKE-149
p1205
aVDELTASPIKE-148
p1206
aVDELTASPIKE-147
p1207
aVDELTASPIKE-146
p1208
aVDELTASPIKE-145
p1209
aVDELTASPIKE-144
p1210
aVDELTASPIKE-143
p1211
aVDELTASPIKE-142
p1212
aVDELTASPIKE-141
p1213
aVDELTASPIKE-140
p1214
aVDELTASPIKE-139
p1215
aVDELTASPIKE-138
p1216
aVDELTASPIKE-137
p1217
aVDELTASPIKE-136
p1218
aVDELTASPIKE-135
p1219
aVDELTASPIKE-134
p1220
aVDELTASPIKE-133
p1221
aVDELTASPIKE-132
p1222
aVDELTASPIKE-131
p1223
aVDELTASPIKE-130
p1224
aVDELTASPIKE-129
p1225
aVDELTASPIKE-128
p1226
aVDELTASPIKE-127
p1227
aVDELTASPIKE-126
p1228
aVDELTASPIKE-125
p1229
aVDELTASPIKE-124
p1230
aVDELTASPIKE-123
p1231
aVDELTASPIKE-122
p1232
aVDELTASPIKE-121
p1233
aVDELTASPIKE-120
p1234
aVDELTASPIKE-119
p1235
aVDELTASPIKE-118
p1236
aVDELTASPIKE-117
p1237
aVDELTASPIKE-116
p1238
aVDELTASPIKE-115
p1239
aVDELTASPIKE-114
p1240
aVDELTASPIKE-113
p1241
aVDELTASPIKE-112
p1242
aVDELTASPIKE-111
p1243
aVDELTASPIKE-110
p1244
aVDELTASPIKE-109
p1245
aVDELTASPIKE-108
p1246
aVDELTASPIKE-107
p1247
aVDELTASPIKE-106
p1248
aVDELTASPIKE-105
p1249
aVDELTASPIKE-104
p1250
aVDELTASPIKE-103
p1251
aVDELTASPIKE-102
p1252
aVDELTASPIKE-101
p1253
aVDELTASPIKE-100
p1254
aVDELTASPIKE-99
p1255
aVDELTASPIKE-98
p1256
aVDELTASPIKE-97
p1257
aVDELTASPIKE-96
p1258
aVDELTASPIKE-95
p1259
aVDELTASPIKE-94
p1260
aVDELTASPIKE-93
p1261
aVDELTASPIKE-92
p1262
aVDELTASPIKE-91
p1263
aVDELTASPIKE-90
p1264
aVDELTASPIKE-89
p1265
aVDELTASPIKE-88
p1266
aVDELTASPIKE-87
p1267
aVDELTASPIKE-86
p1268
aVDELTASPIKE-85
p1269
aVDELTASPIKE-84
p1270
aVDELTASPIKE-83
p1271
aVDELTASPIKE-82
p1272
aVDELTASPIKE-81
p1273
aVDELTASPIKE-80
p1274
aVDELTASPIKE-79
p1275
aVDELTASPIKE-78
p1276
aVDELTASPIKE-77
p1277
aVDELTASPIKE-76
p1278
aVDELTASPIKE-75
p1279
aVDELTASPIKE-74
p1280
aVDELTASPIKE-73
p1281
aVDELTASPIKE-72
p1282
aVDELTASPIKE-71
p1283
aVDELTASPIKE-70
p1284
aVDELTASPIKE-69
p1285
aVDELTASPIKE-68
p1286
aVDELTASPIKE-67
p1287
aVDELTASPIKE-66
p1288
aVDELTASPIKE-65
p1289
aVDELTASPIKE-64
p1290
aVDELTASPIKE-63
p1291
aVDELTASPIKE-62
p1292
aVDELTASPIKE-61
p1293
aVDELTASPIKE-60
p1294
aVDELTASPIKE-59
p1295
aVDELTASPIKE-58
p1296
aVDELTASPIKE-57
p1297
aVDELTASPIKE-56
p1298
aVDELTASPIKE-55
p1299
aVDELTASPIKE-54
p1300
aVDELTASPIKE-53
p1301
aVDELTASPIKE-52
p1302
aVDELTASPIKE-51
p1303
aVDELTASPIKE-50
p1304
aVDELTASPIKE-49
p1305
aVDELTASPIKE-48
p1306
aVDELTASPIKE-47
p1307
aVDELTASPIKE-46
p1308
aVDELTASPIKE-45
p1309
aVDELTASPIKE-44
p1310
aVDELTASPIKE-43
p1311
aVDELTASPIKE-42
p1312
aVDELTASPIKE-41
p1313
aVDELTASPIKE-40
p1314
aVDELTASPIKE-39
p1315
aVDELTASPIKE-38
p1316
aVDELTASPIKE-37
p1317
aVDELTASPIKE-36
p1318
aVDELTASPIKE-35
p1319
aVDELTASPIKE-34
p1320
aVDELTASPIKE-33
p1321
aVDELTASPIKE-32
p1322
aVDELTASPIKE-31
p1323
aVDELTASPIKE-30
p1324
aVDELTASPIKE-29
p1325
aVDELTASPIKE-28
p1326
aVDELTASPIKE-27
p1327
aVDELTASPIKE-26
p1328
aVDELTASPIKE-25
p1329
aVDELTASPIKE-24
p1330
aVDELTASPIKE-23
p1331
aVDELTASPIKE-22
p1332
aVDELTASPIKE-21
p1333
aVDELTASPIKE-20
p1334
aVDELTASPIKE-19
p1335
aVDELTASPIKE-18
p1336
aVDELTASPIKE-17
p1337
aVDELTASPIKE-16
p1338
aVDELTASPIKE-15
p1339
aVDELTASPIKE-14
p1340
aVDELTASPIKE-13
p1341
aVDELTASPIKE-12
p1342
aVDELTASPIKE-11
p1343
aVDELTASPIKE-10
p1344
aVDELTASPIKE-9
p1345
aVDELTASPIKE-8
p1346
aVDELTASPIKE-7
p1347
aVDELTASPIKE-6
p1348
aVDELTASPIKE-5
p1349
aVDELTASPIKE-4
p1350
aVDELTASPIKE-3
p1351
aVDELTASPIKE-2
p1352
aVDELTASPIKE-1
p1353
a.