(lp0
VDERBY-7005
p1
aVDERBY-7004
p2
aVDERBY-7003
p3
aVDERBY-7002
p4
aVDERBY-7001
p5
aVDERBY-7000
p6
aVDERBY-6999
p7
aVDERBY-6998
p8
aVDERBY-6997
p9
aVDERBY-6996
p10
aVDERBY-6995
p11
aVDERBY-6994
p12
aVDERBY-6993
p13
aVDERBY-6992
p14
aVDERBY-6991
p15
aVDERBY-6990
p16
aVDERBY-6989
p17
aVDERBY-6988
p18
aVDERBY-6987
p19
aVDERBY-6986
p20
aVDERBY-6985
p21
aVDERBY-6984
p22
aVDERBY-6983
p23
aVDERBY-6982
p24
aVDERBY-6981
p25
aVDERBY-6980
p26
aVDERBY-6979
p27
aVDERBY-6978
p28
aVDERBY-6977
p29
aVDERBY-6976
p30
aVDERBY-6975
p31
aVDERBY-6974
p32
aVDERBY-6973
p33
aVDERBY-6972
p34
aVDERBY-6971
p35
aVDERBY-6970
p36
aVDERBY-6969
p37
aVDERBY-6968
p38
aVDERBY-6967
p39
aVDERBY-6966
p40
aVDERBY-6965
p41
aVDERBY-6964
p42
aVDERBY-6963
p43
aVDERBY-6962
p44
aVDERBY-6961
p45
aVDERBY-6960
p46
aVDERBY-6959
p47
aVDERBY-6958
p48
aVDERBY-6957
p49
aVDERBY-6956
p50
aVDERBY-6955
p51
aVDERBY-6954
p52
aVDERBY-6953
p53
aVDERBY-6952
p54
aVDERBY-6951
p55
aVDERBY-6950
p56
aVDERBY-6949
p57
aVDERBY-6948
p58
aVDERBY-6947
p59
aVDERBY-6946
p60
aVDERBY-6945
p61
aVDERBY-6944
p62
aVDERBY-6943
p63
aVDERBY-6942
p64
aVDERBY-6941
p65
aVDERBY-6940
p66
aVDERBY-6939
p67
aVDERBY-6938
p68
aVDERBY-6937
p69
aVDERBY-6936
p70
aVDERBY-6935
p71
aVDERBY-6934
p72
aVDERBY-6933
p73
aVDERBY-6932
p74
aVDERBY-6931
p75
aVDERBY-6930
p76
aVDERBY-6929
p77
aVDERBY-6928
p78
aVDERBY-6927
p79
aVDERBY-6926
p80
aVDERBY-6925
p81
aVDERBY-6924
p82
aVDERBY-6923
p83
aVDERBY-6922
p84
aVDERBY-6921
p85
aVDERBY-6920
p86
aVDERBY-6919
p87
aVDERBY-6918
p88
aVDERBY-6917
p89
aVDERBY-6916
p90
aVDERBY-6915
p91
aVDERBY-6914
p92
aVDERBY-6913
p93
aVDERBY-6912
p94
aVDERBY-6911
p95
aVDERBY-6910
p96
aVDERBY-6909
p97
aVDERBY-6908
p98
aVDERBY-6907
p99
aVDERBY-6906
p100
aVDERBY-6905
p101
aVDERBY-6904
p102
aVDERBY-6903
p103
aVDERBY-6902
p104
aVDERBY-6901
p105
aVDERBY-6900
p106
aVDERBY-6899
p107
aVDERBY-6898
p108
aVDERBY-6897
p109
aVDERBY-6896
p110
aVDERBY-6895
p111
aVDERBY-6894
p112
aVDERBY-6893
p113
aVDERBY-6892
p114
aVDERBY-6891
p115
aVDERBY-6890
p116
aVDERBY-6889
p117
aVDERBY-6888
p118
aVDERBY-6887
p119
aVDERBY-6886
p120
aVDERBY-6885
p121
aVDERBY-6884
p122
aVDERBY-6883
p123
aVDERBY-6882
p124
aVDERBY-6881
p125
aVDERBY-6880
p126
aVDERBY-6879
p127
aVDERBY-6878
p128
aVDERBY-6877
p129
aVDERBY-6876
p130
aVDERBY-6875
p131
aVDERBY-6874
p132
aVDERBY-6873
p133
aVDERBY-6872
p134
aVDERBY-6871
p135
aVDERBY-6870
p136
aVDERBY-6869
p137
aVDERBY-6868
p138
aVDERBY-6867
p139
aVDERBY-6866
p140
aVDERBY-6865
p141
aVDERBY-6864
p142
aVDERBY-6863
p143
aVDERBY-6862
p144
aVDERBY-6861
p145
aVDERBY-6860
p146
aVDERBY-6859
p147
aVDERBY-6858
p148
aVDERBY-6857
p149
aVDERBY-6856
p150
aVDERBY-6855
p151
aVDERBY-6854
p152
aVDERBY-6853
p153
aVDERBY-6852
p154
aVDERBY-6851
p155
aVDERBY-6850
p156
aVDERBY-6849
p157
aVDERBY-6848
p158
aVDERBY-6847
p159
aVDERBY-6846
p160
aVDERBY-6845
p161
aVDERBY-6844
p162
aVDERBY-6843
p163
aVDERBY-6842
p164
aVDERBY-6841
p165
aVDERBY-6840
p166
aVDERBY-6839
p167
aVDERBY-6838
p168
aVDERBY-6837
p169
aVDERBY-6836
p170
aVDERBY-6835
p171
aVDERBY-6834
p172
aVDERBY-6833
p173
aVDERBY-6832
p174
aVDERBY-6831
p175
aVDERBY-6830
p176
aVDERBY-6829
p177
aVDERBY-6828
p178
aVDERBY-6827
p179
aVDERBY-6826
p180
aVDERBY-6825
p181
aVDERBY-6824
p182
aVDERBY-6823
p183
aVDERBY-6822
p184
aVDERBY-6821
p185
aVDERBY-6820
p186
aVDERBY-6819
p187
aVDERBY-6818
p188
aVDERBY-6817
p189
aVDERBY-6816
p190
aVDERBY-6815
p191
aVDERBY-6814
p192
aVDERBY-6813
p193
aVDERBY-6812
p194
aVDERBY-6811
p195
aVDERBY-6810
p196
aVDERBY-6809
p197
aVDERBY-6808
p198
aVDERBY-6807
p199
aVDERBY-6806
p200
aVDERBY-6805
p201
aVDERBY-6804
p202
aVDERBY-6803
p203
aVDERBY-6802
p204
aVDERBY-6801
p205
aVDERBY-6800
p206
aVDERBY-6799
p207
aVDERBY-6798
p208
aVDERBY-6797
p209
aVDERBY-6796
p210
aVDERBY-6795
p211
aVDERBY-6794
p212
aVDERBY-6793
p213
aVDERBY-6792
p214
aVDERBY-6791
p215
aVDERBY-6790
p216
aVDERBY-6789
p217
aVDERBY-6788
p218
aVDERBY-6787
p219
aVDERBY-6786
p220
aVDERBY-6785
p221
aVDERBY-6784
p222
aVDERBY-6783
p223
aVDERBY-6782
p224
aVDERBY-6781
p225
aVDERBY-6780
p226
aVDERBY-6779
p227
aVDERBY-6778
p228
aVDERBY-6777
p229
aVDERBY-6776
p230
aVDERBY-6775
p231
aVDERBY-6774
p232
aVDERBY-6773
p233
aVDERBY-6772
p234
aVDERBY-6771
p235
aVDERBY-6770
p236
aVDERBY-6769
p237
aVDERBY-6768
p238
aVDERBY-6767
p239
aVDERBY-6766
p240
aVDERBY-6765
p241
aVDERBY-6764
p242
aVDERBY-6763
p243
aVDERBY-6762
p244
aVDERBY-6761
p245
aVDERBY-6760
p246
aVDERBY-6759
p247
aVDERBY-6758
p248
aVDERBY-6757
p249
aVDERBY-6756
p250
aVDERBY-6755
p251
aVDERBY-6754
p252
aVDERBY-6753
p253
aVDERBY-6752
p254
aVDERBY-6751
p255
aVDERBY-6750
p256
aVDERBY-6749
p257
aVDERBY-6748
p258
aVDERBY-6747
p259
aVDERBY-6746
p260
aVDERBY-6745
p261
aVDERBY-6744
p262
aVDERBY-6743
p263
aVDERBY-6742
p264
aVDERBY-6741
p265
aVDERBY-6740
p266
aVDERBY-6739
p267
aVDERBY-6738
p268
aVDERBY-6737
p269
aVDERBY-6736
p270
aVDERBY-6735
p271
aVDERBY-6734
p272
aVDERBY-6733
p273
aVDERBY-6732
p274
aVDERBY-6731
p275
aVDERBY-6730
p276
aVDERBY-6729
p277
aVDERBY-6728
p278
aVDERBY-6727
p279
aVDERBY-6726
p280
aVDERBY-6725
p281
aVDERBY-6724
p282
aVDERBY-6723
p283
aVDERBY-6722
p284
aVDERBY-6721
p285
aVDERBY-6720
p286
aVDERBY-6719
p287
aVDERBY-6718
p288
aVDERBY-6717
p289
aVDERBY-6716
p290
aVDERBY-6715
p291
aVDERBY-6714
p292
aVDERBY-6713
p293
aVDERBY-6712
p294
aVDERBY-6711
p295
aVDERBY-6710
p296
aVDERBY-6709
p297
aVDERBY-6708
p298
aVDERBY-6707
p299
aVDERBY-6706
p300
aVDERBY-6705
p301
aVDERBY-6704
p302
aVDERBY-6703
p303
aVDERBY-6702
p304
aVDERBY-6701
p305
aVDERBY-6700
p306
aVDERBY-6699
p307
aVDERBY-6698
p308
aVDERBY-6697
p309
aVDERBY-6696
p310
aVDERBY-6695
p311
aVDERBY-6694
p312
aVDERBY-6693
p313
aVDERBY-6692
p314
aVDERBY-6691
p315
aVDERBY-6690
p316
aVDERBY-6689
p317
aVDERBY-6688
p318
aVDERBY-6687
p319
aVDERBY-6686
p320
aVDERBY-6685
p321
aVDERBY-6684
p322
aVDERBY-6683
p323
aVDERBY-6682
p324
aVDERBY-6681
p325
aVDERBY-6680
p326
aVDERBY-6679
p327
aVDERBY-6678
p328
aVDERBY-6677
p329
aVDERBY-6676
p330
aVDERBY-6675
p331
aVDERBY-6674
p332
aVDERBY-6673
p333
aVDERBY-6672
p334
aVDERBY-6671
p335
aVDERBY-6670
p336
aVDERBY-6669
p337
aVDERBY-6668
p338
aVDERBY-6667
p339
aVDERBY-6666
p340
aVDERBY-6665
p341
aVDERBY-6664
p342
aVDERBY-6663
p343
aVDERBY-6662
p344
aVDERBY-6661
p345
aVDERBY-6660
p346
aVDERBY-6659
p347
aVDERBY-6658
p348
aVDERBY-6657
p349
aVDERBY-6656
p350
aVDERBY-6655
p351
aVDERBY-6654
p352
aVDERBY-6653
p353
aVDERBY-6652
p354
aVDERBY-6651
p355
aVDERBY-6650
p356
aVDERBY-6649
p357
aVDERBY-6648
p358
aVDERBY-6647
p359
aVDERBY-6646
p360
aVDERBY-6645
p361
aVDERBY-6644
p362
aVDERBY-6643
p363
aVDERBY-6642
p364
aVDERBY-6641
p365
aVDERBY-6640
p366
aVDERBY-6639
p367
aVDERBY-6638
p368
aVDERBY-6637
p369
aVDERBY-6636
p370
aVDERBY-6635
p371
aVDERBY-6634
p372
aVDERBY-6633
p373
aVDERBY-6632
p374
aVDERBY-6631
p375
aVDERBY-6630
p376
aVDERBY-6629
p377
aVDERBY-6628
p378
aVDERBY-6627
p379
aVDERBY-6626
p380
aVDERBY-6625
p381
aVDERBY-6624
p382
aVDERBY-6623
p383
aVDERBY-6622
p384
aVDERBY-6621
p385
aVDERBY-6620
p386
aVDERBY-6619
p387
aVDERBY-6618
p388
aVDERBY-6617
p389
aVDERBY-6616
p390
aVDERBY-6615
p391
aVDERBY-6614
p392
aVDERBY-6613
p393
aVDERBY-6612
p394
aVDERBY-6611
p395
aVDERBY-6610
p396
aVDERBY-6609
p397
aVDERBY-6608
p398
aVDERBY-6607
p399
aVDERBY-6606
p400
aVDERBY-6605
p401
aVDERBY-6604
p402
aVDERBY-6603
p403
aVDERBY-6602
p404
aVDERBY-6601
p405
aVDERBY-6600
p406
aVDERBY-6599
p407
aVDERBY-6598
p408
aVDERBY-6597
p409
aVDERBY-6596
p410
aVDERBY-6595
p411
aVDERBY-6594
p412
aVDERBY-6593
p413
aVDERBY-6592
p414
aVDERBY-6591
p415
aVDERBY-6590
p416
aVDERBY-6589
p417
aVDERBY-6588
p418
aVDERBY-6587
p419
aVDERBY-6586
p420
aVDERBY-6585
p421
aVDERBY-6584
p422
aVDERBY-6583
p423
aVDERBY-6582
p424
aVDERBY-6581
p425
aVDERBY-6580
p426
aVDERBY-6579
p427
aVDERBY-6578
p428
aVDERBY-6577
p429
aVDERBY-6576
p430
aVDERBY-6575
p431
aVDERBY-6574
p432
aVDERBY-6573
p433
aVDERBY-6572
p434
aVDERBY-6571
p435
aVDERBY-6570
p436
aVDERBY-6569
p437
aVDERBY-6568
p438
aVDERBY-6567
p439
aVDERBY-6566
p440
aVDERBY-6565
p441
aVDERBY-6564
p442
aVDERBY-6563
p443
aVDERBY-6562
p444
aVDERBY-6561
p445
aVDERBY-6560
p446
aVDERBY-6559
p447
aVDERBY-6558
p448
aVDERBY-6557
p449
aVDERBY-6556
p450
aVDERBY-6555
p451
aVDERBY-6554
p452
aVDERBY-6553
p453
aVDERBY-6552
p454
aVDERBY-6551
p455
aVDERBY-6550
p456
aVDERBY-6549
p457
aVDERBY-6548
p458
aVDERBY-6547
p459
aVDERBY-6546
p460
aVDERBY-6545
p461
aVDERBY-6544
p462
aVDERBY-6543
p463
aVDERBY-6542
p464
aVDERBY-6541
p465
aVDERBY-6540
p466
aVDERBY-6539
p467
aVDERBY-6538
p468
aVDERBY-6537
p469
aVDERBY-6536
p470
aVDERBY-6535
p471
aVDERBY-6534
p472
aVDERBY-6533
p473
aVDERBY-6532
p474
aVDERBY-6531
p475
aVDERBY-6530
p476
aVDERBY-6529
p477
aVDERBY-6528
p478
aVDERBY-6527
p479
aVDERBY-6526
p480
aVDERBY-6525
p481
aVDERBY-6524
p482
aVDERBY-6523
p483
aVDERBY-6522
p484
aVDERBY-6521
p485
aVDERBY-6520
p486
aVDERBY-6519
p487
aVDERBY-6518
p488
aVDERBY-6517
p489
aVDERBY-6516
p490
aVDERBY-6515
p491
aVDERBY-6514
p492
aVDERBY-6513
p493
aVDERBY-6512
p494
aVDERBY-6511
p495
aVDERBY-6510
p496
aVDERBY-6509
p497
aVDERBY-6508
p498
aVDERBY-6507
p499
aVDERBY-6506
p500
aVDERBY-6505
p501
aVDERBY-6504
p502
aVDERBY-6503
p503
aVDERBY-6502
p504
aVDERBY-6501
p505
aVDERBY-6500
p506
aVDERBY-6499
p507
aVDERBY-6498
p508
aVDERBY-6497
p509
aVDERBY-6496
p510
aVDERBY-6495
p511
aVDERBY-6494
p512
aVDERBY-6493
p513
aVDERBY-6492
p514
aVDERBY-6491
p515
aVDERBY-6490
p516
aVDERBY-6489
p517
aVDERBY-6488
p518
aVDERBY-6487
p519
aVDERBY-6486
p520
aVDERBY-6485
p521
aVDERBY-6484
p522
aVDERBY-6483
p523
aVDERBY-6482
p524
aVDERBY-6481
p525
aVDERBY-6480
p526
aVDERBY-6479
p527
aVDERBY-6478
p528
aVDERBY-6477
p529
aVDERBY-6476
p530
aVDERBY-6475
p531
aVDERBY-6474
p532
aVDERBY-6473
p533
aVDERBY-6472
p534
aVDERBY-6471
p535
aVDERBY-6470
p536
aVDERBY-6469
p537
aVDERBY-6468
p538
aVDERBY-6467
p539
aVDERBY-6466
p540
aVDERBY-6465
p541
aVDERBY-6464
p542
aVDERBY-6463
p543
aVDERBY-6462
p544
aVDERBY-6461
p545
aVDERBY-6460
p546
aVDERBY-6459
p547
aVDERBY-6458
p548
aVDERBY-6457
p549
aVDERBY-6456
p550
aVDERBY-6455
p551
aVDERBY-6454
p552
aVDERBY-6453
p553
aVDERBY-6452
p554
aVDERBY-6451
p555
aVDERBY-6450
p556
aVDERBY-6449
p557
aVDERBY-6448
p558
aVDERBY-6447
p559
aVDERBY-6446
p560
aVDERBY-6445
p561
aVDERBY-6444
p562
aVDERBY-6443
p563
aVDERBY-6442
p564
aVDERBY-6441
p565
aVDERBY-6440
p566
aVDERBY-6439
p567
aVDERBY-6438
p568
aVDERBY-6437
p569
aVDERBY-6436
p570
aVDERBY-6435
p571
aVDERBY-6434
p572
aVDERBY-6433
p573
aVDERBY-6432
p574
aVDERBY-6431
p575
aVDERBY-6430
p576
aVDERBY-6429
p577
aVDERBY-6428
p578
aVDERBY-6427
p579
aVDERBY-6426
p580
aVDERBY-6425
p581
aVDERBY-6424
p582
aVDERBY-6423
p583
aVDERBY-6422
p584
aVDERBY-6421
p585
aVDERBY-6420
p586
aVDERBY-6419
p587
aVDERBY-6418
p588
aVDERBY-6417
p589
aVDERBY-6416
p590
aVDERBY-6415
p591
aVDERBY-6414
p592
aVDERBY-6413
p593
aVDERBY-6412
p594
aVDERBY-6411
p595
aVDERBY-6410
p596
aVDERBY-6409
p597
aVDERBY-6408
p598
aVDERBY-6407
p599
aVDERBY-6406
p600
aVDERBY-6405
p601
aVDERBY-6404
p602
aVDERBY-6403
p603
aVDERBY-6402
p604
aVDERBY-6401
p605
aVDERBY-6400
p606
aVDERBY-6399
p607
aVDERBY-6398
p608
aVDERBY-6397
p609
aVDERBY-6396
p610
aVDERBY-6395
p611
aVDERBY-6394
p612
aVDERBY-6393
p613
aVDERBY-6392
p614
aVDERBY-6391
p615
aVDERBY-6390
p616
aVDERBY-6389
p617
aVDERBY-6388
p618
aVDERBY-6387
p619
aVDERBY-6386
p620
aVDERBY-6385
p621
aVDERBY-6384
p622
aVDERBY-6383
p623
aVDERBY-6382
p624
aVDERBY-6381
p625
aVDERBY-6380
p626
aVDERBY-6379
p627
aVDERBY-6378
p628
aVDERBY-6377
p629
aVDERBY-6376
p630
aVDERBY-6375
p631
aVDERBY-6374
p632
aVDERBY-6373
p633
aVDERBY-6372
p634
aVDERBY-6371
p635
aVDERBY-6370
p636
aVDERBY-6369
p637
aVDERBY-6368
p638
aVDERBY-6367
p639
aVDERBY-6366
p640
aVDERBY-6365
p641
aVDERBY-6364
p642
aVDERBY-6363
p643
aVDERBY-6362
p644
aVDERBY-6361
p645
aVDERBY-6360
p646
aVDERBY-6359
p647
aVDERBY-6358
p648
aVDERBY-6357
p649
aVDERBY-6356
p650
aVDERBY-6355
p651
aVDERBY-6354
p652
aVDERBY-6353
p653
aVDERBY-6352
p654
aVDERBY-6351
p655
aVDERBY-6350
p656
aVDERBY-6349
p657
aVDERBY-6348
p658
aVDERBY-6347
p659
aVDERBY-6346
p660
aVDERBY-6345
p661
aVDERBY-6344
p662
aVDERBY-6343
p663
aVDERBY-6342
p664
aVDERBY-6341
p665
aVDERBY-6340
p666
aVDERBY-6339
p667
aVDERBY-6338
p668
aVDERBY-6337
p669
aVDERBY-6336
p670
aVDERBY-6335
p671
aVDERBY-6334
p672
aVDERBY-6333
p673
aVDERBY-6332
p674
aVDERBY-6331
p675
aVDERBY-6330
p676
aVDERBY-6329
p677
aVDERBY-6328
p678
aVDERBY-6327
p679
aVDERBY-6326
p680
aVDERBY-6325
p681
aVDERBY-6324
p682
aVDERBY-6323
p683
aVDERBY-6322
p684
aVDERBY-6321
p685
aVDERBY-6320
p686
aVDERBY-6319
p687
aVDERBY-6318
p688
aVDERBY-6317
p689
aVDERBY-6316
p690
aVDERBY-6315
p691
aVDERBY-6314
p692
aVDERBY-6313
p693
aVDERBY-6312
p694
aVDERBY-6311
p695
aVDERBY-6310
p696
aVDERBY-6309
p697
aVDERBY-6308
p698
aVDERBY-6307
p699
aVDERBY-6306
p700
aVDERBY-6305
p701
aVDERBY-6304
p702
aVDERBY-6303
p703
aVDERBY-6302
p704
aVDERBY-6301
p705
aVDERBY-6300
p706
aVDERBY-6299
p707
aVDERBY-6298
p708
aVDERBY-6297
p709
aVDERBY-6296
p710
aVDERBY-6295
p711
aVDERBY-6294
p712
aVDERBY-6293
p713
aVDERBY-6292
p714
aVDERBY-6291
p715
aVDERBY-6290
p716
aVDERBY-6289
p717
aVDERBY-6288
p718
aVDERBY-6287
p719
aVDERBY-6286
p720
aVDERBY-6285
p721
aVDERBY-6284
p722
aVDERBY-6283
p723
aVDERBY-6282
p724
aVDERBY-6281
p725
aVDERBY-6280
p726
aVDERBY-6279
p727
aVDERBY-6278
p728
aVDERBY-6277
p729
aVDERBY-6276
p730
aVDERBY-6275
p731
aVDERBY-6274
p732
aVDERBY-6273
p733
aVDERBY-6272
p734
aVDERBY-6271
p735
aVDERBY-6270
p736
aVDERBY-6269
p737
aVDERBY-6268
p738
aVDERBY-6267
p739
aVDERBY-6266
p740
aVDERBY-6265
p741
aVDERBY-6264
p742
aVDERBY-6263
p743
aVDERBY-6262
p744
aVDERBY-6261
p745
aVDERBY-6260
p746
aVDERBY-6259
p747
aVDERBY-6258
p748
aVDERBY-6257
p749
aVDERBY-6256
p750
aVDERBY-6255
p751
aVDERBY-6254
p752
aVDERBY-6253
p753
aVDERBY-6252
p754
aVDERBY-6251
p755
aVDERBY-6250
p756
aVDERBY-6249
p757
aVDERBY-6248
p758
aVDERBY-6247
p759
aVDERBY-6246
p760
aVDERBY-6245
p761
aVDERBY-6244
p762
aVDERBY-6243
p763
aVDERBY-6242
p764
aVDERBY-6241
p765
aVDERBY-6240
p766
aVDERBY-6239
p767
aVDERBY-6238
p768
aVDERBY-6237
p769
aVDERBY-6236
p770
aVDERBY-6235
p771
aVDERBY-6234
p772
aVDERBY-6233
p773
aVDERBY-6232
p774
aVDERBY-6231
p775
aVDERBY-6230
p776
aVDERBY-6229
p777
aVDERBY-6228
p778
aVDERBY-6227
p779
aVDERBY-6226
p780
aVDERBY-6225
p781
aVDERBY-6224
p782
aVDERBY-6223
p783
aVDERBY-6222
p784
aVDERBY-6221
p785
aVDERBY-6220
p786
aVDERBY-6219
p787
aVDERBY-6218
p788
aVDERBY-6217
p789
aVDERBY-6216
p790
aVDERBY-6215
p791
aVDERBY-6214
p792
aVDERBY-6213
p793
aVDERBY-6212
p794
aVDERBY-6211
p795
aVDERBY-6210
p796
aVDERBY-6209
p797
aVDERBY-6208
p798
aVDERBY-6207
p799
aVDERBY-6206
p800
aVDERBY-6205
p801
aVDERBY-6204
p802
aVDERBY-6203
p803
aVDERBY-6202
p804
aVDERBY-6201
p805
aVDERBY-6200
p806
aVDERBY-6199
p807
aVDERBY-6198
p808
aVDERBY-6197
p809
aVDERBY-6196
p810
aVDERBY-6195
p811
aVDERBY-6194
p812
aVDERBY-6193
p813
aVDERBY-6192
p814
aVDERBY-6191
p815
aVDERBY-6190
p816
aVDERBY-6189
p817
aVDERBY-6188
p818
aVDERBY-6187
p819
aVDERBY-6186
p820
aVDERBY-6185
p821
aVDERBY-6184
p822
aVDERBY-6183
p823
aVDERBY-6182
p824
aVDERBY-6181
p825
aVDERBY-6180
p826
aVDERBY-6179
p827
aVDERBY-6178
p828
aVDERBY-6177
p829
aVDERBY-6176
p830
aVDERBY-6175
p831
aVDERBY-6174
p832
aVDERBY-6173
p833
aVDERBY-6172
p834
aVDERBY-6171
p835
aVDERBY-6170
p836
aVDERBY-6169
p837
aVDERBY-6168
p838
aVDERBY-6167
p839
aVDERBY-6166
p840
aVDERBY-6165
p841
aVDERBY-6164
p842
aVDERBY-6163
p843
aVDERBY-6162
p844
aVDERBY-6161
p845
aVDERBY-6160
p846
aVDERBY-6159
p847
aVDERBY-6158
p848
aVDERBY-6157
p849
aVDERBY-6156
p850
aVDERBY-6155
p851
aVDERBY-6154
p852
aVDERBY-6153
p853
aVDERBY-6152
p854
aVDERBY-6151
p855
aVDERBY-6150
p856
aVDERBY-6149
p857
aVDERBY-6148
p858
aVDERBY-6147
p859
aVDERBY-6146
p860
aVDERBY-6145
p861
aVDERBY-6144
p862
aVDERBY-6143
p863
aVDERBY-6142
p864
aVDERBY-6141
p865
aVDERBY-6140
p866
aVDERBY-6139
p867
aVDERBY-6138
p868
aVDERBY-6137
p869
aVDERBY-6136
p870
aVDERBY-6135
p871
aVDERBY-6134
p872
aVDERBY-6133
p873
aVDERBY-6132
p874
aVDERBY-6131
p875
aVDERBY-6130
p876
aVDERBY-6129
p877
aVDERBY-6128
p878
aVDERBY-6127
p879
aVDERBY-6126
p880
aVDERBY-6125
p881
aVDERBY-6124
p882
aVDERBY-6123
p883
aVDERBY-6122
p884
aVDERBY-6121
p885
aVDERBY-6120
p886
aVDERBY-6119
p887
aVDERBY-6118
p888
aVDERBY-6117
p889
aVDERBY-6116
p890
aVDERBY-6115
p891
aVDERBY-6114
p892
aVDERBY-6113
p893
aVDERBY-6112
p894
aVDERBY-6111
p895
aVDERBY-6110
p896
aVDERBY-6109
p897
aVDERBY-6108
p898
aVDERBY-6107
p899
aVDERBY-6106
p900
aVDERBY-6105
p901
aVDERBY-6104
p902
aVDERBY-6103
p903
aVDERBY-6102
p904
aVDERBY-6101
p905
aVDERBY-6100
p906
aVDERBY-6099
p907
aVDERBY-6098
p908
aVDERBY-6097
p909
aVDERBY-6096
p910
aVDERBY-6095
p911
aVDERBY-6094
p912
aVDERBY-6093
p913
aVDERBY-6092
p914
aVDERBY-6091
p915
aVDERBY-6090
p916
aVDERBY-6089
p917
aVDERBY-6088
p918
aVDERBY-6087
p919
aVDERBY-6086
p920
aVDERBY-6085
p921
aVDERBY-6084
p922
aVDERBY-6083
p923
aVDERBY-6082
p924
aVDERBY-6081
p925
aVDERBY-6080
p926
aVDERBY-6079
p927
aVDERBY-6078
p928
aVDERBY-6077
p929
aVDERBY-6076
p930
aVDERBY-6075
p931
aVDERBY-6074
p932
aVDERBY-6073
p933
aVDERBY-6072
p934
aVDERBY-6071
p935
aVDERBY-6070
p936
aVDERBY-6069
p937
aVDERBY-6068
p938
aVDERBY-6067
p939
aVDERBY-6066
p940
aVDERBY-6065
p941
aVDERBY-6064
p942
aVDERBY-6063
p943
aVDERBY-6062
p944
aVDERBY-6061
p945
aVDERBY-6060
p946
aVDERBY-6059
p947
aVDERBY-6058
p948
aVDERBY-6057
p949
aVDERBY-6056
p950
aVDERBY-6055
p951
aVDERBY-6054
p952
aVDERBY-6053
p953
aVDERBY-6052
p954
aVDERBY-6051
p955
aVDERBY-6050
p956
aVDERBY-6049
p957
aVDERBY-6048
p958
aVDERBY-6047
p959
aVDERBY-6046
p960
aVDERBY-6045
p961
aVDERBY-6044
p962
aVDERBY-6043
p963
aVDERBY-6042
p964
aVDERBY-6041
p965
aVDERBY-6040
p966
aVDERBY-6039
p967
aVDERBY-6038
p968
aVDERBY-6037
p969
aVDERBY-6036
p970
aVDERBY-6035
p971
aVDERBY-6034
p972
aVDERBY-6033
p973
aVDERBY-6032
p974
aVDERBY-6031
p975
aVDERBY-6030
p976
aVDERBY-6029
p977
aVDERBY-6028
p978
aVDERBY-6027
p979
aVDERBY-6026
p980
aVDERBY-6025
p981
aVDERBY-6024
p982
aVDERBY-6023
p983
aVDERBY-6022
p984
aVDERBY-6021
p985
aVDERBY-6020
p986
aVDERBY-6019
p987
aVDERBY-6018
p988
aVDERBY-6017
p989
aVDERBY-6016
p990
aVDERBY-6015
p991
aVDERBY-6014
p992
aVDERBY-6013
p993
aVDERBY-6012
p994
aVDERBY-6011
p995
aVDERBY-6010
p996
aVDERBY-6009
p997
aVDERBY-6008
p998
aVDERBY-6007
p999
aVDERBY-6006
p1000
aVDERBY-6005
p1001
aVDERBY-6004
p1002
aVDERBY-6003
p1003
aVDERBY-6002
p1004
aVDERBY-6001
p1005
aVDERBY-6000
p1006
aVDERBY-5999
p1007
aVDERBY-5998
p1008
aVDERBY-5997
p1009
aVDERBY-5996
p1010
aVDERBY-5995
p1011
aVDERBY-5994
p1012
aVDERBY-5993
p1013
aVDERBY-5992
p1014
aVDERBY-5991
p1015
aVDERBY-5990
p1016
aVDERBY-5989
p1017
aVDERBY-5988
p1018
aVDERBY-5987
p1019
aVDERBY-5986
p1020
aVDERBY-5985
p1021
aVDERBY-5984
p1022
aVDERBY-5983
p1023
aVDERBY-5982
p1024
aVDERBY-5981
p1025
aVDERBY-5980
p1026
aVDERBY-5979
p1027
aVDERBY-5978
p1028
aVDERBY-5977
p1029
aVDERBY-5976
p1030
aVDERBY-5975
p1031
aVDERBY-5974
p1032
aVDERBY-5973
p1033
aVDERBY-5972
p1034
aVDERBY-5971
p1035
aVDERBY-5970
p1036
aVDERBY-5969
p1037
aVDERBY-5968
p1038
aVDERBY-5967
p1039
aVDERBY-5966
p1040
aVDERBY-5965
p1041
aVDERBY-5964
p1042
aVDERBY-5963
p1043
aVDERBY-5962
p1044
aVDERBY-5961
p1045
aVDERBY-5960
p1046
aVDERBY-5959
p1047
aVDERBY-5958
p1048
aVDERBY-5957
p1049
aVDERBY-5956
p1050
aVDERBY-5955
p1051
aVDERBY-5954
p1052
aVDERBY-5953
p1053
aVDERBY-5952
p1054
aVDERBY-5951
p1055
aVDERBY-5950
p1056
aVDERBY-5949
p1057
aVDERBY-5948
p1058
aVDERBY-5947
p1059
aVDERBY-5946
p1060
aVDERBY-5945
p1061
aVDERBY-5944
p1062
aVDERBY-5943
p1063
aVDERBY-5942
p1064
aVDERBY-5941
p1065
aVDERBY-5940
p1066
aVDERBY-5939
p1067
aVDERBY-5938
p1068
aVDERBY-5937
p1069
aVDERBY-5936
p1070
aVDERBY-5935
p1071
aVDERBY-5934
p1072
aVDERBY-5933
p1073
aVDERBY-5932
p1074
aVDERBY-5931
p1075
aVDERBY-5930
p1076
aVDERBY-5929
p1077
aVDERBY-5928
p1078
aVDERBY-5927
p1079
aVDERBY-5926
p1080
aVDERBY-5925
p1081
aVDERBY-5924
p1082
aVDERBY-5923
p1083
aVDERBY-5922
p1084
aVDERBY-5921
p1085
aVDERBY-5920
p1086
aVDERBY-5919
p1087
aVDERBY-5918
p1088
aVDERBY-5917
p1089
aVDERBY-5916
p1090
aVDERBY-5915
p1091
aVDERBY-5914
p1092
aVDERBY-5913
p1093
aVDERBY-5912
p1094
aVDERBY-5911
p1095
aVDERBY-5910
p1096
aVDERBY-5909
p1097
aVDERBY-5908
p1098
aVDERBY-5907
p1099
aVDERBY-5906
p1100
aVDERBY-5905
p1101
aVDERBY-5904
p1102
aVDERBY-5903
p1103
aVDERBY-5902
p1104
aVDERBY-5901
p1105
aVDERBY-5900
p1106
aVDERBY-5899
p1107
aVDERBY-5898
p1108
aVDERBY-5897
p1109
aVDERBY-5896
p1110
aVDERBY-5895
p1111
aVDERBY-5894
p1112
aVDERBY-5893
p1113
aVDERBY-5892
p1114
aVDERBY-5891
p1115
aVDERBY-5890
p1116
aVDERBY-5889
p1117
aVDERBY-5888
p1118
aVDERBY-5887
p1119
aVDERBY-5886
p1120
aVDERBY-5885
p1121
aVDERBY-5884
p1122
aVDERBY-5883
p1123
aVDERBY-5882
p1124
aVDERBY-5881
p1125
aVDERBY-5880
p1126
aVDERBY-5879
p1127
aVDERBY-5878
p1128
aVDERBY-5877
p1129
aVDERBY-5876
p1130
aVDERBY-5875
p1131
aVDERBY-5874
p1132
aVDERBY-5873
p1133
aVDERBY-5872
p1134
aVDERBY-5871
p1135
aVDERBY-5870
p1136
aVDERBY-5869
p1137
aVDERBY-5868
p1138
aVDERBY-5867
p1139
aVDERBY-5866
p1140
aVDERBY-5865
p1141
aVDERBY-5864
p1142
aVDERBY-5863
p1143
aVDERBY-5862
p1144
aVDERBY-5861
p1145
aVDERBY-5860
p1146
aVDERBY-5859
p1147
aVDERBY-5858
p1148
aVDERBY-5857
p1149
aVDERBY-5856
p1150
aVDERBY-5855
p1151
aVDERBY-5854
p1152
aVDERBY-5853
p1153
aVDERBY-5852
p1154
aVDERBY-5851
p1155
aVDERBY-5850
p1156
aVDERBY-5849
p1157
aVDERBY-5848
p1158
aVDERBY-5847
p1159
aVDERBY-5846
p1160
aVDERBY-5845
p1161
aVDERBY-5844
p1162
aVDERBY-5843
p1163
aVDERBY-5842
p1164
aVDERBY-5841
p1165
aVDERBY-5840
p1166
aVDERBY-5839
p1167
aVDERBY-5838
p1168
aVDERBY-5837
p1169
aVDERBY-5836
p1170
aVDERBY-5835
p1171
aVDERBY-5834
p1172
aVDERBY-5833
p1173
aVDERBY-5832
p1174
aVDERBY-5831
p1175
aVDERBY-5830
p1176
aVDERBY-5829
p1177
aVDERBY-5828
p1178
aVDERBY-5827
p1179
aVDERBY-5826
p1180
aVDERBY-5825
p1181
aVDERBY-5824
p1182
aVDERBY-5823
p1183
aVDERBY-5822
p1184
aVDERBY-5821
p1185
aVDERBY-5820
p1186
aVDERBY-5819
p1187
aVDERBY-5818
p1188
aVDERBY-5817
p1189
aVDERBY-5816
p1190
aVDERBY-5815
p1191
aVDERBY-5814
p1192
aVDERBY-5813
p1193
aVDERBY-5812
p1194
aVDERBY-5811
p1195
aVDERBY-5810
p1196
aVDERBY-5809
p1197
aVDERBY-5808
p1198
aVDERBY-5807
p1199
aVDERBY-5806
p1200
aVDERBY-5805
p1201
aVDERBY-5804
p1202
aVDERBY-5803
p1203
aVDERBY-5802
p1204
aVDERBY-5801
p1205
aVDERBY-5800
p1206
aVDERBY-5799
p1207
aVDERBY-5798
p1208
aVDERBY-5797
p1209
aVDERBY-5796
p1210
aVDERBY-5795
p1211
aVDERBY-5794
p1212
aVDERBY-5793
p1213
aVDERBY-5792
p1214
aVDERBY-5791
p1215
aVDERBY-5790
p1216
aVDERBY-5789
p1217
aVDERBY-5788
p1218
aVDERBY-5787
p1219
aVDERBY-5786
p1220
aVDERBY-5785
p1221
aVDERBY-5784
p1222
aVDERBY-5783
p1223
aVDERBY-5782
p1224
aVDERBY-5781
p1225
aVDERBY-5780
p1226
aVDERBY-5779
p1227
aVDERBY-5778
p1228
aVDERBY-5777
p1229
aVDERBY-5776
p1230
aVDERBY-5775
p1231
aVDERBY-5774
p1232
aVDERBY-5773
p1233
aVDERBY-5772
p1234
aVDERBY-5771
p1235
aVDERBY-5770
p1236
aVDERBY-5769
p1237
aVDERBY-5768
p1238
aVDERBY-5767
p1239
aVDERBY-5766
p1240
aVDERBY-5765
p1241
aVDERBY-5764
p1242
aVDERBY-5763
p1243
aVDERBY-5762
p1244
aVDERBY-5761
p1245
aVDERBY-5760
p1246
aVDERBY-5759
p1247
aVDERBY-5758
p1248
aVDERBY-5757
p1249
aVDERBY-5756
p1250
aVDERBY-5755
p1251
aVDERBY-5754
p1252
aVDERBY-5753
p1253
aVDERBY-5752
p1254
aVDERBY-5751
p1255
aVDERBY-5750
p1256
aVDERBY-5749
p1257
aVDERBY-5748
p1258
aVDERBY-5747
p1259
aVDERBY-5746
p1260
aVDERBY-5745
p1261
aVDERBY-5744
p1262
aVDERBY-5743
p1263
aVDERBY-5742
p1264
aVDERBY-5741
p1265
aVDERBY-5740
p1266
aVDERBY-5739
p1267
aVDERBY-5738
p1268
aVDERBY-5737
p1269
aVDERBY-5736
p1270
aVDERBY-5735
p1271
aVDERBY-5734
p1272
aVDERBY-5733
p1273
aVDERBY-5732
p1274
aVDERBY-5731
p1275
aVDERBY-5730
p1276
aVDERBY-5729
p1277
aVDERBY-5728
p1278
aVDERBY-5727
p1279
aVDERBY-5726
p1280
aVDERBY-5725
p1281
aVDERBY-5724
p1282
aVDERBY-5723
p1283
aVDERBY-5722
p1284
aVDERBY-5721
p1285
aVDERBY-5720
p1286
aVDERBY-5719
p1287
aVDERBY-5718
p1288
aVDERBY-5717
p1289
aVDERBY-5716
p1290
aVDERBY-5715
p1291
aVDERBY-5714
p1292
aVDERBY-5713
p1293
aVDERBY-5712
p1294
aVDERBY-5711
p1295
aVDERBY-5710
p1296
aVDERBY-5709
p1297
aVDERBY-5708
p1298
aVDERBY-5707
p1299
aVDERBY-5706
p1300
aVDERBY-5705
p1301
aVDERBY-5704
p1302
aVDERBY-5703
p1303
aVDERBY-5702
p1304
aVDERBY-5701
p1305
aVDERBY-5700
p1306
aVDERBY-5699
p1307
aVDERBY-5698
p1308
aVDERBY-5697
p1309
aVDERBY-5696
p1310
aVDERBY-5695
p1311
aVDERBY-5694
p1312
aVDERBY-5693
p1313
aVDERBY-5692
p1314
aVDERBY-5691
p1315
aVDERBY-5690
p1316
aVDERBY-5689
p1317
aVDERBY-5688
p1318
aVDERBY-5687
p1319
aVDERBY-5686
p1320
aVDERBY-5685
p1321
aVDERBY-5684
p1322
aVDERBY-5683
p1323
aVDERBY-5682
p1324
aVDERBY-5681
p1325
aVDERBY-5680
p1326
aVDERBY-5679
p1327
aVDERBY-5678
p1328
aVDERBY-5677
p1329
aVDERBY-5676
p1330
aVDERBY-5675
p1331
aVDERBY-5674
p1332
aVDERBY-5673
p1333
aVDERBY-5672
p1334
aVDERBY-5671
p1335
aVDERBY-5670
p1336
aVDERBY-5669
p1337
aVDERBY-5668
p1338
aVDERBY-5667
p1339
aVDERBY-5666
p1340
aVDERBY-5665
p1341
aVDERBY-5664
p1342
aVDERBY-5663
p1343
aVDERBY-5662
p1344
aVDERBY-5661
p1345
aVDERBY-5660
p1346
aVDERBY-5659
p1347
aVDERBY-5658
p1348
aVDERBY-5657
p1349
aVDERBY-5656
p1350
aVDERBY-5655
p1351
aVDERBY-5654
p1352
aVDERBY-5653
p1353
aVDERBY-5652
p1354
aVDERBY-5651
p1355
aVDERBY-5650
p1356
aVDERBY-5649
p1357
aVDERBY-5648
p1358
aVDERBY-5647
p1359
aVDERBY-5646
p1360
aVDERBY-5645
p1361
aVDERBY-5644
p1362
aVDERBY-5643
p1363
aVDERBY-5642
p1364
aVDERBY-5641
p1365
aVDERBY-5640
p1366
aVDERBY-5639
p1367
aVDERBY-5638
p1368
aVDERBY-5637
p1369
aVDERBY-5636
p1370
aVDERBY-5635
p1371
aVDERBY-5634
p1372
aVDERBY-5633
p1373
aVDERBY-5632
p1374
aVDERBY-5631
p1375
aVDERBY-5630
p1376
aVDERBY-5629
p1377
aVDERBY-5628
p1378
aVDERBY-5627
p1379
aVDERBY-5626
p1380
aVDERBY-5625
p1381
aVDERBY-5624
p1382
aVDERBY-5623
p1383
aVDERBY-5622
p1384
aVDERBY-5621
p1385
aVDERBY-5620
p1386
aVDERBY-5619
p1387
aVDERBY-5618
p1388
aVDERBY-5617
p1389
aVDERBY-5616
p1390
aVDERBY-5615
p1391
aVDERBY-5614
p1392
aVDERBY-5613
p1393
aVDERBY-5612
p1394
aVDERBY-5611
p1395
aVDERBY-5610
p1396
aVDERBY-5609
p1397
aVDERBY-5608
p1398
aVDERBY-5607
p1399
aVDERBY-5606
p1400
aVDERBY-5605
p1401
aVDERBY-5604
p1402
aVDERBY-5603
p1403
aVDERBY-5602
p1404
aVDERBY-5601
p1405
aVDERBY-5600
p1406
aVDERBY-5599
p1407
aVDERBY-5598
p1408
aVDERBY-5597
p1409
aVDERBY-5596
p1410
aVDERBY-5595
p1411
aVDERBY-5594
p1412
aVDERBY-5593
p1413
aVDERBY-5592
p1414
aVDERBY-5591
p1415
aVDERBY-5590
p1416
aVDERBY-5589
p1417
aVDERBY-5588
p1418
aVDERBY-5587
p1419
aVDERBY-5586
p1420
aVDERBY-5585
p1421
aVDERBY-5584
p1422
aVDERBY-5583
p1423
aVDERBY-5582
p1424
aVDERBY-5581
p1425
aVDERBY-5580
p1426
aVDERBY-5579
p1427
aVDERBY-5578
p1428
aVDERBY-5577
p1429
aVDERBY-5576
p1430
aVDERBY-5575
p1431
aVDERBY-5574
p1432
aVDERBY-5573
p1433
aVDERBY-5572
p1434
aVDERBY-5571
p1435
aVDERBY-5570
p1436
aVDERBY-5569
p1437
aVDERBY-5568
p1438
aVDERBY-5567
p1439
aVDERBY-5566
p1440
aVDERBY-5565
p1441
aVDERBY-5564
p1442
aVDERBY-5563
p1443
aVDERBY-5562
p1444
aVDERBY-5561
p1445
aVDERBY-5560
p1446
aVDERBY-5559
p1447
aVDERBY-5558
p1448
aVDERBY-5557
p1449
aVDERBY-5556
p1450
aVDERBY-5555
p1451
aVDERBY-5554
p1452
aVDERBY-5553
p1453
aVDERBY-5552
p1454
aVDERBY-5551
p1455
aVDERBY-5550
p1456
aVDERBY-5549
p1457
aVDERBY-5548
p1458
aVDERBY-5547
p1459
aVDERBY-5546
p1460
aVDERBY-5545
p1461
aVDERBY-5544
p1462
aVDERBY-5543
p1463
aVDERBY-5542
p1464
aVDERBY-5541
p1465
aVDERBY-5540
p1466
aVDERBY-5539
p1467
aVDERBY-5538
p1468
aVDERBY-5537
p1469
aVDERBY-5536
p1470
aVDERBY-5535
p1471
aVDERBY-5534
p1472
aVDERBY-5533
p1473
aVDERBY-5532
p1474
aVDERBY-5531
p1475
aVDERBY-5530
p1476
aVDERBY-5529
p1477
aVDERBY-5528
p1478
aVDERBY-5527
p1479
aVDERBY-5526
p1480
aVDERBY-5525
p1481
aVDERBY-5524
p1482
aVDERBY-5523
p1483
aVDERBY-5522
p1484
aVDERBY-5521
p1485
aVDERBY-5520
p1486
aVDERBY-5519
p1487
aVDERBY-5518
p1488
aVDERBY-5517
p1489
aVDERBY-5516
p1490
aVDERBY-5515
p1491
aVDERBY-5514
p1492
aVDERBY-5513
p1493
aVDERBY-5512
p1494
aVDERBY-5511
p1495
aVDERBY-5510
p1496
aVDERBY-5509
p1497
aVDERBY-5508
p1498
aVDERBY-5507
p1499
aVDERBY-5506
p1500
aVDERBY-5505
p1501
aVDERBY-5504
p1502
aVDERBY-5503
p1503
aVDERBY-5502
p1504
aVDERBY-5501
p1505
aVDERBY-5500
p1506
aVDERBY-5499
p1507
aVDERBY-5498
p1508
aVDERBY-5497
p1509
aVDERBY-5496
p1510
aVDERBY-5495
p1511
aVDERBY-5494
p1512
aVDERBY-5493
p1513
aVDERBY-5492
p1514
aVDERBY-5491
p1515
aVDERBY-5490
p1516
aVDERBY-5489
p1517
aVDERBY-5488
p1518
aVDERBY-5487
p1519
aVDERBY-5486
p1520
aVDERBY-5485
p1521
aVDERBY-5484
p1522
aVDERBY-5483
p1523
aVDERBY-5482
p1524
aVDERBY-5481
p1525
aVDERBY-5480
p1526
aVDERBY-5479
p1527
aVDERBY-5478
p1528
aVDERBY-5477
p1529
aVDERBY-5476
p1530
aVDERBY-5475
p1531
aVDERBY-5474
p1532
aVDERBY-5473
p1533
aVDERBY-5472
p1534
aVDERBY-5471
p1535
aVDERBY-5470
p1536
aVDERBY-5469
p1537
aVDERBY-5468
p1538
aVDERBY-5467
p1539
aVDERBY-5466
p1540
aVDERBY-5465
p1541
aVDERBY-5464
p1542
aVDERBY-5463
p1543
aVDERBY-5462
p1544
aVDERBY-5461
p1545
aVDERBY-5460
p1546
aVDERBY-5459
p1547
aVDERBY-5458
p1548
aVDERBY-5457
p1549
aVDERBY-5456
p1550
aVDERBY-5455
p1551
aVDERBY-5454
p1552
aVDERBY-5453
p1553
aVDERBY-5452
p1554
aVDERBY-5451
p1555
aVDERBY-5450
p1556
aVDERBY-5449
p1557
aVDERBY-5448
p1558
aVDERBY-5447
p1559
aVDERBY-5446
p1560
aVDERBY-5445
p1561
aVDERBY-5444
p1562
aVDERBY-5443
p1563
aVDERBY-5442
p1564
aVDERBY-5441
p1565
aVDERBY-5440
p1566
aVDERBY-5439
p1567
aVDERBY-5438
p1568
aVDERBY-5437
p1569
aVDERBY-5436
p1570
aVDERBY-5435
p1571
aVDERBY-5434
p1572
aVDERBY-5433
p1573
aVDERBY-5432
p1574
aVDERBY-5431
p1575
aVDERBY-5430
p1576
aVDERBY-5429
p1577
aVDERBY-5428
p1578
aVDERBY-5427
p1579
aVDERBY-5426
p1580
aVDERBY-5425
p1581
aVDERBY-5424
p1582
aVDERBY-5423
p1583
aVDERBY-5422
p1584
aVDERBY-5421
p1585
aVDERBY-5420
p1586
aVDERBY-5419
p1587
aVDERBY-5418
p1588
aVDERBY-5417
p1589
aVDERBY-5416
p1590
aVDERBY-5415
p1591
aVDERBY-5414
p1592
aVDERBY-5413
p1593
aVDERBY-5412
p1594
aVDERBY-5411
p1595
aVDERBY-5410
p1596
aVDERBY-5409
p1597
aVDERBY-5408
p1598
aVDERBY-5407
p1599
aVDERBY-5406
p1600
aVDERBY-5405
p1601
aVDERBY-5404
p1602
aVDERBY-5403
p1603
aVDERBY-5402
p1604
aVDERBY-5401
p1605
aVDERBY-5400
p1606
aVDERBY-5399
p1607
aVDERBY-5398
p1608
aVDERBY-5397
p1609
aVDERBY-5396
p1610
aVDERBY-5395
p1611
aVDERBY-5394
p1612
aVDERBY-5393
p1613
aVDERBY-5392
p1614
aVDERBY-5391
p1615
aVDERBY-5390
p1616
aVDERBY-5389
p1617
aVDERBY-5388
p1618
aVDERBY-5387
p1619
aVDERBY-5386
p1620
aVDERBY-5385
p1621
aVDERBY-5384
p1622
aVDERBY-5383
p1623
aVDERBY-5382
p1624
aVDERBY-5381
p1625
aVDERBY-5380
p1626
aVDERBY-5379
p1627
aVDERBY-5378
p1628
aVDERBY-5377
p1629
aVDERBY-5376
p1630
aVDERBY-5375
p1631
aVDERBY-5374
p1632
aVDERBY-5373
p1633
aVDERBY-5372
p1634
aVDERBY-5371
p1635
aVDERBY-5370
p1636
aVDERBY-5369
p1637
aVDERBY-5368
p1638
aVDERBY-5367
p1639
aVDERBY-5366
p1640
aVDERBY-5363
p1641
aVDERBY-5362
p1642
aVDERBY-5361
p1643
aVDERBY-5360
p1644
aVDERBY-5359
p1645
aVDERBY-5358
p1646
aVDERBY-5357
p1647
aVDERBY-5356
p1648
aVDERBY-5355
p1649
aVDERBY-5354
p1650
aVDERBY-5353
p1651
aVDERBY-5352
p1652
aVDERBY-5351
p1653
aVDERBY-5350
p1654
aVDERBY-5349
p1655
aVDERBY-5347
p1656
aVDERBY-5346
p1657
aVDERBY-5345
p1658
aVDERBY-5344
p1659
aVDERBY-5343
p1660
aVDERBY-5342
p1661
aVDERBY-5341
p1662
aVDERBY-5340
p1663
aVDERBY-5339
p1664
aVDERBY-5338
p1665
aVDERBY-5337
p1666
aVDERBY-5336
p1667
aVDERBY-5335
p1668
aVDERBY-5334
p1669
aVDERBY-5333
p1670
aVDERBY-5332
p1671
aVDERBY-5331
p1672
aVDERBY-5330
p1673
aVDERBY-5329
p1674
aVDERBY-5328
p1675
aVDERBY-5327
p1676
aVDERBY-5326
p1677
aVDERBY-5325
p1678
aVDERBY-5323
p1679
aVDERBY-5322
p1680
aVDERBY-5320
p1681
aVDERBY-5319
p1682
aVDERBY-5318
p1683
aVDERBY-5317
p1684
aVDERBY-5316
p1685
aVDERBY-5315
p1686
aVDERBY-5314
p1687
aVDERBY-5313
p1688
aVDERBY-5312
p1689
aVDERBY-5311
p1690
aVDERBY-5310
p1691
aVDERBY-5308
p1692
aVDERBY-5307
p1693
aVDERBY-5306
p1694
aVDERBY-5305
p1695
aVDERBY-5304
p1696
aVDERBY-5303
p1697
aVDERBY-5302
p1698
aVDERBY-5301
p1699
aVDERBY-5300
p1700
aVDERBY-5299
p1701
aVDERBY-5298
p1702
aVDERBY-5297
p1703
aVDERBY-5296
p1704
aVDERBY-5295
p1705
aVDERBY-5294
p1706
aVDERBY-5293
p1707
aVDERBY-5292
p1708
aVDERBY-5291
p1709
aVDERBY-5290
p1710
aVDERBY-5289
p1711
aVDERBY-5288
p1712
aVDERBY-5287
p1713
aVDERBY-5286
p1714
aVDERBY-5285
p1715
aVDERBY-5284
p1716
aVDERBY-5283
p1717
aVDERBY-5282
p1718
aVDERBY-5281
p1719
aVDERBY-5280
p1720
aVDERBY-5279
p1721
aVDERBY-5278
p1722
aVDERBY-5277
p1723
aVDERBY-5276
p1724
aVDERBY-5275
p1725
aVDERBY-5274
p1726
aVDERBY-5273
p1727
aVDERBY-5272
p1728
aVDERBY-5271
p1729
aVDERBY-5270
p1730
aVDERBY-5269
p1731
aVDERBY-5268
p1732
aVDERBY-5267
p1733
aVDERBY-5266
p1734
aVDERBY-5265
p1735
aVDERBY-5264
p1736
aVDERBY-5263
p1737
aVDERBY-5262
p1738
aVDERBY-5261
p1739
aVDERBY-5260
p1740
aVDERBY-5259
p1741
aVDERBY-5258
p1742
aVDERBY-5257
p1743
aVDERBY-5256
p1744
aVDERBY-5255
p1745
aVDERBY-5254
p1746
aVDERBY-5253
p1747
aVDERBY-5252
p1748
aVDERBY-5251
p1749
aVDERBY-5250
p1750
aVDERBY-5249
p1751
aVDERBY-5248
p1752
aVDERBY-5247
p1753
aVDERBY-5246
p1754
aVDERBY-5245
p1755
aVDERBY-5244
p1756
aVDERBY-5243
p1757
aVDERBY-5242
p1758
aVDERBY-5241
p1759
aVDERBY-5240
p1760
aVDERBY-5239
p1761
aVDERBY-5238
p1762
aVDERBY-5237
p1763
aVDERBY-5236
p1764
aVDERBY-5235
p1765
aVDERBY-5234
p1766
aVDERBY-5233
p1767
aVDERBY-5232
p1768
aVDERBY-5231
p1769
aVDERBY-5230
p1770
aVDERBY-5229
p1771
aVDERBY-5228
p1772
aVDERBY-5227
p1773
aVDERBY-5226
p1774
aVDERBY-5225
p1775
aVDERBY-5224
p1776
aVDERBY-5223
p1777
aVDERBY-5222
p1778
aVDERBY-5221
p1779
aVDERBY-5220
p1780
aVDERBY-5219
p1781
aVDERBY-5218
p1782
aVDERBY-5217
p1783
aVDERBY-5216
p1784
aVDERBY-5215
p1785
aVDERBY-5214
p1786
aVDERBY-5213
p1787
aVDERBY-5212
p1788
aVDERBY-5211
p1789
aVDERBY-5210
p1790
aVDERBY-5209
p1791
aVDERBY-5208
p1792
aVDERBY-5207
p1793
aVDERBY-5206
p1794
aVDERBY-5205
p1795
aVDERBY-5204
p1796
aVDERBY-5203
p1797
aVDERBY-5202
p1798
aVDERBY-5201
p1799
aVDERBY-5200
p1800
aVDERBY-5199
p1801
aVDERBY-5198
p1802
aVDERBY-5197
p1803
aVDERBY-5196
p1804
aVDERBY-5195
p1805
aVDERBY-5194
p1806
aVDERBY-5193
p1807
aVDERBY-5192
p1808
aVDERBY-5191
p1809
aVDERBY-5190
p1810
aVDERBY-5189
p1811
aVDERBY-5188
p1812
aVDERBY-5187
p1813
aVDERBY-5186
p1814
aVDERBY-5185
p1815
aVDERBY-5184
p1816
aVDERBY-5183
p1817
aVDERBY-5182
p1818
aVDERBY-5181
p1819
aVDERBY-5180
p1820
aVDERBY-5179
p1821
aVDERBY-5178
p1822
aVDERBY-5177
p1823
aVDERBY-5176
p1824
aVDERBY-5175
p1825
aVDERBY-5174
p1826
aVDERBY-5173
p1827
aVDERBY-5172
p1828
aVDERBY-5171
p1829
aVDERBY-5170
p1830
aVDERBY-5169
p1831
aVDERBY-5168
p1832
aVDERBY-5167
p1833
aVDERBY-5166
p1834
aVDERBY-5165
p1835
aVDERBY-5164
p1836
aVDERBY-5163
p1837
aVDERBY-5162
p1838
aVDERBY-5161
p1839
aVDERBY-5160
p1840
aVDERBY-5159
p1841
aVDERBY-5158
p1842
aVDERBY-5157
p1843
aVDERBY-5156
p1844
aVDERBY-5155
p1845
aVDERBY-5154
p1846
aVDERBY-5153
p1847
aVDERBY-5152
p1848
aVDERBY-5151
p1849
aVDERBY-5150
p1850
aVDERBY-5149
p1851
aVDERBY-5148
p1852
aVDERBY-5147
p1853
aVDERBY-5146
p1854
aVDERBY-5145
p1855
aVDERBY-5144
p1856
aVDERBY-5143
p1857
aVDERBY-5142
p1858
aVDERBY-5141
p1859
aVDERBY-5140
p1860
aVDERBY-5139
p1861
aVDERBY-5138
p1862
aVDERBY-5137
p1863
aVDERBY-5136
p1864
aVDERBY-5135
p1865
aVDERBY-5134
p1866
aVDERBY-5133
p1867
aVDERBY-5132
p1868
aVDERBY-5131
p1869
aVDERBY-5130
p1870
aVDERBY-5129
p1871
aVDERBY-5128
p1872
aVDERBY-5127
p1873
aVDERBY-5126
p1874
aVDERBY-5125
p1875
aVDERBY-5124
p1876
aVDERBY-5123
p1877
aVDERBY-5122
p1878
aVDERBY-5121
p1879
aVDERBY-5120
p1880
aVDERBY-5119
p1881
aVDERBY-5118
p1882
aVDERBY-5117
p1883
aVDERBY-5116
p1884
aVDERBY-5115
p1885
aVDERBY-5114
p1886
aVDERBY-5113
p1887
aVDERBY-5112
p1888
aVDERBY-5111
p1889
aVDERBY-5110
p1890
aVDERBY-5109
p1891
aVDERBY-5108
p1892
aVDERBY-5107
p1893
aVDERBY-5106
p1894
aVDERBY-5105
p1895
aVDERBY-5104
p1896
aVDERBY-5103
p1897
aVDERBY-5102
p1898
aVDERBY-5101
p1899
aVDERBY-5100
p1900
aVDERBY-5099
p1901
aVDERBY-5098
p1902
aVDERBY-5097
p1903
aVDERBY-5096
p1904
aVDERBY-5095
p1905
aVDERBY-5094
p1906
aVDERBY-5093
p1907
aVDERBY-5092
p1908
aVDERBY-5091
p1909
aVDERBY-5090
p1910
aVDERBY-5089
p1911
aVDERBY-5088
p1912
aVDERBY-5087
p1913
aVDERBY-5086
p1914
aVDERBY-5085
p1915
aVDERBY-5084
p1916
aVDERBY-5083
p1917
aVDERBY-5082
p1918
aVDERBY-5081
p1919
aVDERBY-5080
p1920
aVDERBY-5079
p1921
aVDERBY-5078
p1922
aVDERBY-5077
p1923
aVDERBY-5076
p1924
aVDERBY-5075
p1925
aVDERBY-5074
p1926
aVDERBY-5073
p1927
aVDERBY-5072
p1928
aVDERBY-5071
p1929
aVDERBY-5070
p1930
aVDERBY-5069
p1931
aVDERBY-5068
p1932
aVDERBY-5067
p1933
aVDERBY-5066
p1934
aVDERBY-5065
p1935
aVDERBY-5064
p1936
aVDERBY-5063
p1937
aVDERBY-5062
p1938
aVDERBY-5061
p1939
aVDERBY-5060
p1940
aVDERBY-5059
p1941
aVDERBY-5058
p1942
aVDERBY-5057
p1943
aVDERBY-5056
p1944
aVDERBY-5055
p1945
aVDERBY-5054
p1946
aVDERBY-5053
p1947
aVDERBY-5052
p1948
aVDERBY-5051
p1949
aVDERBY-5050
p1950
aVDERBY-5049
p1951
aVDERBY-5048
p1952
aVDERBY-5047
p1953
aVDERBY-5046
p1954
aVDERBY-5045
p1955
aVDERBY-5044
p1956
aVDERBY-5043
p1957
aVDERBY-5042
p1958
aVDERBY-5041
p1959
aVDERBY-5040
p1960
aVDERBY-5039
p1961
aVDERBY-5038
p1962
aVDERBY-5037
p1963
aVDERBY-5036
p1964
aVDERBY-5035
p1965
aVDERBY-5034
p1966
aVDERBY-5033
p1967
aVDERBY-5032
p1968
aVDERBY-5031
p1969
aVDERBY-5030
p1970
aVDERBY-5029
p1971
aVDERBY-5028
p1972
aVDERBY-5027
p1973
aVDERBY-5026
p1974
aVDERBY-5025
p1975
aVDERBY-5024
p1976
aVDERBY-5023
p1977
aVDERBY-5022
p1978
aVDERBY-5021
p1979
aVDERBY-5020
p1980
aVDERBY-5019
p1981
aVDERBY-5018
p1982
aVDERBY-5017
p1983
aVDERBY-5016
p1984
aVDERBY-5015
p1985
aVDERBY-5014
p1986
aVDERBY-5013
p1987
aVDERBY-5012
p1988
aVDERBY-5011
p1989
aVDERBY-5010
p1990
aVDERBY-5009
p1991
aVDERBY-5008
p1992
aVDERBY-5007
p1993
aVDERBY-5006
p1994
aVDERBY-5005
p1995
aVDERBY-5004
p1996
aVDERBY-5003
p1997
aVDERBY-5002
p1998
aVDERBY-5001
p1999
aVDERBY-5000
p2000
aVDERBY-4999
p2001
aVDERBY-4998
p2002
aVDERBY-4997
p2003
aVDERBY-4996
p2004
aVDERBY-4995
p2005
aVDERBY-4994
p2006
aVDERBY-4993
p2007
aVDERBY-4992
p2008
aVDERBY-4991
p2009
aVDERBY-4990
p2010
aVDERBY-4989
p2011
aVDERBY-4988
p2012
aVDERBY-4987
p2013
aVDERBY-4986
p2014
aVDERBY-4985
p2015
aVDERBY-4984
p2016
aVDERBY-4983
p2017
aVDERBY-4982
p2018
aVDERBY-4981
p2019
aVDERBY-4980
p2020
aVDERBY-4979
p2021
aVDERBY-4978
p2022
aVDERBY-4977
p2023
aVDERBY-4976
p2024
aVDERBY-4975
p2025
aVDERBY-4974
p2026
aVDERBY-4973
p2027
aVDERBY-4972
p2028
aVDERBY-4971
p2029
aVDERBY-4970
p2030
aVDERBY-4969
p2031
aVDERBY-4968
p2032
aVDERBY-4967
p2033
aVDERBY-4966
p2034
aVDERBY-4965
p2035
aVDERBY-4964
p2036
aVDERBY-4963
p2037
aVDERBY-4962
p2038
aVDERBY-4961
p2039
aVDERBY-4960
p2040
aVDERBY-4959
p2041
aVDERBY-4958
p2042
aVDERBY-4957
p2043
aVDERBY-4956
p2044
aVDERBY-4955
p2045
aVDERBY-4954
p2046
aVDERBY-4953
p2047
aVDERBY-4952
p2048
aVDERBY-4951
p2049
aVDERBY-4950
p2050
aVDERBY-4949
p2051
aVDERBY-4948
p2052
aVDERBY-4947
p2053
aVDERBY-4946
p2054
aVDERBY-4945
p2055
aVDERBY-4944
p2056
aVDERBY-4943
p2057
aVDERBY-4942
p2058
aVDERBY-4941
p2059
aVDERBY-4940
p2060
aVDERBY-4939
p2061
aVDERBY-4938
p2062
aVDERBY-4937
p2063
aVDERBY-4936
p2064
aVDERBY-4935
p2065
aVDERBY-4934
p2066
aVDERBY-4933
p2067
aVDERBY-4932
p2068
aVDERBY-4931
p2069
aVDERBY-4930
p2070
aVDERBY-4929
p2071
aVDERBY-4928
p2072
aVDERBY-4927
p2073
aVDERBY-4926
p2074
aVDERBY-4925
p2075
aVDERBY-4924
p2076
aVDERBY-4923
p2077
aVDERBY-4922
p2078
aVDERBY-4921
p2079
aVDERBY-4920
p2080
aVDERBY-4919
p2081
aVDERBY-4918
p2082
aVDERBY-4917
p2083
aVDERBY-4916
p2084
aVDERBY-4915
p2085
aVDERBY-4914
p2086
aVDERBY-4913
p2087
aVDERBY-4912
p2088
aVDERBY-4911
p2089
aVDERBY-4910
p2090
aVDERBY-4909
p2091
aVDERBY-4908
p2092
aVDERBY-4907
p2093
aVDERBY-4906
p2094
aVDERBY-4905
p2095
aVDERBY-4904
p2096
aVDERBY-4903
p2097
aVDERBY-4902
p2098
aVDERBY-4901
p2099
aVDERBY-4900
p2100
aVDERBY-4899
p2101
aVDERBY-4898
p2102
aVDERBY-4897
p2103
aVDERBY-4896
p2104
aVDERBY-4895
p2105
aVDERBY-4894
p2106
aVDERBY-4893
p2107
aVDERBY-4892
p2108
aVDERBY-4891
p2109
aVDERBY-4890
p2110
aVDERBY-4889
p2111
aVDERBY-4888
p2112
aVDERBY-4887
p2113
aVDERBY-4886
p2114
aVDERBY-4885
p2115
aVDERBY-4884
p2116
aVDERBY-4883
p2117
aVDERBY-4882
p2118
aVDERBY-4881
p2119
aVDERBY-4880
p2120
aVDERBY-4879
p2121
aVDERBY-4878
p2122
aVDERBY-4877
p2123
aVDERBY-4876
p2124
aVDERBY-4875
p2125
aVDERBY-4874
p2126
aVDERBY-4873
p2127
aVDERBY-4872
p2128
aVDERBY-4871
p2129
aVDERBY-4870
p2130
aVDERBY-4869
p2131
aVDERBY-4868
p2132
aVDERBY-4867
p2133
aVDERBY-4866
p2134
aVDERBY-4865
p2135
aVDERBY-4864
p2136
aVDERBY-4863
p2137
aVDERBY-4862
p2138
aVDERBY-4861
p2139
aVDERBY-4860
p2140
aVDERBY-4859
p2141
aVDERBY-4858
p2142
aVDERBY-4857
p2143
aVDERBY-4856
p2144
aVDERBY-4855
p2145
aVDERBY-4854
p2146
aVDERBY-4853
p2147
aVDERBY-4852
p2148
aVDERBY-4851
p2149
aVDERBY-4850
p2150
aVDERBY-4849
p2151
aVDERBY-4848
p2152
aVDERBY-4847
p2153
aVDERBY-4846
p2154
aVDERBY-4845
p2155
aVDERBY-4844
p2156
aVDERBY-4843
p2157
aVDERBY-4842
p2158
aVDERBY-4841
p2159
aVDERBY-4840
p2160
aVDERBY-4839
p2161
aVDERBY-4838
p2162
aVDERBY-4837
p2163
aVDERBY-4836
p2164
aVDERBY-4835
p2165
aVDERBY-4834
p2166
aVDERBY-4833
p2167
aVDERBY-4832
p2168
aVDERBY-4831
p2169
aVDERBY-4830
p2170
aVDERBY-4829
p2171
aVDERBY-4828
p2172
aVDERBY-4827
p2173
aVDERBY-4826
p2174
aVDERBY-4825
p2175
aVDERBY-4824
p2176
aVDERBY-4823
p2177
aVDERBY-4822
p2178
aVDERBY-4821
p2179
aVDERBY-4820
p2180
aVDERBY-4819
p2181
aVDERBY-4818
p2182
aVDERBY-4817
p2183
aVDERBY-4816
p2184
aVDERBY-4815
p2185
aVDERBY-4814
p2186
aVDERBY-4813
p2187
aVDERBY-4812
p2188
aVDERBY-4811
p2189
aVDERBY-4810
p2190
aVDERBY-4809
p2191
aVDERBY-4808
p2192
aVDERBY-4807
p2193
aVDERBY-4806
p2194
aVDERBY-4805
p2195
aVDERBY-4804
p2196
aVDERBY-4803
p2197
aVDERBY-4802
p2198
aVDERBY-4801
p2199
aVDERBY-4800
p2200
aVDERBY-4799
p2201
aVDERBY-4798
p2202
aVDERBY-4797
p2203
aVDERBY-4796
p2204
aVDERBY-4795
p2205
aVDERBY-4794
p2206
aVDERBY-4793
p2207
aVDERBY-4792
p2208
aVDERBY-4791
p2209
aVDERBY-4790
p2210
aVDERBY-4789
p2211
aVDERBY-4788
p2212
aVDERBY-4787
p2213
aVDERBY-4786
p2214
aVDERBY-4785
p2215
aVDERBY-4784
p2216
aVDERBY-4783
p2217
aVDERBY-4782
p2218
aVDERBY-4781
p2219
aVDERBY-4780
p2220
aVDERBY-4779
p2221
aVDERBY-4778
p2222
aVDERBY-4777
p2223
aVDERBY-4776
p2224
aVDERBY-4775
p2225
aVDERBY-4774
p2226
aVDERBY-4773
p2227
aVDERBY-4772
p2228
aVDERBY-4771
p2229
aVDERBY-4770
p2230
aVDERBY-4769
p2231
aVDERBY-4768
p2232
aVDERBY-4767
p2233
aVDERBY-4766
p2234
aVDERBY-4765
p2235
aVDERBY-4764
p2236
aVDERBY-4763
p2237
aVDERBY-4762
p2238
aVDERBY-4761
p2239
aVDERBY-4760
p2240
aVDERBY-4759
p2241
aVDERBY-4758
p2242
aVDERBY-4757
p2243
aVDERBY-4756
p2244
aVDERBY-4755
p2245
aVDERBY-4754
p2246
aVDERBY-4753
p2247
aVDERBY-4752
p2248
aVDERBY-4751
p2249
aVDERBY-4750
p2250
aVDERBY-4749
p2251
aVDERBY-4748
p2252
aVDERBY-4747
p2253
aVDERBY-4746
p2254
aVDERBY-4745
p2255
aVDERBY-4744
p2256
aVDERBY-4743
p2257
aVDERBY-4742
p2258
aVDERBY-4741
p2259
aVDERBY-4740
p2260
aVDERBY-4739
p2261
aVDERBY-4738
p2262
aVDERBY-4737
p2263
aVDERBY-4736
p2264
aVDERBY-4735
p2265
aVDERBY-4734
p2266
aVDERBY-4733
p2267
aVDERBY-4732
p2268
aVDERBY-4731
p2269
aVDERBY-4730
p2270
aVDERBY-4729
p2271
aVDERBY-4728
p2272
aVDERBY-4727
p2273
aVDERBY-4726
p2274
aVDERBY-4725
p2275
aVDERBY-4724
p2276
aVDERBY-4723
p2277
aVDERBY-4722
p2278
aVDERBY-4721
p2279
aVDERBY-4720
p2280
aVDERBY-4719
p2281
aVDERBY-4718
p2282
aVDERBY-4717
p2283
aVDERBY-4716
p2284
aVDERBY-4715
p2285
aVDERBY-4714
p2286
aVDERBY-4713
p2287
aVDERBY-4712
p2288
aVDERBY-4711
p2289
aVDERBY-4710
p2290
aVDERBY-4709
p2291
aVDERBY-4708
p2292
aVDERBY-4707
p2293
aVDERBY-4706
p2294
aVDERBY-4705
p2295
aVDERBY-4704
p2296
aVDERBY-4703
p2297
aVDERBY-4702
p2298
aVDERBY-4701
p2299
aVDERBY-4700
p2300
aVDERBY-4699
p2301
aVDERBY-4698
p2302
aVDERBY-4697
p2303
aVDERBY-4696
p2304
aVDERBY-4695
p2305
aVDERBY-4694
p2306
aVDERBY-4693
p2307
aVDERBY-4692
p2308
aVDERBY-4691
p2309
aVDERBY-4690
p2310
aVDERBY-4689
p2311
aVDERBY-4688
p2312
aVDERBY-4687
p2313
aVDERBY-4686
p2314
aVDERBY-4685
p2315
aVDERBY-4684
p2316
aVDERBY-4683
p2317
aVDERBY-4682
p2318
aVDERBY-4681
p2319
aVDERBY-4680
p2320
aVDERBY-4679
p2321
aVDERBY-4678
p2322
aVDERBY-4677
p2323
aVDERBY-4676
p2324
aVDERBY-4675
p2325
aVDERBY-4674
p2326
aVDERBY-4673
p2327
aVDERBY-4672
p2328
aVDERBY-4671
p2329
aVDERBY-4670
p2330
aVDERBY-4669
p2331
aVDERBY-4668
p2332
aVDERBY-4667
p2333
aVDERBY-4666
p2334
aVDERBY-4665
p2335
aVDERBY-4664
p2336
aVDERBY-4663
p2337
aVDERBY-4662
p2338
aVDERBY-4661
p2339
aVDERBY-4660
p2340
aVDERBY-4659
p2341
aVDERBY-4658
p2342
aVDERBY-4657
p2343
aVDERBY-4656
p2344
aVDERBY-4655
p2345
aVDERBY-4654
p2346
aVDERBY-4653
p2347
aVDERBY-4652
p2348
aVDERBY-4651
p2349
aVDERBY-4650
p2350
aVDERBY-4649
p2351
aVDERBY-4648
p2352
aVDERBY-4647
p2353
aVDERBY-4646
p2354
aVDERBY-4645
p2355
aVDERBY-4644
p2356
aVDERBY-4643
p2357
aVDERBY-4642
p2358
aVDERBY-4641
p2359
aVDERBY-4640
p2360
aVDERBY-4639
p2361
aVDERBY-4638
p2362
aVDERBY-4637
p2363
aVDERBY-4636
p2364
aVDERBY-4635
p2365
aVDERBY-4634
p2366
aVDERBY-4633
p2367
aVDERBY-4632
p2368
aVDERBY-4631
p2369
aVDERBY-4630
p2370
aVDERBY-4629
p2371
aVDERBY-4628
p2372
aVDERBY-4627
p2373
aVDERBY-4626
p2374
aVDERBY-4625
p2375
aVDERBY-4624
p2376
aVDERBY-4623
p2377
aVDERBY-4622
p2378
aVDERBY-4621
p2379
aVDERBY-4620
p2380
aVDERBY-4619
p2381
aVDERBY-4618
p2382
aVDERBY-4617
p2383
aVDERBY-4616
p2384
aVDERBY-4615
p2385
aVDERBY-4614
p2386
aVDERBY-4613
p2387
aVDERBY-4612
p2388
aVDERBY-4611
p2389
aVDERBY-4610
p2390
aVDERBY-4609
p2391
aVDERBY-4608
p2392
aVDERBY-4607
p2393
aVDERBY-4606
p2394
aVDERBY-4605
p2395
aVDERBY-4604
p2396
aVDERBY-4603
p2397
aVDERBY-4602
p2398
aVDERBY-4601
p2399
aVDERBY-4600
p2400
aVDERBY-4599
p2401
aVDERBY-4598
p2402
aVDERBY-4597
p2403
aVDERBY-4596
p2404
aVDERBY-4595
p2405
aVDERBY-4594
p2406
aVDERBY-4593
p2407
aVDERBY-4592
p2408
aVDERBY-4591
p2409
aVDERBY-4590
p2410
aVDERBY-4589
p2411
aVDERBY-4588
p2412
aVDERBY-4587
p2413
aVDERBY-4586
p2414
aVDERBY-4585
p2415
aVDERBY-4584
p2416
aVDERBY-4583
p2417
aVDERBY-4582
p2418
aVDERBY-4581
p2419
aVDERBY-4580
p2420
aVDERBY-4579
p2421
aVDERBY-4578
p2422
aVDERBY-4577
p2423
aVDERBY-4576
p2424
aVDERBY-4575
p2425
aVDERBY-4574
p2426
aVDERBY-4573
p2427
aVDERBY-4572
p2428
aVDERBY-4571
p2429
aVDERBY-4570
p2430
aVDERBY-4569
p2431
aVDERBY-4568
p2432
aVDERBY-4567
p2433
aVDERBY-4566
p2434
aVDERBY-4565
p2435
aVDERBY-4564
p2436
aVDERBY-4563
p2437
aVDERBY-4562
p2438
aVDERBY-4561
p2439
aVDERBY-4560
p2440
aVDERBY-4559
p2441
aVDERBY-4558
p2442
aVDERBY-4557
p2443
aVDERBY-4556
p2444
aVDERBY-4555
p2445
aVDERBY-4554
p2446
aVDERBY-4553
p2447
aVDERBY-4552
p2448
aVDERBY-4551
p2449
aVDERBY-4550
p2450
aVDERBY-4549
p2451
aVDERBY-4548
p2452
aVDERBY-4547
p2453
aVDERBY-4546
p2454
aVDERBY-4545
p2455
aVDERBY-4544
p2456
aVDERBY-4543
p2457
aVDERBY-4542
p2458
aVDERBY-4541
p2459
aVDERBY-4540
p2460
aVDERBY-4539
p2461
aVDERBY-4538
p2462
aVDERBY-4537
p2463
aVDERBY-4536
p2464
aVDERBY-4535
p2465
aVDERBY-4534
p2466
aVDERBY-4533
p2467
aVDERBY-4532
p2468
aVDERBY-4531
p2469
aVDERBY-4530
p2470
aVDERBY-4529
p2471
aVDERBY-4528
p2472
aVDERBY-4527
p2473
aVDERBY-4526
p2474
aVDERBY-4525
p2475
aVDERBY-4524
p2476
aVDERBY-4523
p2477
aVDERBY-4522
p2478
aVDERBY-4521
p2479
aVDERBY-4520
p2480
aVDERBY-4519
p2481
aVDERBY-4518
p2482
aVDERBY-4517
p2483
aVDERBY-4516
p2484
aVDERBY-4515
p2485
aVDERBY-4514
p2486
aVDERBY-4513
p2487
aVDERBY-4512
p2488
aVDERBY-4511
p2489
aVDERBY-4510
p2490
aVDERBY-4509
p2491
aVDERBY-4508
p2492
aVDERBY-4507
p2493
aVDERBY-4506
p2494
aVDERBY-4505
p2495
aVDERBY-4504
p2496
aVDERBY-4503
p2497
aVDERBY-4502
p2498
aVDERBY-4501
p2499
aVDERBY-4500
p2500
aVDERBY-4499
p2501
aVDERBY-4498
p2502
aVDERBY-4497
p2503
aVDERBY-4496
p2504
aVDERBY-4495
p2505
aVDERBY-4494
p2506
aVDERBY-4493
p2507
aVDERBY-4492
p2508
aVDERBY-4491
p2509
aVDERBY-4490
p2510
aVDERBY-4489
p2511
aVDERBY-4488
p2512
aVDERBY-4487
p2513
aVDERBY-4486
p2514
aVDERBY-4485
p2515
aVDERBY-4484
p2516
aVDERBY-4483
p2517
aVDERBY-4482
p2518
aVDERBY-4481
p2519
aVDERBY-4480
p2520
aVDERBY-4479
p2521
aVDERBY-4478
p2522
aVDERBY-4477
p2523
aVDERBY-4476
p2524
aVDERBY-4475
p2525
aVDERBY-4474
p2526
aVDERBY-4473
p2527
aVDERBY-4472
p2528
aVDERBY-4471
p2529
aVDERBY-4470
p2530
aVDERBY-4469
p2531
aVDERBY-4468
p2532
aVDERBY-4467
p2533
aVDERBY-4466
p2534
aVDERBY-4465
p2535
aVDERBY-4464
p2536
aVDERBY-4463
p2537
aVDERBY-4462
p2538
aVDERBY-4461
p2539
aVDERBY-4460
p2540
aVDERBY-4459
p2541
aVDERBY-4458
p2542
aVDERBY-4457
p2543
aVDERBY-4456
p2544
aVDERBY-4455
p2545
aVDERBY-4454
p2546
aVDERBY-4453
p2547
aVDERBY-4452
p2548
aVDERBY-4451
p2549
aVDERBY-4450
p2550
aVDERBY-4449
p2551
aVDERBY-4448
p2552
aVDERBY-4447
p2553
aVDERBY-4446
p2554
aVDERBY-4445
p2555
aVDERBY-4444
p2556
aVDERBY-4443
p2557
aVDERBY-4442
p2558
aVDERBY-4441
p2559
aVDERBY-4440
p2560
aVDERBY-4439
p2561
aVDERBY-4438
p2562
aVDERBY-4437
p2563
aVDERBY-4436
p2564
aVDERBY-4435
p2565
aVDERBY-4434
p2566
aVDERBY-4433
p2567
aVDERBY-4432
p2568
aVDERBY-4431
p2569
aVDERBY-4430
p2570
aVDERBY-4429
p2571
aVDERBY-4428
p2572
aVDERBY-4427
p2573
aVDERBY-4426
p2574
aVDERBY-4425
p2575
aVDERBY-4424
p2576
aVDERBY-4423
p2577
aVDERBY-4422
p2578
aVDERBY-4421
p2579
aVDERBY-4420
p2580
aVDERBY-4419
p2581
aVDERBY-4418
p2582
aVDERBY-4417
p2583
aVDERBY-4416
p2584
aVDERBY-4415
p2585
aVDERBY-4414
p2586
aVDERBY-4413
p2587
aVDERBY-4412
p2588
aVDERBY-4411
p2589
aVDERBY-4410
p2590
aVDERBY-4409
p2591
aVDERBY-4408
p2592
aVDERBY-4407
p2593
aVDERBY-4406
p2594
aVDERBY-4405
p2595
aVDERBY-4404
p2596
aVDERBY-4403
p2597
aVDERBY-4402
p2598
aVDERBY-4401
p2599
aVDERBY-4400
p2600
aVDERBY-4399
p2601
aVDERBY-4398
p2602
aVDERBY-4397
p2603
aVDERBY-4396
p2604
aVDERBY-4395
p2605
aVDERBY-4394
p2606
aVDERBY-4393
p2607
aVDERBY-4392
p2608
aVDERBY-4391
p2609
aVDERBY-4390
p2610
aVDERBY-4389
p2611
aVDERBY-4388
p2612
aVDERBY-4387
p2613
aVDERBY-4386
p2614
aVDERBY-4385
p2615
aVDERBY-4384
p2616
aVDERBY-4383
p2617
aVDERBY-4382
p2618
aVDERBY-4381
p2619
aVDERBY-4380
p2620
aVDERBY-4379
p2621
aVDERBY-4378
p2622
aVDERBY-4377
p2623
aVDERBY-4376
p2624
aVDERBY-4375
p2625
aVDERBY-4374
p2626
aVDERBY-4373
p2627
aVDERBY-4372
p2628
aVDERBY-4371
p2629
aVDERBY-4370
p2630
aVDERBY-4369
p2631
aVDERBY-4368
p2632
aVDERBY-4367
p2633
aVDERBY-4366
p2634
aVDERBY-4365
p2635
aVDERBY-4364
p2636
aVDERBY-4363
p2637
aVDERBY-4362
p2638
aVDERBY-4361
p2639
aVDERBY-4360
p2640
aVDERBY-4359
p2641
aVDERBY-4358
p2642
aVDERBY-4357
p2643
aVDERBY-4356
p2644
aVDERBY-4355
p2645
aVDERBY-4354
p2646
aVDERBY-4353
p2647
aVDERBY-4352
p2648
aVDERBY-4351
p2649
aVDERBY-4350
p2650
aVDERBY-4349
p2651
aVDERBY-4348
p2652
aVDERBY-4347
p2653
aVDERBY-4346
p2654
aVDERBY-4345
p2655
aVDERBY-4344
p2656
aVDERBY-4343
p2657
aVDERBY-4342
p2658
aVDERBY-4341
p2659
aVDERBY-4340
p2660
aVDERBY-4339
p2661
aVDERBY-4338
p2662
aVDERBY-4337
p2663
aVDERBY-4336
p2664
aVDERBY-4335
p2665
aVDERBY-4334
p2666
aVDERBY-4333
p2667
aVDERBY-4332
p2668
aVDERBY-4331
p2669
aVDERBY-4330
p2670
aVDERBY-4329
p2671
aVDERBY-4328
p2672
aVDERBY-4327
p2673
aVDERBY-4326
p2674
aVDERBY-4325
p2675
aVDERBY-4324
p2676
aVDERBY-4323
p2677
aVDERBY-4322
p2678
aVDERBY-4321
p2679
aVDERBY-4320
p2680
aVDERBY-4319
p2681
aVDERBY-4318
p2682
aVDERBY-4317
p2683
aVDERBY-4316
p2684
aVDERBY-4315
p2685
aVDERBY-4314
p2686
aVDERBY-4313
p2687
aVDERBY-4312
p2688
aVDERBY-4311
p2689
aVDERBY-4310
p2690
aVDERBY-4309
p2691
aVDERBY-4308
p2692
aVDERBY-4307
p2693
aVDERBY-4306
p2694
aVDERBY-4305
p2695
aVDERBY-4304
p2696
aVDERBY-4303
p2697
aVDERBY-4302
p2698
aVDERBY-4301
p2699
aVDERBY-4300
p2700
aVDERBY-4299
p2701
aVDERBY-4298
p2702
aVDERBY-4297
p2703
aVDERBY-4296
p2704
aVDERBY-4295
p2705
aVDERBY-4294
p2706
aVDERBY-4293
p2707
aVDERBY-4292
p2708
aVDERBY-4291
p2709
aVDERBY-4290
p2710
aVDERBY-4289
p2711
aVDERBY-4288
p2712
aVDERBY-4287
p2713
aVDERBY-4286
p2714
aVDERBY-4285
p2715
aVDERBY-4284
p2716
aVDERBY-4283
p2717
aVDERBY-4282
p2718
aVDERBY-4281
p2719
aVDERBY-4280
p2720
aVDERBY-4279
p2721
aVDERBY-4278
p2722
aVDERBY-4277
p2723
aVDERBY-4276
p2724
aVDERBY-4275
p2725
aVDERBY-4274
p2726
aVDERBY-4273
p2727
aVDERBY-4272
p2728
aVDERBY-4271
p2729
aVDERBY-4270
p2730
aVDERBY-4269
p2731
aVDERBY-4268
p2732
aVDERBY-4267
p2733
aVDERBY-4266
p2734
aVDERBY-4265
p2735
aVDERBY-4264
p2736
aVDERBY-4263
p2737
aVDERBY-4262
p2738
aVDERBY-4261
p2739
aVDERBY-4260
p2740
aVDERBY-4259
p2741
aVDERBY-4258
p2742
aVDERBY-4257
p2743
aVDERBY-4256
p2744
aVDERBY-4255
p2745
aVDERBY-4254
p2746
aVDERBY-4253
p2747
aVDERBY-4252
p2748
aVDERBY-4251
p2749
aVDERBY-4250
p2750
aVDERBY-4249
p2751
aVDERBY-4248
p2752
aVDERBY-4247
p2753
aVDERBY-4246
p2754
aVDERBY-4245
p2755
aVDERBY-4244
p2756
aVDERBY-4243
p2757
aVDERBY-4242
p2758
aVDERBY-4241
p2759
aVDERBY-4240
p2760
aVDERBY-4239
p2761
aVDERBY-4238
p2762
aVDERBY-4237
p2763
aVDERBY-4236
p2764
aVDERBY-4235
p2765
aVDERBY-4234
p2766
aVDERBY-4233
p2767
aVDERBY-4232
p2768
aVDERBY-4231
p2769
aVDERBY-4230
p2770
aVDERBY-4229
p2771
aVDERBY-4228
p2772
aVDERBY-4227
p2773
aVDERBY-4226
p2774
aVDERBY-4225
p2775
aVDERBY-4224
p2776
aVDERBY-4223
p2777
aVDERBY-4222
p2778
aVDERBY-4221
p2779
aVDERBY-4220
p2780
aVDERBY-4219
p2781
aVDERBY-4218
p2782
aVDERBY-4217
p2783
aVDERBY-4216
p2784
aVDERBY-4215
p2785
aVDERBY-4214
p2786
aVDERBY-4213
p2787
aVDERBY-4212
p2788
aVDERBY-4211
p2789
aVDERBY-4210
p2790
aVDERBY-4209
p2791
aVDERBY-4208
p2792
aVDERBY-4207
p2793
aVDERBY-4206
p2794
aVDERBY-4205
p2795
aVDERBY-4204
p2796
aVDERBY-4203
p2797
aVDERBY-4202
p2798
aVDERBY-4201
p2799
aVDERBY-4200
p2800
aVDERBY-4199
p2801
aVDERBY-4198
p2802
aVDERBY-4197
p2803
aVDERBY-4196
p2804
aVDERBY-4195
p2805
aVDERBY-4194
p2806
aVDERBY-4193
p2807
aVDERBY-4192
p2808
aVDERBY-4191
p2809
aVDERBY-4190
p2810
aVDERBY-4189
p2811
aVDERBY-4188
p2812
aVDERBY-4187
p2813
aVDERBY-4186
p2814
aVDERBY-4185
p2815
aVDERBY-4184
p2816
aVDERBY-4183
p2817
aVDERBY-4182
p2818
aVDERBY-4181
p2819
aVDERBY-4180
p2820
aVDERBY-4179
p2821
aVDERBY-4178
p2822
aVDERBY-4177
p2823
aVDERBY-4176
p2824
aVDERBY-4175
p2825
aVDERBY-4174
p2826
aVDERBY-4173
p2827
aVDERBY-4172
p2828
aVDERBY-4171
p2829
aVDERBY-4170
p2830
aVDERBY-4169
p2831
aVDERBY-4168
p2832
aVDERBY-4167
p2833
aVDERBY-4166
p2834
aVDERBY-4165
p2835
aVDERBY-4164
p2836
aVDERBY-4163
p2837
aVDERBY-4162
p2838
aVDERBY-4161
p2839
aVDERBY-4160
p2840
aVDERBY-4159
p2841
aVDERBY-4158
p2842
aVDERBY-4157
p2843
aVDERBY-4156
p2844
aVDERBY-4155
p2845
aVDERBY-4154
p2846
aVDERBY-4153
p2847
aVDERBY-4152
p2848
aVDERBY-4151
p2849
aVDERBY-4150
p2850
aVDERBY-4149
p2851
aVDERBY-4148
p2852
aVDERBY-4147
p2853
aVDERBY-4146
p2854
aVDERBY-4145
p2855
aVDERBY-4144
p2856
aVDERBY-4143
p2857
aVDERBY-4142
p2858
aVDERBY-4141
p2859
aVDERBY-4140
p2860
aVDERBY-4139
p2861
aVDERBY-4138
p2862
aVDERBY-4137
p2863
aVDERBY-4136
p2864
aVDERBY-4135
p2865
aVDERBY-4134
p2866
aVDERBY-4133
p2867
aVDERBY-4132
p2868
aVDERBY-4131
p2869
aVDERBY-4130
p2870
aVDERBY-4129
p2871
aVDERBY-4128
p2872
aVDERBY-4127
p2873
aVDERBY-4126
p2874
aVDERBY-4125
p2875
aVDERBY-4124
p2876
aVDERBY-4123
p2877
aVDERBY-4122
p2878
aVDERBY-4121
p2879
aVDERBY-4120
p2880
aVDERBY-4119
p2881
aVDERBY-4118
p2882
aVDERBY-4117
p2883
aVDERBY-4116
p2884
aVDERBY-4115
p2885
aVDERBY-4114
p2886
aVDERBY-4113
p2887
aVDERBY-4112
p2888
aVDERBY-4111
p2889
aVDERBY-4110
p2890
aVDERBY-4109
p2891
aVDERBY-4108
p2892
aVDERBY-4107
p2893
aVDERBY-4106
p2894
aVDERBY-4105
p2895
aVDERBY-4104
p2896
aVDERBY-4103
p2897
aVDERBY-4102
p2898
aVDERBY-4101
p2899
aVDERBY-4100
p2900
aVDERBY-4099
p2901
aVDERBY-4098
p2902
aVDERBY-4097
p2903
aVDERBY-4096
p2904
aVDERBY-4095
p2905
aVDERBY-4094
p2906
aVDERBY-4093
p2907
aVDERBY-4092
p2908
aVDERBY-4091
p2909
aVDERBY-4090
p2910
aVDERBY-4089
p2911
aVDERBY-4088
p2912
aVDERBY-4087
p2913
aVDERBY-4086
p2914
aVDERBY-4085
p2915
aVDERBY-4084
p2916
aVDERBY-4083
p2917
aVDERBY-4082
p2918
aVDERBY-4081
p2919
aVDERBY-4080
p2920
aVDERBY-4079
p2921
aVDERBY-4078
p2922
aVDERBY-4077
p2923
aVDERBY-4076
p2924
aVDERBY-4075
p2925
aVDERBY-4074
p2926
aVDERBY-4073
p2927
aVDERBY-4072
p2928
aVDERBY-4071
p2929
aVDERBY-4070
p2930
aVDERBY-4069
p2931
aVDERBY-4068
p2932
aVDERBY-4067
p2933
aVDERBY-4066
p2934
aVDERBY-4065
p2935
aVDERBY-4064
p2936
aVDERBY-4063
p2937
aVDERBY-4062
p2938
aVDERBY-4061
p2939
aVDERBY-4060
p2940
aVDERBY-4059
p2941
aVDERBY-4058
p2942
aVDERBY-4057
p2943
aVDERBY-4056
p2944
aVDERBY-4055
p2945
aVDERBY-4054
p2946
aVDERBY-4053
p2947
aVDERBY-4052
p2948
aVDERBY-4051
p2949
aVDERBY-4050
p2950
aVDERBY-4049
p2951
aVDERBY-4048
p2952
aVDERBY-4047
p2953
aVDERBY-4046
p2954
aVDERBY-4045
p2955
aVDERBY-4044
p2956
aVDERBY-4043
p2957
aVDERBY-4042
p2958
aVDERBY-4041
p2959
aVDERBY-4040
p2960
aVDERBY-4039
p2961
aVDERBY-4038
p2962
aVDERBY-4037
p2963
aVDERBY-4036
p2964
aVDERBY-4035
p2965
aVDERBY-4034
p2966
aVDERBY-4033
p2967
aVDERBY-4032
p2968
aVDERBY-4031
p2969
aVDERBY-4030
p2970
aVDERBY-4029
p2971
aVDERBY-4028
p2972
aVDERBY-4027
p2973
aVDERBY-4026
p2974
aVDERBY-4025
p2975
aVDERBY-4024
p2976
aVDERBY-4023
p2977
aVDERBY-4022
p2978
aVDERBY-4021
p2979
aVDERBY-4020
p2980
aVDERBY-4019
p2981
aVDERBY-4018
p2982
aVDERBY-4017
p2983
aVDERBY-4016
p2984
aVDERBY-4015
p2985
aVDERBY-4014
p2986
aVDERBY-4013
p2987
aVDERBY-4012
p2988
aVDERBY-4011
p2989
aVDERBY-4010
p2990
aVDERBY-4009
p2991
aVDERBY-4008
p2992
aVDERBY-4007
p2993
aVDERBY-4006
p2994
aVDERBY-4005
p2995
aVDERBY-4004
p2996
aVDERBY-4003
p2997
aVDERBY-4002
p2998
aVDERBY-4001
p2999
aVDERBY-4000
p3000
aVDERBY-3999
p3001
aVDERBY-3998
p3002
aVDERBY-3997
p3003
aVDERBY-3996
p3004
aVDERBY-3995
p3005
aVDERBY-3994
p3006
aVDERBY-3993
p3007
aVDERBY-3992
p3008
aVDERBY-3991
p3009
aVDERBY-3990
p3010
aVDERBY-3989
p3011
aVDERBY-3988
p3012
aVDERBY-3987
p3013
aVDERBY-3986
p3014
aVDERBY-3985
p3015
aVDERBY-3984
p3016
aVDERBY-3983
p3017
aVDERBY-3982
p3018
aVDERBY-3981
p3019
aVDERBY-3980
p3020
aVDERBY-3979
p3021
aVDERBY-3978
p3022
aVDERBY-3977
p3023
aVDERBY-3976
p3024
aVDERBY-3975
p3025
aVDERBY-3974
p3026
aVDERBY-3973
p3027
aVDERBY-3972
p3028
aVDERBY-3971
p3029
aVDERBY-3970
p3030
aVDERBY-3969
p3031
aVDERBY-3968
p3032
aVDERBY-3967
p3033
aVDERBY-3966
p3034
aVDERBY-3965
p3035
aVDERBY-3964
p3036
aVDERBY-3963
p3037
aVDERBY-3962
p3038
aVDERBY-3961
p3039
aVDERBY-3960
p3040
aVDERBY-3959
p3041
aVDERBY-3958
p3042
aVDERBY-3957
p3043
aVDERBY-3956
p3044
aVDERBY-3955
p3045
aVDERBY-3954
p3046
aVDERBY-3953
p3047
aVDERBY-3952
p3048
aVDERBY-3951
p3049
aVDERBY-3950
p3050
aVDERBY-3949
p3051
aVDERBY-3948
p3052
aVDERBY-3947
p3053
aVDERBY-3946
p3054
aVDERBY-3945
p3055
aVDERBY-3944
p3056
aVDERBY-3943
p3057
aVDERBY-3942
p3058
aVDERBY-3941
p3059
aVDERBY-3940
p3060
aVDERBY-3939
p3061
aVDERBY-3938
p3062
aVDERBY-3937
p3063
aVDERBY-3936
p3064
aVDERBY-3935
p3065
aVDERBY-3934
p3066
aVDERBY-3933
p3067
aVDERBY-3932
p3068
aVDERBY-3931
p3069
aVDERBY-3930
p3070
aVDERBY-3929
p3071
aVDERBY-3928
p3072
aVDERBY-3927
p3073
aVDERBY-3926
p3074
aVDERBY-3925
p3075
aVDERBY-3924
p3076
aVDERBY-3923
p3077
aVDERBY-3922
p3078
aVDERBY-3921
p3079
aVDERBY-3920
p3080
aVDERBY-3919
p3081
aVDERBY-3918
p3082
aVDERBY-3917
p3083
aVDERBY-3916
p3084
aVDERBY-3915
p3085
aVDERBY-3914
p3086
aVDERBY-3913
p3087
aVDERBY-3912
p3088
aVDERBY-3911
p3089
aVDERBY-3910
p3090
aVDERBY-3909
p3091
aVDERBY-3908
p3092
aVDERBY-3907
p3093
aVDERBY-3906
p3094
aVDERBY-3905
p3095
aVDERBY-3904
p3096
aVDERBY-3903
p3097
aVDERBY-3902
p3098
aVDERBY-3901
p3099
aVDERBY-3900
p3100
aVDERBY-3899
p3101
aVDERBY-3898
p3102
aVDERBY-3897
p3103
aVDERBY-3896
p3104
aVDERBY-3895
p3105
aVDERBY-3894
p3106
aVDERBY-3893
p3107
aVDERBY-3892
p3108
aVDERBY-3891
p3109
aVDERBY-3890
p3110
aVDERBY-3889
p3111
aVDERBY-3888
p3112
aVDERBY-3887
p3113
aVDERBY-3886
p3114
aVDERBY-3885
p3115
aVDERBY-3884
p3116
aVDERBY-3883
p3117
aVDERBY-3882
p3118
aVDERBY-3881
p3119
aVDERBY-3880
p3120
aVDERBY-3879
p3121
aVDERBY-3878
p3122
aVDERBY-3877
p3123
aVDERBY-3876
p3124
aVDERBY-3875
p3125
aVDERBY-3874
p3126
aVDERBY-3873
p3127
aVDERBY-3872
p3128
aVDERBY-3871
p3129
aVDERBY-3870
p3130
aVDERBY-3869
p3131
aVDERBY-3868
p3132
aVDERBY-3867
p3133
aVDERBY-3866
p3134
aVDERBY-3865
p3135
aVDERBY-3864
p3136
aVDERBY-3863
p3137
aVDERBY-3862
p3138
aVDERBY-3861
p3139
aVDERBY-3860
p3140
aVDERBY-3859
p3141
aVDERBY-3858
p3142
aVDERBY-3857
p3143
aVDERBY-3856
p3144
aVDERBY-3855
p3145
aVDERBY-3854
p3146
aVDERBY-3853
p3147
aVDERBY-3852
p3148
aVDERBY-3851
p3149
aVDERBY-3850
p3150
aVDERBY-3849
p3151
aVDERBY-3848
p3152
aVDERBY-3847
p3153
aVDERBY-3846
p3154
aVDERBY-3845
p3155
aVDERBY-3844
p3156
aVDERBY-3843
p3157
aVDERBY-3842
p3158
aVDERBY-3841
p3159
aVDERBY-3840
p3160
aVDERBY-3839
p3161
aVDERBY-3838
p3162
aVDERBY-3837
p3163
aVDERBY-3836
p3164
aVDERBY-3835
p3165
aVDERBY-3834
p3166
aVDERBY-3833
p3167
aVDERBY-3832
p3168
aVDERBY-3831
p3169
aVDERBY-3830
p3170
aVDERBY-3829
p3171
aVDERBY-3828
p3172
aVDERBY-3827
p3173
aVDERBY-3826
p3174
aVDERBY-3825
p3175
aVDERBY-3824
p3176
aVDERBY-3823
p3177
aVDERBY-3822
p3178
aVDERBY-3821
p3179
aVDERBY-3820
p3180
aVDERBY-3819
p3181
aVDERBY-3818
p3182
aVDERBY-3817
p3183
aVDERBY-3816
p3184
aVDERBY-3815
p3185
aVDERBY-3814
p3186
aVDERBY-3813
p3187
aVDERBY-3812
p3188
aVDERBY-3811
p3189
aVDERBY-3810
p3190
aVDERBY-3809
p3191
aVDERBY-3808
p3192
aVDERBY-3807
p3193
aVDERBY-3806
p3194
aVDERBY-3805
p3195
aVDERBY-3804
p3196
aVDERBY-3803
p3197
aVDERBY-3802
p3198
aVDERBY-3801
p3199
aVDERBY-3800
p3200
aVDERBY-3799
p3201
aVDERBY-3798
p3202
aVDERBY-3797
p3203
aVDERBY-3796
p3204
aVDERBY-3795
p3205
aVDERBY-3794
p3206
aVDERBY-3793
p3207
aVDERBY-3792
p3208
aVDERBY-3791
p3209
aVDERBY-3790
p3210
aVDERBY-3789
p3211
aVDERBY-3788
p3212
aVDERBY-3787
p3213
aVDERBY-3786
p3214
aVDERBY-3785
p3215
aVDERBY-3784
p3216
aVDERBY-3783
p3217
aVDERBY-3782
p3218
aVDERBY-3781
p3219
aVDERBY-3780
p3220
aVDERBY-3779
p3221
aVDERBY-3778
p3222
aVDERBY-3777
p3223
aVDERBY-3776
p3224
aVDERBY-3775
p3225
aVDERBY-3774
p3226
aVDERBY-3773
p3227
aVDERBY-3772
p3228
aVDERBY-3771
p3229
aVDERBY-3770
p3230
aVDERBY-3769
p3231
aVDERBY-3768
p3232
aVDERBY-3767
p3233
aVDERBY-3766
p3234
aVDERBY-3765
p3235
aVDERBY-3764
p3236
aVDERBY-3763
p3237
aVDERBY-3762
p3238
aVDERBY-3761
p3239
aVDERBY-3760
p3240
aVDERBY-3759
p3241
aVDERBY-3758
p3242
aVDERBY-3757
p3243
aVDERBY-3756
p3244
aVDERBY-3755
p3245
aVDERBY-3754
p3246
aVDERBY-3753
p3247
aVDERBY-3752
p3248
aVDERBY-3751
p3249
aVDERBY-3750
p3250
aVDERBY-3749
p3251
aVDERBY-3748
p3252
aVDERBY-3747
p3253
aVDERBY-3746
p3254
aVDERBY-3745
p3255
aVDERBY-3744
p3256
aVDERBY-3743
p3257
aVDERBY-3742
p3258
aVDERBY-3741
p3259
aVDERBY-3740
p3260
aVDERBY-3739
p3261
aVDERBY-3738
p3262
aVDERBY-3737
p3263
aVDERBY-3736
p3264
aVDERBY-3735
p3265
aVDERBY-3734
p3266
aVDERBY-3733
p3267
aVDERBY-3732
p3268
aVDERBY-3731
p3269
aVDERBY-3730
p3270
aVDERBY-3729
p3271
aVDERBY-3728
p3272
aVDERBY-3727
p3273
aVDERBY-3726
p3274
aVDERBY-3725
p3275
aVDERBY-3724
p3276
aVDERBY-3723
p3277
aVDERBY-3722
p3278
aVDERBY-3721
p3279
aVDERBY-3720
p3280
aVDERBY-3719
p3281
aVDERBY-3718
p3282
aVDERBY-3717
p3283
aVDERBY-3716
p3284
aVDERBY-3715
p3285
aVDERBY-3714
p3286
aVDERBY-3713
p3287
aVDERBY-3712
p3288
aVDERBY-3711
p3289
aVDERBY-3710
p3290
aVDERBY-3709
p3291
aVDERBY-3708
p3292
aVDERBY-3707
p3293
aVDERBY-3706
p3294
aVDERBY-3705
p3295
aVDERBY-3704
p3296
aVDERBY-3703
p3297
aVDERBY-3702
p3298
aVDERBY-3701
p3299
aVDERBY-3700
p3300
aVDERBY-3699
p3301
aVDERBY-3698
p3302
aVDERBY-3697
p3303
aVDERBY-3696
p3304
aVDERBY-3695
p3305
aVDERBY-3694
p3306
aVDERBY-3693
p3307
aVDERBY-3692
p3308
aVDERBY-3691
p3309
aVDERBY-3690
p3310
aVDERBY-3689
p3311
aVDERBY-3688
p3312
aVDERBY-3687
p3313
aVDERBY-3686
p3314
aVDERBY-3685
p3315
aVDERBY-3684
p3316
aVDERBY-3683
p3317
aVDERBY-3682
p3318
aVDERBY-3681
p3319
aVDERBY-3680
p3320
aVDERBY-3679
p3321
aVDERBY-3678
p3322
aVDERBY-3677
p3323
aVDERBY-3676
p3324
aVDERBY-3675
p3325
aVDERBY-3674
p3326
aVDERBY-3673
p3327
aVDERBY-3672
p3328
aVDERBY-3671
p3329
aVDERBY-3670
p3330
aVDERBY-3669
p3331
aVDERBY-3668
p3332
aVDERBY-3667
p3333
aVDERBY-3666
p3334
aVDERBY-3665
p3335
aVDERBY-3664
p3336
aVDERBY-3663
p3337
aVDERBY-3662
p3338
aVDERBY-3661
p3339
aVDERBY-3660
p3340
aVDERBY-3659
p3341
aVDERBY-3658
p3342
aVDERBY-3657
p3343
aVDERBY-3656
p3344
aVDERBY-3655
p3345
aVDERBY-3654
p3346
aVDERBY-3653
p3347
aVDERBY-3652
p3348
aVDERBY-3651
p3349
aVDERBY-3650
p3350
aVDERBY-3649
p3351
aVDERBY-3648
p3352
aVDERBY-3647
p3353
aVDERBY-3646
p3354
aVDERBY-3645
p3355
aVDERBY-3644
p3356
aVDERBY-3643
p3357
aVDERBY-3642
p3358
aVDERBY-3641
p3359
aVDERBY-3640
p3360
aVDERBY-3639
p3361
aVDERBY-3638
p3362
aVDERBY-3637
p3363
aVDERBY-3636
p3364
aVDERBY-3635
p3365
aVDERBY-3634
p3366
aVDERBY-3633
p3367
aVDERBY-3632
p3368
aVDERBY-3631
p3369
aVDERBY-3630
p3370
aVDERBY-3629
p3371
aVDERBY-3628
p3372
aVDERBY-3627
p3373
aVDERBY-3626
p3374
aVDERBY-3625
p3375
aVDERBY-3624
p3376
aVDERBY-3623
p3377
aVDERBY-3622
p3378
aVDERBY-3621
p3379
aVDERBY-3620
p3380
aVDERBY-3619
p3381
aVDERBY-3618
p3382
aVDERBY-3617
p3383
aVDERBY-3616
p3384
aVDERBY-3615
p3385
aVDERBY-3614
p3386
aVDERBY-3613
p3387
aVDERBY-3612
p3388
aVDERBY-3611
p3389
aVDERBY-3610
p3390
aVDERBY-3609
p3391
aVDERBY-3608
p3392
aVDERBY-3607
p3393
aVDERBY-3606
p3394
aVDERBY-3605
p3395
aVDERBY-3604
p3396
aVDERBY-3603
p3397
aVDERBY-3602
p3398
aVDERBY-3601
p3399
aVDERBY-3600
p3400
aVDERBY-3599
p3401
aVDERBY-3598
p3402
aVDERBY-3597
p3403
aVDERBY-3596
p3404
aVDERBY-3595
p3405
aVDERBY-3594
p3406
aVDERBY-3593
p3407
aVDERBY-3592
p3408
aVDERBY-3591
p3409
aVDERBY-3590
p3410
aVDERBY-3589
p3411
aVDERBY-3588
p3412
aVDERBY-3587
p3413
aVDERBY-3586
p3414
aVDERBY-3585
p3415
aVDERBY-3584
p3416
aVDERBY-3583
p3417
aVDERBY-3582
p3418
aVDERBY-3581
p3419
aVDERBY-3580
p3420
aVDERBY-3579
p3421
aVDERBY-3578
p3422
aVDERBY-3577
p3423
aVDERBY-3576
p3424
aVDERBY-3575
p3425
aVDERBY-3574
p3426
aVDERBY-3573
p3427
aVDERBY-3572
p3428
aVDERBY-3571
p3429
aVDERBY-3570
p3430
aVDERBY-3569
p3431
aVDERBY-3568
p3432
aVDERBY-3567
p3433
aVDERBY-3566
p3434
aVDERBY-3565
p3435
aVDERBY-3564
p3436
aVDERBY-3563
p3437
aVDERBY-3562
p3438
aVDERBY-3561
p3439
aVDERBY-3560
p3440
aVDERBY-3559
p3441
aVDERBY-3558
p3442
aVDERBY-3557
p3443
aVDERBY-3556
p3444
aVDERBY-3555
p3445
aVDERBY-3554
p3446
aVDERBY-3553
p3447
aVDERBY-3552
p3448
aVDERBY-3551
p3449
aVDERBY-3550
p3450
aVDERBY-3549
p3451
aVDERBY-3548
p3452
aVDERBY-3547
p3453
aVDERBY-3546
p3454
aVDERBY-3545
p3455
aVDERBY-3544
p3456
aVDERBY-3543
p3457
aVDERBY-3542
p3458
aVDERBY-3541
p3459
aVDERBY-3540
p3460
aVDERBY-3539
p3461
aVDERBY-3538
p3462
aVDERBY-3537
p3463
aVDERBY-3536
p3464
aVDERBY-3535
p3465
aVDERBY-3534
p3466
aVDERBY-3533
p3467
aVDERBY-3532
p3468
aVDERBY-3531
p3469
aVDERBY-3530
p3470
aVDERBY-3529
p3471
aVDERBY-3528
p3472
aVDERBY-3527
p3473
aVDERBY-3526
p3474
aVDERBY-3525
p3475
aVDERBY-3524
p3476
aVDERBY-3523
p3477
aVDERBY-3522
p3478
aVDERBY-3521
p3479
aVDERBY-3520
p3480
aVDERBY-3519
p3481
aVDERBY-3518
p3482
aVDERBY-3517
p3483
aVDERBY-3516
p3484
aVDERBY-3515
p3485
aVDERBY-3514
p3486
aVDERBY-3513
p3487
aVDERBY-3512
p3488
aVDERBY-3511
p3489
aVDERBY-3510
p3490
aVDERBY-3509
p3491
aVDERBY-3508
p3492
aVDERBY-3507
p3493
aVDERBY-3506
p3494
aVDERBY-3505
p3495
aVDERBY-3504
p3496
aVDERBY-3503
p3497
aVDERBY-3502
p3498
aVDERBY-3501
p3499
aVDERBY-3500
p3500
aVDERBY-3499
p3501
aVDERBY-3498
p3502
aVDERBY-3497
p3503
aVDERBY-3496
p3504
aVDERBY-3495
p3505
aVDERBY-3494
p3506
aVDERBY-3493
p3507
aVDERBY-3492
p3508
aVDERBY-3491
p3509
aVDERBY-3490
p3510
aVDERBY-3489
p3511
aVDERBY-3488
p3512
aVDERBY-3487
p3513
aVDERBY-3486
p3514
aVDERBY-3485
p3515
aVDERBY-3484
p3516
aVDERBY-3483
p3517
aVDERBY-3482
p3518
aVDERBY-3481
p3519
aVDERBY-3480
p3520
aVDERBY-3479
p3521
aVDERBY-3478
p3522
aVDERBY-3477
p3523
aVDERBY-3476
p3524
aVDERBY-3475
p3525
aVDERBY-3474
p3526
aVDERBY-3473
p3527
aVDERBY-3472
p3528
aVDERBY-3471
p3529
aVDERBY-3470
p3530
aVDERBY-3469
p3531
aVDERBY-3468
p3532
aVDERBY-3467
p3533
aVDERBY-3466
p3534
aVDERBY-3465
p3535
aVDERBY-3464
p3536
aVDERBY-3463
p3537
aVDERBY-3462
p3538
aVDERBY-3461
p3539
aVDERBY-3460
p3540
aVDERBY-3459
p3541
aVDERBY-3458
p3542
aVDERBY-3457
p3543
aVDERBY-3456
p3544
aVDERBY-3455
p3545
aVDERBY-3454
p3546
aVDERBY-3453
p3547
aVDERBY-3452
p3548
aVDERBY-3451
p3549
aVDERBY-3450
p3550
aVDERBY-3449
p3551
aVDERBY-3448
p3552
aVDERBY-3447
p3553
aVDERBY-3446
p3554
aVDERBY-3445
p3555
aVDERBY-3444
p3556
aVDERBY-3443
p3557
aVDERBY-3442
p3558
aVDERBY-3441
p3559
aVDERBY-3440
p3560
aVDERBY-3439
p3561
aVDERBY-3438
p3562
aVDERBY-3437
p3563
aVDERBY-3436
p3564
aVDERBY-3435
p3565
aVDERBY-3434
p3566
aVDERBY-3433
p3567
aVDERBY-3432
p3568
aVDERBY-3431
p3569
aVDERBY-3430
p3570
aVDERBY-3429
p3571
aVDERBY-3428
p3572
aVDERBY-3427
p3573
aVDERBY-3426
p3574
aVDERBY-3425
p3575
aVDERBY-3424
p3576
aVDERBY-3423
p3577
aVDERBY-3422
p3578
aVDERBY-3421
p3579
aVDERBY-3420
p3580
aVDERBY-3419
p3581
aVDERBY-3418
p3582
aVDERBY-3417
p3583
aVDERBY-3416
p3584
aVDERBY-3415
p3585
aVDERBY-3414
p3586
aVDERBY-3413
p3587
aVDERBY-3412
p3588
aVDERBY-3411
p3589
aVDERBY-3410
p3590
aVDERBY-3409
p3591
aVDERBY-3408
p3592
aVDERBY-3407
p3593
aVDERBY-3406
p3594
aVDERBY-3405
p3595
aVDERBY-3404
p3596
aVDERBY-3403
p3597
aVDERBY-3402
p3598
aVDERBY-3401
p3599
aVDERBY-3400
p3600
aVDERBY-3399
p3601
aVDERBY-3398
p3602
aVDERBY-3397
p3603
aVDERBY-3396
p3604
aVDERBY-3395
p3605
aVDERBY-3394
p3606
aVDERBY-3393
p3607
aVDERBY-3392
p3608
aVDERBY-3391
p3609
aVDERBY-3390
p3610
aVDERBY-3389
p3611
aVDERBY-3388
p3612
aVDERBY-3387
p3613
aVDERBY-3386
p3614
aVDERBY-3385
p3615
aVDERBY-3384
p3616
aVDERBY-3383
p3617
aVDERBY-3382
p3618
aVDERBY-3381
p3619
aVDERBY-3380
p3620
aVDERBY-3379
p3621
aVDERBY-3378
p3622
aVDERBY-3377
p3623
aVDERBY-3376
p3624
aVDERBY-3375
p3625
aVDERBY-3374
p3626
aVDERBY-3373
p3627
aVDERBY-3372
p3628
aVDERBY-3371
p3629
aVDERBY-3370
p3630
aVDERBY-3369
p3631
aVDERBY-3368
p3632
aVDERBY-3367
p3633
aVDERBY-3366
p3634
aVDERBY-3365
p3635
aVDERBY-3364
p3636
aVDERBY-3363
p3637
aVDERBY-3362
p3638
aVDERBY-3361
p3639
aVDERBY-3360
p3640
aVDERBY-3359
p3641
aVDERBY-3358
p3642
aVDERBY-3357
p3643
aVDERBY-3356
p3644
aVDERBY-3355
p3645
aVDERBY-3354
p3646
aVDERBY-3353
p3647
aVDERBY-3352
p3648
aVDERBY-3351
p3649
aVDERBY-3350
p3650
aVDERBY-3349
p3651
aVDERBY-3348
p3652
aVDERBY-3347
p3653
aVDERBY-3346
p3654
aVDERBY-3345
p3655
aVDERBY-3344
p3656
aVDERBY-3343
p3657
aVDERBY-3342
p3658
aVDERBY-3341
p3659
aVDERBY-3340
p3660
aVDERBY-3339
p3661
aVDERBY-3338
p3662
aVDERBY-3337
p3663
aVDERBY-3336
p3664
aVDERBY-3335
p3665
aVDERBY-3334
p3666
aVDERBY-3333
p3667
aVDERBY-3332
p3668
aVDERBY-3331
p3669
aVDERBY-3330
p3670
aVDERBY-3329
p3671
aVDERBY-3328
p3672
aVDERBY-3327
p3673
aVDERBY-3326
p3674
aVDERBY-3325
p3675
aVDERBY-3324
p3676
aVDERBY-3323
p3677
aVDERBY-3322
p3678
aVDERBY-3321
p3679
aVDERBY-3320
p3680
aVDERBY-3319
p3681
aVDERBY-3318
p3682
aVDERBY-3317
p3683
aVDERBY-3316
p3684
aVDERBY-3315
p3685
aVDERBY-3314
p3686
aVDERBY-3313
p3687
aVDERBY-3312
p3688
aVDERBY-3311
p3689
aVDERBY-3310
p3690
aVDERBY-3309
p3691
aVDERBY-3308
p3692
aVDERBY-3307
p3693
aVDERBY-3306
p3694
aVDERBY-3305
p3695
aVDERBY-3304
p3696
aVDERBY-3303
p3697
aVDERBY-3302
p3698
aVDERBY-3301
p3699
aVDERBY-3300
p3700
aVDERBY-3299
p3701
aVDERBY-3298
p3702
aVDERBY-3297
p3703
aVDERBY-3296
p3704
aVDERBY-3295
p3705
aVDERBY-3294
p3706
aVDERBY-3293
p3707
aVDERBY-3292
p3708
aVDERBY-3291
p3709
aVDERBY-3290
p3710
aVDERBY-3289
p3711
aVDERBY-3288
p3712
aVDERBY-3287
p3713
aVDERBY-3286
p3714
aVDERBY-3285
p3715
aVDERBY-3284
p3716
aVDERBY-3283
p3717
aVDERBY-3282
p3718
aVDERBY-3281
p3719
aVDERBY-3280
p3720
aVDERBY-3279
p3721
aVDERBY-3278
p3722
aVDERBY-3277
p3723
aVDERBY-3276
p3724
aVDERBY-3275
p3725
aVDERBY-3274
p3726
aVDERBY-3273
p3727
aVDERBY-3272
p3728
aVDERBY-3271
p3729
aVDERBY-3270
p3730
aVDERBY-3269
p3731
aVDERBY-3268
p3732
aVDERBY-3267
p3733
aVDERBY-3266
p3734
aVDERBY-3265
p3735
aVDERBY-3264
p3736
aVDERBY-3263
p3737
aVDERBY-3262
p3738
aVDERBY-3261
p3739
aVDERBY-3260
p3740
aVDERBY-3259
p3741
aVDERBY-3258
p3742
aVDERBY-3257
p3743
aVDERBY-3256
p3744
aVDERBY-3255
p3745
aVDERBY-3254
p3746
aVDERBY-3253
p3747
aVDERBY-3252
p3748
aVDERBY-3251
p3749
aVDERBY-3250
p3750
aVDERBY-3249
p3751
aVDERBY-3248
p3752
aVDERBY-3247
p3753
aVDERBY-3246
p3754
aVDERBY-3245
p3755
aVDERBY-3244
p3756
aVDERBY-3243
p3757
aVDERBY-3242
p3758
aVDERBY-3241
p3759
aVDERBY-3240
p3760
aVDERBY-3239
p3761
aVDERBY-3238
p3762
aVDERBY-3237
p3763
aVDERBY-3236
p3764
aVDERBY-3235
p3765
aVDERBY-3234
p3766
aVDERBY-3233
p3767
aVDERBY-3232
p3768
aVDERBY-3231
p3769
aVDERBY-3230
p3770
aVDERBY-3229
p3771
aVDERBY-3228
p3772
aVDERBY-3227
p3773
aVDERBY-3226
p3774
aVDERBY-3225
p3775
aVDERBY-3224
p3776
aVDERBY-3223
p3777
aVDERBY-3222
p3778
aVDERBY-3221
p3779
aVDERBY-3220
p3780
aVDERBY-3219
p3781
aVDERBY-3218
p3782
aVDERBY-3217
p3783
aVDERBY-3216
p3784
aVDERBY-3215
p3785
aVDERBY-3214
p3786
aVDERBY-3213
p3787
aVDERBY-3212
p3788
aVDERBY-3211
p3789
aVDERBY-3210
p3790
aVDERBY-3209
p3791
aVDERBY-3208
p3792
aVDERBY-3207
p3793
aVDERBY-3206
p3794
aVDERBY-3205
p3795
aVDERBY-3204
p3796
aVDERBY-3203
p3797
aVDERBY-3202
p3798
aVDERBY-3201
p3799
aVDERBY-3200
p3800
aVDERBY-3199
p3801
aVDERBY-3198
p3802
aVDERBY-3197
p3803
aVDERBY-3196
p3804
aVDERBY-3195
p3805
aVDERBY-3194
p3806
aVDERBY-3193
p3807
aVDERBY-3192
p3808
aVDERBY-3191
p3809
aVDERBY-3190
p3810
aVDERBY-3189
p3811
aVDERBY-3188
p3812
aVDERBY-3187
p3813
aVDERBY-3186
p3814
aVDERBY-3185
p3815
aVDERBY-3184
p3816
aVDERBY-3183
p3817
aVDERBY-3182
p3818
aVDERBY-3181
p3819
aVDERBY-3180
p3820
aVDERBY-3179
p3821
aVDERBY-3178
p3822
aVDERBY-3177
p3823
aVDERBY-3176
p3824
aVDERBY-3175
p3825
aVDERBY-3174
p3826
aVDERBY-3173
p3827
aVDERBY-3172
p3828
aVDERBY-3171
p3829
aVDERBY-3170
p3830
aVDERBY-3169
p3831
aVDERBY-3168
p3832
aVDERBY-3167
p3833
aVDERBY-3166
p3834
aVDERBY-3165
p3835
aVDERBY-3164
p3836
aVDERBY-3163
p3837
aVDERBY-3162
p3838
aVDERBY-3161
p3839
aVDERBY-3160
p3840
aVDERBY-3159
p3841
aVDERBY-3158
p3842
aVDERBY-3157
p3843
aVDERBY-3156
p3844
aVDERBY-3155
p3845
aVDERBY-3154
p3846
aVDERBY-3153
p3847
aVDERBY-3152
p3848
aVDERBY-3151
p3849
aVDERBY-3150
p3850
aVDERBY-3149
p3851
aVDERBY-3148
p3852
aVDERBY-3147
p3853
aVDERBY-3146
p3854
aVDERBY-3145
p3855
aVDERBY-3144
p3856
aVDERBY-3143
p3857
aVDERBY-3142
p3858
aVDERBY-3141
p3859
aVDERBY-3140
p3860
aVDERBY-3139
p3861
aVDERBY-3138
p3862
aVDERBY-3137
p3863
aVDERBY-3136
p3864
aVDERBY-3135
p3865
aVDERBY-3134
p3866
aVDERBY-3133
p3867
aVDERBY-3132
p3868
aVDERBY-3131
p3869
aVDERBY-3130
p3870
aVDERBY-3129
p3871
aVDERBY-3128
p3872
aVDERBY-3127
p3873
aVDERBY-3126
p3874
aVDERBY-3125
p3875
aVDERBY-3124
p3876
aVDERBY-3123
p3877
aVDERBY-3122
p3878
aVDERBY-3121
p3879
aVDERBY-3120
p3880
aVDERBY-3119
p3881
aVDERBY-3118
p3882
aVDERBY-3117
p3883
aVDERBY-3116
p3884
aVDERBY-3115
p3885
aVDERBY-3114
p3886
aVDERBY-3113
p3887
aVDERBY-3112
p3888
aVDERBY-3111
p3889
aVDERBY-3110
p3890
aVDERBY-3109
p3891
aVDERBY-3108
p3892
aVDERBY-3107
p3893
aVDERBY-3106
p3894
aVDERBY-3105
p3895
aVDERBY-3104
p3896
aVDERBY-3103
p3897
aVDERBY-3102
p3898
aVDERBY-3101
p3899
aVDERBY-3100
p3900
aVDERBY-3099
p3901
aVDERBY-3098
p3902
aVDERBY-3097
p3903
aVDERBY-3096
p3904
aVDERBY-3095
p3905
aVDERBY-3094
p3906
aVDERBY-3093
p3907
aVDERBY-3092
p3908
aVDERBY-3091
p3909
aVDERBY-3090
p3910
aVDERBY-3089
p3911
aVDERBY-3088
p3912
aVDERBY-3087
p3913
aVDERBY-3086
p3914
aVDERBY-3085
p3915
aVDERBY-3084
p3916
aVDERBY-3083
p3917
aVDERBY-3082
p3918
aVDERBY-3081
p3919
aVDERBY-3080
p3920
aVDERBY-3079
p3921
aVDERBY-3078
p3922
aVDERBY-3077
p3923
aVDERBY-3076
p3924
aVDERBY-3075
p3925
aVDERBY-3074
p3926
aVDERBY-3073
p3927
aVDERBY-3072
p3928
aVDERBY-3071
p3929
aVDERBY-3070
p3930
aVDERBY-3069
p3931
aVDERBY-3068
p3932
aVDERBY-3067
p3933
aVDERBY-3066
p3934
aVDERBY-3065
p3935
aVDERBY-3064
p3936
aVDERBY-3063
p3937
aVDERBY-3062
p3938
aVDERBY-3061
p3939
aVDERBY-3060
p3940
aVDERBY-3059
p3941
aVDERBY-3058
p3942
aVDERBY-3057
p3943
aVDERBY-3056
p3944
aVDERBY-3055
p3945
aVDERBY-3054
p3946
aVDERBY-3053
p3947
aVDERBY-3052
p3948
aVDERBY-3051
p3949
aVDERBY-3050
p3950
aVDERBY-3049
p3951
aVDERBY-3048
p3952
aVDERBY-3047
p3953
aVDERBY-3046
p3954
aVDERBY-3045
p3955
aVDERBY-3044
p3956
aVDERBY-3043
p3957
aVDERBY-3042
p3958
aVDERBY-3041
p3959
aVDERBY-3040
p3960
aVDERBY-3039
p3961
aVDERBY-3038
p3962
aVDERBY-3037
p3963
aVDERBY-3036
p3964
aVDERBY-3035
p3965
aVDERBY-3034
p3966
aVDERBY-3033
p3967
aVDERBY-3032
p3968
aVDERBY-3031
p3969
aVDERBY-3030
p3970
aVDERBY-3029
p3971
aVDERBY-3028
p3972
aVDERBY-3027
p3973
aVDERBY-3026
p3974
aVDERBY-3025
p3975
aVDERBY-3024
p3976
aVDERBY-3023
p3977
aVDERBY-3022
p3978
aVDERBY-3021
p3979
aVDERBY-3020
p3980
aVDERBY-3019
p3981
aVDERBY-3018
p3982
aVDERBY-3017
p3983
aVDERBY-3016
p3984
aVDERBY-3015
p3985
aVDERBY-3014
p3986
aVDERBY-3013
p3987
aVDERBY-3012
p3988
aVDERBY-3011
p3989
aVDERBY-3010
p3990
aVDERBY-3009
p3991
aVDERBY-3008
p3992
aVDERBY-3007
p3993
aVDERBY-3006
p3994
aVDERBY-3005
p3995
aVDERBY-3004
p3996
aVDERBY-3003
p3997
aVDERBY-3002
p3998
aVDERBY-3001
p3999
aVDERBY-3000
p4000
aVDERBY-2999
p4001
aVDERBY-2998
p4002
aVDERBY-2997
p4003
aVDERBY-2996
p4004
aVDERBY-2995
p4005
aVDERBY-2994
p4006
aVDERBY-2993
p4007
aVDERBY-2992
p4008
aVDERBY-2991
p4009
aVDERBY-2990
p4010
aVDERBY-2989
p4011
aVDERBY-2988
p4012
aVDERBY-2987
p4013
aVDERBY-2986
p4014
aVDERBY-2985
p4015
aVDERBY-2984
p4016
aVDERBY-2983
p4017
aVDERBY-2982
p4018
aVDERBY-2981
p4019
aVDERBY-2980
p4020
aVDERBY-2979
p4021
aVDERBY-2978
p4022
aVDERBY-2977
p4023
aVDERBY-2976
p4024
aVDERBY-2975
p4025
aVDERBY-2974
p4026
aVDERBY-2973
p4027
aVDERBY-2972
p4028
aVDERBY-2971
p4029
aVDERBY-2970
p4030
aVDERBY-2969
p4031
aVDERBY-2968
p4032
aVDERBY-2967
p4033
aVDERBY-2966
p4034
aVDERBY-2965
p4035
aVDERBY-2964
p4036
aVDERBY-2963
p4037
aVDERBY-2962
p4038
aVDERBY-2961
p4039
aVDERBY-2960
p4040
aVDERBY-2959
p4041
aVDERBY-2958
p4042
aVDERBY-2957
p4043
aVDERBY-2956
p4044
aVDERBY-2955
p4045
aVDERBY-2954
p4046
aVDERBY-2953
p4047
aVDERBY-2952
p4048
aVDERBY-2951
p4049
aVDERBY-2950
p4050
aVDERBY-2949
p4051
aVDERBY-2948
p4052
aVDERBY-2947
p4053
aVDERBY-2946
p4054
aVDERBY-2945
p4055
aVDERBY-2944
p4056
aVDERBY-2943
p4057
aVDERBY-2942
p4058
aVDERBY-2941
p4059
aVDERBY-2940
p4060
aVDERBY-2939
p4061
aVDERBY-2938
p4062
aVDERBY-2937
p4063
aVDERBY-2936
p4064
aVDERBY-2935
p4065
aVDERBY-2934
p4066
aVDERBY-2933
p4067
aVDERBY-2932
p4068
aVDERBY-2931
p4069
aVDERBY-2930
p4070
aVDERBY-2929
p4071
aVDERBY-2928
p4072
aVDERBY-2927
p4073
aVDERBY-2926
p4074
aVDERBY-2925
p4075
aVDERBY-2924
p4076
aVDERBY-2923
p4077
aVDERBY-2922
p4078
aVDERBY-2921
p4079
aVDERBY-2920
p4080
aVDERBY-2919
p4081
aVDERBY-2918
p4082
aVDERBY-2917
p4083
aVDERBY-2916
p4084
aVDERBY-2915
p4085
aVDERBY-2914
p4086
aVDERBY-2913
p4087
aVDERBY-2912
p4088
aVDERBY-2911
p4089
aVDERBY-2910
p4090
aVDERBY-2909
p4091
aVDERBY-2908
p4092
aVDERBY-2907
p4093
aVDERBY-2906
p4094
aVDERBY-2905
p4095
aVDERBY-2904
p4096
aVDERBY-2903
p4097
aVDERBY-2902
p4098
aVDERBY-2901
p4099
aVDERBY-2900
p4100
aVDERBY-2899
p4101
aVDERBY-2898
p4102
aVDERBY-2897
p4103
aVDERBY-2896
p4104
aVDERBY-2895
p4105
aVDERBY-2894
p4106
aVDERBY-2893
p4107
aVDERBY-2892
p4108
aVDERBY-2891
p4109
aVDERBY-2890
p4110
aVDERBY-2889
p4111
aVDERBY-2888
p4112
aVDERBY-2887
p4113
aVDERBY-2886
p4114
aVDERBY-2885
p4115
aVDERBY-2884
p4116
aVDERBY-2883
p4117
aVDERBY-2882
p4118
aVDERBY-2881
p4119
aVDERBY-2880
p4120
aVDERBY-2879
p4121
aVDERBY-2878
p4122
aVDERBY-2877
p4123
aVDERBY-2876
p4124
aVDERBY-2875
p4125
aVDERBY-2874
p4126
aVDERBY-2873
p4127
aVDERBY-2872
p4128
aVDERBY-2871
p4129
aVDERBY-2870
p4130
aVDERBY-2869
p4131
aVDERBY-2868
p4132
aVDERBY-2867
p4133
aVDERBY-2866
p4134
aVDERBY-2865
p4135
aVDERBY-2864
p4136
aVDERBY-2863
p4137
aVDERBY-2862
p4138
aVDERBY-2861
p4139
aVDERBY-2860
p4140
aVDERBY-2859
p4141
aVDERBY-2858
p4142
aVDERBY-2857
p4143
aVDERBY-2856
p4144
aVDERBY-2855
p4145
aVDERBY-2854
p4146
aVDERBY-2853
p4147
aVDERBY-2852
p4148
aVDERBY-2851
p4149
aVDERBY-2850
p4150
aVDERBY-2849
p4151
aVDERBY-2848
p4152
aVDERBY-2847
p4153
aVDERBY-2846
p4154
aVDERBY-2845
p4155
aVDERBY-2844
p4156
aVDERBY-2843
p4157
aVDERBY-2842
p4158
aVDERBY-2841
p4159
aVDERBY-2840
p4160
aVDERBY-2839
p4161
aVDERBY-2838
p4162
aVDERBY-2837
p4163
aVDERBY-2836
p4164
aVDERBY-2835
p4165
aVDERBY-2834
p4166
aVDERBY-2833
p4167
aVDERBY-2832
p4168
aVDERBY-2831
p4169
aVDERBY-2830
p4170
aVDERBY-2829
p4171
aVDERBY-2828
p4172
aVDERBY-2827
p4173
aVDERBY-2826
p4174
aVDERBY-2825
p4175
aVDERBY-2824
p4176
aVDERBY-2823
p4177
aVDERBY-2822
p4178
aVDERBY-2821
p4179
aVDERBY-2820
p4180
aVDERBY-2819
p4181
aVDERBY-2818
p4182
aVDERBY-2817
p4183
aVDERBY-2816
p4184
aVDERBY-2815
p4185
aVDERBY-2814
p4186
aVDERBY-2813
p4187
aVDERBY-2812
p4188
aVDERBY-2811
p4189
aVDERBY-2810
p4190
aVDERBY-2809
p4191
aVDERBY-2808
p4192
aVDERBY-2807
p4193
aVDERBY-2806
p4194
aVDERBY-2805
p4195
aVDERBY-2804
p4196
aVDERBY-2803
p4197
aVDERBY-2802
p4198
aVDERBY-2801
p4199
aVDERBY-2800
p4200
aVDERBY-2799
p4201
aVDERBY-2798
p4202
aVDERBY-2797
p4203
aVDERBY-2796
p4204
aVDERBY-2795
p4205
aVDERBY-2794
p4206
aVDERBY-2793
p4207
aVDERBY-2792
p4208
aVDERBY-2791
p4209
aVDERBY-2790
p4210
aVDERBY-2789
p4211
aVDERBY-2788
p4212
aVDERBY-2787
p4213
aVDERBY-2786
p4214
aVDERBY-2785
p4215
aVDERBY-2784
p4216
aVDERBY-2783
p4217
aVDERBY-2782
p4218
aVDERBY-2781
p4219
aVDERBY-2780
p4220
aVDERBY-2779
p4221
aVDERBY-2778
p4222
aVDERBY-2777
p4223
aVDERBY-2776
p4224
aVDERBY-2775
p4225
aVDERBY-2774
p4226
aVDERBY-2773
p4227
aVDERBY-2772
p4228
aVDERBY-2771
p4229
aVDERBY-2770
p4230
aVDERBY-2769
p4231
aVDERBY-2768
p4232
aVDERBY-2767
p4233
aVDERBY-2766
p4234
aVDERBY-2765
p4235
aVDERBY-2764
p4236
aVDERBY-2763
p4237
aVDERBY-2762
p4238
aVDERBY-2761
p4239
aVDERBY-2760
p4240
aVDERBY-2759
p4241
aVDERBY-2758
p4242
aVDERBY-2757
p4243
aVDERBY-2756
p4244
aVDERBY-2755
p4245
aVDERBY-2754
p4246
aVDERBY-2753
p4247
aVDERBY-2752
p4248
aVDERBY-2751
p4249
aVDERBY-2750
p4250
aVDERBY-2749
p4251
aVDERBY-2748
p4252
aVDERBY-2747
p4253
aVDERBY-2746
p4254
aVDERBY-2745
p4255
aVDERBY-2744
p4256
aVDERBY-2743
p4257
aVDERBY-2742
p4258
aVDERBY-2741
p4259
aVDERBY-2740
p4260
aVDERBY-2739
p4261
aVDERBY-2738
p4262
aVDERBY-2737
p4263
aVDERBY-2736
p4264
aVDERBY-2735
p4265
aVDERBY-2734
p4266
aVDERBY-2733
p4267
aVDERBY-2732
p4268
aVDERBY-2731
p4269
aVDERBY-2730
p4270
aVDERBY-2729
p4271
aVDERBY-2728
p4272
aVDERBY-2727
p4273
aVDERBY-2726
p4274
aVDERBY-2725
p4275
aVDERBY-2724
p4276
aVDERBY-2723
p4277
aVDERBY-2722
p4278
aVDERBY-2721
p4279
aVDERBY-2720
p4280
aVDERBY-2719
p4281
aVDERBY-2718
p4282
aVDERBY-2717
p4283
aVDERBY-2716
p4284
aVDERBY-2715
p4285
aVDERBY-2714
p4286
aVDERBY-2713
p4287
aVDERBY-2712
p4288
aVDERBY-2711
p4289
aVDERBY-2710
p4290
aVDERBY-2709
p4291
aVDERBY-2708
p4292
aVDERBY-2707
p4293
aVDERBY-2706
p4294
aVDERBY-2705
p4295
aVDERBY-2704
p4296
aVDERBY-2703
p4297
aVDERBY-2702
p4298
aVDERBY-2701
p4299
aVDERBY-2700
p4300
aVDERBY-2699
p4301
aVDERBY-2698
p4302
aVDERBY-2697
p4303
aVDERBY-2696
p4304
aVDERBY-2695
p4305
aVDERBY-2694
p4306
aVDERBY-2693
p4307
aVDERBY-2692
p4308
aVDERBY-2691
p4309
aVDERBY-2690
p4310
aVDERBY-2689
p4311
aVDERBY-2688
p4312
aVDERBY-2687
p4313
aVDERBY-2686
p4314
aVDERBY-2685
p4315
aVDERBY-2684
p4316
aVDERBY-2683
p4317
aVDERBY-2682
p4318
aVDERBY-2681
p4319
aVDERBY-2680
p4320
aVDERBY-2679
p4321
aVDERBY-2678
p4322
aVDERBY-2677
p4323
aVDERBY-2676
p4324
aVDERBY-2675
p4325
aVDERBY-2674
p4326
aVDERBY-2673
p4327
aVDERBY-2672
p4328
aVDERBY-2671
p4329
aVDERBY-2670
p4330
aVDERBY-2669
p4331
aVDERBY-2668
p4332
aVDERBY-2667
p4333
aVDERBY-2666
p4334
aVDERBY-2665
p4335
aVDERBY-2664
p4336
aVDERBY-2663
p4337
aVDERBY-2662
p4338
aVDERBY-2661
p4339
aVDERBY-2660
p4340
aVDERBY-2659
p4341
aVDERBY-2658
p4342
aVDERBY-2657
p4343
aVDERBY-2656
p4344
aVDERBY-2655
p4345
aVDERBY-2654
p4346
aVDERBY-2653
p4347
aVDERBY-2652
p4348
aVDERBY-2651
p4349
aVDERBY-2650
p4350
aVDERBY-2649
p4351
aVDERBY-2648
p4352
aVDERBY-2647
p4353
aVDERBY-2646
p4354
aVDERBY-2645
p4355
aVDERBY-2644
p4356
aVDERBY-2643
p4357
aVDERBY-2642
p4358
aVDERBY-2641
p4359
aVDERBY-2640
p4360
aVDERBY-2639
p4361
aVDERBY-2638
p4362
aVDERBY-2637
p4363
aVDERBY-2636
p4364
aVDERBY-2635
p4365
aVDERBY-2634
p4366
aVDERBY-2633
p4367
aVDERBY-2632
p4368
aVDERBY-2631
p4369
aVDERBY-2630
p4370
aVDERBY-2629
p4371
aVDERBY-2628
p4372
aVDERBY-2627
p4373
aVDERBY-2626
p4374
aVDERBY-2625
p4375
aVDERBY-2624
p4376
aVDERBY-2623
p4377
aVDERBY-2622
p4378
aVDERBY-2621
p4379
aVDERBY-2620
p4380
aVDERBY-2619
p4381
aVDERBY-2618
p4382
aVDERBY-2617
p4383
aVDERBY-2616
p4384
aVDERBY-2615
p4385
aVDERBY-2614
p4386
aVDERBY-2613
p4387
aVDERBY-2612
p4388
aVDERBY-2611
p4389
aVDERBY-2610
p4390
aVDERBY-2609
p4391
aVDERBY-2608
p4392
aVDERBY-2607
p4393
aVDERBY-2606
p4394
aVDERBY-2605
p4395
aVDERBY-2604
p4396
aVDERBY-2603
p4397
aVDERBY-2602
p4398
aVDERBY-2601
p4399
aVDERBY-2600
p4400
aVDERBY-2599
p4401
aVDERBY-2598
p4402
aVDERBY-2597
p4403
aVDERBY-2596
p4404
aVDERBY-2595
p4405
aVDERBY-2594
p4406
aVDERBY-2593
p4407
aVDERBY-2592
p4408
aVDERBY-2591
p4409
aVDERBY-2590
p4410
aVDERBY-2589
p4411
aVDERBY-2588
p4412
aVDERBY-2587
p4413
aVDERBY-2586
p4414
aVDERBY-2585
p4415
aVDERBY-2584
p4416
aVDERBY-2583
p4417
aVDERBY-2582
p4418
aVDERBY-2581
p4419
aVDERBY-2580
p4420
aVDERBY-2579
p4421
aVDERBY-2578
p4422
aVDERBY-2577
p4423
aVDERBY-2576
p4424
aVDERBY-2575
p4425
aVDERBY-2574
p4426
aVDERBY-2573
p4427
aVDERBY-2572
p4428
aVDERBY-2571
p4429
aVDERBY-2570
p4430
aVDERBY-2569
p4431
aVDERBY-2568
p4432
aVDERBY-2567
p4433
aVDERBY-2566
p4434
aVDERBY-2565
p4435
aVDERBY-2564
p4436
aVDERBY-2563
p4437
aVDERBY-2562
p4438
aVDERBY-2561
p4439
aVDERBY-2560
p4440
aVDERBY-2559
p4441
aVDERBY-2558
p4442
aVDERBY-2557
p4443
aVDERBY-2556
p4444
aVDERBY-2555
p4445
aVDERBY-2554
p4446
aVDERBY-2553
p4447
aVDERBY-2552
p4448
aVDERBY-2551
p4449
aVDERBY-2550
p4450
aVDERBY-2549
p4451
aVDERBY-2548
p4452
aVDERBY-2547
p4453
aVDERBY-2546
p4454
aVDERBY-2545
p4455
aVDERBY-2544
p4456
aVDERBY-2543
p4457
aVDERBY-2542
p4458
aVDERBY-2541
p4459
aVDERBY-2540
p4460
aVDERBY-2539
p4461
aVDERBY-2538
p4462
aVDERBY-2537
p4463
aVDERBY-2536
p4464
aVDERBY-2535
p4465
aVDERBY-2534
p4466
aVDERBY-2533
p4467
aVDERBY-2532
p4468
aVDERBY-2531
p4469
aVDERBY-2530
p4470
aVDERBY-2529
p4471
aVDERBY-2528
p4472
aVDERBY-2527
p4473
aVDERBY-2526
p4474
aVDERBY-2525
p4475
aVDERBY-2524
p4476
aVDERBY-2523
p4477
aVDERBY-2522
p4478
aVDERBY-2521
p4479
aVDERBY-2520
p4480
aVDERBY-2519
p4481
aVDERBY-2518
p4482
aVDERBY-2517
p4483
aVDERBY-2516
p4484
aVDERBY-2515
p4485
aVDERBY-2514
p4486
aVDERBY-2513
p4487
aVDERBY-2512
p4488
aVDERBY-2511
p4489
aVDERBY-2510
p4490
aVDERBY-2509
p4491
aVDERBY-2508
p4492
aVDERBY-2507
p4493
aVDERBY-2506
p4494
aVDERBY-2505
p4495
aVDERBY-2504
p4496
aVDERBY-2503
p4497
aVDERBY-2502
p4498
aVDERBY-2501
p4499
aVDERBY-2500
p4500
aVDERBY-2499
p4501
aVDERBY-2498
p4502
aVDERBY-2497
p4503
aVDERBY-2496
p4504
aVDERBY-2495
p4505
aVDERBY-2494
p4506
aVDERBY-2493
p4507
aVDERBY-2492
p4508
aVDERBY-2491
p4509
aVDERBY-2490
p4510
aVDERBY-2489
p4511
aVDERBY-2488
p4512
aVDERBY-2487
p4513
aVDERBY-2486
p4514
aVDERBY-2485
p4515
aVDERBY-2484
p4516
aVDERBY-2483
p4517
aVDERBY-2482
p4518
aVDERBY-2481
p4519
aVDERBY-2480
p4520
aVDERBY-2479
p4521
aVDERBY-2478
p4522
aVDERBY-2477
p4523
aVDERBY-2476
p4524
aVDERBY-2475
p4525
aVDERBY-2474
p4526
aVDERBY-2473
p4527
aVDERBY-2472
p4528
aVDERBY-2471
p4529
aVDERBY-2470
p4530
aVDERBY-2469
p4531
aVDERBY-2468
p4532
aVDERBY-2467
p4533
aVDERBY-2466
p4534
aVDERBY-2465
p4535
aVDERBY-2464
p4536
aVDERBY-2463
p4537
aVDERBY-2462
p4538
aVDERBY-2461
p4539
aVDERBY-2460
p4540
aVDERBY-2459
p4541
aVDERBY-2458
p4542
aVDERBY-2457
p4543
aVDERBY-2456
p4544
aVDERBY-2455
p4545
aVDERBY-2454
p4546
aVDERBY-2453
p4547
aVDERBY-2452
p4548
aVDERBY-2451
p4549
aVDERBY-2450
p4550
aVDERBY-2449
p4551
aVDERBY-2448
p4552
aVDERBY-2447
p4553
aVDERBY-2446
p4554
aVDERBY-2445
p4555
aVDERBY-2444
p4556
aVDERBY-2443
p4557
aVDERBY-2442
p4558
aVDERBY-2441
p4559
aVDERBY-2440
p4560
aVDERBY-2439
p4561
aVDERBY-2438
p4562
aVDERBY-2437
p4563
aVDERBY-2436
p4564
aVDERBY-2435
p4565
aVDERBY-2434
p4566
aVDERBY-2433
p4567
aVDERBY-2432
p4568
aVDERBY-2431
p4569
aVDERBY-2430
p4570
aVDERBY-2429
p4571
aVDERBY-2428
p4572
aVDERBY-2427
p4573
aVDERBY-2426
p4574
aVDERBY-2425
p4575
aVDERBY-2424
p4576
aVDERBY-2423
p4577
aVDERBY-2422
p4578
aVDERBY-2421
p4579
aVDERBY-2420
p4580
aVDERBY-2419
p4581
aVDERBY-2418
p4582
aVDERBY-2417
p4583
aVDERBY-2416
p4584
aVDERBY-2415
p4585
aVDERBY-2414
p4586
aVDERBY-2413
p4587
aVDERBY-2412
p4588
aVDERBY-2411
p4589
aVDERBY-2410
p4590
aVDERBY-2409
p4591
aVDERBY-2408
p4592
aVDERBY-2407
p4593
aVDERBY-2406
p4594
aVDERBY-2405
p4595
aVDERBY-2404
p4596
aVDERBY-2403
p4597
aVDERBY-2402
p4598
aVDERBY-2401
p4599
aVDERBY-2400
p4600
aVDERBY-2399
p4601
aVDERBY-2398
p4602
aVDERBY-2397
p4603
aVDERBY-2396
p4604
aVDERBY-2395
p4605
aVDERBY-2394
p4606
aVDERBY-2393
p4607
aVDERBY-2392
p4608
aVDERBY-2391
p4609
aVDERBY-2390
p4610
aVDERBY-2389
p4611
aVDERBY-2388
p4612
aVDERBY-2387
p4613
aVDERBY-2386
p4614
aVDERBY-2385
p4615
aVDERBY-2384
p4616
aVDERBY-2383
p4617
aVDERBY-2382
p4618
aVDERBY-2381
p4619
aVDERBY-2380
p4620
aVDERBY-2379
p4621
aVDERBY-2378
p4622
aVDERBY-2377
p4623
aVDERBY-2376
p4624
aVDERBY-2375
p4625
aVDERBY-2374
p4626
aVDERBY-2373
p4627
aVDERBY-2372
p4628
aVDERBY-2371
p4629
aVDERBY-2370
p4630
aVDERBY-2369
p4631
aVDERBY-2368
p4632
aVDERBY-2367
p4633
aVDERBY-2366
p4634
aVDERBY-2365
p4635
aVDERBY-2364
p4636
aVDERBY-2363
p4637
aVDERBY-2362
p4638
aVDERBY-2361
p4639
aVDERBY-2360
p4640
aVDERBY-2359
p4641
aVDERBY-2358
p4642
aVDERBY-2357
p4643
aVDERBY-2356
p4644
aVDERBY-2355
p4645
aVDERBY-2354
p4646
aVDERBY-2353
p4647
aVDERBY-2352
p4648
aVDERBY-2351
p4649
aVDERBY-2350
p4650
aVDERBY-2349
p4651
aVDERBY-2348
p4652
aVDERBY-2347
p4653
aVDERBY-2346
p4654
aVDERBY-2345
p4655
aVDERBY-2344
p4656
aVDERBY-2343
p4657
aVDERBY-2342
p4658
aVDERBY-2341
p4659
aVDERBY-2340
p4660
aVDERBY-2339
p4661
aVDERBY-2338
p4662
aVDERBY-2337
p4663
aVDERBY-2336
p4664
aVDERBY-2335
p4665
aVDERBY-2334
p4666
aVDERBY-2333
p4667
aVDERBY-2332
p4668
aVDERBY-2331
p4669
aVDERBY-2330
p4670
aVDERBY-2329
p4671
aVDERBY-2328
p4672
aVDERBY-2327
p4673
aVDERBY-2326
p4674
aVDERBY-2325
p4675
aVDERBY-2324
p4676
aVDERBY-2323
p4677
aVDERBY-2322
p4678
aVDERBY-2321
p4679
aVDERBY-2320
p4680
aVDERBY-2319
p4681
aVDERBY-2318
p4682
aVDERBY-2317
p4683
aVDERBY-2316
p4684
aVDERBY-2315
p4685
aVDERBY-2314
p4686
aVDERBY-2313
p4687
aVDERBY-2312
p4688
aVDERBY-2311
p4689
aVDERBY-2310
p4690
aVDERBY-2309
p4691
aVDERBY-2308
p4692
aVDERBY-2307
p4693
aVDERBY-2306
p4694
aVDERBY-2305
p4695
aVDERBY-2304
p4696
aVDERBY-2303
p4697
aVDERBY-2302
p4698
aVDERBY-2301
p4699
aVDERBY-2300
p4700
aVDERBY-2299
p4701
aVDERBY-2298
p4702
aVDERBY-2297
p4703
aVDERBY-2296
p4704
aVDERBY-2295
p4705
aVDERBY-2294
p4706
aVDERBY-2293
p4707
aVDERBY-2292
p4708
aVDERBY-2291
p4709
aVDERBY-2290
p4710
aVDERBY-2289
p4711
aVDERBY-2288
p4712
aVDERBY-2287
p4713
aVDERBY-2286
p4714
aVDERBY-2285
p4715
aVDERBY-2284
p4716
aVDERBY-2283
p4717
aVDERBY-2282
p4718
aVDERBY-2281
p4719
aVDERBY-2280
p4720
aVDERBY-2279
p4721
aVDERBY-2278
p4722
aVDERBY-2277
p4723
aVDERBY-2276
p4724
aVDERBY-2275
p4725
aVDERBY-2274
p4726
aVDERBY-2273
p4727
aVDERBY-2272
p4728
aVDERBY-2271
p4729
aVDERBY-2270
p4730
aVDERBY-2269
p4731
aVDERBY-2268
p4732
aVDERBY-2267
p4733
aVDERBY-2266
p4734
aVDERBY-2265
p4735
aVDERBY-2264
p4736
aVDERBY-2263
p4737
aVDERBY-2262
p4738
aVDERBY-2261
p4739
aVDERBY-2260
p4740
aVDERBY-2259
p4741
aVDERBY-2258
p4742
aVDERBY-2257
p4743
aVDERBY-2256
p4744
aVDERBY-2255
p4745
aVDERBY-2254
p4746
aVDERBY-2253
p4747
aVDERBY-2252
p4748
aVDERBY-2251
p4749
aVDERBY-2250
p4750
aVDERBY-2249
p4751
aVDERBY-2248
p4752
aVDERBY-2247
p4753
aVDERBY-2246
p4754
aVDERBY-2245
p4755
aVDERBY-2244
p4756
aVDERBY-2243
p4757
aVDERBY-2242
p4758
aVDERBY-2241
p4759
aVDERBY-2240
p4760
aVDERBY-2239
p4761
aVDERBY-2238
p4762
aVDERBY-2237
p4763
aVDERBY-2236
p4764
aVDERBY-2235
p4765
aVDERBY-2234
p4766
aVDERBY-2233
p4767
aVDERBY-2232
p4768
aVDERBY-2231
p4769
aVDERBY-2230
p4770
aVDERBY-2229
p4771
aVDERBY-2228
p4772
aVDERBY-2227
p4773
aVDERBY-2226
p4774
aVDERBY-2225
p4775
aVDERBY-2224
p4776
aVDERBY-2223
p4777
aVDERBY-2222
p4778
aVDERBY-2221
p4779
aVDERBY-2220
p4780
aVDERBY-2219
p4781
aVDERBY-2218
p4782
aVDERBY-2217
p4783
aVDERBY-2216
p4784
aVDERBY-2215
p4785
aVDERBY-2214
p4786
aVDERBY-2213
p4787
aVDERBY-2212
p4788
aVDERBY-2211
p4789
aVDERBY-2210
p4790
aVDERBY-2209
p4791
aVDERBY-2208
p4792
aVDERBY-2207
p4793
aVDERBY-2206
p4794
aVDERBY-2205
p4795
aVDERBY-2204
p4796
aVDERBY-2203
p4797
aVDERBY-2202
p4798
aVDERBY-2201
p4799
aVDERBY-2200
p4800
aVDERBY-2199
p4801
aVDERBY-2198
p4802
aVDERBY-2197
p4803
aVDERBY-2196
p4804
aVDERBY-2195
p4805
aVDERBY-2194
p4806
aVDERBY-2193
p4807
aVDERBY-2192
p4808
aVDERBY-2191
p4809
aVDERBY-2190
p4810
aVDERBY-2189
p4811
aVDERBY-2188
p4812
aVDERBY-2187
p4813
aVDERBY-2186
p4814
aVDERBY-2185
p4815
aVDERBY-2184
p4816
aVDERBY-2183
p4817
aVDERBY-2182
p4818
aVDERBY-2181
p4819
aVDERBY-2180
p4820
aVDERBY-2179
p4821
aVDERBY-2178
p4822
aVDERBY-2177
p4823
aVDERBY-2176
p4824
aVDERBY-2175
p4825
aVDERBY-2174
p4826
aVDERBY-2173
p4827
aVDERBY-2172
p4828
aVDERBY-2171
p4829
aVDERBY-2170
p4830
aVDERBY-2169
p4831
aVDERBY-2168
p4832
aVDERBY-2167
p4833
aVDERBY-2166
p4834
aVDERBY-2165
p4835
aVDERBY-2164
p4836
aVDERBY-2163
p4837
aVDERBY-2162
p4838
aVDERBY-2161
p4839
aVDERBY-2160
p4840
aVDERBY-2159
p4841
aVDERBY-2158
p4842
aVDERBY-2157
p4843
aVDERBY-2156
p4844
aVDERBY-2155
p4845
aVDERBY-2154
p4846
aVDERBY-2153
p4847
aVDERBY-2152
p4848
aVDERBY-2151
p4849
aVDERBY-2150
p4850
aVDERBY-2149
p4851
aVDERBY-2148
p4852
aVDERBY-2147
p4853
aVDERBY-2146
p4854
aVDERBY-2145
p4855
aVDERBY-2144
p4856
aVDERBY-2143
p4857
aVDERBY-2142
p4858
aVDERBY-2141
p4859
aVDERBY-2140
p4860
aVDERBY-2139
p4861
aVDERBY-2138
p4862
aVDERBY-2137
p4863
aVDERBY-2136
p4864
aVDERBY-2135
p4865
aVDERBY-2134
p4866
aVDERBY-2133
p4867
aVDERBY-2132
p4868
aVDERBY-2131
p4869
aVDERBY-2130
p4870
aVDERBY-2129
p4871
aVDERBY-2128
p4872
aVDERBY-2127
p4873
aVDERBY-2126
p4874
aVDERBY-2125
p4875
aVDERBY-2124
p4876
aVDERBY-2123
p4877
aVDERBY-2122
p4878
aVDERBY-2121
p4879
aVDERBY-2120
p4880
aVDERBY-2119
p4881
aVDERBY-2118
p4882
aVDERBY-2117
p4883
aVDERBY-2116
p4884
aVDERBY-2115
p4885
aVDERBY-2114
p4886
aVDERBY-2113
p4887
aVDERBY-2112
p4888
aVDERBY-2111
p4889
aVDERBY-2110
p4890
aVDERBY-2109
p4891
aVDERBY-2108
p4892
aVDERBY-2107
p4893
aVDERBY-2106
p4894
aVDERBY-2105
p4895
aVDERBY-2104
p4896
aVDERBY-2103
p4897
aVDERBY-2102
p4898
aVDERBY-2101
p4899
aVDERBY-2100
p4900
aVDERBY-2099
p4901
aVDERBY-2098
p4902
aVDERBY-2097
p4903
aVDERBY-2096
p4904
aVDERBY-2095
p4905
aVDERBY-2094
p4906
aVDERBY-2093
p4907
aVDERBY-2092
p4908
aVDERBY-2091
p4909
aVDERBY-2090
p4910
aVDERBY-2089
p4911
aVDERBY-2088
p4912
aVDERBY-2087
p4913
aVDERBY-2086
p4914
aVDERBY-2085
p4915
aVDERBY-2084
p4916
aVDERBY-2083
p4917
aVDERBY-2082
p4918
aVDERBY-2081
p4919
aVDERBY-2080
p4920
aVDERBY-2079
p4921
aVDERBY-2078
p4922
aVDERBY-2077
p4923
aVDERBY-2076
p4924
aVDERBY-2075
p4925
aVDERBY-2074
p4926
aVDERBY-2073
p4927
aVDERBY-2072
p4928
aVDERBY-2071
p4929
aVDERBY-2070
p4930
aVDERBY-2069
p4931
aVDERBY-2068
p4932
aVDERBY-2067
p4933
aVDERBY-2066
p4934
aVDERBY-2065
p4935
aVDERBY-2064
p4936
aVDERBY-2063
p4937
aVDERBY-2062
p4938
aVDERBY-2061
p4939
aVDERBY-2060
p4940
aVDERBY-2059
p4941
aVDERBY-2058
p4942
aVDERBY-2057
p4943
aVDERBY-2056
p4944
aVDERBY-2055
p4945
aVDERBY-2054
p4946
aVDERBY-2053
p4947
aVDERBY-2052
p4948
aVDERBY-2051
p4949
aVDERBY-2050
p4950
aVDERBY-2049
p4951
aVDERBY-2048
p4952
aVDERBY-2047
p4953
aVDERBY-2046
p4954
aVDERBY-2045
p4955
aVDERBY-2044
p4956
aVDERBY-2043
p4957
aVDERBY-2042
p4958
aVDERBY-2041
p4959
aVDERBY-2040
p4960
aVDERBY-2039
p4961
aVDERBY-2038
p4962
aVDERBY-2037
p4963
aVDERBY-2036
p4964
aVDERBY-2035
p4965
aVDERBY-2034
p4966
aVDERBY-2033
p4967
aVDERBY-2032
p4968
aVDERBY-2031
p4969
aVDERBY-2030
p4970
aVDERBY-2029
p4971
aVDERBY-2028
p4972
aVDERBY-2027
p4973
aVDERBY-2026
p4974
aVDERBY-2025
p4975
aVDERBY-2024
p4976
aVDERBY-2023
p4977
aVDERBY-2022
p4978
aVDERBY-2021
p4979
aVDERBY-2020
p4980
aVDERBY-2019
p4981
aVDERBY-2018
p4982
aVDERBY-2017
p4983
aVDERBY-2016
p4984
aVDERBY-2015
p4985
aVDERBY-2014
p4986
aVDERBY-2013
p4987
aVDERBY-2012
p4988
aVDERBY-2011
p4989
aVDERBY-2010
p4990
aVDERBY-2009
p4991
aVDERBY-2008
p4992
aVDERBY-2007
p4993
aVDERBY-2006
p4994
aVDERBY-2005
p4995
aVDERBY-2004
p4996
aVDERBY-2003
p4997
aVDERBY-2002
p4998
aVDERBY-2001
p4999
aVDERBY-2000
p5000
aVDERBY-1999
p5001
aVDERBY-1998
p5002
aVDERBY-1997
p5003
aVDERBY-1996
p5004
aVDERBY-1995
p5005
aVDERBY-1994
p5006
aVDERBY-1993
p5007
aVDERBY-1992
p5008
aVDERBY-1991
p5009
aVDERBY-1990
p5010
aVDERBY-1989
p5011
aVDERBY-1988
p5012
aVDERBY-1987
p5013
aVDERBY-1986
p5014
aVDERBY-1985
p5015
aVDERBY-1984
p5016
aVDERBY-1983
p5017
aVDERBY-1982
p5018
aVDERBY-1981
p5019
aVDERBY-1980
p5020
aVDERBY-1979
p5021
aVDERBY-1978
p5022
aVDERBY-1977
p5023
aVDERBY-1976
p5024
aVDERBY-1975
p5025
aVDERBY-1974
p5026
aVDERBY-1973
p5027
aVDERBY-1972
p5028
aVDERBY-1971
p5029
aVDERBY-1970
p5030
aVDERBY-1969
p5031
aVDERBY-1968
p5032
aVDERBY-1967
p5033
aVDERBY-1966
p5034
aVDERBY-1965
p5035
aVDERBY-1964
p5036
aVDERBY-1963
p5037
aVDERBY-1962
p5038
aVDERBY-1961
p5039
aVDERBY-1960
p5040
aVDERBY-1959
p5041
aVDERBY-1958
p5042
aVDERBY-1957
p5043
aVDERBY-1956
p5044
aVDERBY-1955
p5045
aVDERBY-1954
p5046
aVDERBY-1953
p5047
aVDERBY-1952
p5048
aVDERBY-1951
p5049
aVDERBY-1950
p5050
aVDERBY-1949
p5051
aVDERBY-1948
p5052
aVDERBY-1947
p5053
aVDERBY-1946
p5054
aVDERBY-1945
p5055
aVDERBY-1944
p5056
aVDERBY-1943
p5057
aVDERBY-1942
p5058
aVDERBY-1941
p5059
aVDERBY-1940
p5060
aVDERBY-1939
p5061
aVDERBY-1938
p5062
aVDERBY-1937
p5063
aVDERBY-1936
p5064
aVDERBY-1935
p5065
aVDERBY-1934
p5066
aVDERBY-1933
p5067
aVDERBY-1932
p5068
aVDERBY-1931
p5069
aVDERBY-1930
p5070
aVDERBY-1929
p5071
aVDERBY-1928
p5072
aVDERBY-1927
p5073
aVDERBY-1926
p5074
aVDERBY-1925
p5075
aVDERBY-1924
p5076
aVDERBY-1923
p5077
aVDERBY-1922
p5078
aVDERBY-1921
p5079
aVDERBY-1920
p5080
aVDERBY-1919
p5081
aVDERBY-1918
p5082
aVDERBY-1917
p5083
aVDERBY-1916
p5084
aVDERBY-1915
p5085
aVDERBY-1914
p5086
aVDERBY-1913
p5087
aVDERBY-1912
p5088
aVDERBY-1911
p5089
aVDERBY-1910
p5090
aVDERBY-1909
p5091
aVDERBY-1908
p5092
aVDERBY-1907
p5093
aVDERBY-1906
p5094
aVDERBY-1905
p5095
aVDERBY-1904
p5096
aVDERBY-1903
p5097
aVDERBY-1902
p5098
aVDERBY-1901
p5099
aVDERBY-1900
p5100
aVDERBY-1899
p5101
aVDERBY-1898
p5102
aVDERBY-1897
p5103
aVDERBY-1896
p5104
aVDERBY-1895
p5105
aVDERBY-1894
p5106
aVDERBY-1893
p5107
aVDERBY-1892
p5108
aVDERBY-1891
p5109
aVDERBY-1890
p5110
aVDERBY-1889
p5111
aVDERBY-1888
p5112
aVDERBY-1887
p5113
aVDERBY-1886
p5114
aVDERBY-1885
p5115
aVDERBY-1884
p5116
aVDERBY-1883
p5117
aVDERBY-1882
p5118
aVDERBY-1881
p5119
aVDERBY-1880
p5120
aVDERBY-1879
p5121
aVDERBY-1878
p5122
aVDERBY-1877
p5123
aVDERBY-1876
p5124
aVDERBY-1875
p5125
aVDERBY-1874
p5126
aVDERBY-1873
p5127
aVDERBY-1872
p5128
aVDERBY-1871
p5129
aVDERBY-1870
p5130
aVDERBY-1869
p5131
aVDERBY-1868
p5132
aVDERBY-1867
p5133
aVDERBY-1866
p5134
aVDERBY-1865
p5135
aVDERBY-1864
p5136
aVDERBY-1863
p5137
aVDERBY-1862
p5138
aVDERBY-1861
p5139
aVDERBY-1860
p5140
aVDERBY-1859
p5141
aVDERBY-1858
p5142
aVDERBY-1857
p5143
aVDERBY-1856
p5144
aVDERBY-1855
p5145
aVDERBY-1854
p5146
aVDERBY-1853
p5147
aVDERBY-1852
p5148
aVDERBY-1851
p5149
aVDERBY-1850
p5150
aVDERBY-1849
p5151
aVDERBY-1848
p5152
aVDERBY-1847
p5153
aVDERBY-1846
p5154
aVDERBY-1845
p5155
aVDERBY-1844
p5156
aVDERBY-1843
p5157
aVDERBY-1842
p5158
aVDERBY-1841
p5159
aVDERBY-1840
p5160
aVDERBY-1839
p5161
aVDERBY-1838
p5162
aVDERBY-1837
p5163
aVDERBY-1836
p5164
aVDERBY-1835
p5165
aVDERBY-1834
p5166
aVDERBY-1833
p5167
aVDERBY-1832
p5168
aVDERBY-1831
p5169
aVDERBY-1830
p5170
aVDERBY-1829
p5171
aVDERBY-1828
p5172
aVDERBY-1827
p5173
aVDERBY-1826
p5174
aVDERBY-1825
p5175
aVDERBY-1824
p5176
aVDERBY-1823
p5177
aVDERBY-1822
p5178
aVDERBY-1821
p5179
aVDERBY-1820
p5180
aVDERBY-1819
p5181
aVDERBY-1818
p5182
aVDERBY-1817
p5183
aVDERBY-1816
p5184
aVDERBY-1815
p5185
aVDERBY-1814
p5186
aVDERBY-1813
p5187
aVDERBY-1812
p5188
aVDERBY-1811
p5189
aVDERBY-1810
p5190
aVDERBY-1809
p5191
aVDERBY-1808
p5192
aVDERBY-1807
p5193
aVDERBY-1806
p5194
aVDERBY-1805
p5195
aVDERBY-1804
p5196
aVDERBY-1803
p5197
aVDERBY-1802
p5198
aVDERBY-1801
p5199
aVDERBY-1800
p5200
aVDERBY-1799
p5201
aVDERBY-1798
p5202
aVDERBY-1797
p5203
aVDERBY-1796
p5204
aVDERBY-1795
p5205
aVDERBY-1794
p5206
aVDERBY-1793
p5207
aVDERBY-1792
p5208
aVDERBY-1791
p5209
aVDERBY-1790
p5210
aVDERBY-1789
p5211
aVDERBY-1788
p5212
aVDERBY-1787
p5213
aVDERBY-1786
p5214
aVDERBY-1785
p5215
aVDERBY-1784
p5216
aVDERBY-1783
p5217
aVDERBY-1782
p5218
aVDERBY-1781
p5219
aVDERBY-1780
p5220
aVDERBY-1779
p5221
aVDERBY-1778
p5222
aVDERBY-1777
p5223
aVDERBY-1776
p5224
aVDERBY-1775
p5225
aVDERBY-1774
p5226
aVDERBY-1773
p5227
aVDERBY-1772
p5228
aVDERBY-1771
p5229
aVDERBY-1770
p5230
aVDERBY-1769
p5231
aVDERBY-1768
p5232
aVDERBY-1767
p5233
aVDERBY-1766
p5234
aVDERBY-1765
p5235
aVDERBY-1764
p5236
aVDERBY-1763
p5237
aVDERBY-1762
p5238
aVDERBY-1761
p5239
aVDERBY-1760
p5240
aVDERBY-1759
p5241
aVDERBY-1758
p5242
aVDERBY-1757
p5243
aVDERBY-1756
p5244
aVDERBY-1755
p5245
aVDERBY-1754
p5246
aVDERBY-1753
p5247
aVDERBY-1752
p5248
aVDERBY-1751
p5249
aVDERBY-1750
p5250
aVDERBY-1749
p5251
aVDERBY-1748
p5252
aVDERBY-1747
p5253
aVDERBY-1746
p5254
aVDERBY-1745
p5255
aVDERBY-1744
p5256
aVDERBY-1743
p5257
aVDERBY-1742
p5258
aVDERBY-1741
p5259
aVDERBY-1740
p5260
aVDERBY-1739
p5261
aVDERBY-1738
p5262
aVDERBY-1737
p5263
aVDERBY-1736
p5264
aVDERBY-1735
p5265
aVDERBY-1734
p5266
aVDERBY-1733
p5267
aVDERBY-1732
p5268
aVDERBY-1731
p5269
aVDERBY-1730
p5270
aVDERBY-1729
p5271
aVDERBY-1728
p5272
aVDERBY-1727
p5273
aVDERBY-1726
p5274
aVDERBY-1725
p5275
aVDERBY-1724
p5276
aVDERBY-1723
p5277
aVDERBY-1722
p5278
aVDERBY-1721
p5279
aVDERBY-1720
p5280
aVDERBY-1719
p5281
aVDERBY-1718
p5282
aVDERBY-1717
p5283
aVDERBY-1716
p5284
aVDERBY-1715
p5285
aVDERBY-1714
p5286
aVDERBY-1713
p5287
aVDERBY-1712
p5288
aVDERBY-1711
p5289
aVDERBY-1710
p5290
aVDERBY-1709
p5291
aVDERBY-1708
p5292
aVDERBY-1707
p5293
aVDERBY-1706
p5294
aVDERBY-1705
p5295
aVDERBY-1704
p5296
aVDERBY-1703
p5297
aVDERBY-1702
p5298
aVDERBY-1701
p5299
aVDERBY-1700
p5300
aVDERBY-1699
p5301
aVDERBY-1698
p5302
aVDERBY-1697
p5303
aVDERBY-1696
p5304
aVDERBY-1695
p5305
aVDERBY-1694
p5306
aVDERBY-1693
p5307
aVDERBY-1692
p5308
aVDERBY-1691
p5309
aVDERBY-1690
p5310
aVDERBY-1689
p5311
aVDERBY-1688
p5312
aVDERBY-1687
p5313
aVDERBY-1686
p5314
aVDERBY-1685
p5315
aVDERBY-1684
p5316
aVDERBY-1683
p5317
aVDERBY-1682
p5318
aVDERBY-1681
p5319
aVDERBY-1680
p5320
aVDERBY-1679
p5321
aVDERBY-1678
p5322
aVDERBY-1677
p5323
aVDERBY-1676
p5324
aVDERBY-1675
p5325
aVDERBY-1674
p5326
aVDERBY-1673
p5327
aVDERBY-1672
p5328
aVDERBY-1671
p5329
aVDERBY-1670
p5330
aVDERBY-1669
p5331
aVDERBY-1668
p5332
aVDERBY-1667
p5333
aVDERBY-1666
p5334
aVDERBY-1665
p5335
aVDERBY-1664
p5336
aVDERBY-1663
p5337
aVDERBY-1662
p5338
aVDERBY-1661
p5339
aVDERBY-1660
p5340
aVDERBY-1659
p5341
aVDERBY-1658
p5342
aVDERBY-1657
p5343
aVDERBY-1656
p5344
aVDERBY-1655
p5345
aVDERBY-1654
p5346
aVDERBY-1653
p5347
aVDERBY-1652
p5348
aVDERBY-1651
p5349
aVDERBY-1650
p5350
aVDERBY-1649
p5351
aVDERBY-1648
p5352
aVDERBY-1647
p5353
aVDERBY-1646
p5354
aVDERBY-1645
p5355
aVDERBY-1644
p5356
aVDERBY-1643
p5357
aVDERBY-1642
p5358
aVDERBY-1641
p5359
aVDERBY-1640
p5360
aVDERBY-1639
p5361
aVDERBY-1638
p5362
aVDERBY-1637
p5363
aVDERBY-1636
p5364
aVDERBY-1635
p5365
aVDERBY-1634
p5366
aVDERBY-1633
p5367
aVDERBY-1632
p5368
aVDERBY-1631
p5369
aVDERBY-1630
p5370
aVDERBY-1629
p5371
aVDERBY-1628
p5372
aVDERBY-1627
p5373
aVDERBY-1626
p5374
aVDERBY-1625
p5375
aVDERBY-1624
p5376
aVDERBY-1623
p5377
aVDERBY-1622
p5378
aVDERBY-1621
p5379
aVDERBY-1620
p5380
aVDERBY-1619
p5381
aVDERBY-1618
p5382
aVDERBY-1617
p5383
aVDERBY-1616
p5384
aVDERBY-1615
p5385
aVDERBY-1614
p5386
aVDERBY-1613
p5387
aVDERBY-1612
p5388
aVDERBY-1611
p5389
aVDERBY-1610
p5390
aVDERBY-1609
p5391
aVDERBY-1608
p5392
aVDERBY-1607
p5393
aVDERBY-1606
p5394
aVDERBY-1605
p5395
aVDERBY-1604
p5396
aVDERBY-1603
p5397
aVDERBY-1602
p5398
aVDERBY-1601
p5399
aVDERBY-1600
p5400
aVDERBY-1599
p5401
aVDERBY-1598
p5402
aVDERBY-1597
p5403
aVDERBY-1596
p5404
aVDERBY-1595
p5405
aVDERBY-1594
p5406
aVDERBY-1593
p5407
aVDERBY-1592
p5408
aVDERBY-1591
p5409
aVDERBY-1590
p5410
aVDERBY-1589
p5411
aVDERBY-1588
p5412
aVDERBY-1587
p5413
aVDERBY-1586
p5414
aVDERBY-1585
p5415
aVDERBY-1584
p5416
aVDERBY-1583
p5417
aVDERBY-1582
p5418
aVDERBY-1581
p5419
aVDERBY-1580
p5420
aVDERBY-1579
p5421
aVDERBY-1578
p5422
aVDERBY-1577
p5423
aVDERBY-1576
p5424
aVDERBY-1575
p5425
aVDERBY-1574
p5426
aVDERBY-1573
p5427
aVDERBY-1572
p5428
aVDERBY-1571
p5429
aVDERBY-1570
p5430
aVDERBY-1569
p5431
aVDERBY-1568
p5432
aVDERBY-1567
p5433
aVDERBY-1566
p5434
aVDERBY-1565
p5435
aVDERBY-1564
p5436
aVDERBY-1563
p5437
aVDERBY-1562
p5438
aVDERBY-1561
p5439
aVDERBY-1560
p5440
aVDERBY-1559
p5441
aVDERBY-1558
p5442
aVDERBY-1557
p5443
aVDERBY-1556
p5444
aVDERBY-1555
p5445
aVDERBY-1554
p5446
aVDERBY-1553
p5447
aVDERBY-1552
p5448
aVDERBY-1551
p5449
aVDERBY-1550
p5450
aVDERBY-1549
p5451
aVDERBY-1548
p5452
aVDERBY-1547
p5453
aVDERBY-1546
p5454
aVDERBY-1545
p5455
aVDERBY-1544
p5456
aVDERBY-1543
p5457
aVDERBY-1542
p5458
aVDERBY-1541
p5459
aVDERBY-1540
p5460
aVDERBY-1539
p5461
aVDERBY-1538
p5462
aVDERBY-1537
p5463
aVDERBY-1536
p5464
aVDERBY-1535
p5465
aVDERBY-1534
p5466
aVDERBY-1533
p5467
aVDERBY-1532
p5468
aVDERBY-1531
p5469
aVDERBY-1530
p5470
aVDERBY-1529
p5471
aVDERBY-1528
p5472
aVDERBY-1527
p5473
aVDERBY-1526
p5474
aVDERBY-1525
p5475
aVDERBY-1524
p5476
aVDERBY-1523
p5477
aVDERBY-1522
p5478
aVDERBY-1521
p5479
aVDERBY-1520
p5480
aVDERBY-1519
p5481
aVDERBY-1518
p5482
aVDERBY-1517
p5483
aVDERBY-1516
p5484
aVDERBY-1515
p5485
aVDERBY-1514
p5486
aVDERBY-1513
p5487
aVDERBY-1512
p5488
aVDERBY-1511
p5489
aVDERBY-1510
p5490
aVDERBY-1509
p5491
aVDERBY-1508
p5492
aVDERBY-1507
p5493
aVDERBY-1506
p5494
aVDERBY-1505
p5495
aVDERBY-1504
p5496
aVDERBY-1503
p5497
aVDERBY-1502
p5498
aVDERBY-1501
p5499
aVDERBY-1500
p5500
aVDERBY-1499
p5501
aVDERBY-1498
p5502
aVDERBY-1497
p5503
aVDERBY-1496
p5504
aVDERBY-1495
p5505
aVDERBY-1494
p5506
aVDERBY-1493
p5507
aVDERBY-1492
p5508
aVDERBY-1491
p5509
aVDERBY-1490
p5510
aVDERBY-1489
p5511
aVDERBY-1488
p5512
aVDERBY-1487
p5513
aVDERBY-1486
p5514
aVDERBY-1485
p5515
aVDERBY-1484
p5516
aVDERBY-1483
p5517
aVDERBY-1482
p5518
aVDERBY-1481
p5519
aVDERBY-1480
p5520
aVDERBY-1479
p5521
aVDERBY-1478
p5522
aVDERBY-1477
p5523
aVDERBY-1476
p5524
aVDERBY-1475
p5525
aVDERBY-1474
p5526
aVDERBY-1473
p5527
aVDERBY-1472
p5528
aVDERBY-1471
p5529
aVDERBY-1470
p5530
aVDERBY-1469
p5531
aVDERBY-1468
p5532
aVDERBY-1467
p5533
aVDERBY-1466
p5534
aVDERBY-1465
p5535
aVDERBY-1464
p5536
aVDERBY-1463
p5537
aVDERBY-1462
p5538
aVDERBY-1461
p5539
aVDERBY-1460
p5540
aVDERBY-1459
p5541
aVDERBY-1458
p5542
aVDERBY-1457
p5543
aVDERBY-1456
p5544
aVDERBY-1455
p5545
aVDERBY-1454
p5546
aVDERBY-1453
p5547
aVDERBY-1452
p5548
aVDERBY-1451
p5549
aVDERBY-1450
p5550
aVDERBY-1449
p5551
aVDERBY-1448
p5552
aVDERBY-1447
p5553
aVDERBY-1446
p5554
aVDERBY-1445
p5555
aVDERBY-1444
p5556
aVDERBY-1443
p5557
aVDERBY-1442
p5558
aVDERBY-1441
p5559
aVDERBY-1440
p5560
aVDERBY-1439
p5561
aVDERBY-1438
p5562
aVDERBY-1437
p5563
aVDERBY-1436
p5564
aVDERBY-1435
p5565
aVDERBY-1434
p5566
aVDERBY-1433
p5567
aVDERBY-1432
p5568
aVDERBY-1431
p5569
aVDERBY-1430
p5570
aVDERBY-1429
p5571
aVDERBY-1428
p5572
aVDERBY-1427
p5573
aVDERBY-1426
p5574
aVDERBY-1425
p5575
aVDERBY-1424
p5576
aVDERBY-1423
p5577
aVDERBY-1422
p5578
aVDERBY-1421
p5579
aVDERBY-1420
p5580
aVDERBY-1419
p5581
aVDERBY-1418
p5582
aVDERBY-1417
p5583
aVDERBY-1416
p5584
aVDERBY-1415
p5585
aVDERBY-1414
p5586
aVDERBY-1413
p5587
aVDERBY-1412
p5588
aVDERBY-1411
p5589
aVDERBY-1410
p5590
aVDERBY-1409
p5591
aVDERBY-1408
p5592
aVDERBY-1407
p5593
aVDERBY-1406
p5594
aVDERBY-1405
p5595
aVDERBY-1404
p5596
aVDERBY-1403
p5597
aVDERBY-1402
p5598
aVDERBY-1401
p5599
aVDERBY-1400
p5600
aVDERBY-1399
p5601
aVDERBY-1398
p5602
aVDERBY-1397
p5603
aVDERBY-1396
p5604
aVDERBY-1395
p5605
aVDERBY-1394
p5606
aVDERBY-1393
p5607
aVDERBY-1392
p5608
aVDERBY-1391
p5609
aVDERBY-1390
p5610
aVDERBY-1389
p5611
aVDERBY-1388
p5612
aVDERBY-1387
p5613
aVDERBY-1386
p5614
aVDERBY-1385
p5615
aVDERBY-1384
p5616
aVDERBY-1383
p5617
aVDERBY-1382
p5618
aVDERBY-1381
p5619
aVDERBY-1380
p5620
aVDERBY-1379
p5621
aVDERBY-1378
p5622
aVDERBY-1377
p5623
aVDERBY-1376
p5624
aVDERBY-1375
p5625
aVDERBY-1374
p5626
aVDERBY-1373
p5627
aVDERBY-1372
p5628
aVDERBY-1371
p5629
aVDERBY-1370
p5630
aVDERBY-1369
p5631
aVDERBY-1368
p5632
aVDERBY-1367
p5633
aVDERBY-1366
p5634
aVDERBY-1365
p5635
aVDERBY-1364
p5636
aVDERBY-1363
p5637
aVDERBY-1362
p5638
aVDERBY-1361
p5639
aVDERBY-1360
p5640
aVDERBY-1359
p5641
aVDERBY-1358
p5642
aVDERBY-1357
p5643
aVDERBY-1356
p5644
aVDERBY-1355
p5645
aVDERBY-1354
p5646
aVDERBY-1353
p5647
aVDERBY-1352
p5648
aVDERBY-1351
p5649
aVDERBY-1350
p5650
aVDERBY-1349
p5651
aVDERBY-1348
p5652
aVDERBY-1347
p5653
aVDERBY-1346
p5654
aVDERBY-1345
p5655
aVDERBY-1344
p5656
aVDERBY-1343
p5657
aVDERBY-1342
p5658
aVDERBY-1341
p5659
aVDERBY-1340
p5660
aVDERBY-1339
p5661
aVDERBY-1338
p5662
aVDERBY-1337
p5663
aVDERBY-1336
p5664
aVDERBY-1335
p5665
aVDERBY-1334
p5666
aVDERBY-1333
p5667
aVDERBY-1332
p5668
aVDERBY-1331
p5669
aVDERBY-1330
p5670
aVDERBY-1329
p5671
aVDERBY-1328
p5672
aVDERBY-1327
p5673
aVDERBY-1326
p5674
aVDERBY-1325
p5675
aVDERBY-1324
p5676
aVDERBY-1323
p5677
aVDERBY-1322
p5678
aVDERBY-1321
p5679
aVDERBY-1320
p5680
aVDERBY-1319
p5681
aVDERBY-1318
p5682
aVDERBY-1317
p5683
aVDERBY-1316
p5684
aVDERBY-1315
p5685
aVDERBY-1314
p5686
aVDERBY-1313
p5687
aVDERBY-1312
p5688
aVDERBY-1311
p5689
aVDERBY-1310
p5690
aVDERBY-1309
p5691
aVDERBY-1308
p5692
aVDERBY-1307
p5693
aVDERBY-1306
p5694
aVDERBY-1305
p5695
aVDERBY-1304
p5696
aVDERBY-1303
p5697
aVDERBY-1302
p5698
aVDERBY-1301
p5699
aVDERBY-1300
p5700
aVDERBY-1299
p5701
aVDERBY-1298
p5702
aVDERBY-1297
p5703
aVDERBY-1296
p5704
aVDERBY-1295
p5705
aVDERBY-1294
p5706
aVDERBY-1293
p5707
aVDERBY-1292
p5708
aVDERBY-1291
p5709
aVDERBY-1290
p5710
aVDERBY-1289
p5711
aVDERBY-1288
p5712
aVDERBY-1287
p5713
aVDERBY-1286
p5714
aVDERBY-1285
p5715
aVDERBY-1284
p5716
aVDERBY-1283
p5717
aVDERBY-1282
p5718
aVDERBY-1281
p5719
aVDERBY-1280
p5720
aVDERBY-1279
p5721
aVDERBY-1278
p5722
aVDERBY-1277
p5723
aVDERBY-1276
p5724
aVDERBY-1275
p5725
aVDERBY-1274
p5726
aVDERBY-1273
p5727
aVDERBY-1272
p5728
aVDERBY-1271
p5729
aVDERBY-1270
p5730
aVDERBY-1269
p5731
aVDERBY-1268
p5732
aVDERBY-1267
p5733
aVDERBY-1266
p5734
aVDERBY-1265
p5735
aVDERBY-1264
p5736
aVDERBY-1263
p5737
aVDERBY-1262
p5738
aVDERBY-1261
p5739
aVDERBY-1260
p5740
aVDERBY-1259
p5741
aVDERBY-1258
p5742
aVDERBY-1257
p5743
aVDERBY-1256
p5744
aVDERBY-1255
p5745
aVDERBY-1254
p5746
aVDERBY-1253
p5747
aVDERBY-1252
p5748
aVDERBY-1251
p5749
aVDERBY-1250
p5750
aVDERBY-1249
p5751
aVDERBY-1248
p5752
aVDERBY-1247
p5753
aVDERBY-1246
p5754
aVDERBY-1245
p5755
aVDERBY-1244
p5756
aVDERBY-1243
p5757
aVDERBY-1242
p5758
aVDERBY-1241
p5759
aVDERBY-1240
p5760
aVDERBY-1239
p5761
aVDERBY-1238
p5762
aVDERBY-1237
p5763
aVDERBY-1236
p5764
aVDERBY-1235
p5765
aVDERBY-1234
p5766
aVDERBY-1233
p5767
aVDERBY-1232
p5768
aVDERBY-1231
p5769
aVDERBY-1230
p5770
aVDERBY-1229
p5771
aVDERBY-1228
p5772
aVDERBY-1227
p5773
aVDERBY-1226
p5774
aVDERBY-1225
p5775
aVDERBY-1224
p5776
aVDERBY-1223
p5777
aVDERBY-1222
p5778
aVDERBY-1221
p5779
aVDERBY-1220
p5780
aVDERBY-1219
p5781
aVDERBY-1218
p5782
aVDERBY-1217
p5783
aVDERBY-1216
p5784
aVDERBY-1215
p5785
aVDERBY-1214
p5786
aVDERBY-1213
p5787
aVDERBY-1212
p5788
aVDERBY-1211
p5789
aVDERBY-1210
p5790
aVDERBY-1209
p5791
aVDERBY-1208
p5792
aVDERBY-1207
p5793
aVDERBY-1206
p5794
aVDERBY-1205
p5795
aVDERBY-1204
p5796
aVDERBY-1203
p5797
aVDERBY-1202
p5798
aVDERBY-1201
p5799
aVDERBY-1200
p5800
aVDERBY-1199
p5801
aVDERBY-1198
p5802
aVDERBY-1197
p5803
aVDERBY-1196
p5804
aVDERBY-1195
p5805
aVDERBY-1194
p5806
aVDERBY-1193
p5807
aVDERBY-1192
p5808
aVDERBY-1191
p5809
aVDERBY-1190
p5810
aVDERBY-1189
p5811
aVDERBY-1188
p5812
aVDERBY-1187
p5813
aVDERBY-1186
p5814
aVDERBY-1185
p5815
aVDERBY-1184
p5816
aVDERBY-1183
p5817
aVDERBY-1182
p5818
aVDERBY-1181
p5819
aVDERBY-1180
p5820
aVDERBY-1179
p5821
aVDERBY-1178
p5822
aVDERBY-1177
p5823
aVDERBY-1176
p5824
aVDERBY-1175
p5825
aVDERBY-1174
p5826
aVDERBY-1173
p5827
aVDERBY-1172
p5828
aVDERBY-1171
p5829
aVDERBY-1170
p5830
aVDERBY-1169
p5831
aVDERBY-1168
p5832
aVDERBY-1167
p5833
aVDERBY-1166
p5834
aVDERBY-1165
p5835
aVDERBY-1164
p5836
aVDERBY-1163
p5837
aVDERBY-1162
p5838
aVDERBY-1161
p5839
aVDERBY-1160
p5840
aVDERBY-1159
p5841
aVDERBY-1158
p5842
aVDERBY-1157
p5843
aVDERBY-1156
p5844
aVDERBY-1155
p5845
aVDERBY-1154
p5846
aVDERBY-1153
p5847
aVDERBY-1152
p5848
aVDERBY-1151
p5849
aVDERBY-1150
p5850
aVDERBY-1149
p5851
aVDERBY-1148
p5852
aVDERBY-1147
p5853
aVDERBY-1146
p5854
aVDERBY-1145
p5855
aVDERBY-1144
p5856
aVDERBY-1143
p5857
aVDERBY-1142
p5858
aVDERBY-1141
p5859
aVDERBY-1140
p5860
aVDERBY-1139
p5861
aVDERBY-1138
p5862
aVDERBY-1137
p5863
aVDERBY-1136
p5864
aVDERBY-1135
p5865
aVDERBY-1134
p5866
aVDERBY-1133
p5867
aVDERBY-1132
p5868
aVDERBY-1131
p5869
aVDERBY-1130
p5870
aVDERBY-1129
p5871
aVDERBY-1128
p5872
aVDERBY-1127
p5873
aVDERBY-1126
p5874
aVDERBY-1125
p5875
aVDERBY-1124
p5876
aVDERBY-1123
p5877
aVDERBY-1122
p5878
aVDERBY-1121
p5879
aVDERBY-1120
p5880
aVDERBY-1119
p5881
aVDERBY-1118
p5882
aVDERBY-1117
p5883
aVDERBY-1116
p5884
aVDERBY-1115
p5885
aVDERBY-1114
p5886
aVDERBY-1113
p5887
aVDERBY-1112
p5888
aVDERBY-1111
p5889
aVDERBY-1110
p5890
aVDERBY-1109
p5891
aVDERBY-1108
p5892
aVDERBY-1107
p5893
aVDERBY-1106
p5894
aVDERBY-1105
p5895
aVDERBY-1104
p5896
aVDERBY-1103
p5897
aVDERBY-1102
p5898
aVDERBY-1101
p5899
aVDERBY-1100
p5900
aVDERBY-1099
p5901
aVDERBY-1098
p5902
aVDERBY-1097
p5903
aVDERBY-1095
p5904
aVDERBY-1094
p5905
aVDERBY-1093
p5906
aVDERBY-1092
p5907
aVDERBY-1091
p5908
aVDERBY-1090
p5909
aVDERBY-1089
p5910
aVDERBY-1088
p5911
aVDERBY-1087
p5912
aVDERBY-1086
p5913
aVDERBY-1085
p5914
aVDERBY-1084
p5915
aVDERBY-1083
p5916
aVDERBY-1082
p5917
aVDERBY-1081
p5918
aVDERBY-1080
p5919
aVDERBY-1079
p5920
aVDERBY-1078
p5921
aVDERBY-1077
p5922
aVDERBY-1076
p5923
aVDERBY-1075
p5924
aVDERBY-1074
p5925
aVDERBY-1073
p5926
aVDERBY-1072
p5927
aVDERBY-1071
p5928
aVDERBY-1070
p5929
aVDERBY-1069
p5930
aVDERBY-1068
p5931
aVDERBY-1067
p5932
aVDERBY-1066
p5933
aVDERBY-1065
p5934
aVDERBY-1064
p5935
aVDERBY-1063
p5936
aVDERBY-1062
p5937
aVDERBY-1061
p5938
aVDERBY-1060
p5939
aVDERBY-1059
p5940
aVDERBY-1058
p5941
aVDERBY-1057
p5942
aVDERBY-1056
p5943
aVDERBY-1055
p5944
aVDERBY-1054
p5945
aVDERBY-1053
p5946
aVDERBY-1052
p5947
aVDERBY-1051
p5948
aVDERBY-1050
p5949
aVDERBY-1049
p5950
aVDERBY-1048
p5951
aVDERBY-1047
p5952
aVDERBY-1046
p5953
aVDERBY-1045
p5954
aVDERBY-1044
p5955
aVDERBY-1043
p5956
aVDERBY-1042
p5957
aVDERBY-1041
p5958
aVDERBY-1040
p5959
aVDERBY-1039
p5960
aVDERBY-1038
p5961
aVDERBY-1037
p5962
aVDERBY-1036
p5963
aVDERBY-1035
p5964
aVDERBY-1034
p5965
aVDERBY-1033
p5966
aVDERBY-1032
p5967
aVDERBY-1031
p5968
aVDERBY-1030
p5969
aVDERBY-1029
p5970
aVDERBY-1028
p5971
aVDERBY-1027
p5972
aVDERBY-1026
p5973
aVDERBY-1025
p5974
aVDERBY-1024
p5975
aVDERBY-1023
p5976
aVDERBY-1022
p5977
aVDERBY-1021
p5978
aVDERBY-1020
p5979
aVDERBY-1019
p5980
aVDERBY-1018
p5981
aVDERBY-1017
p5982
aVDERBY-1016
p5983
aVDERBY-1015
p5984
aVDERBY-1014
p5985
aVDERBY-1013
p5986
aVDERBY-1012
p5987
aVDERBY-1011
p5988
aVDERBY-1010
p5989
aVDERBY-1009
p5990
aVDERBY-1008
p5991
aVDERBY-1007
p5992
aVDERBY-1006
p5993
aVDERBY-1005
p5994
aVDERBY-1004
p5995
aVDERBY-1003
p5996
aVDERBY-1002
p5997
aVDERBY-1001
p5998
aVDERBY-1000
p5999
aVDERBY-999
p6000
aVDERBY-998
p6001
aVDERBY-997
p6002
aVDERBY-996
p6003
aVDERBY-995
p6004
aVDERBY-994
p6005
aVDERBY-993
p6006
aVDERBY-992
p6007
aVDERBY-991
p6008
aVDERBY-990
p6009
aVDERBY-989
p6010
aVDERBY-988
p6011
aVDERBY-987
p6012
aVDERBY-986
p6013
aVDERBY-985
p6014
aVDERBY-984
p6015
aVDERBY-983
p6016
aVDERBY-982
p6017
aVDERBY-981
p6018
aVDERBY-980
p6019
aVDERBY-979
p6020
aVDERBY-978
p6021
aVDERBY-977
p6022
aVDERBY-976
p6023
aVDERBY-975
p6024
aVDERBY-974
p6025
aVDERBY-973
p6026
aVDERBY-972
p6027
aVDERBY-971
p6028
aVDERBY-970
p6029
aVDERBY-969
p6030
aVDERBY-968
p6031
aVDERBY-967
p6032
aVDERBY-966
p6033
aVDERBY-965
p6034
aVDERBY-964
p6035
aVDERBY-963
p6036
aVDERBY-962
p6037
aVDERBY-961
p6038
aVDERBY-960
p6039
aVDERBY-959
p6040
aVDERBY-958
p6041
aVDERBY-957
p6042
aVDERBY-956
p6043
aVDERBY-955
p6044
aVDERBY-954
p6045
aVDERBY-953
p6046
aVDERBY-952
p6047
aVDERBY-951
p6048
aVDERBY-950
p6049
aVDERBY-949
p6050
aVDERBY-948
p6051
aVDERBY-947
p6052
aVDERBY-946
p6053
aVDERBY-945
p6054
aVDERBY-944
p6055
aVDERBY-943
p6056
aVDERBY-942
p6057
aVDERBY-941
p6058
aVDERBY-940
p6059
aVDERBY-939
p6060
aVDERBY-938
p6061
aVDERBY-937
p6062
aVDERBY-936
p6063
aVDERBY-935
p6064
aVDERBY-934
p6065
aVDERBY-933
p6066
aVDERBY-932
p6067
aVDERBY-931
p6068
aVDERBY-930
p6069
aVDERBY-929
p6070
aVDERBY-928
p6071
aVDERBY-927
p6072
aVDERBY-926
p6073
aVDERBY-925
p6074
aVDERBY-924
p6075
aVDERBY-923
p6076
aVDERBY-922
p6077
aVDERBY-921
p6078
aVDERBY-920
p6079
aVDERBY-919
p6080
aVDERBY-918
p6081
aVDERBY-917
p6082
aVDERBY-916
p6083
aVDERBY-915
p6084
aVDERBY-914
p6085
aVDERBY-913
p6086
aVDERBY-912
p6087
aVDERBY-911
p6088
aVDERBY-910
p6089
aVDERBY-909
p6090
aVDERBY-908
p6091
aVDERBY-907
p6092
aVDERBY-906
p6093
aVDERBY-905
p6094
aVDERBY-904
p6095
aVDERBY-903
p6096
aVDERBY-902
p6097
aVDERBY-901
p6098
aVDERBY-900
p6099
aVDERBY-899
p6100
aVDERBY-898
p6101
aVDERBY-897
p6102
aVDERBY-896
p6103
aVDERBY-895
p6104
aVDERBY-894
p6105
aVDERBY-893
p6106
aVDERBY-892
p6107
aVDERBY-891
p6108
aVDERBY-890
p6109
aVDERBY-889
p6110
aVDERBY-888
p6111
aVDERBY-887
p6112
aVDERBY-886
p6113
aVDERBY-885
p6114
aVDERBY-884
p6115
aVDERBY-883
p6116
aVDERBY-882
p6117
aVDERBY-881
p6118
aVDERBY-880
p6119
aVDERBY-879
p6120
aVDERBY-878
p6121
aVDERBY-877
p6122
aVDERBY-876
p6123
aVDERBY-875
p6124
aVDERBY-874
p6125
aVDERBY-873
p6126
aVDERBY-872
p6127
aVDERBY-871
p6128
aVDERBY-870
p6129
aVDERBY-869
p6130
aVDERBY-868
p6131
aVDERBY-867
p6132
aVDERBY-866
p6133
aVDERBY-865
p6134
aVDERBY-864
p6135
aVDERBY-863
p6136
aVDERBY-862
p6137
aVDERBY-861
p6138
aVDERBY-860
p6139
aVDERBY-859
p6140
aVDERBY-858
p6141
aVDERBY-857
p6142
aVDERBY-856
p6143
aVDERBY-855
p6144
aVDERBY-854
p6145
aVDERBY-853
p6146
aVDERBY-852
p6147
aVDERBY-851
p6148
aVDERBY-850
p6149
aVDERBY-849
p6150
aVDERBY-848
p6151
aVDERBY-847
p6152
aVDERBY-846
p6153
aVDERBY-845
p6154
aVDERBY-844
p6155
aVDERBY-843
p6156
aVDERBY-842
p6157
aVDERBY-841
p6158
aVDERBY-840
p6159
aVDERBY-839
p6160
aVDERBY-838
p6161
aVDERBY-837
p6162
aVDERBY-836
p6163
aVDERBY-835
p6164
aVDERBY-834
p6165
aVDERBY-833
p6166
aVDERBY-832
p6167
aVDERBY-831
p6168
aVDERBY-830
p6169
aVDERBY-829
p6170
aVDERBY-828
p6171
aVDERBY-827
p6172
aVDERBY-826
p6173
aVDERBY-825
p6174
aVDERBY-824
p6175
aVDERBY-823
p6176
aVDERBY-822
p6177
aVDERBY-821
p6178
aVDERBY-820
p6179
aVDERBY-819
p6180
aVDERBY-818
p6181
aVDERBY-817
p6182
aVDERBY-816
p6183
aVDERBY-815
p6184
aVDERBY-814
p6185
aVDERBY-813
p6186
aVDERBY-812
p6187
aVDERBY-811
p6188
aVDERBY-810
p6189
aVDERBY-809
p6190
aVDERBY-808
p6191
aVDERBY-807
p6192
aVDERBY-806
p6193
aVDERBY-805
p6194
aVDERBY-804
p6195
aVDERBY-803
p6196
aVDERBY-802
p6197
aVDERBY-801
p6198
aVDERBY-800
p6199
aVDERBY-799
p6200
aVDERBY-798
p6201
aVDERBY-797
p6202
aVDERBY-796
p6203
aVDERBY-795
p6204
aVDERBY-794
p6205
aVDERBY-793
p6206
aVDERBY-792
p6207
aVDERBY-791
p6208
aVDERBY-790
p6209
aVDERBY-789
p6210
aVDERBY-788
p6211
aVDERBY-787
p6212
aVDERBY-786
p6213
aVDERBY-785
p6214
aVDERBY-784
p6215
aVDERBY-783
p6216
aVDERBY-782
p6217
aVDERBY-781
p6218
aVDERBY-780
p6219
aVDERBY-779
p6220
aVDERBY-778
p6221
aVDERBY-777
p6222
aVDERBY-776
p6223
aVDERBY-775
p6224
aVDERBY-774
p6225
aVDERBY-773
p6226
aVDERBY-772
p6227
aVDERBY-771
p6228
aVDERBY-770
p6229
aVDERBY-769
p6230
aVDERBY-768
p6231
aVDERBY-767
p6232
aVDERBY-766
p6233
aVDERBY-765
p6234
aVDERBY-764
p6235
aVDERBY-763
p6236
aVDERBY-762
p6237
aVDERBY-761
p6238
aVDERBY-760
p6239
aVDERBY-759
p6240
aVDERBY-758
p6241
aVDERBY-757
p6242
aVDERBY-756
p6243
aVDERBY-755
p6244
aVDERBY-754
p6245
aVDERBY-753
p6246
aVDERBY-752
p6247
aVDERBY-751
p6248
aVDERBY-750
p6249
aVDERBY-749
p6250
aVDERBY-748
p6251
aVDERBY-747
p6252
aVDERBY-746
p6253
aVDERBY-745
p6254
aVDERBY-744
p6255
aVDERBY-743
p6256
aVDERBY-742
p6257
aVDERBY-741
p6258
aVDERBY-740
p6259
aVDERBY-739
p6260
aVDERBY-738
p6261
aVDERBY-737
p6262
aVDERBY-736
p6263
aVDERBY-735
p6264
aVDERBY-734
p6265
aVDERBY-733
p6266
aVDERBY-732
p6267
aVDERBY-731
p6268
aVDERBY-730
p6269
aVDERBY-729
p6270
aVDERBY-728
p6271
aVDERBY-727
p6272
aVDERBY-726
p6273
aVDERBY-725
p6274
aVDERBY-724
p6275
aVDERBY-723
p6276
aVDERBY-722
p6277
aVDERBY-721
p6278
aVDERBY-720
p6279
aVDERBY-719
p6280
aVDERBY-718
p6281
aVDERBY-717
p6282
aVDERBY-716
p6283
aVDERBY-715
p6284
aVDERBY-714
p6285
aVDERBY-713
p6286
aVDERBY-712
p6287
aVDERBY-711
p6288
aVDERBY-710
p6289
aVDERBY-709
p6290
aVDERBY-708
p6291
aVDERBY-707
p6292
aVDERBY-706
p6293
aVDERBY-705
p6294
aVDERBY-704
p6295
aVDERBY-703
p6296
aVDERBY-702
p6297
aVDERBY-701
p6298
aVDERBY-700
p6299
aVDERBY-699
p6300
aVDERBY-698
p6301
aVDERBY-697
p6302
aVDERBY-696
p6303
aVDERBY-695
p6304
aVDERBY-694
p6305
aVDERBY-693
p6306
aVDERBY-692
p6307
aVDERBY-691
p6308
aVDERBY-690
p6309
aVDERBY-689
p6310
aVDERBY-688
p6311
aVDERBY-687
p6312
aVDERBY-686
p6313
aVDERBY-685
p6314
aVDERBY-684
p6315
aVDERBY-683
p6316
aVDERBY-682
p6317
aVDERBY-681
p6318
aVDERBY-680
p6319
aVDERBY-679
p6320
aVDERBY-678
p6321
aVDERBY-677
p6322
aVDERBY-676
p6323
aVDERBY-675
p6324
aVDERBY-674
p6325
aVDERBY-673
p6326
aVDERBY-672
p6327
aVDERBY-671
p6328
aVDERBY-670
p6329
aVDERBY-669
p6330
aVDERBY-668
p6331
aVDERBY-667
p6332
aVDERBY-666
p6333
aVDERBY-665
p6334
aVDERBY-664
p6335
aVDERBY-663
p6336
aVDERBY-662
p6337
aVDERBY-661
p6338
aVDERBY-660
p6339
aVDERBY-659
p6340
aVDERBY-658
p6341
aVDERBY-657
p6342
aVDERBY-656
p6343
aVDERBY-655
p6344
aVDERBY-654
p6345
aVDERBY-653
p6346
aVDERBY-652
p6347
aVDERBY-651
p6348
aVDERBY-650
p6349
aVDERBY-649
p6350
aVDERBY-648
p6351
aVDERBY-647
p6352
aVDERBY-646
p6353
aVDERBY-645
p6354
aVDERBY-644
p6355
aVDERBY-643
p6356
aVDERBY-642
p6357
aVDERBY-641
p6358
aVDERBY-640
p6359
aVDERBY-639
p6360
aVDERBY-638
p6361
aVDERBY-637
p6362
aVDERBY-636
p6363
aVDERBY-635
p6364
aVDERBY-634
p6365
aVDERBY-633
p6366
aVDERBY-632
p6367
aVDERBY-631
p6368
aVDERBY-630
p6369
aVDERBY-629
p6370
aVDERBY-628
p6371
aVDERBY-627
p6372
aVDERBY-626
p6373
aVDERBY-625
p6374
aVDERBY-624
p6375
aVDERBY-623
p6376
aVDERBY-622
p6377
aVDERBY-621
p6378
aVDERBY-620
p6379
aVDERBY-619
p6380
aVDERBY-618
p6381
aVDERBY-617
p6382
aVDERBY-616
p6383
aVDERBY-615
p6384
aVDERBY-614
p6385
aVDERBY-613
p6386
aVDERBY-612
p6387
aVDERBY-611
p6388
aVDERBY-610
p6389
aVDERBY-609
p6390
aVDERBY-608
p6391
aVDERBY-607
p6392
aVDERBY-606
p6393
aVDERBY-605
p6394
aVDERBY-604
p6395
aVDERBY-603
p6396
aVDERBY-602
p6397
aVDERBY-601
p6398
aVDERBY-600
p6399
aVDERBY-599
p6400
aVDERBY-598
p6401
aVDERBY-597
p6402
aVDERBY-596
p6403
aVDERBY-595
p6404
aVDERBY-594
p6405
aVDERBY-593
p6406
aVDERBY-592
p6407
aVDERBY-591
p6408
aVDERBY-590
p6409
aVDERBY-589
p6410
aVDERBY-588
p6411
aVDERBY-587
p6412
aVDERBY-586
p6413
aVDERBY-585
p6414
aVDERBY-584
p6415
aVDERBY-583
p6416
aVDERBY-582
p6417
aVDERBY-581
p6418
aVDERBY-580
p6419
aVDERBY-579
p6420
aVDERBY-578
p6421
aVDERBY-577
p6422
aVDERBY-576
p6423
aVDERBY-575
p6424
aVDERBY-574
p6425
aVDERBY-573
p6426
aVDERBY-572
p6427
aVDERBY-571
p6428
aVDERBY-570
p6429
aVDERBY-569
p6430
aVDERBY-568
p6431
aVDERBY-567
p6432
aVDERBY-566
p6433
aVDERBY-565
p6434
aVDERBY-564
p6435
aVDERBY-563
p6436
aVDERBY-562
p6437
aVDERBY-561
p6438
aVDERBY-560
p6439
aVDERBY-559
p6440
aVDERBY-558
p6441
aVDERBY-557
p6442
aVDERBY-556
p6443
aVDERBY-555
p6444
aVDERBY-554
p6445
aVDERBY-553
p6446
aVDERBY-552
p6447
aVDERBY-551
p6448
aVDERBY-550
p6449
aVDERBY-549
p6450
aVDERBY-548
p6451
aVDERBY-547
p6452
aVDERBY-546
p6453
aVDERBY-545
p6454
aVDERBY-544
p6455
aVDERBY-543
p6456
aVDERBY-542
p6457
aVDERBY-541
p6458
aVDERBY-540
p6459
aVDERBY-539
p6460
aVDERBY-538
p6461
aVDERBY-537
p6462
aVDERBY-536
p6463
aVDERBY-535
p6464
aVDERBY-534
p6465
aVDERBY-533
p6466
aVDERBY-532
p6467
aVDERBY-531
p6468
aVDERBY-530
p6469
aVDERBY-529
p6470
aVDERBY-528
p6471
aVDERBY-527
p6472
aVDERBY-526
p6473
aVDERBY-525
p6474
aVDERBY-524
p6475
aVDERBY-523
p6476
aVDERBY-522
p6477
aVDERBY-521
p6478
aVDERBY-520
p6479
aVDERBY-519
p6480
aVDERBY-518
p6481
aVDERBY-517
p6482
aVDERBY-516
p6483
aVDERBY-515
p6484
aVDERBY-514
p6485
aVDERBY-513
p6486
aVDERBY-512
p6487
aVDERBY-511
p6488
aVDERBY-510
p6489
aVDERBY-509
p6490
aVDERBY-508
p6491
aVDERBY-507
p6492
aVDERBY-506
p6493
aVDERBY-505
p6494
aVDERBY-504
p6495
aVDERBY-503
p6496
aVDERBY-502
p6497
aVDERBY-501
p6498
aVDERBY-500
p6499
aVDERBY-499
p6500
aVDERBY-498
p6501
aVDERBY-497
p6502
aVDERBY-496
p6503
aVDERBY-495
p6504
aVDERBY-494
p6505
aVDERBY-493
p6506
aVDERBY-492
p6507
aVDERBY-491
p6508
aVDERBY-490
p6509
aVDERBY-489
p6510
aVDERBY-488
p6511
aVDERBY-487
p6512
aVDERBY-486
p6513
aVDERBY-485
p6514
aVDERBY-484
p6515
aVDERBY-483
p6516
aVDERBY-482
p6517
aVDERBY-481
p6518
aVDERBY-480
p6519
aVDERBY-479
p6520
aVDERBY-478
p6521
aVDERBY-477
p6522
aVDERBY-476
p6523
aVDERBY-475
p6524
aVDERBY-474
p6525
aVDERBY-473
p6526
aVDERBY-472
p6527
aVDERBY-471
p6528
aVDERBY-470
p6529
aVDERBY-469
p6530
aVDERBY-468
p6531
aVDERBY-467
p6532
aVDERBY-466
p6533
aVDERBY-465
p6534
aVDERBY-464
p6535
aVDERBY-463
p6536
aVDERBY-462
p6537
aVDERBY-461
p6538
aVDERBY-460
p6539
aVDERBY-459
p6540
aVDERBY-458
p6541
aVDERBY-457
p6542
aVDERBY-456
p6543
aVDERBY-455
p6544
aVDERBY-454
p6545
aVDERBY-453
p6546
aVDERBY-452
p6547
aVDERBY-451
p6548
aVDERBY-450
p6549
aVDERBY-449
p6550
aVDERBY-448
p6551
aVDERBY-447
p6552
aVDERBY-446
p6553
aVDERBY-445
p6554
aVDERBY-444
p6555
aVDERBY-443
p6556
aVDERBY-442
p6557
aVDERBY-441
p6558
aVDERBY-440
p6559
aVDERBY-439
p6560
aVDERBY-438
p6561
aVDERBY-437
p6562
aVDERBY-436
p6563
aVDERBY-435
p6564
aVDERBY-434
p6565
aVDERBY-433
p6566
aVDERBY-432
p6567
aVDERBY-431
p6568
aVDERBY-430
p6569
aVDERBY-429
p6570
aVDERBY-428
p6571
aVDERBY-427
p6572
aVDERBY-426
p6573
aVDERBY-425
p6574
aVDERBY-424
p6575
aVDERBY-423
p6576
aVDERBY-422
p6577
aVDERBY-421
p6578
aVDERBY-420
p6579
aVDERBY-419
p6580
aVDERBY-418
p6581
aVDERBY-417
p6582
aVDERBY-416
p6583
aVDERBY-415
p6584
aVDERBY-414
p6585
aVDERBY-413
p6586
aVDERBY-412
p6587
aVDERBY-411
p6588
aVDERBY-410
p6589
aVDERBY-409
p6590
aVDERBY-408
p6591
aVDERBY-407
p6592
aVDERBY-406
p6593
aVDERBY-405
p6594
aVDERBY-404
p6595
aVDERBY-403
p6596
aVDERBY-402
p6597
aVDERBY-401
p6598
aVDERBY-400
p6599
aVDERBY-399
p6600
aVDERBY-398
p6601
aVDERBY-397
p6602
aVDERBY-396
p6603
aVDERBY-395
p6604
aVDERBY-394
p6605
aVDERBY-393
p6606
aVDERBY-392
p6607
aVDERBY-391
p6608
aVDERBY-390
p6609
aVDERBY-389
p6610
aVDERBY-388
p6611
aVDERBY-387
p6612
aVDERBY-386
p6613
aVDERBY-385
p6614
aVDERBY-384
p6615
aVDERBY-383
p6616
aVDERBY-382
p6617
aVDERBY-381
p6618
aVDERBY-380
p6619
aVDERBY-379
p6620
aVDERBY-378
p6621
aVDERBY-377
p6622
aVDERBY-376
p6623
aVDERBY-375
p6624
aVDERBY-374
p6625
aVDERBY-373
p6626
aVDERBY-372
p6627
aVDERBY-371
p6628
aVDERBY-370
p6629
aVDERBY-369
p6630
aVDERBY-368
p6631
aVDERBY-367
p6632
aVDERBY-366
p6633
aVDERBY-365
p6634
aVDERBY-364
p6635
aVDERBY-363
p6636
aVDERBY-362
p6637
aVDERBY-361
p6638
aVDERBY-360
p6639
aVDERBY-359
p6640
aVDERBY-358
p6641
aVDERBY-357
p6642
aVDERBY-356
p6643
aVDERBY-355
p6644
aVDERBY-354
p6645
aVDERBY-353
p6646
aVDERBY-352
p6647
aVDERBY-351
p6648
aVDERBY-350
p6649
aVDERBY-349
p6650
aVDERBY-348
p6651
aVDERBY-347
p6652
aVDERBY-346
p6653
aVDERBY-345
p6654
aVDERBY-344
p6655
aVDERBY-343
p6656
aVDERBY-342
p6657
aVDERBY-341
p6658
aVDERBY-340
p6659
aVDERBY-339
p6660
aVDERBY-338
p6661
aVDERBY-337
p6662
aVDERBY-336
p6663
aVDERBY-335
p6664
aVDERBY-334
p6665
aVDERBY-333
p6666
aVDERBY-332
p6667
aVDERBY-331
p6668
aVDERBY-330
p6669
aVDERBY-329
p6670
aVDERBY-328
p6671
aVDERBY-327
p6672
aVDERBY-326
p6673
aVDERBY-325
p6674
aVDERBY-324
p6675
aVDERBY-323
p6676
aVDERBY-322
p6677
aVDERBY-321
p6678
aVDERBY-320
p6679
aVDERBY-319
p6680
aVDERBY-318
p6681
aVDERBY-317
p6682
aVDERBY-316
p6683
aVDERBY-315
p6684
aVDERBY-314
p6685
aVDERBY-313
p6686
aVDERBY-312
p6687
aVDERBY-311
p6688
aVDERBY-310
p6689
aVDERBY-309
p6690
aVDERBY-308
p6691
aVDERBY-307
p6692
aVDERBY-306
p6693
aVDERBY-305
p6694
aVDERBY-304
p6695
aVDERBY-303
p6696
aVDERBY-302
p6697
aVDERBY-301
p6698
aVDERBY-300
p6699
aVDERBY-299
p6700
aVDERBY-298
p6701
aVDERBY-297
p6702
aVDERBY-296
p6703
aVDERBY-295
p6704
aVDERBY-294
p6705
aVDERBY-293
p6706
aVDERBY-292
p6707
aVDERBY-291
p6708
aVDERBY-290
p6709
aVDERBY-289
p6710
aVDERBY-288
p6711
aVDERBY-287
p6712
aVDERBY-286
p6713
aVDERBY-285
p6714
aVDERBY-284
p6715
aVDERBY-283
p6716
aVDERBY-282
p6717
aVDERBY-281
p6718
aVDERBY-280
p6719
aVDERBY-279
p6720
aVDERBY-278
p6721
aVDERBY-277
p6722
aVDERBY-276
p6723
aVDERBY-275
p6724
aVDERBY-274
p6725
aVDERBY-273
p6726
aVDERBY-272
p6727
aVDERBY-271
p6728
aVDERBY-270
p6729
aVDERBY-269
p6730
aVDERBY-268
p6731
aVDERBY-267
p6732
aVDERBY-266
p6733
aVDERBY-265
p6734
aVDERBY-264
p6735
aVDERBY-263
p6736
aVDERBY-262
p6737
aVDERBY-261
p6738
aVDERBY-260
p6739
aVDERBY-259
p6740
aVDERBY-258
p6741
aVDERBY-257
p6742
aVDERBY-256
p6743
aVDERBY-255
p6744
aVDERBY-254
p6745
aVDERBY-253
p6746
aVDERBY-252
p6747
aVDERBY-251
p6748
aVDERBY-250
p6749
aVDERBY-249
p6750
aVDERBY-248
p6751
aVDERBY-247
p6752
aVDERBY-246
p6753
aVDERBY-245
p6754
aVDERBY-244
p6755
aVDERBY-243
p6756
aVDERBY-242
p6757
aVDERBY-241
p6758
aVDERBY-240
p6759
aVDERBY-239
p6760
aVDERBY-238
p6761
aVDERBY-237
p6762
aVDERBY-236
p6763
aVDERBY-235
p6764
aVDERBY-234
p6765
aVDERBY-233
p6766
aVDERBY-232
p6767
aVDERBY-231
p6768
aVDERBY-230
p6769
aVDERBY-229
p6770
aVDERBY-228
p6771
aVDERBY-227
p6772
aVDERBY-226
p6773
aVDERBY-225
p6774
aVDERBY-224
p6775
aVDERBY-223
p6776
aVDERBY-222
p6777
aVDERBY-221
p6778
aVDERBY-220
p6779
aVDERBY-219
p6780
aVDERBY-218
p6781
aVDERBY-217
p6782
aVDERBY-216
p6783
aVDERBY-215
p6784
aVDERBY-214
p6785
aVDERBY-213
p6786
aVDERBY-212
p6787
aVDERBY-211
p6788
aVDERBY-210
p6789
aVDERBY-209
p6790
aVDERBY-208
p6791
aVDERBY-207
p6792
aVDERBY-206
p6793
aVDERBY-205
p6794
aVDERBY-204
p6795
aVDERBY-203
p6796
aVDERBY-202
p6797
aVDERBY-201
p6798
aVDERBY-200
p6799
aVDERBY-199
p6800
aVDERBY-198
p6801
aVDERBY-197
p6802
aVDERBY-196
p6803
aVDERBY-195
p6804
aVDERBY-194
p6805
aVDERBY-193
p6806
aVDERBY-192
p6807
aVDERBY-191
p6808
aVDERBY-190
p6809
aVDERBY-189
p6810
aVDERBY-188
p6811
aVDERBY-187
p6812
aVDERBY-186
p6813
aVDERBY-185
p6814
aVDERBY-184
p6815
aVDERBY-183
p6816
aVDERBY-182
p6817
aVDERBY-181
p6818
aVDERBY-180
p6819
aVDERBY-179
p6820
aVDERBY-178
p6821
aVDERBY-177
p6822
aVDERBY-176
p6823
aVDERBY-175
p6824
aVDERBY-174
p6825
aVDERBY-173
p6826
aVDERBY-172
p6827
aVDERBY-171
p6828
aVDERBY-170
p6829
aVDERBY-169
p6830
aVDERBY-168
p6831
aVDERBY-167
p6832
aVDERBY-166
p6833
aVDERBY-165
p6834
aVDERBY-164
p6835
aVDERBY-163
p6836
aVDERBY-162
p6837
aVDERBY-161
p6838
aVDERBY-160
p6839
aVDERBY-159
p6840
aVDERBY-158
p6841
aVDERBY-157
p6842
aVDERBY-156
p6843
aVDERBY-155
p6844
aVDERBY-154
p6845
aVDERBY-153
p6846
aVDERBY-152
p6847
aVDERBY-151
p6848
aVDERBY-150
p6849
aVDERBY-149
p6850
aVDERBY-148
p6851
aVDERBY-147
p6852
aVDERBY-146
p6853
aVDERBY-145
p6854
aVDERBY-144
p6855
aVDERBY-143
p6856
aVDERBY-142
p6857
aVDERBY-141
p6858
aVDERBY-140
p6859
aVDERBY-139
p6860
aVDERBY-138
p6861
aVDERBY-137
p6862
aVDERBY-136
p6863
aVDERBY-135
p6864
aVDERBY-134
p6865
aVDERBY-133
p6866
aVDERBY-132
p6867
aVDERBY-131
p6868
aVDERBY-130
p6869
aVDERBY-129
p6870
aVDERBY-128
p6871
aVDERBY-127
p6872
aVDERBY-126
p6873
aVDERBY-125
p6874
aVDERBY-124
p6875
aVDERBY-123
p6876
aVDERBY-122
p6877
aVDERBY-121
p6878
aVDERBY-120
p6879
aVDERBY-119
p6880
aVDERBY-118
p6881
aVDERBY-117
p6882
aVDERBY-116
p6883
aVDERBY-115
p6884
aVDERBY-114
p6885
aVDERBY-113
p6886
aVDERBY-112
p6887
aVDERBY-111
p6888
aVDERBY-110
p6889
aVDERBY-109
p6890
aVDERBY-108
p6891
aVDERBY-107
p6892
aVDERBY-106
p6893
aVDERBY-105
p6894
aVDERBY-104
p6895
aVDERBY-103
p6896
aVDERBY-102
p6897
aVDERBY-101
p6898
aVDERBY-100
p6899
aVDERBY-99
p6900
aVDERBY-98
p6901
aVDERBY-97
p6902
aVDERBY-96
p6903
aVDERBY-95
p6904
aVDERBY-94
p6905
aVDERBY-93
p6906
aVDERBY-92
p6907
aVDERBY-91
p6908
aVDERBY-90
p6909
aVDERBY-89
p6910
aVDERBY-88
p6911
aVDERBY-87
p6912
aVDERBY-86
p6913
aVDERBY-85
p6914
aVDERBY-84
p6915
aVDERBY-83
p6916
aVDERBY-82
p6917
aVDERBY-81
p6918
aVDERBY-80
p6919
aVDERBY-79
p6920
aVDERBY-78
p6921
aVDERBY-77
p6922
aVDERBY-76
p6923
aVDERBY-75
p6924
aVDERBY-74
p6925
aVDERBY-73
p6926
aVDERBY-72
p6927
aVDERBY-71
p6928
aVDERBY-70
p6929
aVDERBY-69
p6930
aVDERBY-68
p6931
aVDERBY-67
p6932
aVDERBY-66
p6933
aVDERBY-65
p6934
aVDERBY-64
p6935
aVDERBY-63
p6936
aVDERBY-62
p6937
aVDERBY-61
p6938
aVDERBY-60
p6939
aVDERBY-59
p6940
aVDERBY-58
p6941
aVDERBY-57
p6942
aVDERBY-56
p6943
aVDERBY-55
p6944
aVDERBY-54
p6945
aVDERBY-53
p6946
aVDERBY-52
p6947
aVDERBY-51
p6948
aVDERBY-50
p6949
aVDERBY-49
p6950
aVDERBY-48
p6951
aVDERBY-47
p6952
aVDERBY-46
p6953
aVDERBY-45
p6954
aVDERBY-44
p6955
aVDERBY-43
p6956
aVDERBY-42
p6957
aVDERBY-41
p6958
aVDERBY-40
p6959
aVDERBY-39
p6960
aVDERBY-38
p6961
aVDERBY-37
p6962
aVDERBY-36
p6963
aVDERBY-35
p6964
aVDERBY-34
p6965
aVDERBY-33
p6966
aVDERBY-32
p6967
aVDERBY-31
p6968
aVDERBY-30
p6969
aVDERBY-29
p6970
aVDERBY-28
p6971
aVDERBY-27
p6972
aVDERBY-26
p6973
aVDERBY-25
p6974
aVDERBY-24
p6975
aVDERBY-23
p6976
aVDERBY-22
p6977
aVDERBY-21
p6978
aVDERBY-20
p6979
aVDERBY-19
p6980
aVDERBY-18
p6981
aVDERBY-17
p6982
aVDERBY-15
p6983
aVDERBY-14
p6984
aVDERBY-13
p6985
aVDERBY-12
p6986
aVDERBY-11
p6987
aVDERBY-10
p6988
aVDERBY-9
p6989
aVDERBY-8
p6990
aVDERBY-7
p6991
aVDERBY-6
p6992
aVDERBY-5
p6993
aVDERBY-4
p6994
aVDERBY-3
p6995
aVDERBY-2
p6996
aVDERBY-1
p6997
a.