(lp0
VDIGESTER-189
p1
aVDIGESTER-188
p2
aVDIGESTER-187
p3
aVDIGESTER-186
p4
aVDIGESTER-185
p5
aVDIGESTER-184
p6
aVDIGESTER-183
p7
aVDIGESTER-182
p8
aVDIGESTER-181
p9
aVDIGESTER-180
p10
aVDIGESTER-179
p11
aVDIGESTER-178
p12
aVDIGESTER-177
p13
aVDIGESTER-176
p14
aVDIGESTER-175
p15
aVDIGESTER-174
p16
aVDIGESTER-173
p17
aVDIGESTER-172
p18
aVDIGESTER-171
p19
aVDIGESTER-170
p20
aVDIGESTER-169
p21
aVDIGESTER-168
p22
aVDIGESTER-167
p23
aVDIGESTER-166
p24
aVDIGESTER-165
p25
aVDIGESTER-164
p26
aVDIGESTER-163
p27
aVDIGESTER-162
p28
aVDIGESTER-161
p29
aVDIGESTER-160
p30
aVDIGESTER-159
p31
aVDIGESTER-158
p32
aVDIGESTER-157
p33
aVDIGESTER-156
p34
aVDIGESTER-155
p35
aVDIGESTER-154
p36
aVDIGESTER-153
p37
aVDIGESTER-152
p38
aVDIGESTER-151
p39
aVDIGESTER-150
p40
aVDIGESTER-149
p41
aVDIGESTER-148
p42
aVDIGESTER-147
p43
aVDIGESTER-146
p44
aVDIGESTER-145
p45
aVDIGESTER-144
p46
aVDIGESTER-143
p47
aVDIGESTER-142
p48
aVDIGESTER-141
p49
aVDIGESTER-140
p50
aVDIGESTER-139
p51
aVDIGESTER-138
p52
aVDIGESTER-137
p53
aVDIGESTER-136
p54
aVDIGESTER-135
p55
aVDIGESTER-134
p56
aVDIGESTER-133
p57
aVDIGESTER-132
p58
aVDIGESTER-131
p59
aVDIGESTER-130
p60
aVDIGESTER-129
p61
aVDIGESTER-128
p62
aVDIGESTER-127
p63
aVDIGESTER-126
p64
aVDIGESTER-125
p65
aVDIGESTER-124
p66
aVDIGESTER-123
p67
aVDIGESTER-122
p68
aVDIGESTER-121
p69
aVDIGESTER-120
p70
aVDIGESTER-119
p71
aVDIGESTER-118
p72
aVDIGESTER-117
p73
aVDIGESTER-116
p74
aVDIGESTER-115
p75
aVDIGESTER-114
p76
aVDIGESTER-113
p77
aVDIGESTER-112
p78
aVDIGESTER-111
p79
aVDIGESTER-110
p80
aVDIGESTER-109
p81
aVDIGESTER-108
p82
aVDIGESTER-107
p83
aVDIGESTER-106
p84
aVDIGESTER-105
p85
aVDIGESTER-104
p86
aVDIGESTER-103
p87
aVDIGESTER-102
p88
aVDIGESTER-101
p89
aVDIGESTER-100
p90
aVDIGESTER-99
p91
aVDIGESTER-98
p92
aVDIGESTER-97
p93
aVDIGESTER-96
p94
aVDIGESTER-95
p95
aVDIGESTER-94
p96
aVDIGESTER-93
p97
aVDIGESTER-92
p98
aVDIGESTER-91
p99
aVDIGESTER-90
p100
aVDIGESTER-89
p101
aVDIGESTER-88
p102
aVDIGESTER-87
p103
aVDIGESTER-86
p104
aVDIGESTER-85
p105
aVDIGESTER-84
p106
aVDIGESTER-83
p107
aVDIGESTER-82
p108
aVDIGESTER-81
p109
aVDIGESTER-80
p110
aVDIGESTER-79
p111
aVDIGESTER-78
p112
aVDIGESTER-77
p113
aVDIGESTER-76
p114
aVDIGESTER-75
p115
aVDIGESTER-74
p116
aVDIGESTER-73
p117
aVDIGESTER-72
p118
aVDIGESTER-71
p119
aVDIGESTER-70
p120
aVDIGESTER-69
p121
aVDIGESTER-68
p122
aVDIGESTER-67
p123
aVDIGESTER-66
p124
aVDIGESTER-65
p125
aVDIGESTER-64
p126
aVDIGESTER-63
p127
aVDIGESTER-62
p128
aVDIGESTER-61
p129
aVDIGESTER-60
p130
aVDIGESTER-59
p131
aVDIGESTER-58
p132
aVDIGESTER-57
p133
aVDIGESTER-56
p134
aVDIGESTER-55
p135
aVDIGESTER-54
p136
aVDIGESTER-53
p137
aVDIGESTER-52
p138
aVDIGESTER-51
p139
aVDIGESTER-50
p140
aVDIGESTER-49
p141
aVDIGESTER-48
p142
aVDIGESTER-47
p143
aVDIGESTER-46
p144
aVDIGESTER-45
p145
aVDIGESTER-44
p146
aVDIGESTER-43
p147
aVDIGESTER-42
p148
aVDIGESTER-41
p149
aVDIGESTER-40
p150
aVDIGESTER-39
p151
aVDIGESTER-38
p152
aVDIGESTER-37
p153
aVDIGESTER-36
p154
aVDIGESTER-35
p155
aVDIGESTER-34
p156
aVDIGESTER-33
p157
aVDIGESTER-32
p158
aVDIGESTER-31
p159
aVDIGESTER-30
p160
aVDIGESTER-29
p161
aVDIGESTER-28
p162
aVDIGESTER-27
p163
aVDIGESTER-26
p164
aVDIGESTER-25
p165
aVDIGESTER-24
p166
aVDIGESTER-23
p167
aVDIGESTER-22
p168
aVDIGESTER-21
p169
aVDIGESTER-20
p170
aVDIGESTER-19
p171
aVDIGESTER-18
p172
aVDIGESTER-17
p173
aVDIGESTER-16
p174
aVDIGESTER-15
p175
aVDIGESTER-14
p176
aVDIGESTER-13
p177
aVDIGESTER-12
p178
aVDIGESTER-11
p179
aVDIGESTER-10
p180
aVDIGESTER-9
p181
aVDIGESTER-8
p182
aVDIGESTER-7
p183
aVDIGESTER-6
p184
aVDIGESTER-5
p185
aVDIGESTER-4
p186
aVDIGESTER-3
p187
aVDIGESTER-2
p188
aVDIGESTER-1
p189
a.