(lp0
VDIRECTMEMORY-139
p1
aVDIRECTMEMORY-138
p2
aVDIRECTMEMORY-137
p3
aVDIRECTMEMORY-136
p4
aVDIRECTMEMORY-135
p5
aVDIRECTMEMORY-134
p6
aVDIRECTMEMORY-133
p7
aVDIRECTMEMORY-132
p8
aVDIRECTMEMORY-131
p9
aVDIRECTMEMORY-130
p10
aVDIRECTMEMORY-129
p11
aVDIRECTMEMORY-128
p12
aVDIRECTMEMORY-127
p13
aVDIRECTMEMORY-126
p14
aVDIRECTMEMORY-125
p15
aVDIRECTMEMORY-124
p16
aVDIRECTMEMORY-123
p17
aVDIRECTMEMORY-122
p18
aVDIRECTMEMORY-121
p19
aVDIRECTMEMORY-120
p20
aVDIRECTMEMORY-119
p21
aVDIRECTMEMORY-118
p22
aVDIRECTMEMORY-117
p23
aVDIRECTMEMORY-116
p24
aVDIRECTMEMORY-115
p25
aVDIRECTMEMORY-114
p26
aVDIRECTMEMORY-113
p27
aVDIRECTMEMORY-112
p28
aVDIRECTMEMORY-111
p29
aVDIRECTMEMORY-110
p30
aVDIRECTMEMORY-109
p31
aVDIRECTMEMORY-108
p32
aVDIRECTMEMORY-107
p33
aVDIRECTMEMORY-106
p34
aVDIRECTMEMORY-105
p35
aVDIRECTMEMORY-104
p36
aVDIRECTMEMORY-103
p37
aVDIRECTMEMORY-102
p38
aVDIRECTMEMORY-101
p39
aVDIRECTMEMORY-100
p40
aVDIRECTMEMORY-99
p41
aVDIRECTMEMORY-98
p42
aVDIRECTMEMORY-97
p43
aVDIRECTMEMORY-96
p44
aVDIRECTMEMORY-95
p45
aVDIRECTMEMORY-94
p46
aVDIRECTMEMORY-93
p47
aVDIRECTMEMORY-92
p48
aVDIRECTMEMORY-91
p49
aVDIRECTMEMORY-90
p50
aVDIRECTMEMORY-89
p51
aVDIRECTMEMORY-88
p52
aVDIRECTMEMORY-87
p53
aVDIRECTMEMORY-86
p54
aVDIRECTMEMORY-85
p55
aVDIRECTMEMORY-84
p56
aVDIRECTMEMORY-83
p57
aVDIRECTMEMORY-82
p58
aVDIRECTMEMORY-81
p59
aVDIRECTMEMORY-80
p60
aVDIRECTMEMORY-79
p61
aVDIRECTMEMORY-78
p62
aVDIRECTMEMORY-77
p63
aVDIRECTMEMORY-76
p64
aVDIRECTMEMORY-75
p65
aVDIRECTMEMORY-74
p66
aVDIRECTMEMORY-73
p67
aVDIRECTMEMORY-72
p68
aVDIRECTMEMORY-71
p69
aVDIRECTMEMORY-70
p70
aVDIRECTMEMORY-69
p71
aVDIRECTMEMORY-68
p72
aVDIRECTMEMORY-67
p73
aVDIRECTMEMORY-66
p74
aVDIRECTMEMORY-65
p75
aVDIRECTMEMORY-64
p76
aVDIRECTMEMORY-63
p77
aVDIRECTMEMORY-62
p78
aVDIRECTMEMORY-61
p79
aVDIRECTMEMORY-60
p80
aVDIRECTMEMORY-59
p81
aVDIRECTMEMORY-58
p82
aVDIRECTMEMORY-57
p83
aVDIRECTMEMORY-56
p84
aVDIRECTMEMORY-55
p85
aVDIRECTMEMORY-54
p86
aVDIRECTMEMORY-53
p87
aVDIRECTMEMORY-52
p88
aVDIRECTMEMORY-51
p89
aVDIRECTMEMORY-50
p90
aVDIRECTMEMORY-49
p91
aVDIRECTMEMORY-48
p92
aVDIRECTMEMORY-47
p93
aVDIRECTMEMORY-46
p94
aVDIRECTMEMORY-45
p95
aVDIRECTMEMORY-44
p96
aVDIRECTMEMORY-43
p97
aVDIRECTMEMORY-42
p98
aVDIRECTMEMORY-41
p99
aVDIRECTMEMORY-40
p100
aVDIRECTMEMORY-39
p101
aVDIRECTMEMORY-38
p102
aVDIRECTMEMORY-37
p103
aVDIRECTMEMORY-36
p104
aVDIRECTMEMORY-35
p105
aVDIRECTMEMORY-34
p106
aVDIRECTMEMORY-33
p107
aVDIRECTMEMORY-32
p108
aVDIRECTMEMORY-31
p109
aVDIRECTMEMORY-30
p110
aVDIRECTMEMORY-29
p111
aVDIRECTMEMORY-28
p112
aVDIRECTMEMORY-27
p113
aVDIRECTMEMORY-26
p114
aVDIRECTMEMORY-25
p115
aVDIRECTMEMORY-24
p116
aVDIRECTMEMORY-23
p117
aVDIRECTMEMORY-22
p118
aVDIRECTMEMORY-21
p119
aVDIRECTMEMORY-20
p120
aVDIRECTMEMORY-19
p121
aVDIRECTMEMORY-18
p122
aVDIRECTMEMORY-17
p123
aVDIRECTMEMORY-16
p124
aVDIRECTMEMORY-15
p125
aVDIRECTMEMORY-14
p126
aVDIRECTMEMORY-13
p127
aVDIRECTMEMORY-12
p128
aVDIRECTMEMORY-11
p129
aVDIRECTMEMORY-10
p130
aVDIRECTMEMORY-9
p131
aVDIRECTMEMORY-8
p132
aVDIRECTMEMORY-7
p133
aVDIRECTMEMORY-6
p134
aVDIRECTMEMORY-5
p135
aVDIRECTMEMORY-4
p136
aVDIRECTMEMORY-3
p137
aVDIRECTMEMORY-2
p138
aVDIRECTMEMORY-1
p139
a.