(lp0
VDIRMINA-1091
p1
aVDIRMINA-1090
p2
aVDIRMINA-1089
p3
aVDIRMINA-1088
p4
aVDIRMINA-1087
p5
aVDIRMINA-1086
p6
aVDIRMINA-1085
p7
aVDIRMINA-1084
p8
aVDIRMINA-1083
p9
aVDIRMINA-1082
p10
aVDIRMINA-1081
p11
aVDIRMINA-1080
p12
aVDIRMINA-1079
p13
aVDIRMINA-1078
p14
aVDIRMINA-1077
p15
aVDIRMINA-1076
p16
aVDIRMINA-1075
p17
aVDIRMINA-1074
p18
aVDIRMINA-1073
p19
aVDIRMINA-1072
p20
aVDIRMINA-1071
p21
aVDIRMINA-1069
p22
aVDIRMINA-1068
p23
aVDIRMINA-1067
p24
aVDIRMINA-1066
p25
aVDIRMINA-1065
p26
aVDIRMINA-1064
p27
aVDIRMINA-1063
p28
aVDIRMINA-1062
p29
aVDIRMINA-1061
p30
aVDIRMINA-1060
p31
aVDIRMINA-1059
p32
aVDIRMINA-1058
p33
aVDIRMINA-1057
p34
aVDIRMINA-1056
p35
aVDIRMINA-1055
p36
aVDIRMINA-1054
p37
aVDIRMINA-1053
p38
aVDIRMINA-1052
p39
aVDIRMINA-1051
p40
aVDIRMINA-1050
p41
aVDIRMINA-1049
p42
aVDIRMINA-1048
p43
aVDIRMINA-1047
p44
aVDIRMINA-1046
p45
aVDIRMINA-1045
p46
aVDIRMINA-1044
p47
aVDIRMINA-1043
p48
aVDIRMINA-1042
p49
aVDIRMINA-1041
p50
aVDIRMINA-1040
p51
aVDIRMINA-1039
p52
aVDIRMINA-1038
p53
aVDIRMINA-1037
p54
aVDIRMINA-1036
p55
aVDIRMINA-1035
p56
aVDIRMINA-1034
p57
aVDIRMINA-1033
p58
aVDIRMINA-1032
p59
aVDIRMINA-1031
p60
aVDIRMINA-1030
p61
aVDIRMINA-1029
p62
aVDIRMINA-1028
p63
aVDIRMINA-1027
p64
aVDIRMINA-1026
p65
aVDIRMINA-1025
p66
aVDIRMINA-1024
p67
aVDIRMINA-1023
p68
aVDIRMINA-1022
p69
aVDIRMINA-1021
p70
aVDIRMINA-1020
p71
aVDIRMINA-1019
p72
aVDIRMINA-1018
p73
aVDIRMINA-1017
p74
aVDIRMINA-1016
p75
aVDIRMINA-1015
p76
aVDIRMINA-1014
p77
aVDIRMINA-1013
p78
aVDIRMINA-1012
p79
aVDIRMINA-1011
p80
aVDIRMINA-1010
p81
aVDIRMINA-1009
p82
aVDIRMINA-1008
p83
aVDIRMINA-1006
p84
aVDIRMINA-1005
p85
aVDIRMINA-1004
p86
aVDIRMINA-1003
p87
aVDIRMINA-1002
p88
aVDIRMINA-1001
p89
aVDIRMINA-1000
p90
aVDIRMINA-999
p91
aVDIRMINA-998
p92
aVDIRMINA-997
p93
aVDIRMINA-996
p94
aVDIRMINA-995
p95
aVDIRMINA-994
p96
aVDIRMINA-993
p97
aVDIRMINA-992
p98
aVDIRMINA-991
p99
aVDIRMINA-990
p100
aVDIRMINA-989
p101
aVDIRMINA-988
p102
aVDIRMINA-987
p103
aVDIRMINA-986
p104
aVDIRMINA-985
p105
aVDIRMINA-983
p106
aVDIRMINA-982
p107
aVDIRMINA-981
p108
aVDIRMINA-980
p109
aVDIRMINA-979
p110
aVDIRMINA-978
p111
aVDIRMINA-977
p112
aVDIRMINA-976
p113
aVDIRMINA-975
p114
aVDIRMINA-974
p115
aVDIRMINA-973
p116
aVDIRMINA-972
p117
aVDIRMINA-971
p118
aVDIRMINA-970
p119
aVDIRMINA-969
p120
aVDIRMINA-968
p121
aVDIRMINA-967
p122
aVDIRMINA-966
p123
aVDIRMINA-965
p124
aVDIRMINA-964
p125
aVDIRMINA-963
p126
aVDIRMINA-962
p127
aVDIRMINA-961
p128
aVDIRMINA-960
p129
aVDIRMINA-959
p130
aVDIRMINA-958
p131
aVDIRMINA-957
p132
aVDIRMINA-956
p133
aVDIRMINA-955
p134
aVDIRMINA-954
p135
aVDIRMINA-953
p136
aVDIRMINA-952
p137
aVDIRMINA-951
p138
aVDIRMINA-950
p139
aVDIRMINA-949
p140
aVDIRMINA-948
p141
aVDIRMINA-947
p142
aVDIRMINA-946
p143
aVDIRMINA-945
p144
aVDIRMINA-943
p145
aVDIRMINA-942
p146
aVDIRMINA-941
p147
aVDIRMINA-940
p148
aVDIRMINA-939
p149
aVDIRMINA-938
p150
aVDIRMINA-937
p151
aVDIRMINA-936
p152
aVDIRMINA-935
p153
aVDIRMINA-934
p154
aVDIRMINA-933
p155
aVDIRMINA-932
p156
aVDIRMINA-931
p157
aVDIRMINA-930
p158
aVDIRMINA-929
p159
aVDIRMINA-928
p160
aVDIRMINA-927
p161
aVDIRMINA-926
p162
aVDIRMINA-925
p163
aVDIRMINA-924
p164
aVDIRMINA-923
p165
aVDIRMINA-922
p166
aVDIRMINA-921
p167
aVDIRMINA-920
p168
aVDIRMINA-919
p169
aVDIRMINA-918
p170
aVDIRMINA-917
p171
aVDIRMINA-916
p172
aVDIRMINA-915
p173
aVDIRMINA-914
p174
aVDIRMINA-913
p175
aVDIRMINA-912
p176
aVDIRMINA-911
p177
aVDIRMINA-910
p178
aVDIRMINA-909
p179
aVDIRMINA-908
p180
aVDIRMINA-907
p181
aVDIRMINA-906
p182
aVDIRMINA-905
p183
aVDIRMINA-904
p184
aVDIRMINA-903
p185
aVDIRMINA-902
p186
aVDIRMINA-901
p187
aVDIRMINA-900
p188
aVDIRMINA-899
p189
aVDIRMINA-898
p190
aVDIRMINA-897
p191
aVDIRMINA-896
p192
aVDIRMINA-895
p193
aVDIRMINA-894
p194
aVDIRMINA-893
p195
aVDIRMINA-892
p196
aVDIRMINA-891
p197
aVDIRMINA-890
p198
aVDIRMINA-889
p199
aVDIRMINA-888
p200
aVDIRMINA-887
p201
aVDIRMINA-886
p202
aVDIRMINA-885
p203
aVDIRMINA-884
p204
aVDIRMINA-883
p205
aVDIRMINA-882
p206
aVDIRMINA-881
p207
aVDIRMINA-880
p208
aVDIRMINA-879
p209
aVDIRMINA-878
p210
aVDIRMINA-877
p211
aVDIRMINA-876
p212
aVDIRMINA-875
p213
aVDIRMINA-874
p214
aVDIRMINA-873
p215
aVDIRMINA-872
p216
aVDIRMINA-871
p217
aVDIRMINA-870
p218
aVDIRMINA-869
p219
aVDIRMINA-868
p220
aVDIRMINA-867
p221
aVDIRMINA-866
p222
aVDIRMINA-865
p223
aVDIRMINA-864
p224
aVDIRMINA-863
p225
aVDIRMINA-862
p226
aVDIRMINA-861
p227
aVDIRMINA-860
p228
aVDIRMINA-859
p229
aVDIRMINA-858
p230
aVDIRMINA-857
p231
aVDIRMINA-856
p232
aVDIRMINA-855
p233
aVDIRMINA-854
p234
aVDIRMINA-853
p235
aVDIRMINA-852
p236
aVDIRMINA-851
p237
aVDIRMINA-850
p238
aVDIRMINA-849
p239
aVDIRMINA-848
p240
aVDIRMINA-847
p241
aVDIRMINA-846
p242
aVDIRMINA-845
p243
aVDIRMINA-844
p244
aVDIRMINA-843
p245
aVDIRMINA-842
p246
aVDIRMINA-840
p247
aVDIRMINA-839
p248
aVDIRMINA-838
p249
aVDIRMINA-837
p250
aVDIRMINA-836
p251
aVDIRMINA-835
p252
aVDIRMINA-834
p253
aVDIRMINA-833
p254
aVDIRMINA-832
p255
aVDIRMINA-831
p256
aVDIRMINA-830
p257
aVDIRMINA-829
p258
aVDIRMINA-828
p259
aVDIRMINA-827
p260
aVDIRMINA-826
p261
aVDIRMINA-825
p262
aVDIRMINA-824
p263
aVDIRMINA-823
p264
aVDIRMINA-822
p265
aVDIRMINA-821
p266
aVDIRMINA-820
p267
aVDIRMINA-819
p268
aVDIRMINA-818
p269
aVDIRMINA-817
p270
aVDIRMINA-816
p271
aVDIRMINA-815
p272
aVDIRMINA-814
p273
aVDIRMINA-813
p274
aVDIRMINA-812
p275
aVDIRMINA-811
p276
aVDIRMINA-810
p277
aVDIRMINA-809
p278
aVDIRMINA-808
p279
aVDIRMINA-807
p280
aVDIRMINA-806
p281
aVDIRMINA-805
p282
aVDIRMINA-804
p283
aVDIRMINA-803
p284
aVDIRMINA-802
p285
aVDIRMINA-801
p286
aVDIRMINA-800
p287
aVDIRMINA-799
p288
aVDIRMINA-798
p289
aVDIRMINA-797
p290
aVDIRMINA-796
p291
aVDIRMINA-795
p292
aVDIRMINA-794
p293
aVDIRMINA-793
p294
aVDIRMINA-792
p295
aVDIRMINA-791
p296
aVDIRMINA-790
p297
aVDIRMINA-789
p298
aVDIRMINA-788
p299
aVDIRMINA-787
p300
aVDIRMINA-786
p301
aVDIRMINA-785
p302
aVDIRMINA-784
p303
aVDIRMINA-783
p304
aVDIRMINA-782
p305
aVDIRMINA-781
p306
aVDIRMINA-780
p307
aVDIRMINA-779
p308
aVDIRMINA-778
p309
aVDIRMINA-777
p310
aVDIRMINA-775
p311
aVDIRMINA-774
p312
aVDIRMINA-773
p313
aVDIRMINA-772
p314
aVDIRMINA-771
p315
aVDIRMINA-770
p316
aVDIRMINA-768
p317
aVDIRMINA-767
p318
aVDIRMINA-766
p319
aVDIRMINA-765
p320
aVDIRMINA-764
p321
aVDIRMINA-763
p322
aVDIRMINA-762
p323
aVDIRMINA-761
p324
aVDIRMINA-760
p325
aVDIRMINA-759
p326
aVDIRMINA-758
p327
aVDIRMINA-757
p328
aVDIRMINA-756
p329
aVDIRMINA-755
p330
aVDIRMINA-754
p331
aVDIRMINA-753
p332
aVDIRMINA-752
p333
aVDIRMINA-751
p334
aVDIRMINA-750
p335
aVDIRMINA-749
p336
aVDIRMINA-748
p337
aVDIRMINA-747
p338
aVDIRMINA-746
p339
aVDIRMINA-745
p340
aVDIRMINA-744
p341
aVDIRMINA-742
p342
aVDIRMINA-741
p343
aVDIRMINA-740
p344
aVDIRMINA-739
p345
aVDIRMINA-738
p346
aVDIRMINA-737
p347
aVDIRMINA-736
p348
aVDIRMINA-735
p349
aVDIRMINA-734
p350
aVDIRMINA-733
p351
aVDIRMINA-732
p352
aVDIRMINA-731
p353
aVDIRMINA-730
p354
aVDIRMINA-729
p355
aVDIRMINA-728
p356
aVDIRMINA-727
p357
aVDIRMINA-726
p358
aVDIRMINA-725
p359
aVDIRMINA-724
p360
aVDIRMINA-723
p361
aVDIRMINA-722
p362
aVDIRMINA-721
p363
aVDIRMINA-720
p364
aVDIRMINA-719
p365
aVDIRMINA-718
p366
aVDIRMINA-717
p367
aVDIRMINA-716
p368
aVDIRMINA-715
p369
aVDIRMINA-714
p370
aVDIRMINA-713
p371
aVDIRMINA-712
p372
aVDIRMINA-711
p373
aVDIRMINA-710
p374
aVDIRMINA-709
p375
aVDIRMINA-708
p376
aVDIRMINA-707
p377
aVDIRMINA-706
p378
aVDIRMINA-705
p379
aVDIRMINA-687
p380
aVDIRMINA-686
p381
aVDIRMINA-685
p382
aVDIRMINA-684
p383
aVDIRMINA-683
p384
aVDIRMINA-682
p385
aVDIRMINA-681
p386
aVDIRMINA-680
p387
aVDIRMINA-679
p388
aVDIRMINA-678
p389
aVDIRMINA-677
p390
aVDIRMINA-676
p391
aVDIRMINA-675
p392
aVDIRMINA-674
p393
aVDIRMINA-673
p394
aVDIRMINA-672
p395
aVDIRMINA-671
p396
aVDIRMINA-670
p397
aVDIRMINA-669
p398
aVDIRMINA-668
p399
aVDIRMINA-667
p400
aVDIRMINA-665
p401
aVDIRMINA-664
p402
aVDIRMINA-663
p403
aVDIRMINA-662
p404
aVDIRMINA-661
p405
aVDIRMINA-660
p406
aVDIRMINA-659
p407
aVDIRMINA-658
p408
aVDIRMINA-657
p409
aVDIRMINA-656
p410
aVDIRMINA-655
p411
aVDIRMINA-654
p412
aVDIRMINA-653
p413
aVDIRMINA-652
p414
aVDIRMINA-651
p415
aVDIRMINA-650
p416
aVDIRMINA-649
p417
aVDIRMINA-648
p418
aVDIRMINA-647
p419
aVDIRMINA-646
p420
aVDIRMINA-645
p421
aVDIRMINA-644
p422
aVDIRMINA-643
p423
aVDIRMINA-642
p424
aVDIRMINA-641
p425
aVDIRMINA-640
p426
aVDIRMINA-639
p427
aVDIRMINA-638
p428
aVDIRMINA-637
p429
aVDIRMINA-636
p430
aVDIRMINA-635
p431
aVDIRMINA-634
p432
aVDIRMINA-633
p433
aVDIRMINA-632
p434
aVDIRMINA-631
p435
aVDIRMINA-630
p436
aVDIRMINA-629
p437
aVDIRMINA-628
p438
aVDIRMINA-627
p439
aVDIRMINA-626
p440
aVDIRMINA-625
p441
aVDIRMINA-624
p442
aVDIRMINA-623
p443
aVDIRMINA-622
p444
aVDIRMINA-621
p445
aVDIRMINA-620
p446
aVDIRMINA-619
p447
aVDIRMINA-618
p448
aVDIRMINA-617
p449
aVDIRMINA-616
p450
aVDIRMINA-615
p451
aVDIRMINA-614
p452
aVDIRMINA-613
p453
aVDIRMINA-612
p454
aVDIRMINA-611
p455
aVDIRMINA-610
p456
aVDIRMINA-609
p457
aVDIRMINA-608
p458
aVDIRMINA-607
p459
aVDIRMINA-606
p460
aVDIRMINA-605
p461
aVDIRMINA-604
p462
aVDIRMINA-603
p463
aVDIRMINA-602
p464
aVDIRMINA-601
p465
aVDIRMINA-600
p466
aVDIRMINA-599
p467
aVDIRMINA-598
p468
aVDIRMINA-597
p469
aVDIRMINA-596
p470
aVDIRMINA-595
p471
aVDIRMINA-594
p472
aVDIRMINA-593
p473
aVDIRMINA-591
p474
aVDIRMINA-590
p475
aVDIRMINA-589
p476
aVDIRMINA-588
p477
aVDIRMINA-587
p478
aVDIRMINA-586
p479
aVDIRMINA-585
p480
aVDIRMINA-584
p481
aVDIRMINA-583
p482
aVDIRMINA-582
p483
aVDIRMINA-581
p484
aVDIRMINA-580
p485
aVDIRMINA-579
p486
aVDIRMINA-578
p487
aVDIRMINA-577
p488
aVDIRMINA-576
p489
aVDIRMINA-575
p490
aVDIRMINA-574
p491
aVDIRMINA-573
p492
aVDIRMINA-572
p493
aVDIRMINA-571
p494
aVDIRMINA-570
p495
aVDIRMINA-569
p496
aVDIRMINA-568
p497
aVDIRMINA-567
p498
aVDIRMINA-566
p499
aVDIRMINA-565
p500
aVDIRMINA-564
p501
aVDIRMINA-563
p502
aVDIRMINA-562
p503
aVDIRMINA-561
p504
aVDIRMINA-560
p505
aVDIRMINA-559
p506
aVDIRMINA-558
p507
aVDIRMINA-557
p508
aVDIRMINA-556
p509
aVDIRMINA-555
p510
aVDIRMINA-554
p511
aVDIRMINA-553
p512
aVDIRMINA-552
p513
aVDIRMINA-551
p514
aVDIRMINA-550
p515
aVDIRMINA-549
p516
aVDIRMINA-548
p517
aVDIRMINA-547
p518
aVDIRMINA-546
p519
aVDIRMINA-545
p520
aVDIRMINA-544
p521
aVDIRMINA-543
p522
aVDIRMINA-542
p523
aVDIRMINA-541
p524
aVDIRMINA-540
p525
aVDIRMINA-539
p526
aVDIRMINA-538
p527
aVDIRMINA-537
p528
aVDIRMINA-536
p529
aVDIRMINA-535
p530
aVDIRMINA-534
p531
aVDIRMINA-533
p532
aVDIRMINA-532
p533
aVDIRMINA-531
p534
aVDIRMINA-530
p535
aVDIRMINA-529
p536
aVDIRMINA-528
p537
aVDIRMINA-527
p538
aVDIRMINA-526
p539
aVDIRMINA-525
p540
aVDIRMINA-524
p541
aVDIRMINA-523
p542
aVDIRMINA-522
p543
aVDIRMINA-521
p544
aVDIRMINA-520
p545
aVDIRMINA-519
p546
aVDIRMINA-518
p547
aVDIRMINA-517
p548
aVDIRMINA-516
p549
aVDIRMINA-515
p550
aVDIRMINA-514
p551
aVDIRMINA-513
p552
aVDIRMINA-512
p553
aVDIRMINA-511
p554
aVDIRMINA-510
p555
aVDIRMINA-509
p556
aVDIRMINA-508
p557
aVDIRMINA-507
p558
aVDIRMINA-506
p559
aVDIRMINA-504
p560
aVDIRMINA-503
p561
aVDIRMINA-502
p562
aVDIRMINA-501
p563
aVDIRMINA-500
p564
aVDIRMINA-499
p565
aVDIRMINA-498
p566
aVDIRMINA-497
p567
aVDIRMINA-495
p568
aVDIRMINA-494
p569
aVDIRMINA-493
p570
aVDIRMINA-492
p571
aVDIRMINA-491
p572
aVDIRMINA-490
p573
aVDIRMINA-489
p574
aVDIRMINA-488
p575
aVDIRMINA-487
p576
aVDIRMINA-486
p577
aVDIRMINA-485
p578
aVDIRMINA-484
p579
aVDIRMINA-483
p580
aVDIRMINA-482
p581
aVDIRMINA-481
p582
aVDIRMINA-479
p583
aVDIRMINA-478
p584
aVDIRMINA-477
p585
aVDIRMINA-476
p586
aVDIRMINA-475
p587
aVDIRMINA-474
p588
aVDIRMINA-473
p589
aVDIRMINA-472
p590
aVDIRMINA-471
p591
aVDIRMINA-470
p592
aVDIRMINA-469
p593
aVDIRMINA-468
p594
aVDIRMINA-467
p595
aVDIRMINA-466
p596
aVDIRMINA-465
p597
aVDIRMINA-464
p598
aVDIRMINA-463
p599
aVDIRMINA-462
p600
aVDIRMINA-461
p601
aVDIRMINA-460
p602
aVDIRMINA-459
p603
aVDIRMINA-458
p604
aVDIRMINA-457
p605
aVDIRMINA-456
p606
aVDIRMINA-455
p607
aVDIRMINA-454
p608
aVDIRMINA-453
p609
aVDIRMINA-452
p610
aVDIRMINA-451
p611
aVDIRMINA-450
p612
aVDIRMINA-449
p613
aVDIRMINA-448
p614
aVDIRMINA-447
p615
aVDIRMINA-446
p616
aVDIRMINA-445
p617
aVDIRMINA-444
p618
aVDIRMINA-443
p619
aVDIRMINA-442
p620
aVDIRMINA-441
p621
aVDIRMINA-440
p622
aVDIRMINA-439
p623
aVDIRMINA-438
p624
aVDIRMINA-437
p625
aVDIRMINA-436
p626
aVDIRMINA-435
p627
aVDIRMINA-434
p628
aVDIRMINA-433
p629
aVDIRMINA-432
p630
aVDIRMINA-431
p631
aVDIRMINA-430
p632
aVDIRMINA-429
p633
aVDIRMINA-428
p634
aVDIRMINA-427
p635
aVDIRMINA-426
p636
aVDIRMINA-425
p637
aVDIRMINA-424
p638
aVDIRMINA-423
p639
aVDIRMINA-422
p640
aVDIRMINA-421
p641
aVDIRMINA-420
p642
aVDIRMINA-419
p643
aVDIRMINA-418
p644
aVDIRMINA-417
p645
aVDIRMINA-416
p646
aVDIRMINA-415
p647
aVDIRMINA-414
p648
aVDIRMINA-413
p649
aVDIRMINA-412
p650
aVDIRMINA-411
p651
aVDIRMINA-410
p652
aVDIRMINA-409
p653
aVDIRMINA-408
p654
aVDIRMINA-407
p655
aVDIRMINA-406
p656
aVDIRMINA-405
p657
aVDIRMINA-404
p658
aVDIRMINA-403
p659
aVDIRMINA-402
p660
aVDIRMINA-401
p661
aVDIRMINA-400
p662
aVDIRMINA-399
p663
aVDIRMINA-398
p664
aVDIRMINA-397
p665
aVDIRMINA-396
p666
aVDIRMINA-395
p667
aVDIRMINA-394
p668
aVDIRMINA-393
p669
aVDIRMINA-392
p670
aVDIRMINA-391
p671
aVDIRMINA-390
p672
aVDIRMINA-389
p673
aVDIRMINA-388
p674
aVDIRMINA-387
p675
aVDIRMINA-386
p676
aVDIRMINA-385
p677
aVDIRMINA-384
p678
aVDIRMINA-383
p679
aVDIRMINA-382
p680
aVDIRMINA-381
p681
aVDIRMINA-380
p682
aVDIRMINA-379
p683
aVDIRMINA-378
p684
aVDIRMINA-377
p685
aVDIRMINA-376
p686
aVDIRMINA-375
p687
aVDIRMINA-374
p688
aVDIRMINA-373
p689
aVDIRMINA-372
p690
aVDIRMINA-371
p691
aVDIRMINA-370
p692
aVDIRMINA-369
p693
aVDIRMINA-368
p694
aVDIRMINA-367
p695
aVDIRMINA-366
p696
aVDIRMINA-365
p697
aVDIRMINA-364
p698
aVDIRMINA-363
p699
aVDIRMINA-362
p700
aVDIRMINA-361
p701
aVDIRMINA-360
p702
aVDIRMINA-359
p703
aVDIRMINA-358
p704
aVDIRMINA-357
p705
aVDIRMINA-356
p706
aVDIRMINA-355
p707
aVDIRMINA-354
p708
aVDIRMINA-353
p709
aVDIRMINA-352
p710
aVDIRMINA-351
p711
aVDIRMINA-350
p712
aVDIRMINA-349
p713
aVDIRMINA-348
p714
aVDIRMINA-347
p715
aVDIRMINA-346
p716
aVDIRMINA-345
p717
aVDIRMINA-344
p718
aVDIRMINA-343
p719
aVDIRMINA-342
p720
aVDIRMINA-341
p721
aVDIRMINA-340
p722
aVDIRMINA-339
p723
aVDIRMINA-338
p724
aVDIRMINA-337
p725
aVDIRMINA-336
p726
aVDIRMINA-335
p727
aVDIRMINA-334
p728
aVDIRMINA-333
p729
aVDIRMINA-332
p730
aVDIRMINA-331
p731
aVDIRMINA-330
p732
aVDIRMINA-329
p733
aVDIRMINA-328
p734
aVDIRMINA-327
p735
aVDIRMINA-326
p736
aVDIRMINA-325
p737
aVDIRMINA-324
p738
aVDIRMINA-323
p739
aVDIRMINA-322
p740
aVDIRMINA-321
p741
aVDIRMINA-320
p742
aVDIRMINA-319
p743
aVDIRMINA-318
p744
aVDIRMINA-317
p745
aVDIRMINA-316
p746
aVDIRMINA-315
p747
aVDIRMINA-314
p748
aVDIRMINA-313
p749
aVDIRMINA-312
p750
aVDIRMINA-311
p751
aVDIRMINA-310
p752
aVDIRMINA-309
p753
aVDIRMINA-308
p754
aVDIRMINA-307
p755
aVDIRMINA-306
p756
aVDIRMINA-305
p757
aVDIRMINA-304
p758
aVDIRMINA-303
p759
aVDIRMINA-302
p760
aVDIRMINA-301
p761
aVDIRMINA-300
p762
aVDIRMINA-299
p763
aVDIRMINA-298
p764
aVDIRMINA-297
p765
aVDIRMINA-296
p766
aVDIRMINA-295
p767
aVDIRMINA-294
p768
aVDIRMINA-293
p769
aVDIRMINA-292
p770
aVDIRMINA-291
p771
aVDIRMINA-290
p772
aVDIRMINA-289
p773
aVDIRMINA-288
p774
aVDIRMINA-287
p775
aVDIRMINA-286
p776
aVDIRMINA-285
p777
aVDIRMINA-284
p778
aVDIRMINA-283
p779
aVDIRMINA-282
p780
aVDIRMINA-281
p781
aVDIRMINA-280
p782
aVDIRMINA-279
p783
aVDIRMINA-278
p784
aVDIRMINA-277
p785
aVDIRMINA-276
p786
aVDIRMINA-275
p787
aVDIRMINA-274
p788
aVDIRMINA-273
p789
aVDIRMINA-272
p790
aVDIRMINA-271
p791
aVDIRMINA-270
p792
aVDIRMINA-269
p793
aVDIRMINA-268
p794
aVDIRMINA-267
p795
aVDIRMINA-266
p796
aVDIRMINA-265
p797
aVDIRMINA-264
p798
aVDIRMINA-263
p799
aVDIRMINA-262
p800
aVDIRMINA-261
p801
aVDIRMINA-260
p802
aVDIRMINA-259
p803
aVDIRMINA-258
p804
aVDIRMINA-257
p805
aVDIRMINA-256
p806
aVDIRMINA-255
p807
aVDIRMINA-254
p808
aVDIRMINA-253
p809
aVDIRMINA-252
p810
aVDIRMINA-251
p811
aVDIRMINA-250
p812
aVDIRMINA-249
p813
aVDIRMINA-248
p814
aVDIRMINA-247
p815
aVDIRMINA-246
p816
aVDIRMINA-245
p817
aVDIRMINA-244
p818
aVDIRMINA-243
p819
aVDIRMINA-242
p820
aVDIRMINA-241
p821
aVDIRMINA-240
p822
aVDIRMINA-239
p823
aVDIRMINA-238
p824
aVDIRMINA-237
p825
aVDIRMINA-236
p826
aVDIRMINA-235
p827
aVDIRMINA-234
p828
aVDIRMINA-233
p829
aVDIRMINA-232
p830
aVDIRMINA-231
p831
aVDIRMINA-230
p832
aVDIRMINA-229
p833
aVDIRMINA-228
p834
aVDIRMINA-227
p835
aVDIRMINA-226
p836
aVDIRMINA-225
p837
aVDIRMINA-224
p838
aVDIRMINA-223
p839
aVDIRMINA-222
p840
aVDIRMINA-221
p841
aVDIRMINA-220
p842
aVDIRMINA-219
p843
aVDIRMINA-218
p844
aVDIRMINA-217
p845
aVDIRMINA-216
p846
aVDIRMINA-215
p847
aVDIRMINA-214
p848
aVDIRMINA-213
p849
aVDIRMINA-212
p850
aVDIRMINA-211
p851
aVDIRMINA-210
p852
aVDIRMINA-209
p853
aVDIRMINA-208
p854
aVDIRMINA-207
p855
aVDIRMINA-206
p856
aVDIRMINA-205
p857
aVDIRMINA-204
p858
aVDIRMINA-203
p859
aVDIRMINA-202
p860
aVDIRMINA-201
p861
aVDIRMINA-200
p862
aVDIRMINA-199
p863
aVDIRMINA-198
p864
aVDIRMINA-197
p865
aVDIRMINA-196
p866
aVDIRMINA-195
p867
aVDIRMINA-194
p868
aVDIRMINA-193
p869
aVDIRMINA-192
p870
aVDIRMINA-191
p871
aVDIRMINA-190
p872
aVDIRMINA-189
p873
aVDIRMINA-188
p874
aVDIRMINA-187
p875
aVDIRMINA-186
p876
aVDIRMINA-185
p877
aVDIRMINA-184
p878
aVDIRMINA-183
p879
aVDIRMINA-181
p880
aVDIRMINA-180
p881
aVDIRMINA-179
p882
aVDIRMINA-178
p883
aVDIRMINA-177
p884
aVDIRMINA-176
p885
aVDIRMINA-175
p886
aVDIRMINA-174
p887
aVDIRMINA-172
p888
aVDIRMINA-171
p889
aVDIRMINA-170
p890
aVDIRMINA-169
p891
aVDIRMINA-168
p892
aVDIRMINA-167
p893
aVDIRMINA-166
p894
aVDIRMINA-165
p895
aVDIRMINA-164
p896
aVDIRMINA-163
p897
aVDIRMINA-162
p898
aVDIRMINA-161
p899
aVDIRMINA-160
p900
aVDIRMINA-159
p901
aVDIRMINA-158
p902
aVDIRMINA-157
p903
aVDIRMINA-156
p904
aVDIRMINA-155
p905
aVDIRMINA-154
p906
aVDIRMINA-153
p907
aVDIRMINA-152
p908
aVDIRMINA-151
p909
aVDIRMINA-150
p910
aVDIRMINA-149
p911
aVDIRMINA-146
p912
aVDIRMINA-145
p913
aVDIRMINA-144
p914
aVDIRMINA-143
p915
aVDIRMINA-142
p916
aVDIRMINA-141
p917
aVDIRMINA-140
p918
aVDIRMINA-139
p919
aVDIRMINA-138
p920
aVDIRMINA-137
p921
aVDIRMINA-136
p922
aVDIRMINA-135
p923
aVDIRMINA-134
p924
aVDIRMINA-133
p925
aVDIRMINA-132
p926
aVDIRMINA-131
p927
aVDIRMINA-130
p928
aVDIRMINA-129
p929
aVDIRMINA-128
p930
aVDIRMINA-127
p931
aVDIRMINA-126
p932
aVDIRMINA-125
p933
aVDIRMINA-124
p934
aVDIRMINA-123
p935
aVDIRMINA-122
p936
aVDIRMINA-121
p937
aVDIRMINA-120
p938
aVDIRMINA-119
p939
aVDIRMINA-118
p940
aVDIRMINA-117
p941
aVDIRMINA-116
p942
aVDIRMINA-115
p943
aVDIRMINA-114
p944
aVDIRMINA-113
p945
aVDIRMINA-112
p946
aVDIRMINA-111
p947
aVDIRMINA-110
p948
aVDIRMINA-109
p949
aVDIRMINA-108
p950
aVDIRMINA-107
p951
aVDIRMINA-106
p952
aVDIRMINA-105
p953
aVDIRMINA-104
p954
aVDIRMINA-103
p955
aVDIRMINA-102
p956
aVDIRMINA-101
p957
aVDIRMINA-100
p958
aVDIRMINA-99
p959
aVDIRMINA-98
p960
aVDIRMINA-97
p961
aVDIRMINA-96
p962
aVDIRMINA-95
p963
aVDIRMINA-94
p964
aVDIRMINA-93
p965
aVDIRMINA-92
p966
aVDIRMINA-91
p967
aVDIRMINA-90
p968
aVDIRMINA-89
p969
aVDIRMINA-88
p970
aVDIRMINA-87
p971
aVDIRMINA-86
p972
aVDIRMINA-85
p973
aVDIRMINA-84
p974
aVDIRMINA-83
p975
aVDIRMINA-82
p976
aVDIRMINA-81
p977
aVDIRMINA-80
p978
aVDIRMINA-79
p979
aVDIRMINA-78
p980
aVDIRMINA-77
p981
aVDIRMINA-76
p982
aVDIRMINA-75
p983
aVDIRMINA-74
p984
aVDIRMINA-73
p985
aVDIRMINA-72
p986
aVDIRMINA-71
p987
aVDIRMINA-70
p988
aVDIRMINA-69
p989
aVDIRMINA-68
p990
aVDIRMINA-67
p991
aVDIRMINA-66
p992
aVDIRMINA-65
p993
aVDIRMINA-64
p994
aVDIRMINA-63
p995
aVDIRMINA-62
p996
aVDIRMINA-61
p997
aVDIRMINA-60
p998
aVDIRMINA-59
p999
aVDIRMINA-58
p1000
aVDIRMINA-57
p1001
aVDIRMINA-56
p1002
aVDIRMINA-55
p1003
aVDIRMINA-54
p1004
aVDIRMINA-53
p1005
aVDIRMINA-52
p1006
aVDIRMINA-51
p1007
aVDIRMINA-50
p1008
aVDIRMINA-49
p1009
aVDIRMINA-48
p1010
aVDIRMINA-47
p1011
aVDIRMINA-46
p1012
aVDIRMINA-45
p1013
aVDIRMINA-44
p1014
aVDIRMINA-43
p1015
aVDIRMINA-42
p1016
aVDIRMINA-41
p1017
aVDIRMINA-40
p1018
aVDIRMINA-39
p1019
aVDIRMINA-38
p1020
aVDIRMINA-37
p1021
aVDIRMINA-36
p1022
aVDIRMINA-35
p1023
aVDIRMINA-34
p1024
aVDIRMINA-33
p1025
aVDIRMINA-32
p1026
aVDIRMINA-31
p1027
aVDIRMINA-30
p1028
aVDIRMINA-29
p1029
aVDIRMINA-28
p1030
aVDIRMINA-27
p1031
aVDIRMINA-26
p1032
aVDIRMINA-25
p1033
aVDIRMINA-24
p1034
aVDIRMINA-23
p1035
aVDIRMINA-22
p1036
aVDIRMINA-21
p1037
aVDIRMINA-20
p1038
aVDIRMINA-19
p1039
aVDIRMINA-18
p1040
aVDIRMINA-17
p1041
aVDIRMINA-16
p1042
aVDIRMINA-15
p1043
aVDIRMINA-14
p1044
aVDIRMINA-13
p1045
aVDIRMINA-12
p1046
aVDIRMINA-11
p1047
aVDIRMINA-10
p1048
aVDIRMINA-9
p1049
aVDIRMINA-8
p1050
aVDIRMINA-7
p1051
aVDIRMINA-6
p1052
aVDIRMINA-5
p1053
aVDIRMINA-4
p1054
aVDIRMINA-3
p1055
aVDIRMINA-2
p1056
aVDIRMINA-1
p1057
a.