(lp0
VDIRSTUDIO-1190
p1
aVDIRSTUDIO-1189
p2
aVDIRSTUDIO-1188
p3
aVDIRSTUDIO-1187
p4
aVDIRSTUDIO-1186
p5
aVDIRSTUDIO-1185
p6
aVDIRSTUDIO-1184
p7
aVDIRSTUDIO-1183
p8
aVDIRSTUDIO-1182
p9
aVDIRSTUDIO-1181
p10
aVDIRSTUDIO-1180
p11
aVDIRSTUDIO-1179
p12
aVDIRSTUDIO-1178
p13
aVDIRSTUDIO-1177
p14
aVDIRSTUDIO-1176
p15
aVDIRSTUDIO-1175
p16
aVDIRSTUDIO-1174
p17
aVDIRSTUDIO-1173
p18
aVDIRSTUDIO-1172
p19
aVDIRSTUDIO-1171
p20
aVDIRSTUDIO-1170
p21
aVDIRSTUDIO-1169
p22
aVDIRSTUDIO-1168
p23
aVDIRSTUDIO-1167
p24
aVDIRSTUDIO-1166
p25
aVDIRSTUDIO-1165
p26
aVDIRSTUDIO-1164
p27
aVDIRSTUDIO-1163
p28
aVDIRSTUDIO-1162
p29
aVDIRSTUDIO-1160
p30
aVDIRSTUDIO-1159
p31
aVDIRSTUDIO-1158
p32
aVDIRSTUDIO-1157
p33
aVDIRSTUDIO-1156
p34
aVDIRSTUDIO-1155
p35
aVDIRSTUDIO-1154
p36
aVDIRSTUDIO-1153
p37
aVDIRSTUDIO-1152
p38
aVDIRSTUDIO-1151
p39
aVDIRSTUDIO-1150
p40
aVDIRSTUDIO-1149
p41
aVDIRSTUDIO-1148
p42
aVDIRSTUDIO-1147
p43
aVDIRSTUDIO-1146
p44
aVDIRSTUDIO-1145
p45
aVDIRSTUDIO-1144
p46
aVDIRSTUDIO-1143
p47
aVDIRSTUDIO-1142
p48
aVDIRSTUDIO-1141
p49
aVDIRSTUDIO-1140
p50
aVDIRSTUDIO-1139
p51
aVDIRSTUDIO-1138
p52
aVDIRSTUDIO-1137
p53
aVDIRSTUDIO-1136
p54
aVDIRSTUDIO-1135
p55
aVDIRSTUDIO-1134
p56
aVDIRSTUDIO-1133
p57
aVDIRSTUDIO-1132
p58
aVDIRSTUDIO-1131
p59
aVDIRSTUDIO-1130
p60
aVDIRSTUDIO-1129
p61
aVDIRSTUDIO-1128
p62
aVDIRSTUDIO-1127
p63
aVDIRSTUDIO-1126
p64
aVDIRSTUDIO-1125
p65
aVDIRSTUDIO-1124
p66
aVDIRSTUDIO-1123
p67
aVDIRSTUDIO-1122
p68
aVDIRSTUDIO-1121
p69
aVDIRSTUDIO-1120
p70
aVDIRSTUDIO-1119
p71
aVDIRSTUDIO-1118
p72
aVDIRSTUDIO-1117
p73
aVDIRSTUDIO-1116
p74
aVDIRSTUDIO-1115
p75
aVDIRSTUDIO-1114
p76
aVDIRSTUDIO-1113
p77
aVDIRSTUDIO-1112
p78
aVDIRSTUDIO-1111
p79
aVDIRSTUDIO-1110
p80
aVDIRSTUDIO-1109
p81
aVDIRSTUDIO-1108
p82
aVDIRSTUDIO-1107
p83
aVDIRSTUDIO-1106
p84
aVDIRSTUDIO-1105
p85
aVDIRSTUDIO-1104
p86
aVDIRSTUDIO-1103
p87
aVDIRSTUDIO-1102
p88
aVDIRSTUDIO-1101
p89
aVDIRSTUDIO-1100
p90
aVDIRSTUDIO-1099
p91
aVDIRSTUDIO-1098
p92
aVDIRSTUDIO-1097
p93
aVDIRSTUDIO-1096
p94
aVDIRSTUDIO-1095
p95
aVDIRSTUDIO-1094
p96
aVDIRSTUDIO-1093
p97
aVDIRSTUDIO-1092
p98
aVDIRSTUDIO-1091
p99
aVDIRSTUDIO-1090
p100
aVDIRSTUDIO-1089
p101
aVDIRSTUDIO-1088
p102
aVDIRSTUDIO-1087
p103
aVDIRSTUDIO-1086
p104
aVDIRSTUDIO-1085
p105
aVDIRSTUDIO-1084
p106
aVDIRSTUDIO-1083
p107
aVDIRSTUDIO-1082
p108
aVDIRSTUDIO-1081
p109
aVDIRSTUDIO-1080
p110
aVDIRSTUDIO-1079
p111
aVDIRSTUDIO-1078
p112
aVDIRSTUDIO-1077
p113
aVDIRSTUDIO-1076
p114
aVDIRSTUDIO-1075
p115
aVDIRSTUDIO-1074
p116
aVDIRSTUDIO-1073
p117
aVDIRSTUDIO-1072
p118
aVDIRSTUDIO-1071
p119
aVDIRSTUDIO-1070
p120
aVDIRSTUDIO-1069
p121
aVDIRSTUDIO-1068
p122
aVDIRSTUDIO-1067
p123
aVDIRSTUDIO-1066
p124
aVDIRSTUDIO-1065
p125
aVDIRSTUDIO-1064
p126
aVDIRSTUDIO-1063
p127
aVDIRSTUDIO-1062
p128
aVDIRSTUDIO-1061
p129
aVDIRSTUDIO-1060
p130
aVDIRSTUDIO-1059
p131
aVDIRSTUDIO-1058
p132
aVDIRSTUDIO-1057
p133
aVDIRSTUDIO-1056
p134
aVDIRSTUDIO-1055
p135
aVDIRSTUDIO-1054
p136
aVDIRSTUDIO-1053
p137
aVDIRSTUDIO-1052
p138
aVDIRSTUDIO-1051
p139
aVDIRSTUDIO-1050
p140
aVDIRSTUDIO-1049
p141
aVDIRSTUDIO-1048
p142
aVDIRSTUDIO-1047
p143
aVDIRSTUDIO-1046
p144
aVDIRSTUDIO-1045
p145
aVDIRSTUDIO-1044
p146
aVDIRSTUDIO-1043
p147
aVDIRSTUDIO-1042
p148
aVDIRSTUDIO-1041
p149
aVDIRSTUDIO-1040
p150
aVDIRSTUDIO-1039
p151
aVDIRSTUDIO-1038
p152
aVDIRSTUDIO-1037
p153
aVDIRSTUDIO-1036
p154
aVDIRSTUDIO-1035
p155
aVDIRSTUDIO-1034
p156
aVDIRSTUDIO-1033
p157
aVDIRSTUDIO-1032
p158
aVDIRSTUDIO-1031
p159
aVDIRSTUDIO-1030
p160
aVDIRSTUDIO-1029
p161
aVDIRSTUDIO-1028
p162
aVDIRSTUDIO-1027
p163
aVDIRSTUDIO-1026
p164
aVDIRSTUDIO-1025
p165
aVDIRSTUDIO-1024
p166
aVDIRSTUDIO-1023
p167
aVDIRSTUDIO-1022
p168
aVDIRSTUDIO-1021
p169
aVDIRSTUDIO-1020
p170
aVDIRSTUDIO-1019
p171
aVDIRSTUDIO-1018
p172
aVDIRSTUDIO-1017
p173
aVDIRSTUDIO-1016
p174
aVDIRSTUDIO-1015
p175
aVDIRSTUDIO-1014
p176
aVDIRSTUDIO-1013
p177
aVDIRSTUDIO-1012
p178
aVDIRSTUDIO-1011
p179
aVDIRSTUDIO-1010
p180
aVDIRSTUDIO-1009
p181
aVDIRSTUDIO-1008
p182
aVDIRSTUDIO-1007
p183
aVDIRSTUDIO-1006
p184
aVDIRSTUDIO-1005
p185
aVDIRSTUDIO-1004
p186
aVDIRSTUDIO-1003
p187
aVDIRSTUDIO-1002
p188
aVDIRSTUDIO-1001
p189
aVDIRSTUDIO-1000
p190
aVDIRSTUDIO-999
p191
aVDIRSTUDIO-998
p192
aVDIRSTUDIO-997
p193
aVDIRSTUDIO-996
p194
aVDIRSTUDIO-995
p195
aVDIRSTUDIO-994
p196
aVDIRSTUDIO-993
p197
aVDIRSTUDIO-992
p198
aVDIRSTUDIO-991
p199
aVDIRSTUDIO-990
p200
aVDIRSTUDIO-989
p201
aVDIRSTUDIO-988
p202
aVDIRSTUDIO-987
p203
aVDIRSTUDIO-986
p204
aVDIRSTUDIO-985
p205
aVDIRSTUDIO-984
p206
aVDIRSTUDIO-983
p207
aVDIRSTUDIO-982
p208
aVDIRSTUDIO-981
p209
aVDIRSTUDIO-980
p210
aVDIRSTUDIO-979
p211
aVDIRSTUDIO-978
p212
aVDIRSTUDIO-977
p213
aVDIRSTUDIO-976
p214
aVDIRSTUDIO-975
p215
aVDIRSTUDIO-974
p216
aVDIRSTUDIO-972
p217
aVDIRSTUDIO-971
p218
aVDIRSTUDIO-970
p219
aVDIRSTUDIO-969
p220
aVDIRSTUDIO-968
p221
aVDIRSTUDIO-967
p222
aVDIRSTUDIO-966
p223
aVDIRSTUDIO-965
p224
aVDIRSTUDIO-964
p225
aVDIRSTUDIO-963
p226
aVDIRSTUDIO-962
p227
aVDIRSTUDIO-961
p228
aVDIRSTUDIO-960
p229
aVDIRSTUDIO-959
p230
aVDIRSTUDIO-958
p231
aVDIRSTUDIO-957
p232
aVDIRSTUDIO-956
p233
aVDIRSTUDIO-955
p234
aVDIRSTUDIO-954
p235
aVDIRSTUDIO-953
p236
aVDIRSTUDIO-952
p237
aVDIRSTUDIO-951
p238
aVDIRSTUDIO-950
p239
aVDIRSTUDIO-949
p240
aVDIRSTUDIO-948
p241
aVDIRSTUDIO-947
p242
aVDIRSTUDIO-946
p243
aVDIRSTUDIO-945
p244
aVDIRSTUDIO-944
p245
aVDIRSTUDIO-943
p246
aVDIRSTUDIO-942
p247
aVDIRSTUDIO-941
p248
aVDIRSTUDIO-940
p249
aVDIRSTUDIO-939
p250
aVDIRSTUDIO-938
p251
aVDIRSTUDIO-937
p252
aVDIRSTUDIO-936
p253
aVDIRSTUDIO-935
p254
aVDIRSTUDIO-934
p255
aVDIRSTUDIO-933
p256
aVDIRSTUDIO-932
p257
aVDIRSTUDIO-931
p258
aVDIRSTUDIO-930
p259
aVDIRSTUDIO-929
p260
aVDIRSTUDIO-928
p261
aVDIRSTUDIO-927
p262
aVDIRSTUDIO-926
p263
aVDIRSTUDIO-925
p264
aVDIRSTUDIO-924
p265
aVDIRSTUDIO-923
p266
aVDIRSTUDIO-922
p267
aVDIRSTUDIO-921
p268
aVDIRSTUDIO-920
p269
aVDIRSTUDIO-919
p270
aVDIRSTUDIO-918
p271
aVDIRSTUDIO-917
p272
aVDIRSTUDIO-916
p273
aVDIRSTUDIO-915
p274
aVDIRSTUDIO-914
p275
aVDIRSTUDIO-913
p276
aVDIRSTUDIO-912
p277
aVDIRSTUDIO-911
p278
aVDIRSTUDIO-910
p279
aVDIRSTUDIO-909
p280
aVDIRSTUDIO-907
p281
aVDIRSTUDIO-906
p282
aVDIRSTUDIO-905
p283
aVDIRSTUDIO-904
p284
aVDIRSTUDIO-903
p285
aVDIRSTUDIO-902
p286
aVDIRSTUDIO-901
p287
aVDIRSTUDIO-900
p288
aVDIRSTUDIO-899
p289
aVDIRSTUDIO-898
p290
aVDIRSTUDIO-897
p291
aVDIRSTUDIO-896
p292
aVDIRSTUDIO-895
p293
aVDIRSTUDIO-894
p294
aVDIRSTUDIO-893
p295
aVDIRSTUDIO-892
p296
aVDIRSTUDIO-891
p297
aVDIRSTUDIO-890
p298
aVDIRSTUDIO-889
p299
aVDIRSTUDIO-888
p300
aVDIRSTUDIO-887
p301
aVDIRSTUDIO-886
p302
aVDIRSTUDIO-885
p303
aVDIRSTUDIO-884
p304
aVDIRSTUDIO-883
p305
aVDIRSTUDIO-882
p306
aVDIRSTUDIO-881
p307
aVDIRSTUDIO-880
p308
aVDIRSTUDIO-879
p309
aVDIRSTUDIO-878
p310
aVDIRSTUDIO-877
p311
aVDIRSTUDIO-876
p312
aVDIRSTUDIO-875
p313
aVDIRSTUDIO-874
p314
aVDIRSTUDIO-873
p315
aVDIRSTUDIO-872
p316
aVDIRSTUDIO-871
p317
aVDIRSTUDIO-870
p318
aVDIRSTUDIO-869
p319
aVDIRSTUDIO-868
p320
aVDIRSTUDIO-867
p321
aVDIRSTUDIO-866
p322
aVDIRSTUDIO-865
p323
aVDIRSTUDIO-864
p324
aVDIRSTUDIO-863
p325
aVDIRSTUDIO-862
p326
aVDIRSTUDIO-861
p327
aVDIRSTUDIO-860
p328
aVDIRSTUDIO-859
p329
aVDIRSTUDIO-858
p330
aVDIRSTUDIO-857
p331
aVDIRSTUDIO-855
p332
aVDIRSTUDIO-854
p333
aVDIRSTUDIO-853
p334
aVDIRSTUDIO-852
p335
aVDIRSTUDIO-851
p336
aVDIRSTUDIO-850
p337
aVDIRSTUDIO-849
p338
aVDIRSTUDIO-848
p339
aVDIRSTUDIO-847
p340
aVDIRSTUDIO-846
p341
aVDIRSTUDIO-845
p342
aVDIRSTUDIO-844
p343
aVDIRSTUDIO-843
p344
aVDIRSTUDIO-842
p345
aVDIRSTUDIO-841
p346
aVDIRSTUDIO-840
p347
aVDIRSTUDIO-839
p348
aVDIRSTUDIO-838
p349
aVDIRSTUDIO-837
p350
aVDIRSTUDIO-836
p351
aVDIRSTUDIO-835
p352
aVDIRSTUDIO-834
p353
aVDIRSTUDIO-833
p354
aVDIRSTUDIO-832
p355
aVDIRSTUDIO-831
p356
aVDIRSTUDIO-830
p357
aVDIRSTUDIO-829
p358
aVDIRSTUDIO-828
p359
aVDIRSTUDIO-827
p360
aVDIRSTUDIO-826
p361
aVDIRSTUDIO-825
p362
aVDIRSTUDIO-824
p363
aVDIRSTUDIO-823
p364
aVDIRSTUDIO-822
p365
aVDIRSTUDIO-821
p366
aVDIRSTUDIO-820
p367
aVDIRSTUDIO-819
p368
aVDIRSTUDIO-818
p369
aVDIRSTUDIO-817
p370
aVDIRSTUDIO-816
p371
aVDIRSTUDIO-815
p372
aVDIRSTUDIO-814
p373
aVDIRSTUDIO-813
p374
aVDIRSTUDIO-812
p375
aVDIRSTUDIO-811
p376
aVDIRSTUDIO-810
p377
aVDIRSTUDIO-809
p378
aVDIRSTUDIO-808
p379
aVDIRSTUDIO-807
p380
aVDIRSTUDIO-806
p381
aVDIRSTUDIO-805
p382
aVDIRSTUDIO-804
p383
aVDIRSTUDIO-803
p384
aVDIRSTUDIO-802
p385
aVDIRSTUDIO-801
p386
aVDIRSTUDIO-800
p387
aVDIRSTUDIO-799
p388
aVDIRSTUDIO-798
p389
aVDIRSTUDIO-797
p390
aVDIRSTUDIO-796
p391
aVDIRSTUDIO-795
p392
aVDIRSTUDIO-794
p393
aVDIRSTUDIO-793
p394
aVDIRSTUDIO-792
p395
aVDIRSTUDIO-791
p396
aVDIRSTUDIO-790
p397
aVDIRSTUDIO-789
p398
aVDIRSTUDIO-788
p399
aVDIRSTUDIO-787
p400
aVDIRSTUDIO-786
p401
aVDIRSTUDIO-785
p402
aVDIRSTUDIO-784
p403
aVDIRSTUDIO-783
p404
aVDIRSTUDIO-782
p405
aVDIRSTUDIO-781
p406
aVDIRSTUDIO-780
p407
aVDIRSTUDIO-779
p408
aVDIRSTUDIO-778
p409
aVDIRSTUDIO-777
p410
aVDIRSTUDIO-776
p411
aVDIRSTUDIO-775
p412
aVDIRSTUDIO-774
p413
aVDIRSTUDIO-773
p414
aVDIRSTUDIO-772
p415
aVDIRSTUDIO-771
p416
aVDIRSTUDIO-770
p417
aVDIRSTUDIO-769
p418
aVDIRSTUDIO-768
p419
aVDIRSTUDIO-767
p420
aVDIRSTUDIO-766
p421
aVDIRSTUDIO-765
p422
aVDIRSTUDIO-764
p423
aVDIRSTUDIO-763
p424
aVDIRSTUDIO-762
p425
aVDIRSTUDIO-761
p426
aVDIRSTUDIO-760
p427
aVDIRSTUDIO-759
p428
aVDIRSTUDIO-758
p429
aVDIRSTUDIO-757
p430
aVDIRSTUDIO-756
p431
aVDIRSTUDIO-755
p432
aVDIRSTUDIO-754
p433
aVDIRSTUDIO-753
p434
aVDIRSTUDIO-752
p435
aVDIRSTUDIO-751
p436
aVDIRSTUDIO-750
p437
aVDIRSTUDIO-749
p438
aVDIRSTUDIO-748
p439
aVDIRSTUDIO-747
p440
aVDIRSTUDIO-746
p441
aVDIRSTUDIO-745
p442
aVDIRSTUDIO-744
p443
aVDIRSTUDIO-743
p444
aVDIRSTUDIO-742
p445
aVDIRSTUDIO-741
p446
aVDIRSTUDIO-740
p447
aVDIRSTUDIO-739
p448
aVDIRSTUDIO-738
p449
aVDIRSTUDIO-737
p450
aVDIRSTUDIO-736
p451
aVDIRSTUDIO-735
p452
aVDIRSTUDIO-734
p453
aVDIRSTUDIO-733
p454
aVDIRSTUDIO-732
p455
aVDIRSTUDIO-731
p456
aVDIRSTUDIO-730
p457
aVDIRSTUDIO-729
p458
aVDIRSTUDIO-728
p459
aVDIRSTUDIO-727
p460
aVDIRSTUDIO-726
p461
aVDIRSTUDIO-725
p462
aVDIRSTUDIO-724
p463
aVDIRSTUDIO-723
p464
aVDIRSTUDIO-722
p465
aVDIRSTUDIO-721
p466
aVDIRSTUDIO-720
p467
aVDIRSTUDIO-719
p468
aVDIRSTUDIO-718
p469
aVDIRSTUDIO-717
p470
aVDIRSTUDIO-716
p471
aVDIRSTUDIO-715
p472
aVDIRSTUDIO-714
p473
aVDIRSTUDIO-713
p474
aVDIRSTUDIO-712
p475
aVDIRSTUDIO-711
p476
aVDIRSTUDIO-710
p477
aVDIRSTUDIO-709
p478
aVDIRSTUDIO-708
p479
aVDIRSTUDIO-707
p480
aVDIRSTUDIO-706
p481
aVDIRSTUDIO-705
p482
aVDIRSTUDIO-704
p483
aVDIRSTUDIO-703
p484
aVDIRSTUDIO-702
p485
aVDIRSTUDIO-701
p486
aVDIRSTUDIO-700
p487
aVDIRSTUDIO-699
p488
aVDIRSTUDIO-698
p489
aVDIRSTUDIO-697
p490
aVDIRSTUDIO-696
p491
aVDIRSTUDIO-695
p492
aVDIRSTUDIO-694
p493
aVDIRSTUDIO-693
p494
aVDIRSTUDIO-692
p495
aVDIRSTUDIO-691
p496
aVDIRSTUDIO-690
p497
aVDIRSTUDIO-689
p498
aVDIRSTUDIO-688
p499
aVDIRSTUDIO-687
p500
aVDIRSTUDIO-686
p501
aVDIRSTUDIO-685
p502
aVDIRSTUDIO-684
p503
aVDIRSTUDIO-683
p504
aVDIRSTUDIO-682
p505
aVDIRSTUDIO-681
p506
aVDIRSTUDIO-680
p507
aVDIRSTUDIO-679
p508
aVDIRSTUDIO-678
p509
aVDIRSTUDIO-677
p510
aVDIRSTUDIO-676
p511
aVDIRSTUDIO-675
p512
aVDIRSTUDIO-674
p513
aVDIRSTUDIO-673
p514
aVDIRSTUDIO-672
p515
aVDIRSTUDIO-671
p516
aVDIRSTUDIO-670
p517
aVDIRSTUDIO-669
p518
aVDIRSTUDIO-668
p519
aVDIRSTUDIO-667
p520
aVDIRSTUDIO-666
p521
aVDIRSTUDIO-665
p522
aVDIRSTUDIO-664
p523
aVDIRSTUDIO-663
p524
aVDIRSTUDIO-662
p525
aVDIRSTUDIO-661
p526
aVDIRSTUDIO-660
p527
aVDIRSTUDIO-659
p528
aVDIRSTUDIO-658
p529
aVDIRSTUDIO-657
p530
aVDIRSTUDIO-656
p531
aVDIRSTUDIO-655
p532
aVDIRSTUDIO-654
p533
aVDIRSTUDIO-653
p534
aVDIRSTUDIO-652
p535
aVDIRSTUDIO-651
p536
aVDIRSTUDIO-650
p537
aVDIRSTUDIO-649
p538
aVDIRSTUDIO-648
p539
aVDIRSTUDIO-647
p540
aVDIRSTUDIO-646
p541
aVDIRSTUDIO-645
p542
aVDIRSTUDIO-644
p543
aVDIRSTUDIO-643
p544
aVDIRSTUDIO-642
p545
aVDIRSTUDIO-641
p546
aVDIRSTUDIO-640
p547
aVDIRSTUDIO-639
p548
aVDIRSTUDIO-638
p549
aVDIRSTUDIO-637
p550
aVDIRSTUDIO-636
p551
aVDIRSTUDIO-635
p552
aVDIRSTUDIO-634
p553
aVDIRSTUDIO-633
p554
aVDIRSTUDIO-632
p555
aVDIRSTUDIO-631
p556
aVDIRSTUDIO-630
p557
aVDIRSTUDIO-629
p558
aVDIRSTUDIO-628
p559
aVDIRSTUDIO-627
p560
aVDIRSTUDIO-626
p561
aVDIRSTUDIO-625
p562
aVDIRSTUDIO-624
p563
aVDIRSTUDIO-623
p564
aVDIRSTUDIO-622
p565
aVDIRSTUDIO-621
p566
aVDIRSTUDIO-620
p567
aVDIRSTUDIO-619
p568
aVDIRSTUDIO-618
p569
aVDIRSTUDIO-617
p570
aVDIRSTUDIO-616
p571
aVDIRSTUDIO-615
p572
aVDIRSTUDIO-614
p573
aVDIRSTUDIO-613
p574
aVDIRSTUDIO-612
p575
aVDIRSTUDIO-611
p576
aVDIRSTUDIO-610
p577
aVDIRSTUDIO-609
p578
aVDIRSTUDIO-608
p579
aVDIRSTUDIO-607
p580
aVDIRSTUDIO-606
p581
aVDIRSTUDIO-605
p582
aVDIRSTUDIO-604
p583
aVDIRSTUDIO-603
p584
aVDIRSTUDIO-602
p585
aVDIRSTUDIO-601
p586
aVDIRSTUDIO-600
p587
aVDIRSTUDIO-599
p588
aVDIRSTUDIO-598
p589
aVDIRSTUDIO-597
p590
aVDIRSTUDIO-596
p591
aVDIRSTUDIO-595
p592
aVDIRSTUDIO-594
p593
aVDIRSTUDIO-593
p594
aVDIRSTUDIO-592
p595
aVDIRSTUDIO-591
p596
aVDIRSTUDIO-590
p597
aVDIRSTUDIO-589
p598
aVDIRSTUDIO-588
p599
aVDIRSTUDIO-587
p600
aVDIRSTUDIO-586
p601
aVDIRSTUDIO-585
p602
aVDIRSTUDIO-583
p603
aVDIRSTUDIO-582
p604
aVDIRSTUDIO-581
p605
aVDIRSTUDIO-580
p606
aVDIRSTUDIO-579
p607
aVDIRSTUDIO-578
p608
aVDIRSTUDIO-577
p609
aVDIRSTUDIO-576
p610
aVDIRSTUDIO-575
p611
aVDIRSTUDIO-574
p612
aVDIRSTUDIO-573
p613
aVDIRSTUDIO-572
p614
aVDIRSTUDIO-571
p615
aVDIRSTUDIO-570
p616
aVDIRSTUDIO-569
p617
aVDIRSTUDIO-568
p618
aVDIRSTUDIO-567
p619
aVDIRSTUDIO-566
p620
aVDIRSTUDIO-565
p621
aVDIRSTUDIO-564
p622
aVDIRSTUDIO-563
p623
aVDIRSTUDIO-562
p624
aVDIRSTUDIO-561
p625
aVDIRSTUDIO-560
p626
aVDIRSTUDIO-559
p627
aVDIRSTUDIO-558
p628
aVDIRSTUDIO-557
p629
aVDIRSTUDIO-556
p630
aVDIRSTUDIO-555
p631
aVDIRSTUDIO-554
p632
aVDIRSTUDIO-553
p633
aVDIRSTUDIO-552
p634
aVDIRSTUDIO-550
p635
aVDIRSTUDIO-549
p636
aVDIRSTUDIO-548
p637
aVDIRSTUDIO-547
p638
aVDIRSTUDIO-546
p639
aVDIRSTUDIO-545
p640
aVDIRSTUDIO-544
p641
aVDIRSTUDIO-543
p642
aVDIRSTUDIO-542
p643
aVDIRSTUDIO-541
p644
aVDIRSTUDIO-540
p645
aVDIRSTUDIO-539
p646
aVDIRSTUDIO-538
p647
aVDIRSTUDIO-537
p648
aVDIRSTUDIO-536
p649
aVDIRSTUDIO-535
p650
aVDIRSTUDIO-534
p651
aVDIRSTUDIO-533
p652
aVDIRSTUDIO-532
p653
aVDIRSTUDIO-531
p654
aVDIRSTUDIO-530
p655
aVDIRSTUDIO-529
p656
aVDIRSTUDIO-528
p657
aVDIRSTUDIO-527
p658
aVDIRSTUDIO-526
p659
aVDIRSTUDIO-525
p660
aVDIRSTUDIO-524
p661
aVDIRSTUDIO-523
p662
aVDIRSTUDIO-522
p663
aVDIRSTUDIO-521
p664
aVDIRSTUDIO-520
p665
aVDIRSTUDIO-519
p666
aVDIRSTUDIO-518
p667
aVDIRSTUDIO-517
p668
aVDIRSTUDIO-516
p669
aVDIRSTUDIO-515
p670
aVDIRSTUDIO-514
p671
aVDIRSTUDIO-513
p672
aVDIRSTUDIO-512
p673
aVDIRSTUDIO-511
p674
aVDIRSTUDIO-510
p675
aVDIRSTUDIO-509
p676
aVDIRSTUDIO-508
p677
aVDIRSTUDIO-507
p678
aVDIRSTUDIO-506
p679
aVDIRSTUDIO-505
p680
aVDIRSTUDIO-504
p681
aVDIRSTUDIO-503
p682
aVDIRSTUDIO-502
p683
aVDIRSTUDIO-501
p684
aVDIRSTUDIO-499
p685
aVDIRSTUDIO-498
p686
aVDIRSTUDIO-497
p687
aVDIRSTUDIO-496
p688
aVDIRSTUDIO-495
p689
aVDIRSTUDIO-494
p690
aVDIRSTUDIO-493
p691
aVDIRSTUDIO-492
p692
aVDIRSTUDIO-491
p693
aVDIRSTUDIO-490
p694
aVDIRSTUDIO-489
p695
aVDIRSTUDIO-488
p696
aVDIRSTUDIO-487
p697
aVDIRSTUDIO-486
p698
aVDIRSTUDIO-485
p699
aVDIRSTUDIO-484
p700
aVDIRSTUDIO-483
p701
aVDIRSTUDIO-482
p702
aVDIRSTUDIO-481
p703
aVDIRSTUDIO-480
p704
aVDIRSTUDIO-479
p705
aVDIRSTUDIO-478
p706
aVDIRSTUDIO-477
p707
aVDIRSTUDIO-476
p708
aVDIRSTUDIO-475
p709
aVDIRSTUDIO-474
p710
aVDIRSTUDIO-473
p711
aVDIRSTUDIO-472
p712
aVDIRSTUDIO-471
p713
aVDIRSTUDIO-470
p714
aVDIRSTUDIO-469
p715
aVDIRSTUDIO-468
p716
aVDIRSTUDIO-467
p717
aVDIRSTUDIO-466
p718
aVDIRSTUDIO-465
p719
aVDIRSTUDIO-463
p720
aVDIRSTUDIO-462
p721
aVDIRSTUDIO-461
p722
aVDIRSTUDIO-460
p723
aVDIRSTUDIO-459
p724
aVDIRSTUDIO-458
p725
aVDIRSTUDIO-457
p726
aVDIRSTUDIO-456
p727
aVDIRSTUDIO-455
p728
aVDIRSTUDIO-454
p729
aVDIRSTUDIO-453
p730
aVDIRSTUDIO-452
p731
aVDIRSTUDIO-451
p732
aVDIRSTUDIO-450
p733
aVDIRSTUDIO-449
p734
aVDIRSTUDIO-447
p735
aVDIRSTUDIO-446
p736
aVDIRSTUDIO-445
p737
aVDIRSTUDIO-444
p738
aVDIRSTUDIO-443
p739
aVDIRSTUDIO-442
p740
aVDIRSTUDIO-441
p741
aVDIRSTUDIO-440
p742
aVDIRSTUDIO-439
p743
aVDIRSTUDIO-438
p744
aVDIRSTUDIO-437
p745
aVDIRSTUDIO-436
p746
aVDIRSTUDIO-435
p747
aVDIRSTUDIO-434
p748
aVDIRSTUDIO-433
p749
aVDIRSTUDIO-432
p750
aVDIRSTUDIO-431
p751
aVDIRSTUDIO-430
p752
aVDIRSTUDIO-429
p753
aVDIRSTUDIO-428
p754
aVDIRSTUDIO-427
p755
aVDIRSTUDIO-426
p756
aVDIRSTUDIO-425
p757
aVDIRSTUDIO-424
p758
aVDIRSTUDIO-423
p759
aVDIRSTUDIO-422
p760
aVDIRSTUDIO-421
p761
aVDIRSTUDIO-420
p762
aVDIRSTUDIO-419
p763
aVDIRSTUDIO-418
p764
aVDIRSTUDIO-417
p765
aVDIRSTUDIO-416
p766
aVDIRSTUDIO-415
p767
aVDIRSTUDIO-414
p768
aVDIRSTUDIO-413
p769
aVDIRSTUDIO-412
p770
aVDIRSTUDIO-411
p771
aVDIRSTUDIO-410
p772
aVDIRSTUDIO-409
p773
aVDIRSTUDIO-408
p774
aVDIRSTUDIO-407
p775
aVDIRSTUDIO-406
p776
aVDIRSTUDIO-405
p777
aVDIRSTUDIO-404
p778
aVDIRSTUDIO-403
p779
aVDIRSTUDIO-402
p780
aVDIRSTUDIO-401
p781
aVDIRSTUDIO-400
p782
aVDIRSTUDIO-399
p783
aVDIRSTUDIO-398
p784
aVDIRSTUDIO-397
p785
aVDIRSTUDIO-396
p786
aVDIRSTUDIO-395
p787
aVDIRSTUDIO-394
p788
aVDIRSTUDIO-393
p789
aVDIRSTUDIO-392
p790
aVDIRSTUDIO-391
p791
aVDIRSTUDIO-390
p792
aVDIRSTUDIO-389
p793
aVDIRSTUDIO-388
p794
aVDIRSTUDIO-387
p795
aVDIRSTUDIO-386
p796
aVDIRSTUDIO-385
p797
aVDIRSTUDIO-384
p798
aVDIRSTUDIO-383
p799
aVDIRSTUDIO-382
p800
aVDIRSTUDIO-381
p801
aVDIRSTUDIO-380
p802
aVDIRSTUDIO-379
p803
aVDIRSTUDIO-378
p804
aVDIRSTUDIO-377
p805
aVDIRSTUDIO-376
p806
aVDIRSTUDIO-375
p807
aVDIRSTUDIO-374
p808
aVDIRSTUDIO-373
p809
aVDIRSTUDIO-372
p810
aVDIRSTUDIO-371
p811
aVDIRSTUDIO-370
p812
aVDIRSTUDIO-369
p813
aVDIRSTUDIO-368
p814
aVDIRSTUDIO-367
p815
aVDIRSTUDIO-366
p816
aVDIRSTUDIO-365
p817
aVDIRSTUDIO-364
p818
aVDIRSTUDIO-363
p819
aVDIRSTUDIO-361
p820
aVDIRSTUDIO-360
p821
aVDIRSTUDIO-359
p822
aVDIRSTUDIO-358
p823
aVDIRSTUDIO-357
p824
aVDIRSTUDIO-356
p825
aVDIRSTUDIO-355
p826
aVDIRSTUDIO-354
p827
aVDIRSTUDIO-353
p828
aVDIRSTUDIO-352
p829
aVDIRSTUDIO-350
p830
aVDIRSTUDIO-349
p831
aVDIRSTUDIO-348
p832
aVDIRSTUDIO-347
p833
aVDIRSTUDIO-346
p834
aVDIRSTUDIO-345
p835
aVDIRSTUDIO-344
p836
aVDIRSTUDIO-343
p837
aVDIRSTUDIO-342
p838
aVDIRSTUDIO-341
p839
aVDIRSTUDIO-340
p840
aVDIRSTUDIO-339
p841
aVDIRSTUDIO-338
p842
aVDIRSTUDIO-337
p843
aVDIRSTUDIO-336
p844
aVDIRSTUDIO-335
p845
aVDIRSTUDIO-334
p846
aVDIRSTUDIO-333
p847
aVDIRSTUDIO-332
p848
aVDIRSTUDIO-331
p849
aVDIRSTUDIO-330
p850
aVDIRSTUDIO-329
p851
aVDIRSTUDIO-328
p852
aVDIRSTUDIO-327
p853
aVDIRSTUDIO-326
p854
aVDIRSTUDIO-325
p855
aVDIRSTUDIO-324
p856
aVDIRSTUDIO-323
p857
aVDIRSTUDIO-322
p858
aVDIRSTUDIO-321
p859
aVDIRSTUDIO-320
p860
aVDIRSTUDIO-319
p861
aVDIRSTUDIO-318
p862
aVDIRSTUDIO-317
p863
aVDIRSTUDIO-316
p864
aVDIRSTUDIO-315
p865
aVDIRSTUDIO-314
p866
aVDIRSTUDIO-313
p867
aVDIRSTUDIO-312
p868
aVDIRSTUDIO-311
p869
aVDIRSTUDIO-310
p870
aVDIRSTUDIO-309
p871
aVDIRSTUDIO-308
p872
aVDIRSTUDIO-306
p873
aVDIRSTUDIO-305
p874
aVDIRSTUDIO-304
p875
aVDIRSTUDIO-303
p876
aVDIRSTUDIO-302
p877
aVDIRSTUDIO-301
p878
aVDIRSTUDIO-300
p879
aVDIRSTUDIO-299
p880
aVDIRSTUDIO-298
p881
aVDIRSTUDIO-297
p882
aVDIRSTUDIO-296
p883
aVDIRSTUDIO-295
p884
aVDIRSTUDIO-294
p885
aVDIRSTUDIO-293
p886
aVDIRSTUDIO-292
p887
aVDIRSTUDIO-291
p888
aVDIRSTUDIO-290
p889
aVDIRSTUDIO-289
p890
aVDIRSTUDIO-288
p891
aVDIRSTUDIO-287
p892
aVDIRSTUDIO-286
p893
aVDIRSTUDIO-285
p894
aVDIRSTUDIO-284
p895
aVDIRSTUDIO-283
p896
aVDIRSTUDIO-282
p897
aVDIRSTUDIO-281
p898
aVDIRSTUDIO-280
p899
aVDIRSTUDIO-279
p900
aVDIRSTUDIO-278
p901
aVDIRSTUDIO-277
p902
aVDIRSTUDIO-276
p903
aVDIRSTUDIO-275
p904
aVDIRSTUDIO-274
p905
aVDIRSTUDIO-273
p906
aVDIRSTUDIO-272
p907
aVDIRSTUDIO-271
p908
aVDIRSTUDIO-270
p909
aVDIRSTUDIO-269
p910
aVDIRSTUDIO-268
p911
aVDIRSTUDIO-267
p912
aVDIRSTUDIO-266
p913
aVDIRSTUDIO-265
p914
aVDIRSTUDIO-264
p915
aVDIRSTUDIO-263
p916
aVDIRSTUDIO-262
p917
aVDIRSTUDIO-261
p918
aVDIRSTUDIO-260
p919
aVDIRSTUDIO-259
p920
aVDIRSTUDIO-258
p921
aVDIRSTUDIO-257
p922
aVDIRSTUDIO-256
p923
aVDIRSTUDIO-255
p924
aVDIRSTUDIO-254
p925
aVDIRSTUDIO-253
p926
aVDIRSTUDIO-252
p927
aVDIRSTUDIO-251
p928
aVDIRSTUDIO-250
p929
aVDIRSTUDIO-249
p930
aVDIRSTUDIO-248
p931
aVDIRSTUDIO-247
p932
aVDIRSTUDIO-246
p933
aVDIRSTUDIO-245
p934
aVDIRSTUDIO-244
p935
aVDIRSTUDIO-243
p936
aVDIRSTUDIO-242
p937
aVDIRSTUDIO-241
p938
aVDIRSTUDIO-240
p939
aVDIRSTUDIO-239
p940
aVDIRSTUDIO-238
p941
aVDIRSTUDIO-237
p942
aVDIRSTUDIO-236
p943
aVDIRSTUDIO-235
p944
aVDIRSTUDIO-234
p945
aVDIRSTUDIO-233
p946
aVDIRSTUDIO-232
p947
aVDIRSTUDIO-231
p948
aVDIRSTUDIO-230
p949
aVDIRSTUDIO-229
p950
aVDIRSTUDIO-228
p951
aVDIRSTUDIO-227
p952
aVDIRSTUDIO-226
p953
aVDIRSTUDIO-225
p954
aVDIRSTUDIO-224
p955
aVDIRSTUDIO-223
p956
aVDIRSTUDIO-222
p957
aVDIRSTUDIO-221
p958
aVDIRSTUDIO-220
p959
aVDIRSTUDIO-219
p960
aVDIRSTUDIO-218
p961
aVDIRSTUDIO-217
p962
aVDIRSTUDIO-216
p963
aVDIRSTUDIO-215
p964
aVDIRSTUDIO-214
p965
aVDIRSTUDIO-213
p966
aVDIRSTUDIO-212
p967
aVDIRSTUDIO-211
p968
aVDIRSTUDIO-210
p969
aVDIRSTUDIO-209
p970
aVDIRSTUDIO-208
p971
aVDIRSTUDIO-207
p972
aVDIRSTUDIO-206
p973
aVDIRSTUDIO-205
p974
aVDIRSTUDIO-204
p975
aVDIRSTUDIO-203
p976
aVDIRSTUDIO-202
p977
aVDIRSTUDIO-201
p978
aVDIRSTUDIO-200
p979
aVDIRSTUDIO-199
p980
aVDIRSTUDIO-198
p981
aVDIRSTUDIO-197
p982
aVDIRSTUDIO-196
p983
aVDIRSTUDIO-195
p984
aVDIRSTUDIO-194
p985
aVDIRSTUDIO-193
p986
aVDIRSTUDIO-192
p987
aVDIRSTUDIO-191
p988
aVDIRSTUDIO-190
p989
aVDIRSTUDIO-189
p990
aVDIRSTUDIO-188
p991
aVDIRSTUDIO-187
p992
aVDIRSTUDIO-186
p993
aVDIRSTUDIO-185
p994
aVDIRSTUDIO-184
p995
aVDIRSTUDIO-183
p996
aVDIRSTUDIO-182
p997
aVDIRSTUDIO-181
p998
aVDIRSTUDIO-180
p999
aVDIRSTUDIO-179
p1000
aVDIRSTUDIO-178
p1001
aVDIRSTUDIO-177
p1002
aVDIRSTUDIO-176
p1003
aVDIRSTUDIO-175
p1004
aVDIRSTUDIO-174
p1005
aVDIRSTUDIO-173
p1006
aVDIRSTUDIO-172
p1007
aVDIRSTUDIO-171
p1008
aVDIRSTUDIO-170
p1009
aVDIRSTUDIO-169
p1010
aVDIRSTUDIO-168
p1011
aVDIRSTUDIO-167
p1012
aVDIRSTUDIO-166
p1013
aVDIRSTUDIO-165
p1014
aVDIRSTUDIO-164
p1015
aVDIRSTUDIO-163
p1016
aVDIRSTUDIO-162
p1017
aVDIRSTUDIO-161
p1018
aVDIRSTUDIO-160
p1019
aVDIRSTUDIO-159
p1020
aVDIRSTUDIO-158
p1021
aVDIRSTUDIO-157
p1022
aVDIRSTUDIO-156
p1023
aVDIRSTUDIO-155
p1024
aVDIRSTUDIO-154
p1025
aVDIRSTUDIO-153
p1026
aVDIRSTUDIO-152
p1027
aVDIRSTUDIO-151
p1028
aVDIRSTUDIO-150
p1029
aVDIRSTUDIO-149
p1030
aVDIRSTUDIO-148
p1031
aVDIRSTUDIO-147
p1032
aVDIRSTUDIO-146
p1033
aVDIRSTUDIO-145
p1034
aVDIRSTUDIO-144
p1035
aVDIRSTUDIO-143
p1036
aVDIRSTUDIO-142
p1037
aVDIRSTUDIO-141
p1038
aVDIRSTUDIO-140
p1039
aVDIRSTUDIO-139
p1040
aVDIRSTUDIO-138
p1041
aVDIRSTUDIO-137
p1042
aVDIRSTUDIO-136
p1043
aVDIRSTUDIO-135
p1044
aVDIRSTUDIO-134
p1045
aVDIRSTUDIO-133
p1046
aVDIRSTUDIO-132
p1047
aVDIRSTUDIO-131
p1048
aVDIRSTUDIO-130
p1049
aVDIRSTUDIO-129
p1050
aVDIRSTUDIO-128
p1051
aVDIRSTUDIO-127
p1052
aVDIRSTUDIO-126
p1053
aVDIRSTUDIO-125
p1054
aVDIRSTUDIO-124
p1055
aVDIRSTUDIO-123
p1056
aVDIRSTUDIO-122
p1057
aVDIRSTUDIO-121
p1058
aVDIRSTUDIO-120
p1059
aVDIRSTUDIO-119
p1060
aVDIRSTUDIO-117
p1061
aVDIRSTUDIO-116
p1062
aVDIRSTUDIO-115
p1063
aVDIRSTUDIO-114
p1064
aVDIRSTUDIO-113
p1065
aVDIRSTUDIO-112
p1066
aVDIRSTUDIO-111
p1067
aVDIRSTUDIO-110
p1068
aVDIRSTUDIO-109
p1069
aVDIRSTUDIO-108
p1070
aVDIRSTUDIO-107
p1071
aVDIRSTUDIO-106
p1072
aVDIRSTUDIO-105
p1073
aVDIRSTUDIO-104
p1074
aVDIRSTUDIO-103
p1075
aVDIRSTUDIO-102
p1076
aVDIRSTUDIO-101
p1077
aVDIRSTUDIO-100
p1078
aVDIRSTUDIO-99
p1079
aVDIRSTUDIO-98
p1080
aVDIRSTUDIO-97
p1081
aVDIRSTUDIO-96
p1082
aVDIRSTUDIO-95
p1083
aVDIRSTUDIO-94
p1084
aVDIRSTUDIO-93
p1085
aVDIRSTUDIO-92
p1086
aVDIRSTUDIO-91
p1087
aVDIRSTUDIO-90
p1088
aVDIRSTUDIO-89
p1089
aVDIRSTUDIO-88
p1090
aVDIRSTUDIO-87
p1091
aVDIRSTUDIO-86
p1092
aVDIRSTUDIO-85
p1093
aVDIRSTUDIO-84
p1094
aVDIRSTUDIO-83
p1095
aVDIRSTUDIO-82
p1096
aVDIRSTUDIO-81
p1097
aVDIRSTUDIO-80
p1098
aVDIRSTUDIO-79
p1099
aVDIRSTUDIO-78
p1100
aVDIRSTUDIO-77
p1101
aVDIRSTUDIO-76
p1102
aVDIRSTUDIO-75
p1103
aVDIRSTUDIO-74
p1104
aVDIRSTUDIO-73
p1105
aVDIRSTUDIO-72
p1106
aVDIRSTUDIO-71
p1107
aVDIRSTUDIO-70
p1108
aVDIRSTUDIO-69
p1109
aVDIRSTUDIO-68
p1110
aVDIRSTUDIO-67
p1111
aVDIRSTUDIO-66
p1112
aVDIRSTUDIO-65
p1113
aVDIRSTUDIO-64
p1114
aVDIRSTUDIO-63
p1115
aVDIRSTUDIO-62
p1116
aVDIRSTUDIO-61
p1117
aVDIRSTUDIO-60
p1118
aVDIRSTUDIO-59
p1119
aVDIRSTUDIO-58
p1120
aVDIRSTUDIO-57
p1121
aVDIRSTUDIO-56
p1122
aVDIRSTUDIO-55
p1123
aVDIRSTUDIO-54
p1124
aVDIRSTUDIO-53
p1125
aVDIRSTUDIO-52
p1126
aVDIRSTUDIO-51
p1127
aVDIRSTUDIO-50
p1128
aVDIRSTUDIO-49
p1129
aVDIRSTUDIO-48
p1130
aVDIRSTUDIO-47
p1131
aVDIRSTUDIO-46
p1132
aVDIRSTUDIO-45
p1133
aVDIRSTUDIO-44
p1134
aVDIRSTUDIO-43
p1135
aVDIRSTUDIO-42
p1136
aVDIRSTUDIO-41
p1137
aVDIRSTUDIO-40
p1138
aVDIRSTUDIO-39
p1139
aVDIRSTUDIO-38
p1140
aVDIRSTUDIO-37
p1141
aVDIRSTUDIO-36
p1142
aVDIRSTUDIO-35
p1143
aVDIRSTUDIO-34
p1144
aVDIRSTUDIO-33
p1145
aVDIRSTUDIO-32
p1146
aVDIRSTUDIO-31
p1147
aVDIRSTUDIO-30
p1148
aVDIRSTUDIO-29
p1149
aVDIRSTUDIO-28
p1150
aVDIRSTUDIO-27
p1151
aVDIRSTUDIO-26
p1152
aVDIRSTUDIO-25
p1153
aVDIRSTUDIO-24
p1154
aVDIRSTUDIO-23
p1155
aVDIRSTUDIO-22
p1156
aVDIRSTUDIO-21
p1157
aVDIRSTUDIO-20
p1158
aVDIRSTUDIO-19
p1159
aVDIRSTUDIO-18
p1160
aVDIRSTUDIO-17
p1161
aVDIRSTUDIO-16
p1162
aVDIRSTUDIO-15
p1163
aVDIRSTUDIO-14
p1164
aVDIRSTUDIO-12
p1165
aVDIRSTUDIO-11
p1166
aVDIRSTUDIO-10
p1167
aVDIRSTUDIO-9
p1168
aVDIRSTUDIO-8
p1169
aVDIRSTUDIO-7
p1170
aVDIRSTUDIO-6
p1171
aVDIRSTUDIO-5
p1172
aVDIRSTUDIO-4
p1173
aVDIRSTUDIO-3
p1174
aVDIRSTUDIO-2
p1175
aVDIRSTUDIO-1
p1176
a.