(lp0
VDL-210
p1
aVDL-209
p2
aVDL-208
p3
aVDL-207
p4
aVDL-206
p5
aVDL-205
p6
aVDL-204
p7
aVDL-203
p8
aVDL-202
p9
aVDL-201
p10
aVDL-200
p11
aVDL-199
p12
aVDL-198
p13
aVDL-197
p14
aVDL-196
p15
aVDL-195
p16
aVDL-194
p17
aVDL-193
p18
aVDL-192
p19
aVDL-191
p20
aVDL-190
p21
aVDL-189
p22
aVDL-188
p23
aVDL-187
p24
aVDL-186
p25
aVDL-185
p26
aVDL-184
p27
aVDL-183
p28
aVDL-182
p29
aVDL-181
p30
aVDL-180
p31
aVDL-179
p32
aVDL-178
p33
aVDL-177
p34
aVDL-176
p35
aVDL-175
p36
aVDL-174
p37
aVDL-173
p38
aVDL-172
p39
aVDL-171
p40
aVDL-170
p41
aVDL-169
p42
aVDL-168
p43
aVDL-167
p44
aVDL-166
p45
aVDL-165
p46
aVDL-164
p47
aVDL-163
p48
aVDL-162
p49
aVDL-161
p50
aVDL-160
p51
aVDL-159
p52
aVDL-158
p53
aVDL-157
p54
aVDL-156
p55
aVDL-155
p56
aVDL-154
p57
aVDL-153
p58
aVDL-152
p59
aVDL-151
p60
aVDL-150
p61
aVDL-149
p62
aVDL-148
p63
aVDL-147
p64
aVDL-146
p65
aVDL-145
p66
aVDL-144
p67
aVDL-143
p68
aVDL-142
p69
aVDL-141
p70
aVDL-140
p71
aVDL-139
p72
aVDL-138
p73
aVDL-137
p74
aVDL-136
p75
aVDL-135
p76
aVDL-134
p77
aVDL-133
p78
aVDL-132
p79
aVDL-131
p80
aVDL-130
p81
aVDL-129
p82
aVDL-128
p83
aVDL-127
p84
aVDL-126
p85
aVDL-125
p86
aVDL-124
p87
aVDL-123
p88
aVDL-122
p89
aVDL-121
p90
aVDL-120
p91
aVDL-119
p92
aVDL-118
p93
aVDL-117
p94
aVDL-116
p95
aVDL-115
p96
aVDL-114
p97
aVDL-113
p98
aVDL-112
p99
aVDL-111
p100
aVDL-110
p101
aVDL-109
p102
aVDL-108
p103
aVDL-107
p104
aVDL-106
p105
aVDL-105
p106
aVDL-104
p107
aVDL-103
p108
aVDL-102
p109
aVDL-101
p110
aVDL-100
p111
aVDL-99
p112
aVDL-98
p113
aVDL-97
p114
aVDL-96
p115
aVDL-95
p116
aVDL-94
p117
aVDL-93
p118
aVDL-92
p119
aVDL-91
p120
aVDL-90
p121
aVDL-89
p122
aVDL-88
p123
aVDL-87
p124
aVDL-86
p125
aVDL-85
p126
aVDL-84
p127
aVDL-83
p128
aVDL-82
p129
aVDL-81
p130
aVDL-80
p131
aVDL-79
p132
aVDL-78
p133
aVDL-77
p134
aVDL-76
p135
aVDL-75
p136
aVDL-74
p137
aVDL-73
p138
aVDL-72
p139
aVDL-71
p140
aVDL-70
p141
aVDL-69
p142
aVDL-68
p143
aVDL-67
p144
aVDL-66
p145
aVDL-65
p146
aVDL-64
p147
aVDL-63
p148
aVDL-62
p149
aVDL-61
p150
aVDL-60
p151
aVDL-59
p152
aVDL-58
p153
aVDL-57
p154
aVDL-56
p155
aVDL-55
p156
aVDL-54
p157
aVDL-53
p158
aVDL-52
p159
aVDL-51
p160
aVDL-50
p161
aVDL-49
p162
aVDL-48
p163
aVDL-47
p164
aVDL-46
p165
aVDL-45
p166
aVDL-44
p167
aVDL-43
p168
aVDL-42
p169
aVDL-41
p170
aVDL-40
p171
aVDL-39
p172
aVDL-38
p173
aVDL-37
p174
aVDL-36
p175
aVDL-35
p176
aVDL-34
p177
aVDL-33
p178
aVDL-32
p179
aVDL-31
p180
aVDL-30
p181
aVDL-29
p182
aVDL-28
p183
aVDL-27
p184
aVDL-26
p185
aVDL-25
p186
aVDL-24
p187
aVDL-23
p188
aVDL-22
p189
aVDL-21
p190
aVDL-20
p191
aVDL-19
p192
aVDL-18
p193
aVDL-17
p194
aVDL-16
p195
aVDL-15
p196
aVDL-14
p197
aVDL-13
p198
aVDL-12
p199
aVDL-11
p200
aVDL-10
p201
aVDL-9
p202
aVDL-8
p203
aVDL-7
p204
aVDL-6
p205
aVDL-5
p206
aVDL-4
p207
aVDL-3
p208
aVDL-2
p209
aVDL-1
p210
a.