(lp0
VDOXIATOOLS-58
p1
aVDOXIATOOLS-57
p2
aVDOXIATOOLS-56
p3
aVDOXIATOOLS-55
p4
aVDOXIATOOLS-54
p5
aVDOXIATOOLS-46
p6
aVDOXIATOOLS-45
p7
aVDOXIATOOLS-43
p8
aVDOXIATOOLS-40
p9
aVDOXIATOOLS-39
p10
aVDOXIATOOLS-38
p11
aVDOXIATOOLS-37
p12
aVDOXIATOOLS-36
p13
aVDOXIATOOLS-31
p14
aVDOXIATOOLS-30
p15
aVDOXIATOOLS-29
p16
aVDOXIATOOLS-28
p17
aVDOXIATOOLS-27
p18
aVDOXIATOOLS-26
p19
aVDOXIATOOLS-25
p20
aVDOXIATOOLS-24
p21
aVDOXIATOOLS-23
p22
aVDOXIATOOLS-22
p23
aVDOXIATOOLS-21
p24
aVDOXIATOOLS-20
p25
aVDOXIATOOLS-19
p26
aVDOXIATOOLS-18
p27
aVDOXIATOOLS-17
p28
aVDOXIATOOLS-15
p29
aVDOXIATOOLS-14
p30
aVDOXIATOOLS-13
p31
aVDOXIATOOLS-12
p32
aVDOXIATOOLS-11
p33
aVDOXIATOOLS-10
p34
aVDOXIATOOLS-9
p35
aVDOXIATOOLS-8
p36
aVDOXIATOOLS-7
p37
aVDOXIATOOLS-6
p38
aVDOXIATOOLS-5
p39
aVDOXIATOOLS-4
p40
aVDOXIATOOLS-3
p41
aVDOXIATOOLS-2
p42
aVDOXIATOOLS-1
p43
a.