(lp0
VDOXIASITETOOLS-190
p1
aVDOXIASITETOOLS-189
p2
aVDOXIASITETOOLS-188
p3
aVDOXIASITETOOLS-187
p4
aVDOXIASITETOOLS-186
p5
aVDOXIASITETOOLS-185
p6
aVDOXIASITETOOLS-184
p7
aVDOXIASITETOOLS-183
p8
aVDOXIASITETOOLS-182
p9
aVDOXIASITETOOLS-181
p10
aVDOXIASITETOOLS-180
p11
aVDOXIASITETOOLS-179
p12
aVDOXIASITETOOLS-178
p13
aVDOXIASITETOOLS-177
p14
aVDOXIASITETOOLS-176
p15
aVDOXIASITETOOLS-175
p16
aVDOXIASITETOOLS-174
p17
aVDOXIASITETOOLS-173
p18
aVDOXIASITETOOLS-172
p19
aVDOXIASITETOOLS-171
p20
aVDOXIASITETOOLS-170
p21
aVDOXIASITETOOLS-169
p22
aVDOXIASITETOOLS-168
p23
aVDOXIASITETOOLS-167
p24
aVDOXIASITETOOLS-166
p25
aVDOXIASITETOOLS-165
p26
aVDOXIASITETOOLS-164
p27
aVDOXIASITETOOLS-163
p28
aVDOXIASITETOOLS-162
p29
aVDOXIASITETOOLS-161
p30
aVDOXIASITETOOLS-160
p31
aVDOXIASITETOOLS-159
p32
aVDOXIASITETOOLS-158
p33
aVDOXIASITETOOLS-157
p34
aVDOXIASITETOOLS-156
p35
aVDOXIASITETOOLS-155
p36
aVDOXIASITETOOLS-154
p37
aVDOXIASITETOOLS-153
p38
aVDOXIASITETOOLS-152
p39
aVDOXIASITETOOLS-151
p40
aVDOXIASITETOOLS-150
p41
aVDOXIASITETOOLS-149
p42
aVDOXIASITETOOLS-148
p43
aVDOXIASITETOOLS-147
p44
aVDOXIASITETOOLS-146
p45
aVDOXIASITETOOLS-145
p46
aVDOXIASITETOOLS-144
p47
aVDOXIASITETOOLS-143
p48
aVDOXIASITETOOLS-142
p49
aVDOXIASITETOOLS-141
p50
aVDOXIASITETOOLS-140
p51
aVDOXIASITETOOLS-139
p52
aVDOXIASITETOOLS-138
p53
aVDOXIASITETOOLS-137
p54
aVDOXIASITETOOLS-136
p55
aVDOXIASITETOOLS-135
p56
aVDOXIASITETOOLS-134
p57
aVDOXIASITETOOLS-133
p58
aVDOXIASITETOOLS-132
p59
aVDOXIASITETOOLS-131
p60
aVDOXIASITETOOLS-130
p61
aVDOXIASITETOOLS-129
p62
aVDOXIASITETOOLS-128
p63
aVDOXIASITETOOLS-127
p64
aVDOXIASITETOOLS-126
p65
aVDOXIASITETOOLS-125
p66
aVDOXIASITETOOLS-124
p67
aVDOXIASITETOOLS-123
p68
aVDOXIASITETOOLS-122
p69
aVDOXIASITETOOLS-121
p70
aVDOXIASITETOOLS-120
p71
aVDOXIASITETOOLS-119
p72
aVDOXIASITETOOLS-118
p73
aVDOXIASITETOOLS-117
p74
aVDOXIASITETOOLS-116
p75
aVDOXIASITETOOLS-115
p76
aVDOXIASITETOOLS-114
p77
aVDOXIASITETOOLS-113
p78
aVDOXIASITETOOLS-112
p79
aVDOXIASITETOOLS-111
p80
aVDOXIASITETOOLS-110
p81
aVDOXIASITETOOLS-109
p82
aVDOXIASITETOOLS-108
p83
aVDOXIASITETOOLS-107
p84
aVDOXIASITETOOLS-105
p85
aVDOXIASITETOOLS-104
p86
aVDOXIASITETOOLS-103
p87
aVDOXIASITETOOLS-102
p88
aVDOXIASITETOOLS-101
p89
aVDOXIASITETOOLS-100
p90
aVDOXIASITETOOLS-99
p91
aVDOXIASITETOOLS-98
p92
aVDOXIASITETOOLS-97
p93
aVDOXIASITETOOLS-96
p94
aVDOXIASITETOOLS-95
p95
aVDOXIASITETOOLS-94
p96
aVDOXIASITETOOLS-93
p97
aVDOXIASITETOOLS-92
p98
aVDOXIASITETOOLS-91
p99
aVDOXIASITETOOLS-90
p100
aVDOXIASITETOOLS-89
p101
aVDOXIASITETOOLS-88
p102
aVDOXIASITETOOLS-87
p103
aVDOXIASITETOOLS-86
p104
aVDOXIASITETOOLS-85
p105
aVDOXIASITETOOLS-84
p106
aVDOXIASITETOOLS-83
p107
aVDOXIASITETOOLS-82
p108
aVDOXIASITETOOLS-81
p109
aVDOXIASITETOOLS-80
p110
aVDOXIASITETOOLS-79
p111
aVDOXIASITETOOLS-78
p112
aVDOXIASITETOOLS-77
p113
aVDOXIASITETOOLS-76
p114
aVDOXIASITETOOLS-75
p115
aVDOXIASITETOOLS-74
p116
aVDOXIASITETOOLS-73
p117
aVDOXIASITETOOLS-72
p118
aVDOXIASITETOOLS-71
p119
aVDOXIASITETOOLS-70
p120
aVDOXIASITETOOLS-68
p121
aVDOXIASITETOOLS-67
p122
aVDOXIASITETOOLS-66
p123
aVDOXIASITETOOLS-65
p124
aVDOXIASITETOOLS-64
p125
aVDOXIASITETOOLS-63
p126
aVDOXIASITETOOLS-62
p127
aVDOXIASITETOOLS-61
p128
aVDOXIASITETOOLS-60
p129
aVDOXIASITETOOLS-59
p130
aVDOXIASITETOOLS-58
p131
aVDOXIASITETOOLS-57
p132
aVDOXIASITETOOLS-56
p133
aVDOXIASITETOOLS-55
p134
aVDOXIASITETOOLS-54
p135
aVDOXIASITETOOLS-53
p136
aVDOXIASITETOOLS-52
p137
aVDOXIASITETOOLS-50
p138
aVDOXIASITETOOLS-49
p139
aVDOXIASITETOOLS-48
p140
aVDOXIASITETOOLS-47
p141
aVDOXIASITETOOLS-46
p142
aVDOXIASITETOOLS-45
p143
aVDOXIASITETOOLS-44
p144
aVDOXIASITETOOLS-43
p145
aVDOXIASITETOOLS-42
p146
aVDOXIASITETOOLS-41
p147
aVDOXIASITETOOLS-40
p148
aVDOXIASITETOOLS-39
p149
aVDOXIASITETOOLS-38
p150
aVDOXIASITETOOLS-37
p151
aVDOXIASITETOOLS-36
p152
aVDOXIASITETOOLS-35
p153
aVDOXIASITETOOLS-34
p154
aVDOXIASITETOOLS-33
p155
aVDOXIASITETOOLS-32
p156
aVDOXIASITETOOLS-31
p157
aVDOXIASITETOOLS-30
p158
aVDOXIASITETOOLS-29
p159
aVDOXIASITETOOLS-25
p160
aVDOXIASITETOOLS-24
p161
aVDOXIASITETOOLS-23
p162
aVDOXIASITETOOLS-22
p163
aVDOXIASITETOOLS-21
p164
aVDOXIASITETOOLS-20
p165
aVDOXIASITETOOLS-19
p166
aVDOXIASITETOOLS-17
p167
aVDOXIASITETOOLS-16
p168
aVDOXIASITETOOLS-15
p169
aVDOXIASITETOOLS-13
p170
aVDOXIASITETOOLS-12
p171
aVDOXIASITETOOLS-11
p172
aVDOXIASITETOOLS-10
p173
aVDOXIASITETOOLS-9
p174
aVDOXIASITETOOLS-8
p175
aVDOXIASITETOOLS-7
p176
aVDOXIASITETOOLS-6
p177
aVDOXIASITETOOLS-5
p178
aVDOXIASITETOOLS-4
p179
aVDOXIASITETOOLS-3
p180
aVDOXIASITETOOLS-2
p181
aVDOXIASITETOOLS-1
p182
a.