(lp0
VDOXIA-576
p1
aVDOXIA-575
p2
aVDOXIA-574
p3
aVDOXIA-573
p4
aVDOXIA-572
p5
aVDOXIA-571
p6
aVDOXIA-570
p7
aVDOXIA-569
p8
aVDOXIA-568
p9
aVDOXIA-567
p10
aVDOXIA-566
p11
aVDOXIA-565
p12
aVDOXIA-564
p13
aVDOXIA-563
p14
aVDOXIA-562
p15
aVDOXIA-561
p16
aVDOXIA-560
p17
aVDOXIA-559
p18
aVDOXIA-558
p19
aVDOXIA-557
p20
aVDOXIA-556
p21
aVDOXIA-555
p22
aVDOXIA-554
p23
aVDOXIA-553
p24
aVDOXIA-552
p25
aVDOXIA-551
p26
aVDOXIA-550
p27
aVDOXIA-549
p28
aVDOXIA-548
p29
aVDOXIA-547
p30
aVDOXIA-546
p31
aVDOXIA-545
p32
aVDOXIA-544
p33
aVDOXIA-543
p34
aVDOXIA-542
p35
aVDOXIA-541
p36
aVDOXIA-540
p37
aVDOXIA-539
p38
aVDOXIA-538
p39
aVDOXIA-537
p40
aVDOXIA-536
p41
aVDOXIA-535
p42
aVDOXIA-534
p43
aVDOXIA-533
p44
aVDOXIA-532
p45
aVDOXIA-531
p46
aVDOXIA-529
p47
aVDOXIA-528
p48
aVDOXIA-527
p49
aVDOXIA-526
p50
aVDOXIA-525
p51
aVDOXIA-524
p52
aVDOXIA-523
p53
aVDOXIA-522
p54
aVDOXIA-521
p55
aVDOXIA-515
p56
aVDOXIA-514
p57
aVDOXIA-513
p58
aVDOXIA-511
p59
aVDOXIA-510
p60
aVDOXIA-509
p61
aVDOXIA-508
p62
aVDOXIA-507
p63
aVDOXIA-506
p64
aVDOXIA-505
p65
aVDOXIA-504
p66
aVDOXIA-503
p67
aVDOXIA-502
p68
aVDOXIA-501
p69
aVDOXIA-499
p70
aVDOXIA-498
p71
aVDOXIA-497
p72
aVDOXIA-496
p73
aVDOXIA-495
p74
aVDOXIA-493
p75
aVDOXIA-492
p76
aVDOXIA-491
p77
aVDOXIA-490
p78
aVDOXIA-489
p79
aVDOXIA-488
p80
aVDOXIA-487
p81
aVDOXIA-486
p82
aVDOXIA-485
p83
aVDOXIA-484
p84
aVDOXIA-483
p85
aVDOXIA-482
p86
aVDOXIA-481
p87
aVDOXIA-480
p88
aVDOXIA-479
p89
aVDOXIA-478
p90
aVDOXIA-477
p91
aVDOXIA-476
p92
aVDOXIA-475
p93
aVDOXIA-474
p94
aVDOXIA-473
p95
aVDOXIA-472
p96
aVDOXIA-471
p97
aVDOXIA-470
p98
aVDOXIA-469
p99
aVDOXIA-468
p100
aVDOXIA-467
p101
aVDOXIA-466
p102
aVDOXIA-465
p103
aVDOXIA-460
p104
aVDOXIA-457
p105
aVDOXIA-455
p106
aVDOXIA-454
p107
aVDOXIA-453
p108
aVDOXIA-452
p109
aVDOXIA-451
p110
aVDOXIA-449
p111
aVDOXIA-448
p112
aVDOXIA-447
p113
aVDOXIA-446
p114
aVDOXIA-445
p115
aVDOXIA-444
p116
aVDOXIA-443
p117
aVDOXIA-441
p118
aVDOXIA-440
p119
aVDOXIA-439
p120
aVDOXIA-437
p121
aVDOXIA-436
p122
aVDOXIA-435
p123
aVDOXIA-434
p124
aVDOXIA-433
p125
aVDOXIA-431
p126
aVDOXIA-430
p127
aVDOXIA-429
p128
aVDOXIA-428
p129
aVDOXIA-427
p130
aVDOXIA-426
p131
aVDOXIA-425
p132
aVDOXIA-423
p133
aVDOXIA-422
p134
aVDOXIA-420
p135
aVDOXIA-418
p136
aVDOXIA-417
p137
aVDOXIA-416
p138
aVDOXIA-415
p139
aVDOXIA-413
p140
aVDOXIA-409
p141
aVDOXIA-408
p142
aVDOXIA-407
p143
aVDOXIA-406
p144
aVDOXIA-405
p145
aVDOXIA-404
p146
aVDOXIA-403
p147
aVDOXIA-402
p148
aVDOXIA-401
p149
aVDOXIA-399
p150
aVDOXIA-398
p151
aVDOXIA-397
p152
aVDOXIA-395
p153
aVDOXIA-394
p154
aVDOXIA-393
p155
aVDOXIA-392
p156
aVDOXIA-391
p157
aVDOXIA-390
p158
aVDOXIA-388
p159
aVDOXIA-387
p160
aVDOXIA-386
p161
aVDOXIA-385
p162
aVDOXIA-384
p163
aVDOXIA-383
p164
aVDOXIA-382
p165
aVDOXIA-381
p166
aVDOXIA-379
p167
aVDOXIA-377
p168
aVDOXIA-376
p169
aVDOXIA-374
p170
aVDOXIA-373
p171
aVDOXIA-372
p172
aVDOXIA-371
p173
aVDOXIA-370
p174
aVDOXIA-367
p175
aVDOXIA-366
p176
aVDOXIA-365
p177
aVDOXIA-364
p178
aVDOXIA-363
p179
aVDOXIA-362
p180
aVDOXIA-361
p181
aVDOXIA-360
p182
aVDOXIA-359
p183
aVDOXIA-358
p184
aVDOXIA-357
p185
aVDOXIA-356
p186
aVDOXIA-353
p187
aVDOXIA-349
p188
aVDOXIA-348
p189
aVDOXIA-346
p190
aVDOXIA-345
p191
aVDOXIA-344
p192
aVDOXIA-343
p193
aVDOXIA-342
p194
aVDOXIA-341
p195
aVDOXIA-340
p196
aVDOXIA-339
p197
aVDOXIA-338
p198
aVDOXIA-337
p199
aVDOXIA-336
p200
aVDOXIA-334
p201
aVDOXIA-333
p202
aVDOXIA-332
p203
aVDOXIA-331
p204
aVDOXIA-330
p205
aVDOXIA-329
p206
aVDOXIA-328
p207
aVDOXIA-327
p208
aVDOXIA-326
p209
aVDOXIA-325
p210
aVDOXIA-324
p211
aVDOXIA-323
p212
aVDOXIA-322
p213
aVDOXIA-321
p214
aVDOXIA-320
p215
aVDOXIA-319
p216
aVDOXIA-318
p217
aVDOXIA-317
p218
aVDOXIA-316
p219
aVDOXIA-314
p220
aVDOXIA-313
p221
aVDOXIA-312
p222
aVDOXIA-311
p223
aVDOXIA-310
p224
aVDOXIA-309
p225
aVDOXIA-308
p226
aVDOXIA-307
p227
aVDOXIA-306
p228
aVDOXIA-305
p229
aVDOXIA-304
p230
aVDOXIA-303
p231
aVDOXIA-302
p232
aVDOXIA-301
p233
aVDOXIA-300
p234
aVDOXIA-299
p235
aVDOXIA-298
p236
aVDOXIA-297
p237
aVDOXIA-296
p238
aVDOXIA-295
p239
aVDOXIA-294
p240
aVDOXIA-293
p241
aVDOXIA-292
p242
aVDOXIA-291
p243
aVDOXIA-289
p244
aVDOXIA-288
p245
aVDOXIA-287
p246
aVDOXIA-286
p247
aVDOXIA-285
p248
aVDOXIA-284
p249
aVDOXIA-283
p250
aVDOXIA-282
p251
aVDOXIA-281
p252
aVDOXIA-280
p253
aVDOXIA-278
p254
aVDOXIA-277
p255
aVDOXIA-276
p256
aVDOXIA-275
p257
aVDOXIA-274
p258
aVDOXIA-273
p259
aVDOXIA-272
p260
aVDOXIA-270
p261
aVDOXIA-269
p262
aVDOXIA-268
p263
aVDOXIA-267
p264
aVDOXIA-266
p265
aVDOXIA-265
p266
aVDOXIA-264
p267
aVDOXIA-263
p268
aVDOXIA-262
p269
aVDOXIA-261
p270
aVDOXIA-260
p271
aVDOXIA-259
p272
aVDOXIA-258
p273
aVDOXIA-257
p274
aVDOXIA-256
p275
aVDOXIA-255
p276
aVDOXIA-254
p277
aVDOXIA-253
p278
aVDOXIA-252
p279
aVDOXIA-251
p280
aVDOXIA-250
p281
aVDOXIA-249
p282
aVDOXIA-248
p283
aVDOXIA-247
p284
aVDOXIA-246
p285
aVDOXIA-245
p286
aVDOXIA-244
p287
aVDOXIA-243
p288
aVDOXIA-242
p289
aVDOXIA-241
p290
aVDOXIA-240
p291
aVDOXIA-239
p292
aVDOXIA-238
p293
aVDOXIA-237
p294
aVDOXIA-236
p295
aVDOXIA-235
p296
aVDOXIA-234
p297
aVDOXIA-232
p298
aVDOXIA-231
p299
aVDOXIA-229
p300
aVDOXIA-227
p301
aVDOXIA-226
p302
aVDOXIA-225
p303
aVDOXIA-224
p304
aVDOXIA-223
p305
aVDOXIA-222
p306
aVDOXIA-221
p307
aVDOXIA-220
p308
aVDOXIA-219
p309
aVDOXIA-218
p310
aVDOXIA-217
p311
aVDOXIA-215
p312
aVDOXIA-213
p313
aVDOXIA-212
p314
aVDOXIA-210
p315
aVDOXIA-209
p316
aVDOXIA-208
p317
aVDOXIA-207
p318
aVDOXIA-206
p319
aVDOXIA-205
p320
aVDOXIA-204
p321
aVDOXIA-203
p322
aVDOXIA-202
p323
aVDOXIA-201
p324
aVDOXIA-200
p325
aVDOXIA-199
p326
aVDOXIA-198
p327
aVDOXIA-197
p328
aVDOXIA-196
p329
aVDOXIA-195
p330
aVDOXIA-194
p331
aVDOXIA-193
p332
aVDOXIA-192
p333
aVDOXIA-191
p334
aVDOXIA-190
p335
aVDOXIA-189
p336
aVDOXIA-187
p337
aVDOXIA-186
p338
aVDOXIA-185
p339
aVDOXIA-184
p340
aVDOXIA-183
p341
aVDOXIA-182
p342
aVDOXIA-181
p343
aVDOXIA-180
p344
aVDOXIA-179
p345
aVDOXIA-178
p346
aVDOXIA-177
p347
aVDOXIA-176
p348
aVDOXIA-175
p349
aVDOXIA-174
p350
aVDOXIA-173
p351
aVDOXIA-172
p352
aVDOXIA-171
p353
aVDOXIA-170
p354
aVDOXIA-169
p355
aVDOXIA-168
p356
aVDOXIA-167
p357
aVDOXIA-166
p358
aVDOXIA-165
p359
aVDOXIA-164
p360
aVDOXIA-163
p361
aVDOXIA-162
p362
aVDOXIA-161
p363
aVDOXIA-160
p364
aVDOXIA-159
p365
aVDOXIA-158
p366
aVDOXIA-157
p367
aVDOXIA-156
p368
aVDOXIA-155
p369
aVDOXIA-154
p370
aVDOXIA-153
p371
aVDOXIA-152
p372
aVDOXIA-151
p373
aVDOXIA-150
p374
aVDOXIA-149
p375
aVDOXIA-148
p376
aVDOXIA-147
p377
aVDOXIA-146
p378
aVDOXIA-145
p379
aVDOXIA-144
p380
aVDOXIA-143
p381
aVDOXIA-142
p382
aVDOXIA-141
p383
aVDOXIA-140
p384
aVDOXIA-139
p385
aVDOXIA-138
p386
aVDOXIA-137
p387
aVDOXIA-136
p388
aVDOXIA-135
p389
aVDOXIA-134
p390
aVDOXIA-133
p391
aVDOXIA-132
p392
aVDOXIA-131
p393
aVDOXIA-130
p394
aVDOXIA-129
p395
aVDOXIA-128
p396
aVDOXIA-127
p397
aVDOXIA-126
p398
aVDOXIA-125
p399
aVDOXIA-124
p400
aVDOXIA-123
p401
aVDOXIA-122
p402
aVDOXIA-120
p403
aVDOXIA-119
p404
aVDOXIA-118
p405
aVDOXIA-116
p406
aVDOXIA-115
p407
aVDOXIA-114
p408
aVDOXIA-113
p409
aVDOXIA-112
p410
aVDOXIA-111
p411
aVDOXIA-110
p412
aVDOXIA-109
p413
aVDOXIA-107
p414
aVDOXIA-106
p415
aVDOXIA-105
p416
aVDOXIA-104
p417
aVDOXIA-103
p418
aVDOXIA-102
p419
aVDOXIA-101
p420
aVDOXIA-100
p421
aVDOXIA-99
p422
aVDOXIA-98
p423
aVDOXIA-97
p424
aVDOXIA-96
p425
aVDOXIA-95
p426
aVDOXIA-94
p427
aVDOXIA-93
p428
aVDOXIA-92
p429
aVDOXIA-91
p430
aVDOXIA-90
p431
aVDOXIA-89
p432
aVDOXIA-88
p433
aVDOXIA-87
p434
aVDOXIA-86
p435
aVDOXIA-85
p436
aVDOXIA-84
p437
aVDOXIA-83
p438
aVDOXIA-81
p439
aVDOXIA-80
p440
aVDOXIA-79
p441
aVDOXIA-78
p442
aVDOXIA-77
p443
aVDOXIA-76
p444
aVDOXIA-75
p445
aVDOXIA-74
p446
aVDOXIA-73
p447
aVDOXIA-72
p448
aVDOXIA-71
p449
aVDOXIA-70
p450
aVDOXIA-69
p451
aVDOXIA-68
p452
aVDOXIA-67
p453
aVDOXIA-66
p454
aVDOXIA-65
p455
aVDOXIA-64
p456
aVDOXIA-63
p457
aVDOXIA-62
p458
aVDOXIA-61
p459
aVDOXIA-60
p460
aVDOXIA-59
p461
aVDOXIA-58
p462
aVDOXIA-57
p463
aVDOXIA-56
p464
aVDOXIA-55
p465
aVDOXIA-54
p466
aVDOXIA-53
p467
aVDOXIA-52
p468
aVDOXIA-51
p469
aVDOXIA-50
p470
aVDOXIA-49
p471
aVDOXIA-48
p472
aVDOXIA-47
p473
aVDOXIA-46
p474
aVDOXIA-45
p475
aVDOXIA-44
p476
aVDOXIA-43
p477
aVDOXIA-41
p478
aVDOXIA-40
p479
aVDOXIA-39
p480
aVDOXIA-38
p481
aVDOXIA-37
p482
aVDOXIA-36
p483
aVDOXIA-35
p484
aVDOXIA-34
p485
aVDOXIA-33
p486
aVDOXIA-32
p487
aVDOXIA-31
p488
aVDOXIA-30
p489
aVDOXIA-29
p490
aVDOXIA-28
p491
aVDOXIA-27
p492
aVDOXIA-26
p493
aVDOXIA-25
p494
aVDOXIA-24
p495
aVDOXIA-23
p496
aVDOXIA-22
p497
aVDOXIA-21
p498
aVDOXIA-20
p499
aVDOXIA-19
p500
aVDOXIA-18
p501
aVDOXIA-17
p502
aVDOXIA-16
p503
aVDOXIA-15
p504
aVDOXIA-14
p505
aVDOXIA-13
p506
aVDOXIA-12
p507
aVDOXIA-11
p508
aVDOXIA-10
p509
aVDOXIA-9
p510
aVDOXIA-8
p511
aVDOXIA-7
p512
aVDOXIA-6
p513
aVDOXIA-5
p514
aVDOXIA-4
p515
aVDOXIA-3
p516
aVDOXIA-2
p517
a.