(lp0
VDRILL-6664
p1
aVDRILL-6663
p2
aVDRILL-6662
p3
aVDRILL-6661
p4
aVDRILL-6660
p5
aVDRILL-6659
p6
aVDRILL-6658
p7
aVDRILL-6657
p8
aVDRILL-6656
p9
aVDRILL-6655
p10
aVDRILL-6654
p11
aVDRILL-6653
p12
aVDRILL-6652
p13
aVDRILL-6651
p14
aVDRILL-6650
p15
aVDRILL-6649
p16
aVDRILL-6648
p17
aVDRILL-6647
p18
aVDRILL-6646
p19
aVDRILL-6645
p20
aVDRILL-6644
p21
aVDRILL-6643
p22
aVDRILL-6642
p23
aVDRILL-6641
p24
aVDRILL-6640
p25
aVDRILL-6639
p26
aVDRILL-6638
p27
aVDRILL-6637
p28
aVDRILL-6636
p29
aVDRILL-6635
p30
aVDRILL-6634
p31
aVDRILL-6633
p32
aVDRILL-6632
p33
aVDRILL-6631
p34
aVDRILL-6630
p35
aVDRILL-6629
p36
aVDRILL-6628
p37
aVDRILL-6627
p38
aVDRILL-6626
p39
aVDRILL-6625
p40
aVDRILL-6624
p41
aVDRILL-6623
p42
aVDRILL-6622
p43
aVDRILL-6621
p44
aVDRILL-6620
p45
aVDRILL-6619
p46
aVDRILL-6618
p47
aVDRILL-6617
p48
aVDRILL-6616
p49
aVDRILL-6615
p50
aVDRILL-6614
p51
aVDRILL-6613
p52
aVDRILL-6612
p53
aVDRILL-6611
p54
aVDRILL-6610
p55
aVDRILL-6609
p56
aVDRILL-6608
p57
aVDRILL-6607
p58
aVDRILL-6606
p59
aVDRILL-6605
p60
aVDRILL-6604
p61
aVDRILL-6603
p62
aVDRILL-6602
p63
aVDRILL-6601
p64
aVDRILL-6600
p65
aVDRILL-6599
p66
aVDRILL-6598
p67
aVDRILL-6597
p68
aVDRILL-6596
p69
aVDRILL-6595
p70
aVDRILL-6594
p71
aVDRILL-6593
p72
aVDRILL-6592
p73
aVDRILL-6591
p74
aVDRILL-6590
p75
aVDRILL-6589
p76
aVDRILL-6588
p77
aVDRILL-6587
p78
aVDRILL-6586
p79
aVDRILL-6585
p80
aVDRILL-6584
p81
aVDRILL-6583
p82
aVDRILL-6582
p83
aVDRILL-6581
p84
aVDRILL-6580
p85
aVDRILL-6579
p86
aVDRILL-6578
p87
aVDRILL-6577
p88
aVDRILL-6576
p89
aVDRILL-6575
p90
aVDRILL-6574
p91
aVDRILL-6573
p92
aVDRILL-6572
p93
aVDRILL-6571
p94
aVDRILL-6570
p95
aVDRILL-6569
p96
aVDRILL-6568
p97
aVDRILL-6567
p98
aVDRILL-6566
p99
aVDRILL-6565
p100
aVDRILL-6564
p101
aVDRILL-6563
p102
aVDRILL-6562
p103
aVDRILL-6561
p104
aVDRILL-6560
p105
aVDRILL-6559
p106
aVDRILL-6558
p107
aVDRILL-6557
p108
aVDRILL-6556
p109
aVDRILL-6555
p110
aVDRILL-6554
p111
aVDRILL-6553
p112
aVDRILL-6552
p113
aVDRILL-6551
p114
aVDRILL-6550
p115
aVDRILL-6549
p116
aVDRILL-6548
p117
aVDRILL-6547
p118
aVDRILL-6546
p119
aVDRILL-6545
p120
aVDRILL-6544
p121
aVDRILL-6543
p122
aVDRILL-6542
p123
aVDRILL-6541
p124
aVDRILL-6540
p125
aVDRILL-6539
p126
aVDRILL-6538
p127
aVDRILL-6537
p128
aVDRILL-6536
p129
aVDRILL-6535
p130
aVDRILL-6534
p131
aVDRILL-6533
p132
aVDRILL-6532
p133
aVDRILL-6531
p134
aVDRILL-6530
p135
aVDRILL-6529
p136
aVDRILL-6528
p137
aVDRILL-6527
p138
aVDRILL-6526
p139
aVDRILL-6525
p140
aVDRILL-6524
p141
aVDRILL-6523
p142
aVDRILL-6522
p143
aVDRILL-6521
p144
aVDRILL-6520
p145
aVDRILL-6519
p146
aVDRILL-6518
p147
aVDRILL-6517
p148
aVDRILL-6516
p149
aVDRILL-6515
p150
aVDRILL-6514
p151
aVDRILL-6513
p152
aVDRILL-6512
p153
aVDRILL-6511
p154
aVDRILL-6510
p155
aVDRILL-6509
p156
aVDRILL-6508
p157
aVDRILL-6507
p158
aVDRILL-6506
p159
aVDRILL-6505
p160
aVDRILL-6504
p161
aVDRILL-6503
p162
aVDRILL-6502
p163
aVDRILL-6501
p164
aVDRILL-6500
p165
aVDRILL-6499
p166
aVDRILL-6498
p167
aVDRILL-6497
p168
aVDRILL-6496
p169
aVDRILL-6495
p170
aVDRILL-6494
p171
aVDRILL-6493
p172
aVDRILL-6492
p173
aVDRILL-6491
p174
aVDRILL-6490
p175
aVDRILL-6489
p176
aVDRILL-6488
p177
aVDRILL-6487
p178
aVDRILL-6486
p179
aVDRILL-6485
p180
aVDRILL-6484
p181
aVDRILL-6483
p182
aVDRILL-6482
p183
aVDRILL-6481
p184
aVDRILL-6480
p185
aVDRILL-6479
p186
aVDRILL-6478
p187
aVDRILL-6477
p188
aVDRILL-6476
p189
aVDRILL-6475
p190
aVDRILL-6474
p191
aVDRILL-6473
p192
aVDRILL-6472
p193
aVDRILL-6471
p194
aVDRILL-6470
p195
aVDRILL-6469
p196
aVDRILL-6468
p197
aVDRILL-6467
p198
aVDRILL-6466
p199
aVDRILL-6465
p200
aVDRILL-6464
p201
aVDRILL-6463
p202
aVDRILL-6462
p203
aVDRILL-6461
p204
aVDRILL-6460
p205
aVDRILL-6459
p206
aVDRILL-6458
p207
aVDRILL-6457
p208
aVDRILL-6456
p209
aVDRILL-6455
p210
aVDRILL-6454
p211
aVDRILL-6453
p212
aVDRILL-6452
p213
aVDRILL-6451
p214
aVDRILL-6450
p215
aVDRILL-6449
p216
aVDRILL-6448
p217
aVDRILL-6447
p218
aVDRILL-6446
p219
aVDRILL-6445
p220
aVDRILL-6444
p221
aVDRILL-6443
p222
aVDRILL-6442
p223
aVDRILL-6441
p224
aVDRILL-6440
p225
aVDRILL-6439
p226
aVDRILL-6438
p227
aVDRILL-6437
p228
aVDRILL-6436
p229
aVDRILL-6435
p230
aVDRILL-6434
p231
aVDRILL-6433
p232
aVDRILL-6432
p233
aVDRILL-6431
p234
aVDRILL-6430
p235
aVDRILL-6429
p236
aVDRILL-6428
p237
aVDRILL-6427
p238
aVDRILL-6426
p239
aVDRILL-6425
p240
aVDRILL-6424
p241
aVDRILL-6423
p242
aVDRILL-6422
p243
aVDRILL-6421
p244
aVDRILL-6420
p245
aVDRILL-6419
p246
aVDRILL-6418
p247
aVDRILL-6417
p248
aVDRILL-6416
p249
aVDRILL-6415
p250
aVDRILL-6414
p251
aVDRILL-6413
p252
aVDRILL-6412
p253
aVDRILL-6411
p254
aVDRILL-6410
p255
aVDRILL-6409
p256
aVDRILL-6408
p257
aVDRILL-6407
p258
aVDRILL-6406
p259
aVDRILL-6405
p260
aVDRILL-6404
p261
aVDRILL-6403
p262
aVDRILL-6402
p263
aVDRILL-6401
p264
aVDRILL-6400
p265
aVDRILL-6399
p266
aVDRILL-6398
p267
aVDRILL-6397
p268
aVDRILL-6396
p269
aVDRILL-6395
p270
aVDRILL-6394
p271
aVDRILL-6393
p272
aVDRILL-6392
p273
aVDRILL-6391
p274
aVDRILL-6390
p275
aVDRILL-6389
p276
aVDRILL-6388
p277
aVDRILL-6387
p278
aVDRILL-6386
p279
aVDRILL-6385
p280
aVDRILL-6384
p281
aVDRILL-6383
p282
aVDRILL-6382
p283
aVDRILL-6381
p284
aVDRILL-6380
p285
aVDRILL-6379
p286
aVDRILL-6378
p287
aVDRILL-6377
p288
aVDRILL-6376
p289
aVDRILL-6375
p290
aVDRILL-6374
p291
aVDRILL-6373
p292
aVDRILL-6372
p293
aVDRILL-6371
p294
aVDRILL-6370
p295
aVDRILL-6369
p296
aVDRILL-6368
p297
aVDRILL-6367
p298
aVDRILL-6366
p299
aVDRILL-6365
p300
aVDRILL-6364
p301
aVDRILL-6363
p302
aVDRILL-6362
p303
aVDRILL-6361
p304
aVDRILL-6360
p305
aVDRILL-6359
p306
aVDRILL-6358
p307
aVDRILL-6357
p308
aVDRILL-6356
p309
aVDRILL-6355
p310
aVDRILL-6354
p311
aVDRILL-6353
p312
aVDRILL-6352
p313
aVDRILL-6351
p314
aVDRILL-6350
p315
aVDRILL-6349
p316
aVDRILL-6348
p317
aVDRILL-6347
p318
aVDRILL-6346
p319
aVDRILL-6345
p320
aVDRILL-6344
p321
aVDRILL-6343
p322
aVDRILL-6342
p323
aVDRILL-6341
p324
aVDRILL-6340
p325
aVDRILL-6339
p326
aVDRILL-6338
p327
aVDRILL-6337
p328
aVDRILL-6336
p329
aVDRILL-6335
p330
aVDRILL-6334
p331
aVDRILL-6333
p332
aVDRILL-6332
p333
aVDRILL-6331
p334
aVDRILL-6330
p335
aVDRILL-6329
p336
aVDRILL-6328
p337
aVDRILL-6327
p338
aVDRILL-6326
p339
aVDRILL-6325
p340
aVDRILL-6324
p341
aVDRILL-6323
p342
aVDRILL-6322
p343
aVDRILL-6321
p344
aVDRILL-6320
p345
aVDRILL-6319
p346
aVDRILL-6318
p347
aVDRILL-6317
p348
aVDRILL-6316
p349
aVDRILL-6315
p350
aVDRILL-6314
p351
aVDRILL-6313
p352
aVDRILL-6312
p353
aVDRILL-6311
p354
aVDRILL-6310
p355
aVDRILL-6309
p356
aVDRILL-6308
p357
aVDRILL-6307
p358
aVDRILL-6306
p359
aVDRILL-6305
p360
aVDRILL-6304
p361
aVDRILL-6303
p362
aVDRILL-6302
p363
aVDRILL-6301
p364
aVDRILL-6300
p365
aVDRILL-6299
p366
aVDRILL-6298
p367
aVDRILL-6297
p368
aVDRILL-6296
p369
aVDRILL-6295
p370
aVDRILL-6294
p371
aVDRILL-6293
p372
aVDRILL-6292
p373
aVDRILL-6291
p374
aVDRILL-6290
p375
aVDRILL-6289
p376
aVDRILL-6288
p377
aVDRILL-6287
p378
aVDRILL-6286
p379
aVDRILL-6285
p380
aVDRILL-6284
p381
aVDRILL-6283
p382
aVDRILL-6282
p383
aVDRILL-6281
p384
aVDRILL-6280
p385
aVDRILL-6279
p386
aVDRILL-6278
p387
aVDRILL-6277
p388
aVDRILL-6276
p389
aVDRILL-6275
p390
aVDRILL-6274
p391
aVDRILL-6273
p392
aVDRILL-6272
p393
aVDRILL-6271
p394
aVDRILL-6270
p395
aVDRILL-6269
p396
aVDRILL-6268
p397
aVDRILL-6267
p398
aVDRILL-6266
p399
aVDRILL-6265
p400
aVDRILL-6264
p401
aVDRILL-6263
p402
aVDRILL-6262
p403
aVDRILL-6261
p404
aVDRILL-6260
p405
aVDRILL-6259
p406
aVDRILL-6258
p407
aVDRILL-6257
p408
aVDRILL-6256
p409
aVDRILL-6255
p410
aVDRILL-6254
p411
aVDRILL-6253
p412
aVDRILL-6252
p413
aVDRILL-6251
p414
aVDRILL-6250
p415
aVDRILL-6249
p416
aVDRILL-6248
p417
aVDRILL-6247
p418
aVDRILL-6246
p419
aVDRILL-6245
p420
aVDRILL-6244
p421
aVDRILL-6243
p422
aVDRILL-6242
p423
aVDRILL-6241
p424
aVDRILL-6240
p425
aVDRILL-6239
p426
aVDRILL-6238
p427
aVDRILL-6237
p428
aVDRILL-6236
p429
aVDRILL-6235
p430
aVDRILL-6234
p431
aVDRILL-6233
p432
aVDRILL-6232
p433
aVDRILL-6231
p434
aVDRILL-6230
p435
aVDRILL-6229
p436
aVDRILL-6228
p437
aVDRILL-6227
p438
aVDRILL-6226
p439
aVDRILL-6225
p440
aVDRILL-6224
p441
aVDRILL-6223
p442
aVDRILL-6222
p443
aVDRILL-6221
p444
aVDRILL-6220
p445
aVDRILL-6219
p446
aVDRILL-6218
p447
aVDRILL-6217
p448
aVDRILL-6216
p449
aVDRILL-6215
p450
aVDRILL-6214
p451
aVDRILL-6213
p452
aVDRILL-6212
p453
aVDRILL-6211
p454
aVDRILL-6210
p455
aVDRILL-6209
p456
aVDRILL-6208
p457
aVDRILL-6207
p458
aVDRILL-6206
p459
aVDRILL-6205
p460
aVDRILL-6204
p461
aVDRILL-6203
p462
aVDRILL-6202
p463
aVDRILL-6201
p464
aVDRILL-6200
p465
aVDRILL-6199
p466
aVDRILL-6198
p467
aVDRILL-6197
p468
aVDRILL-6196
p469
aVDRILL-6195
p470
aVDRILL-6194
p471
aVDRILL-6193
p472
aVDRILL-6192
p473
aVDRILL-6191
p474
aVDRILL-6190
p475
aVDRILL-6189
p476
aVDRILL-6188
p477
aVDRILL-6187
p478
aVDRILL-6186
p479
aVDRILL-6185
p480
aVDRILL-6184
p481
aVDRILL-6183
p482
aVDRILL-6182
p483
aVDRILL-6181
p484
aVDRILL-6180
p485
aVDRILL-6179
p486
aVDRILL-6178
p487
aVDRILL-6177
p488
aVDRILL-6176
p489
aVDRILL-6175
p490
aVDRILL-6174
p491
aVDRILL-6173
p492
aVDRILL-6172
p493
aVDRILL-6171
p494
aVDRILL-6170
p495
aVDRILL-6169
p496
aVDRILL-6168
p497
aVDRILL-6167
p498
aVDRILL-6166
p499
aVDRILL-6165
p500
aVDRILL-6164
p501
aVDRILL-6163
p502
aVDRILL-6162
p503
aVDRILL-6161
p504
aVDRILL-6160
p505
aVDRILL-6159
p506
aVDRILL-6158
p507
aVDRILL-6157
p508
aVDRILL-6156
p509
aVDRILL-6155
p510
aVDRILL-6154
p511
aVDRILL-6153
p512
aVDRILL-6152
p513
aVDRILL-6151
p514
aVDRILL-6150
p515
aVDRILL-6149
p516
aVDRILL-6148
p517
aVDRILL-6147
p518
aVDRILL-6146
p519
aVDRILL-6145
p520
aVDRILL-6144
p521
aVDRILL-6143
p522
aVDRILL-6142
p523
aVDRILL-6141
p524
aVDRILL-6140
p525
aVDRILL-6139
p526
aVDRILL-6138
p527
aVDRILL-6137
p528
aVDRILL-6136
p529
aVDRILL-6135
p530
aVDRILL-6134
p531
aVDRILL-6133
p532
aVDRILL-6132
p533
aVDRILL-6131
p534
aVDRILL-6130
p535
aVDRILL-6129
p536
aVDRILL-6128
p537
aVDRILL-6127
p538
aVDRILL-6126
p539
aVDRILL-6125
p540
aVDRILL-6124
p541
aVDRILL-6123
p542
aVDRILL-6122
p543
aVDRILL-6121
p544
aVDRILL-6120
p545
aVDRILL-6119
p546
aVDRILL-6118
p547
aVDRILL-6117
p548
aVDRILL-6116
p549
aVDRILL-6115
p550
aVDRILL-6114
p551
aVDRILL-6113
p552
aVDRILL-6112
p553
aVDRILL-6111
p554
aVDRILL-6110
p555
aVDRILL-6109
p556
aVDRILL-6108
p557
aVDRILL-6107
p558
aVDRILL-6106
p559
aVDRILL-6105
p560
aVDRILL-6104
p561
aVDRILL-6103
p562
aVDRILL-6102
p563
aVDRILL-6101
p564
aVDRILL-6100
p565
aVDRILL-6099
p566
aVDRILL-6098
p567
aVDRILL-6097
p568
aVDRILL-6096
p569
aVDRILL-6095
p570
aVDRILL-6094
p571
aVDRILL-6093
p572
aVDRILL-6092
p573
aVDRILL-6091
p574
aVDRILL-6090
p575
aVDRILL-6089
p576
aVDRILL-6088
p577
aVDRILL-6087
p578
aVDRILL-6086
p579
aVDRILL-6085
p580
aVDRILL-6084
p581
aVDRILL-6083
p582
aVDRILL-6082
p583
aVDRILL-6081
p584
aVDRILL-6080
p585
aVDRILL-6079
p586
aVDRILL-6078
p587
aVDRILL-6077
p588
aVDRILL-6076
p589
aVDRILL-6075
p590
aVDRILL-6074
p591
aVDRILL-6073
p592
aVDRILL-6072
p593
aVDRILL-6071
p594
aVDRILL-6070
p595
aVDRILL-6069
p596
aVDRILL-6068
p597
aVDRILL-6067
p598
aVDRILL-6066
p599
aVDRILL-6065
p600
aVDRILL-6064
p601
aVDRILL-6063
p602
aVDRILL-6062
p603
aVDRILL-6061
p604
aVDRILL-6060
p605
aVDRILL-6059
p606
aVDRILL-6058
p607
aVDRILL-6057
p608
aVDRILL-6056
p609
aVDRILL-6055
p610
aVDRILL-6054
p611
aVDRILL-6053
p612
aVDRILL-6052
p613
aVDRILL-6051
p614
aVDRILL-6050
p615
aVDRILL-6049
p616
aVDRILL-6048
p617
aVDRILL-6047
p618
aVDRILL-6046
p619
aVDRILL-6045
p620
aVDRILL-6044
p621
aVDRILL-6043
p622
aVDRILL-6040
p623
aVDRILL-6039
p624
aVDRILL-6038
p625
aVDRILL-6037
p626
aVDRILL-6036
p627
aVDRILL-6035
p628
aVDRILL-6034
p629
aVDRILL-6033
p630
aVDRILL-6032
p631
aVDRILL-6031
p632
aVDRILL-6030
p633
aVDRILL-6029
p634
aVDRILL-6028
p635
aVDRILL-6027
p636
aVDRILL-6026
p637
aVDRILL-6025
p638
aVDRILL-6024
p639
aVDRILL-6023
p640
aVDRILL-6022
p641
aVDRILL-6021
p642
aVDRILL-6020
p643
aVDRILL-6019
p644
aVDRILL-6018
p645
aVDRILL-6017
p646
aVDRILL-6016
p647
aVDRILL-6015
p648
aVDRILL-6014
p649
aVDRILL-6013
p650
aVDRILL-6012
p651
aVDRILL-6011
p652
aVDRILL-6010
p653
aVDRILL-6009
p654
aVDRILL-6008
p655
aVDRILL-6007
p656
aVDRILL-6006
p657
aVDRILL-6005
p658
aVDRILL-6004
p659
aVDRILL-6003
p660
aVDRILL-6002
p661
aVDRILL-6001
p662
aVDRILL-6000
p663
aVDRILL-5999
p664
aVDRILL-5998
p665
aVDRILL-5997
p666
aVDRILL-5996
p667
aVDRILL-5995
p668
aVDRILL-5994
p669
aVDRILL-5993
p670
aVDRILL-5992
p671
aVDRILL-5991
p672
aVDRILL-5990
p673
aVDRILL-5989
p674
aVDRILL-5988
p675
aVDRILL-5987
p676
aVDRILL-5986
p677
aVDRILL-5985
p678
aVDRILL-5984
p679
aVDRILL-5983
p680
aVDRILL-5982
p681
aVDRILL-5981
p682
aVDRILL-5980
p683
aVDRILL-5979
p684
aVDRILL-5978
p685
aVDRILL-5977
p686
aVDRILL-5976
p687
aVDRILL-5975
p688
aVDRILL-5974
p689
aVDRILL-5973
p690
aVDRILL-5972
p691
aVDRILL-5971
p692
aVDRILL-5970
p693
aVDRILL-5969
p694
aVDRILL-5968
p695
aVDRILL-5967
p696
aVDRILL-5966
p697
aVDRILL-5965
p698
aVDRILL-5964
p699
aVDRILL-5963
p700
aVDRILL-5962
p701
aVDRILL-5961
p702
aVDRILL-5960
p703
aVDRILL-5959
p704
aVDRILL-5958
p705
aVDRILL-5957
p706
aVDRILL-5956
p707
aVDRILL-5955
p708
aVDRILL-5954
p709
aVDRILL-5953
p710
aVDRILL-5952
p711
aVDRILL-5951
p712
aVDRILL-5950
p713
aVDRILL-5949
p714
aVDRILL-5948
p715
aVDRILL-5947
p716
aVDRILL-5946
p717
aVDRILL-5945
p718
aVDRILL-5944
p719
aVDRILL-5943
p720
aVDRILL-5942
p721
aVDRILL-5941
p722
aVDRILL-5940
p723
aVDRILL-5939
p724
aVDRILL-5938
p725
aVDRILL-5937
p726
aVDRILL-5936
p727
aVDRILL-5935
p728
aVDRILL-5934
p729
aVDRILL-5933
p730
aVDRILL-5932
p731
aVDRILL-5931
p732
aVDRILL-5930
p733
aVDRILL-5929
p734
aVDRILL-5928
p735
aVDRILL-5927
p736
aVDRILL-5926
p737
aVDRILL-5925
p738
aVDRILL-5924
p739
aVDRILL-5923
p740
aVDRILL-5922
p741
aVDRILL-5921
p742
aVDRILL-5920
p743
aVDRILL-5919
p744
aVDRILL-5918
p745
aVDRILL-5917
p746
aVDRILL-5916
p747
aVDRILL-5915
p748
aVDRILL-5914
p749
aVDRILL-5913
p750
aVDRILL-5912
p751
aVDRILL-5911
p752
aVDRILL-5910
p753
aVDRILL-5909
p754
aVDRILL-5908
p755
aVDRILL-5907
p756
aVDRILL-5906
p757
aVDRILL-5905
p758
aVDRILL-5904
p759
aVDRILL-5903
p760
aVDRILL-5902
p761
aVDRILL-5901
p762
aVDRILL-5900
p763
aVDRILL-5899
p764
aVDRILL-5898
p765
aVDRILL-5897
p766
aVDRILL-5896
p767
aVDRILL-5895
p768
aVDRILL-5894
p769
aVDRILL-5893
p770
aVDRILL-5892
p771
aVDRILL-5891
p772
aVDRILL-5890
p773
aVDRILL-5889
p774
aVDRILL-5888
p775
aVDRILL-5887
p776
aVDRILL-5886
p777
aVDRILL-5885
p778
aVDRILL-5884
p779
aVDRILL-5883
p780
aVDRILL-5882
p781
aVDRILL-5881
p782
aVDRILL-5880
p783
aVDRILL-5879
p784
aVDRILL-5878
p785
aVDRILL-5877
p786
aVDRILL-5876
p787
aVDRILL-5875
p788
aVDRILL-5874
p789
aVDRILL-5873
p790
aVDRILL-5872
p791
aVDRILL-5871
p792
aVDRILL-5870
p793
aVDRILL-5869
p794
aVDRILL-5868
p795
aVDRILL-5867
p796
aVDRILL-5866
p797
aVDRILL-5865
p798
aVDRILL-5864
p799
aVDRILL-5863
p800
aVDRILL-5862
p801
aVDRILL-5861
p802
aVDRILL-5860
p803
aVDRILL-5859
p804
aVDRILL-5858
p805
aVDRILL-5857
p806
aVDRILL-5856
p807
aVDRILL-5855
p808
aVDRILL-5854
p809
aVDRILL-5853
p810
aVDRILL-5852
p811
aVDRILL-5851
p812
aVDRILL-5850
p813
aVDRILL-5849
p814
aVDRILL-5848
p815
aVDRILL-5847
p816
aVDRILL-5846
p817
aVDRILL-5845
p818
aVDRILL-5844
p819
aVDRILL-5843
p820
aVDRILL-5842
p821
aVDRILL-5841
p822
aVDRILL-5840
p823
aVDRILL-5839
p824
aVDRILL-5838
p825
aVDRILL-5837
p826
aVDRILL-5836
p827
aVDRILL-5835
p828
aVDRILL-5834
p829
aVDRILL-5833
p830
aVDRILL-5832
p831
aVDRILL-5831
p832
aVDRILL-5830
p833
aVDRILL-5829
p834
aVDRILL-5828
p835
aVDRILL-5827
p836
aVDRILL-5826
p837
aVDRILL-5825
p838
aVDRILL-5824
p839
aVDRILL-5823
p840
aVDRILL-5822
p841
aVDRILL-5821
p842
aVDRILL-5820
p843
aVDRILL-5819
p844
aVDRILL-5818
p845
aVDRILL-5817
p846
aVDRILL-5816
p847
aVDRILL-5815
p848
aVDRILL-5814
p849
aVDRILL-5813
p850
aVDRILL-5812
p851
aVDRILL-5811
p852
aVDRILL-5810
p853
aVDRILL-5809
p854
aVDRILL-5808
p855
aVDRILL-5807
p856
aVDRILL-5806
p857
aVDRILL-5805
p858
aVDRILL-5804
p859
aVDRILL-5803
p860
aVDRILL-5802
p861
aVDRILL-5801
p862
aVDRILL-5800
p863
aVDRILL-5799
p864
aVDRILL-5798
p865
aVDRILL-5797
p866
aVDRILL-5796
p867
aVDRILL-5795
p868
aVDRILL-5794
p869
aVDRILL-5793
p870
aVDRILL-5792
p871
aVDRILL-5791
p872
aVDRILL-5790
p873
aVDRILL-5789
p874
aVDRILL-5788
p875
aVDRILL-5787
p876
aVDRILL-5786
p877
aVDRILL-5785
p878
aVDRILL-5784
p879
aVDRILL-5783
p880
aVDRILL-5782
p881
aVDRILL-5781
p882
aVDRILL-5780
p883
aVDRILL-5779
p884
aVDRILL-5778
p885
aVDRILL-5777
p886
aVDRILL-5776
p887
aVDRILL-5775
p888
aVDRILL-5774
p889
aVDRILL-5773
p890
aVDRILL-5772
p891
aVDRILL-5771
p892
aVDRILL-5770
p893
aVDRILL-5769
p894
aVDRILL-5768
p895
aVDRILL-5767
p896
aVDRILL-5766
p897
aVDRILL-5765
p898
aVDRILL-5764
p899
aVDRILL-5763
p900
aVDRILL-5762
p901
aVDRILL-5761
p902
aVDRILL-5760
p903
aVDRILL-5759
p904
aVDRILL-5758
p905
aVDRILL-5757
p906
aVDRILL-5756
p907
aVDRILL-5755
p908
aVDRILL-5754
p909
aVDRILL-5753
p910
aVDRILL-5752
p911
aVDRILL-5751
p912
aVDRILL-5750
p913
aVDRILL-5749
p914
aVDRILL-5748
p915
aVDRILL-5747
p916
aVDRILL-5746
p917
aVDRILL-5745
p918
aVDRILL-5744
p919
aVDRILL-5743
p920
aVDRILL-5742
p921
aVDRILL-5741
p922
aVDRILL-5740
p923
aVDRILL-5739
p924
aVDRILL-5738
p925
aVDRILL-5737
p926
aVDRILL-5736
p927
aVDRILL-5735
p928
aVDRILL-5734
p929
aVDRILL-5733
p930
aVDRILL-5732
p931
aVDRILL-5731
p932
aVDRILL-5730
p933
aVDRILL-5729
p934
aVDRILL-5728
p935
aVDRILL-5727
p936
aVDRILL-5726
p937
aVDRILL-5725
p938
aVDRILL-5724
p939
aVDRILL-5723
p940
aVDRILL-5722
p941
aVDRILL-5721
p942
aVDRILL-5720
p943
aVDRILL-5719
p944
aVDRILL-5718
p945
aVDRILL-5717
p946
aVDRILL-5716
p947
aVDRILL-5715
p948
aVDRILL-5714
p949
aVDRILL-5713
p950
aVDRILL-5712
p951
aVDRILL-5711
p952
aVDRILL-5710
p953
aVDRILL-5709
p954
aVDRILL-5708
p955
aVDRILL-5707
p956
aVDRILL-5706
p957
aVDRILL-5705
p958
aVDRILL-5704
p959
aVDRILL-5703
p960
aVDRILL-5702
p961
aVDRILL-5701
p962
aVDRILL-5700
p963
aVDRILL-5699
p964
aVDRILL-5698
p965
aVDRILL-5697
p966
aVDRILL-5696
p967
aVDRILL-5695
p968
aVDRILL-5694
p969
aVDRILL-5693
p970
aVDRILL-5692
p971
aVDRILL-5691
p972
aVDRILL-5690
p973
aVDRILL-5689
p974
aVDRILL-5688
p975
aVDRILL-5687
p976
aVDRILL-5686
p977
aVDRILL-5685
p978
aVDRILL-5684
p979
aVDRILL-5683
p980
aVDRILL-5682
p981
aVDRILL-5681
p982
aVDRILL-5680
p983
aVDRILL-5679
p984
aVDRILL-5678
p985
aVDRILL-5677
p986
aVDRILL-5676
p987
aVDRILL-5675
p988
aVDRILL-5674
p989
aVDRILL-5673
p990
aVDRILL-5672
p991
aVDRILL-5671
p992
aVDRILL-5670
p993
aVDRILL-5669
p994
aVDRILL-5668
p995
aVDRILL-5667
p996
aVDRILL-5666
p997
aVDRILL-5665
p998
aVDRILL-5664
p999
aVDRILL-5663
p1000
aVDRILL-5662
p1001
aVDRILL-5661
p1002
aVDRILL-5660
p1003
aVDRILL-5659
p1004
aVDRILL-5658
p1005
aVDRILL-5657
p1006
aVDRILL-5656
p1007
aVDRILL-5655
p1008
aVDRILL-5654
p1009
aVDRILL-5653
p1010
aVDRILL-5652
p1011
aVDRILL-5651
p1012
aVDRILL-5650
p1013
aVDRILL-5649
p1014
aVDRILL-5648
p1015
aVDRILL-5647
p1016
aVDRILL-5646
p1017
aVDRILL-5645
p1018
aVDRILL-5644
p1019
aVDRILL-5643
p1020
aVDRILL-5642
p1021
aVDRILL-5641
p1022
aVDRILL-5640
p1023
aVDRILL-5639
p1024
aVDRILL-5638
p1025
aVDRILL-5637
p1026
aVDRILL-5636
p1027
aVDRILL-5635
p1028
aVDRILL-5634
p1029
aVDRILL-5633
p1030
aVDRILL-5632
p1031
aVDRILL-5631
p1032
aVDRILL-5630
p1033
aVDRILL-5629
p1034
aVDRILL-5628
p1035
aVDRILL-5627
p1036
aVDRILL-5626
p1037
aVDRILL-5625
p1038
aVDRILL-5624
p1039
aVDRILL-5623
p1040
aVDRILL-5622
p1041
aVDRILL-5621
p1042
aVDRILL-5620
p1043
aVDRILL-5619
p1044
aVDRILL-5618
p1045
aVDRILL-5617
p1046
aVDRILL-5616
p1047
aVDRILL-5615
p1048
aVDRILL-5614
p1049
aVDRILL-5613
p1050
aVDRILL-5612
p1051
aVDRILL-5611
p1052
aVDRILL-5610
p1053
aVDRILL-5609
p1054
aVDRILL-5608
p1055
aVDRILL-5607
p1056
aVDRILL-5606
p1057
aVDRILL-5605
p1058
aVDRILL-5604
p1059
aVDRILL-5603
p1060
aVDRILL-5602
p1061
aVDRILL-5601
p1062
aVDRILL-5600
p1063
aVDRILL-5599
p1064
aVDRILL-5598
p1065
aVDRILL-5597
p1066
aVDRILL-5596
p1067
aVDRILL-5595
p1068
aVDRILL-5594
p1069
aVDRILL-5593
p1070
aVDRILL-5592
p1071
aVDRILL-5591
p1072
aVDRILL-5590
p1073
aVDRILL-5589
p1074
aVDRILL-5588
p1075
aVDRILL-5587
p1076
aVDRILL-5586
p1077
aVDRILL-5585
p1078
aVDRILL-5584
p1079
aVDRILL-5583
p1080
aVDRILL-5582
p1081
aVDRILL-5581
p1082
aVDRILL-5580
p1083
aVDRILL-5579
p1084
aVDRILL-5578
p1085
aVDRILL-5577
p1086
aVDRILL-5576
p1087
aVDRILL-5575
p1088
aVDRILL-5574
p1089
aVDRILL-5573
p1090
aVDRILL-5572
p1091
aVDRILL-5571
p1092
aVDRILL-5570
p1093
aVDRILL-5569
p1094
aVDRILL-5568
p1095
aVDRILL-5567
p1096
aVDRILL-5566
p1097
aVDRILL-5565
p1098
aVDRILL-5564
p1099
aVDRILL-5563
p1100
aVDRILL-5562
p1101
aVDRILL-5561
p1102
aVDRILL-5560
p1103
aVDRILL-5559
p1104
aVDRILL-5558
p1105
aVDRILL-5557
p1106
aVDRILL-5556
p1107
aVDRILL-5555
p1108
aVDRILL-5554
p1109
aVDRILL-5553
p1110
aVDRILL-5552
p1111
aVDRILL-5551
p1112
aVDRILL-5550
p1113
aVDRILL-5549
p1114
aVDRILL-5548
p1115
aVDRILL-5547
p1116
aVDRILL-5546
p1117
aVDRILL-5545
p1118
aVDRILL-5544
p1119
aVDRILL-5543
p1120
aVDRILL-5542
p1121
aVDRILL-5541
p1122
aVDRILL-5540
p1123
aVDRILL-5539
p1124
aVDRILL-5538
p1125
aVDRILL-5537
p1126
aVDRILL-5536
p1127
aVDRILL-5535
p1128
aVDRILL-5534
p1129
aVDRILL-5533
p1130
aVDRILL-5532
p1131
aVDRILL-5531
p1132
aVDRILL-5530
p1133
aVDRILL-5529
p1134
aVDRILL-5528
p1135
aVDRILL-5527
p1136
aVDRILL-5526
p1137
aVDRILL-5525
p1138
aVDRILL-5524
p1139
aVDRILL-5523
p1140
aVDRILL-5522
p1141
aVDRILL-5521
p1142
aVDRILL-5520
p1143
aVDRILL-5519
p1144
aVDRILL-5518
p1145
aVDRILL-5517
p1146
aVDRILL-5516
p1147
aVDRILL-5515
p1148
aVDRILL-5514
p1149
aVDRILL-5513
p1150
aVDRILL-5512
p1151
aVDRILL-5511
p1152
aVDRILL-5510
p1153
aVDRILL-5509
p1154
aVDRILL-5508
p1155
aVDRILL-5507
p1156
aVDRILL-5506
p1157
aVDRILL-5505
p1158
aVDRILL-5504
p1159
aVDRILL-5503
p1160
aVDRILL-5502
p1161
aVDRILL-5501
p1162
aVDRILL-5500
p1163
aVDRILL-5499
p1164
aVDRILL-5498
p1165
aVDRILL-5497
p1166
aVDRILL-5496
p1167
aVDRILL-5495
p1168
aVDRILL-5494
p1169
aVDRILL-5493
p1170
aVDRILL-5492
p1171
aVDRILL-5491
p1172
aVDRILL-5490
p1173
aVDRILL-5489
p1174
aVDRILL-5488
p1175
aVDRILL-5487
p1176
aVDRILL-5486
p1177
aVDRILL-5485
p1178
aVDRILL-5484
p1179
aVDRILL-5483
p1180
aVDRILL-5482
p1181
aVDRILL-5481
p1182
aVDRILL-5480
p1183
aVDRILL-5479
p1184
aVDRILL-5478
p1185
aVDRILL-5477
p1186
aVDRILL-5476
p1187
aVDRILL-5475
p1188
aVDRILL-5474
p1189
aVDRILL-5473
p1190
aVDRILL-5472
p1191
aVDRILL-5471
p1192
aVDRILL-5470
p1193
aVDRILL-5469
p1194
aVDRILL-5468
p1195
aVDRILL-5467
p1196
aVDRILL-5466
p1197
aVDRILL-5465
p1198
aVDRILL-5464
p1199
aVDRILL-5463
p1200
aVDRILL-5462
p1201
aVDRILL-5461
p1202
aVDRILL-5460
p1203
aVDRILL-5459
p1204
aVDRILL-5458
p1205
aVDRILL-5457
p1206
aVDRILL-5456
p1207
aVDRILL-5455
p1208
aVDRILL-5454
p1209
aVDRILL-5453
p1210
aVDRILL-5452
p1211
aVDRILL-5451
p1212
aVDRILL-5450
p1213
aVDRILL-5449
p1214
aVDRILL-5448
p1215
aVDRILL-5447
p1216
aVDRILL-5446
p1217
aVDRILL-5445
p1218
aVDRILL-5444
p1219
aVDRILL-5443
p1220
aVDRILL-5442
p1221
aVDRILL-5441
p1222
aVDRILL-5440
p1223
aVDRILL-5439
p1224
aVDRILL-5438
p1225
aVDRILL-5437
p1226
aVDRILL-5436
p1227
aVDRILL-5435
p1228
aVDRILL-5434
p1229
aVDRILL-5433
p1230
aVDRILL-5432
p1231
aVDRILL-5431
p1232
aVDRILL-5430
p1233
aVDRILL-5429
p1234
aVDRILL-5428
p1235
aVDRILL-5427
p1236
aVDRILL-5426
p1237
aVDRILL-5425
p1238
aVDRILL-5424
p1239
aVDRILL-5423
p1240
aVDRILL-5422
p1241
aVDRILL-5421
p1242
aVDRILL-5420
p1243
aVDRILL-5419
p1244
aVDRILL-5418
p1245
aVDRILL-5417
p1246
aVDRILL-5416
p1247
aVDRILL-5415
p1248
aVDRILL-5414
p1249
aVDRILL-5413
p1250
aVDRILL-5412
p1251
aVDRILL-5411
p1252
aVDRILL-5410
p1253
aVDRILL-5409
p1254
aVDRILL-5408
p1255
aVDRILL-5407
p1256
aVDRILL-5406
p1257
aVDRILL-5405
p1258
aVDRILL-5404
p1259
aVDRILL-5403
p1260
aVDRILL-5402
p1261
aVDRILL-5401
p1262
aVDRILL-5400
p1263
aVDRILL-5399
p1264
aVDRILL-5398
p1265
aVDRILL-5397
p1266
aVDRILL-5396
p1267
aVDRILL-5395
p1268
aVDRILL-5394
p1269
aVDRILL-5393
p1270
aVDRILL-5392
p1271
aVDRILL-5391
p1272
aVDRILL-5390
p1273
aVDRILL-5389
p1274
aVDRILL-5388
p1275
aVDRILL-5387
p1276
aVDRILL-5386
p1277
aVDRILL-5385
p1278
aVDRILL-5384
p1279
aVDRILL-5383
p1280
aVDRILL-5382
p1281
aVDRILL-5381
p1282
aVDRILL-5380
p1283
aVDRILL-5379
p1284
aVDRILL-5378
p1285
aVDRILL-5377
p1286
aVDRILL-5376
p1287
aVDRILL-5375
p1288
aVDRILL-5374
p1289
aVDRILL-5373
p1290
aVDRILL-5372
p1291
aVDRILL-5371
p1292
aVDRILL-5370
p1293
aVDRILL-5369
p1294
aVDRILL-5368
p1295
aVDRILL-5367
p1296
aVDRILL-5366
p1297
aVDRILL-5365
p1298
aVDRILL-5364
p1299
aVDRILL-5363
p1300
aVDRILL-5362
p1301
aVDRILL-5361
p1302
aVDRILL-5360
p1303
aVDRILL-5359
p1304
aVDRILL-5358
p1305
aVDRILL-5357
p1306
aVDRILL-5356
p1307
aVDRILL-5355
p1308
aVDRILL-5354
p1309
aVDRILL-5353
p1310
aVDRILL-5352
p1311
aVDRILL-5351
p1312
aVDRILL-5350
p1313
aVDRILL-5349
p1314
aVDRILL-5348
p1315
aVDRILL-5347
p1316
aVDRILL-5346
p1317
aVDRILL-5345
p1318
aVDRILL-5344
p1319
aVDRILL-5343
p1320
aVDRILL-5342
p1321
aVDRILL-5341
p1322
aVDRILL-5340
p1323
aVDRILL-5339
p1324
aVDRILL-5338
p1325
aVDRILL-5337
p1326
aVDRILL-5336
p1327
aVDRILL-5335
p1328
aVDRILL-5334
p1329
aVDRILL-5333
p1330
aVDRILL-5332
p1331
aVDRILL-5331
p1332
aVDRILL-5330
p1333
aVDRILL-5329
p1334
aVDRILL-5328
p1335
aVDRILL-5327
p1336
aVDRILL-5326
p1337
aVDRILL-5325
p1338
aVDRILL-5324
p1339
aVDRILL-5323
p1340
aVDRILL-5322
p1341
aVDRILL-5321
p1342
aVDRILL-5320
p1343
aVDRILL-5319
p1344
aVDRILL-5318
p1345
aVDRILL-5317
p1346
aVDRILL-5316
p1347
aVDRILL-5315
p1348
aVDRILL-5314
p1349
aVDRILL-5313
p1350
aVDRILL-5312
p1351
aVDRILL-5311
p1352
aVDRILL-5310
p1353
aVDRILL-5309
p1354
aVDRILL-5308
p1355
aVDRILL-5307
p1356
aVDRILL-5306
p1357
aVDRILL-5305
p1358
aVDRILL-5304
p1359
aVDRILL-5303
p1360
aVDRILL-5302
p1361
aVDRILL-5301
p1362
aVDRILL-5300
p1363
aVDRILL-5299
p1364
aVDRILL-5298
p1365
aVDRILL-5297
p1366
aVDRILL-5296
p1367
aVDRILL-5295
p1368
aVDRILL-5294
p1369
aVDRILL-5293
p1370
aVDRILL-5292
p1371
aVDRILL-5291
p1372
aVDRILL-5290
p1373
aVDRILL-5289
p1374
aVDRILL-5288
p1375
aVDRILL-5287
p1376
aVDRILL-5286
p1377
aVDRILL-5285
p1378
aVDRILL-5284
p1379
aVDRILL-5283
p1380
aVDRILL-5282
p1381
aVDRILL-5281
p1382
aVDRILL-5280
p1383
aVDRILL-5279
p1384
aVDRILL-5278
p1385
aVDRILL-5277
p1386
aVDRILL-5276
p1387
aVDRILL-5275
p1388
aVDRILL-5274
p1389
aVDRILL-5273
p1390
aVDRILL-5272
p1391
aVDRILL-5271
p1392
aVDRILL-5270
p1393
aVDRILL-5269
p1394
aVDRILL-5268
p1395
aVDRILL-5267
p1396
aVDRILL-5266
p1397
aVDRILL-5265
p1398
aVDRILL-5264
p1399
aVDRILL-5263
p1400
aVDRILL-5262
p1401
aVDRILL-5261
p1402
aVDRILL-5260
p1403
aVDRILL-5259
p1404
aVDRILL-5258
p1405
aVDRILL-5257
p1406
aVDRILL-5256
p1407
aVDRILL-5255
p1408
aVDRILL-5254
p1409
aVDRILL-5253
p1410
aVDRILL-5252
p1411
aVDRILL-5251
p1412
aVDRILL-5250
p1413
aVDRILL-5249
p1414
aVDRILL-5248
p1415
aVDRILL-5247
p1416
aVDRILL-5246
p1417
aVDRILL-5245
p1418
aVDRILL-5244
p1419
aVDRILL-5243
p1420
aVDRILL-5242
p1421
aVDRILL-5241
p1422
aVDRILL-5240
p1423
aVDRILL-5239
p1424
aVDRILL-5238
p1425
aVDRILL-5237
p1426
aVDRILL-5236
p1427
aVDRILL-5235
p1428
aVDRILL-5234
p1429
aVDRILL-5233
p1430
aVDRILL-5232
p1431
aVDRILL-5231
p1432
aVDRILL-5230
p1433
aVDRILL-5229
p1434
aVDRILL-5228
p1435
aVDRILL-5227
p1436
aVDRILL-5226
p1437
aVDRILL-5225
p1438
aVDRILL-5224
p1439
aVDRILL-5223
p1440
aVDRILL-5222
p1441
aVDRILL-5221
p1442
aVDRILL-5220
p1443
aVDRILL-5219
p1444
aVDRILL-5218
p1445
aVDRILL-5217
p1446
aVDRILL-5216
p1447
aVDRILL-5215
p1448
aVDRILL-5214
p1449
aVDRILL-5213
p1450
aVDRILL-5212
p1451
aVDRILL-5211
p1452
aVDRILL-5210
p1453
aVDRILL-5209
p1454
aVDRILL-5208
p1455
aVDRILL-5207
p1456
aVDRILL-5206
p1457
aVDRILL-5205
p1458
aVDRILL-5204
p1459
aVDRILL-5203
p1460
aVDRILL-5202
p1461
aVDRILL-5201
p1462
aVDRILL-5200
p1463
aVDRILL-5199
p1464
aVDRILL-5198
p1465
aVDRILL-5197
p1466
aVDRILL-5196
p1467
aVDRILL-5195
p1468
aVDRILL-5194
p1469
aVDRILL-5193
p1470
aVDRILL-5192
p1471
aVDRILL-5191
p1472
aVDRILL-5190
p1473
aVDRILL-5189
p1474
aVDRILL-5188
p1475
aVDRILL-5187
p1476
aVDRILL-5186
p1477
aVDRILL-5185
p1478
aVDRILL-5184
p1479
aVDRILL-5183
p1480
aVDRILL-5182
p1481
aVDRILL-5181
p1482
aVDRILL-5180
p1483
aVDRILL-5179
p1484
aVDRILL-5178
p1485
aVDRILL-5177
p1486
aVDRILL-5176
p1487
aVDRILL-5175
p1488
aVDRILL-5174
p1489
aVDRILL-5173
p1490
aVDRILL-5172
p1491
aVDRILL-5171
p1492
aVDRILL-5170
p1493
aVDRILL-5169
p1494
aVDRILL-5168
p1495
aVDRILL-5167
p1496
aVDRILL-5166
p1497
aVDRILL-5165
p1498
aVDRILL-5164
p1499
aVDRILL-5163
p1500
aVDRILL-5162
p1501
aVDRILL-5161
p1502
aVDRILL-5160
p1503
aVDRILL-5159
p1504
aVDRILL-5158
p1505
aVDRILL-5157
p1506
aVDRILL-5156
p1507
aVDRILL-5155
p1508
aVDRILL-5154
p1509
aVDRILL-5153
p1510
aVDRILL-5152
p1511
aVDRILL-5151
p1512
aVDRILL-5150
p1513
aVDRILL-5149
p1514
aVDRILL-5148
p1515
aVDRILL-5147
p1516
aVDRILL-5146
p1517
aVDRILL-5145
p1518
aVDRILL-5144
p1519
aVDRILL-5143
p1520
aVDRILL-5142
p1521
aVDRILL-5141
p1522
aVDRILL-5140
p1523
aVDRILL-5139
p1524
aVDRILL-5138
p1525
aVDRILL-5137
p1526
aVDRILL-5136
p1527
aVDRILL-5135
p1528
aVDRILL-5134
p1529
aVDRILL-5133
p1530
aVDRILL-5132
p1531
aVDRILL-5131
p1532
aVDRILL-5130
p1533
aVDRILL-5129
p1534
aVDRILL-5128
p1535
aVDRILL-5127
p1536
aVDRILL-5126
p1537
aVDRILL-5125
p1538
aVDRILL-5124
p1539
aVDRILL-5123
p1540
aVDRILL-5122
p1541
aVDRILL-5121
p1542
aVDRILL-5120
p1543
aVDRILL-5119
p1544
aVDRILL-5118
p1545
aVDRILL-5117
p1546
aVDRILL-5116
p1547
aVDRILL-5115
p1548
aVDRILL-5114
p1549
aVDRILL-5113
p1550
aVDRILL-5112
p1551
aVDRILL-5111
p1552
aVDRILL-5110
p1553
aVDRILL-5109
p1554
aVDRILL-5108
p1555
aVDRILL-5107
p1556
aVDRILL-5106
p1557
aVDRILL-5105
p1558
aVDRILL-5104
p1559
aVDRILL-5103
p1560
aVDRILL-5102
p1561
aVDRILL-5101
p1562
aVDRILL-5100
p1563
aVDRILL-5099
p1564
aVDRILL-5098
p1565
aVDRILL-5097
p1566
aVDRILL-5096
p1567
aVDRILL-5095
p1568
aVDRILL-5094
p1569
aVDRILL-5093
p1570
aVDRILL-5092
p1571
aVDRILL-5091
p1572
aVDRILL-5090
p1573
aVDRILL-5089
p1574
aVDRILL-5088
p1575
aVDRILL-5087
p1576
aVDRILL-5086
p1577
aVDRILL-5085
p1578
aVDRILL-5084
p1579
aVDRILL-5083
p1580
aVDRILL-5082
p1581
aVDRILL-5081
p1582
aVDRILL-5080
p1583
aVDRILL-5079
p1584
aVDRILL-5078
p1585
aVDRILL-5077
p1586
aVDRILL-5076
p1587
aVDRILL-5075
p1588
aVDRILL-5074
p1589
aVDRILL-5073
p1590
aVDRILL-5072
p1591
aVDRILL-5071
p1592
aVDRILL-5070
p1593
aVDRILL-5069
p1594
aVDRILL-5068
p1595
aVDRILL-5067
p1596
aVDRILL-5066
p1597
aVDRILL-5065
p1598
aVDRILL-5064
p1599
aVDRILL-5063
p1600
aVDRILL-5062
p1601
aVDRILL-5061
p1602
aVDRILL-5060
p1603
aVDRILL-5059
p1604
aVDRILL-5058
p1605
aVDRILL-5057
p1606
aVDRILL-5056
p1607
aVDRILL-5055
p1608
aVDRILL-5054
p1609
aVDRILL-5053
p1610
aVDRILL-5052
p1611
aVDRILL-5051
p1612
aVDRILL-5050
p1613
aVDRILL-5049
p1614
aVDRILL-5048
p1615
aVDRILL-5047
p1616
aVDRILL-5046
p1617
aVDRILL-5045
p1618
aVDRILL-5044
p1619
aVDRILL-5043
p1620
aVDRILL-5042
p1621
aVDRILL-5041
p1622
aVDRILL-5040
p1623
aVDRILL-5039
p1624
aVDRILL-5038
p1625
aVDRILL-5037
p1626
aVDRILL-5036
p1627
aVDRILL-5035
p1628
aVDRILL-5034
p1629
aVDRILL-5033
p1630
aVDRILL-5032
p1631
aVDRILL-5031
p1632
aVDRILL-5030
p1633
aVDRILL-5029
p1634
aVDRILL-5028
p1635
aVDRILL-5027
p1636
aVDRILL-5026
p1637
aVDRILL-5025
p1638
aVDRILL-5024
p1639
aVDRILL-5023
p1640
aVDRILL-5022
p1641
aVDRILL-5021
p1642
aVDRILL-5020
p1643
aVDRILL-5019
p1644
aVDRILL-5018
p1645
aVDRILL-5017
p1646
aVDRILL-5016
p1647
aVDRILL-5015
p1648
aVDRILL-5014
p1649
aVDRILL-5013
p1650
aVDRILL-5012
p1651
aVDRILL-5011
p1652
aVDRILL-5010
p1653
aVDRILL-5009
p1654
aVDRILL-5008
p1655
aVDRILL-5007
p1656
aVDRILL-5006
p1657
aVDRILL-5005
p1658
aVDRILL-5004
p1659
aVDRILL-5003
p1660
aVDRILL-5002
p1661
aVDRILL-5001
p1662
aVDRILL-5000
p1663
aVDRILL-4999
p1664
aVDRILL-4998
p1665
aVDRILL-4997
p1666
aVDRILL-4996
p1667
aVDRILL-4995
p1668
aVDRILL-4994
p1669
aVDRILL-4993
p1670
aVDRILL-4992
p1671
aVDRILL-4991
p1672
aVDRILL-4990
p1673
aVDRILL-4989
p1674
aVDRILL-4988
p1675
aVDRILL-4987
p1676
aVDRILL-4986
p1677
aVDRILL-4985
p1678
aVDRILL-4984
p1679
aVDRILL-4983
p1680
aVDRILL-4982
p1681
aVDRILL-4981
p1682
aVDRILL-4980
p1683
aVDRILL-4979
p1684
aVDRILL-4978
p1685
aVDRILL-4977
p1686
aVDRILL-4976
p1687
aVDRILL-4975
p1688
aVDRILL-4974
p1689
aVDRILL-4973
p1690
aVDRILL-4972
p1691
aVDRILL-4971
p1692
aVDRILL-4970
p1693
aVDRILL-4969
p1694
aVDRILL-4968
p1695
aVDRILL-4967
p1696
aVDRILL-4966
p1697
aVDRILL-4965
p1698
aVDRILL-4964
p1699
aVDRILL-4963
p1700
aVDRILL-4962
p1701
aVDRILL-4961
p1702
aVDRILL-4960
p1703
aVDRILL-4959
p1704
aVDRILL-4958
p1705
aVDRILL-4957
p1706
aVDRILL-4956
p1707
aVDRILL-4955
p1708
aVDRILL-4954
p1709
aVDRILL-4953
p1710
aVDRILL-4952
p1711
aVDRILL-4951
p1712
aVDRILL-4950
p1713
aVDRILL-4949
p1714
aVDRILL-4948
p1715
aVDRILL-4947
p1716
aVDRILL-4946
p1717
aVDRILL-4945
p1718
aVDRILL-4944
p1719
aVDRILL-4943
p1720
aVDRILL-4942
p1721
aVDRILL-4941
p1722
aVDRILL-4940
p1723
aVDRILL-4939
p1724
aVDRILL-4938
p1725
aVDRILL-4937
p1726
aVDRILL-4936
p1727
aVDRILL-4935
p1728
aVDRILL-4934
p1729
aVDRILL-4933
p1730
aVDRILL-4932
p1731
aVDRILL-4931
p1732
aVDRILL-4930
p1733
aVDRILL-4929
p1734
aVDRILL-4928
p1735
aVDRILL-4927
p1736
aVDRILL-4926
p1737
aVDRILL-4925
p1738
aVDRILL-4924
p1739
aVDRILL-4923
p1740
aVDRILL-4922
p1741
aVDRILL-4921
p1742
aVDRILL-4920
p1743
aVDRILL-4919
p1744
aVDRILL-4918
p1745
aVDRILL-4917
p1746
aVDRILL-4916
p1747
aVDRILL-4915
p1748
aVDRILL-4914
p1749
aVDRILL-4913
p1750
aVDRILL-4912
p1751
aVDRILL-4911
p1752
aVDRILL-4910
p1753
aVDRILL-4909
p1754
aVDRILL-4908
p1755
aVDRILL-4907
p1756
aVDRILL-4906
p1757
aVDRILL-4905
p1758
aVDRILL-4904
p1759
aVDRILL-4903
p1760
aVDRILL-4902
p1761
aVDRILL-4901
p1762
aVDRILL-4900
p1763
aVDRILL-4899
p1764
aVDRILL-4898
p1765
aVDRILL-4897
p1766
aVDRILL-4896
p1767
aVDRILL-4895
p1768
aVDRILL-4894
p1769
aVDRILL-4893
p1770
aVDRILL-4892
p1771
aVDRILL-4891
p1772
aVDRILL-4890
p1773
aVDRILL-4889
p1774
aVDRILL-4888
p1775
aVDRILL-4887
p1776
aVDRILL-4886
p1777
aVDRILL-4885
p1778
aVDRILL-4884
p1779
aVDRILL-4883
p1780
aVDRILL-4882
p1781
aVDRILL-4881
p1782
aVDRILL-4880
p1783
aVDRILL-4879
p1784
aVDRILL-4878
p1785
aVDRILL-4877
p1786
aVDRILL-4876
p1787
aVDRILL-4875
p1788
aVDRILL-4874
p1789
aVDRILL-4873
p1790
aVDRILL-4872
p1791
aVDRILL-4871
p1792
aVDRILL-4870
p1793
aVDRILL-4869
p1794
aVDRILL-4868
p1795
aVDRILL-4867
p1796
aVDRILL-4866
p1797
aVDRILL-4865
p1798
aVDRILL-4864
p1799
aVDRILL-4863
p1800
aVDRILL-4862
p1801
aVDRILL-4861
p1802
aVDRILL-4860
p1803
aVDRILL-4859
p1804
aVDRILL-4858
p1805
aVDRILL-4857
p1806
aVDRILL-4856
p1807
aVDRILL-4855
p1808
aVDRILL-4854
p1809
aVDRILL-4853
p1810
aVDRILL-4852
p1811
aVDRILL-4851
p1812
aVDRILL-4850
p1813
aVDRILL-4849
p1814
aVDRILL-4848
p1815
aVDRILL-4847
p1816
aVDRILL-4846
p1817
aVDRILL-4845
p1818
aVDRILL-4844
p1819
aVDRILL-4843
p1820
aVDRILL-4842
p1821
aVDRILL-4841
p1822
aVDRILL-4840
p1823
aVDRILL-4839
p1824
aVDRILL-4838
p1825
aVDRILL-4837
p1826
aVDRILL-4836
p1827
aVDRILL-4835
p1828
aVDRILL-4834
p1829
aVDRILL-4833
p1830
aVDRILL-4832
p1831
aVDRILL-4831
p1832
aVDRILL-4830
p1833
aVDRILL-4829
p1834
aVDRILL-4828
p1835
aVDRILL-4827
p1836
aVDRILL-4826
p1837
aVDRILL-4825
p1838
aVDRILL-4824
p1839
aVDRILL-4823
p1840
aVDRILL-4822
p1841
aVDRILL-4821
p1842
aVDRILL-4820
p1843
aVDRILL-4819
p1844
aVDRILL-4818
p1845
aVDRILL-4817
p1846
aVDRILL-4816
p1847
aVDRILL-4815
p1848
aVDRILL-4814
p1849
aVDRILL-4813
p1850
aVDRILL-4812
p1851
aVDRILL-4811
p1852
aVDRILL-4810
p1853
aVDRILL-4809
p1854
aVDRILL-4808
p1855
aVDRILL-4807
p1856
aVDRILL-4806
p1857
aVDRILL-4805
p1858
aVDRILL-4804
p1859
aVDRILL-4803
p1860
aVDRILL-4802
p1861
aVDRILL-4801
p1862
aVDRILL-4800
p1863
aVDRILL-4799
p1864
aVDRILL-4798
p1865
aVDRILL-4797
p1866
aVDRILL-4796
p1867
aVDRILL-4795
p1868
aVDRILL-4794
p1869
aVDRILL-4793
p1870
aVDRILL-4792
p1871
aVDRILL-4791
p1872
aVDRILL-4790
p1873
aVDRILL-4789
p1874
aVDRILL-4788
p1875
aVDRILL-4787
p1876
aVDRILL-4786
p1877
aVDRILL-4785
p1878
aVDRILL-4784
p1879
aVDRILL-4783
p1880
aVDRILL-4782
p1881
aVDRILL-4781
p1882
aVDRILL-4780
p1883
aVDRILL-4779
p1884
aVDRILL-4778
p1885
aVDRILL-4777
p1886
aVDRILL-4776
p1887
aVDRILL-4775
p1888
aVDRILL-4774
p1889
aVDRILL-4773
p1890
aVDRILL-4772
p1891
aVDRILL-4771
p1892
aVDRILL-4770
p1893
aVDRILL-4769
p1894
aVDRILL-4768
p1895
aVDRILL-4767
p1896
aVDRILL-4766
p1897
aVDRILL-4765
p1898
aVDRILL-4764
p1899
aVDRILL-4763
p1900
aVDRILL-4762
p1901
aVDRILL-4761
p1902
aVDRILL-4760
p1903
aVDRILL-4759
p1904
aVDRILL-4758
p1905
aVDRILL-4757
p1906
aVDRILL-4756
p1907
aVDRILL-4755
p1908
aVDRILL-4754
p1909
aVDRILL-4753
p1910
aVDRILL-4752
p1911
aVDRILL-4751
p1912
aVDRILL-4750
p1913
aVDRILL-4749
p1914
aVDRILL-4748
p1915
aVDRILL-4747
p1916
aVDRILL-4746
p1917
aVDRILL-4745
p1918
aVDRILL-4744
p1919
aVDRILL-4743
p1920
aVDRILL-4742
p1921
aVDRILL-4741
p1922
aVDRILL-4740
p1923
aVDRILL-4739
p1924
aVDRILL-4738
p1925
aVDRILL-4737
p1926
aVDRILL-4736
p1927
aVDRILL-4735
p1928
aVDRILL-4734
p1929
aVDRILL-4733
p1930
aVDRILL-4732
p1931
aVDRILL-4731
p1932
aVDRILL-4730
p1933
aVDRILL-4729
p1934
aVDRILL-4728
p1935
aVDRILL-4727
p1936
aVDRILL-4726
p1937
aVDRILL-4725
p1938
aVDRILL-4724
p1939
aVDRILL-4723
p1940
aVDRILL-4722
p1941
aVDRILL-4721
p1942
aVDRILL-4720
p1943
aVDRILL-4719
p1944
aVDRILL-4718
p1945
aVDRILL-4717
p1946
aVDRILL-4716
p1947
aVDRILL-4715
p1948
aVDRILL-4714
p1949
aVDRILL-4713
p1950
aVDRILL-4712
p1951
aVDRILL-4711
p1952
aVDRILL-4710
p1953
aVDRILL-4709
p1954
aVDRILL-4708
p1955
aVDRILL-4707
p1956
aVDRILL-4706
p1957
aVDRILL-4705
p1958
aVDRILL-4704
p1959
aVDRILL-4703
p1960
aVDRILL-4702
p1961
aVDRILL-4701
p1962
aVDRILL-4700
p1963
aVDRILL-4699
p1964
aVDRILL-4698
p1965
aVDRILL-4697
p1966
aVDRILL-4696
p1967
aVDRILL-4695
p1968
aVDRILL-4694
p1969
aVDRILL-4693
p1970
aVDRILL-4692
p1971
aVDRILL-4691
p1972
aVDRILL-4690
p1973
aVDRILL-4689
p1974
aVDRILL-4688
p1975
aVDRILL-4686
p1976
aVDRILL-4685
p1977
aVDRILL-4684
p1978
aVDRILL-4683
p1979
aVDRILL-4682
p1980
aVDRILL-4681
p1981
aVDRILL-4680
p1982
aVDRILL-4679
p1983
aVDRILL-4678
p1984
aVDRILL-4677
p1985
aVDRILL-4676
p1986
aVDRILL-4675
p1987
aVDRILL-4674
p1988
aVDRILL-4673
p1989
aVDRILL-4668
p1990
aVDRILL-4667
p1991
aVDRILL-4666
p1992
aVDRILL-4665
p1993
aVDRILL-4664
p1994
aVDRILL-4663
p1995
aVDRILL-4662
p1996
aVDRILL-4661
p1997
aVDRILL-4660
p1998
aVDRILL-4659
p1999
aVDRILL-4658
p2000
aVDRILL-4657
p2001
aVDRILL-4656
p2002
aVDRILL-4655
p2003
aVDRILL-4654
p2004
aVDRILL-4653
p2005
aVDRILL-4652
p2006
aVDRILL-4651
p2007
aVDRILL-4650
p2008
aVDRILL-4649
p2009
aVDRILL-4648
p2010
aVDRILL-4647
p2011
aVDRILL-4646
p2012
aVDRILL-4645
p2013
aVDRILL-4644
p2014
aVDRILL-4643
p2015
aVDRILL-4642
p2016
aVDRILL-4641
p2017
aVDRILL-4640
p2018
aVDRILL-4639
p2019
aVDRILL-4637
p2020
aVDRILL-4635
p2021
aVDRILL-4627
p2022
aVDRILL-4626
p2023
aVDRILL-4625
p2024
aVDRILL-4624
p2025
aVDRILL-4623
p2026
aVDRILL-4622
p2027
aVDRILL-4621
p2028
aVDRILL-4620
p2029
aVDRILL-4619
p2030
aVDRILL-4618
p2031
aVDRILL-4617
p2032
aVDRILL-4616
p2033
aVDRILL-4615
p2034
aVDRILL-4614
p2035
aVDRILL-4613
p2036
aVDRILL-4612
p2037
aVDRILL-4611
p2038
aVDRILL-4610
p2039
aVDRILL-4609
p2040
aVDRILL-4608
p2041
aVDRILL-4607
p2042
aVDRILL-4606
p2043
aVDRILL-4605
p2044
aVDRILL-4604
p2045
aVDRILL-4603
p2046
aVDRILL-4602
p2047
aVDRILL-4601
p2048
aVDRILL-4600
p2049
aVDRILL-4599
p2050
aVDRILL-4598
p2051
aVDRILL-4597
p2052
aVDRILL-4596
p2053
aVDRILL-4595
p2054
aVDRILL-4594
p2055
aVDRILL-4593
p2056
aVDRILL-4592
p2057
aVDRILL-4591
p2058
aVDRILL-4590
p2059
aVDRILL-4589
p2060
aVDRILL-4588
p2061
aVDRILL-4587
p2062
aVDRILL-4586
p2063
aVDRILL-4585
p2064
aVDRILL-4584
p2065
aVDRILL-4583
p2066
aVDRILL-4582
p2067
aVDRILL-4581
p2068
aVDRILL-4580
p2069
aVDRILL-4579
p2070
aVDRILL-4578
p2071
aVDRILL-4577
p2072
aVDRILL-4576
p2073
aVDRILL-4575
p2074
aVDRILL-4574
p2075
aVDRILL-4573
p2076
aVDRILL-4572
p2077
aVDRILL-4571
p2078
aVDRILL-4570
p2079
aVDRILL-4569
p2080
aVDRILL-4568
p2081
aVDRILL-4567
p2082
aVDRILL-4566
p2083
aVDRILL-4565
p2084
aVDRILL-4564
p2085
aVDRILL-4563
p2086
aVDRILL-4562
p2087
aVDRILL-4561
p2088
aVDRILL-4560
p2089
aVDRILL-4559
p2090
aVDRILL-4558
p2091
aVDRILL-4557
p2092
aVDRILL-4556
p2093
aVDRILL-4555
p2094
aVDRILL-4554
p2095
aVDRILL-4553
p2096
aVDRILL-4552
p2097
aVDRILL-4551
p2098
aVDRILL-4550
p2099
aVDRILL-4549
p2100
aVDRILL-4548
p2101
aVDRILL-4547
p2102
aVDRILL-4546
p2103
aVDRILL-4545
p2104
aVDRILL-4544
p2105
aVDRILL-4543
p2106
aVDRILL-4542
p2107
aVDRILL-4541
p2108
aVDRILL-4540
p2109
aVDRILL-4539
p2110
aVDRILL-4538
p2111
aVDRILL-4537
p2112
aVDRILL-4536
p2113
aVDRILL-4535
p2114
aVDRILL-4534
p2115
aVDRILL-4533
p2116
aVDRILL-4532
p2117
aVDRILL-4531
p2118
aVDRILL-4530
p2119
aVDRILL-4529
p2120
aVDRILL-4528
p2121
aVDRILL-4527
p2122
aVDRILL-4526
p2123
aVDRILL-4525
p2124
aVDRILL-4524
p2125
aVDRILL-4523
p2126
aVDRILL-4522
p2127
aVDRILL-4521
p2128
aVDRILL-4520
p2129
aVDRILL-4519
p2130
aVDRILL-4518
p2131
aVDRILL-4517
p2132
aVDRILL-4516
p2133
aVDRILL-4515
p2134
aVDRILL-4514
p2135
aVDRILL-4513
p2136
aVDRILL-4512
p2137
aVDRILL-4511
p2138
aVDRILL-4510
p2139
aVDRILL-4509
p2140
aVDRILL-4508
p2141
aVDRILL-4507
p2142
aVDRILL-4506
p2143
aVDRILL-4505
p2144
aVDRILL-4504
p2145
aVDRILL-4503
p2146
aVDRILL-4502
p2147
aVDRILL-4501
p2148
aVDRILL-4500
p2149
aVDRILL-4499
p2150
aVDRILL-4498
p2151
aVDRILL-4497
p2152
aVDRILL-4496
p2153
aVDRILL-4495
p2154
aVDRILL-4494
p2155
aVDRILL-4493
p2156
aVDRILL-4492
p2157
aVDRILL-4491
p2158
aVDRILL-4490
p2159
aVDRILL-4489
p2160
aVDRILL-4488
p2161
aVDRILL-4487
p2162
aVDRILL-4486
p2163
aVDRILL-4485
p2164
aVDRILL-4484
p2165
aVDRILL-4483
p2166
aVDRILL-4482
p2167
aVDRILL-4481
p2168
aVDRILL-4480
p2169
aVDRILL-4479
p2170
aVDRILL-4478
p2171
aVDRILL-4477
p2172
aVDRILL-4476
p2173
aVDRILL-4475
p2174
aVDRILL-4474
p2175
aVDRILL-4473
p2176
aVDRILL-4472
p2177
aVDRILL-4471
p2178
aVDRILL-4470
p2179
aVDRILL-4469
p2180
aVDRILL-4468
p2181
aVDRILL-4467
p2182
aVDRILL-4466
p2183
aVDRILL-4465
p2184
aVDRILL-4464
p2185
aVDRILL-4463
p2186
aVDRILL-4462
p2187
aVDRILL-4461
p2188
aVDRILL-4460
p2189
aVDRILL-4459
p2190
aVDRILL-4458
p2191
aVDRILL-4457
p2192
aVDRILL-4456
p2193
aVDRILL-4455
p2194
aVDRILL-4454
p2195
aVDRILL-4453
p2196
aVDRILL-4452
p2197
aVDRILL-4451
p2198
aVDRILL-4450
p2199
aVDRILL-4449
p2200
aVDRILL-4448
p2201
aVDRILL-4447
p2202
aVDRILL-4446
p2203
aVDRILL-4445
p2204
aVDRILL-4444
p2205
aVDRILL-4443
p2206
aVDRILL-4442
p2207
aVDRILL-4441
p2208
aVDRILL-4440
p2209
aVDRILL-4439
p2210
aVDRILL-4438
p2211
aVDRILL-4437
p2212
aVDRILL-4436
p2213
aVDRILL-4435
p2214
aVDRILL-4434
p2215
aVDRILL-4433
p2216
aVDRILL-4432
p2217
aVDRILL-4431
p2218
aVDRILL-4430
p2219
aVDRILL-4429
p2220
aVDRILL-4428
p2221
aVDRILL-4427
p2222
aVDRILL-4426
p2223
aVDRILL-4425
p2224
aVDRILL-4424
p2225
aVDRILL-4423
p2226
aVDRILL-4422
p2227
aVDRILL-4421
p2228
aVDRILL-4420
p2229
aVDRILL-4419
p2230
aVDRILL-4418
p2231
aVDRILL-4417
p2232
aVDRILL-4416
p2233
aVDRILL-4415
p2234
aVDRILL-4414
p2235
aVDRILL-4413
p2236
aVDRILL-4412
p2237
aVDRILL-4411
p2238
aVDRILL-4410
p2239
aVDRILL-4409
p2240
aVDRILL-4408
p2241
aVDRILL-4407
p2242
aVDRILL-4406
p2243
aVDRILL-4405
p2244
aVDRILL-4404
p2245
aVDRILL-4403
p2246
aVDRILL-4402
p2247
aVDRILL-4401
p2248
aVDRILL-4400
p2249
aVDRILL-4399
p2250
aVDRILL-4398
p2251
aVDRILL-4397
p2252
aVDRILL-4396
p2253
aVDRILL-4395
p2254
aVDRILL-4394
p2255
aVDRILL-4393
p2256
aVDRILL-4392
p2257
aVDRILL-4391
p2258
aVDRILL-4390
p2259
aVDRILL-4389
p2260
aVDRILL-4388
p2261
aVDRILL-4387
p2262
aVDRILL-4386
p2263
aVDRILL-4385
p2264
aVDRILL-4384
p2265
aVDRILL-4383
p2266
aVDRILL-4382
p2267
aVDRILL-4381
p2268
aVDRILL-4380
p2269
aVDRILL-4379
p2270
aVDRILL-4378
p2271
aVDRILL-4377
p2272
aVDRILL-4376
p2273
aVDRILL-4375
p2274
aVDRILL-4374
p2275
aVDRILL-4373
p2276
aVDRILL-4372
p2277
aVDRILL-4371
p2278
aVDRILL-4370
p2279
aVDRILL-4369
p2280
aVDRILL-4368
p2281
aVDRILL-4367
p2282
aVDRILL-4366
p2283
aVDRILL-4365
p2284
aVDRILL-4364
p2285
aVDRILL-4363
p2286
aVDRILL-4362
p2287
aVDRILL-4361
p2288
aVDRILL-4360
p2289
aVDRILL-4359
p2290
aVDRILL-4358
p2291
aVDRILL-4357
p2292
aVDRILL-4356
p2293
aVDRILL-4355
p2294
aVDRILL-4354
p2295
aVDRILL-4353
p2296
aVDRILL-4352
p2297
aVDRILL-4351
p2298
aVDRILL-4350
p2299
aVDRILL-4349
p2300
aVDRILL-4348
p2301
aVDRILL-4347
p2302
aVDRILL-4346
p2303
aVDRILL-4345
p2304
aVDRILL-4344
p2305
aVDRILL-4343
p2306
aVDRILL-4342
p2307
aVDRILL-4341
p2308
aVDRILL-4340
p2309
aVDRILL-4339
p2310
aVDRILL-4338
p2311
aVDRILL-4337
p2312
aVDRILL-4336
p2313
aVDRILL-4335
p2314
aVDRILL-4334
p2315
aVDRILL-4333
p2316
aVDRILL-4332
p2317
aVDRILL-4331
p2318
aVDRILL-4330
p2319
aVDRILL-4329
p2320
aVDRILL-4328
p2321
aVDRILL-4327
p2322
aVDRILL-4326
p2323
aVDRILL-4325
p2324
aVDRILL-4324
p2325
aVDRILL-4323
p2326
aVDRILL-4322
p2327
aVDRILL-4321
p2328
aVDRILL-4320
p2329
aVDRILL-4319
p2330
aVDRILL-4318
p2331
aVDRILL-4317
p2332
aVDRILL-4316
p2333
aVDRILL-4315
p2334
aVDRILL-4314
p2335
aVDRILL-4313
p2336
aVDRILL-4312
p2337
aVDRILL-4311
p2338
aVDRILL-4310
p2339
aVDRILL-4309
p2340
aVDRILL-4308
p2341
aVDRILL-4307
p2342
aVDRILL-4306
p2343
aVDRILL-4305
p2344
aVDRILL-4304
p2345
aVDRILL-4303
p2346
aVDRILL-4302
p2347
aVDRILL-4301
p2348
aVDRILL-4300
p2349
aVDRILL-4299
p2350
aVDRILL-4298
p2351
aVDRILL-4297
p2352
aVDRILL-4296
p2353
aVDRILL-4295
p2354
aVDRILL-4294
p2355
aVDRILL-4293
p2356
aVDRILL-4292
p2357
aVDRILL-4291
p2358
aVDRILL-4290
p2359
aVDRILL-4289
p2360
aVDRILL-4288
p2361
aVDRILL-4287
p2362
aVDRILL-4286
p2363
aVDRILL-4285
p2364
aVDRILL-4284
p2365
aVDRILL-4283
p2366
aVDRILL-4282
p2367
aVDRILL-4281
p2368
aVDRILL-4280
p2369
aVDRILL-4279
p2370
aVDRILL-4278
p2371
aVDRILL-4277
p2372
aVDRILL-4276
p2373
aVDRILL-4275
p2374
aVDRILL-4274
p2375
aVDRILL-4273
p2376
aVDRILL-4272
p2377
aVDRILL-4271
p2378
aVDRILL-4270
p2379
aVDRILL-4269
p2380
aVDRILL-4268
p2381
aVDRILL-4267
p2382
aVDRILL-4266
p2383
aVDRILL-4265
p2384
aVDRILL-4264
p2385
aVDRILL-4263
p2386
aVDRILL-4262
p2387
aVDRILL-4261
p2388
aVDRILL-4260
p2389
aVDRILL-4259
p2390
aVDRILL-4258
p2391
aVDRILL-4257
p2392
aVDRILL-4256
p2393
aVDRILL-4255
p2394
aVDRILL-4254
p2395
aVDRILL-4253
p2396
aVDRILL-4252
p2397
aVDRILL-4251
p2398
aVDRILL-4250
p2399
aVDRILL-4249
p2400
aVDRILL-4248
p2401
aVDRILL-4247
p2402
aVDRILL-4246
p2403
aVDRILL-4245
p2404
aVDRILL-4244
p2405
aVDRILL-4243
p2406
aVDRILL-4242
p2407
aVDRILL-4241
p2408
aVDRILL-4240
p2409
aVDRILL-4239
p2410
aVDRILL-4238
p2411
aVDRILL-4237
p2412
aVDRILL-4236
p2413
aVDRILL-4235
p2414
aVDRILL-4234
p2415
aVDRILL-4233
p2416
aVDRILL-4232
p2417
aVDRILL-4231
p2418
aVDRILL-4230
p2419
aVDRILL-4229
p2420
aVDRILL-4228
p2421
aVDRILL-4227
p2422
aVDRILL-4226
p2423
aVDRILL-4225
p2424
aVDRILL-4224
p2425
aVDRILL-4223
p2426
aVDRILL-4222
p2427
aVDRILL-4221
p2428
aVDRILL-4220
p2429
aVDRILL-4219
p2430
aVDRILL-4218
p2431
aVDRILL-4217
p2432
aVDRILL-4216
p2433
aVDRILL-4215
p2434
aVDRILL-4214
p2435
aVDRILL-4213
p2436
aVDRILL-4212
p2437
aVDRILL-4211
p2438
aVDRILL-4210
p2439
aVDRILL-4209
p2440
aVDRILL-4208
p2441
aVDRILL-4207
p2442
aVDRILL-4206
p2443
aVDRILL-4205
p2444
aVDRILL-4204
p2445
aVDRILL-4203
p2446
aVDRILL-4202
p2447
aVDRILL-4201
p2448
aVDRILL-4200
p2449
aVDRILL-4199
p2450
aVDRILL-4198
p2451
aVDRILL-4197
p2452
aVDRILL-4196
p2453
aVDRILL-4195
p2454
aVDRILL-4194
p2455
aVDRILL-4193
p2456
aVDRILL-4192
p2457
aVDRILL-4191
p2458
aVDRILL-4190
p2459
aVDRILL-4189
p2460
aVDRILL-4188
p2461
aVDRILL-4187
p2462
aVDRILL-4186
p2463
aVDRILL-4185
p2464
aVDRILL-4184
p2465
aVDRILL-4183
p2466
aVDRILL-4182
p2467
aVDRILL-4181
p2468
aVDRILL-4180
p2469
aVDRILL-4179
p2470
aVDRILL-4178
p2471
aVDRILL-4177
p2472
aVDRILL-4176
p2473
aVDRILL-4175
p2474
aVDRILL-4174
p2475
aVDRILL-4173
p2476
aVDRILL-4172
p2477
aVDRILL-4171
p2478
aVDRILL-4170
p2479
aVDRILL-4169
p2480
aVDRILL-4168
p2481
aVDRILL-4167
p2482
aVDRILL-4166
p2483
aVDRILL-4165
p2484
aVDRILL-4164
p2485
aVDRILL-4163
p2486
aVDRILL-4162
p2487
aVDRILL-4161
p2488
aVDRILL-4160
p2489
aVDRILL-4159
p2490
aVDRILL-4158
p2491
aVDRILL-4157
p2492
aVDRILL-4156
p2493
aVDRILL-4155
p2494
aVDRILL-4154
p2495
aVDRILL-4153
p2496
aVDRILL-4152
p2497
aVDRILL-4151
p2498
aVDRILL-4150
p2499
aVDRILL-4149
p2500
aVDRILL-4148
p2501
aVDRILL-4147
p2502
aVDRILL-4146
p2503
aVDRILL-4145
p2504
aVDRILL-4144
p2505
aVDRILL-4143
p2506
aVDRILL-4142
p2507
aVDRILL-4141
p2508
aVDRILL-4140
p2509
aVDRILL-4139
p2510
aVDRILL-4138
p2511
aVDRILL-4137
p2512
aVDRILL-4136
p2513
aVDRILL-4135
p2514
aVDRILL-4134
p2515
aVDRILL-4133
p2516
aVDRILL-4132
p2517
aVDRILL-4131
p2518
aVDRILL-4130
p2519
aVDRILL-4129
p2520
aVDRILL-4128
p2521
aVDRILL-4127
p2522
aVDRILL-4126
p2523
aVDRILL-4125
p2524
aVDRILL-4124
p2525
aVDRILL-4123
p2526
aVDRILL-4122
p2527
aVDRILL-4121
p2528
aVDRILL-4120
p2529
aVDRILL-4119
p2530
aVDRILL-4118
p2531
aVDRILL-4117
p2532
aVDRILL-4116
p2533
aVDRILL-4115
p2534
aVDRILL-4114
p2535
aVDRILL-4113
p2536
aVDRILL-4112
p2537
aVDRILL-4111
p2538
aVDRILL-4110
p2539
aVDRILL-4109
p2540
aVDRILL-4108
p2541
aVDRILL-4107
p2542
aVDRILL-4106
p2543
aVDRILL-4105
p2544
aVDRILL-4104
p2545
aVDRILL-4103
p2546
aVDRILL-4102
p2547
aVDRILL-4101
p2548
aVDRILL-4100
p2549
aVDRILL-4099
p2550
aVDRILL-4098
p2551
aVDRILL-4097
p2552
aVDRILL-4096
p2553
aVDRILL-4095
p2554
aVDRILL-4094
p2555
aVDRILL-4093
p2556
aVDRILL-4092
p2557
aVDRILL-4091
p2558
aVDRILL-4090
p2559
aVDRILL-4089
p2560
aVDRILL-4088
p2561
aVDRILL-4087
p2562
aVDRILL-4086
p2563
aVDRILL-4085
p2564
aVDRILL-4084
p2565
aVDRILL-4083
p2566
aVDRILL-4082
p2567
aVDRILL-4081
p2568
aVDRILL-4080
p2569
aVDRILL-4079
p2570
aVDRILL-4078
p2571
aVDRILL-4077
p2572
aVDRILL-4076
p2573
aVDRILL-4075
p2574
aVDRILL-4074
p2575
aVDRILL-4073
p2576
aVDRILL-4072
p2577
aVDRILL-4071
p2578
aVDRILL-4070
p2579
aVDRILL-4069
p2580
aVDRILL-4068
p2581
aVDRILL-4067
p2582
aVDRILL-4066
p2583
aVDRILL-4065
p2584
aVDRILL-4064
p2585
aVDRILL-4063
p2586
aVDRILL-4062
p2587
aVDRILL-4061
p2588
aVDRILL-4060
p2589
aVDRILL-4059
p2590
aVDRILL-4058
p2591
aVDRILL-4057
p2592
aVDRILL-4056
p2593
aVDRILL-4055
p2594
aVDRILL-4054
p2595
aVDRILL-4053
p2596
aVDRILL-4052
p2597
aVDRILL-4051
p2598
aVDRILL-4050
p2599
aVDRILL-4049
p2600
aVDRILL-4048
p2601
aVDRILL-4047
p2602
aVDRILL-4046
p2603
aVDRILL-4045
p2604
aVDRILL-4044
p2605
aVDRILL-4043
p2606
aVDRILL-4042
p2607
aVDRILL-4041
p2608
aVDRILL-4040
p2609
aVDRILL-4039
p2610
aVDRILL-4038
p2611
aVDRILL-4037
p2612
aVDRILL-4036
p2613
aVDRILL-4035
p2614
aVDRILL-4034
p2615
aVDRILL-4033
p2616
aVDRILL-4032
p2617
aVDRILL-4031
p2618
aVDRILL-4030
p2619
aVDRILL-4029
p2620
aVDRILL-4028
p2621
aVDRILL-4027
p2622
aVDRILL-4026
p2623
aVDRILL-4025
p2624
aVDRILL-4024
p2625
aVDRILL-4023
p2626
aVDRILL-4022
p2627
aVDRILL-4021
p2628
aVDRILL-4020
p2629
aVDRILL-4019
p2630
aVDRILL-4018
p2631
aVDRILL-4017
p2632
aVDRILL-4016
p2633
aVDRILL-4015
p2634
aVDRILL-4014
p2635
aVDRILL-4013
p2636
aVDRILL-4012
p2637
aVDRILL-4011
p2638
aVDRILL-4010
p2639
aVDRILL-4009
p2640
aVDRILL-4008
p2641
aVDRILL-4007
p2642
aVDRILL-4006
p2643
aVDRILL-4005
p2644
aVDRILL-4004
p2645
aVDRILL-4003
p2646
aVDRILL-4002
p2647
aVDRILL-4001
p2648
aVDRILL-4000
p2649
aVDRILL-3999
p2650
aVDRILL-3998
p2651
aVDRILL-3997
p2652
aVDRILL-3996
p2653
aVDRILL-3995
p2654
aVDRILL-3994
p2655
aVDRILL-3993
p2656
aVDRILL-3992
p2657
aVDRILL-3991
p2658
aVDRILL-3990
p2659
aVDRILL-3989
p2660
aVDRILL-3988
p2661
aVDRILL-3987
p2662
aVDRILL-3986
p2663
aVDRILL-3985
p2664
aVDRILL-3984
p2665
aVDRILL-3983
p2666
aVDRILL-3982
p2667
aVDRILL-3981
p2668
aVDRILL-3980
p2669
aVDRILL-3979
p2670
aVDRILL-3978
p2671
aVDRILL-3977
p2672
aVDRILL-3976
p2673
aVDRILL-3975
p2674
aVDRILL-3974
p2675
aVDRILL-3973
p2676
aVDRILL-3972
p2677
aVDRILL-3971
p2678
aVDRILL-3970
p2679
aVDRILL-3969
p2680
aVDRILL-3968
p2681
aVDRILL-3967
p2682
aVDRILL-3966
p2683
aVDRILL-3965
p2684
aVDRILL-3964
p2685
aVDRILL-3963
p2686
aVDRILL-3962
p2687
aVDRILL-3961
p2688
aVDRILL-3960
p2689
aVDRILL-3959
p2690
aVDRILL-3958
p2691
aVDRILL-3957
p2692
aVDRILL-3956
p2693
aVDRILL-3955
p2694
aVDRILL-3954
p2695
aVDRILL-3953
p2696
aVDRILL-3952
p2697
aVDRILL-3951
p2698
aVDRILL-3950
p2699
aVDRILL-3949
p2700
aVDRILL-3948
p2701
aVDRILL-3947
p2702
aVDRILL-3946
p2703
aVDRILL-3945
p2704
aVDRILL-3944
p2705
aVDRILL-3943
p2706
aVDRILL-3942
p2707
aVDRILL-3941
p2708
aVDRILL-3940
p2709
aVDRILL-3939
p2710
aVDRILL-3938
p2711
aVDRILL-3937
p2712
aVDRILL-3936
p2713
aVDRILL-3935
p2714
aVDRILL-3934
p2715
aVDRILL-3933
p2716
aVDRILL-3932
p2717
aVDRILL-3931
p2718
aVDRILL-3930
p2719
aVDRILL-3929
p2720
aVDRILL-3928
p2721
aVDRILL-3927
p2722
aVDRILL-3926
p2723
aVDRILL-3925
p2724
aVDRILL-3924
p2725
aVDRILL-3923
p2726
aVDRILL-3922
p2727
aVDRILL-3921
p2728
aVDRILL-3920
p2729
aVDRILL-3919
p2730
aVDRILL-3918
p2731
aVDRILL-3917
p2732
aVDRILL-3916
p2733
aVDRILL-3915
p2734
aVDRILL-3914
p2735
aVDRILL-3913
p2736
aVDRILL-3912
p2737
aVDRILL-3911
p2738
aVDRILL-3910
p2739
aVDRILL-3909
p2740
aVDRILL-3908
p2741
aVDRILL-3907
p2742
aVDRILL-3906
p2743
aVDRILL-3905
p2744
aVDRILL-3904
p2745
aVDRILL-3903
p2746
aVDRILL-3902
p2747
aVDRILL-3901
p2748
aVDRILL-3900
p2749
aVDRILL-3899
p2750
aVDRILL-3898
p2751
aVDRILL-3897
p2752
aVDRILL-3896
p2753
aVDRILL-3895
p2754
aVDRILL-3894
p2755
aVDRILL-3893
p2756
aVDRILL-3892
p2757
aVDRILL-3891
p2758
aVDRILL-3890
p2759
aVDRILL-3889
p2760
aVDRILL-3888
p2761
aVDRILL-3887
p2762
aVDRILL-3886
p2763
aVDRILL-3885
p2764
aVDRILL-3884
p2765
aVDRILL-3883
p2766
aVDRILL-3882
p2767
aVDRILL-3881
p2768
aVDRILL-3880
p2769
aVDRILL-3879
p2770
aVDRILL-3878
p2771
aVDRILL-3877
p2772
aVDRILL-3876
p2773
aVDRILL-3875
p2774
aVDRILL-3874
p2775
aVDRILL-3873
p2776
aVDRILL-3872
p2777
aVDRILL-3871
p2778
aVDRILL-3870
p2779
aVDRILL-3869
p2780
aVDRILL-3868
p2781
aVDRILL-3867
p2782
aVDRILL-3866
p2783
aVDRILL-3865
p2784
aVDRILL-3864
p2785
aVDRILL-3863
p2786
aVDRILL-3862
p2787
aVDRILL-3861
p2788
aVDRILL-3860
p2789
aVDRILL-3859
p2790
aVDRILL-3858
p2791
aVDRILL-3857
p2792
aVDRILL-3856
p2793
aVDRILL-3855
p2794
aVDRILL-3854
p2795
aVDRILL-3853
p2796
aVDRILL-3852
p2797
aVDRILL-3851
p2798
aVDRILL-3850
p2799
aVDRILL-3849
p2800
aVDRILL-3848
p2801
aVDRILL-3847
p2802
aVDRILL-3846
p2803
aVDRILL-3845
p2804
aVDRILL-3844
p2805
aVDRILL-3843
p2806
aVDRILL-3842
p2807
aVDRILL-3841
p2808
aVDRILL-3840
p2809
aVDRILL-3839
p2810
aVDRILL-3838
p2811
aVDRILL-3837
p2812
aVDRILL-3836
p2813
aVDRILL-3835
p2814
aVDRILL-3834
p2815
aVDRILL-3833
p2816
aVDRILL-3832
p2817
aVDRILL-3831
p2818
aVDRILL-3830
p2819
aVDRILL-3829
p2820
aVDRILL-3828
p2821
aVDRILL-3827
p2822
aVDRILL-3826
p2823
aVDRILL-3825
p2824
aVDRILL-3824
p2825
aVDRILL-3823
p2826
aVDRILL-3822
p2827
aVDRILL-3821
p2828
aVDRILL-3820
p2829
aVDRILL-3819
p2830
aVDRILL-3818
p2831
aVDRILL-3817
p2832
aVDRILL-3816
p2833
aVDRILL-3815
p2834
aVDRILL-3814
p2835
aVDRILL-3813
p2836
aVDRILL-3812
p2837
aVDRILL-3811
p2838
aVDRILL-3810
p2839
aVDRILL-3809
p2840
aVDRILL-3808
p2841
aVDRILL-3807
p2842
aVDRILL-3806
p2843
aVDRILL-3805
p2844
aVDRILL-3804
p2845
aVDRILL-3803
p2846
aVDRILL-3802
p2847
aVDRILL-3801
p2848
aVDRILL-3800
p2849
aVDRILL-3799
p2850
aVDRILL-3798
p2851
aVDRILL-3797
p2852
aVDRILL-3796
p2853
aVDRILL-3795
p2854
aVDRILL-3794
p2855
aVDRILL-3793
p2856
aVDRILL-3792
p2857
aVDRILL-3791
p2858
aVDRILL-3790
p2859
aVDRILL-3789
p2860
aVDRILL-3788
p2861
aVDRILL-3787
p2862
aVDRILL-3786
p2863
aVDRILL-3785
p2864
aVDRILL-3784
p2865
aVDRILL-3783
p2866
aVDRILL-3782
p2867
aVDRILL-3781
p2868
aVDRILL-3780
p2869
aVDRILL-3779
p2870
aVDRILL-3778
p2871
aVDRILL-3777
p2872
aVDRILL-3776
p2873
aVDRILL-3775
p2874
aVDRILL-3774
p2875
aVDRILL-3773
p2876
aVDRILL-3772
p2877
aVDRILL-3771
p2878
aVDRILL-3770
p2879
aVDRILL-3769
p2880
aVDRILL-3768
p2881
aVDRILL-3767
p2882
aVDRILL-3766
p2883
aVDRILL-3765
p2884
aVDRILL-3764
p2885
aVDRILL-3763
p2886
aVDRILL-3762
p2887
aVDRILL-3761
p2888
aVDRILL-3760
p2889
aVDRILL-3759
p2890
aVDRILL-3758
p2891
aVDRILL-3757
p2892
aVDRILL-3756
p2893
aVDRILL-3755
p2894
aVDRILL-3754
p2895
aVDRILL-3753
p2896
aVDRILL-3752
p2897
aVDRILL-3751
p2898
aVDRILL-3750
p2899
aVDRILL-3749
p2900
aVDRILL-3748
p2901
aVDRILL-3747
p2902
aVDRILL-3746
p2903
aVDRILL-3745
p2904
aVDRILL-3744
p2905
aVDRILL-3743
p2906
aVDRILL-3742
p2907
aVDRILL-3741
p2908
aVDRILL-3740
p2909
aVDRILL-3739
p2910
aVDRILL-3738
p2911
aVDRILL-3737
p2912
aVDRILL-3736
p2913
aVDRILL-3735
p2914
aVDRILL-3734
p2915
aVDRILL-3733
p2916
aVDRILL-3732
p2917
aVDRILL-3731
p2918
aVDRILL-3730
p2919
aVDRILL-3729
p2920
aVDRILL-3728
p2921
aVDRILL-3727
p2922
aVDRILL-3726
p2923
aVDRILL-3725
p2924
aVDRILL-3724
p2925
aVDRILL-3723
p2926
aVDRILL-3722
p2927
aVDRILL-3721
p2928
aVDRILL-3720
p2929
aVDRILL-3719
p2930
aVDRILL-3718
p2931
aVDRILL-3717
p2932
aVDRILL-3716
p2933
aVDRILL-3715
p2934
aVDRILL-3714
p2935
aVDRILL-3713
p2936
aVDRILL-3712
p2937
aVDRILL-3711
p2938
aVDRILL-3710
p2939
aVDRILL-3709
p2940
aVDRILL-3708
p2941
aVDRILL-3707
p2942
aVDRILL-3706
p2943
aVDRILL-3705
p2944
aVDRILL-3704
p2945
aVDRILL-3703
p2946
aVDRILL-3702
p2947
aVDRILL-3701
p2948
aVDRILL-3700
p2949
aVDRILL-3699
p2950
aVDRILL-3698
p2951
aVDRILL-3697
p2952
aVDRILL-3696
p2953
aVDRILL-3695
p2954
aVDRILL-3694
p2955
aVDRILL-3693
p2956
aVDRILL-3692
p2957
aVDRILL-3691
p2958
aVDRILL-3690
p2959
aVDRILL-3689
p2960
aVDRILL-3688
p2961
aVDRILL-3687
p2962
aVDRILL-3686
p2963
aVDRILL-3685
p2964
aVDRILL-3684
p2965
aVDRILL-3683
p2966
aVDRILL-3682
p2967
aVDRILL-3681
p2968
aVDRILL-3680
p2969
aVDRILL-3679
p2970
aVDRILL-3678
p2971
aVDRILL-3677
p2972
aVDRILL-3676
p2973
aVDRILL-3675
p2974
aVDRILL-3674
p2975
aVDRILL-3673
p2976
aVDRILL-3672
p2977
aVDRILL-3671
p2978
aVDRILL-3670
p2979
aVDRILL-3669
p2980
aVDRILL-3668
p2981
aVDRILL-3667
p2982
aVDRILL-3666
p2983
aVDRILL-3665
p2984
aVDRILL-3664
p2985
aVDRILL-3663
p2986
aVDRILL-3662
p2987
aVDRILL-3661
p2988
aVDRILL-3660
p2989
aVDRILL-3659
p2990
aVDRILL-3658
p2991
aVDRILL-3657
p2992
aVDRILL-3656
p2993
aVDRILL-3655
p2994
aVDRILL-3654
p2995
aVDRILL-3653
p2996
aVDRILL-3652
p2997
aVDRILL-3651
p2998
aVDRILL-3650
p2999
aVDRILL-3649
p3000
aVDRILL-3648
p3001
aVDRILL-3647
p3002
aVDRILL-3646
p3003
aVDRILL-3645
p3004
aVDRILL-3644
p3005
aVDRILL-3643
p3006
aVDRILL-3642
p3007
aVDRILL-3641
p3008
aVDRILL-3640
p3009
aVDRILL-3639
p3010
aVDRILL-3638
p3011
aVDRILL-3637
p3012
aVDRILL-3636
p3013
aVDRILL-3635
p3014
aVDRILL-3634
p3015
aVDRILL-3633
p3016
aVDRILL-3632
p3017
aVDRILL-3631
p3018
aVDRILL-3630
p3019
aVDRILL-3629
p3020
aVDRILL-3628
p3021
aVDRILL-3627
p3022
aVDRILL-3626
p3023
aVDRILL-3625
p3024
aVDRILL-3624
p3025
aVDRILL-3623
p3026
aVDRILL-3622
p3027
aVDRILL-3621
p3028
aVDRILL-3620
p3029
aVDRILL-3619
p3030
aVDRILL-3618
p3031
aVDRILL-3617
p3032
aVDRILL-3616
p3033
aVDRILL-3615
p3034
aVDRILL-3614
p3035
aVDRILL-3613
p3036
aVDRILL-3612
p3037
aVDRILL-3611
p3038
aVDRILL-3610
p3039
aVDRILL-3609
p3040
aVDRILL-3608
p3041
aVDRILL-3607
p3042
aVDRILL-3606
p3043
aVDRILL-3605
p3044
aVDRILL-3604
p3045
aVDRILL-3603
p3046
aVDRILL-3602
p3047
aVDRILL-3601
p3048
aVDRILL-3600
p3049
aVDRILL-3599
p3050
aVDRILL-3598
p3051
aVDRILL-3597
p3052
aVDRILL-3596
p3053
aVDRILL-3595
p3054
aVDRILL-3594
p3055
aVDRILL-3593
p3056
aVDRILL-3592
p3057
aVDRILL-3591
p3058
aVDRILL-3590
p3059
aVDRILL-3589
p3060
aVDRILL-3588
p3061
aVDRILL-3587
p3062
aVDRILL-3586
p3063
aVDRILL-3585
p3064
aVDRILL-3584
p3065
aVDRILL-3583
p3066
aVDRILL-3582
p3067
aVDRILL-3581
p3068
aVDRILL-3580
p3069
aVDRILL-3579
p3070
aVDRILL-3578
p3071
aVDRILL-3577
p3072
aVDRILL-3576
p3073
aVDRILL-3575
p3074
aVDRILL-3574
p3075
aVDRILL-3573
p3076
aVDRILL-3572
p3077
aVDRILL-3571
p3078
aVDRILL-3570
p3079
aVDRILL-3569
p3080
aVDRILL-3568
p3081
aVDRILL-3567
p3082
aVDRILL-3566
p3083
aVDRILL-3565
p3084
aVDRILL-3564
p3085
aVDRILL-3563
p3086
aVDRILL-3562
p3087
aVDRILL-3561
p3088
aVDRILL-3560
p3089
aVDRILL-3559
p3090
aVDRILL-3558
p3091
aVDRILL-3557
p3092
aVDRILL-3556
p3093
aVDRILL-3555
p3094
aVDRILL-3554
p3095
aVDRILL-3553
p3096
aVDRILL-3552
p3097
aVDRILL-3551
p3098
aVDRILL-3550
p3099
aVDRILL-3549
p3100
aVDRILL-3548
p3101
aVDRILL-3547
p3102
aVDRILL-3546
p3103
aVDRILL-3545
p3104
aVDRILL-3544
p3105
aVDRILL-3543
p3106
aVDRILL-3542
p3107
aVDRILL-3541
p3108
aVDRILL-3540
p3109
aVDRILL-3539
p3110
aVDRILL-3538
p3111
aVDRILL-3537
p3112
aVDRILL-3536
p3113
aVDRILL-3535
p3114
aVDRILL-3534
p3115
aVDRILL-3533
p3116
aVDRILL-3532
p3117
aVDRILL-3531
p3118
aVDRILL-3530
p3119
aVDRILL-3529
p3120
aVDRILL-3528
p3121
aVDRILL-3527
p3122
aVDRILL-3526
p3123
aVDRILL-3525
p3124
aVDRILL-3524
p3125
aVDRILL-3523
p3126
aVDRILL-3522
p3127
aVDRILL-3521
p3128
aVDRILL-3520
p3129
aVDRILL-3519
p3130
aVDRILL-3518
p3131
aVDRILL-3517
p3132
aVDRILL-3516
p3133
aVDRILL-3515
p3134
aVDRILL-3514
p3135
aVDRILL-3513
p3136
aVDRILL-3512
p3137
aVDRILL-3511
p3138
aVDRILL-3510
p3139
aVDRILL-3509
p3140
aVDRILL-3508
p3141
aVDRILL-3507
p3142
aVDRILL-3506
p3143
aVDRILL-3505
p3144
aVDRILL-3504
p3145
aVDRILL-3503
p3146
aVDRILL-3502
p3147
aVDRILL-3501
p3148
aVDRILL-3500
p3149
aVDRILL-3499
p3150
aVDRILL-3498
p3151
aVDRILL-3497
p3152
aVDRILL-3496
p3153
aVDRILL-3495
p3154
aVDRILL-3494
p3155
aVDRILL-3493
p3156
aVDRILL-3492
p3157
aVDRILL-3491
p3158
aVDRILL-3490
p3159
aVDRILL-3489
p3160
aVDRILL-3488
p3161
aVDRILL-3487
p3162
aVDRILL-3486
p3163
aVDRILL-3485
p3164
aVDRILL-3484
p3165
aVDRILL-3483
p3166
aVDRILL-3482
p3167
aVDRILL-3481
p3168
aVDRILL-3480
p3169
aVDRILL-3479
p3170
aVDRILL-3478
p3171
aVDRILL-3477
p3172
aVDRILL-3476
p3173
aVDRILL-3475
p3174
aVDRILL-3474
p3175
aVDRILL-3473
p3176
aVDRILL-3472
p3177
aVDRILL-3471
p3178
aVDRILL-3470
p3179
aVDRILL-3469
p3180
aVDRILL-3468
p3181
aVDRILL-3467
p3182
aVDRILL-3466
p3183
aVDRILL-3465
p3184
aVDRILL-3464
p3185
aVDRILL-3463
p3186
aVDRILL-3462
p3187
aVDRILL-3461
p3188
aVDRILL-3460
p3189
aVDRILL-3459
p3190
aVDRILL-3458
p3191
aVDRILL-3457
p3192
aVDRILL-3456
p3193
aVDRILL-3455
p3194
aVDRILL-3454
p3195
aVDRILL-3453
p3196
aVDRILL-3452
p3197
aVDRILL-3451
p3198
aVDRILL-3450
p3199
aVDRILL-3449
p3200
aVDRILL-3448
p3201
aVDRILL-3447
p3202
aVDRILL-3446
p3203
aVDRILL-3445
p3204
aVDRILL-3444
p3205
aVDRILL-3443
p3206
aVDRILL-3442
p3207
aVDRILL-3441
p3208
aVDRILL-3440
p3209
aVDRILL-3439
p3210
aVDRILL-3438
p3211
aVDRILL-3437
p3212
aVDRILL-3436
p3213
aVDRILL-3435
p3214
aVDRILL-3434
p3215
aVDRILL-3433
p3216
aVDRILL-3432
p3217
aVDRILL-3431
p3218
aVDRILL-3430
p3219
aVDRILL-3429
p3220
aVDRILL-3428
p3221
aVDRILL-3427
p3222
aVDRILL-3426
p3223
aVDRILL-3425
p3224
aVDRILL-3424
p3225
aVDRILL-3423
p3226
aVDRILL-3422
p3227
aVDRILL-3421
p3228
aVDRILL-3420
p3229
aVDRILL-3419
p3230
aVDRILL-3418
p3231
aVDRILL-3417
p3232
aVDRILL-3416
p3233
aVDRILL-3415
p3234
aVDRILL-3414
p3235
aVDRILL-3413
p3236
aVDRILL-3412
p3237
aVDRILL-3411
p3238
aVDRILL-3410
p3239
aVDRILL-3409
p3240
aVDRILL-3408
p3241
aVDRILL-3407
p3242
aVDRILL-3406
p3243
aVDRILL-3405
p3244
aVDRILL-3404
p3245
aVDRILL-3403
p3246
aVDRILL-3402
p3247
aVDRILL-3401
p3248
aVDRILL-3400
p3249
aVDRILL-3399
p3250
aVDRILL-3398
p3251
aVDRILL-3397
p3252
aVDRILL-3396
p3253
aVDRILL-3395
p3254
aVDRILL-3394
p3255
aVDRILL-3393
p3256
aVDRILL-3392
p3257
aVDRILL-3391
p3258
aVDRILL-3390
p3259
aVDRILL-3389
p3260
aVDRILL-3388
p3261
aVDRILL-3387
p3262
aVDRILL-3386
p3263
aVDRILL-3385
p3264
aVDRILL-3384
p3265
aVDRILL-3383
p3266
aVDRILL-3382
p3267
aVDRILL-3381
p3268
aVDRILL-3380
p3269
aVDRILL-3379
p3270
aVDRILL-3378
p3271
aVDRILL-3377
p3272
aVDRILL-3376
p3273
aVDRILL-3375
p3274
aVDRILL-3374
p3275
aVDRILL-3373
p3276
aVDRILL-3372
p3277
aVDRILL-3371
p3278
aVDRILL-3370
p3279
aVDRILL-3369
p3280
aVDRILL-3368
p3281
aVDRILL-3367
p3282
aVDRILL-3366
p3283
aVDRILL-3365
p3284
aVDRILL-3364
p3285
aVDRILL-3363
p3286
aVDRILL-3362
p3287
aVDRILL-3361
p3288
aVDRILL-3360
p3289
aVDRILL-3359
p3290
aVDRILL-3358
p3291
aVDRILL-3357
p3292
aVDRILL-3356
p3293
aVDRILL-3355
p3294
aVDRILL-3354
p3295
aVDRILL-3353
p3296
aVDRILL-3352
p3297
aVDRILL-3351
p3298
aVDRILL-3350
p3299
aVDRILL-3349
p3300
aVDRILL-3348
p3301
aVDRILL-3347
p3302
aVDRILL-3346
p3303
aVDRILL-3345
p3304
aVDRILL-3344
p3305
aVDRILL-3343
p3306
aVDRILL-3342
p3307
aVDRILL-3341
p3308
aVDRILL-3340
p3309
aVDRILL-3339
p3310
aVDRILL-3338
p3311
aVDRILL-3337
p3312
aVDRILL-3336
p3313
aVDRILL-3335
p3314
aVDRILL-3334
p3315
aVDRILL-3333
p3316
aVDRILL-3332
p3317
aVDRILL-3331
p3318
aVDRILL-3330
p3319
aVDRILL-3329
p3320
aVDRILL-3328
p3321
aVDRILL-3327
p3322
aVDRILL-3326
p3323
aVDRILL-3325
p3324
aVDRILL-3324
p3325
aVDRILL-3323
p3326
aVDRILL-3322
p3327
aVDRILL-3321
p3328
aVDRILL-3320
p3329
aVDRILL-3319
p3330
aVDRILL-3318
p3331
aVDRILL-3317
p3332
aVDRILL-3316
p3333
aVDRILL-3315
p3334
aVDRILL-3314
p3335
aVDRILL-3313
p3336
aVDRILL-3312
p3337
aVDRILL-3311
p3338
aVDRILL-3310
p3339
aVDRILL-3309
p3340
aVDRILL-3308
p3341
aVDRILL-3307
p3342
aVDRILL-3306
p3343
aVDRILL-3305
p3344
aVDRILL-3304
p3345
aVDRILL-3303
p3346
aVDRILL-3302
p3347
aVDRILL-3301
p3348
aVDRILL-3300
p3349
aVDRILL-3299
p3350
aVDRILL-3298
p3351
aVDRILL-3297
p3352
aVDRILL-3296
p3353
aVDRILL-3295
p3354
aVDRILL-3294
p3355
aVDRILL-3293
p3356
aVDRILL-3292
p3357
aVDRILL-3291
p3358
aVDRILL-3290
p3359
aVDRILL-3289
p3360
aVDRILL-3288
p3361
aVDRILL-3287
p3362
aVDRILL-3286
p3363
aVDRILL-3285
p3364
aVDRILL-3284
p3365
aVDRILL-3283
p3366
aVDRILL-3282
p3367
aVDRILL-3281
p3368
aVDRILL-3280
p3369
aVDRILL-3279
p3370
aVDRILL-3278
p3371
aVDRILL-3277
p3372
aVDRILL-3276
p3373
aVDRILL-3275
p3374
aVDRILL-3274
p3375
aVDRILL-3273
p3376
aVDRILL-3272
p3377
aVDRILL-3271
p3378
aVDRILL-3270
p3379
aVDRILL-3269
p3380
aVDRILL-3268
p3381
aVDRILL-3267
p3382
aVDRILL-3266
p3383
aVDRILL-3265
p3384
aVDRILL-3264
p3385
aVDRILL-3263
p3386
aVDRILL-3262
p3387
aVDRILL-3261
p3388
aVDRILL-3260
p3389
aVDRILL-3259
p3390
aVDRILL-3258
p3391
aVDRILL-3257
p3392
aVDRILL-3256
p3393
aVDRILL-3255
p3394
aVDRILL-3254
p3395
aVDRILL-3253
p3396
aVDRILL-3252
p3397
aVDRILL-3251
p3398
aVDRILL-3250
p3399
aVDRILL-3249
p3400
aVDRILL-3248
p3401
aVDRILL-3247
p3402
aVDRILL-3246
p3403
aVDRILL-3245
p3404
aVDRILL-3244
p3405
aVDRILL-3243
p3406
aVDRILL-3242
p3407
aVDRILL-3241
p3408
aVDRILL-3240
p3409
aVDRILL-3239
p3410
aVDRILL-3238
p3411
aVDRILL-3237
p3412
aVDRILL-3236
p3413
aVDRILL-3235
p3414
aVDRILL-3234
p3415
aVDRILL-3233
p3416
aVDRILL-3232
p3417
aVDRILL-3231
p3418
aVDRILL-3230
p3419
aVDRILL-3229
p3420
aVDRILL-3228
p3421
aVDRILL-3227
p3422
aVDRILL-3226
p3423
aVDRILL-3225
p3424
aVDRILL-3224
p3425
aVDRILL-3223
p3426
aVDRILL-3222
p3427
aVDRILL-3221
p3428
aVDRILL-3220
p3429
aVDRILL-3219
p3430
aVDRILL-3218
p3431
aVDRILL-3217
p3432
aVDRILL-3216
p3433
aVDRILL-3215
p3434
aVDRILL-3214
p3435
aVDRILL-3213
p3436
aVDRILL-3212
p3437
aVDRILL-3211
p3438
aVDRILL-3210
p3439
aVDRILL-3209
p3440
aVDRILL-3208
p3441
aVDRILL-3207
p3442
aVDRILL-3206
p3443
aVDRILL-3205
p3444
aVDRILL-3204
p3445
aVDRILL-3203
p3446
aVDRILL-3202
p3447
aVDRILL-3201
p3448
aVDRILL-3200
p3449
aVDRILL-3199
p3450
aVDRILL-3198
p3451
aVDRILL-3197
p3452
aVDRILL-3196
p3453
aVDRILL-3195
p3454
aVDRILL-3194
p3455
aVDRILL-3193
p3456
aVDRILL-3192
p3457
aVDRILL-3191
p3458
aVDRILL-3190
p3459
aVDRILL-3189
p3460
aVDRILL-3188
p3461
aVDRILL-3187
p3462
aVDRILL-3186
p3463
aVDRILL-3185
p3464
aVDRILL-3184
p3465
aVDRILL-3183
p3466
aVDRILL-3182
p3467
aVDRILL-3181
p3468
aVDRILL-3180
p3469
aVDRILL-3179
p3470
aVDRILL-3178
p3471
aVDRILL-3177
p3472
aVDRILL-3176
p3473
aVDRILL-3175
p3474
aVDRILL-3174
p3475
aVDRILL-3173
p3476
aVDRILL-3172
p3477
aVDRILL-3171
p3478
aVDRILL-3170
p3479
aVDRILL-3169
p3480
aVDRILL-3168
p3481
aVDRILL-3167
p3482
aVDRILL-3166
p3483
aVDRILL-3165
p3484
aVDRILL-3164
p3485
aVDRILL-3163
p3486
aVDRILL-3162
p3487
aVDRILL-3161
p3488
aVDRILL-3160
p3489
aVDRILL-3159
p3490
aVDRILL-3158
p3491
aVDRILL-3157
p3492
aVDRILL-3156
p3493
aVDRILL-3155
p3494
aVDRILL-3154
p3495
aVDRILL-3153
p3496
aVDRILL-3152
p3497
aVDRILL-3151
p3498
aVDRILL-3150
p3499
aVDRILL-3149
p3500
aVDRILL-3148
p3501
aVDRILL-3147
p3502
aVDRILL-3146
p3503
aVDRILL-3145
p3504
aVDRILL-3144
p3505
aVDRILL-3143
p3506
aVDRILL-3142
p3507
aVDRILL-3141
p3508
aVDRILL-3140
p3509
aVDRILL-3139
p3510
aVDRILL-3138
p3511
aVDRILL-3137
p3512
aVDRILL-3136
p3513
aVDRILL-3135
p3514
aVDRILL-3134
p3515
aVDRILL-3133
p3516
aVDRILL-3132
p3517
aVDRILL-3131
p3518
aVDRILL-3130
p3519
aVDRILL-3129
p3520
aVDRILL-3128
p3521
aVDRILL-3127
p3522
aVDRILL-3126
p3523
aVDRILL-3125
p3524
aVDRILL-3124
p3525
aVDRILL-3123
p3526
aVDRILL-3122
p3527
aVDRILL-3121
p3528
aVDRILL-3120
p3529
aVDRILL-3119
p3530
aVDRILL-3118
p3531
aVDRILL-3117
p3532
aVDRILL-3116
p3533
aVDRILL-3115
p3534
aVDRILL-3114
p3535
aVDRILL-3113
p3536
aVDRILL-3112
p3537
aVDRILL-3111
p3538
aVDRILL-3110
p3539
aVDRILL-3109
p3540
aVDRILL-3108
p3541
aVDRILL-3107
p3542
aVDRILL-3106
p3543
aVDRILL-3105
p3544
aVDRILL-3104
p3545
aVDRILL-3103
p3546
aVDRILL-3102
p3547
aVDRILL-3101
p3548
aVDRILL-3100
p3549
aVDRILL-3099
p3550
aVDRILL-3098
p3551
aVDRILL-3097
p3552
aVDRILL-3096
p3553
aVDRILL-3095
p3554
aVDRILL-3094
p3555
aVDRILL-3093
p3556
aVDRILL-3092
p3557
aVDRILL-3091
p3558
aVDRILL-3090
p3559
aVDRILL-3089
p3560
aVDRILL-3088
p3561
aVDRILL-3087
p3562
aVDRILL-3086
p3563
aVDRILL-3085
p3564
aVDRILL-3084
p3565
aVDRILL-3083
p3566
aVDRILL-3082
p3567
aVDRILL-3081
p3568
aVDRILL-3080
p3569
aVDRILL-3079
p3570
aVDRILL-3078
p3571
aVDRILL-3077
p3572
aVDRILL-3076
p3573
aVDRILL-3075
p3574
aVDRILL-3074
p3575
aVDRILL-3073
p3576
aVDRILL-3072
p3577
aVDRILL-3071
p3578
aVDRILL-3070
p3579
aVDRILL-3069
p3580
aVDRILL-3068
p3581
aVDRILL-3067
p3582
aVDRILL-3066
p3583
aVDRILL-3065
p3584
aVDRILL-3064
p3585
aVDRILL-3063
p3586
aVDRILL-3062
p3587
aVDRILL-3061
p3588
aVDRILL-3060
p3589
aVDRILL-3059
p3590
aVDRILL-3058
p3591
aVDRILL-3057
p3592
aVDRILL-3056
p3593
aVDRILL-3055
p3594
aVDRILL-3054
p3595
aVDRILL-3053
p3596
aVDRILL-3052
p3597
aVDRILL-3051
p3598
aVDRILL-3050
p3599
aVDRILL-3049
p3600
aVDRILL-3048
p3601
aVDRILL-3047
p3602
aVDRILL-3046
p3603
aVDRILL-3045
p3604
aVDRILL-3044
p3605
aVDRILL-3043
p3606
aVDRILL-3042
p3607
aVDRILL-3041
p3608
aVDRILL-3040
p3609
aVDRILL-3039
p3610
aVDRILL-3038
p3611
aVDRILL-3037
p3612
aVDRILL-3036
p3613
aVDRILL-3035
p3614
aVDRILL-3034
p3615
aVDRILL-3033
p3616
aVDRILL-3032
p3617
aVDRILL-3031
p3618
aVDRILL-3030
p3619
aVDRILL-3029
p3620
aVDRILL-3028
p3621
aVDRILL-3027
p3622
aVDRILL-3026
p3623
aVDRILL-3025
p3624
aVDRILL-3024
p3625
aVDRILL-3023
p3626
aVDRILL-3022
p3627
aVDRILL-3021
p3628
aVDRILL-3020
p3629
aVDRILL-3019
p3630
aVDRILL-3018
p3631
aVDRILL-3017
p3632
aVDRILL-3016
p3633
aVDRILL-3015
p3634
aVDRILL-3014
p3635
aVDRILL-3013
p3636
aVDRILL-3012
p3637
aVDRILL-3011
p3638
aVDRILL-3010
p3639
aVDRILL-3009
p3640
aVDRILL-3008
p3641
aVDRILL-3007
p3642
aVDRILL-3006
p3643
aVDRILL-3005
p3644
aVDRILL-3004
p3645
aVDRILL-3003
p3646
aVDRILL-3002
p3647
aVDRILL-3001
p3648
aVDRILL-3000
p3649
aVDRILL-2999
p3650
aVDRILL-2998
p3651
aVDRILL-2997
p3652
aVDRILL-2996
p3653
aVDRILL-2995
p3654
aVDRILL-2994
p3655
aVDRILL-2993
p3656
aVDRILL-2992
p3657
aVDRILL-2991
p3658
aVDRILL-2990
p3659
aVDRILL-2989
p3660
aVDRILL-2988
p3661
aVDRILL-2987
p3662
aVDRILL-2986
p3663
aVDRILL-2985
p3664
aVDRILL-2984
p3665
aVDRILL-2983
p3666
aVDRILL-2982
p3667
aVDRILL-2981
p3668
aVDRILL-2980
p3669
aVDRILL-2979
p3670
aVDRILL-2978
p3671
aVDRILL-2977
p3672
aVDRILL-2976
p3673
aVDRILL-2975
p3674
aVDRILL-2974
p3675
aVDRILL-2973
p3676
aVDRILL-2972
p3677
aVDRILL-2971
p3678
aVDRILL-2970
p3679
aVDRILL-2969
p3680
aVDRILL-2968
p3681
aVDRILL-2967
p3682
aVDRILL-2966
p3683
aVDRILL-2965
p3684
aVDRILL-2964
p3685
aVDRILL-2963
p3686
aVDRILL-2962
p3687
aVDRILL-2961
p3688
aVDRILL-2960
p3689
aVDRILL-2959
p3690
aVDRILL-2958
p3691
aVDRILL-2957
p3692
aVDRILL-2956
p3693
aVDRILL-2955
p3694
aVDRILL-2954
p3695
aVDRILL-2953
p3696
aVDRILL-2952
p3697
aVDRILL-2951
p3698
aVDRILL-2950
p3699
aVDRILL-2949
p3700
aVDRILL-2948
p3701
aVDRILL-2947
p3702
aVDRILL-2946
p3703
aVDRILL-2945
p3704
aVDRILL-2944
p3705
aVDRILL-2943
p3706
aVDRILL-2942
p3707
aVDRILL-2941
p3708
aVDRILL-2940
p3709
aVDRILL-2939
p3710
aVDRILL-2938
p3711
aVDRILL-2937
p3712
aVDRILL-2936
p3713
aVDRILL-2935
p3714
aVDRILL-2934
p3715
aVDRILL-2933
p3716
aVDRILL-2932
p3717
aVDRILL-2931
p3718
aVDRILL-2930
p3719
aVDRILL-2929
p3720
aVDRILL-2928
p3721
aVDRILL-2927
p3722
aVDRILL-2926
p3723
aVDRILL-2925
p3724
aVDRILL-2924
p3725
aVDRILL-2923
p3726
aVDRILL-2922
p3727
aVDRILL-2921
p3728
aVDRILL-2920
p3729
aVDRILL-2919
p3730
aVDRILL-2918
p3731
aVDRILL-2917
p3732
aVDRILL-2916
p3733
aVDRILL-2915
p3734
aVDRILL-2914
p3735
aVDRILL-2913
p3736
aVDRILL-2912
p3737
aVDRILL-2911
p3738
aVDRILL-2910
p3739
aVDRILL-2909
p3740
aVDRILL-2908
p3741
aVDRILL-2907
p3742
aVDRILL-2906
p3743
aVDRILL-2905
p3744
aVDRILL-2904
p3745
aVDRILL-2903
p3746
aVDRILL-2902
p3747
aVDRILL-2901
p3748
aVDRILL-2900
p3749
aVDRILL-2899
p3750
aVDRILL-2898
p3751
aVDRILL-2897
p3752
aVDRILL-2896
p3753
aVDRILL-2895
p3754
aVDRILL-2894
p3755
aVDRILL-2893
p3756
aVDRILL-2892
p3757
aVDRILL-2891
p3758
aVDRILL-2890
p3759
aVDRILL-2889
p3760
aVDRILL-2888
p3761
aVDRILL-2887
p3762
aVDRILL-2886
p3763
aVDRILL-2885
p3764
aVDRILL-2884
p3765
aVDRILL-2883
p3766
aVDRILL-2882
p3767
aVDRILL-2881
p3768
aVDRILL-2880
p3769
aVDRILL-2879
p3770
aVDRILL-2878
p3771
aVDRILL-2877
p3772
aVDRILL-2876
p3773
aVDRILL-2875
p3774
aVDRILL-2874
p3775
aVDRILL-2873
p3776
aVDRILL-2872
p3777
aVDRILL-2871
p3778
aVDRILL-2870
p3779
aVDRILL-2869
p3780
aVDRILL-2868
p3781
aVDRILL-2867
p3782
aVDRILL-2866
p3783
aVDRILL-2865
p3784
aVDRILL-2864
p3785
aVDRILL-2863
p3786
aVDRILL-2862
p3787
aVDRILL-2861
p3788
aVDRILL-2860
p3789
aVDRILL-2859
p3790
aVDRILL-2858
p3791
aVDRILL-2857
p3792
aVDRILL-2856
p3793
aVDRILL-2855
p3794
aVDRILL-2854
p3795
aVDRILL-2853
p3796
aVDRILL-2852
p3797
aVDRILL-2851
p3798
aVDRILL-2850
p3799
aVDRILL-2849
p3800
aVDRILL-2848
p3801
aVDRILL-2847
p3802
aVDRILL-2846
p3803
aVDRILL-2845
p3804
aVDRILL-2844
p3805
aVDRILL-2843
p3806
aVDRILL-2842
p3807
aVDRILL-2841
p3808
aVDRILL-2840
p3809
aVDRILL-2839
p3810
aVDRILL-2838
p3811
aVDRILL-2837
p3812
aVDRILL-2836
p3813
aVDRILL-2835
p3814
aVDRILL-2834
p3815
aVDRILL-2833
p3816
aVDRILL-2832
p3817
aVDRILL-2831
p3818
aVDRILL-2830
p3819
aVDRILL-2829
p3820
aVDRILL-2828
p3821
aVDRILL-2827
p3822
aVDRILL-2826
p3823
aVDRILL-2825
p3824
aVDRILL-2824
p3825
aVDRILL-2823
p3826
aVDRILL-2822
p3827
aVDRILL-2821
p3828
aVDRILL-2820
p3829
aVDRILL-2819
p3830
aVDRILL-2818
p3831
aVDRILL-2817
p3832
aVDRILL-2816
p3833
aVDRILL-2815
p3834
aVDRILL-2814
p3835
aVDRILL-2813
p3836
aVDRILL-2812
p3837
aVDRILL-2811
p3838
aVDRILL-2810
p3839
aVDRILL-2809
p3840
aVDRILL-2808
p3841
aVDRILL-2807
p3842
aVDRILL-2806
p3843
aVDRILL-2805
p3844
aVDRILL-2804
p3845
aVDRILL-2803
p3846
aVDRILL-2802
p3847
aVDRILL-2801
p3848
aVDRILL-2800
p3849
aVDRILL-2799
p3850
aVDRILL-2798
p3851
aVDRILL-2797
p3852
aVDRILL-2796
p3853
aVDRILL-2795
p3854
aVDRILL-2794
p3855
aVDRILL-2793
p3856
aVDRILL-2792
p3857
aVDRILL-2791
p3858
aVDRILL-2790
p3859
aVDRILL-2789
p3860
aVDRILL-2788
p3861
aVDRILL-2787
p3862
aVDRILL-2786
p3863
aVDRILL-2785
p3864
aVDRILL-2784
p3865
aVDRILL-2783
p3866
aVDRILL-2782
p3867
aVDRILL-2781
p3868
aVDRILL-2780
p3869
aVDRILL-2779
p3870
aVDRILL-2778
p3871
aVDRILL-2777
p3872
aVDRILL-2776
p3873
aVDRILL-2775
p3874
aVDRILL-2774
p3875
aVDRILL-2773
p3876
aVDRILL-2772
p3877
aVDRILL-2771
p3878
aVDRILL-2770
p3879
aVDRILL-2769
p3880
aVDRILL-2768
p3881
aVDRILL-2767
p3882
aVDRILL-2766
p3883
aVDRILL-2765
p3884
aVDRILL-2764
p3885
aVDRILL-2763
p3886
aVDRILL-2762
p3887
aVDRILL-2761
p3888
aVDRILL-2760
p3889
aVDRILL-2759
p3890
aVDRILL-2758
p3891
aVDRILL-2757
p3892
aVDRILL-2756
p3893
aVDRILL-2755
p3894
aVDRILL-2754
p3895
aVDRILL-2753
p3896
aVDRILL-2752
p3897
aVDRILL-2751
p3898
aVDRILL-2750
p3899
aVDRILL-2749
p3900
aVDRILL-2748
p3901
aVDRILL-2747
p3902
aVDRILL-2746
p3903
aVDRILL-2745
p3904
aVDRILL-2744
p3905
aVDRILL-2743
p3906
aVDRILL-2742
p3907
aVDRILL-2741
p3908
aVDRILL-2740
p3909
aVDRILL-2739
p3910
aVDRILL-2738
p3911
aVDRILL-2737
p3912
aVDRILL-2736
p3913
aVDRILL-2735
p3914
aVDRILL-2734
p3915
aVDRILL-2733
p3916
aVDRILL-2732
p3917
aVDRILL-2731
p3918
aVDRILL-2730
p3919
aVDRILL-2729
p3920
aVDRILL-2728
p3921
aVDRILL-2727
p3922
aVDRILL-2726
p3923
aVDRILL-2725
p3924
aVDRILL-2724
p3925
aVDRILL-2723
p3926
aVDRILL-2722
p3927
aVDRILL-2721
p3928
aVDRILL-2720
p3929
aVDRILL-2719
p3930
aVDRILL-2718
p3931
aVDRILL-2717
p3932
aVDRILL-2716
p3933
aVDRILL-2715
p3934
aVDRILL-2714
p3935
aVDRILL-2713
p3936
aVDRILL-2712
p3937
aVDRILL-2711
p3938
aVDRILL-2710
p3939
aVDRILL-2709
p3940
aVDRILL-2708
p3941
aVDRILL-2707
p3942
aVDRILL-2706
p3943
aVDRILL-2705
p3944
aVDRILL-2704
p3945
aVDRILL-2703
p3946
aVDRILL-2702
p3947
aVDRILL-2701
p3948
aVDRILL-2700
p3949
aVDRILL-2699
p3950
aVDRILL-2698
p3951
aVDRILL-2697
p3952
aVDRILL-2696
p3953
aVDRILL-2695
p3954
aVDRILL-2694
p3955
aVDRILL-2693
p3956
aVDRILL-2692
p3957
aVDRILL-2691
p3958
aVDRILL-2690
p3959
aVDRILL-2689
p3960
aVDRILL-2688
p3961
aVDRILL-2687
p3962
aVDRILL-2686
p3963
aVDRILL-2685
p3964
aVDRILL-2684
p3965
aVDRILL-2683
p3966
aVDRILL-2682
p3967
aVDRILL-2681
p3968
aVDRILL-2680
p3969
aVDRILL-2679
p3970
aVDRILL-2678
p3971
aVDRILL-2677
p3972
aVDRILL-2676
p3973
aVDRILL-2675
p3974
aVDRILL-2674
p3975
aVDRILL-2673
p3976
aVDRILL-2672
p3977
aVDRILL-2671
p3978
aVDRILL-2670
p3979
aVDRILL-2669
p3980
aVDRILL-2668
p3981
aVDRILL-2667
p3982
aVDRILL-2666
p3983
aVDRILL-2665
p3984
aVDRILL-2664
p3985
aVDRILL-2663
p3986
aVDRILL-2662
p3987
aVDRILL-2661
p3988
aVDRILL-2660
p3989
aVDRILL-2659
p3990
aVDRILL-2658
p3991
aVDRILL-2657
p3992
aVDRILL-2656
p3993
aVDRILL-2655
p3994
aVDRILL-2654
p3995
aVDRILL-2653
p3996
aVDRILL-2652
p3997
aVDRILL-2651
p3998
aVDRILL-2650
p3999
aVDRILL-2649
p4000
aVDRILL-2648
p4001
aVDRILL-2647
p4002
aVDRILL-2646
p4003
aVDRILL-2645
p4004
aVDRILL-2644
p4005
aVDRILL-2643
p4006
aVDRILL-2642
p4007
aVDRILL-2641
p4008
aVDRILL-2640
p4009
aVDRILL-2639
p4010
aVDRILL-2638
p4011
aVDRILL-2637
p4012
aVDRILL-2636
p4013
aVDRILL-2635
p4014
aVDRILL-2634
p4015
aVDRILL-2633
p4016
aVDRILL-2632
p4017
aVDRILL-2631
p4018
aVDRILL-2630
p4019
aVDRILL-2629
p4020
aVDRILL-2628
p4021
aVDRILL-2627
p4022
aVDRILL-2626
p4023
aVDRILL-2625
p4024
aVDRILL-2624
p4025
aVDRILL-2623
p4026
aVDRILL-2622
p4027
aVDRILL-2621
p4028
aVDRILL-2620
p4029
aVDRILL-2619
p4030
aVDRILL-2618
p4031
aVDRILL-2617
p4032
aVDRILL-2616
p4033
aVDRILL-2615
p4034
aVDRILL-2614
p4035
aVDRILL-2613
p4036
aVDRILL-2612
p4037
aVDRILL-2611
p4038
aVDRILL-2610
p4039
aVDRILL-2609
p4040
aVDRILL-2608
p4041
aVDRILL-2607
p4042
aVDRILL-2606
p4043
aVDRILL-2605
p4044
aVDRILL-2604
p4045
aVDRILL-2603
p4046
aVDRILL-2602
p4047
aVDRILL-2601
p4048
aVDRILL-2600
p4049
aVDRILL-2599
p4050
aVDRILL-2598
p4051
aVDRILL-2597
p4052
aVDRILL-2596
p4053
aVDRILL-2595
p4054
aVDRILL-2594
p4055
aVDRILL-2593
p4056
aVDRILL-2592
p4057
aVDRILL-2591
p4058
aVDRILL-2590
p4059
aVDRILL-2589
p4060
aVDRILL-2588
p4061
aVDRILL-2587
p4062
aVDRILL-2586
p4063
aVDRILL-2585
p4064
aVDRILL-2584
p4065
aVDRILL-2583
p4066
aVDRILL-2582
p4067
aVDRILL-2581
p4068
aVDRILL-2580
p4069
aVDRILL-2579
p4070
aVDRILL-2578
p4071
aVDRILL-2577
p4072
aVDRILL-2576
p4073
aVDRILL-2575
p4074
aVDRILL-2574
p4075
aVDRILL-2573
p4076
aVDRILL-2572
p4077
aVDRILL-2571
p4078
aVDRILL-2570
p4079
aVDRILL-2569
p4080
aVDRILL-2568
p4081
aVDRILL-2567
p4082
aVDRILL-2566
p4083
aVDRILL-2565
p4084
aVDRILL-2564
p4085
aVDRILL-2563
p4086
aVDRILL-2562
p4087
aVDRILL-2561
p4088
aVDRILL-2560
p4089
aVDRILL-2559
p4090
aVDRILL-2558
p4091
aVDRILL-2557
p4092
aVDRILL-2556
p4093
aVDRILL-2555
p4094
aVDRILL-2554
p4095
aVDRILL-2553
p4096
aVDRILL-2552
p4097
aVDRILL-2551
p4098
aVDRILL-2550
p4099
aVDRILL-2549
p4100
aVDRILL-2548
p4101
aVDRILL-2547
p4102
aVDRILL-2546
p4103
aVDRILL-2545
p4104
aVDRILL-2544
p4105
aVDRILL-2543
p4106
aVDRILL-2542
p4107
aVDRILL-2541
p4108
aVDRILL-2540
p4109
aVDRILL-2539
p4110
aVDRILL-2538
p4111
aVDRILL-2537
p4112
aVDRILL-2536
p4113
aVDRILL-2535
p4114
aVDRILL-2534
p4115
aVDRILL-2533
p4116
aVDRILL-2532
p4117
aVDRILL-2531
p4118
aVDRILL-2530
p4119
aVDRILL-2529
p4120
aVDRILL-2528
p4121
aVDRILL-2527
p4122
aVDRILL-2526
p4123
aVDRILL-2525
p4124
aVDRILL-2524
p4125
aVDRILL-2523
p4126
aVDRILL-2522
p4127
aVDRILL-2521
p4128
aVDRILL-2520
p4129
aVDRILL-2519
p4130
aVDRILL-2518
p4131
aVDRILL-2517
p4132
aVDRILL-2516
p4133
aVDRILL-2515
p4134
aVDRILL-2514
p4135
aVDRILL-2513
p4136
aVDRILL-2512
p4137
aVDRILL-2511
p4138
aVDRILL-2510
p4139
aVDRILL-2509
p4140
aVDRILL-2508
p4141
aVDRILL-2507
p4142
aVDRILL-2506
p4143
aVDRILL-2505
p4144
aVDRILL-2504
p4145
aVDRILL-2503
p4146
aVDRILL-2502
p4147
aVDRILL-2501
p4148
aVDRILL-2500
p4149
aVDRILL-2499
p4150
aVDRILL-2498
p4151
aVDRILL-2497
p4152
aVDRILL-2496
p4153
aVDRILL-2495
p4154
aVDRILL-2494
p4155
aVDRILL-2493
p4156
aVDRILL-2492
p4157
aVDRILL-2491
p4158
aVDRILL-2490
p4159
aVDRILL-2489
p4160
aVDRILL-2488
p4161
aVDRILL-2487
p4162
aVDRILL-2486
p4163
aVDRILL-2485
p4164
aVDRILL-2484
p4165
aVDRILL-2483
p4166
aVDRILL-2482
p4167
aVDRILL-2481
p4168
aVDRILL-2480
p4169
aVDRILL-2479
p4170
aVDRILL-2478
p4171
aVDRILL-2477
p4172
aVDRILL-2476
p4173
aVDRILL-2475
p4174
aVDRILL-2474
p4175
aVDRILL-2473
p4176
aVDRILL-2472
p4177
aVDRILL-2471
p4178
aVDRILL-2470
p4179
aVDRILL-2469
p4180
aVDRILL-2468
p4181
aVDRILL-2467
p4182
aVDRILL-2466
p4183
aVDRILL-2465
p4184
aVDRILL-2464
p4185
aVDRILL-2463
p4186
aVDRILL-2462
p4187
aVDRILL-2461
p4188
aVDRILL-2460
p4189
aVDRILL-2459
p4190
aVDRILL-2458
p4191
aVDRILL-2457
p4192
aVDRILL-2456
p4193
aVDRILL-2455
p4194
aVDRILL-2454
p4195
aVDRILL-2453
p4196
aVDRILL-2452
p4197
aVDRILL-2451
p4198
aVDRILL-2450
p4199
aVDRILL-2449
p4200
aVDRILL-2448
p4201
aVDRILL-2447
p4202
aVDRILL-2446
p4203
aVDRILL-2445
p4204
aVDRILL-2444
p4205
aVDRILL-2443
p4206
aVDRILL-2442
p4207
aVDRILL-2441
p4208
aVDRILL-2440
p4209
aVDRILL-2439
p4210
aVDRILL-2438
p4211
aVDRILL-2437
p4212
aVDRILL-2436
p4213
aVDRILL-2435
p4214
aVDRILL-2434
p4215
aVDRILL-2433
p4216
aVDRILL-2432
p4217
aVDRILL-2431
p4218
aVDRILL-2430
p4219
aVDRILL-2429
p4220
aVDRILL-2428
p4221
aVDRILL-2427
p4222
aVDRILL-2426
p4223
aVDRILL-2425
p4224
aVDRILL-2424
p4225
aVDRILL-2423
p4226
aVDRILL-2422
p4227
aVDRILL-2421
p4228
aVDRILL-2420
p4229
aVDRILL-2419
p4230
aVDRILL-2418
p4231
aVDRILL-2417
p4232
aVDRILL-2416
p4233
aVDRILL-2415
p4234
aVDRILL-2414
p4235
aVDRILL-2413
p4236
aVDRILL-2412
p4237
aVDRILL-2411
p4238
aVDRILL-2410
p4239
aVDRILL-2409
p4240
aVDRILL-2408
p4241
aVDRILL-2407
p4242
aVDRILL-2406
p4243
aVDRILL-2405
p4244
aVDRILL-2404
p4245
aVDRILL-2403
p4246
aVDRILL-2402
p4247
aVDRILL-2401
p4248
aVDRILL-2400
p4249
aVDRILL-2399
p4250
aVDRILL-2398
p4251
aVDRILL-2397
p4252
aVDRILL-2396
p4253
aVDRILL-2395
p4254
aVDRILL-2394
p4255
aVDRILL-2393
p4256
aVDRILL-2392
p4257
aVDRILL-2391
p4258
aVDRILL-2390
p4259
aVDRILL-2389
p4260
aVDRILL-2388
p4261
aVDRILL-2387
p4262
aVDRILL-2386
p4263
aVDRILL-2385
p4264
aVDRILL-2384
p4265
aVDRILL-2383
p4266
aVDRILL-2382
p4267
aVDRILL-2381
p4268
aVDRILL-2380
p4269
aVDRILL-2379
p4270
aVDRILL-2378
p4271
aVDRILL-2377
p4272
aVDRILL-2376
p4273
aVDRILL-2375
p4274
aVDRILL-2374
p4275
aVDRILL-2373
p4276
aVDRILL-2372
p4277
aVDRILL-2371
p4278
aVDRILL-2370
p4279
aVDRILL-2369
p4280
aVDRILL-2368
p4281
aVDRILL-2367
p4282
aVDRILL-2366
p4283
aVDRILL-2365
p4284
aVDRILL-2364
p4285
aVDRILL-2363
p4286
aVDRILL-2362
p4287
aVDRILL-2361
p4288
aVDRILL-2360
p4289
aVDRILL-2359
p4290
aVDRILL-2358
p4291
aVDRILL-2357
p4292
aVDRILL-2356
p4293
aVDRILL-2355
p4294
aVDRILL-2354
p4295
aVDRILL-2353
p4296
aVDRILL-2352
p4297
aVDRILL-2351
p4298
aVDRILL-2350
p4299
aVDRILL-2349
p4300
aVDRILL-2348
p4301
aVDRILL-2347
p4302
aVDRILL-2346
p4303
aVDRILL-2345
p4304
aVDRILL-2344
p4305
aVDRILL-2343
p4306
aVDRILL-2342
p4307
aVDRILL-2341
p4308
aVDRILL-2340
p4309
aVDRILL-2339
p4310
aVDRILL-2338
p4311
aVDRILL-2337
p4312
aVDRILL-2336
p4313
aVDRILL-2335
p4314
aVDRILL-2334
p4315
aVDRILL-2333
p4316
aVDRILL-2332
p4317
aVDRILL-2331
p4318
aVDRILL-2330
p4319
aVDRILL-2329
p4320
aVDRILL-2328
p4321
aVDRILL-2327
p4322
aVDRILL-2326
p4323
aVDRILL-2325
p4324
aVDRILL-2324
p4325
aVDRILL-2323
p4326
aVDRILL-2322
p4327
aVDRILL-2321
p4328
aVDRILL-2320
p4329
aVDRILL-2319
p4330
aVDRILL-2318
p4331
aVDRILL-2317
p4332
aVDRILL-2316
p4333
aVDRILL-2315
p4334
aVDRILL-2314
p4335
aVDRILL-2313
p4336
aVDRILL-2312
p4337
aVDRILL-2311
p4338
aVDRILL-2310
p4339
aVDRILL-2309
p4340
aVDRILL-2308
p4341
aVDRILL-2307
p4342
aVDRILL-2306
p4343
aVDRILL-2305
p4344
aVDRILL-2304
p4345
aVDRILL-2303
p4346
aVDRILL-2302
p4347
aVDRILL-2301
p4348
aVDRILL-2300
p4349
aVDRILL-2299
p4350
aVDRILL-2298
p4351
aVDRILL-2297
p4352
aVDRILL-2296
p4353
aVDRILL-2295
p4354
aVDRILL-2294
p4355
aVDRILL-2293
p4356
aVDRILL-2292
p4357
aVDRILL-2291
p4358
aVDRILL-2290
p4359
aVDRILL-2289
p4360
aVDRILL-2288
p4361
aVDRILL-2287
p4362
aVDRILL-2286
p4363
aVDRILL-2285
p4364
aVDRILL-2284
p4365
aVDRILL-2283
p4366
aVDRILL-2282
p4367
aVDRILL-2281
p4368
aVDRILL-2280
p4369
aVDRILL-2279
p4370
aVDRILL-2278
p4371
aVDRILL-2277
p4372
aVDRILL-2276
p4373
aVDRILL-2275
p4374
aVDRILL-2274
p4375
aVDRILL-2273
p4376
aVDRILL-2272
p4377
aVDRILL-2271
p4378
aVDRILL-2270
p4379
aVDRILL-2269
p4380
aVDRILL-2268
p4381
aVDRILL-2267
p4382
aVDRILL-2266
p4383
aVDRILL-2265
p4384
aVDRILL-2264
p4385
aVDRILL-2263
p4386
aVDRILL-2262
p4387
aVDRILL-2261
p4388
aVDRILL-2260
p4389
aVDRILL-2259
p4390
aVDRILL-2258
p4391
aVDRILL-2257
p4392
aVDRILL-2256
p4393
aVDRILL-2255
p4394
aVDRILL-2254
p4395
aVDRILL-2253
p4396
aVDRILL-2252
p4397
aVDRILL-2251
p4398
aVDRILL-2250
p4399
aVDRILL-2249
p4400
aVDRILL-2248
p4401
aVDRILL-2247
p4402
aVDRILL-2246
p4403
aVDRILL-2245
p4404
aVDRILL-2244
p4405
aVDRILL-2243
p4406
aVDRILL-2242
p4407
aVDRILL-2241
p4408
aVDRILL-2240
p4409
aVDRILL-2239
p4410
aVDRILL-2238
p4411
aVDRILL-2237
p4412
aVDRILL-2236
p4413
aVDRILL-2235
p4414
aVDRILL-2234
p4415
aVDRILL-2233
p4416
aVDRILL-2232
p4417
aVDRILL-2231
p4418
aVDRILL-2230
p4419
aVDRILL-2229
p4420
aVDRILL-2228
p4421
aVDRILL-2227
p4422
aVDRILL-2226
p4423
aVDRILL-2225
p4424
aVDRILL-2224
p4425
aVDRILL-2223
p4426
aVDRILL-2222
p4427
aVDRILL-2221
p4428
aVDRILL-2220
p4429
aVDRILL-2219
p4430
aVDRILL-2218
p4431
aVDRILL-2217
p4432
aVDRILL-2216
p4433
aVDRILL-2215
p4434
aVDRILL-2214
p4435
aVDRILL-2213
p4436
aVDRILL-2212
p4437
aVDRILL-2211
p4438
aVDRILL-2210
p4439
aVDRILL-2209
p4440
aVDRILL-2208
p4441
aVDRILL-2207
p4442
aVDRILL-2206
p4443
aVDRILL-2205
p4444
aVDRILL-2204
p4445
aVDRILL-2203
p4446
aVDRILL-2202
p4447
aVDRILL-2201
p4448
aVDRILL-2200
p4449
aVDRILL-2199
p4450
aVDRILL-2198
p4451
aVDRILL-2197
p4452
aVDRILL-2196
p4453
aVDRILL-2195
p4454
aVDRILL-2194
p4455
aVDRILL-2193
p4456
aVDRILL-2192
p4457
aVDRILL-2191
p4458
aVDRILL-2190
p4459
aVDRILL-2189
p4460
aVDRILL-2188
p4461
aVDRILL-2187
p4462
aVDRILL-2186
p4463
aVDRILL-2185
p4464
aVDRILL-2184
p4465
aVDRILL-2183
p4466
aVDRILL-2182
p4467
aVDRILL-2181
p4468
aVDRILL-2180
p4469
aVDRILL-2179
p4470
aVDRILL-2178
p4471
aVDRILL-2177
p4472
aVDRILL-2176
p4473
aVDRILL-2175
p4474
aVDRILL-2174
p4475
aVDRILL-2173
p4476
aVDRILL-2172
p4477
aVDRILL-2171
p4478
aVDRILL-2170
p4479
aVDRILL-2169
p4480
aVDRILL-2168
p4481
aVDRILL-2167
p4482
aVDRILL-2166
p4483
aVDRILL-2165
p4484
aVDRILL-2164
p4485
aVDRILL-2163
p4486
aVDRILL-2162
p4487
aVDRILL-2161
p4488
aVDRILL-2160
p4489
aVDRILL-2159
p4490
aVDRILL-2158
p4491
aVDRILL-2157
p4492
aVDRILL-2156
p4493
aVDRILL-2155
p4494
aVDRILL-2154
p4495
aVDRILL-2153
p4496
aVDRILL-2152
p4497
aVDRILL-2151
p4498
aVDRILL-2150
p4499
aVDRILL-2149
p4500
aVDRILL-2148
p4501
aVDRILL-2147
p4502
aVDRILL-2146
p4503
aVDRILL-2145
p4504
aVDRILL-2144
p4505
aVDRILL-2143
p4506
aVDRILL-2142
p4507
aVDRILL-2141
p4508
aVDRILL-2140
p4509
aVDRILL-2139
p4510
aVDRILL-2138
p4511
aVDRILL-2137
p4512
aVDRILL-2136
p4513
aVDRILL-2135
p4514
aVDRILL-2134
p4515
aVDRILL-2133
p4516
aVDRILL-2132
p4517
aVDRILL-2131
p4518
aVDRILL-2130
p4519
aVDRILL-2129
p4520
aVDRILL-2128
p4521
aVDRILL-2127
p4522
aVDRILL-2126
p4523
aVDRILL-2125
p4524
aVDRILL-2124
p4525
aVDRILL-2123
p4526
aVDRILL-2122
p4527
aVDRILL-2121
p4528
aVDRILL-2120
p4529
aVDRILL-2119
p4530
aVDRILL-2118
p4531
aVDRILL-2117
p4532
aVDRILL-2116
p4533
aVDRILL-2115
p4534
aVDRILL-2114
p4535
aVDRILL-2113
p4536
aVDRILL-2112
p4537
aVDRILL-2111
p4538
aVDRILL-2110
p4539
aVDRILL-2109
p4540
aVDRILL-2108
p4541
aVDRILL-2107
p4542
aVDRILL-2106
p4543
aVDRILL-2105
p4544
aVDRILL-2104
p4545
aVDRILL-2103
p4546
aVDRILL-2102
p4547
aVDRILL-2101
p4548
aVDRILL-2100
p4549
aVDRILL-2099
p4550
aVDRILL-2098
p4551
aVDRILL-2097
p4552
aVDRILL-2096
p4553
aVDRILL-2095
p4554
aVDRILL-2094
p4555
aVDRILL-2093
p4556
aVDRILL-2092
p4557
aVDRILL-2091
p4558
aVDRILL-2090
p4559
aVDRILL-2089
p4560
aVDRILL-2088
p4561
aVDRILL-2087
p4562
aVDRILL-2086
p4563
aVDRILL-2085
p4564
aVDRILL-2084
p4565
aVDRILL-2083
p4566
aVDRILL-2082
p4567
aVDRILL-2081
p4568
aVDRILL-2080
p4569
aVDRILL-2079
p4570
aVDRILL-2078
p4571
aVDRILL-2077
p4572
aVDRILL-2076
p4573
aVDRILL-2075
p4574
aVDRILL-2074
p4575
aVDRILL-2073
p4576
aVDRILL-2072
p4577
aVDRILL-2071
p4578
aVDRILL-2070
p4579
aVDRILL-2069
p4580
aVDRILL-2068
p4581
aVDRILL-2066
p4582
aVDRILL-2065
p4583
aVDRILL-2064
p4584
aVDRILL-2063
p4585
aVDRILL-2062
p4586
aVDRILL-2061
p4587
aVDRILL-2060
p4588
aVDRILL-2059
p4589
aVDRILL-2058
p4590
aVDRILL-2057
p4591
aVDRILL-2056
p4592
aVDRILL-2055
p4593
aVDRILL-2054
p4594
aVDRILL-2053
p4595
aVDRILL-2052
p4596
aVDRILL-2051
p4597
aVDRILL-2050
p4598
aVDRILL-2049
p4599
aVDRILL-2048
p4600
aVDRILL-2047
p4601
aVDRILL-2046
p4602
aVDRILL-2045
p4603
aVDRILL-2044
p4604
aVDRILL-2043
p4605
aVDRILL-2042
p4606
aVDRILL-2041
p4607
aVDRILL-2040
p4608
aVDRILL-2039
p4609
aVDRILL-2038
p4610
aVDRILL-2037
p4611
aVDRILL-2036
p4612
aVDRILL-2035
p4613
aVDRILL-2034
p4614
aVDRILL-2033
p4615
aVDRILL-2032
p4616
aVDRILL-2031
p4617
aVDRILL-2030
p4618
aVDRILL-2029
p4619
aVDRILL-2028
p4620
aVDRILL-2027
p4621
aVDRILL-2026
p4622
aVDRILL-2025
p4623
aVDRILL-2024
p4624
aVDRILL-2023
p4625
aVDRILL-2022
p4626
aVDRILL-2021
p4627
aVDRILL-2020
p4628
aVDRILL-2019
p4629
aVDRILL-2018
p4630
aVDRILL-2017
p4631
aVDRILL-2016
p4632
aVDRILL-2015
p4633
aVDRILL-2014
p4634
aVDRILL-2013
p4635
aVDRILL-2012
p4636
aVDRILL-2011
p4637
aVDRILL-2010
p4638
aVDRILL-2009
p4639
aVDRILL-2008
p4640
aVDRILL-2007
p4641
aVDRILL-2006
p4642
aVDRILL-2005
p4643
aVDRILL-2004
p4644
aVDRILL-2003
p4645
aVDRILL-2002
p4646
aVDRILL-2001
p4647
aVDRILL-2000
p4648
aVDRILL-1999
p4649
aVDRILL-1998
p4650
aVDRILL-1997
p4651
aVDRILL-1996
p4652
aVDRILL-1995
p4653
aVDRILL-1994
p4654
aVDRILL-1993
p4655
aVDRILL-1992
p4656
aVDRILL-1991
p4657
aVDRILL-1990
p4658
aVDRILL-1989
p4659
aVDRILL-1988
p4660
aVDRILL-1987
p4661
aVDRILL-1986
p4662
aVDRILL-1985
p4663
aVDRILL-1984
p4664
aVDRILL-1983
p4665
aVDRILL-1982
p4666
aVDRILL-1981
p4667
aVDRILL-1980
p4668
aVDRILL-1979
p4669
aVDRILL-1978
p4670
aVDRILL-1977
p4671
aVDRILL-1976
p4672
aVDRILL-1975
p4673
aVDRILL-1974
p4674
aVDRILL-1973
p4675
aVDRILL-1972
p4676
aVDRILL-1971
p4677
aVDRILL-1970
p4678
aVDRILL-1969
p4679
aVDRILL-1968
p4680
aVDRILL-1967
p4681
aVDRILL-1966
p4682
aVDRILL-1965
p4683
aVDRILL-1964
p4684
aVDRILL-1963
p4685
aVDRILL-1962
p4686
aVDRILL-1961
p4687
aVDRILL-1960
p4688
aVDRILL-1959
p4689
aVDRILL-1958
p4690
aVDRILL-1957
p4691
aVDRILL-1956
p4692
aVDRILL-1955
p4693
aVDRILL-1954
p4694
aVDRILL-1953
p4695
aVDRILL-1952
p4696
aVDRILL-1951
p4697
aVDRILL-1950
p4698
aVDRILL-1949
p4699
aVDRILL-1948
p4700
aVDRILL-1947
p4701
aVDRILL-1946
p4702
aVDRILL-1945
p4703
aVDRILL-1944
p4704
aVDRILL-1943
p4705
aVDRILL-1942
p4706
aVDRILL-1941
p4707
aVDRILL-1940
p4708
aVDRILL-1939
p4709
aVDRILL-1938
p4710
aVDRILL-1937
p4711
aVDRILL-1936
p4712
aVDRILL-1935
p4713
aVDRILL-1934
p4714
aVDRILL-1933
p4715
aVDRILL-1932
p4716
aVDRILL-1931
p4717
aVDRILL-1930
p4718
aVDRILL-1929
p4719
aVDRILL-1928
p4720
aVDRILL-1927
p4721
aVDRILL-1926
p4722
aVDRILL-1925
p4723
aVDRILL-1924
p4724
aVDRILL-1923
p4725
aVDRILL-1922
p4726
aVDRILL-1921
p4727
aVDRILL-1920
p4728
aVDRILL-1919
p4729
aVDRILL-1918
p4730
aVDRILL-1917
p4731
aVDRILL-1916
p4732
aVDRILL-1915
p4733
aVDRILL-1914
p4734
aVDRILL-1913
p4735
aVDRILL-1912
p4736
aVDRILL-1911
p4737
aVDRILL-1910
p4738
aVDRILL-1909
p4739
aVDRILL-1908
p4740
aVDRILL-1907
p4741
aVDRILL-1906
p4742
aVDRILL-1905
p4743
aVDRILL-1904
p4744
aVDRILL-1903
p4745
aVDRILL-1902
p4746
aVDRILL-1901
p4747
aVDRILL-1900
p4748
aVDRILL-1899
p4749
aVDRILL-1898
p4750
aVDRILL-1897
p4751
aVDRILL-1896
p4752
aVDRILL-1895
p4753
aVDRILL-1894
p4754
aVDRILL-1893
p4755
aVDRILL-1892
p4756
aVDRILL-1891
p4757
aVDRILL-1890
p4758
aVDRILL-1889
p4759
aVDRILL-1888
p4760
aVDRILL-1887
p4761
aVDRILL-1886
p4762
aVDRILL-1885
p4763
aVDRILL-1884
p4764
aVDRILL-1883
p4765
aVDRILL-1882
p4766
aVDRILL-1881
p4767
aVDRILL-1880
p4768
aVDRILL-1879
p4769
aVDRILL-1878
p4770
aVDRILL-1877
p4771
aVDRILL-1876
p4772
aVDRILL-1875
p4773
aVDRILL-1874
p4774
aVDRILL-1873
p4775
aVDRILL-1872
p4776
aVDRILL-1871
p4777
aVDRILL-1870
p4778
aVDRILL-1869
p4779
aVDRILL-1868
p4780
aVDRILL-1867
p4781
aVDRILL-1866
p4782
aVDRILL-1865
p4783
aVDRILL-1864
p4784
aVDRILL-1863
p4785
aVDRILL-1862
p4786
aVDRILL-1861
p4787
aVDRILL-1860
p4788
aVDRILL-1859
p4789
aVDRILL-1858
p4790
aVDRILL-1857
p4791
aVDRILL-1856
p4792
aVDRILL-1855
p4793
aVDRILL-1854
p4794
aVDRILL-1853
p4795
aVDRILL-1852
p4796
aVDRILL-1851
p4797
aVDRILL-1850
p4798
aVDRILL-1849
p4799
aVDRILL-1848
p4800
aVDRILL-1847
p4801
aVDRILL-1846
p4802
aVDRILL-1845
p4803
aVDRILL-1844
p4804
aVDRILL-1843
p4805
aVDRILL-1842
p4806
aVDRILL-1841
p4807
aVDRILL-1840
p4808
aVDRILL-1839
p4809
aVDRILL-1838
p4810
aVDRILL-1837
p4811
aVDRILL-1836
p4812
aVDRILL-1835
p4813
aVDRILL-1834
p4814
aVDRILL-1833
p4815
aVDRILL-1832
p4816
aVDRILL-1831
p4817
aVDRILL-1830
p4818
aVDRILL-1829
p4819
aVDRILL-1828
p4820
aVDRILL-1827
p4821
aVDRILL-1826
p4822
aVDRILL-1825
p4823
aVDRILL-1824
p4824
aVDRILL-1823
p4825
aVDRILL-1822
p4826
aVDRILL-1821
p4827
aVDRILL-1820
p4828
aVDRILL-1819
p4829
aVDRILL-1818
p4830
aVDRILL-1817
p4831
aVDRILL-1816
p4832
aVDRILL-1815
p4833
aVDRILL-1814
p4834
aVDRILL-1813
p4835
aVDRILL-1812
p4836
aVDRILL-1811
p4837
aVDRILL-1810
p4838
aVDRILL-1809
p4839
aVDRILL-1808
p4840
aVDRILL-1807
p4841
aVDRILL-1806
p4842
aVDRILL-1805
p4843
aVDRILL-1804
p4844
aVDRILL-1803
p4845
aVDRILL-1802
p4846
aVDRILL-1801
p4847
aVDRILL-1800
p4848
aVDRILL-1799
p4849
aVDRILL-1798
p4850
aVDRILL-1797
p4851
aVDRILL-1796
p4852
aVDRILL-1795
p4853
aVDRILL-1794
p4854
aVDRILL-1793
p4855
aVDRILL-1792
p4856
aVDRILL-1791
p4857
aVDRILL-1790
p4858
aVDRILL-1789
p4859
aVDRILL-1788
p4860
aVDRILL-1787
p4861
aVDRILL-1786
p4862
aVDRILL-1785
p4863
aVDRILL-1784
p4864
aVDRILL-1783
p4865
aVDRILL-1782
p4866
aVDRILL-1781
p4867
aVDRILL-1780
p4868
aVDRILL-1779
p4869
aVDRILL-1778
p4870
aVDRILL-1777
p4871
aVDRILL-1776
p4872
aVDRILL-1775
p4873
aVDRILL-1774
p4874
aVDRILL-1773
p4875
aVDRILL-1772
p4876
aVDRILL-1771
p4877
aVDRILL-1770
p4878
aVDRILL-1769
p4879
aVDRILL-1768
p4880
aVDRILL-1767
p4881
aVDRILL-1766
p4882
aVDRILL-1765
p4883
aVDRILL-1764
p4884
aVDRILL-1763
p4885
aVDRILL-1762
p4886
aVDRILL-1761
p4887
aVDRILL-1760
p4888
aVDRILL-1759
p4889
aVDRILL-1758
p4890
aVDRILL-1757
p4891
aVDRILL-1756
p4892
aVDRILL-1755
p4893
aVDRILL-1754
p4894
aVDRILL-1753
p4895
aVDRILL-1752
p4896
aVDRILL-1751
p4897
aVDRILL-1750
p4898
aVDRILL-1749
p4899
aVDRILL-1748
p4900
aVDRILL-1747
p4901
aVDRILL-1746
p4902
aVDRILL-1745
p4903
aVDRILL-1744
p4904
aVDRILL-1743
p4905
aVDRILL-1742
p4906
aVDRILL-1741
p4907
aVDRILL-1740
p4908
aVDRILL-1739
p4909
aVDRILL-1738
p4910
aVDRILL-1737
p4911
aVDRILL-1736
p4912
aVDRILL-1735
p4913
aVDRILL-1734
p4914
aVDRILL-1733
p4915
aVDRILL-1732
p4916
aVDRILL-1731
p4917
aVDRILL-1730
p4918
aVDRILL-1729
p4919
aVDRILL-1728
p4920
aVDRILL-1727
p4921
aVDRILL-1726
p4922
aVDRILL-1725
p4923
aVDRILL-1724
p4924
aVDRILL-1723
p4925
aVDRILL-1722
p4926
aVDRILL-1721
p4927
aVDRILL-1720
p4928
aVDRILL-1719
p4929
aVDRILL-1718
p4930
aVDRILL-1717
p4931
aVDRILL-1716
p4932
aVDRILL-1715
p4933
aVDRILL-1714
p4934
aVDRILL-1713
p4935
aVDRILL-1712
p4936
aVDRILL-1711
p4937
aVDRILL-1710
p4938
aVDRILL-1709
p4939
aVDRILL-1708
p4940
aVDRILL-1707
p4941
aVDRILL-1706
p4942
aVDRILL-1705
p4943
aVDRILL-1704
p4944
aVDRILL-1703
p4945
aVDRILL-1702
p4946
aVDRILL-1701
p4947
aVDRILL-1700
p4948
aVDRILL-1699
p4949
aVDRILL-1698
p4950
aVDRILL-1697
p4951
aVDRILL-1696
p4952
aVDRILL-1695
p4953
aVDRILL-1694
p4954
aVDRILL-1693
p4955
aVDRILL-1692
p4956
aVDRILL-1691
p4957
aVDRILL-1690
p4958
aVDRILL-1689
p4959
aVDRILL-1688
p4960
aVDRILL-1687
p4961
aVDRILL-1686
p4962
aVDRILL-1685
p4963
aVDRILL-1684
p4964
aVDRILL-1683
p4965
aVDRILL-1682
p4966
aVDRILL-1681
p4967
aVDRILL-1680
p4968
aVDRILL-1679
p4969
aVDRILL-1678
p4970
aVDRILL-1677
p4971
aVDRILL-1676
p4972
aVDRILL-1675
p4973
aVDRILL-1674
p4974
aVDRILL-1673
p4975
aVDRILL-1672
p4976
aVDRILL-1671
p4977
aVDRILL-1670
p4978
aVDRILL-1669
p4979
aVDRILL-1668
p4980
aVDRILL-1667
p4981
aVDRILL-1666
p4982
aVDRILL-1665
p4983
aVDRILL-1664
p4984
aVDRILL-1663
p4985
aVDRILL-1662
p4986
aVDRILL-1661
p4987
aVDRILL-1660
p4988
aVDRILL-1659
p4989
aVDRILL-1658
p4990
aVDRILL-1657
p4991
aVDRILL-1656
p4992
aVDRILL-1655
p4993
aVDRILL-1654
p4994
aVDRILL-1653
p4995
aVDRILL-1652
p4996
aVDRILL-1651
p4997
aVDRILL-1650
p4998
aVDRILL-1649
p4999
aVDRILL-1648
p5000
aVDRILL-1647
p5001
aVDRILL-1646
p5002
aVDRILL-1645
p5003
aVDRILL-1644
p5004
aVDRILL-1643
p5005
aVDRILL-1642
p5006
aVDRILL-1641
p5007
aVDRILL-1640
p5008
aVDRILL-1639
p5009
aVDRILL-1638
p5010
aVDRILL-1637
p5011
aVDRILL-1636
p5012
aVDRILL-1635
p5013
aVDRILL-1634
p5014
aVDRILL-1633
p5015
aVDRILL-1632
p5016
aVDRILL-1631
p5017
aVDRILL-1630
p5018
aVDRILL-1629
p5019
aVDRILL-1628
p5020
aVDRILL-1627
p5021
aVDRILL-1626
p5022
aVDRILL-1625
p5023
aVDRILL-1624
p5024
aVDRILL-1623
p5025
aVDRILL-1622
p5026
aVDRILL-1621
p5027
aVDRILL-1620
p5028
aVDRILL-1619
p5029
aVDRILL-1618
p5030
aVDRILL-1617
p5031
aVDRILL-1616
p5032
aVDRILL-1615
p5033
aVDRILL-1614
p5034
aVDRILL-1613
p5035
aVDRILL-1612
p5036
aVDRILL-1611
p5037
aVDRILL-1610
p5038
aVDRILL-1609
p5039
aVDRILL-1608
p5040
aVDRILL-1607
p5041
aVDRILL-1606
p5042
aVDRILL-1605
p5043
aVDRILL-1604
p5044
aVDRILL-1603
p5045
aVDRILL-1602
p5046
aVDRILL-1601
p5047
aVDRILL-1600
p5048
aVDRILL-1599
p5049
aVDRILL-1598
p5050
aVDRILL-1597
p5051
aVDRILL-1596
p5052
aVDRILL-1595
p5053
aVDRILL-1594
p5054
aVDRILL-1593
p5055
aVDRILL-1592
p5056
aVDRILL-1591
p5057
aVDRILL-1590
p5058
aVDRILL-1589
p5059
aVDRILL-1588
p5060
aVDRILL-1587
p5061
aVDRILL-1586
p5062
aVDRILL-1585
p5063
aVDRILL-1584
p5064
aVDRILL-1583
p5065
aVDRILL-1582
p5066
aVDRILL-1581
p5067
aVDRILL-1580
p5068
aVDRILL-1579
p5069
aVDRILL-1578
p5070
aVDRILL-1577
p5071
aVDRILL-1576
p5072
aVDRILL-1575
p5073
aVDRILL-1574
p5074
aVDRILL-1573
p5075
aVDRILL-1572
p5076
aVDRILL-1571
p5077
aVDRILL-1570
p5078
aVDRILL-1569
p5079
aVDRILL-1568
p5080
aVDRILL-1567
p5081
aVDRILL-1566
p5082
aVDRILL-1565
p5083
aVDRILL-1564
p5084
aVDRILL-1563
p5085
aVDRILL-1562
p5086
aVDRILL-1561
p5087
aVDRILL-1560
p5088
aVDRILL-1559
p5089
aVDRILL-1558
p5090
aVDRILL-1557
p5091
aVDRILL-1556
p5092
aVDRILL-1555
p5093
aVDRILL-1554
p5094
aVDRILL-1553
p5095
aVDRILL-1552
p5096
aVDRILL-1551
p5097
aVDRILL-1550
p5098
aVDRILL-1549
p5099
aVDRILL-1548
p5100
aVDRILL-1547
p5101
aVDRILL-1546
p5102
aVDRILL-1545
p5103
aVDRILL-1544
p5104
aVDRILL-1543
p5105
aVDRILL-1542
p5106
aVDRILL-1541
p5107
aVDRILL-1540
p5108
aVDRILL-1539
p5109
aVDRILL-1538
p5110
aVDRILL-1537
p5111
aVDRILL-1536
p5112
aVDRILL-1535
p5113
aVDRILL-1534
p5114
aVDRILL-1533
p5115
aVDRILL-1532
p5116
aVDRILL-1531
p5117
aVDRILL-1530
p5118
aVDRILL-1529
p5119
aVDRILL-1528
p5120
aVDRILL-1527
p5121
aVDRILL-1526
p5122
aVDRILL-1525
p5123
aVDRILL-1524
p5124
aVDRILL-1523
p5125
aVDRILL-1522
p5126
aVDRILL-1521
p5127
aVDRILL-1520
p5128
aVDRILL-1519
p5129
aVDRILL-1518
p5130
aVDRILL-1517
p5131
aVDRILL-1516
p5132
aVDRILL-1515
p5133
aVDRILL-1514
p5134
aVDRILL-1513
p5135
aVDRILL-1512
p5136
aVDRILL-1511
p5137
aVDRILL-1510
p5138
aVDRILL-1509
p5139
aVDRILL-1508
p5140
aVDRILL-1507
p5141
aVDRILL-1506
p5142
aVDRILL-1505
p5143
aVDRILL-1504
p5144
aVDRILL-1503
p5145
aVDRILL-1502
p5146
aVDRILL-1501
p5147
aVDRILL-1500
p5148
aVDRILL-1499
p5149
aVDRILL-1498
p5150
aVDRILL-1497
p5151
aVDRILL-1496
p5152
aVDRILL-1495
p5153
aVDRILL-1494
p5154
aVDRILL-1493
p5155
aVDRILL-1492
p5156
aVDRILL-1491
p5157
aVDRILL-1490
p5158
aVDRILL-1489
p5159
aVDRILL-1488
p5160
aVDRILL-1487
p5161
aVDRILL-1486
p5162
aVDRILL-1485
p5163
aVDRILL-1484
p5164
aVDRILL-1483
p5165
aVDRILL-1482
p5166
aVDRILL-1481
p5167
aVDRILL-1480
p5168
aVDRILL-1479
p5169
aVDRILL-1478
p5170
aVDRILL-1477
p5171
aVDRILL-1476
p5172
aVDRILL-1475
p5173
aVDRILL-1474
p5174
aVDRILL-1473
p5175
aVDRILL-1472
p5176
aVDRILL-1471
p5177
aVDRILL-1470
p5178
aVDRILL-1469
p5179
aVDRILL-1468
p5180
aVDRILL-1467
p5181
aVDRILL-1466
p5182
aVDRILL-1465
p5183
aVDRILL-1464
p5184
aVDRILL-1463
p5185
aVDRILL-1462
p5186
aVDRILL-1461
p5187
aVDRILL-1460
p5188
aVDRILL-1459
p5189
aVDRILL-1458
p5190
aVDRILL-1457
p5191
aVDRILL-1456
p5192
aVDRILL-1455
p5193
aVDRILL-1454
p5194
aVDRILL-1453
p5195
aVDRILL-1452
p5196
aVDRILL-1451
p5197
aVDRILL-1450
p5198
aVDRILL-1449
p5199
aVDRILL-1448
p5200
aVDRILL-1447
p5201
aVDRILL-1446
p5202
aVDRILL-1445
p5203
aVDRILL-1444
p5204
aVDRILL-1443
p5205
aVDRILL-1442
p5206
aVDRILL-1441
p5207
aVDRILL-1440
p5208
aVDRILL-1439
p5209
aVDRILL-1438
p5210
aVDRILL-1437
p5211
aVDRILL-1436
p5212
aVDRILL-1435
p5213
aVDRILL-1434
p5214
aVDRILL-1433
p5215
aVDRILL-1432
p5216
aVDRILL-1431
p5217
aVDRILL-1430
p5218
aVDRILL-1429
p5219
aVDRILL-1428
p5220
aVDRILL-1427
p5221
aVDRILL-1426
p5222
aVDRILL-1425
p5223
aVDRILL-1424
p5224
aVDRILL-1423
p5225
aVDRILL-1422
p5226
aVDRILL-1421
p5227
aVDRILL-1420
p5228
aVDRILL-1419
p5229
aVDRILL-1418
p5230
aVDRILL-1417
p5231
aVDRILL-1416
p5232
aVDRILL-1415
p5233
aVDRILL-1414
p5234
aVDRILL-1413
p5235
aVDRILL-1412
p5236
aVDRILL-1411
p5237
aVDRILL-1410
p5238
aVDRILL-1409
p5239
aVDRILL-1408
p5240
aVDRILL-1407
p5241
aVDRILL-1406
p5242
aVDRILL-1405
p5243
aVDRILL-1404
p5244
aVDRILL-1403
p5245
aVDRILL-1402
p5246
aVDRILL-1401
p5247
aVDRILL-1400
p5248
aVDRILL-1399
p5249
aVDRILL-1398
p5250
aVDRILL-1397
p5251
aVDRILL-1396
p5252
aVDRILL-1395
p5253
aVDRILL-1394
p5254
aVDRILL-1393
p5255
aVDRILL-1392
p5256
aVDRILL-1391
p5257
aVDRILL-1390
p5258
aVDRILL-1389
p5259
aVDRILL-1388
p5260
aVDRILL-1387
p5261
aVDRILL-1386
p5262
aVDRILL-1385
p5263
aVDRILL-1384
p5264
aVDRILL-1383
p5265
aVDRILL-1382
p5266
aVDRILL-1381
p5267
aVDRILL-1380
p5268
aVDRILL-1379
p5269
aVDRILL-1378
p5270
aVDRILL-1377
p5271
aVDRILL-1376
p5272
aVDRILL-1375
p5273
aVDRILL-1374
p5274
aVDRILL-1373
p5275
aVDRILL-1372
p5276
aVDRILL-1371
p5277
aVDRILL-1370
p5278
aVDRILL-1369
p5279
aVDRILL-1368
p5280
aVDRILL-1367
p5281
aVDRILL-1366
p5282
aVDRILL-1365
p5283
aVDRILL-1364
p5284
aVDRILL-1363
p5285
aVDRILL-1362
p5286
aVDRILL-1361
p5287
aVDRILL-1360
p5288
aVDRILL-1359
p5289
aVDRILL-1358
p5290
aVDRILL-1357
p5291
aVDRILL-1356
p5292
aVDRILL-1355
p5293
aVDRILL-1354
p5294
aVDRILL-1353
p5295
aVDRILL-1352
p5296
aVDRILL-1351
p5297
aVDRILL-1350
p5298
aVDRILL-1349
p5299
aVDRILL-1348
p5300
aVDRILL-1347
p5301
aVDRILL-1346
p5302
aVDRILL-1345
p5303
aVDRILL-1344
p5304
aVDRILL-1343
p5305
aVDRILL-1342
p5306
aVDRILL-1341
p5307
aVDRILL-1340
p5308
aVDRILL-1339
p5309
aVDRILL-1338
p5310
aVDRILL-1337
p5311
aVDRILL-1336
p5312
aVDRILL-1335
p5313
aVDRILL-1334
p5314
aVDRILL-1333
p5315
aVDRILL-1332
p5316
aVDRILL-1331
p5317
aVDRILL-1330
p5318
aVDRILL-1329
p5319
aVDRILL-1328
p5320
aVDRILL-1327
p5321
aVDRILL-1326
p5322
aVDRILL-1325
p5323
aVDRILL-1324
p5324
aVDRILL-1323
p5325
aVDRILL-1322
p5326
aVDRILL-1321
p5327
aVDRILL-1320
p5328
aVDRILL-1319
p5329
aVDRILL-1318
p5330
aVDRILL-1316
p5331
aVDRILL-1315
p5332
aVDRILL-1314
p5333
aVDRILL-1313
p5334
aVDRILL-1312
p5335
aVDRILL-1311
p5336
aVDRILL-1310
p5337
aVDRILL-1309
p5338
aVDRILL-1308
p5339
aVDRILL-1307
p5340
aVDRILL-1306
p5341
aVDRILL-1305
p5342
aVDRILL-1304
p5343
aVDRILL-1303
p5344
aVDRILL-1302
p5345
aVDRILL-1301
p5346
aVDRILL-1300
p5347
aVDRILL-1299
p5348
aVDRILL-1298
p5349
aVDRILL-1297
p5350
aVDRILL-1296
p5351
aVDRILL-1295
p5352
aVDRILL-1294
p5353
aVDRILL-1293
p5354
aVDRILL-1292
p5355
aVDRILL-1291
p5356
aVDRILL-1290
p5357
aVDRILL-1289
p5358
aVDRILL-1288
p5359
aVDRILL-1287
p5360
aVDRILL-1286
p5361
aVDRILL-1285
p5362
aVDRILL-1284
p5363
aVDRILL-1283
p5364
aVDRILL-1282
p5365
aVDRILL-1281
p5366
aVDRILL-1280
p5367
aVDRILL-1279
p5368
aVDRILL-1278
p5369
aVDRILL-1277
p5370
aVDRILL-1276
p5371
aVDRILL-1275
p5372
aVDRILL-1274
p5373
aVDRILL-1273
p5374
aVDRILL-1272
p5375
aVDRILL-1271
p5376
aVDRILL-1270
p5377
aVDRILL-1269
p5378
aVDRILL-1268
p5379
aVDRILL-1267
p5380
aVDRILL-1266
p5381
aVDRILL-1265
p5382
aVDRILL-1264
p5383
aVDRILL-1263
p5384
aVDRILL-1262
p5385
aVDRILL-1261
p5386
aVDRILL-1260
p5387
aVDRILL-1259
p5388
aVDRILL-1258
p5389
aVDRILL-1257
p5390
aVDRILL-1256
p5391
aVDRILL-1255
p5392
aVDRILL-1254
p5393
aVDRILL-1253
p5394
aVDRILL-1252
p5395
aVDRILL-1251
p5396
aVDRILL-1250
p5397
aVDRILL-1249
p5398
aVDRILL-1248
p5399
aVDRILL-1247
p5400
aVDRILL-1246
p5401
aVDRILL-1245
p5402
aVDRILL-1244
p5403
aVDRILL-1243
p5404
aVDRILL-1242
p5405
aVDRILL-1241
p5406
aVDRILL-1240
p5407
aVDRILL-1239
p5408
aVDRILL-1238
p5409
aVDRILL-1237
p5410
aVDRILL-1236
p5411
aVDRILL-1235
p5412
aVDRILL-1234
p5413
aVDRILL-1233
p5414
aVDRILL-1232
p5415
aVDRILL-1231
p5416
aVDRILL-1230
p5417
aVDRILL-1229
p5418
aVDRILL-1228
p5419
aVDRILL-1227
p5420
aVDRILL-1226
p5421
aVDRILL-1225
p5422
aVDRILL-1224
p5423
aVDRILL-1223
p5424
aVDRILL-1222
p5425
aVDRILL-1221
p5426
aVDRILL-1220
p5427
aVDRILL-1219
p5428
aVDRILL-1218
p5429
aVDRILL-1217
p5430
aVDRILL-1216
p5431
aVDRILL-1215
p5432
aVDRILL-1214
p5433
aVDRILL-1213
p5434
aVDRILL-1212
p5435
aVDRILL-1211
p5436
aVDRILL-1210
p5437
aVDRILL-1209
p5438
aVDRILL-1208
p5439
aVDRILL-1207
p5440
aVDRILL-1206
p5441
aVDRILL-1205
p5442
aVDRILL-1204
p5443
aVDRILL-1203
p5444
aVDRILL-1202
p5445
aVDRILL-1201
p5446
aVDRILL-1200
p5447
aVDRILL-1199
p5448
aVDRILL-1198
p5449
aVDRILL-1197
p5450
aVDRILL-1196
p5451
aVDRILL-1195
p5452
aVDRILL-1194
p5453
aVDRILL-1193
p5454
aVDRILL-1192
p5455
aVDRILL-1191
p5456
aVDRILL-1190
p5457
aVDRILL-1189
p5458
aVDRILL-1188
p5459
aVDRILL-1187
p5460
aVDRILL-1186
p5461
aVDRILL-1185
p5462
aVDRILL-1184
p5463
aVDRILL-1183
p5464
aVDRILL-1182
p5465
aVDRILL-1181
p5466
aVDRILL-1180
p5467
aVDRILL-1179
p5468
aVDRILL-1178
p5469
aVDRILL-1177
p5470
aVDRILL-1176
p5471
aVDRILL-1175
p5472
aVDRILL-1174
p5473
aVDRILL-1173
p5474
aVDRILL-1172
p5475
aVDRILL-1171
p5476
aVDRILL-1170
p5477
aVDRILL-1169
p5478
aVDRILL-1168
p5479
aVDRILL-1167
p5480
aVDRILL-1166
p5481
aVDRILL-1165
p5482
aVDRILL-1164
p5483
aVDRILL-1163
p5484
aVDRILL-1162
p5485
aVDRILL-1161
p5486
aVDRILL-1160
p5487
aVDRILL-1159
p5488
aVDRILL-1158
p5489
aVDRILL-1157
p5490
aVDRILL-1156
p5491
aVDRILL-1155
p5492
aVDRILL-1154
p5493
aVDRILL-1153
p5494
aVDRILL-1152
p5495
aVDRILL-1151
p5496
aVDRILL-1150
p5497
aVDRILL-1149
p5498
aVDRILL-1148
p5499
aVDRILL-1147
p5500
aVDRILL-1146
p5501
aVDRILL-1145
p5502
aVDRILL-1144
p5503
aVDRILL-1143
p5504
aVDRILL-1142
p5505
aVDRILL-1141
p5506
aVDRILL-1140
p5507
aVDRILL-1139
p5508
aVDRILL-1138
p5509
aVDRILL-1137
p5510
aVDRILL-1136
p5511
aVDRILL-1135
p5512
aVDRILL-1134
p5513
aVDRILL-1133
p5514
aVDRILL-1132
p5515
aVDRILL-1131
p5516
aVDRILL-1130
p5517
aVDRILL-1129
p5518
aVDRILL-1128
p5519
aVDRILL-1127
p5520
aVDRILL-1126
p5521
aVDRILL-1125
p5522
aVDRILL-1124
p5523
aVDRILL-1123
p5524
aVDRILL-1122
p5525
aVDRILL-1121
p5526
aVDRILL-1120
p5527
aVDRILL-1119
p5528
aVDRILL-1118
p5529
aVDRILL-1117
p5530
aVDRILL-1116
p5531
aVDRILL-1115
p5532
aVDRILL-1114
p5533
aVDRILL-1113
p5534
aVDRILL-1112
p5535
aVDRILL-1111
p5536
aVDRILL-1110
p5537
aVDRILL-1109
p5538
aVDRILL-1108
p5539
aVDRILL-1107
p5540
aVDRILL-1106
p5541
aVDRILL-1105
p5542
aVDRILL-1104
p5543
aVDRILL-1103
p5544
aVDRILL-1102
p5545
aVDRILL-1101
p5546
aVDRILL-1100
p5547
aVDRILL-1099
p5548
aVDRILL-1098
p5549
aVDRILL-1097
p5550
aVDRILL-1096
p5551
aVDRILL-1095
p5552
aVDRILL-1094
p5553
aVDRILL-1093
p5554
aVDRILL-1092
p5555
aVDRILL-1091
p5556
aVDRILL-1090
p5557
aVDRILL-1089
p5558
aVDRILL-1088
p5559
aVDRILL-1087
p5560
aVDRILL-1086
p5561
aVDRILL-1085
p5562
aVDRILL-1084
p5563
aVDRILL-1083
p5564
aVDRILL-1082
p5565
aVDRILL-1081
p5566
aVDRILL-1080
p5567
aVDRILL-1079
p5568
aVDRILL-1078
p5569
aVDRILL-1077
p5570
aVDRILL-1076
p5571
aVDRILL-1075
p5572
aVDRILL-1074
p5573
aVDRILL-1073
p5574
aVDRILL-1072
p5575
aVDRILL-1071
p5576
aVDRILL-1070
p5577
aVDRILL-1069
p5578
aVDRILL-1068
p5579
aVDRILL-1067
p5580
aVDRILL-1066
p5581
aVDRILL-1065
p5582
aVDRILL-1064
p5583
aVDRILL-1063
p5584
aVDRILL-1062
p5585
aVDRILL-1061
p5586
aVDRILL-1060
p5587
aVDRILL-1059
p5588
aVDRILL-1058
p5589
aVDRILL-1057
p5590
aVDRILL-1056
p5591
aVDRILL-1055
p5592
aVDRILL-1054
p5593
aVDRILL-1053
p5594
aVDRILL-1052
p5595
aVDRILL-1051
p5596
aVDRILL-1050
p5597
aVDRILL-1049
p5598
aVDRILL-1048
p5599
aVDRILL-1047
p5600
aVDRILL-1046
p5601
aVDRILL-1045
p5602
aVDRILL-1044
p5603
aVDRILL-1043
p5604
aVDRILL-1042
p5605
aVDRILL-1041
p5606
aVDRILL-1040
p5607
aVDRILL-1039
p5608
aVDRILL-1038
p5609
aVDRILL-1037
p5610
aVDRILL-1036
p5611
aVDRILL-1035
p5612
aVDRILL-1034
p5613
aVDRILL-1033
p5614
aVDRILL-1032
p5615
aVDRILL-1031
p5616
aVDRILL-1030
p5617
aVDRILL-1029
p5618
aVDRILL-1028
p5619
aVDRILL-1027
p5620
aVDRILL-1026
p5621
aVDRILL-1025
p5622
aVDRILL-1024
p5623
aVDRILL-1023
p5624
aVDRILL-1022
p5625
aVDRILL-1021
p5626
aVDRILL-1020
p5627
aVDRILL-1019
p5628
aVDRILL-1018
p5629
aVDRILL-1017
p5630
aVDRILL-1016
p5631
aVDRILL-1015
p5632
aVDRILL-1014
p5633
aVDRILL-1013
p5634
aVDRILL-1012
p5635
aVDRILL-1011
p5636
aVDRILL-1010
p5637
aVDRILL-1009
p5638
aVDRILL-1008
p5639
aVDRILL-1007
p5640
aVDRILL-1006
p5641
aVDRILL-1005
p5642
aVDRILL-1004
p5643
aVDRILL-1003
p5644
aVDRILL-1002
p5645
aVDRILL-1001
p5646
aVDRILL-1000
p5647
aVDRILL-999
p5648
aVDRILL-998
p5649
aVDRILL-997
p5650
aVDRILL-996
p5651
aVDRILL-995
p5652
aVDRILL-994
p5653
aVDRILL-993
p5654
aVDRILL-992
p5655
aVDRILL-991
p5656
aVDRILL-990
p5657
aVDRILL-989
p5658
aVDRILL-988
p5659
aVDRILL-987
p5660
aVDRILL-986
p5661
aVDRILL-985
p5662
aVDRILL-984
p5663
aVDRILL-983
p5664
aVDRILL-982
p5665
aVDRILL-981
p5666
aVDRILL-980
p5667
aVDRILL-979
p5668
aVDRILL-978
p5669
aVDRILL-977
p5670
aVDRILL-976
p5671
aVDRILL-975
p5672
aVDRILL-974
p5673
aVDRILL-973
p5674
aVDRILL-972
p5675
aVDRILL-971
p5676
aVDRILL-970
p5677
aVDRILL-969
p5678
aVDRILL-968
p5679
aVDRILL-967
p5680
aVDRILL-966
p5681
aVDRILL-965
p5682
aVDRILL-964
p5683
aVDRILL-963
p5684
aVDRILL-962
p5685
aVDRILL-961
p5686
aVDRILL-960
p5687
aVDRILL-959
p5688
aVDRILL-958
p5689
aVDRILL-957
p5690
aVDRILL-956
p5691
aVDRILL-955
p5692
aVDRILL-954
p5693
aVDRILL-953
p5694
aVDRILL-952
p5695
aVDRILL-951
p5696
aVDRILL-950
p5697
aVDRILL-949
p5698
aVDRILL-948
p5699
aVDRILL-947
p5700
aVDRILL-946
p5701
aVDRILL-945
p5702
aVDRILL-944
p5703
aVDRILL-943
p5704
aVDRILL-942
p5705
aVDRILL-941
p5706
aVDRILL-940
p5707
aVDRILL-939
p5708
aVDRILL-938
p5709
aVDRILL-937
p5710
aVDRILL-936
p5711
aVDRILL-935
p5712
aVDRILL-934
p5713
aVDRILL-933
p5714
aVDRILL-932
p5715
aVDRILL-931
p5716
aVDRILL-930
p5717
aVDRILL-929
p5718
aVDRILL-928
p5719
aVDRILL-927
p5720
aVDRILL-926
p5721
aVDRILL-925
p5722
aVDRILL-924
p5723
aVDRILL-923
p5724
aVDRILL-922
p5725
aVDRILL-921
p5726
aVDRILL-920
p5727
aVDRILL-919
p5728
aVDRILL-918
p5729
aVDRILL-917
p5730
aVDRILL-916
p5731
aVDRILL-915
p5732
aVDRILL-914
p5733
aVDRILL-913
p5734
aVDRILL-912
p5735
aVDRILL-911
p5736
aVDRILL-910
p5737
aVDRILL-909
p5738
aVDRILL-908
p5739
aVDRILL-907
p5740
aVDRILL-906
p5741
aVDRILL-905
p5742
aVDRILL-904
p5743
aVDRILL-903
p5744
aVDRILL-902
p5745
aVDRILL-901
p5746
aVDRILL-900
p5747
aVDRILL-899
p5748
aVDRILL-898
p5749
aVDRILL-897
p5750
aVDRILL-896
p5751
aVDRILL-895
p5752
aVDRILL-894
p5753
aVDRILL-893
p5754
aVDRILL-892
p5755
aVDRILL-891
p5756
aVDRILL-890
p5757
aVDRILL-889
p5758
aVDRILL-888
p5759
aVDRILL-887
p5760
aVDRILL-886
p5761
aVDRILL-885
p5762
aVDRILL-884
p5763
aVDRILL-883
p5764
aVDRILL-882
p5765
aVDRILL-881
p5766
aVDRILL-880
p5767
aVDRILL-879
p5768
aVDRILL-878
p5769
aVDRILL-877
p5770
aVDRILL-876
p5771
aVDRILL-875
p5772
aVDRILL-874
p5773
aVDRILL-873
p5774
aVDRILL-872
p5775
aVDRILL-871
p5776
aVDRILL-870
p5777
aVDRILL-869
p5778
aVDRILL-868
p5779
aVDRILL-867
p5780
aVDRILL-866
p5781
aVDRILL-865
p5782
aVDRILL-864
p5783
aVDRILL-863
p5784
aVDRILL-862
p5785
aVDRILL-861
p5786
aVDRILL-860
p5787
aVDRILL-859
p5788
aVDRILL-858
p5789
aVDRILL-857
p5790
aVDRILL-856
p5791
aVDRILL-855
p5792
aVDRILL-854
p5793
aVDRILL-853
p5794
aVDRILL-852
p5795
aVDRILL-851
p5796
aVDRILL-850
p5797
aVDRILL-849
p5798
aVDRILL-848
p5799
aVDRILL-847
p5800
aVDRILL-846
p5801
aVDRILL-845
p5802
aVDRILL-844
p5803
aVDRILL-843
p5804
aVDRILL-842
p5805
aVDRILL-841
p5806
aVDRILL-840
p5807
aVDRILL-839
p5808
aVDRILL-838
p5809
aVDRILL-837
p5810
aVDRILL-836
p5811
aVDRILL-835
p5812
aVDRILL-834
p5813
aVDRILL-833
p5814
aVDRILL-832
p5815
aVDRILL-831
p5816
aVDRILL-830
p5817
aVDRILL-829
p5818
aVDRILL-828
p5819
aVDRILL-827
p5820
aVDRILL-826
p5821
aVDRILL-825
p5822
aVDRILL-824
p5823
aVDRILL-823
p5824
aVDRILL-822
p5825
aVDRILL-821
p5826
aVDRILL-820
p5827
aVDRILL-819
p5828
aVDRILL-818
p5829
aVDRILL-817
p5830
aVDRILL-816
p5831
aVDRILL-815
p5832
aVDRILL-814
p5833
aVDRILL-813
p5834
aVDRILL-812
p5835
aVDRILL-811
p5836
aVDRILL-810
p5837
aVDRILL-809
p5838
aVDRILL-808
p5839
aVDRILL-807
p5840
aVDRILL-806
p5841
aVDRILL-805
p5842
aVDRILL-804
p5843
aVDRILL-803
p5844
aVDRILL-802
p5845
aVDRILL-801
p5846
aVDRILL-800
p5847
aVDRILL-799
p5848
aVDRILL-798
p5849
aVDRILL-797
p5850
aVDRILL-796
p5851
aVDRILL-795
p5852
aVDRILL-794
p5853
aVDRILL-793
p5854
aVDRILL-792
p5855
aVDRILL-791
p5856
aVDRILL-790
p5857
aVDRILL-789
p5858
aVDRILL-788
p5859
aVDRILL-787
p5860
aVDRILL-786
p5861
aVDRILL-785
p5862
aVDRILL-784
p5863
aVDRILL-783
p5864
aVDRILL-782
p5865
aVDRILL-781
p5866
aVDRILL-780
p5867
aVDRILL-779
p5868
aVDRILL-778
p5869
aVDRILL-777
p5870
aVDRILL-776
p5871
aVDRILL-775
p5872
aVDRILL-774
p5873
aVDRILL-773
p5874
aVDRILL-772
p5875
aVDRILL-771
p5876
aVDRILL-770
p5877
aVDRILL-769
p5878
aVDRILL-768
p5879
aVDRILL-767
p5880
aVDRILL-766
p5881
aVDRILL-765
p5882
aVDRILL-764
p5883
aVDRILL-763
p5884
aVDRILL-762
p5885
aVDRILL-761
p5886
aVDRILL-760
p5887
aVDRILL-759
p5888
aVDRILL-758
p5889
aVDRILL-757
p5890
aVDRILL-756
p5891
aVDRILL-755
p5892
aVDRILL-754
p5893
aVDRILL-753
p5894
aVDRILL-752
p5895
aVDRILL-751
p5896
aVDRILL-750
p5897
aVDRILL-749
p5898
aVDRILL-748
p5899
aVDRILL-747
p5900
aVDRILL-746
p5901
aVDRILL-745
p5902
aVDRILL-744
p5903
aVDRILL-743
p5904
aVDRILL-742
p5905
aVDRILL-741
p5906
aVDRILL-740
p5907
aVDRILL-739
p5908
aVDRILL-738
p5909
aVDRILL-737
p5910
aVDRILL-736
p5911
aVDRILL-735
p5912
aVDRILL-734
p5913
aVDRILL-733
p5914
aVDRILL-732
p5915
aVDRILL-731
p5916
aVDRILL-730
p5917
aVDRILL-729
p5918
aVDRILL-728
p5919
aVDRILL-727
p5920
aVDRILL-726
p5921
aVDRILL-725
p5922
aVDRILL-724
p5923
aVDRILL-723
p5924
aVDRILL-722
p5925
aVDRILL-721
p5926
aVDRILL-720
p5927
aVDRILL-719
p5928
aVDRILL-718
p5929
aVDRILL-717
p5930
aVDRILL-716
p5931
aVDRILL-715
p5932
aVDRILL-714
p5933
aVDRILL-713
p5934
aVDRILL-712
p5935
aVDRILL-711
p5936
aVDRILL-710
p5937
aVDRILL-709
p5938
aVDRILL-708
p5939
aVDRILL-707
p5940
aVDRILL-706
p5941
aVDRILL-705
p5942
aVDRILL-704
p5943
aVDRILL-703
p5944
aVDRILL-702
p5945
aVDRILL-701
p5946
aVDRILL-700
p5947
aVDRILL-699
p5948
aVDRILL-698
p5949
aVDRILL-697
p5950
aVDRILL-696
p5951
aVDRILL-695
p5952
aVDRILL-694
p5953
aVDRILL-693
p5954
aVDRILL-692
p5955
aVDRILL-691
p5956
aVDRILL-690
p5957
aVDRILL-689
p5958
aVDRILL-688
p5959
aVDRILL-687
p5960
aVDRILL-686
p5961
aVDRILL-685
p5962
aVDRILL-684
p5963
aVDRILL-683
p5964
aVDRILL-682
p5965
aVDRILL-681
p5966
aVDRILL-680
p5967
aVDRILL-679
p5968
aVDRILL-678
p5969
aVDRILL-677
p5970
aVDRILL-676
p5971
aVDRILL-675
p5972
aVDRILL-674
p5973
aVDRILL-673
p5974
aVDRILL-672
p5975
aVDRILL-671
p5976
aVDRILL-670
p5977
aVDRILL-669
p5978
aVDRILL-668
p5979
aVDRILL-667
p5980
aVDRILL-666
p5981
aVDRILL-665
p5982
aVDRILL-664
p5983
aVDRILL-663
p5984
aVDRILL-662
p5985
aVDRILL-661
p5986
aVDRILL-660
p5987
aVDRILL-659
p5988
aVDRILL-658
p5989
aVDRILL-657
p5990
aVDRILL-656
p5991
aVDRILL-655
p5992
aVDRILL-654
p5993
aVDRILL-653
p5994
aVDRILL-652
p5995
aVDRILL-651
p5996
aVDRILL-650
p5997
aVDRILL-649
p5998
aVDRILL-648
p5999
aVDRILL-647
p6000
aVDRILL-646
p6001
aVDRILL-645
p6002
aVDRILL-644
p6003
aVDRILL-643
p6004
aVDRILL-642
p6005
aVDRILL-641
p6006
aVDRILL-640
p6007
aVDRILL-639
p6008
aVDRILL-638
p6009
aVDRILL-637
p6010
aVDRILL-636
p6011
aVDRILL-635
p6012
aVDRILL-634
p6013
aVDRILL-633
p6014
aVDRILL-632
p6015
aVDRILL-631
p6016
aVDRILL-630
p6017
aVDRILL-629
p6018
aVDRILL-628
p6019
aVDRILL-627
p6020
aVDRILL-626
p6021
aVDRILL-625
p6022
aVDRILL-624
p6023
aVDRILL-623
p6024
aVDRILL-622
p6025
aVDRILL-621
p6026
aVDRILL-620
p6027
aVDRILL-619
p6028
aVDRILL-618
p6029
aVDRILL-617
p6030
aVDRILL-616
p6031
aVDRILL-615
p6032
aVDRILL-614
p6033
aVDRILL-613
p6034
aVDRILL-612
p6035
aVDRILL-611
p6036
aVDRILL-610
p6037
aVDRILL-609
p6038
aVDRILL-608
p6039
aVDRILL-607
p6040
aVDRILL-606
p6041
aVDRILL-605
p6042
aVDRILL-604
p6043
aVDRILL-603
p6044
aVDRILL-602
p6045
aVDRILL-601
p6046
aVDRILL-600
p6047
aVDRILL-599
p6048
aVDRILL-598
p6049
aVDRILL-597
p6050
aVDRILL-596
p6051
aVDRILL-595
p6052
aVDRILL-594
p6053
aVDRILL-593
p6054
aVDRILL-592
p6055
aVDRILL-591
p6056
aVDRILL-590
p6057
aVDRILL-589
p6058
aVDRILL-588
p6059
aVDRILL-587
p6060
aVDRILL-586
p6061
aVDRILL-585
p6062
aVDRILL-584
p6063
aVDRILL-583
p6064
aVDRILL-582
p6065
aVDRILL-581
p6066
aVDRILL-580
p6067
aVDRILL-579
p6068
aVDRILL-578
p6069
aVDRILL-577
p6070
aVDRILL-576
p6071
aVDRILL-575
p6072
aVDRILL-574
p6073
aVDRILL-573
p6074
aVDRILL-572
p6075
aVDRILL-571
p6076
aVDRILL-570
p6077
aVDRILL-569
p6078
aVDRILL-568
p6079
aVDRILL-567
p6080
aVDRILL-566
p6081
aVDRILL-565
p6082
aVDRILL-564
p6083
aVDRILL-563
p6084
aVDRILL-562
p6085
aVDRILL-561
p6086
aVDRILL-560
p6087
aVDRILL-559
p6088
aVDRILL-558
p6089
aVDRILL-557
p6090
aVDRILL-556
p6091
aVDRILL-555
p6092
aVDRILL-554
p6093
aVDRILL-553
p6094
aVDRILL-552
p6095
aVDRILL-551
p6096
aVDRILL-550
p6097
aVDRILL-549
p6098
aVDRILL-548
p6099
aVDRILL-547
p6100
aVDRILL-546
p6101
aVDRILL-545
p6102
aVDRILL-544
p6103
aVDRILL-543
p6104
aVDRILL-542
p6105
aVDRILL-541
p6106
aVDRILL-540
p6107
aVDRILL-539
p6108
aVDRILL-538
p6109
aVDRILL-537
p6110
aVDRILL-536
p6111
aVDRILL-535
p6112
aVDRILL-534
p6113
aVDRILL-533
p6114
aVDRILL-532
p6115
aVDRILL-531
p6116
aVDRILL-530
p6117
aVDRILL-529
p6118
aVDRILL-528
p6119
aVDRILL-527
p6120
aVDRILL-526
p6121
aVDRILL-525
p6122
aVDRILL-524
p6123
aVDRILL-523
p6124
aVDRILL-522
p6125
aVDRILL-521
p6126
aVDRILL-520
p6127
aVDRILL-519
p6128
aVDRILL-518
p6129
aVDRILL-517
p6130
aVDRILL-516
p6131
aVDRILL-515
p6132
aVDRILL-514
p6133
aVDRILL-513
p6134
aVDRILL-512
p6135
aVDRILL-511
p6136
aVDRILL-510
p6137
aVDRILL-509
p6138
aVDRILL-508
p6139
aVDRILL-507
p6140
aVDRILL-506
p6141
aVDRILL-505
p6142
aVDRILL-504
p6143
aVDRILL-503
p6144
aVDRILL-502
p6145
aVDRILL-501
p6146
aVDRILL-500
p6147
aVDRILL-499
p6148
aVDRILL-498
p6149
aVDRILL-497
p6150
aVDRILL-496
p6151
aVDRILL-495
p6152
aVDRILL-494
p6153
aVDRILL-493
p6154
aVDRILL-492
p6155
aVDRILL-491
p6156
aVDRILL-490
p6157
aVDRILL-489
p6158
aVDRILL-488
p6159
aVDRILL-487
p6160
aVDRILL-486
p6161
aVDRILL-485
p6162
aVDRILL-484
p6163
aVDRILL-483
p6164
aVDRILL-482
p6165
aVDRILL-481
p6166
aVDRILL-480
p6167
aVDRILL-479
p6168
aVDRILL-478
p6169
aVDRILL-477
p6170
aVDRILL-476
p6171
aVDRILL-475
p6172
aVDRILL-474
p6173
aVDRILL-473
p6174
aVDRILL-472
p6175
aVDRILL-471
p6176
aVDRILL-470
p6177
aVDRILL-469
p6178
aVDRILL-468
p6179
aVDRILL-467
p6180
aVDRILL-466
p6181
aVDRILL-465
p6182
aVDRILL-464
p6183
aVDRILL-463
p6184
aVDRILL-462
p6185
aVDRILL-461
p6186
aVDRILL-460
p6187
aVDRILL-459
p6188
aVDRILL-458
p6189
aVDRILL-457
p6190
aVDRILL-456
p6191
aVDRILL-455
p6192
aVDRILL-454
p6193
aVDRILL-453
p6194
aVDRILL-452
p6195
aVDRILL-451
p6196
aVDRILL-450
p6197
aVDRILL-449
p6198
aVDRILL-448
p6199
aVDRILL-447
p6200
aVDRILL-446
p6201
aVDRILL-445
p6202
aVDRILL-444
p6203
aVDRILL-443
p6204
aVDRILL-442
p6205
aVDRILL-441
p6206
aVDRILL-440
p6207
aVDRILL-439
p6208
aVDRILL-438
p6209
aVDRILL-437
p6210
aVDRILL-436
p6211
aVDRILL-435
p6212
aVDRILL-434
p6213
aVDRILL-433
p6214
aVDRILL-432
p6215
aVDRILL-431
p6216
aVDRILL-430
p6217
aVDRILL-429
p6218
aVDRILL-428
p6219
aVDRILL-427
p6220
aVDRILL-426
p6221
aVDRILL-425
p6222
aVDRILL-424
p6223
aVDRILL-423
p6224
aVDRILL-422
p6225
aVDRILL-421
p6226
aVDRILL-420
p6227
aVDRILL-419
p6228
aVDRILL-418
p6229
aVDRILL-417
p6230
aVDRILL-416
p6231
aVDRILL-415
p6232
aVDRILL-414
p6233
aVDRILL-413
p6234
aVDRILL-412
p6235
aVDRILL-411
p6236
aVDRILL-410
p6237
aVDRILL-409
p6238
aVDRILL-408
p6239
aVDRILL-407
p6240
aVDRILL-406
p6241
aVDRILL-405
p6242
aVDRILL-404
p6243
aVDRILL-403
p6244
aVDRILL-402
p6245
aVDRILL-401
p6246
aVDRILL-400
p6247
aVDRILL-399
p6248
aVDRILL-398
p6249
aVDRILL-397
p6250
aVDRILL-396
p6251
aVDRILL-395
p6252
aVDRILL-394
p6253
aVDRILL-393
p6254
aVDRILL-392
p6255
aVDRILL-391
p6256
aVDRILL-390
p6257
aVDRILL-389
p6258
aVDRILL-388
p6259
aVDRILL-387
p6260
aVDRILL-386
p6261
aVDRILL-385
p6262
aVDRILL-384
p6263
aVDRILL-383
p6264
aVDRILL-382
p6265
aVDRILL-381
p6266
aVDRILL-380
p6267
aVDRILL-379
p6268
aVDRILL-378
p6269
aVDRILL-377
p6270
aVDRILL-376
p6271
aVDRILL-375
p6272
aVDRILL-374
p6273
aVDRILL-373
p6274
aVDRILL-372
p6275
aVDRILL-371
p6276
aVDRILL-370
p6277
aVDRILL-369
p6278
aVDRILL-368
p6279
aVDRILL-367
p6280
aVDRILL-366
p6281
aVDRILL-365
p6282
aVDRILL-364
p6283
aVDRILL-363
p6284
aVDRILL-362
p6285
aVDRILL-361
p6286
aVDRILL-360
p6287
aVDRILL-359
p6288
aVDRILL-358
p6289
aVDRILL-357
p6290
aVDRILL-356
p6291
aVDRILL-355
p6292
aVDRILL-354
p6293
aVDRILL-353
p6294
aVDRILL-352
p6295
aVDRILL-351
p6296
aVDRILL-350
p6297
aVDRILL-349
p6298
aVDRILL-348
p6299
aVDRILL-347
p6300
aVDRILL-346
p6301
aVDRILL-345
p6302
aVDRILL-344
p6303
aVDRILL-343
p6304
aVDRILL-342
p6305
aVDRILL-341
p6306
aVDRILL-340
p6307
aVDRILL-339
p6308
aVDRILL-338
p6309
aVDRILL-337
p6310
aVDRILL-336
p6311
aVDRILL-335
p6312
aVDRILL-334
p6313
aVDRILL-333
p6314
aVDRILL-332
p6315
aVDRILL-331
p6316
aVDRILL-330
p6317
aVDRILL-329
p6318
aVDRILL-328
p6319
aVDRILL-327
p6320
aVDRILL-326
p6321
aVDRILL-325
p6322
aVDRILL-324
p6323
aVDRILL-323
p6324
aVDRILL-322
p6325
aVDRILL-321
p6326
aVDRILL-320
p6327
aVDRILL-319
p6328
aVDRILL-318
p6329
aVDRILL-317
p6330
aVDRILL-316
p6331
aVDRILL-315
p6332
aVDRILL-314
p6333
aVDRILL-313
p6334
aVDRILL-312
p6335
aVDRILL-311
p6336
aVDRILL-310
p6337
aVDRILL-309
p6338
aVDRILL-308
p6339
aVDRILL-307
p6340
aVDRILL-306
p6341
aVDRILL-305
p6342
aVDRILL-304
p6343
aVDRILL-303
p6344
aVDRILL-302
p6345
aVDRILL-301
p6346
aVDRILL-300
p6347
aVDRILL-299
p6348
aVDRILL-298
p6349
aVDRILL-297
p6350
aVDRILL-296
p6351
aVDRILL-295
p6352
aVDRILL-294
p6353
aVDRILL-293
p6354
aVDRILL-292
p6355
aVDRILL-291
p6356
aVDRILL-290
p6357
aVDRILL-289
p6358
aVDRILL-288
p6359
aVDRILL-287
p6360
aVDRILL-286
p6361
aVDRILL-285
p6362
aVDRILL-284
p6363
aVDRILL-283
p6364
aVDRILL-282
p6365
aVDRILL-281
p6366
aVDRILL-280
p6367
aVDRILL-279
p6368
aVDRILL-278
p6369
aVDRILL-277
p6370
aVDRILL-276
p6371
aVDRILL-275
p6372
aVDRILL-274
p6373
aVDRILL-273
p6374
aVDRILL-272
p6375
aVDRILL-271
p6376
aVDRILL-270
p6377
aVDRILL-269
p6378
aVDRILL-268
p6379
aVDRILL-267
p6380
aVDRILL-266
p6381
aVDRILL-265
p6382
aVDRILL-264
p6383
aVDRILL-263
p6384
aVDRILL-262
p6385
aVDRILL-261
p6386
aVDRILL-260
p6387
aVDRILL-259
p6388
aVDRILL-258
p6389
aVDRILL-257
p6390
aVDRILL-256
p6391
aVDRILL-255
p6392
aVDRILL-254
p6393
aVDRILL-253
p6394
aVDRILL-252
p6395
aVDRILL-251
p6396
aVDRILL-250
p6397
aVDRILL-249
p6398
aVDRILL-248
p6399
aVDRILL-247
p6400
aVDRILL-246
p6401
aVDRILL-245
p6402
aVDRILL-244
p6403
aVDRILL-243
p6404
aVDRILL-242
p6405
aVDRILL-241
p6406
aVDRILL-240
p6407
aVDRILL-239
p6408
aVDRILL-238
p6409
aVDRILL-237
p6410
aVDRILL-236
p6411
aVDRILL-235
p6412
aVDRILL-234
p6413
aVDRILL-233
p6414
aVDRILL-232
p6415
aVDRILL-231
p6416
aVDRILL-230
p6417
aVDRILL-229
p6418
aVDRILL-228
p6419
aVDRILL-227
p6420
aVDRILL-226
p6421
aVDRILL-225
p6422
aVDRILL-224
p6423
aVDRILL-223
p6424
aVDRILL-222
p6425
aVDRILL-221
p6426
aVDRILL-220
p6427
aVDRILL-219
p6428
aVDRILL-218
p6429
aVDRILL-217
p6430
aVDRILL-216
p6431
aVDRILL-215
p6432
aVDRILL-214
p6433
aVDRILL-213
p6434
aVDRILL-212
p6435
aVDRILL-211
p6436
aVDRILL-210
p6437
aVDRILL-209
p6438
aVDRILL-208
p6439
aVDRILL-207
p6440
aVDRILL-206
p6441
aVDRILL-205
p6442
aVDRILL-204
p6443
aVDRILL-203
p6444
aVDRILL-202
p6445
aVDRILL-201
p6446
aVDRILL-200
p6447
aVDRILL-199
p6448
aVDRILL-198
p6449
aVDRILL-197
p6450
aVDRILL-196
p6451
aVDRILL-195
p6452
aVDRILL-194
p6453
aVDRILL-193
p6454
aVDRILL-192
p6455
aVDRILL-191
p6456
aVDRILL-190
p6457
aVDRILL-189
p6458
aVDRILL-188
p6459
aVDRILL-187
p6460
aVDRILL-186
p6461
aVDRILL-185
p6462
aVDRILL-184
p6463
aVDRILL-183
p6464
aVDRILL-182
p6465
aVDRILL-181
p6466
aVDRILL-180
p6467
aVDRILL-179
p6468
aVDRILL-178
p6469
aVDRILL-177
p6470
aVDRILL-176
p6471
aVDRILL-175
p6472
aVDRILL-174
p6473
aVDRILL-173
p6474
aVDRILL-172
p6475
aVDRILL-171
p6476
aVDRILL-170
p6477
aVDRILL-169
p6478
aVDRILL-168
p6479
aVDRILL-167
p6480
aVDRILL-166
p6481
aVDRILL-165
p6482
aVDRILL-164
p6483
aVDRILL-163
p6484
aVDRILL-162
p6485
aVDRILL-161
p6486
aVDRILL-160
p6487
aVDRILL-159
p6488
aVDRILL-158
p6489
aVDRILL-157
p6490
aVDRILL-156
p6491
aVDRILL-155
p6492
aVDRILL-154
p6493
aVDRILL-153
p6494
aVDRILL-152
p6495
aVDRILL-151
p6496
aVDRILL-150
p6497
aVDRILL-149
p6498
aVDRILL-148
p6499
aVDRILL-147
p6500
aVDRILL-146
p6501
aVDRILL-145
p6502
aVDRILL-144
p6503
aVDRILL-143
p6504
aVDRILL-142
p6505
aVDRILL-141
p6506
aVDRILL-140
p6507
aVDRILL-139
p6508
aVDRILL-138
p6509
aVDRILL-137
p6510
aVDRILL-136
p6511
aVDRILL-135
p6512
aVDRILL-134
p6513
aVDRILL-133
p6514
aVDRILL-132
p6515
aVDRILL-131
p6516
aVDRILL-130
p6517
aVDRILL-129
p6518
aVDRILL-128
p6519
aVDRILL-127
p6520
aVDRILL-126
p6521
aVDRILL-125
p6522
aVDRILL-124
p6523
aVDRILL-123
p6524
aVDRILL-122
p6525
aVDRILL-121
p6526
aVDRILL-120
p6527
aVDRILL-119
p6528
aVDRILL-118
p6529
aVDRILL-117
p6530
aVDRILL-116
p6531
aVDRILL-115
p6532
aVDRILL-114
p6533
aVDRILL-113
p6534
aVDRILL-112
p6535
aVDRILL-111
p6536
aVDRILL-110
p6537
aVDRILL-109
p6538
aVDRILL-108
p6539
aVDRILL-107
p6540
aVDRILL-106
p6541
aVDRILL-105
p6542
aVDRILL-104
p6543
aVDRILL-103
p6544
aVDRILL-102
p6545
aVDRILL-101
p6546
aVDRILL-100
p6547
aVDRILL-99
p6548
aVDRILL-98
p6549
aVDRILL-97
p6550
aVDRILL-96
p6551
aVDRILL-95
p6552
aVDRILL-94
p6553
aVDRILL-93
p6554
aVDRILL-92
p6555
aVDRILL-91
p6556
aVDRILL-90
p6557
aVDRILL-89
p6558
aVDRILL-88
p6559
aVDRILL-87
p6560
aVDRILL-86
p6561
aVDRILL-85
p6562
aVDRILL-84
p6563
aVDRILL-83
p6564
aVDRILL-82
p6565
aVDRILL-81
p6566
aVDRILL-80
p6567
aVDRILL-79
p6568
aVDRILL-78
p6569
aVDRILL-77
p6570
aVDRILL-76
p6571
aVDRILL-75
p6572
aVDRILL-74
p6573
aVDRILL-73
p6574
aVDRILL-72
p6575
aVDRILL-71
p6576
aVDRILL-70
p6577
aVDRILL-69
p6578
aVDRILL-68
p6579
aVDRILL-67
p6580
aVDRILL-66
p6581
aVDRILL-65
p6582
aVDRILL-64
p6583
aVDRILL-63
p6584
aVDRILL-62
p6585
aVDRILL-61
p6586
aVDRILL-60
p6587
aVDRILL-59
p6588
aVDRILL-58
p6589
aVDRILL-57
p6590
aVDRILL-56
p6591
aVDRILL-55
p6592
aVDRILL-54
p6593
aVDRILL-53
p6594
aVDRILL-52
p6595
aVDRILL-51
p6596
aVDRILL-50
p6597
aVDRILL-49
p6598
aVDRILL-48
p6599
aVDRILL-47
p6600
aVDRILL-46
p6601
aVDRILL-45
p6602
aVDRILL-44
p6603
aVDRILL-43
p6604
aVDRILL-42
p6605
aVDRILL-41
p6606
aVDRILL-40
p6607
aVDRILL-39
p6608
aVDRILL-38
p6609
aVDRILL-37
p6610
aVDRILL-36
p6611
aVDRILL-35
p6612
aVDRILL-34
p6613
aVDRILL-33
p6614
aVDRILL-32
p6615
aVDRILL-31
p6616
aVDRILL-30
p6617
aVDRILL-29
p6618
aVDRILL-28
p6619
aVDRILL-27
p6620
aVDRILL-26
p6621
aVDRILL-25
p6622
aVDRILL-24
p6623
aVDRILL-23
p6624
aVDRILL-22
p6625
aVDRILL-21
p6626
aVDRILL-20
p6627
aVDRILL-19
p6628
aVDRILL-18
p6629
aVDRILL-17
p6630
aVDRILL-16
p6631
aVDRILL-15
p6632
aVDRILL-14
p6633
aVDRILL-13
p6634
aVDRILL-12
p6635
aVDRILL-11
p6636
aVDRILL-10
p6637
aVDRILL-9
p6638
aVDRILL-8
p6639
aVDRILL-7
p6640
aVDRILL-6
p6641
aVDRILL-5
p6642
aVDRILL-4
p6643
aVDRILL-3
p6644
aVDRILL-2
p6645
aVDRILL-1
p6646
a.