(lp0
VEAGLE-1091
p1
aVEAGLE-1090
p2
aVEAGLE-1089
p3
aVEAGLE-1088
p4
aVEAGLE-1087
p5
aVEAGLE-1086
p6
aVEAGLE-1085
p7
aVEAGLE-1084
p8
aVEAGLE-1083
p9
aVEAGLE-1082
p10
aVEAGLE-1081
p11
aVEAGLE-1080
p12
aVEAGLE-1079
p13
aVEAGLE-1078
p14
aVEAGLE-1077
p15
aVEAGLE-1076
p16
aVEAGLE-1075
p17
aVEAGLE-1074
p18
aVEAGLE-1073
p19
aVEAGLE-1072
p20
aVEAGLE-1071
p21
aVEAGLE-1070
p22
aVEAGLE-1069
p23
aVEAGLE-1068
p24
aVEAGLE-1067
p25
aVEAGLE-1066
p26
aVEAGLE-1065
p27
aVEAGLE-1064
p28
aVEAGLE-1063
p29
aVEAGLE-1062
p30
aVEAGLE-1061
p31
aVEAGLE-1060
p32
aVEAGLE-1059
p33
aVEAGLE-1058
p34
aVEAGLE-1057
p35
aVEAGLE-1056
p36
aVEAGLE-1055
p37
aVEAGLE-1054
p38
aVEAGLE-1053
p39
aVEAGLE-1052
p40
aVEAGLE-1051
p41
aVEAGLE-1050
p42
aVEAGLE-1049
p43
aVEAGLE-1048
p44
aVEAGLE-1047
p45
aVEAGLE-1046
p46
aVEAGLE-1045
p47
aVEAGLE-1044
p48
aVEAGLE-1043
p49
aVEAGLE-1042
p50
aVEAGLE-1041
p51
aVEAGLE-1040
p52
aVEAGLE-1039
p53
aVEAGLE-1038
p54
aVEAGLE-1037
p55
aVEAGLE-1036
p56
aVEAGLE-1035
p57
aVEAGLE-1034
p58
aVEAGLE-1033
p59
aVEAGLE-1032
p60
aVEAGLE-1031
p61
aVEAGLE-1030
p62
aVEAGLE-1029
p63
aVEAGLE-1028
p64
aVEAGLE-1027
p65
aVEAGLE-1026
p66
aVEAGLE-1025
p67
aVEAGLE-1024
p68
aVEAGLE-1023
p69
aVEAGLE-1022
p70
aVEAGLE-1021
p71
aVEAGLE-1020
p72
aVEAGLE-1019
p73
aVEAGLE-1018
p74
aVEAGLE-1017
p75
aVEAGLE-1016
p76
aVEAGLE-1015
p77
aVEAGLE-1014
p78
aVEAGLE-1013
p79
aVEAGLE-1012
p80
aVEAGLE-1011
p81
aVEAGLE-1009
p82
aVEAGLE-1008
p83
aVEAGLE-1007
p84
aVEAGLE-1006
p85
aVEAGLE-1005
p86
aVEAGLE-1004
p87
aVEAGLE-1003
p88
aVEAGLE-1002
p89
aVEAGLE-1001
p90
aVEAGLE-1000
p91
aVEAGLE-999
p92
aVEAGLE-998
p93
aVEAGLE-997
p94
aVEAGLE-996
p95
aVEAGLE-995
p96
aVEAGLE-994
p97
aVEAGLE-993
p98
aVEAGLE-992
p99
aVEAGLE-991
p100
aVEAGLE-990
p101
aVEAGLE-989
p102
aVEAGLE-988
p103
aVEAGLE-987
p104
aVEAGLE-986
p105
aVEAGLE-985
p106
aVEAGLE-984
p107
aVEAGLE-983
p108
aVEAGLE-982
p109
aVEAGLE-981
p110
aVEAGLE-980
p111
aVEAGLE-979
p112
aVEAGLE-978
p113
aVEAGLE-977
p114
aVEAGLE-976
p115
aVEAGLE-975
p116
aVEAGLE-974
p117
aVEAGLE-973
p118
aVEAGLE-972
p119
aVEAGLE-971
p120
aVEAGLE-970
p121
aVEAGLE-969
p122
aVEAGLE-968
p123
aVEAGLE-967
p124
aVEAGLE-966
p125
aVEAGLE-965
p126
aVEAGLE-964
p127
aVEAGLE-963
p128
aVEAGLE-962
p129
aVEAGLE-961
p130
aVEAGLE-960
p131
aVEAGLE-959
p132
aVEAGLE-958
p133
aVEAGLE-957
p134
aVEAGLE-956
p135
aVEAGLE-955
p136
aVEAGLE-954
p137
aVEAGLE-953
p138
aVEAGLE-952
p139
aVEAGLE-951
p140
aVEAGLE-950
p141
aVEAGLE-949
p142
aVEAGLE-948
p143
aVEAGLE-947
p144
aVEAGLE-946
p145
aVEAGLE-945
p146
aVEAGLE-944
p147
aVEAGLE-943
p148
aVEAGLE-942
p149
aVEAGLE-941
p150
aVEAGLE-940
p151
aVEAGLE-939
p152
aVEAGLE-938
p153
aVEAGLE-937
p154
aVEAGLE-936
p155
aVEAGLE-935
p156
aVEAGLE-934
p157
aVEAGLE-933
p158
aVEAGLE-932
p159
aVEAGLE-931
p160
aVEAGLE-930
p161
aVEAGLE-929
p162
aVEAGLE-928
p163
aVEAGLE-927
p164
aVEAGLE-926
p165
aVEAGLE-925
p166
aVEAGLE-924
p167
aVEAGLE-923
p168
aVEAGLE-922
p169
aVEAGLE-921
p170
aVEAGLE-920
p171
aVEAGLE-919
p172
aVEAGLE-918
p173
aVEAGLE-917
p174
aVEAGLE-916
p175
aVEAGLE-915
p176
aVEAGLE-914
p177
aVEAGLE-913
p178
aVEAGLE-912
p179
aVEAGLE-911
p180
aVEAGLE-910
p181
aVEAGLE-909
p182
aVEAGLE-908
p183
aVEAGLE-907
p184
aVEAGLE-906
p185
aVEAGLE-905
p186
aVEAGLE-904
p187
aVEAGLE-903
p188
aVEAGLE-902
p189
aVEAGLE-901
p190
aVEAGLE-900
p191
aVEAGLE-899
p192
aVEAGLE-898
p193
aVEAGLE-897
p194
aVEAGLE-896
p195
aVEAGLE-895
p196
aVEAGLE-894
p197
aVEAGLE-893
p198
aVEAGLE-892
p199
aVEAGLE-891
p200
aVEAGLE-890
p201
aVEAGLE-889
p202
aVEAGLE-888
p203
aVEAGLE-887
p204
aVEAGLE-886
p205
aVEAGLE-885
p206
aVEAGLE-884
p207
aVEAGLE-883
p208
aVEAGLE-882
p209
aVEAGLE-881
p210
aVEAGLE-880
p211
aVEAGLE-879
p212
aVEAGLE-878
p213
aVEAGLE-877
p214
aVEAGLE-876
p215
aVEAGLE-875
p216
aVEAGLE-874
p217
aVEAGLE-873
p218
aVEAGLE-872
p219
aVEAGLE-871
p220
aVEAGLE-870
p221
aVEAGLE-869
p222
aVEAGLE-868
p223
aVEAGLE-867
p224
aVEAGLE-866
p225
aVEAGLE-865
p226
aVEAGLE-864
p227
aVEAGLE-863
p228
aVEAGLE-862
p229
aVEAGLE-861
p230
aVEAGLE-860
p231
aVEAGLE-859
p232
aVEAGLE-858
p233
aVEAGLE-857
p234
aVEAGLE-856
p235
aVEAGLE-855
p236
aVEAGLE-854
p237
aVEAGLE-853
p238
aVEAGLE-852
p239
aVEAGLE-851
p240
aVEAGLE-850
p241
aVEAGLE-849
p242
aVEAGLE-848
p243
aVEAGLE-847
p244
aVEAGLE-846
p245
aVEAGLE-845
p246
aVEAGLE-844
p247
aVEAGLE-843
p248
aVEAGLE-842
p249
aVEAGLE-841
p250
aVEAGLE-840
p251
aVEAGLE-839
p252
aVEAGLE-838
p253
aVEAGLE-837
p254
aVEAGLE-836
p255
aVEAGLE-835
p256
aVEAGLE-834
p257
aVEAGLE-833
p258
aVEAGLE-832
p259
aVEAGLE-831
p260
aVEAGLE-830
p261
aVEAGLE-829
p262
aVEAGLE-828
p263
aVEAGLE-827
p264
aVEAGLE-826
p265
aVEAGLE-825
p266
aVEAGLE-824
p267
aVEAGLE-823
p268
aVEAGLE-822
p269
aVEAGLE-821
p270
aVEAGLE-820
p271
aVEAGLE-819
p272
aVEAGLE-818
p273
aVEAGLE-817
p274
aVEAGLE-816
p275
aVEAGLE-815
p276
aVEAGLE-814
p277
aVEAGLE-813
p278
aVEAGLE-812
p279
aVEAGLE-811
p280
aVEAGLE-810
p281
aVEAGLE-809
p282
aVEAGLE-808
p283
aVEAGLE-807
p284
aVEAGLE-806
p285
aVEAGLE-805
p286
aVEAGLE-804
p287
aVEAGLE-803
p288
aVEAGLE-801
p289
aVEAGLE-800
p290
aVEAGLE-799
p291
aVEAGLE-798
p292
aVEAGLE-797
p293
aVEAGLE-796
p294
aVEAGLE-795
p295
aVEAGLE-794
p296
aVEAGLE-793
p297
aVEAGLE-792
p298
aVEAGLE-791
p299
aVEAGLE-790
p300
aVEAGLE-789
p301
aVEAGLE-788
p302
aVEAGLE-787
p303
aVEAGLE-786
p304
aVEAGLE-785
p305
aVEAGLE-784
p306
aVEAGLE-783
p307
aVEAGLE-782
p308
aVEAGLE-781
p309
aVEAGLE-780
p310
aVEAGLE-779
p311
aVEAGLE-778
p312
aVEAGLE-777
p313
aVEAGLE-776
p314
aVEAGLE-775
p315
aVEAGLE-774
p316
aVEAGLE-773
p317
aVEAGLE-772
p318
aVEAGLE-771
p319
aVEAGLE-770
p320
aVEAGLE-769
p321
aVEAGLE-768
p322
aVEAGLE-767
p323
aVEAGLE-766
p324
aVEAGLE-765
p325
aVEAGLE-764
p326
aVEAGLE-763
p327
aVEAGLE-762
p328
aVEAGLE-761
p329
aVEAGLE-760
p330
aVEAGLE-759
p331
aVEAGLE-758
p332
aVEAGLE-757
p333
aVEAGLE-756
p334
aVEAGLE-755
p335
aVEAGLE-754
p336
aVEAGLE-753
p337
aVEAGLE-752
p338
aVEAGLE-751
p339
aVEAGLE-750
p340
aVEAGLE-749
p341
aVEAGLE-748
p342
aVEAGLE-747
p343
aVEAGLE-746
p344
aVEAGLE-745
p345
aVEAGLE-744
p346
aVEAGLE-743
p347
aVEAGLE-742
p348
aVEAGLE-741
p349
aVEAGLE-740
p350
aVEAGLE-739
p351
aVEAGLE-738
p352
aVEAGLE-737
p353
aVEAGLE-736
p354
aVEAGLE-735
p355
aVEAGLE-734
p356
aVEAGLE-733
p357
aVEAGLE-732
p358
aVEAGLE-731
p359
aVEAGLE-730
p360
aVEAGLE-729
p361
aVEAGLE-728
p362
aVEAGLE-727
p363
aVEAGLE-726
p364
aVEAGLE-725
p365
aVEAGLE-724
p366
aVEAGLE-723
p367
aVEAGLE-722
p368
aVEAGLE-721
p369
aVEAGLE-720
p370
aVEAGLE-719
p371
aVEAGLE-718
p372
aVEAGLE-717
p373
aVEAGLE-716
p374
aVEAGLE-715
p375
aVEAGLE-714
p376
aVEAGLE-713
p377
aVEAGLE-712
p378
aVEAGLE-711
p379
aVEAGLE-710
p380
aVEAGLE-709
p381
aVEAGLE-708
p382
aVEAGLE-707
p383
aVEAGLE-706
p384
aVEAGLE-705
p385
aVEAGLE-704
p386
aVEAGLE-703
p387
aVEAGLE-702
p388
aVEAGLE-701
p389
aVEAGLE-700
p390
aVEAGLE-699
p391
aVEAGLE-698
p392
aVEAGLE-697
p393
aVEAGLE-696
p394
aVEAGLE-695
p395
aVEAGLE-694
p396
aVEAGLE-693
p397
aVEAGLE-692
p398
aVEAGLE-691
p399
aVEAGLE-690
p400
aVEAGLE-689
p401
aVEAGLE-688
p402
aVEAGLE-687
p403
aVEAGLE-686
p404
aVEAGLE-685
p405
aVEAGLE-684
p406
aVEAGLE-683
p407
aVEAGLE-682
p408
aVEAGLE-681
p409
aVEAGLE-680
p410
aVEAGLE-679
p411
aVEAGLE-678
p412
aVEAGLE-677
p413
aVEAGLE-676
p414
aVEAGLE-675
p415
aVEAGLE-674
p416
aVEAGLE-673
p417
aVEAGLE-672
p418
aVEAGLE-671
p419
aVEAGLE-670
p420
aVEAGLE-669
p421
aVEAGLE-668
p422
aVEAGLE-667
p423
aVEAGLE-666
p424
aVEAGLE-665
p425
aVEAGLE-664
p426
aVEAGLE-663
p427
aVEAGLE-662
p428
aVEAGLE-661
p429
aVEAGLE-660
p430
aVEAGLE-659
p431
aVEAGLE-658
p432
aVEAGLE-657
p433
aVEAGLE-656
p434
aVEAGLE-655
p435
aVEAGLE-654
p436
aVEAGLE-653
p437
aVEAGLE-652
p438
aVEAGLE-651
p439
aVEAGLE-650
p440
aVEAGLE-649
p441
aVEAGLE-648
p442
aVEAGLE-647
p443
aVEAGLE-646
p444
aVEAGLE-645
p445
aVEAGLE-644
p446
aVEAGLE-643
p447
aVEAGLE-642
p448
aVEAGLE-641
p449
aVEAGLE-640
p450
aVEAGLE-639
p451
aVEAGLE-638
p452
aVEAGLE-637
p453
aVEAGLE-636
p454
aVEAGLE-635
p455
aVEAGLE-634
p456
aVEAGLE-633
p457
aVEAGLE-632
p458
aVEAGLE-631
p459
aVEAGLE-630
p460
aVEAGLE-629
p461
aVEAGLE-628
p462
aVEAGLE-627
p463
aVEAGLE-626
p464
aVEAGLE-625
p465
aVEAGLE-624
p466
aVEAGLE-623
p467
aVEAGLE-622
p468
aVEAGLE-621
p469
aVEAGLE-620
p470
aVEAGLE-619
p471
aVEAGLE-618
p472
aVEAGLE-617
p473
aVEAGLE-616
p474
aVEAGLE-615
p475
aVEAGLE-614
p476
aVEAGLE-613
p477
aVEAGLE-612
p478
aVEAGLE-611
p479
aVEAGLE-610
p480
aVEAGLE-609
p481
aVEAGLE-608
p482
aVEAGLE-606
p483
aVEAGLE-605
p484
aVEAGLE-604
p485
aVEAGLE-603
p486
aVEAGLE-602
p487
aVEAGLE-601
p488
aVEAGLE-600
p489
aVEAGLE-599
p490
aVEAGLE-598
p491
aVEAGLE-597
p492
aVEAGLE-596
p493
aVEAGLE-595
p494
aVEAGLE-594
p495
aVEAGLE-593
p496
aVEAGLE-592
p497
aVEAGLE-591
p498
aVEAGLE-590
p499
aVEAGLE-589
p500
aVEAGLE-588
p501
aVEAGLE-587
p502
aVEAGLE-586
p503
aVEAGLE-585
p504
aVEAGLE-583
p505
aVEAGLE-582
p506
aVEAGLE-581
p507
aVEAGLE-580
p508
aVEAGLE-579
p509
aVEAGLE-578
p510
aVEAGLE-577
p511
aVEAGLE-576
p512
aVEAGLE-575
p513
aVEAGLE-574
p514
aVEAGLE-573
p515
aVEAGLE-572
p516
aVEAGLE-571
p517
aVEAGLE-570
p518
aVEAGLE-569
p519
aVEAGLE-568
p520
aVEAGLE-567
p521
aVEAGLE-566
p522
aVEAGLE-565
p523
aVEAGLE-564
p524
aVEAGLE-563
p525
aVEAGLE-562
p526
aVEAGLE-561
p527
aVEAGLE-560
p528
aVEAGLE-559
p529
aVEAGLE-558
p530
aVEAGLE-557
p531
aVEAGLE-556
p532
aVEAGLE-555
p533
aVEAGLE-554
p534
aVEAGLE-553
p535
aVEAGLE-552
p536
aVEAGLE-551
p537
aVEAGLE-550
p538
aVEAGLE-549
p539
aVEAGLE-548
p540
aVEAGLE-547
p541
aVEAGLE-546
p542
aVEAGLE-545
p543
aVEAGLE-544
p544
aVEAGLE-543
p545
aVEAGLE-542
p546
aVEAGLE-541
p547
aVEAGLE-540
p548
aVEAGLE-539
p549
aVEAGLE-538
p550
aVEAGLE-537
p551
aVEAGLE-536
p552
aVEAGLE-535
p553
aVEAGLE-534
p554
aVEAGLE-533
p555
aVEAGLE-532
p556
aVEAGLE-531
p557
aVEAGLE-530
p558
aVEAGLE-529
p559
aVEAGLE-527
p560
aVEAGLE-526
p561
aVEAGLE-525
p562
aVEAGLE-524
p563
aVEAGLE-522
p564
aVEAGLE-521
p565
aVEAGLE-520
p566
aVEAGLE-519
p567
aVEAGLE-518
p568
aVEAGLE-517
p569
aVEAGLE-516
p570
aVEAGLE-515
p571
aVEAGLE-514
p572
aVEAGLE-513
p573
aVEAGLE-512
p574
aVEAGLE-511
p575
aVEAGLE-510
p576
aVEAGLE-509
p577
aVEAGLE-508
p578
aVEAGLE-507
p579
aVEAGLE-506
p580
aVEAGLE-505
p581
aVEAGLE-504
p582
aVEAGLE-503
p583
aVEAGLE-502
p584
aVEAGLE-501
p585
aVEAGLE-500
p586
aVEAGLE-499
p587
aVEAGLE-498
p588
aVEAGLE-497
p589
aVEAGLE-496
p590
aVEAGLE-495
p591
aVEAGLE-494
p592
aVEAGLE-493
p593
aVEAGLE-492
p594
aVEAGLE-491
p595
aVEAGLE-490
p596
aVEAGLE-489
p597
aVEAGLE-488
p598
aVEAGLE-487
p599
aVEAGLE-486
p600
aVEAGLE-485
p601
aVEAGLE-484
p602
aVEAGLE-483
p603
aVEAGLE-482
p604
aVEAGLE-481
p605
aVEAGLE-480
p606
aVEAGLE-479
p607
aVEAGLE-478
p608
aVEAGLE-477
p609
aVEAGLE-476
p610
aVEAGLE-475
p611
aVEAGLE-474
p612
aVEAGLE-473
p613
aVEAGLE-472
p614
aVEAGLE-471
p615
aVEAGLE-470
p616
aVEAGLE-469
p617
aVEAGLE-468
p618
aVEAGLE-467
p619
aVEAGLE-466
p620
aVEAGLE-465
p621
aVEAGLE-464
p622
aVEAGLE-463
p623
aVEAGLE-462
p624
aVEAGLE-461
p625
aVEAGLE-460
p626
aVEAGLE-459
p627
aVEAGLE-458
p628
aVEAGLE-457
p629
aVEAGLE-456
p630
aVEAGLE-455
p631
aVEAGLE-454
p632
aVEAGLE-453
p633
aVEAGLE-452
p634
aVEAGLE-451
p635
aVEAGLE-450
p636
aVEAGLE-449
p637
aVEAGLE-448
p638
aVEAGLE-447
p639
aVEAGLE-446
p640
aVEAGLE-445
p641
aVEAGLE-444
p642
aVEAGLE-443
p643
aVEAGLE-442
p644
aVEAGLE-441
p645
aVEAGLE-440
p646
aVEAGLE-439
p647
aVEAGLE-438
p648
aVEAGLE-437
p649
aVEAGLE-436
p650
aVEAGLE-435
p651
aVEAGLE-434
p652
aVEAGLE-433
p653
aVEAGLE-432
p654
aVEAGLE-431
p655
aVEAGLE-430
p656
aVEAGLE-429
p657
aVEAGLE-428
p658
aVEAGLE-427
p659
aVEAGLE-426
p660
aVEAGLE-425
p661
aVEAGLE-424
p662
aVEAGLE-423
p663
aVEAGLE-422
p664
aVEAGLE-421
p665
aVEAGLE-420
p666
aVEAGLE-419
p667
aVEAGLE-418
p668
aVEAGLE-417
p669
aVEAGLE-416
p670
aVEAGLE-415
p671
aVEAGLE-413
p672
aVEAGLE-412
p673
aVEAGLE-411
p674
aVEAGLE-410
p675
aVEAGLE-409
p676
aVEAGLE-408
p677
aVEAGLE-407
p678
aVEAGLE-406
p679
aVEAGLE-405
p680
aVEAGLE-404
p681
aVEAGLE-403
p682
aVEAGLE-402
p683
aVEAGLE-401
p684
aVEAGLE-400
p685
aVEAGLE-399
p686
aVEAGLE-398
p687
aVEAGLE-397
p688
aVEAGLE-396
p689
aVEAGLE-395
p690
aVEAGLE-394
p691
aVEAGLE-393
p692
aVEAGLE-392
p693
aVEAGLE-391
p694
aVEAGLE-390
p695
aVEAGLE-389
p696
aVEAGLE-388
p697
aVEAGLE-387
p698
aVEAGLE-386
p699
aVEAGLE-385
p700
aVEAGLE-384
p701
aVEAGLE-383
p702
aVEAGLE-382
p703
aVEAGLE-381
p704
aVEAGLE-380
p705
aVEAGLE-379
p706
aVEAGLE-378
p707
aVEAGLE-377
p708
aVEAGLE-376
p709
aVEAGLE-375
p710
aVEAGLE-374
p711
aVEAGLE-373
p712
aVEAGLE-372
p713
aVEAGLE-371
p714
aVEAGLE-370
p715
aVEAGLE-369
p716
aVEAGLE-368
p717
aVEAGLE-367
p718
aVEAGLE-366
p719
aVEAGLE-365
p720
aVEAGLE-364
p721
aVEAGLE-363
p722
aVEAGLE-362
p723
aVEAGLE-361
p724
aVEAGLE-360
p725
aVEAGLE-359
p726
aVEAGLE-358
p727
aVEAGLE-357
p728
aVEAGLE-356
p729
aVEAGLE-355
p730
aVEAGLE-354
p731
aVEAGLE-353
p732
aVEAGLE-352
p733
aVEAGLE-351
p734
aVEAGLE-350
p735
aVEAGLE-349
p736
aVEAGLE-348
p737
aVEAGLE-347
p738
aVEAGLE-346
p739
aVEAGLE-345
p740
aVEAGLE-344
p741
aVEAGLE-343
p742
aVEAGLE-342
p743
aVEAGLE-341
p744
aVEAGLE-340
p745
aVEAGLE-339
p746
aVEAGLE-338
p747
aVEAGLE-337
p748
aVEAGLE-336
p749
aVEAGLE-335
p750
aVEAGLE-334
p751
aVEAGLE-333
p752
aVEAGLE-332
p753
aVEAGLE-331
p754
aVEAGLE-330
p755
aVEAGLE-329
p756
aVEAGLE-328
p757
aVEAGLE-327
p758
aVEAGLE-326
p759
aVEAGLE-325
p760
aVEAGLE-324
p761
aVEAGLE-323
p762
aVEAGLE-322
p763
aVEAGLE-321
p764
aVEAGLE-320
p765
aVEAGLE-319
p766
aVEAGLE-318
p767
aVEAGLE-317
p768
aVEAGLE-316
p769
aVEAGLE-315
p770
aVEAGLE-314
p771
aVEAGLE-313
p772
aVEAGLE-312
p773
aVEAGLE-311
p774
aVEAGLE-310
p775
aVEAGLE-309
p776
aVEAGLE-308
p777
aVEAGLE-307
p778
aVEAGLE-306
p779
aVEAGLE-305
p780
aVEAGLE-304
p781
aVEAGLE-303
p782
aVEAGLE-302
p783
aVEAGLE-301
p784
aVEAGLE-300
p785
aVEAGLE-299
p786
aVEAGLE-298
p787
aVEAGLE-297
p788
aVEAGLE-296
p789
aVEAGLE-295
p790
aVEAGLE-294
p791
aVEAGLE-293
p792
aVEAGLE-292
p793
aVEAGLE-291
p794
aVEAGLE-290
p795
aVEAGLE-289
p796
aVEAGLE-288
p797
aVEAGLE-287
p798
aVEAGLE-286
p799
aVEAGLE-285
p800
aVEAGLE-284
p801
aVEAGLE-283
p802
aVEAGLE-282
p803
aVEAGLE-281
p804
aVEAGLE-280
p805
aVEAGLE-279
p806
aVEAGLE-278
p807
aVEAGLE-277
p808
aVEAGLE-276
p809
aVEAGLE-275
p810
aVEAGLE-274
p811
aVEAGLE-273
p812
aVEAGLE-272
p813
aVEAGLE-271
p814
aVEAGLE-270
p815
aVEAGLE-269
p816
aVEAGLE-268
p817
aVEAGLE-267
p818
aVEAGLE-266
p819
aVEAGLE-265
p820
aVEAGLE-264
p821
aVEAGLE-263
p822
aVEAGLE-262
p823
aVEAGLE-261
p824
aVEAGLE-260
p825
aVEAGLE-259
p826
aVEAGLE-258
p827
aVEAGLE-257
p828
aVEAGLE-256
p829
aVEAGLE-255
p830
aVEAGLE-254
p831
aVEAGLE-253
p832
aVEAGLE-252
p833
aVEAGLE-251
p834
aVEAGLE-250
p835
aVEAGLE-249
p836
aVEAGLE-248
p837
aVEAGLE-247
p838
aVEAGLE-246
p839
aVEAGLE-245
p840
aVEAGLE-244
p841
aVEAGLE-243
p842
aVEAGLE-242
p843
aVEAGLE-241
p844
aVEAGLE-240
p845
aVEAGLE-239
p846
aVEAGLE-238
p847
aVEAGLE-237
p848
aVEAGLE-236
p849
aVEAGLE-235
p850
aVEAGLE-234
p851
aVEAGLE-233
p852
aVEAGLE-232
p853
aVEAGLE-231
p854
aVEAGLE-230
p855
aVEAGLE-229
p856
aVEAGLE-228
p857
aVEAGLE-227
p858
aVEAGLE-226
p859
aVEAGLE-225
p860
aVEAGLE-224
p861
aVEAGLE-223
p862
aVEAGLE-222
p863
aVEAGLE-221
p864
aVEAGLE-220
p865
aVEAGLE-219
p866
aVEAGLE-218
p867
aVEAGLE-217
p868
aVEAGLE-216
p869
aVEAGLE-215
p870
aVEAGLE-214
p871
aVEAGLE-213
p872
aVEAGLE-212
p873
aVEAGLE-211
p874
aVEAGLE-210
p875
aVEAGLE-209
p876
aVEAGLE-208
p877
aVEAGLE-207
p878
aVEAGLE-206
p879
aVEAGLE-205
p880
aVEAGLE-204
p881
aVEAGLE-203
p882
aVEAGLE-202
p883
aVEAGLE-201
p884
aVEAGLE-200
p885
aVEAGLE-199
p886
aVEAGLE-198
p887
aVEAGLE-197
p888
aVEAGLE-196
p889
aVEAGLE-195
p890
aVEAGLE-194
p891
aVEAGLE-193
p892
aVEAGLE-192
p893
aVEAGLE-191
p894
aVEAGLE-190
p895
aVEAGLE-189
p896
aVEAGLE-188
p897
aVEAGLE-187
p898
aVEAGLE-186
p899
aVEAGLE-185
p900
aVEAGLE-184
p901
aVEAGLE-183
p902
aVEAGLE-182
p903
aVEAGLE-181
p904
aVEAGLE-180
p905
aVEAGLE-179
p906
aVEAGLE-178
p907
aVEAGLE-177
p908
aVEAGLE-176
p909
aVEAGLE-175
p910
aVEAGLE-174
p911
aVEAGLE-173
p912
aVEAGLE-172
p913
aVEAGLE-171
p914
aVEAGLE-170
p915
aVEAGLE-169
p916
aVEAGLE-168
p917
aVEAGLE-167
p918
aVEAGLE-166
p919
aVEAGLE-165
p920
aVEAGLE-164
p921
aVEAGLE-163
p922
aVEAGLE-162
p923
aVEAGLE-161
p924
aVEAGLE-160
p925
aVEAGLE-159
p926
aVEAGLE-158
p927
aVEAGLE-157
p928
aVEAGLE-156
p929
aVEAGLE-155
p930
aVEAGLE-154
p931
aVEAGLE-153
p932
aVEAGLE-152
p933
aVEAGLE-151
p934
aVEAGLE-150
p935
aVEAGLE-149
p936
aVEAGLE-148
p937
aVEAGLE-147
p938
aVEAGLE-146
p939
aVEAGLE-145
p940
aVEAGLE-144
p941
aVEAGLE-143
p942
aVEAGLE-142
p943
aVEAGLE-141
p944
aVEAGLE-140
p945
aVEAGLE-139
p946
aVEAGLE-138
p947
aVEAGLE-137
p948
aVEAGLE-136
p949
aVEAGLE-135
p950
aVEAGLE-134
p951
aVEAGLE-133
p952
aVEAGLE-132
p953
aVEAGLE-131
p954
aVEAGLE-130
p955
aVEAGLE-129
p956
aVEAGLE-128
p957
aVEAGLE-127
p958
aVEAGLE-126
p959
aVEAGLE-125
p960
aVEAGLE-124
p961
aVEAGLE-123
p962
aVEAGLE-122
p963
aVEAGLE-121
p964
aVEAGLE-120
p965
aVEAGLE-119
p966
aVEAGLE-118
p967
aVEAGLE-117
p968
aVEAGLE-116
p969
aVEAGLE-115
p970
aVEAGLE-114
p971
aVEAGLE-113
p972
aVEAGLE-112
p973
aVEAGLE-111
p974
aVEAGLE-110
p975
aVEAGLE-109
p976
aVEAGLE-108
p977
aVEAGLE-107
p978
aVEAGLE-106
p979
aVEAGLE-105
p980
aVEAGLE-104
p981
aVEAGLE-103
p982
aVEAGLE-102
p983
aVEAGLE-101
p984
aVEAGLE-100
p985
aVEAGLE-99
p986
aVEAGLE-98
p987
aVEAGLE-97
p988
aVEAGLE-95
p989
aVEAGLE-94
p990
aVEAGLE-93
p991
aVEAGLE-92
p992
aVEAGLE-91
p993
aVEAGLE-90
p994
aVEAGLE-89
p995
aVEAGLE-88
p996
aVEAGLE-87
p997
aVEAGLE-86
p998
aVEAGLE-85
p999
aVEAGLE-84
p1000
aVEAGLE-83
p1001
aVEAGLE-82
p1002
aVEAGLE-81
p1003
aVEAGLE-80
p1004
aVEAGLE-79
p1005
aVEAGLE-78
p1006
aVEAGLE-77
p1007
aVEAGLE-76
p1008
aVEAGLE-75
p1009
aVEAGLE-74
p1010
aVEAGLE-73
p1011
aVEAGLE-72
p1012
aVEAGLE-71
p1013
aVEAGLE-70
p1014
aVEAGLE-69
p1015
aVEAGLE-68
p1016
aVEAGLE-67
p1017
aVEAGLE-66
p1018
aVEAGLE-65
p1019
aVEAGLE-64
p1020
aVEAGLE-63
p1021
aVEAGLE-62
p1022
aVEAGLE-61
p1023
aVEAGLE-60
p1024
aVEAGLE-59
p1025
aVEAGLE-58
p1026
aVEAGLE-57
p1027
aVEAGLE-56
p1028
aVEAGLE-55
p1029
aVEAGLE-54
p1030
aVEAGLE-53
p1031
aVEAGLE-52
p1032
aVEAGLE-51
p1033
aVEAGLE-50
p1034
aVEAGLE-49
p1035
aVEAGLE-48
p1036
aVEAGLE-47
p1037
aVEAGLE-46
p1038
aVEAGLE-45
p1039
aVEAGLE-44
p1040
aVEAGLE-43
p1041
aVEAGLE-42
p1042
aVEAGLE-41
p1043
aVEAGLE-40
p1044
aVEAGLE-39
p1045
aVEAGLE-38
p1046
aVEAGLE-37
p1047
aVEAGLE-36
p1048
aVEAGLE-35
p1049
aVEAGLE-34
p1050
aVEAGLE-33
p1051
aVEAGLE-32
p1052
aVEAGLE-31
p1053
aVEAGLE-30
p1054
aVEAGLE-29
p1055
aVEAGLE-28
p1056
aVEAGLE-27
p1057
aVEAGLE-26
p1058
aVEAGLE-25
p1059
aVEAGLE-24
p1060
aVEAGLE-23
p1061
aVEAGLE-22
p1062
aVEAGLE-21
p1063
aVEAGLE-20
p1064
aVEAGLE-19
p1065
aVEAGLE-18
p1066
aVEAGLE-17
p1067
aVEAGLE-16
p1068
aVEAGLE-15
p1069
aVEAGLE-14
p1070
aVEAGLE-13
p1071
aVEAGLE-12
p1072
aVEAGLE-11
p1073
aVEAGLE-10
p1074
aVEAGLE-8
p1075
aVEAGLE-7
p1076
aVEAGLE-6
p1077
aVEAGLE-5
p1078
aVEAGLE-4
p1079
aVEAGLE-2
p1080
aVEAGLE-1
p1081
a.