(lp0
VEMAIL-181
p1
aVEMAIL-180
p2
aVEMAIL-179
p3
aVEMAIL-178
p4
aVEMAIL-177
p5
aVEMAIL-176
p6
aVEMAIL-175
p7
aVEMAIL-174
p8
aVEMAIL-173
p9
aVEMAIL-172
p10
aVEMAIL-171
p11
aVEMAIL-170
p12
aVEMAIL-169
p13
aVEMAIL-168
p14
aVEMAIL-167
p15
aVEMAIL-166
p16
aVEMAIL-165
p17
aVEMAIL-164
p18
aVEMAIL-163
p19
aVEMAIL-162
p20
aVEMAIL-161
p21
aVEMAIL-160
p22
aVEMAIL-159
p23
aVEMAIL-158
p24
aVEMAIL-157
p25
aVEMAIL-156
p26
aVEMAIL-155
p27
aVEMAIL-154
p28
aVEMAIL-153
p29
aVEMAIL-152
p30
aVEMAIL-151
p31
aVEMAIL-150
p32
aVEMAIL-149
p33
aVEMAIL-148
p34
aVEMAIL-147
p35
aVEMAIL-146
p36
aVEMAIL-145
p37
aVEMAIL-144
p38
aVEMAIL-142
p39
aVEMAIL-141
p40
aVEMAIL-140
p41
aVEMAIL-139
p42
aVEMAIL-138
p43
aVEMAIL-137
p44
aVEMAIL-136
p45
aVEMAIL-135
p46
aVEMAIL-134
p47
aVEMAIL-133
p48
aVEMAIL-132
p49
aVEMAIL-131
p50
aVEMAIL-130
p51
aVEMAIL-129
p52
aVEMAIL-128
p53
aVEMAIL-127
p54
aVEMAIL-126
p55
aVEMAIL-125
p56
aVEMAIL-124
p57
aVEMAIL-123
p58
aVEMAIL-122
p59
aVEMAIL-121
p60
aVEMAIL-120
p61
aVEMAIL-119
p62
aVEMAIL-118
p63
aVEMAIL-117
p64
aVEMAIL-116
p65
aVEMAIL-115
p66
aVEMAIL-114
p67
aVEMAIL-113
p68
aVEMAIL-112
p69
aVEMAIL-111
p70
aVEMAIL-110
p71
aVEMAIL-109
p72
aVEMAIL-108
p73
aVEMAIL-107
p74
aVEMAIL-106
p75
aVEMAIL-105
p76
aVEMAIL-104
p77
aVEMAIL-103
p78
aVEMAIL-102
p79
aVEMAIL-101
p80
aVEMAIL-100
p81
aVEMAIL-99
p82
aVEMAIL-98
p83
aVEMAIL-97
p84
aVEMAIL-96
p85
aVEMAIL-95
p86
aVEMAIL-94
p87
aVEMAIL-93
p88
aVEMAIL-92
p89
aVEMAIL-91
p90
aVEMAIL-90
p91
aVEMAIL-89
p92
aVEMAIL-88
p93
aVEMAIL-87
p94
aVEMAIL-86
p95
aVEMAIL-85
p96
aVEMAIL-84
p97
aVEMAIL-83
p98
aVEMAIL-82
p99
aVEMAIL-81
p100
aVEMAIL-80
p101
aVEMAIL-79
p102
aVEMAIL-78
p103
aVEMAIL-77
p104
aVEMAIL-76
p105
aVEMAIL-75
p106
aVEMAIL-74
p107
aVEMAIL-73
p108
aVEMAIL-72
p109
aVEMAIL-71
p110
aVEMAIL-70
p111
aVEMAIL-69
p112
aVEMAIL-68
p113
aVEMAIL-67
p114
aVEMAIL-66
p115
aVEMAIL-65
p116
aVEMAIL-64
p117
aVEMAIL-63
p118
aVEMAIL-62
p119
aVEMAIL-61
p120
aVEMAIL-60
p121
aVEMAIL-59
p122
aVEMAIL-58
p123
aVEMAIL-57
p124
aVEMAIL-56
p125
aVEMAIL-55
p126
aVEMAIL-54
p127
aVEMAIL-53
p128
aVEMAIL-52
p129
aVEMAIL-51
p130
aVEMAIL-50
p131
aVEMAIL-49
p132
aVEMAIL-48
p133
aVEMAIL-47
p134
aVEMAIL-46
p135
aVEMAIL-45
p136
aVEMAIL-44
p137
aVEMAIL-43
p138
aVEMAIL-42
p139
aVEMAIL-41
p140
aVEMAIL-40
p141
aVEMAIL-39
p142
aVEMAIL-38
p143
aVEMAIL-37
p144
aVEMAIL-36
p145
aVEMAIL-35
p146
aVEMAIL-34
p147
aVEMAIL-33
p148
aVEMAIL-32
p149
aVEMAIL-31
p150
aVEMAIL-30
p151
aVEMAIL-29
p152
aVEMAIL-28
p153
aVEMAIL-27
p154
aVEMAIL-26
p155
aVEMAIL-25
p156
aVEMAIL-24
p157
aVEMAIL-23
p158
aVEMAIL-22
p159
aVEMAIL-21
p160
aVEMAIL-20
p161
aVEMAIL-19
p162
aVEMAIL-18
p163
aVEMAIL-17
p164
aVEMAIL-16
p165
aVEMAIL-15
p166
aVEMAIL-14
p167
aVEMAIL-13
p168
aVEMAIL-12
p169
aVEMAIL-11
p170
aVEMAIL-10
p171
aVEMAIL-9
p172
aVEMAIL-8
p173
aVEMAIL-7
p174
aVEMAIL-6
p175
aVEMAIL-5
p176
aVEMAIL-4
p177
aVEMAIL-3
p178
aVEMAIL-2
p179
aVEMAIL-1
p180
a.