(lp0
VEMPIREDB-278
p1
aVEMPIREDB-277
p2
aVEMPIREDB-276
p3
aVEMPIREDB-275
p4
aVEMPIREDB-274
p5
aVEMPIREDB-273
p6
aVEMPIREDB-272
p7
aVEMPIREDB-271
p8
aVEMPIREDB-270
p9
aVEMPIREDB-269
p10
aVEMPIREDB-268
p11
aVEMPIREDB-267
p12
aVEMPIREDB-266
p13
aVEMPIREDB-265
p14
aVEMPIREDB-264
p15
aVEMPIREDB-263
p16
aVEMPIREDB-262
p17
aVEMPIREDB-261
p18
aVEMPIREDB-260
p19
aVEMPIREDB-259
p20
aVEMPIREDB-258
p21
aVEMPIREDB-257
p22
aVEMPIREDB-256
p23
aVEMPIREDB-255
p24
aVEMPIREDB-254
p25
aVEMPIREDB-253
p26
aVEMPIREDB-252
p27
aVEMPIREDB-251
p28
aVEMPIREDB-250
p29
aVEMPIREDB-249
p30
aVEMPIREDB-248
p31
aVEMPIREDB-247
p32
aVEMPIREDB-246
p33
aVEMPIREDB-245
p34
aVEMPIREDB-244
p35
aVEMPIREDB-243
p36
aVEMPIREDB-242
p37
aVEMPIREDB-241
p38
aVEMPIREDB-240
p39
aVEMPIREDB-239
p40
aVEMPIREDB-238
p41
aVEMPIREDB-237
p42
aVEMPIREDB-236
p43
aVEMPIREDB-235
p44
aVEMPIREDB-234
p45
aVEMPIREDB-233
p46
aVEMPIREDB-232
p47
aVEMPIREDB-231
p48
aVEMPIREDB-230
p49
aVEMPIREDB-229
p50
aVEMPIREDB-228
p51
aVEMPIREDB-227
p52
aVEMPIREDB-226
p53
aVEMPIREDB-225
p54
aVEMPIREDB-224
p55
aVEMPIREDB-223
p56
aVEMPIREDB-222
p57
aVEMPIREDB-221
p58
aVEMPIREDB-220
p59
aVEMPIREDB-219
p60
aVEMPIREDB-218
p61
aVEMPIREDB-217
p62
aVEMPIREDB-216
p63
aVEMPIREDB-215
p64
aVEMPIREDB-214
p65
aVEMPIREDB-213
p66
aVEMPIREDB-212
p67
aVEMPIREDB-211
p68
aVEMPIREDB-210
p69
aVEMPIREDB-209
p70
aVEMPIREDB-208
p71
aVEMPIREDB-206
p72
aVEMPIREDB-205
p73
aVEMPIREDB-204
p74
aVEMPIREDB-203
p75
aVEMPIREDB-202
p76
aVEMPIREDB-201
p77
aVEMPIREDB-200
p78
aVEMPIREDB-199
p79
aVEMPIREDB-198
p80
aVEMPIREDB-197
p81
aVEMPIREDB-196
p82
aVEMPIREDB-195
p83
aVEMPIREDB-194
p84
aVEMPIREDB-193
p85
aVEMPIREDB-192
p86
aVEMPIREDB-191
p87
aVEMPIREDB-190
p88
aVEMPIREDB-189
p89
aVEMPIREDB-188
p90
aVEMPIREDB-187
p91
aVEMPIREDB-186
p92
aVEMPIREDB-185
p93
aVEMPIREDB-184
p94
aVEMPIREDB-183
p95
aVEMPIREDB-182
p96
aVEMPIREDB-181
p97
aVEMPIREDB-180
p98
aVEMPIREDB-179
p99
aVEMPIREDB-178
p100
aVEMPIREDB-177
p101
aVEMPIREDB-176
p102
aVEMPIREDB-175
p103
aVEMPIREDB-174
p104
aVEMPIREDB-173
p105
aVEMPIREDB-172
p106
aVEMPIREDB-171
p107
aVEMPIREDB-170
p108
aVEMPIREDB-169
p109
aVEMPIREDB-168
p110
aVEMPIREDB-167
p111
aVEMPIREDB-166
p112
aVEMPIREDB-165
p113
aVEMPIREDB-164
p114
aVEMPIREDB-163
p115
aVEMPIREDB-162
p116
aVEMPIREDB-161
p117
aVEMPIREDB-160
p118
aVEMPIREDB-159
p119
aVEMPIREDB-158
p120
aVEMPIREDB-157
p121
aVEMPIREDB-156
p122
aVEMPIREDB-155
p123
aVEMPIREDB-154
p124
aVEMPIREDB-153
p125
aVEMPIREDB-152
p126
aVEMPIREDB-151
p127
aVEMPIREDB-150
p128
aVEMPIREDB-149
p129
aVEMPIREDB-148
p130
aVEMPIREDB-147
p131
aVEMPIREDB-146
p132
aVEMPIREDB-145
p133
aVEMPIREDB-144
p134
aVEMPIREDB-143
p135
aVEMPIREDB-142
p136
aVEMPIREDB-141
p137
aVEMPIREDB-140
p138
aVEMPIREDB-139
p139
aVEMPIREDB-138
p140
aVEMPIREDB-137
p141
aVEMPIREDB-136
p142
aVEMPIREDB-135
p143
aVEMPIREDB-134
p144
aVEMPIREDB-133
p145
aVEMPIREDB-132
p146
aVEMPIREDB-131
p147
aVEMPIREDB-130
p148
aVEMPIREDB-129
p149
aVEMPIREDB-128
p150
aVEMPIREDB-127
p151
aVEMPIREDB-126
p152
aVEMPIREDB-125
p153
aVEMPIREDB-124
p154
aVEMPIREDB-123
p155
aVEMPIREDB-122
p156
aVEMPIREDB-121
p157
aVEMPIREDB-120
p158
aVEMPIREDB-119
p159
aVEMPIREDB-118
p160
aVEMPIREDB-117
p161
aVEMPIREDB-116
p162
aVEMPIREDB-115
p163
aVEMPIREDB-114
p164
aVEMPIREDB-113
p165
aVEMPIREDB-112
p166
aVEMPIREDB-111
p167
aVEMPIREDB-110
p168
aVEMPIREDB-109
p169
aVEMPIREDB-108
p170
aVEMPIREDB-107
p171
aVEMPIREDB-106
p172
aVEMPIREDB-105
p173
aVEMPIREDB-104
p174
aVEMPIREDB-103
p175
aVEMPIREDB-102
p176
aVEMPIREDB-101
p177
aVEMPIREDB-100
p178
aVEMPIREDB-99
p179
aVEMPIREDB-98
p180
aVEMPIREDB-97
p181
aVEMPIREDB-96
p182
aVEMPIREDB-95
p183
aVEMPIREDB-94
p184
aVEMPIREDB-93
p185
aVEMPIREDB-92
p186
aVEMPIREDB-91
p187
aVEMPIREDB-90
p188
aVEMPIREDB-89
p189
aVEMPIREDB-88
p190
aVEMPIREDB-87
p191
aVEMPIREDB-86
p192
aVEMPIREDB-85
p193
aVEMPIREDB-84
p194
aVEMPIREDB-83
p195
aVEMPIREDB-82
p196
aVEMPIREDB-81
p197
aVEMPIREDB-80
p198
aVEMPIREDB-79
p199
aVEMPIREDB-78
p200
aVEMPIREDB-77
p201
aVEMPIREDB-76
p202
aVEMPIREDB-75
p203
aVEMPIREDB-74
p204
aVEMPIREDB-73
p205
aVEMPIREDB-72
p206
aVEMPIREDB-71
p207
aVEMPIREDB-70
p208
aVEMPIREDB-69
p209
aVEMPIREDB-68
p210
aVEMPIREDB-67
p211
aVEMPIREDB-66
p212
aVEMPIREDB-65
p213
aVEMPIREDB-64
p214
aVEMPIREDB-63
p215
aVEMPIREDB-62
p216
aVEMPIREDB-61
p217
aVEMPIREDB-60
p218
aVEMPIREDB-59
p219
aVEMPIREDB-58
p220
aVEMPIREDB-57
p221
aVEMPIREDB-56
p222
aVEMPIREDB-55
p223
aVEMPIREDB-54
p224
aVEMPIREDB-53
p225
aVEMPIREDB-52
p226
aVEMPIREDB-51
p227
aVEMPIREDB-50
p228
aVEMPIREDB-49
p229
aVEMPIREDB-48
p230
aVEMPIREDB-47
p231
aVEMPIREDB-46
p232
aVEMPIREDB-45
p233
aVEMPIREDB-44
p234
aVEMPIREDB-43
p235
aVEMPIREDB-42
p236
aVEMPIREDB-41
p237
aVEMPIREDB-40
p238
aVEMPIREDB-39
p239
aVEMPIREDB-38
p240
aVEMPIREDB-37
p241
aVEMPIREDB-36
p242
aVEMPIREDB-35
p243
aVEMPIREDB-34
p244
aVEMPIREDB-33
p245
aVEMPIREDB-32
p246
aVEMPIREDB-31
p247
aVEMPIREDB-30
p248
aVEMPIREDB-29
p249
aVEMPIREDB-28
p250
aVEMPIREDB-27
p251
aVEMPIREDB-26
p252
aVEMPIREDB-25
p253
aVEMPIREDB-24
p254
aVEMPIREDB-23
p255
aVEMPIREDB-22
p256
aVEMPIREDB-21
p257
aVEMPIREDB-20
p258
aVEMPIREDB-19
p259
aVEMPIREDB-18
p260
aVEMPIREDB-17
p261
aVEMPIREDB-16
p262
aVEMPIREDB-15
p263
aVEMPIREDB-14
p264
aVEMPIREDB-13
p265
aVEMPIREDB-12
p266
aVEMPIREDB-11
p267
aVEMPIREDB-10
p268
aVEMPIREDB-9
p269
aVEMPIREDB-8
p270
aVEMPIREDB-7
p271
aVEMPIREDB-6
p272
aVEMPIREDB-5
p273
aVEMPIREDB-4
p274
aVEMPIREDB-3
p275
aVEMPIREDB-2
p276
aVEMPIREDB-1
p277
a.