(lp0
VETCH-296
p1
aVETCH-295
p2
aVETCH-294
p3
aVETCH-293
p4
aVETCH-292
p5
aVETCH-291
p6
aVETCH-290
p7
aVETCH-289
p8
aVETCH-288
p9
aVETCH-287
p10
aVETCH-286
p11
aVETCH-285
p12
aVETCH-284
p13
aVETCH-283
p14
aVETCH-282
p15
aVETCH-281
p16
aVETCH-280
p17
aVETCH-279
p18
aVETCH-278
p19
aVETCH-277
p20
aVETCH-276
p21
aVETCH-275
p22
aVETCH-274
p23
aVETCH-273
p24
aVETCH-272
p25
aVETCH-271
p26
aVETCH-270
p27
aVETCH-269
p28
aVETCH-268
p29
aVETCH-267
p30
aVETCH-266
p31
aVETCH-265
p32
aVETCH-264
p33
aVETCH-263
p34
aVETCH-262
p35
aVETCH-261
p36
aVETCH-260
p37
aVETCH-259
p38
aVETCH-258
p39
aVETCH-257
p40
aVETCH-256
p41
aVETCH-255
p42
aVETCH-254
p43
aVETCH-253
p44
aVETCH-252
p45
aVETCH-251
p46
aVETCH-250
p47
aVETCH-249
p48
aVETCH-248
p49
aVETCH-247
p50
aVETCH-246
p51
aVETCH-245
p52
aVETCH-244
p53
aVETCH-243
p54
aVETCH-242
p55
aVETCH-241
p56
aVETCH-240
p57
aVETCH-239
p58
aVETCH-238
p59
aVETCH-237
p60
aVETCH-236
p61
aVETCH-235
p62
aVETCH-234
p63
aVETCH-233
p64
aVETCH-232
p65
aVETCH-231
p66
aVETCH-230
p67
aVETCH-229
p68
aVETCH-228
p69
aVETCH-227
p70
aVETCH-226
p71
aVETCH-225
p72
aVETCH-224
p73
aVETCH-223
p74
aVETCH-222
p75
aVETCH-221
p76
aVETCH-220
p77
aVETCH-219
p78
aVETCH-218
p79
aVETCH-217
p80
aVETCH-216
p81
aVETCH-215
p82
aVETCH-214
p83
aVETCH-213
p84
aVETCH-212
p85
aVETCH-211
p86
aVETCH-210
p87
aVETCH-209
p88
aVETCH-208
p89
aVETCH-207
p90
aVETCH-206
p91
aVETCH-205
p92
aVETCH-204
p93
aVETCH-203
p94
aVETCH-202
p95
aVETCH-201
p96
aVETCH-200
p97
aVETCH-199
p98
aVETCH-198
p99
aVETCH-197
p100
aVETCH-196
p101
aVETCH-195
p102
aVETCH-194
p103
aVETCH-193
p104
aVETCH-192
p105
aVETCH-191
p106
aVETCH-190
p107
aVETCH-189
p108
aVETCH-188
p109
aVETCH-187
p110
aVETCH-186
p111
aVETCH-185
p112
aVETCH-184
p113
aVETCH-183
p114
aVETCH-182
p115
aVETCH-181
p116
aVETCH-180
p117
aVETCH-179
p118
aVETCH-178
p119
aVETCH-177
p120
aVETCH-176
p121
aVETCH-175
p122
aVETCH-174
p123
aVETCH-173
p124
aVETCH-172
p125
aVETCH-171
p126
aVETCH-170
p127
aVETCH-169
p128
aVETCH-168
p129
aVETCH-167
p130
aVETCH-166
p131
aVETCH-165
p132
aVETCH-164
p133
aVETCH-163
p134
aVETCH-162
p135
aVETCH-161
p136
aVETCH-160
p137
aVETCH-159
p138
aVETCH-158
p139
aVETCH-157
p140
aVETCH-156
p141
aVETCH-155
p142
aVETCH-154
p143
aVETCH-153
p144
aVETCH-152
p145
aVETCH-151
p146
aVETCH-150
p147
aVETCH-149
p148
aVETCH-148
p149
aVETCH-147
p150
aVETCH-146
p151
aVETCH-145
p152
aVETCH-144
p153
aVETCH-143
p154
aVETCH-142
p155
aVETCH-141
p156
aVETCH-140
p157
aVETCH-139
p158
aVETCH-138
p159
aVETCH-137
p160
aVETCH-135
p161
aVETCH-134
p162
aVETCH-133
p163
aVETCH-132
p164
aVETCH-131
p165
aVETCH-130
p166
aVETCH-129
p167
aVETCH-128
p168
aVETCH-127
p169
aVETCH-126
p170
aVETCH-125
p171
aVETCH-124
p172
aVETCH-123
p173
aVETCH-122
p174
aVETCH-121
p175
aVETCH-120
p176
aVETCH-119
p177
aVETCH-118
p178
aVETCH-117
p179
aVETCH-116
p180
aVETCH-115
p181
aVETCH-114
p182
aVETCH-113
p183
aVETCH-112
p184
aVETCH-111
p185
aVETCH-110
p186
aVETCH-109
p187
aVETCH-108
p188
aVETCH-107
p189
aVETCH-106
p190
aVETCH-105
p191
aVETCH-104
p192
aVETCH-103
p193
aVETCH-102
p194
aVETCH-101
p195
aVETCH-100
p196
aVETCH-99
p197
aVETCH-98
p198
aVETCH-97
p199
aVETCH-96
p200
aVETCH-95
p201
aVETCH-94
p202
aVETCH-93
p203
aVETCH-92
p204
aVETCH-91
p205
aVETCH-90
p206
aVETCH-89
p207
aVETCH-88
p208
aVETCH-87
p209
aVETCH-86
p210
aVETCH-85
p211
aVETCH-84
p212
aVETCH-83
p213
aVETCH-82
p214
aVETCH-81
p215
aVETCH-80
p216
aVETCH-79
p217
aVETCH-78
p218
aVETCH-77
p219
aVETCH-76
p220
aVETCH-75
p221
aVETCH-74
p222
aVETCH-73
p223
aVETCH-72
p224
aVETCH-71
p225
aVETCH-70
p226
aVETCH-69
p227
aVETCH-68
p228
aVETCH-67
p229
aVETCH-66
p230
aVETCH-65
p231
aVETCH-64
p232
aVETCH-63
p233
aVETCH-62
p234
aVETCH-61
p235
aVETCH-60
p236
aVETCH-59
p237
aVETCH-58
p238
aVETCH-57
p239
aVETCH-56
p240
aVETCH-55
p241
aVETCH-54
p242
aVETCH-53
p243
aVETCH-52
p244
aVETCH-51
p245
aVETCH-50
p246
aVETCH-49
p247
aVETCH-48
p248
aVETCH-47
p249
aVETCH-46
p250
aVETCH-45
p251
aVETCH-44
p252
aVETCH-43
p253
aVETCH-42
p254
aVETCH-41
p255
aVETCH-40
p256
aVETCH-39
p257
aVETCH-38
p258
aVETCH-37
p259
aVETCH-36
p260
aVETCH-35
p261
aVETCH-34
p262
aVETCH-33
p263
aVETCH-32
p264
aVETCH-31
p265
aVETCH-30
p266
aVETCH-29
p267
aVETCH-28
p268
aVETCH-27
p269
aVETCH-26
p270
aVETCH-25
p271
aVETCH-24
p272
aVETCH-23
p273
aVETCH-22
p274
aVETCH-21
p275
aVETCH-20
p276
aVETCH-19
p277
aVETCH-18
p278
aVETCH-17
p279
aVETCH-16
p280
aVETCH-15
p281
aVETCH-14
p282
aVETCH-13
p283
aVETCH-12
p284
aVETCH-11
p285
aVETCH-10
p286
aVETCH-9
p287
aVETCH-8
p288
aVETCH-7
p289
aVETCH-6
p290
aVETCH-5
p291
aVETCH-4
p292
aVETCH-3
p293
aVETCH-2
p294
aVETCH-1
p295
a.