(lp0
VFALCON-2341
p1
aVFALCON-2340
p2
aVFALCON-2339
p3
aVFALCON-2338
p4
aVFALCON-2337
p5
aVFALCON-2336
p6
aVFALCON-2335
p7
aVFALCON-2334
p8
aVFALCON-2333
p9
aVFALCON-2332
p10
aVFALCON-2331
p11
aVFALCON-2330
p12
aVFALCON-2329
p13
aVFALCON-2328
p14
aVFALCON-2327
p15
aVFALCON-2326
p16
aVFALCON-2325
p17
aVFALCON-2324
p18
aVFALCON-2323
p19
aVFALCON-2322
p20
aVFALCON-2321
p21
aVFALCON-2320
p22
aVFALCON-2319
p23
aVFALCON-2318
p24
aVFALCON-2317
p25
aVFALCON-2316
p26
aVFALCON-2315
p27
aVFALCON-2314
p28
aVFALCON-2313
p29
aVFALCON-2312
p30
aVFALCON-2311
p31
aVFALCON-2310
p32
aVFALCON-2309
p33
aVFALCON-2308
p34
aVFALCON-2307
p35
aVFALCON-2306
p36
aVFALCON-2305
p37
aVFALCON-2304
p38
aVFALCON-2303
p39
aVFALCON-2302
p40
aVFALCON-2301
p41
aVFALCON-2300
p42
aVFALCON-2299
p43
aVFALCON-2298
p44
aVFALCON-2297
p45
aVFALCON-2296
p46
aVFALCON-2295
p47
aVFALCON-2294
p48
aVFALCON-2293
p49
aVFALCON-2292
p50
aVFALCON-2291
p51
aVFALCON-2290
p52
aVFALCON-2289
p53
aVFALCON-2288
p54
aVFALCON-2287
p55
aVFALCON-2286
p56
aVFALCON-2285
p57
aVFALCON-2284
p58
aVFALCON-2283
p59
aVFALCON-2282
p60
aVFALCON-2281
p61
aVFALCON-2280
p62
aVFALCON-2279
p63
aVFALCON-2278
p64
aVFALCON-2277
p65
aVFALCON-2276
p66
aVFALCON-2275
p67
aVFALCON-2274
p68
aVFALCON-2273
p69
aVFALCON-2272
p70
aVFALCON-2271
p71
aVFALCON-2270
p72
aVFALCON-2269
p73
aVFALCON-2268
p74
aVFALCON-2267
p75
aVFALCON-2266
p76
aVFALCON-2265
p77
aVFALCON-2264
p78
aVFALCON-2263
p79
aVFALCON-2262
p80
aVFALCON-2261
p81
aVFALCON-2260
p82
aVFALCON-2259
p83
aVFALCON-2258
p84
aVFALCON-2257
p85
aVFALCON-2256
p86
aVFALCON-2255
p87
aVFALCON-2254
p88
aVFALCON-2253
p89
aVFALCON-2252
p90
aVFALCON-2251
p91
aVFALCON-2250
p92
aVFALCON-2249
p93
aVFALCON-2248
p94
aVFALCON-2247
p95
aVFALCON-2246
p96
aVFALCON-2245
p97
aVFALCON-2244
p98
aVFALCON-2243
p99
aVFALCON-2242
p100
aVFALCON-2241
p101
aVFALCON-2240
p102
aVFALCON-2239
p103
aVFALCON-2238
p104
aVFALCON-2237
p105
aVFALCON-2236
p106
aVFALCON-2235
p107
aVFALCON-2234
p108
aVFALCON-2233
p109
aVFALCON-2232
p110
aVFALCON-2231
p111
aVFALCON-2230
p112
aVFALCON-2229
p113
aVFALCON-2228
p114
aVFALCON-2227
p115
aVFALCON-2226
p116
aVFALCON-2225
p117
aVFALCON-2224
p118
aVFALCON-2223
p119
aVFALCON-2222
p120
aVFALCON-2221
p121
aVFALCON-2220
p122
aVFALCON-2219
p123
aVFALCON-2218
p124
aVFALCON-2217
p125
aVFALCON-2216
p126
aVFALCON-2215
p127
aVFALCON-2214
p128
aVFALCON-2213
p129
aVFALCON-2212
p130
aVFALCON-2211
p131
aVFALCON-2210
p132
aVFALCON-2209
p133
aVFALCON-2208
p134
aVFALCON-2207
p135
aVFALCON-2206
p136
aVFALCON-2205
p137
aVFALCON-2204
p138
aVFALCON-2203
p139
aVFALCON-2202
p140
aVFALCON-2201
p141
aVFALCON-2200
p142
aVFALCON-2199
p143
aVFALCON-2198
p144
aVFALCON-2197
p145
aVFALCON-2196
p146
aVFALCON-2195
p147
aVFALCON-2194
p148
aVFALCON-2193
p149
aVFALCON-2192
p150
aVFALCON-2191
p151
aVFALCON-2190
p152
aVFALCON-2189
p153
aVFALCON-2188
p154
aVFALCON-2187
p155
aVFALCON-2186
p156
aVFALCON-2185
p157
aVFALCON-2184
p158
aVFALCON-2183
p159
aVFALCON-2182
p160
aVFALCON-2181
p161
aVFALCON-2180
p162
aVFALCON-2179
p163
aVFALCON-2178
p164
aVFALCON-2177
p165
aVFALCON-2176
p166
aVFALCON-2175
p167
aVFALCON-2174
p168
aVFALCON-2173
p169
aVFALCON-2172
p170
aVFALCON-2171
p171
aVFALCON-2170
p172
aVFALCON-2169
p173
aVFALCON-2168
p174
aVFALCON-2167
p175
aVFALCON-2166
p176
aVFALCON-2165
p177
aVFALCON-2164
p178
aVFALCON-2163
p179
aVFALCON-2162
p180
aVFALCON-2161
p181
aVFALCON-2160
p182
aVFALCON-2159
p183
aVFALCON-2158
p184
aVFALCON-2157
p185
aVFALCON-2156
p186
aVFALCON-2155
p187
aVFALCON-2154
p188
aVFALCON-2153
p189
aVFALCON-2152
p190
aVFALCON-2151
p191
aVFALCON-2150
p192
aVFALCON-2149
p193
aVFALCON-2148
p194
aVFALCON-2147
p195
aVFALCON-2146
p196
aVFALCON-2145
p197
aVFALCON-2144
p198
aVFALCON-2143
p199
aVFALCON-2142
p200
aVFALCON-2141
p201
aVFALCON-2140
p202
aVFALCON-2139
p203
aVFALCON-2138
p204
aVFALCON-2137
p205
aVFALCON-2136
p206
aVFALCON-2135
p207
aVFALCON-2134
p208
aVFALCON-2133
p209
aVFALCON-2132
p210
aVFALCON-2131
p211
aVFALCON-2130
p212
aVFALCON-2129
p213
aVFALCON-2128
p214
aVFALCON-2127
p215
aVFALCON-2126
p216
aVFALCON-2125
p217
aVFALCON-2124
p218
aVFALCON-2123
p219
aVFALCON-2122
p220
aVFALCON-2121
p221
aVFALCON-2120
p222
aVFALCON-2119
p223
aVFALCON-2118
p224
aVFALCON-2117
p225
aVFALCON-2116
p226
aVFALCON-2115
p227
aVFALCON-2114
p228
aVFALCON-2113
p229
aVFALCON-2112
p230
aVFALCON-2111
p231
aVFALCON-2110
p232
aVFALCON-2109
p233
aVFALCON-2108
p234
aVFALCON-2107
p235
aVFALCON-2106
p236
aVFALCON-2105
p237
aVFALCON-2104
p238
aVFALCON-2103
p239
aVFALCON-2102
p240
aVFALCON-2101
p241
aVFALCON-2100
p242
aVFALCON-2099
p243
aVFALCON-2098
p244
aVFALCON-2097
p245
aVFALCON-2096
p246
aVFALCON-2095
p247
aVFALCON-2094
p248
aVFALCON-2093
p249
aVFALCON-2092
p250
aVFALCON-2091
p251
aVFALCON-2090
p252
aVFALCON-2089
p253
aVFALCON-2088
p254
aVFALCON-2087
p255
aVFALCON-2086
p256
aVFALCON-2085
p257
aVFALCON-2084
p258
aVFALCON-2083
p259
aVFALCON-2082
p260
aVFALCON-2081
p261
aVFALCON-2080
p262
aVFALCON-2079
p263
aVFALCON-2078
p264
aVFALCON-2077
p265
aVFALCON-2076
p266
aVFALCON-2075
p267
aVFALCON-2074
p268
aVFALCON-2073
p269
aVFALCON-2072
p270
aVFALCON-2071
p271
aVFALCON-2070
p272
aVFALCON-2069
p273
aVFALCON-2068
p274
aVFALCON-2067
p275
aVFALCON-2066
p276
aVFALCON-2065
p277
aVFALCON-2063
p278
aVFALCON-2062
p279
aVFALCON-2061
p280
aVFALCON-2060
p281
aVFALCON-2059
p282
aVFALCON-2058
p283
aVFALCON-2057
p284
aVFALCON-2056
p285
aVFALCON-2055
p286
aVFALCON-2054
p287
aVFALCON-2053
p288
aVFALCON-2052
p289
aVFALCON-2051
p290
aVFALCON-2050
p291
aVFALCON-2049
p292
aVFALCON-2048
p293
aVFALCON-2047
p294
aVFALCON-2046
p295
aVFALCON-2045
p296
aVFALCON-2044
p297
aVFALCON-2043
p298
aVFALCON-2042
p299
aVFALCON-2041
p300
aVFALCON-2040
p301
aVFALCON-2039
p302
aVFALCON-2038
p303
aVFALCON-2037
p304
aVFALCON-2036
p305
aVFALCON-2035
p306
aVFALCON-2034
p307
aVFALCON-2033
p308
aVFALCON-2032
p309
aVFALCON-2031
p310
aVFALCON-2030
p311
aVFALCON-2029
p312
aVFALCON-2028
p313
aVFALCON-2027
p314
aVFALCON-2026
p315
aVFALCON-2025
p316
aVFALCON-2024
p317
aVFALCON-2023
p318
aVFALCON-2022
p319
aVFALCON-2021
p320
aVFALCON-2020
p321
aVFALCON-2019
p322
aVFALCON-2018
p323
aVFALCON-2017
p324
aVFALCON-2016
p325
aVFALCON-2015
p326
aVFALCON-2014
p327
aVFALCON-2013
p328
aVFALCON-2012
p329
aVFALCON-2011
p330
aVFALCON-2010
p331
aVFALCON-2009
p332
aVFALCON-2008
p333
aVFALCON-2007
p334
aVFALCON-2006
p335
aVFALCON-2005
p336
aVFALCON-2004
p337
aVFALCON-2003
p338
aVFALCON-2002
p339
aVFALCON-2001
p340
aVFALCON-2000
p341
aVFALCON-1999
p342
aVFALCON-1998
p343
aVFALCON-1997
p344
aVFALCON-1996
p345
aVFALCON-1995
p346
aVFALCON-1994
p347
aVFALCON-1993
p348
aVFALCON-1992
p349
aVFALCON-1991
p350
aVFALCON-1990
p351
aVFALCON-1989
p352
aVFALCON-1988
p353
aVFALCON-1987
p354
aVFALCON-1986
p355
aVFALCON-1985
p356
aVFALCON-1984
p357
aVFALCON-1983
p358
aVFALCON-1982
p359
aVFALCON-1981
p360
aVFALCON-1980
p361
aVFALCON-1979
p362
aVFALCON-1978
p363
aVFALCON-1977
p364
aVFALCON-1976
p365
aVFALCON-1975
p366
aVFALCON-1974
p367
aVFALCON-1973
p368
aVFALCON-1972
p369
aVFALCON-1971
p370
aVFALCON-1970
p371
aVFALCON-1969
p372
aVFALCON-1968
p373
aVFALCON-1967
p374
aVFALCON-1966
p375
aVFALCON-1965
p376
aVFALCON-1964
p377
aVFALCON-1963
p378
aVFALCON-1962
p379
aVFALCON-1961
p380
aVFALCON-1960
p381
aVFALCON-1959
p382
aVFALCON-1958
p383
aVFALCON-1957
p384
aVFALCON-1956
p385
aVFALCON-1955
p386
aVFALCON-1954
p387
aVFALCON-1953
p388
aVFALCON-1952
p389
aVFALCON-1951
p390
aVFALCON-1950
p391
aVFALCON-1949
p392
aVFALCON-1948
p393
aVFALCON-1947
p394
aVFALCON-1946
p395
aVFALCON-1945
p396
aVFALCON-1944
p397
aVFALCON-1943
p398
aVFALCON-1942
p399
aVFALCON-1941
p400
aVFALCON-1940
p401
aVFALCON-1939
p402
aVFALCON-1938
p403
aVFALCON-1937
p404
aVFALCON-1936
p405
aVFALCON-1935
p406
aVFALCON-1934
p407
aVFALCON-1933
p408
aVFALCON-1932
p409
aVFALCON-1931
p410
aVFALCON-1930
p411
aVFALCON-1929
p412
aVFALCON-1928
p413
aVFALCON-1927
p414
aVFALCON-1926
p415
aVFALCON-1925
p416
aVFALCON-1924
p417
aVFALCON-1923
p418
aVFALCON-1922
p419
aVFALCON-1921
p420
aVFALCON-1920
p421
aVFALCON-1919
p422
aVFALCON-1918
p423
aVFALCON-1917
p424
aVFALCON-1916
p425
aVFALCON-1915
p426
aVFALCON-1914
p427
aVFALCON-1913
p428
aVFALCON-1912
p429
aVFALCON-1911
p430
aVFALCON-1910
p431
aVFALCON-1909
p432
aVFALCON-1908
p433
aVFALCON-1907
p434
aVFALCON-1906
p435
aVFALCON-1905
p436
aVFALCON-1904
p437
aVFALCON-1903
p438
aVFALCON-1902
p439
aVFALCON-1901
p440
aVFALCON-1900
p441
aVFALCON-1899
p442
aVFALCON-1898
p443
aVFALCON-1897
p444
aVFALCON-1896
p445
aVFALCON-1895
p446
aVFALCON-1894
p447
aVFALCON-1893
p448
aVFALCON-1892
p449
aVFALCON-1891
p450
aVFALCON-1890
p451
aVFALCON-1889
p452
aVFALCON-1888
p453
aVFALCON-1887
p454
aVFALCON-1886
p455
aVFALCON-1885
p456
aVFALCON-1884
p457
aVFALCON-1883
p458
aVFALCON-1882
p459
aVFALCON-1881
p460
aVFALCON-1880
p461
aVFALCON-1879
p462
aVFALCON-1878
p463
aVFALCON-1877
p464
aVFALCON-1876
p465
aVFALCON-1875
p466
aVFALCON-1874
p467
aVFALCON-1873
p468
aVFALCON-1872
p469
aVFALCON-1871
p470
aVFALCON-1870
p471
aVFALCON-1869
p472
aVFALCON-1868
p473
aVFALCON-1867
p474
aVFALCON-1866
p475
aVFALCON-1865
p476
aVFALCON-1864
p477
aVFALCON-1863
p478
aVFALCON-1862
p479
aVFALCON-1861
p480
aVFALCON-1860
p481
aVFALCON-1859
p482
aVFALCON-1858
p483
aVFALCON-1857
p484
aVFALCON-1856
p485
aVFALCON-1855
p486
aVFALCON-1854
p487
aVFALCON-1853
p488
aVFALCON-1852
p489
aVFALCON-1851
p490
aVFALCON-1850
p491
aVFALCON-1849
p492
aVFALCON-1848
p493
aVFALCON-1847
p494
aVFALCON-1846
p495
aVFALCON-1845
p496
aVFALCON-1844
p497
aVFALCON-1843
p498
aVFALCON-1842
p499
aVFALCON-1841
p500
aVFALCON-1840
p501
aVFALCON-1839
p502
aVFALCON-1838
p503
aVFALCON-1837
p504
aVFALCON-1836
p505
aVFALCON-1835
p506
aVFALCON-1834
p507
aVFALCON-1833
p508
aVFALCON-1832
p509
aVFALCON-1831
p510
aVFALCON-1830
p511
aVFALCON-1829
p512
aVFALCON-1828
p513
aVFALCON-1827
p514
aVFALCON-1826
p515
aVFALCON-1825
p516
aVFALCON-1824
p517
aVFALCON-1823
p518
aVFALCON-1822
p519
aVFALCON-1821
p520
aVFALCON-1820
p521
aVFALCON-1819
p522
aVFALCON-1818
p523
aVFALCON-1817
p524
aVFALCON-1816
p525
aVFALCON-1815
p526
aVFALCON-1814
p527
aVFALCON-1813
p528
aVFALCON-1812
p529
aVFALCON-1811
p530
aVFALCON-1810
p531
aVFALCON-1809
p532
aVFALCON-1808
p533
aVFALCON-1807
p534
aVFALCON-1806
p535
aVFALCON-1805
p536
aVFALCON-1804
p537
aVFALCON-1803
p538
aVFALCON-1802
p539
aVFALCON-1801
p540
aVFALCON-1800
p541
aVFALCON-1799
p542
aVFALCON-1798
p543
aVFALCON-1797
p544
aVFALCON-1796
p545
aVFALCON-1795
p546
aVFALCON-1794
p547
aVFALCON-1793
p548
aVFALCON-1792
p549
aVFALCON-1791
p550
aVFALCON-1790
p551
aVFALCON-1789
p552
aVFALCON-1788
p553
aVFALCON-1787
p554
aVFALCON-1786
p555
aVFALCON-1785
p556
aVFALCON-1784
p557
aVFALCON-1783
p558
aVFALCON-1782
p559
aVFALCON-1781
p560
aVFALCON-1780
p561
aVFALCON-1779
p562
aVFALCON-1778
p563
aVFALCON-1777
p564
aVFALCON-1776
p565
aVFALCON-1775
p566
aVFALCON-1774
p567
aVFALCON-1773
p568
aVFALCON-1772
p569
aVFALCON-1771
p570
aVFALCON-1770
p571
aVFALCON-1769
p572
aVFALCON-1768
p573
aVFALCON-1767
p574
aVFALCON-1766
p575
aVFALCON-1765
p576
aVFALCON-1764
p577
aVFALCON-1763
p578
aVFALCON-1762
p579
aVFALCON-1761
p580
aVFALCON-1760
p581
aVFALCON-1759
p582
aVFALCON-1758
p583
aVFALCON-1757
p584
aVFALCON-1756
p585
aVFALCON-1755
p586
aVFALCON-1754
p587
aVFALCON-1753
p588
aVFALCON-1752
p589
aVFALCON-1751
p590
aVFALCON-1750
p591
aVFALCON-1749
p592
aVFALCON-1748
p593
aVFALCON-1747
p594
aVFALCON-1746
p595
aVFALCON-1745
p596
aVFALCON-1744
p597
aVFALCON-1743
p598
aVFALCON-1742
p599
aVFALCON-1741
p600
aVFALCON-1740
p601
aVFALCON-1739
p602
aVFALCON-1738
p603
aVFALCON-1737
p604
aVFALCON-1736
p605
aVFALCON-1735
p606
aVFALCON-1734
p607
aVFALCON-1733
p608
aVFALCON-1732
p609
aVFALCON-1731
p610
aVFALCON-1730
p611
aVFALCON-1729
p612
aVFALCON-1728
p613
aVFALCON-1727
p614
aVFALCON-1726
p615
aVFALCON-1725
p616
aVFALCON-1724
p617
aVFALCON-1723
p618
aVFALCON-1722
p619
aVFALCON-1721
p620
aVFALCON-1720
p621
aVFALCON-1719
p622
aVFALCON-1718
p623
aVFALCON-1717
p624
aVFALCON-1716
p625
aVFALCON-1715
p626
aVFALCON-1714
p627
aVFALCON-1713
p628
aVFALCON-1712
p629
aVFALCON-1711
p630
aVFALCON-1710
p631
aVFALCON-1709
p632
aVFALCON-1708
p633
aVFALCON-1707
p634
aVFALCON-1706
p635
aVFALCON-1705
p636
aVFALCON-1704
p637
aVFALCON-1703
p638
aVFALCON-1702
p639
aVFALCON-1701
p640
aVFALCON-1700
p641
aVFALCON-1699
p642
aVFALCON-1698
p643
aVFALCON-1697
p644
aVFALCON-1696
p645
aVFALCON-1695
p646
aVFALCON-1694
p647
aVFALCON-1693
p648
aVFALCON-1692
p649
aVFALCON-1691
p650
aVFALCON-1690
p651
aVFALCON-1689
p652
aVFALCON-1688
p653
aVFALCON-1687
p654
aVFALCON-1686
p655
aVFALCON-1685
p656
aVFALCON-1684
p657
aVFALCON-1683
p658
aVFALCON-1682
p659
aVFALCON-1681
p660
aVFALCON-1680
p661
aVFALCON-1679
p662
aVFALCON-1678
p663
aVFALCON-1677
p664
aVFALCON-1676
p665
aVFALCON-1675
p666
aVFALCON-1674
p667
aVFALCON-1673
p668
aVFALCON-1672
p669
aVFALCON-1671
p670
aVFALCON-1670
p671
aVFALCON-1669
p672
aVFALCON-1668
p673
aVFALCON-1667
p674
aVFALCON-1666
p675
aVFALCON-1665
p676
aVFALCON-1664
p677
aVFALCON-1663
p678
aVFALCON-1662
p679
aVFALCON-1661
p680
aVFALCON-1660
p681
aVFALCON-1659
p682
aVFALCON-1658
p683
aVFALCON-1657
p684
aVFALCON-1656
p685
aVFALCON-1655
p686
aVFALCON-1654
p687
aVFALCON-1653
p688
aVFALCON-1652
p689
aVFALCON-1651
p690
aVFALCON-1650
p691
aVFALCON-1649
p692
aVFALCON-1648
p693
aVFALCON-1647
p694
aVFALCON-1646
p695
aVFALCON-1645
p696
aVFALCON-1644
p697
aVFALCON-1643
p698
aVFALCON-1642
p699
aVFALCON-1641
p700
aVFALCON-1640
p701
aVFALCON-1639
p702
aVFALCON-1638
p703
aVFALCON-1637
p704
aVFALCON-1636
p705
aVFALCON-1635
p706
aVFALCON-1634
p707
aVFALCON-1633
p708
aVFALCON-1632
p709
aVFALCON-1631
p710
aVFALCON-1630
p711
aVFALCON-1629
p712
aVFALCON-1628
p713
aVFALCON-1627
p714
aVFALCON-1626
p715
aVFALCON-1625
p716
aVFALCON-1624
p717
aVFALCON-1623
p718
aVFALCON-1622
p719
aVFALCON-1621
p720
aVFALCON-1620
p721
aVFALCON-1619
p722
aVFALCON-1618
p723
aVFALCON-1617
p724
aVFALCON-1616
p725
aVFALCON-1615
p726
aVFALCON-1614
p727
aVFALCON-1613
p728
aVFALCON-1612
p729
aVFALCON-1611
p730
aVFALCON-1610
p731
aVFALCON-1609
p732
aVFALCON-1608
p733
aVFALCON-1607
p734
aVFALCON-1606
p735
aVFALCON-1605
p736
aVFALCON-1604
p737
aVFALCON-1603
p738
aVFALCON-1602
p739
aVFALCON-1601
p740
aVFALCON-1600
p741
aVFALCON-1599
p742
aVFALCON-1598
p743
aVFALCON-1597
p744
aVFALCON-1596
p745
aVFALCON-1595
p746
aVFALCON-1594
p747
aVFALCON-1593
p748
aVFALCON-1592
p749
aVFALCON-1591
p750
aVFALCON-1590
p751
aVFALCON-1589
p752
aVFALCON-1588
p753
aVFALCON-1587
p754
aVFALCON-1586
p755
aVFALCON-1585
p756
aVFALCON-1584
p757
aVFALCON-1583
p758
aVFALCON-1582
p759
aVFALCON-1581
p760
aVFALCON-1580
p761
aVFALCON-1579
p762
aVFALCON-1578
p763
aVFALCON-1577
p764
aVFALCON-1576
p765
aVFALCON-1575
p766
aVFALCON-1574
p767
aVFALCON-1573
p768
aVFALCON-1572
p769
aVFALCON-1571
p770
aVFALCON-1570
p771
aVFALCON-1569
p772
aVFALCON-1568
p773
aVFALCON-1567
p774
aVFALCON-1566
p775
aVFALCON-1565
p776
aVFALCON-1564
p777
aVFALCON-1563
p778
aVFALCON-1562
p779
aVFALCON-1561
p780
aVFALCON-1560
p781
aVFALCON-1559
p782
aVFALCON-1558
p783
aVFALCON-1557
p784
aVFALCON-1556
p785
aVFALCON-1555
p786
aVFALCON-1554
p787
aVFALCON-1553
p788
aVFALCON-1552
p789
aVFALCON-1551
p790
aVFALCON-1550
p791
aVFALCON-1549
p792
aVFALCON-1548
p793
aVFALCON-1547
p794
aVFALCON-1546
p795
aVFALCON-1545
p796
aVFALCON-1544
p797
aVFALCON-1543
p798
aVFALCON-1542
p799
aVFALCON-1541
p800
aVFALCON-1540
p801
aVFALCON-1539
p802
aVFALCON-1538
p803
aVFALCON-1537
p804
aVFALCON-1536
p805
aVFALCON-1535
p806
aVFALCON-1534
p807
aVFALCON-1533
p808
aVFALCON-1532
p809
aVFALCON-1531
p810
aVFALCON-1530
p811
aVFALCON-1529
p812
aVFALCON-1528
p813
aVFALCON-1527
p814
aVFALCON-1526
p815
aVFALCON-1525
p816
aVFALCON-1524
p817
aVFALCON-1523
p818
aVFALCON-1522
p819
aVFALCON-1521
p820
aVFALCON-1520
p821
aVFALCON-1519
p822
aVFALCON-1518
p823
aVFALCON-1517
p824
aVFALCON-1516
p825
aVFALCON-1515
p826
aVFALCON-1514
p827
aVFALCON-1513
p828
aVFALCON-1512
p829
aVFALCON-1511
p830
aVFALCON-1510
p831
aVFALCON-1509
p832
aVFALCON-1508
p833
aVFALCON-1507
p834
aVFALCON-1506
p835
aVFALCON-1505
p836
aVFALCON-1504
p837
aVFALCON-1503
p838
aVFALCON-1502
p839
aVFALCON-1501
p840
aVFALCON-1500
p841
aVFALCON-1499
p842
aVFALCON-1498
p843
aVFALCON-1497
p844
aVFALCON-1496
p845
aVFALCON-1495
p846
aVFALCON-1494
p847
aVFALCON-1493
p848
aVFALCON-1492
p849
aVFALCON-1491
p850
aVFALCON-1490
p851
aVFALCON-1489
p852
aVFALCON-1488
p853
aVFALCON-1487
p854
aVFALCON-1486
p855
aVFALCON-1485
p856
aVFALCON-1484
p857
aVFALCON-1483
p858
aVFALCON-1482
p859
aVFALCON-1481
p860
aVFALCON-1480
p861
aVFALCON-1479
p862
aVFALCON-1478
p863
aVFALCON-1477
p864
aVFALCON-1476
p865
aVFALCON-1475
p866
aVFALCON-1474
p867
aVFALCON-1473
p868
aVFALCON-1472
p869
aVFALCON-1471
p870
aVFALCON-1470
p871
aVFALCON-1469
p872
aVFALCON-1468
p873
aVFALCON-1467
p874
aVFALCON-1466
p875
aVFALCON-1465
p876
aVFALCON-1464
p877
aVFALCON-1463
p878
aVFALCON-1462
p879
aVFALCON-1461
p880
aVFALCON-1460
p881
aVFALCON-1459
p882
aVFALCON-1458
p883
aVFALCON-1457
p884
aVFALCON-1456
p885
aVFALCON-1455
p886
aVFALCON-1454
p887
aVFALCON-1453
p888
aVFALCON-1452
p889
aVFALCON-1451
p890
aVFALCON-1450
p891
aVFALCON-1449
p892
aVFALCON-1448
p893
aVFALCON-1447
p894
aVFALCON-1446
p895
aVFALCON-1445
p896
aVFALCON-1444
p897
aVFALCON-1443
p898
aVFALCON-1442
p899
aVFALCON-1441
p900
aVFALCON-1440
p901
aVFALCON-1439
p902
aVFALCON-1438
p903
aVFALCON-1437
p904
aVFALCON-1436
p905
aVFALCON-1435
p906
aVFALCON-1434
p907
aVFALCON-1433
p908
aVFALCON-1432
p909
aVFALCON-1431
p910
aVFALCON-1430
p911
aVFALCON-1429
p912
aVFALCON-1428
p913
aVFALCON-1427
p914
aVFALCON-1426
p915
aVFALCON-1425
p916
aVFALCON-1424
p917
aVFALCON-1423
p918
aVFALCON-1422
p919
aVFALCON-1421
p920
aVFALCON-1420
p921
aVFALCON-1419
p922
aVFALCON-1418
p923
aVFALCON-1417
p924
aVFALCON-1416
p925
aVFALCON-1415
p926
aVFALCON-1414
p927
aVFALCON-1413
p928
aVFALCON-1412
p929
aVFALCON-1411
p930
aVFALCON-1410
p931
aVFALCON-1409
p932
aVFALCON-1408
p933
aVFALCON-1407
p934
aVFALCON-1406
p935
aVFALCON-1405
p936
aVFALCON-1404
p937
aVFALCON-1403
p938
aVFALCON-1402
p939
aVFALCON-1401
p940
aVFALCON-1400
p941
aVFALCON-1399
p942
aVFALCON-1398
p943
aVFALCON-1397
p944
aVFALCON-1396
p945
aVFALCON-1395
p946
aVFALCON-1394
p947
aVFALCON-1393
p948
aVFALCON-1392
p949
aVFALCON-1391
p950
aVFALCON-1390
p951
aVFALCON-1389
p952
aVFALCON-1388
p953
aVFALCON-1387
p954
aVFALCON-1386
p955
aVFALCON-1385
p956
aVFALCON-1384
p957
aVFALCON-1383
p958
aVFALCON-1382
p959
aVFALCON-1381
p960
aVFALCON-1380
p961
aVFALCON-1379
p962
aVFALCON-1378
p963
aVFALCON-1377
p964
aVFALCON-1376
p965
aVFALCON-1375
p966
aVFALCON-1374
p967
aVFALCON-1373
p968
aVFALCON-1372
p969
aVFALCON-1371
p970
aVFALCON-1370
p971
aVFALCON-1369
p972
aVFALCON-1368
p973
aVFALCON-1367
p974
aVFALCON-1366
p975
aVFALCON-1365
p976
aVFALCON-1364
p977
aVFALCON-1363
p978
aVFALCON-1362
p979
aVFALCON-1361
p980
aVFALCON-1360
p981
aVFALCON-1359
p982
aVFALCON-1358
p983
aVFALCON-1357
p984
aVFALCON-1356
p985
aVFALCON-1355
p986
aVFALCON-1354
p987
aVFALCON-1353
p988
aVFALCON-1352
p989
aVFALCON-1351
p990
aVFALCON-1350
p991
aVFALCON-1349
p992
aVFALCON-1348
p993
aVFALCON-1347
p994
aVFALCON-1346
p995
aVFALCON-1345
p996
aVFALCON-1344
p997
aVFALCON-1343
p998
aVFALCON-1342
p999
aVFALCON-1341
p1000
aVFALCON-1340
p1001
aVFALCON-1339
p1002
aVFALCON-1338
p1003
aVFALCON-1337
p1004
aVFALCON-1336
p1005
aVFALCON-1335
p1006
aVFALCON-1334
p1007
aVFALCON-1333
p1008
aVFALCON-1332
p1009
aVFALCON-1331
p1010
aVFALCON-1330
p1011
aVFALCON-1329
p1012
aVFALCON-1328
p1013
aVFALCON-1327
p1014
aVFALCON-1326
p1015
aVFALCON-1325
p1016
aVFALCON-1324
p1017
aVFALCON-1323
p1018
aVFALCON-1322
p1019
aVFALCON-1321
p1020
aVFALCON-1320
p1021
aVFALCON-1319
p1022
aVFALCON-1318
p1023
aVFALCON-1317
p1024
aVFALCON-1316
p1025
aVFALCON-1315
p1026
aVFALCON-1314
p1027
aVFALCON-1313
p1028
aVFALCON-1312
p1029
aVFALCON-1311
p1030
aVFALCON-1310
p1031
aVFALCON-1309
p1032
aVFALCON-1308
p1033
aVFALCON-1307
p1034
aVFALCON-1306
p1035
aVFALCON-1305
p1036
aVFALCON-1304
p1037
aVFALCON-1303
p1038
aVFALCON-1302
p1039
aVFALCON-1301
p1040
aVFALCON-1300
p1041
aVFALCON-1299
p1042
aVFALCON-1298
p1043
aVFALCON-1297
p1044
aVFALCON-1296
p1045
aVFALCON-1295
p1046
aVFALCON-1294
p1047
aVFALCON-1293
p1048
aVFALCON-1292
p1049
aVFALCON-1291
p1050
aVFALCON-1290
p1051
aVFALCON-1289
p1052
aVFALCON-1288
p1053
aVFALCON-1287
p1054
aVFALCON-1286
p1055
aVFALCON-1285
p1056
aVFALCON-1284
p1057
aVFALCON-1283
p1058
aVFALCON-1282
p1059
aVFALCON-1281
p1060
aVFALCON-1280
p1061
aVFALCON-1279
p1062
aVFALCON-1278
p1063
aVFALCON-1277
p1064
aVFALCON-1276
p1065
aVFALCON-1275
p1066
aVFALCON-1274
p1067
aVFALCON-1273
p1068
aVFALCON-1272
p1069
aVFALCON-1271
p1070
aVFALCON-1270
p1071
aVFALCON-1269
p1072
aVFALCON-1268
p1073
aVFALCON-1267
p1074
aVFALCON-1266
p1075
aVFALCON-1265
p1076
aVFALCON-1264
p1077
aVFALCON-1263
p1078
aVFALCON-1262
p1079
aVFALCON-1261
p1080
aVFALCON-1260
p1081
aVFALCON-1259
p1082
aVFALCON-1258
p1083
aVFALCON-1257
p1084
aVFALCON-1256
p1085
aVFALCON-1255
p1086
aVFALCON-1254
p1087
aVFALCON-1253
p1088
aVFALCON-1252
p1089
aVFALCON-1251
p1090
aVFALCON-1250
p1091
aVFALCON-1249
p1092
aVFALCON-1248
p1093
aVFALCON-1247
p1094
aVFALCON-1246
p1095
aVFALCON-1245
p1096
aVFALCON-1244
p1097
aVFALCON-1243
p1098
aVFALCON-1242
p1099
aVFALCON-1241
p1100
aVFALCON-1240
p1101
aVFALCON-1239
p1102
aVFALCON-1238
p1103
aVFALCON-1237
p1104
aVFALCON-1236
p1105
aVFALCON-1235
p1106
aVFALCON-1234
p1107
aVFALCON-1233
p1108
aVFALCON-1232
p1109
aVFALCON-1231
p1110
aVFALCON-1230
p1111
aVFALCON-1229
p1112
aVFALCON-1228
p1113
aVFALCON-1227
p1114
aVFALCON-1226
p1115
aVFALCON-1225
p1116
aVFALCON-1224
p1117
aVFALCON-1223
p1118
aVFALCON-1222
p1119
aVFALCON-1221
p1120
aVFALCON-1220
p1121
aVFALCON-1219
p1122
aVFALCON-1218
p1123
aVFALCON-1217
p1124
aVFALCON-1216
p1125
aVFALCON-1215
p1126
aVFALCON-1214
p1127
aVFALCON-1213
p1128
aVFALCON-1212
p1129
aVFALCON-1211
p1130
aVFALCON-1210
p1131
aVFALCON-1209
p1132
aVFALCON-1208
p1133
aVFALCON-1207
p1134
aVFALCON-1206
p1135
aVFALCON-1205
p1136
aVFALCON-1204
p1137
aVFALCON-1203
p1138
aVFALCON-1202
p1139
aVFALCON-1201
p1140
aVFALCON-1200
p1141
aVFALCON-1199
p1142
aVFALCON-1198
p1143
aVFALCON-1197
p1144
aVFALCON-1196
p1145
aVFALCON-1195
p1146
aVFALCON-1194
p1147
aVFALCON-1193
p1148
aVFALCON-1192
p1149
aVFALCON-1191
p1150
aVFALCON-1190
p1151
aVFALCON-1189
p1152
aVFALCON-1188
p1153
aVFALCON-1187
p1154
aVFALCON-1186
p1155
aVFALCON-1185
p1156
aVFALCON-1184
p1157
aVFALCON-1183
p1158
aVFALCON-1182
p1159
aVFALCON-1181
p1160
aVFALCON-1180
p1161
aVFALCON-1179
p1162
aVFALCON-1178
p1163
aVFALCON-1177
p1164
aVFALCON-1176
p1165
aVFALCON-1175
p1166
aVFALCON-1174
p1167
aVFALCON-1173
p1168
aVFALCON-1172
p1169
aVFALCON-1171
p1170
aVFALCON-1170
p1171
aVFALCON-1169
p1172
aVFALCON-1168
p1173
aVFALCON-1167
p1174
aVFALCON-1166
p1175
aVFALCON-1165
p1176
aVFALCON-1164
p1177
aVFALCON-1163
p1178
aVFALCON-1162
p1179
aVFALCON-1161
p1180
aVFALCON-1160
p1181
aVFALCON-1159
p1182
aVFALCON-1158
p1183
aVFALCON-1157
p1184
aVFALCON-1156
p1185
aVFALCON-1155
p1186
aVFALCON-1154
p1187
aVFALCON-1153
p1188
aVFALCON-1152
p1189
aVFALCON-1151
p1190
aVFALCON-1150
p1191
aVFALCON-1149
p1192
aVFALCON-1148
p1193
aVFALCON-1147
p1194
aVFALCON-1146
p1195
aVFALCON-1145
p1196
aVFALCON-1144
p1197
aVFALCON-1143
p1198
aVFALCON-1142
p1199
aVFALCON-1141
p1200
aVFALCON-1140
p1201
aVFALCON-1139
p1202
aVFALCON-1138
p1203
aVFALCON-1137
p1204
aVFALCON-1136
p1205
aVFALCON-1135
p1206
aVFALCON-1134
p1207
aVFALCON-1133
p1208
aVFALCON-1132
p1209
aVFALCON-1131
p1210
aVFALCON-1130
p1211
aVFALCON-1129
p1212
aVFALCON-1128
p1213
aVFALCON-1127
p1214
aVFALCON-1126
p1215
aVFALCON-1125
p1216
aVFALCON-1124
p1217
aVFALCON-1123
p1218
aVFALCON-1122
p1219
aVFALCON-1121
p1220
aVFALCON-1120
p1221
aVFALCON-1119
p1222
aVFALCON-1118
p1223
aVFALCON-1117
p1224
aVFALCON-1116
p1225
aVFALCON-1115
p1226
aVFALCON-1114
p1227
aVFALCON-1113
p1228
aVFALCON-1112
p1229
aVFALCON-1111
p1230
aVFALCON-1110
p1231
aVFALCON-1109
p1232
aVFALCON-1108
p1233
aVFALCON-1107
p1234
aVFALCON-1106
p1235
aVFALCON-1105
p1236
aVFALCON-1104
p1237
aVFALCON-1103
p1238
aVFALCON-1102
p1239
aVFALCON-1101
p1240
aVFALCON-1100
p1241
aVFALCON-1099
p1242
aVFALCON-1098
p1243
aVFALCON-1097
p1244
aVFALCON-1096
p1245
aVFALCON-1095
p1246
aVFALCON-1094
p1247
aVFALCON-1093
p1248
aVFALCON-1092
p1249
aVFALCON-1091
p1250
aVFALCON-1090
p1251
aVFALCON-1089
p1252
aVFALCON-1088
p1253
aVFALCON-1087
p1254
aVFALCON-1086
p1255
aVFALCON-1085
p1256
aVFALCON-1084
p1257
aVFALCON-1083
p1258
aVFALCON-1082
p1259
aVFALCON-1081
p1260
aVFALCON-1080
p1261
aVFALCON-1079
p1262
aVFALCON-1078
p1263
aVFALCON-1077
p1264
aVFALCON-1076
p1265
aVFALCON-1075
p1266
aVFALCON-1074
p1267
aVFALCON-1073
p1268
aVFALCON-1072
p1269
aVFALCON-1071
p1270
aVFALCON-1070
p1271
aVFALCON-1069
p1272
aVFALCON-1068
p1273
aVFALCON-1067
p1274
aVFALCON-1066
p1275
aVFALCON-1065
p1276
aVFALCON-1064
p1277
aVFALCON-1063
p1278
aVFALCON-1062
p1279
aVFALCON-1061
p1280
aVFALCON-1060
p1281
aVFALCON-1059
p1282
aVFALCON-1058
p1283
aVFALCON-1057
p1284
aVFALCON-1056
p1285
aVFALCON-1055
p1286
aVFALCON-1054
p1287
aVFALCON-1053
p1288
aVFALCON-1052
p1289
aVFALCON-1051
p1290
aVFALCON-1050
p1291
aVFALCON-1049
p1292
aVFALCON-1048
p1293
aVFALCON-1047
p1294
aVFALCON-1046
p1295
aVFALCON-1045
p1296
aVFALCON-1044
p1297
aVFALCON-1043
p1298
aVFALCON-1042
p1299
aVFALCON-1041
p1300
aVFALCON-1040
p1301
aVFALCON-1039
p1302
aVFALCON-1038
p1303
aVFALCON-1037
p1304
aVFALCON-1036
p1305
aVFALCON-1035
p1306
aVFALCON-1034
p1307
aVFALCON-1033
p1308
aVFALCON-1032
p1309
aVFALCON-1031
p1310
aVFALCON-1030
p1311
aVFALCON-1029
p1312
aVFALCON-1028
p1313
aVFALCON-1027
p1314
aVFALCON-1026
p1315
aVFALCON-1025
p1316
aVFALCON-1024
p1317
aVFALCON-1023
p1318
aVFALCON-1022
p1319
aVFALCON-1021
p1320
aVFALCON-1020
p1321
aVFALCON-1019
p1322
aVFALCON-1018
p1323
aVFALCON-1017
p1324
aVFALCON-1016
p1325
aVFALCON-1015
p1326
aVFALCON-1014
p1327
aVFALCON-1013
p1328
aVFALCON-1012
p1329
aVFALCON-1011
p1330
aVFALCON-1010
p1331
aVFALCON-1009
p1332
aVFALCON-1008
p1333
aVFALCON-1007
p1334
aVFALCON-1006
p1335
aVFALCON-1005
p1336
aVFALCON-1004
p1337
aVFALCON-1003
p1338
aVFALCON-1002
p1339
aVFALCON-1001
p1340
aVFALCON-1000
p1341
aVFALCON-999
p1342
aVFALCON-998
p1343
aVFALCON-997
p1344
aVFALCON-996
p1345
aVFALCON-995
p1346
aVFALCON-994
p1347
aVFALCON-993
p1348
aVFALCON-992
p1349
aVFALCON-991
p1350
aVFALCON-990
p1351
aVFALCON-989
p1352
aVFALCON-988
p1353
aVFALCON-987
p1354
aVFALCON-986
p1355
aVFALCON-985
p1356
aVFALCON-984
p1357
aVFALCON-983
p1358
aVFALCON-982
p1359
aVFALCON-981
p1360
aVFALCON-980
p1361
aVFALCON-979
p1362
aVFALCON-978
p1363
aVFALCON-977
p1364
aVFALCON-976
p1365
aVFALCON-975
p1366
aVFALCON-974
p1367
aVFALCON-973
p1368
aVFALCON-972
p1369
aVFALCON-971
p1370
aVFALCON-970
p1371
aVFALCON-969
p1372
aVFALCON-968
p1373
aVFALCON-967
p1374
aVFALCON-966
p1375
aVFALCON-965
p1376
aVFALCON-964
p1377
aVFALCON-963
p1378
aVFALCON-962
p1379
aVFALCON-961
p1380
aVFALCON-960
p1381
aVFALCON-959
p1382
aVFALCON-958
p1383
aVFALCON-957
p1384
aVFALCON-956
p1385
aVFALCON-955
p1386
aVFALCON-954
p1387
aVFALCON-953
p1388
aVFALCON-952
p1389
aVFALCON-951
p1390
aVFALCON-950
p1391
aVFALCON-949
p1392
aVFALCON-948
p1393
aVFALCON-947
p1394
aVFALCON-946
p1395
aVFALCON-945
p1396
aVFALCON-944
p1397
aVFALCON-943
p1398
aVFALCON-942
p1399
aVFALCON-941
p1400
aVFALCON-940
p1401
aVFALCON-939
p1402
aVFALCON-938
p1403
aVFALCON-937
p1404
aVFALCON-936
p1405
aVFALCON-935
p1406
aVFALCON-934
p1407
aVFALCON-933
p1408
aVFALCON-932
p1409
aVFALCON-931
p1410
aVFALCON-930
p1411
aVFALCON-929
p1412
aVFALCON-928
p1413
aVFALCON-927
p1414
aVFALCON-926
p1415
aVFALCON-925
p1416
aVFALCON-924
p1417
aVFALCON-923
p1418
aVFALCON-922
p1419
aVFALCON-921
p1420
aVFALCON-920
p1421
aVFALCON-919
p1422
aVFALCON-918
p1423
aVFALCON-917
p1424
aVFALCON-916
p1425
aVFALCON-915
p1426
aVFALCON-914
p1427
aVFALCON-913
p1428
aVFALCON-912
p1429
aVFALCON-911
p1430
aVFALCON-910
p1431
aVFALCON-909
p1432
aVFALCON-908
p1433
aVFALCON-907
p1434
aVFALCON-906
p1435
aVFALCON-905
p1436
aVFALCON-904
p1437
aVFALCON-903
p1438
aVFALCON-902
p1439
aVFALCON-901
p1440
aVFALCON-900
p1441
aVFALCON-899
p1442
aVFALCON-898
p1443
aVFALCON-897
p1444
aVFALCON-896
p1445
aVFALCON-895
p1446
aVFALCON-894
p1447
aVFALCON-893
p1448
aVFALCON-892
p1449
aVFALCON-891
p1450
aVFALCON-890
p1451
aVFALCON-889
p1452
aVFALCON-888
p1453
aVFALCON-887
p1454
aVFALCON-886
p1455
aVFALCON-885
p1456
aVFALCON-884
p1457
aVFALCON-883
p1458
aVFALCON-882
p1459
aVFALCON-881
p1460
aVFALCON-880
p1461
aVFALCON-879
p1462
aVFALCON-878
p1463
aVFALCON-877
p1464
aVFALCON-876
p1465
aVFALCON-875
p1466
aVFALCON-874
p1467
aVFALCON-873
p1468
aVFALCON-872
p1469
aVFALCON-871
p1470
aVFALCON-870
p1471
aVFALCON-869
p1472
aVFALCON-868
p1473
aVFALCON-867
p1474
aVFALCON-866
p1475
aVFALCON-865
p1476
aVFALCON-864
p1477
aVFALCON-863
p1478
aVFALCON-862
p1479
aVFALCON-861
p1480
aVFALCON-860
p1481
aVFALCON-859
p1482
aVFALCON-858
p1483
aVFALCON-857
p1484
aVFALCON-856
p1485
aVFALCON-855
p1486
aVFALCON-854
p1487
aVFALCON-853
p1488
aVFALCON-852
p1489
aVFALCON-851
p1490
aVFALCON-850
p1491
aVFALCON-849
p1492
aVFALCON-848
p1493
aVFALCON-847
p1494
aVFALCON-846
p1495
aVFALCON-845
p1496
aVFALCON-844
p1497
aVFALCON-843
p1498
aVFALCON-842
p1499
aVFALCON-841
p1500
aVFALCON-840
p1501
aVFALCON-839
p1502
aVFALCON-838
p1503
aVFALCON-837
p1504
aVFALCON-836
p1505
aVFALCON-835
p1506
aVFALCON-834
p1507
aVFALCON-833
p1508
aVFALCON-832
p1509
aVFALCON-831
p1510
aVFALCON-830
p1511
aVFALCON-829
p1512
aVFALCON-828
p1513
aVFALCON-827
p1514
aVFALCON-826
p1515
aVFALCON-825
p1516
aVFALCON-824
p1517
aVFALCON-823
p1518
aVFALCON-822
p1519
aVFALCON-821
p1520
aVFALCON-820
p1521
aVFALCON-819
p1522
aVFALCON-818
p1523
aVFALCON-817
p1524
aVFALCON-816
p1525
aVFALCON-815
p1526
aVFALCON-814
p1527
aVFALCON-813
p1528
aVFALCON-812
p1529
aVFALCON-811
p1530
aVFALCON-810
p1531
aVFALCON-809
p1532
aVFALCON-808
p1533
aVFALCON-807
p1534
aVFALCON-806
p1535
aVFALCON-805
p1536
aVFALCON-804
p1537
aVFALCON-803
p1538
aVFALCON-802
p1539
aVFALCON-801
p1540
aVFALCON-800
p1541
aVFALCON-799
p1542
aVFALCON-798
p1543
aVFALCON-797
p1544
aVFALCON-796
p1545
aVFALCON-795
p1546
aVFALCON-794
p1547
aVFALCON-793
p1548
aVFALCON-792
p1549
aVFALCON-791
p1550
aVFALCON-790
p1551
aVFALCON-789
p1552
aVFALCON-788
p1553
aVFALCON-787
p1554
aVFALCON-786
p1555
aVFALCON-785
p1556
aVFALCON-784
p1557
aVFALCON-783
p1558
aVFALCON-782
p1559
aVFALCON-781
p1560
aVFALCON-780
p1561
aVFALCON-779
p1562
aVFALCON-778
p1563
aVFALCON-777
p1564
aVFALCON-776
p1565
aVFALCON-775
p1566
aVFALCON-774
p1567
aVFALCON-773
p1568
aVFALCON-772
p1569
aVFALCON-771
p1570
aVFALCON-770
p1571
aVFALCON-769
p1572
aVFALCON-768
p1573
aVFALCON-767
p1574
aVFALCON-766
p1575
aVFALCON-765
p1576
aVFALCON-764
p1577
aVFALCON-763
p1578
aVFALCON-762
p1579
aVFALCON-761
p1580
aVFALCON-760
p1581
aVFALCON-759
p1582
aVFALCON-758
p1583
aVFALCON-757
p1584
aVFALCON-756
p1585
aVFALCON-755
p1586
aVFALCON-754
p1587
aVFALCON-753
p1588
aVFALCON-752
p1589
aVFALCON-751
p1590
aVFALCON-750
p1591
aVFALCON-749
p1592
aVFALCON-748
p1593
aVFALCON-747
p1594
aVFALCON-746
p1595
aVFALCON-745
p1596
aVFALCON-744
p1597
aVFALCON-743
p1598
aVFALCON-742
p1599
aVFALCON-741
p1600
aVFALCON-740
p1601
aVFALCON-739
p1602
aVFALCON-738
p1603
aVFALCON-737
p1604
aVFALCON-736
p1605
aVFALCON-735
p1606
aVFALCON-734
p1607
aVFALCON-733
p1608
aVFALCON-732
p1609
aVFALCON-731
p1610
aVFALCON-730
p1611
aVFALCON-729
p1612
aVFALCON-728
p1613
aVFALCON-727
p1614
aVFALCON-726
p1615
aVFALCON-725
p1616
aVFALCON-724
p1617
aVFALCON-723
p1618
aVFALCON-722
p1619
aVFALCON-721
p1620
aVFALCON-720
p1621
aVFALCON-719
p1622
aVFALCON-718
p1623
aVFALCON-717
p1624
aVFALCON-716
p1625
aVFALCON-715
p1626
aVFALCON-714
p1627
aVFALCON-713
p1628
aVFALCON-712
p1629
aVFALCON-711
p1630
aVFALCON-710
p1631
aVFALCON-709
p1632
aVFALCON-708
p1633
aVFALCON-707
p1634
aVFALCON-706
p1635
aVFALCON-705
p1636
aVFALCON-704
p1637
aVFALCON-703
p1638
aVFALCON-702
p1639
aVFALCON-701
p1640
aVFALCON-700
p1641
aVFALCON-699
p1642
aVFALCON-698
p1643
aVFALCON-697
p1644
aVFALCON-696
p1645
aVFALCON-695
p1646
aVFALCON-694
p1647
aVFALCON-693
p1648
aVFALCON-692
p1649
aVFALCON-691
p1650
aVFALCON-690
p1651
aVFALCON-689
p1652
aVFALCON-688
p1653
aVFALCON-687
p1654
aVFALCON-686
p1655
aVFALCON-685
p1656
aVFALCON-684
p1657
aVFALCON-683
p1658
aVFALCON-682
p1659
aVFALCON-681
p1660
aVFALCON-680
p1661
aVFALCON-679
p1662
aVFALCON-678
p1663
aVFALCON-677
p1664
aVFALCON-676
p1665
aVFALCON-675
p1666
aVFALCON-674
p1667
aVFALCON-673
p1668
aVFALCON-672
p1669
aVFALCON-671
p1670
aVFALCON-670
p1671
aVFALCON-669
p1672
aVFALCON-668
p1673
aVFALCON-667
p1674
aVFALCON-666
p1675
aVFALCON-665
p1676
aVFALCON-664
p1677
aVFALCON-663
p1678
aVFALCON-662
p1679
aVFALCON-661
p1680
aVFALCON-660
p1681
aVFALCON-659
p1682
aVFALCON-658
p1683
aVFALCON-657
p1684
aVFALCON-656
p1685
aVFALCON-655
p1686
aVFALCON-654
p1687
aVFALCON-653
p1688
aVFALCON-652
p1689
aVFALCON-651
p1690
aVFALCON-650
p1691
aVFALCON-649
p1692
aVFALCON-648
p1693
aVFALCON-647
p1694
aVFALCON-646
p1695
aVFALCON-645
p1696
aVFALCON-644
p1697
aVFALCON-643
p1698
aVFALCON-642
p1699
aVFALCON-641
p1700
aVFALCON-640
p1701
aVFALCON-639
p1702
aVFALCON-638
p1703
aVFALCON-637
p1704
aVFALCON-636
p1705
aVFALCON-635
p1706
aVFALCON-634
p1707
aVFALCON-633
p1708
aVFALCON-632
p1709
aVFALCON-631
p1710
aVFALCON-630
p1711
aVFALCON-629
p1712
aVFALCON-628
p1713
aVFALCON-627
p1714
aVFALCON-626
p1715
aVFALCON-625
p1716
aVFALCON-624
p1717
aVFALCON-623
p1718
aVFALCON-622
p1719
aVFALCON-621
p1720
aVFALCON-620
p1721
aVFALCON-619
p1722
aVFALCON-618
p1723
aVFALCON-617
p1724
aVFALCON-616
p1725
aVFALCON-615
p1726
aVFALCON-614
p1727
aVFALCON-613
p1728
aVFALCON-612
p1729
aVFALCON-611
p1730
aVFALCON-610
p1731
aVFALCON-609
p1732
aVFALCON-608
p1733
aVFALCON-607
p1734
aVFALCON-606
p1735
aVFALCON-605
p1736
aVFALCON-604
p1737
aVFALCON-603
p1738
aVFALCON-602
p1739
aVFALCON-601
p1740
aVFALCON-600
p1741
aVFALCON-599
p1742
aVFALCON-598
p1743
aVFALCON-597
p1744
aVFALCON-596
p1745
aVFALCON-595
p1746
aVFALCON-594
p1747
aVFALCON-593
p1748
aVFALCON-592
p1749
aVFALCON-591
p1750
aVFALCON-590
p1751
aVFALCON-589
p1752
aVFALCON-588
p1753
aVFALCON-587
p1754
aVFALCON-586
p1755
aVFALCON-585
p1756
aVFALCON-584
p1757
aVFALCON-583
p1758
aVFALCON-582
p1759
aVFALCON-581
p1760
aVFALCON-580
p1761
aVFALCON-579
p1762
aVFALCON-578
p1763
aVFALCON-577
p1764
aVFALCON-576
p1765
aVFALCON-575
p1766
aVFALCON-574
p1767
aVFALCON-573
p1768
aVFALCON-572
p1769
aVFALCON-571
p1770
aVFALCON-570
p1771
aVFALCON-569
p1772
aVFALCON-568
p1773
aVFALCON-567
p1774
aVFALCON-566
p1775
aVFALCON-565
p1776
aVFALCON-564
p1777
aVFALCON-563
p1778
aVFALCON-562
p1779
aVFALCON-561
p1780
aVFALCON-560
p1781
aVFALCON-559
p1782
aVFALCON-558
p1783
aVFALCON-557
p1784
aVFALCON-556
p1785
aVFALCON-555
p1786
aVFALCON-554
p1787
aVFALCON-553
p1788
aVFALCON-552
p1789
aVFALCON-551
p1790
aVFALCON-550
p1791
aVFALCON-549
p1792
aVFALCON-548
p1793
aVFALCON-547
p1794
aVFALCON-546
p1795
aVFALCON-545
p1796
aVFALCON-544
p1797
aVFALCON-543
p1798
aVFALCON-542
p1799
aVFALCON-541
p1800
aVFALCON-540
p1801
aVFALCON-539
p1802
aVFALCON-538
p1803
aVFALCON-537
p1804
aVFALCON-536
p1805
aVFALCON-535
p1806
aVFALCON-534
p1807
aVFALCON-533
p1808
aVFALCON-532
p1809
aVFALCON-531
p1810
aVFALCON-530
p1811
aVFALCON-529
p1812
aVFALCON-528
p1813
aVFALCON-527
p1814
aVFALCON-526
p1815
aVFALCON-525
p1816
aVFALCON-524
p1817
aVFALCON-523
p1818
aVFALCON-522
p1819
aVFALCON-521
p1820
aVFALCON-520
p1821
aVFALCON-519
p1822
aVFALCON-518
p1823
aVFALCON-517
p1824
aVFALCON-516
p1825
aVFALCON-515
p1826
aVFALCON-514
p1827
aVFALCON-513
p1828
aVFALCON-512
p1829
aVFALCON-511
p1830
aVFALCON-510
p1831
aVFALCON-509
p1832
aVFALCON-508
p1833
aVFALCON-507
p1834
aVFALCON-506
p1835
aVFALCON-505
p1836
aVFALCON-504
p1837
aVFALCON-503
p1838
aVFALCON-502
p1839
aVFALCON-501
p1840
aVFALCON-500
p1841
aVFALCON-499
p1842
aVFALCON-498
p1843
aVFALCON-497
p1844
aVFALCON-496
p1845
aVFALCON-495
p1846
aVFALCON-494
p1847
aVFALCON-493
p1848
aVFALCON-492
p1849
aVFALCON-491
p1850
aVFALCON-490
p1851
aVFALCON-489
p1852
aVFALCON-488
p1853
aVFALCON-487
p1854
aVFALCON-486
p1855
aVFALCON-485
p1856
aVFALCON-484
p1857
aVFALCON-483
p1858
aVFALCON-482
p1859
aVFALCON-481
p1860
aVFALCON-480
p1861
aVFALCON-479
p1862
aVFALCON-478
p1863
aVFALCON-477
p1864
aVFALCON-476
p1865
aVFALCON-475
p1866
aVFALCON-474
p1867
aVFALCON-473
p1868
aVFALCON-472
p1869
aVFALCON-471
p1870
aVFALCON-470
p1871
aVFALCON-469
p1872
aVFALCON-468
p1873
aVFALCON-467
p1874
aVFALCON-466
p1875
aVFALCON-465
p1876
aVFALCON-464
p1877
aVFALCON-463
p1878
aVFALCON-462
p1879
aVFALCON-461
p1880
aVFALCON-460
p1881
aVFALCON-459
p1882
aVFALCON-458
p1883
aVFALCON-457
p1884
aVFALCON-456
p1885
aVFALCON-455
p1886
aVFALCON-454
p1887
aVFALCON-453
p1888
aVFALCON-452
p1889
aVFALCON-451
p1890
aVFALCON-450
p1891
aVFALCON-449
p1892
aVFALCON-448
p1893
aVFALCON-447
p1894
aVFALCON-446
p1895
aVFALCON-445
p1896
aVFALCON-444
p1897
aVFALCON-443
p1898
aVFALCON-442
p1899
aVFALCON-441
p1900
aVFALCON-440
p1901
aVFALCON-439
p1902
aVFALCON-438
p1903
aVFALCON-437
p1904
aVFALCON-436
p1905
aVFALCON-435
p1906
aVFALCON-434
p1907
aVFALCON-433
p1908
aVFALCON-432
p1909
aVFALCON-431
p1910
aVFALCON-430
p1911
aVFALCON-429
p1912
aVFALCON-428
p1913
aVFALCON-427
p1914
aVFALCON-426
p1915
aVFALCON-425
p1916
aVFALCON-424
p1917
aVFALCON-423
p1918
aVFALCON-422
p1919
aVFALCON-421
p1920
aVFALCON-420
p1921
aVFALCON-419
p1922
aVFALCON-418
p1923
aVFALCON-417
p1924
aVFALCON-416
p1925
aVFALCON-415
p1926
aVFALCON-414
p1927
aVFALCON-413
p1928
aVFALCON-412
p1929
aVFALCON-411
p1930
aVFALCON-410
p1931
aVFALCON-409
p1932
aVFALCON-408
p1933
aVFALCON-407
p1934
aVFALCON-406
p1935
aVFALCON-405
p1936
aVFALCON-404
p1937
aVFALCON-403
p1938
aVFALCON-402
p1939
aVFALCON-401
p1940
aVFALCON-400
p1941
aVFALCON-399
p1942
aVFALCON-398
p1943
aVFALCON-397
p1944
aVFALCON-396
p1945
aVFALCON-395
p1946
aVFALCON-394
p1947
aVFALCON-393
p1948
aVFALCON-392
p1949
aVFALCON-391
p1950
aVFALCON-390
p1951
aVFALCON-389
p1952
aVFALCON-388
p1953
aVFALCON-387
p1954
aVFALCON-386
p1955
aVFALCON-385
p1956
aVFALCON-384
p1957
aVFALCON-383
p1958
aVFALCON-382
p1959
aVFALCON-381
p1960
aVFALCON-380
p1961
aVFALCON-379
p1962
aVFALCON-378
p1963
aVFALCON-377
p1964
aVFALCON-376
p1965
aVFALCON-375
p1966
aVFALCON-374
p1967
aVFALCON-373
p1968
aVFALCON-372
p1969
aVFALCON-371
p1970
aVFALCON-370
p1971
aVFALCON-369
p1972
aVFALCON-368
p1973
aVFALCON-367
p1974
aVFALCON-366
p1975
aVFALCON-365
p1976
aVFALCON-364
p1977
aVFALCON-363
p1978
aVFALCON-362
p1979
aVFALCON-361
p1980
aVFALCON-360
p1981
aVFALCON-359
p1982
aVFALCON-358
p1983
aVFALCON-357
p1984
aVFALCON-356
p1985
aVFALCON-355
p1986
aVFALCON-354
p1987
aVFALCON-353
p1988
aVFALCON-352
p1989
aVFALCON-351
p1990
aVFALCON-350
p1991
aVFALCON-349
p1992
aVFALCON-348
p1993
aVFALCON-347
p1994
aVFALCON-346
p1995
aVFALCON-345
p1996
aVFALCON-344
p1997
aVFALCON-343
p1998
aVFALCON-342
p1999
aVFALCON-341
p2000
aVFALCON-340
p2001
aVFALCON-339
p2002
aVFALCON-338
p2003
aVFALCON-337
p2004
aVFALCON-336
p2005
aVFALCON-335
p2006
aVFALCON-334
p2007
aVFALCON-333
p2008
aVFALCON-332
p2009
aVFALCON-331
p2010
aVFALCON-330
p2011
aVFALCON-329
p2012
aVFALCON-328
p2013
aVFALCON-327
p2014
aVFALCON-326
p2015
aVFALCON-325
p2016
aVFALCON-324
p2017
aVFALCON-323
p2018
aVFALCON-322
p2019
aVFALCON-321
p2020
aVFALCON-320
p2021
aVFALCON-319
p2022
aVFALCON-318
p2023
aVFALCON-317
p2024
aVFALCON-316
p2025
aVFALCON-315
p2026
aVFALCON-314
p2027
aVFALCON-313
p2028
aVFALCON-312
p2029
aVFALCON-311
p2030
aVFALCON-310
p2031
aVFALCON-309
p2032
aVFALCON-308
p2033
aVFALCON-307
p2034
aVFALCON-306
p2035
aVFALCON-305
p2036
aVFALCON-304
p2037
aVFALCON-303
p2038
aVFALCON-302
p2039
aVFALCON-301
p2040
aVFALCON-300
p2041
aVFALCON-299
p2042
aVFALCON-298
p2043
aVFALCON-297
p2044
aVFALCON-296
p2045
aVFALCON-295
p2046
aVFALCON-294
p2047
aVFALCON-293
p2048
aVFALCON-292
p2049
aVFALCON-291
p2050
aVFALCON-290
p2051
aVFALCON-289
p2052
aVFALCON-288
p2053
aVFALCON-287
p2054
aVFALCON-286
p2055
aVFALCON-285
p2056
aVFALCON-284
p2057
aVFALCON-283
p2058
aVFALCON-282
p2059
aVFALCON-281
p2060
aVFALCON-280
p2061
aVFALCON-279
p2062
aVFALCON-278
p2063
aVFALCON-277
p2064
aVFALCON-276
p2065
aVFALCON-275
p2066
aVFALCON-274
p2067
aVFALCON-273
p2068
aVFALCON-272
p2069
aVFALCON-271
p2070
aVFALCON-270
p2071
aVFALCON-269
p2072
aVFALCON-268
p2073
aVFALCON-267
p2074
aVFALCON-266
p2075
aVFALCON-265
p2076
aVFALCON-264
p2077
aVFALCON-263
p2078
aVFALCON-262
p2079
aVFALCON-261
p2080
aVFALCON-260
p2081
aVFALCON-259
p2082
aVFALCON-258
p2083
aVFALCON-257
p2084
aVFALCON-256
p2085
aVFALCON-255
p2086
aVFALCON-254
p2087
aVFALCON-253
p2088
aVFALCON-252
p2089
aVFALCON-251
p2090
aVFALCON-250
p2091
aVFALCON-249
p2092
aVFALCON-248
p2093
aVFALCON-247
p2094
aVFALCON-246
p2095
aVFALCON-245
p2096
aVFALCON-244
p2097
aVFALCON-243
p2098
aVFALCON-242
p2099
aVFALCON-241
p2100
aVFALCON-240
p2101
aVFALCON-239
p2102
aVFALCON-238
p2103
aVFALCON-237
p2104
aVFALCON-236
p2105
aVFALCON-235
p2106
aVFALCON-234
p2107
aVFALCON-233
p2108
aVFALCON-232
p2109
aVFALCON-231
p2110
aVFALCON-230
p2111
aVFALCON-229
p2112
aVFALCON-228
p2113
aVFALCON-227
p2114
aVFALCON-226
p2115
aVFALCON-225
p2116
aVFALCON-224
p2117
aVFALCON-223
p2118
aVFALCON-222
p2119
aVFALCON-221
p2120
aVFALCON-220
p2121
aVFALCON-219
p2122
aVFALCON-218
p2123
aVFALCON-217
p2124
aVFALCON-216
p2125
aVFALCON-215
p2126
aVFALCON-214
p2127
aVFALCON-213
p2128
aVFALCON-212
p2129
aVFALCON-211
p2130
aVFALCON-210
p2131
aVFALCON-209
p2132
aVFALCON-208
p2133
aVFALCON-207
p2134
aVFALCON-206
p2135
aVFALCON-205
p2136
aVFALCON-204
p2137
aVFALCON-203
p2138
aVFALCON-202
p2139
aVFALCON-201
p2140
aVFALCON-200
p2141
aVFALCON-199
p2142
aVFALCON-198
p2143
aVFALCON-197
p2144
aVFALCON-196
p2145
aVFALCON-195
p2146
aVFALCON-194
p2147
aVFALCON-193
p2148
aVFALCON-192
p2149
aVFALCON-191
p2150
aVFALCON-190
p2151
aVFALCON-189
p2152
aVFALCON-188
p2153
aVFALCON-187
p2154
aVFALCON-186
p2155
aVFALCON-185
p2156
aVFALCON-184
p2157
aVFALCON-183
p2158
aVFALCON-182
p2159
aVFALCON-181
p2160
aVFALCON-180
p2161
aVFALCON-179
p2162
aVFALCON-178
p2163
aVFALCON-177
p2164
aVFALCON-176
p2165
aVFALCON-175
p2166
aVFALCON-174
p2167
aVFALCON-173
p2168
aVFALCON-172
p2169
aVFALCON-171
p2170
aVFALCON-170
p2171
aVFALCON-169
p2172
aVFALCON-168
p2173
aVFALCON-167
p2174
aVFALCON-166
p2175
aVFALCON-165
p2176
aVFALCON-164
p2177
aVFALCON-163
p2178
aVFALCON-162
p2179
aVFALCON-161
p2180
aVFALCON-160
p2181
aVFALCON-159
p2182
aVFALCON-158
p2183
aVFALCON-157
p2184
aVFALCON-156
p2185
aVFALCON-155
p2186
aVFALCON-154
p2187
aVFALCON-153
p2188
aVFALCON-152
p2189
aVFALCON-151
p2190
aVFALCON-150
p2191
aVFALCON-149
p2192
aVFALCON-148
p2193
aVFALCON-147
p2194
aVFALCON-146
p2195
aVFALCON-145
p2196
aVFALCON-144
p2197
aVFALCON-143
p2198
aVFALCON-142
p2199
aVFALCON-141
p2200
aVFALCON-140
p2201
aVFALCON-139
p2202
aVFALCON-138
p2203
aVFALCON-137
p2204
aVFALCON-136
p2205
aVFALCON-135
p2206
aVFALCON-134
p2207
aVFALCON-133
p2208
aVFALCON-132
p2209
aVFALCON-131
p2210
aVFALCON-130
p2211
aVFALCON-129
p2212
aVFALCON-128
p2213
aVFALCON-127
p2214
aVFALCON-126
p2215
aVFALCON-125
p2216
aVFALCON-124
p2217
aVFALCON-123
p2218
aVFALCON-122
p2219
aVFALCON-121
p2220
aVFALCON-120
p2221
aVFALCON-119
p2222
aVFALCON-118
p2223
aVFALCON-117
p2224
aVFALCON-116
p2225
aVFALCON-115
p2226
aVFALCON-114
p2227
aVFALCON-113
p2228
aVFALCON-112
p2229
aVFALCON-111
p2230
aVFALCON-110
p2231
aVFALCON-109
p2232
aVFALCON-108
p2233
aVFALCON-107
p2234
aVFALCON-106
p2235
aVFALCON-105
p2236
aVFALCON-104
p2237
aVFALCON-103
p2238
aVFALCON-102
p2239
aVFALCON-101
p2240
aVFALCON-100
p2241
aVFALCON-99
p2242
aVFALCON-98
p2243
aVFALCON-97
p2244
aVFALCON-96
p2245
aVFALCON-95
p2246
aVFALCON-94
p2247
aVFALCON-93
p2248
aVFALCON-92
p2249
aVFALCON-91
p2250
aVFALCON-90
p2251
aVFALCON-89
p2252
aVFALCON-88
p2253
aVFALCON-87
p2254
aVFALCON-86
p2255
aVFALCON-85
p2256
aVFALCON-84
p2257
aVFALCON-83
p2258
aVFALCON-82
p2259
aVFALCON-81
p2260
aVFALCON-80
p2261
aVFALCON-79
p2262
aVFALCON-78
p2263
aVFALCON-77
p2264
aVFALCON-76
p2265
aVFALCON-75
p2266
aVFALCON-74
p2267
aVFALCON-73
p2268
aVFALCON-72
p2269
aVFALCON-71
p2270
aVFALCON-70
p2271
aVFALCON-69
p2272
aVFALCON-68
p2273
aVFALCON-67
p2274
aVFALCON-66
p2275
aVFALCON-65
p2276
aVFALCON-64
p2277
aVFALCON-63
p2278
aVFALCON-62
p2279
aVFALCON-61
p2280
aVFALCON-60
p2281
aVFALCON-59
p2282
aVFALCON-58
p2283
aVFALCON-57
p2284
aVFALCON-56
p2285
aVFALCON-55
p2286
aVFALCON-54
p2287
aVFALCON-53
p2288
aVFALCON-52
p2289
aVFALCON-51
p2290
aVFALCON-50
p2291
aVFALCON-49
p2292
aVFALCON-48
p2293
aVFALCON-47
p2294
aVFALCON-46
p2295
aVFALCON-45
p2296
aVFALCON-44
p2297
aVFALCON-43
p2298
aVFALCON-42
p2299
aVFALCON-41
p2300
aVFALCON-40
p2301
aVFALCON-39
p2302
aVFALCON-38
p2303
aVFALCON-37
p2304
aVFALCON-36
p2305
aVFALCON-35
p2306
aVFALCON-34
p2307
aVFALCON-33
p2308
aVFALCON-32
p2309
aVFALCON-31
p2310
aVFALCON-30
p2311
aVFALCON-29
p2312
aVFALCON-28
p2313
aVFALCON-27
p2314
aVFALCON-26
p2315
aVFALCON-25
p2316
aVFALCON-24
p2317
aVFALCON-23
p2318
aVFALCON-22
p2319
aVFALCON-21
p2320
aVFALCON-20
p2321
aVFALCON-19
p2322
aVFALCON-18
p2323
aVFALCON-17
p2324
aVFALCON-16
p2325
aVFALCON-15
p2326
aVFALCON-14
p2327
aVFALCON-13
p2328
aVFALCON-12
p2329
aVFALCON-11
p2330
aVFALCON-10
p2331
aVFALCON-9
p2332
aVFALCON-8
p2333
aVFALCON-7
p2334
aVFALCON-6
p2335
aVFALCON-5
p2336
aVFALCON-4
p2337
aVFALCON-3
p2338
aVFALCON-2
p2339
aVFALCON-1
p2340
a.