(lp0
VFEDIZ-222
p1
aVFEDIZ-221
p2
aVFEDIZ-220
p3
aVFEDIZ-219
p4
aVFEDIZ-218
p5
aVFEDIZ-217
p6
aVFEDIZ-216
p7
aVFEDIZ-214
p8
aVFEDIZ-213
p9
aVFEDIZ-212
p10
aVFEDIZ-211
p11
aVFEDIZ-210
p12
aVFEDIZ-209
p13
aVFEDIZ-208
p14
aVFEDIZ-207
p15
aVFEDIZ-206
p16
aVFEDIZ-205
p17
aVFEDIZ-204
p18
aVFEDIZ-203
p19
aVFEDIZ-202
p20
aVFEDIZ-201
p21
aVFEDIZ-200
p22
aVFEDIZ-199
p23
aVFEDIZ-198
p24
aVFEDIZ-197
p25
aVFEDIZ-196
p26
aVFEDIZ-195
p27
aVFEDIZ-194
p28
aVFEDIZ-193
p29
aVFEDIZ-192
p30
aVFEDIZ-191
p31
aVFEDIZ-190
p32
aVFEDIZ-189
p33
aVFEDIZ-188
p34
aVFEDIZ-187
p35
aVFEDIZ-186
p36
aVFEDIZ-185
p37
aVFEDIZ-184
p38
aVFEDIZ-183
p39
aVFEDIZ-182
p40
aVFEDIZ-181
p41
aVFEDIZ-180
p42
aVFEDIZ-179
p43
aVFEDIZ-178
p44
aVFEDIZ-177
p45
aVFEDIZ-176
p46
aVFEDIZ-175
p47
aVFEDIZ-174
p48
aVFEDIZ-173
p49
aVFEDIZ-172
p50
aVFEDIZ-171
p51
aVFEDIZ-170
p52
aVFEDIZ-169
p53
aVFEDIZ-168
p54
aVFEDIZ-167
p55
aVFEDIZ-166
p56
aVFEDIZ-165
p57
aVFEDIZ-164
p58
aVFEDIZ-163
p59
aVFEDIZ-162
p60
aVFEDIZ-161
p61
aVFEDIZ-160
p62
aVFEDIZ-159
p63
aVFEDIZ-158
p64
aVFEDIZ-157
p65
aVFEDIZ-156
p66
aVFEDIZ-155
p67
aVFEDIZ-154
p68
aVFEDIZ-153
p69
aVFEDIZ-152
p70
aVFEDIZ-151
p71
aVFEDIZ-150
p72
aVFEDIZ-149
p73
aVFEDIZ-148
p74
aVFEDIZ-147
p75
aVFEDIZ-146
p76
aVFEDIZ-145
p77
aVFEDIZ-144
p78
aVFEDIZ-143
p79
aVFEDIZ-142
p80
aVFEDIZ-141
p81
aVFEDIZ-140
p82
aVFEDIZ-139
p83
aVFEDIZ-138
p84
aVFEDIZ-137
p85
aVFEDIZ-136
p86
aVFEDIZ-135
p87
aVFEDIZ-134
p88
aVFEDIZ-133
p89
aVFEDIZ-132
p90
aVFEDIZ-131
p91
aVFEDIZ-130
p92
aVFEDIZ-129
p93
aVFEDIZ-128
p94
aVFEDIZ-127
p95
aVFEDIZ-126
p96
aVFEDIZ-125
p97
aVFEDIZ-124
p98
aVFEDIZ-123
p99
aVFEDIZ-122
p100
aVFEDIZ-121
p101
aVFEDIZ-120
p102
aVFEDIZ-119
p103
aVFEDIZ-118
p104
aVFEDIZ-117
p105
aVFEDIZ-116
p106
aVFEDIZ-115
p107
aVFEDIZ-114
p108
aVFEDIZ-113
p109
aVFEDIZ-112
p110
aVFEDIZ-111
p111
aVFEDIZ-110
p112
aVFEDIZ-109
p113
aVFEDIZ-108
p114
aVFEDIZ-107
p115
aVFEDIZ-106
p116
aVFEDIZ-105
p117
aVFEDIZ-104
p118
aVFEDIZ-103
p119
aVFEDIZ-102
p120
aVFEDIZ-101
p121
aVFEDIZ-100
p122
aVFEDIZ-99
p123
aVFEDIZ-98
p124
aVFEDIZ-97
p125
aVFEDIZ-96
p126
aVFEDIZ-95
p127
aVFEDIZ-94
p128
aVFEDIZ-93
p129
aVFEDIZ-92
p130
aVFEDIZ-91
p131
aVFEDIZ-90
p132
aVFEDIZ-89
p133
aVFEDIZ-88
p134
aVFEDIZ-87
p135
aVFEDIZ-86
p136
aVFEDIZ-85
p137
aVFEDIZ-84
p138
aVFEDIZ-83
p139
aVFEDIZ-82
p140
aVFEDIZ-81
p141
aVFEDIZ-80
p142
aVFEDIZ-79
p143
aVFEDIZ-78
p144
aVFEDIZ-77
p145
aVFEDIZ-76
p146
aVFEDIZ-75
p147
aVFEDIZ-74
p148
aVFEDIZ-73
p149
aVFEDIZ-72
p150
aVFEDIZ-71
p151
aVFEDIZ-70
p152
aVFEDIZ-69
p153
aVFEDIZ-68
p154
aVFEDIZ-67
p155
aVFEDIZ-66
p156
aVFEDIZ-65
p157
aVFEDIZ-64
p158
aVFEDIZ-63
p159
aVFEDIZ-62
p160
aVFEDIZ-61
p161
aVFEDIZ-60
p162
aVFEDIZ-59
p163
aVFEDIZ-58
p164
aVFEDIZ-57
p165
aVFEDIZ-56
p166
aVFEDIZ-55
p167
aVFEDIZ-54
p168
aVFEDIZ-53
p169
aVFEDIZ-52
p170
aVFEDIZ-51
p171
aVFEDIZ-50
p172
aVFEDIZ-49
p173
aVFEDIZ-48
p174
aVFEDIZ-47
p175
aVFEDIZ-46
p176
aVFEDIZ-45
p177
aVFEDIZ-44
p178
aVFEDIZ-43
p179
aVFEDIZ-42
p180
aVFEDIZ-41
p181
aVFEDIZ-40
p182
aVFEDIZ-39
p183
aVFEDIZ-38
p184
aVFEDIZ-37
p185
aVFEDIZ-36
p186
aVFEDIZ-35
p187
aVFEDIZ-34
p188
aVFEDIZ-33
p189
aVFEDIZ-32
p190
aVFEDIZ-31
p191
aVFEDIZ-30
p192
aVFEDIZ-29
p193
aVFEDIZ-28
p194
aVFEDIZ-27
p195
aVFEDIZ-26
p196
aVFEDIZ-25
p197
aVFEDIZ-24
p198
aVFEDIZ-23
p199
aVFEDIZ-22
p200
aVFEDIZ-21
p201
aVFEDIZ-20
p202
aVFEDIZ-19
p203
aVFEDIZ-18
p204
aVFEDIZ-17
p205
aVFEDIZ-16
p206
aVFEDIZ-15
p207
aVFEDIZ-14
p208
aVFEDIZ-13
p209
aVFEDIZ-12
p210
aVFEDIZ-11
p211
aVFEDIZ-10
p212
aVFEDIZ-9
p213
aVFEDIZ-8
p214
aVFEDIZ-7
p215
aVFEDIZ-6
p216
aVFEDIZ-5
p217
aVFEDIZ-4
p218
aVFEDIZ-3
p219
aVFEDIZ-2
p220
aVFEDIZ-1
p221
a.