(lp0
VFELIX-5896
p1
aVFELIX-5895
p2
aVFELIX-5894
p3
aVFELIX-5893
p4
aVFELIX-5892
p5
aVFELIX-5891
p6
aVFELIX-5890
p7
aVFELIX-5889
p8
aVFELIX-5888
p9
aVFELIX-5887
p10
aVFELIX-5886
p11
aVFELIX-5885
p12
aVFELIX-5884
p13
aVFELIX-5883
p14
aVFELIX-5882
p15
aVFELIX-5881
p16
aVFELIX-5880
p17
aVFELIX-5879
p18
aVFELIX-5878
p19
aVFELIX-5877
p20
aVFELIX-5876
p21
aVFELIX-5875
p22
aVFELIX-5874
p23
aVFELIX-5873
p24
aVFELIX-5872
p25
aVFELIX-5871
p26
aVFELIX-5870
p27
aVFELIX-5869
p28
aVFELIX-5868
p29
aVFELIX-5867
p30
aVFELIX-5866
p31
aVFELIX-5865
p32
aVFELIX-5864
p33
aVFELIX-5863
p34
aVFELIX-5862
p35
aVFELIX-5861
p36
aVFELIX-5860
p37
aVFELIX-5859
p38
aVFELIX-5858
p39
aVFELIX-5857
p40
aVFELIX-5856
p41
aVFELIX-5855
p42
aVFELIX-5854
p43
aVFELIX-5853
p44
aVFELIX-5852
p45
aVFELIX-5851
p46
aVFELIX-5850
p47
aVFELIX-5849
p48
aVFELIX-5848
p49
aVFELIX-5847
p50
aVFELIX-5846
p51
aVFELIX-5845
p52
aVFELIX-5844
p53
aVFELIX-5843
p54
aVFELIX-5842
p55
aVFELIX-5841
p56
aVFELIX-5840
p57
aVFELIX-5839
p58
aVFELIX-5838
p59
aVFELIX-5837
p60
aVFELIX-5836
p61
aVFELIX-5835
p62
aVFELIX-5834
p63
aVFELIX-5833
p64
aVFELIX-5832
p65
aVFELIX-5831
p66
aVFELIX-5830
p67
aVFELIX-5829
p68
aVFELIX-5828
p69
aVFELIX-5827
p70
aVFELIX-5826
p71
aVFELIX-5825
p72
aVFELIX-5824
p73
aVFELIX-5823
p74
aVFELIX-5822
p75
aVFELIX-5821
p76
aVFELIX-5820
p77
aVFELIX-5819
p78
aVFELIX-5818
p79
aVFELIX-5817
p80
aVFELIX-5816
p81
aVFELIX-5815
p82
aVFELIX-5814
p83
aVFELIX-5813
p84
aVFELIX-5812
p85
aVFELIX-5811
p86
aVFELIX-5810
p87
aVFELIX-5809
p88
aVFELIX-5808
p89
aVFELIX-5807
p90
aVFELIX-5806
p91
aVFELIX-5805
p92
aVFELIX-5804
p93
aVFELIX-5803
p94
aVFELIX-5802
p95
aVFELIX-5801
p96
aVFELIX-5800
p97
aVFELIX-5799
p98
aVFELIX-5798
p99
aVFELIX-5797
p100
aVFELIX-5796
p101
aVFELIX-5795
p102
aVFELIX-5794
p103
aVFELIX-5793
p104
aVFELIX-5792
p105
aVFELIX-5791
p106
aVFELIX-5790
p107
aVFELIX-5789
p108
aVFELIX-5788
p109
aVFELIX-5787
p110
aVFELIX-5786
p111
aVFELIX-5785
p112
aVFELIX-5784
p113
aVFELIX-5783
p114
aVFELIX-5782
p115
aVFELIX-5781
p116
aVFELIX-5780
p117
aVFELIX-5779
p118
aVFELIX-5778
p119
aVFELIX-5777
p120
aVFELIX-5776
p121
aVFELIX-5775
p122
aVFELIX-5774
p123
aVFELIX-5773
p124
aVFELIX-5772
p125
aVFELIX-5771
p126
aVFELIX-5770
p127
aVFELIX-5769
p128
aVFELIX-5768
p129
aVFELIX-5767
p130
aVFELIX-5766
p131
aVFELIX-5765
p132
aVFELIX-5764
p133
aVFELIX-5763
p134
aVFELIX-5762
p135
aVFELIX-5761
p136
aVFELIX-5760
p137
aVFELIX-5759
p138
aVFELIX-5758
p139
aVFELIX-5757
p140
aVFELIX-5756
p141
aVFELIX-5755
p142
aVFELIX-5754
p143
aVFELIX-5753
p144
aVFELIX-5752
p145
aVFELIX-5751
p146
aVFELIX-5750
p147
aVFELIX-5749
p148
aVFELIX-5748
p149
aVFELIX-5747
p150
aVFELIX-5746
p151
aVFELIX-5745
p152
aVFELIX-5744
p153
aVFELIX-5743
p154
aVFELIX-5742
p155
aVFELIX-5741
p156
aVFELIX-5740
p157
aVFELIX-5739
p158
aVFELIX-5738
p159
aVFELIX-5737
p160
aVFELIX-5736
p161
aVFELIX-5735
p162
aVFELIX-5734
p163
aVFELIX-5733
p164
aVFELIX-5732
p165
aVFELIX-5731
p166
aVFELIX-5730
p167
aVFELIX-5729
p168
aVFELIX-5728
p169
aVFELIX-5727
p170
aVFELIX-5726
p171
aVFELIX-5725
p172
aVFELIX-5724
p173
aVFELIX-5723
p174
aVFELIX-5722
p175
aVFELIX-5721
p176
aVFELIX-5720
p177
aVFELIX-5719
p178
aVFELIX-5718
p179
aVFELIX-5717
p180
aVFELIX-5716
p181
aVFELIX-5715
p182
aVFELIX-5714
p183
aVFELIX-5713
p184
aVFELIX-5712
p185
aVFELIX-5711
p186
aVFELIX-5710
p187
aVFELIX-5709
p188
aVFELIX-5708
p189
aVFELIX-5707
p190
aVFELIX-5706
p191
aVFELIX-5705
p192
aVFELIX-5704
p193
aVFELIX-5703
p194
aVFELIX-5702
p195
aVFELIX-5701
p196
aVFELIX-5700
p197
aVFELIX-5699
p198
aVFELIX-5698
p199
aVFELIX-5697
p200
aVFELIX-5696
p201
aVFELIX-5695
p202
aVFELIX-5694
p203
aVFELIX-5693
p204
aVFELIX-5692
p205
aVFELIX-5691
p206
aVFELIX-5690
p207
aVFELIX-5689
p208
aVFELIX-5688
p209
aVFELIX-5687
p210
aVFELIX-5686
p211
aVFELIX-5685
p212
aVFELIX-5684
p213
aVFELIX-5683
p214
aVFELIX-5682
p215
aVFELIX-5681
p216
aVFELIX-5680
p217
aVFELIX-5679
p218
aVFELIX-5678
p219
aVFELIX-5677
p220
aVFELIX-5676
p221
aVFELIX-5675
p222
aVFELIX-5674
p223
aVFELIX-5673
p224
aVFELIX-5672
p225
aVFELIX-5671
p226
aVFELIX-5670
p227
aVFELIX-5669
p228
aVFELIX-5668
p229
aVFELIX-5667
p230
aVFELIX-5666
p231
aVFELIX-5665
p232
aVFELIX-5664
p233
aVFELIX-5663
p234
aVFELIX-5662
p235
aVFELIX-5661
p236
aVFELIX-5660
p237
aVFELIX-5659
p238
aVFELIX-5658
p239
aVFELIX-5657
p240
aVFELIX-5656
p241
aVFELIX-5655
p242
aVFELIX-5654
p243
aVFELIX-5653
p244
aVFELIX-5652
p245
aVFELIX-5651
p246
aVFELIX-5650
p247
aVFELIX-5649
p248
aVFELIX-5648
p249
aVFELIX-5647
p250
aVFELIX-5646
p251
aVFELIX-5645
p252
aVFELIX-5644
p253
aVFELIX-5643
p254
aVFELIX-5642
p255
aVFELIX-5641
p256
aVFELIX-5640
p257
aVFELIX-5639
p258
aVFELIX-5638
p259
aVFELIX-5637
p260
aVFELIX-5636
p261
aVFELIX-5635
p262
aVFELIX-5634
p263
aVFELIX-5633
p264
aVFELIX-5632
p265
aVFELIX-5631
p266
aVFELIX-5630
p267
aVFELIX-5629
p268
aVFELIX-5628
p269
aVFELIX-5627
p270
aVFELIX-5626
p271
aVFELIX-5625
p272
aVFELIX-5624
p273
aVFELIX-5623
p274
aVFELIX-5622
p275
aVFELIX-5621
p276
aVFELIX-5620
p277
aVFELIX-5619
p278
aVFELIX-5618
p279
aVFELIX-5617
p280
aVFELIX-5616
p281
aVFELIX-5615
p282
aVFELIX-5614
p283
aVFELIX-5613
p284
aVFELIX-5612
p285
aVFELIX-5611
p286
aVFELIX-5610
p287
aVFELIX-5609
p288
aVFELIX-5608
p289
aVFELIX-5607
p290
aVFELIX-5606
p291
aVFELIX-5605
p292
aVFELIX-5604
p293
aVFELIX-5603
p294
aVFELIX-5602
p295
aVFELIX-5601
p296
aVFELIX-5600
p297
aVFELIX-5599
p298
aVFELIX-5598
p299
aVFELIX-5597
p300
aVFELIX-5596
p301
aVFELIX-5595
p302
aVFELIX-5594
p303
aVFELIX-5593
p304
aVFELIX-5592
p305
aVFELIX-5591
p306
aVFELIX-5590
p307
aVFELIX-5589
p308
aVFELIX-5588
p309
aVFELIX-5587
p310
aVFELIX-5586
p311
aVFELIX-5585
p312
aVFELIX-5584
p313
aVFELIX-5583
p314
aVFELIX-5582
p315
aVFELIX-5581
p316
aVFELIX-5580
p317
aVFELIX-5579
p318
aVFELIX-5578
p319
aVFELIX-5577
p320
aVFELIX-5576
p321
aVFELIX-5575
p322
aVFELIX-5574
p323
aVFELIX-5573
p324
aVFELIX-5572
p325
aVFELIX-5571
p326
aVFELIX-5570
p327
aVFELIX-5569
p328
aVFELIX-5568
p329
aVFELIX-5567
p330
aVFELIX-5566
p331
aVFELIX-5565
p332
aVFELIX-5564
p333
aVFELIX-5563
p334
aVFELIX-5562
p335
aVFELIX-5561
p336
aVFELIX-5560
p337
aVFELIX-5559
p338
aVFELIX-5558
p339
aVFELIX-5557
p340
aVFELIX-5556
p341
aVFELIX-5555
p342
aVFELIX-5554
p343
aVFELIX-5553
p344
aVFELIX-5552
p345
aVFELIX-5551
p346
aVFELIX-5550
p347
aVFELIX-5549
p348
aVFELIX-5548
p349
aVFELIX-5547
p350
aVFELIX-5546
p351
aVFELIX-5545
p352
aVFELIX-5544
p353
aVFELIX-5543
p354
aVFELIX-5542
p355
aVFELIX-5541
p356
aVFELIX-5540
p357
aVFELIX-5539
p358
aVFELIX-5538
p359
aVFELIX-5537
p360
aVFELIX-5536
p361
aVFELIX-5535
p362
aVFELIX-5534
p363
aVFELIX-5533
p364
aVFELIX-5532
p365
aVFELIX-5531
p366
aVFELIX-5530
p367
aVFELIX-5529
p368
aVFELIX-5528
p369
aVFELIX-5527
p370
aVFELIX-5526
p371
aVFELIX-5525
p372
aVFELIX-5524
p373
aVFELIX-5523
p374
aVFELIX-5522
p375
aVFELIX-5521
p376
aVFELIX-5520
p377
aVFELIX-5519
p378
aVFELIX-5518
p379
aVFELIX-5517
p380
aVFELIX-5516
p381
aVFELIX-5515
p382
aVFELIX-5514
p383
aVFELIX-5513
p384
aVFELIX-5512
p385
aVFELIX-5511
p386
aVFELIX-5510
p387
aVFELIX-5509
p388
aVFELIX-5508
p389
aVFELIX-5507
p390
aVFELIX-5506
p391
aVFELIX-5505
p392
aVFELIX-5504
p393
aVFELIX-5503
p394
aVFELIX-5502
p395
aVFELIX-5501
p396
aVFELIX-5500
p397
aVFELIX-5499
p398
aVFELIX-5498
p399
aVFELIX-5497
p400
aVFELIX-5496
p401
aVFELIX-5495
p402
aVFELIX-5494
p403
aVFELIX-5493
p404
aVFELIX-5492
p405
aVFELIX-5491
p406
aVFELIX-5490
p407
aVFELIX-5489
p408
aVFELIX-5488
p409
aVFELIX-5487
p410
aVFELIX-5486
p411
aVFELIX-5485
p412
aVFELIX-5484
p413
aVFELIX-5483
p414
aVFELIX-5482
p415
aVFELIX-5481
p416
aVFELIX-5480
p417
aVFELIX-5479
p418
aVFELIX-5478
p419
aVFELIX-5477
p420
aVFELIX-5476
p421
aVFELIX-5475
p422
aVFELIX-5474
p423
aVFELIX-5473
p424
aVFELIX-5472
p425
aVFELIX-5471
p426
aVFELIX-5470
p427
aVFELIX-5469
p428
aVFELIX-5468
p429
aVFELIX-5467
p430
aVFELIX-5466
p431
aVFELIX-5465
p432
aVFELIX-5464
p433
aVFELIX-5463
p434
aVFELIX-5462
p435
aVFELIX-5461
p436
aVFELIX-5460
p437
aVFELIX-5459
p438
aVFELIX-5458
p439
aVFELIX-5457
p440
aVFELIX-5456
p441
aVFELIX-5455
p442
aVFELIX-5454
p443
aVFELIX-5453
p444
aVFELIX-5452
p445
aVFELIX-5451
p446
aVFELIX-5450
p447
aVFELIX-5449
p448
aVFELIX-5448
p449
aVFELIX-5447
p450
aVFELIX-5446
p451
aVFELIX-5445
p452
aVFELIX-5444
p453
aVFELIX-5443
p454
aVFELIX-5442
p455
aVFELIX-5441
p456
aVFELIX-5440
p457
aVFELIX-5439
p458
aVFELIX-5438
p459
aVFELIX-5437
p460
aVFELIX-5436
p461
aVFELIX-5435
p462
aVFELIX-5434
p463
aVFELIX-5433
p464
aVFELIX-5432
p465
aVFELIX-5431
p466
aVFELIX-5430
p467
aVFELIX-5429
p468
aVFELIX-5428
p469
aVFELIX-5427
p470
aVFELIX-5426
p471
aVFELIX-5425
p472
aVFELIX-5424
p473
aVFELIX-5423
p474
aVFELIX-5422
p475
aVFELIX-5421
p476
aVFELIX-5420
p477
aVFELIX-5419
p478
aVFELIX-5418
p479
aVFELIX-5417
p480
aVFELIX-5416
p481
aVFELIX-5415
p482
aVFELIX-5414
p483
aVFELIX-5413
p484
aVFELIX-5412
p485
aVFELIX-5411
p486
aVFELIX-5410
p487
aVFELIX-5408
p488
aVFELIX-5407
p489
aVFELIX-5406
p490
aVFELIX-5405
p491
aVFELIX-5404
p492
aVFELIX-5403
p493
aVFELIX-5402
p494
aVFELIX-5401
p495
aVFELIX-5400
p496
aVFELIX-5399
p497
aVFELIX-5398
p498
aVFELIX-5397
p499
aVFELIX-5396
p500
aVFELIX-5395
p501
aVFELIX-5394
p502
aVFELIX-5393
p503
aVFELIX-5392
p504
aVFELIX-5391
p505
aVFELIX-5390
p506
aVFELIX-5389
p507
aVFELIX-5388
p508
aVFELIX-5387
p509
aVFELIX-5386
p510
aVFELIX-5385
p511
aVFELIX-5384
p512
aVFELIX-5383
p513
aVFELIX-5382
p514
aVFELIX-5381
p515
aVFELIX-5380
p516
aVFELIX-5379
p517
aVFELIX-5378
p518
aVFELIX-5377
p519
aVFELIX-5376
p520
aVFELIX-5375
p521
aVFELIX-5374
p522
aVFELIX-5373
p523
aVFELIX-5372
p524
aVFELIX-5371
p525
aVFELIX-5370
p526
aVFELIX-5369
p527
aVFELIX-5368
p528
aVFELIX-5367
p529
aVFELIX-5366
p530
aVFELIX-5365
p531
aVFELIX-5364
p532
aVFELIX-5363
p533
aVFELIX-5362
p534
aVFELIX-5361
p535
aVFELIX-5360
p536
aVFELIX-5359
p537
aVFELIX-5358
p538
aVFELIX-5357
p539
aVFELIX-5356
p540
aVFELIX-5355
p541
aVFELIX-5354
p542
aVFELIX-5353
p543
aVFELIX-5352
p544
aVFELIX-5351
p545
aVFELIX-5350
p546
aVFELIX-5349
p547
aVFELIX-5348
p548
aVFELIX-5347
p549
aVFELIX-5346
p550
aVFELIX-5345
p551
aVFELIX-5344
p552
aVFELIX-5343
p553
aVFELIX-5342
p554
aVFELIX-5341
p555
aVFELIX-5340
p556
aVFELIX-5339
p557
aVFELIX-5338
p558
aVFELIX-5337
p559
aVFELIX-5336
p560
aVFELIX-5335
p561
aVFELIX-5334
p562
aVFELIX-5333
p563
aVFELIX-5332
p564
aVFELIX-5331
p565
aVFELIX-5330
p566
aVFELIX-5329
p567
aVFELIX-5328
p568
aVFELIX-5327
p569
aVFELIX-5326
p570
aVFELIX-5325
p571
aVFELIX-5324
p572
aVFELIX-5323
p573
aVFELIX-5322
p574
aVFELIX-5321
p575
aVFELIX-5320
p576
aVFELIX-5319
p577
aVFELIX-5318
p578
aVFELIX-5317
p579
aVFELIX-5316
p580
aVFELIX-5315
p581
aVFELIX-5314
p582
aVFELIX-5313
p583
aVFELIX-5312
p584
aVFELIX-5311
p585
aVFELIX-5310
p586
aVFELIX-5309
p587
aVFELIX-5308
p588
aVFELIX-5307
p589
aVFELIX-5306
p590
aVFELIX-5305
p591
aVFELIX-5304
p592
aVFELIX-5303
p593
aVFELIX-5302
p594
aVFELIX-5301
p595
aVFELIX-5300
p596
aVFELIX-5299
p597
aVFELIX-5298
p598
aVFELIX-5297
p599
aVFELIX-5296
p600
aVFELIX-5294
p601
aVFELIX-5293
p602
aVFELIX-5292
p603
aVFELIX-5291
p604
aVFELIX-5290
p605
aVFELIX-5289
p606
aVFELIX-5288
p607
aVFELIX-5287
p608
aVFELIX-5286
p609
aVFELIX-5285
p610
aVFELIX-5284
p611
aVFELIX-5283
p612
aVFELIX-5282
p613
aVFELIX-5281
p614
aVFELIX-5280
p615
aVFELIX-5279
p616
aVFELIX-5278
p617
aVFELIX-5277
p618
aVFELIX-5276
p619
aVFELIX-5275
p620
aVFELIX-5274
p621
aVFELIX-5273
p622
aVFELIX-5272
p623
aVFELIX-5271
p624
aVFELIX-5270
p625
aVFELIX-5269
p626
aVFELIX-5268
p627
aVFELIX-5267
p628
aVFELIX-5266
p629
aVFELIX-5265
p630
aVFELIX-5264
p631
aVFELIX-5263
p632
aVFELIX-5262
p633
aVFELIX-5261
p634
aVFELIX-5260
p635
aVFELIX-5259
p636
aVFELIX-5258
p637
aVFELIX-5257
p638
aVFELIX-5256
p639
aVFELIX-5255
p640
aVFELIX-5254
p641
aVFELIX-5253
p642
aVFELIX-5252
p643
aVFELIX-5251
p644
aVFELIX-5250
p645
aVFELIX-5249
p646
aVFELIX-5248
p647
aVFELIX-5247
p648
aVFELIX-5246
p649
aVFELIX-5245
p650
aVFELIX-5244
p651
aVFELIX-5243
p652
aVFELIX-5242
p653
aVFELIX-5241
p654
aVFELIX-5240
p655
aVFELIX-5239
p656
aVFELIX-5238
p657
aVFELIX-5237
p658
aVFELIX-5236
p659
aVFELIX-5235
p660
aVFELIX-5234
p661
aVFELIX-5233
p662
aVFELIX-5232
p663
aVFELIX-5231
p664
aVFELIX-5230
p665
aVFELIX-5229
p666
aVFELIX-5228
p667
aVFELIX-5227
p668
aVFELIX-5226
p669
aVFELIX-5225
p670
aVFELIX-5224
p671
aVFELIX-5223
p672
aVFELIX-5222
p673
aVFELIX-5221
p674
aVFELIX-5220
p675
aVFELIX-5219
p676
aVFELIX-5218
p677
aVFELIX-5217
p678
aVFELIX-5215
p679
aVFELIX-5214
p680
aVFELIX-5213
p681
aVFELIX-5212
p682
aVFELIX-5211
p683
aVFELIX-5210
p684
aVFELIX-5209
p685
aVFELIX-5208
p686
aVFELIX-5207
p687
aVFELIX-5206
p688
aVFELIX-5205
p689
aVFELIX-5204
p690
aVFELIX-5203
p691
aVFELIX-5202
p692
aVFELIX-5201
p693
aVFELIX-5200
p694
aVFELIX-5199
p695
aVFELIX-5198
p696
aVFELIX-5197
p697
aVFELIX-5196
p698
aVFELIX-5195
p699
aVFELIX-5194
p700
aVFELIX-5193
p701
aVFELIX-5192
p702
aVFELIX-5191
p703
aVFELIX-5190
p704
aVFELIX-5189
p705
aVFELIX-5188
p706
aVFELIX-5187
p707
aVFELIX-5186
p708
aVFELIX-5185
p709
aVFELIX-5184
p710
aVFELIX-5183
p711
aVFELIX-5182
p712
aVFELIX-5181
p713
aVFELIX-5180
p714
aVFELIX-5179
p715
aVFELIX-5178
p716
aVFELIX-5177
p717
aVFELIX-5176
p718
aVFELIX-5175
p719
aVFELIX-5174
p720
aVFELIX-5173
p721
aVFELIX-5172
p722
aVFELIX-5171
p723
aVFELIX-5170
p724
aVFELIX-5169
p725
aVFELIX-5168
p726
aVFELIX-5167
p727
aVFELIX-5166
p728
aVFELIX-5165
p729
aVFELIX-5164
p730
aVFELIX-5163
p731
aVFELIX-5162
p732
aVFELIX-5161
p733
aVFELIX-5160
p734
aVFELIX-5159
p735
aVFELIX-5158
p736
aVFELIX-5157
p737
aVFELIX-5156
p738
aVFELIX-5155
p739
aVFELIX-5154
p740
aVFELIX-5153
p741
aVFELIX-5152
p742
aVFELIX-5151
p743
aVFELIX-5150
p744
aVFELIX-5149
p745
aVFELIX-5148
p746
aVFELIX-5147
p747
aVFELIX-5146
p748
aVFELIX-5145
p749
aVFELIX-5144
p750
aVFELIX-5143
p751
aVFELIX-5142
p752
aVFELIX-5141
p753
aVFELIX-5140
p754
aVFELIX-5139
p755
aVFELIX-5138
p756
aVFELIX-5137
p757
aVFELIX-5136
p758
aVFELIX-5135
p759
aVFELIX-5134
p760
aVFELIX-5133
p761
aVFELIX-5132
p762
aVFELIX-5131
p763
aVFELIX-5130
p764
aVFELIX-5129
p765
aVFELIX-5128
p766
aVFELIX-5127
p767
aVFELIX-5126
p768
aVFELIX-5125
p769
aVFELIX-5124
p770
aVFELIX-5123
p771
aVFELIX-5122
p772
aVFELIX-5121
p773
aVFELIX-5120
p774
aVFELIX-5119
p775
aVFELIX-5118
p776
aVFELIX-5117
p777
aVFELIX-5116
p778
aVFELIX-5115
p779
aVFELIX-5114
p780
aVFELIX-5113
p781
aVFELIX-5112
p782
aVFELIX-5111
p783
aVFELIX-5110
p784
aVFELIX-5109
p785
aVFELIX-5108
p786
aVFELIX-5107
p787
aVFELIX-5106
p788
aVFELIX-5105
p789
aVFELIX-5104
p790
aVFELIX-5103
p791
aVFELIX-5102
p792
aVFELIX-5101
p793
aVFELIX-5100
p794
aVFELIX-5099
p795
aVFELIX-5098
p796
aVFELIX-5097
p797
aVFELIX-5096
p798
aVFELIX-5095
p799
aVFELIX-5094
p800
aVFELIX-5093
p801
aVFELIX-5092
p802
aVFELIX-5091
p803
aVFELIX-5090
p804
aVFELIX-5089
p805
aVFELIX-5088
p806
aVFELIX-5087
p807
aVFELIX-5086
p808
aVFELIX-5085
p809
aVFELIX-5084
p810
aVFELIX-5083
p811
aVFELIX-5082
p812
aVFELIX-5081
p813
aVFELIX-5080
p814
aVFELIX-5079
p815
aVFELIX-5078
p816
aVFELIX-5077
p817
aVFELIX-5076
p818
aVFELIX-5075
p819
aVFELIX-5074
p820
aVFELIX-5073
p821
aVFELIX-5072
p822
aVFELIX-5071
p823
aVFELIX-5070
p824
aVFELIX-5069
p825
aVFELIX-5068
p826
aVFELIX-5067
p827
aVFELIX-5066
p828
aVFELIX-5065
p829
aVFELIX-5064
p830
aVFELIX-5063
p831
aVFELIX-5062
p832
aVFELIX-5061
p833
aVFELIX-5060
p834
aVFELIX-5059
p835
aVFELIX-5058
p836
aVFELIX-5057
p837
aVFELIX-5056
p838
aVFELIX-5055
p839
aVFELIX-5054
p840
aVFELIX-5053
p841
aVFELIX-5052
p842
aVFELIX-5051
p843
aVFELIX-5050
p844
aVFELIX-5049
p845
aVFELIX-5048
p846
aVFELIX-5047
p847
aVFELIX-5046
p848
aVFELIX-5045
p849
aVFELIX-5044
p850
aVFELIX-5043
p851
aVFELIX-5042
p852
aVFELIX-5041
p853
aVFELIX-5040
p854
aVFELIX-5039
p855
aVFELIX-5038
p856
aVFELIX-5037
p857
aVFELIX-5036
p858
aVFELIX-5034
p859
aVFELIX-5033
p860
aVFELIX-5032
p861
aVFELIX-5031
p862
aVFELIX-5030
p863
aVFELIX-5029
p864
aVFELIX-5028
p865
aVFELIX-5027
p866
aVFELIX-5026
p867
aVFELIX-5025
p868
aVFELIX-5024
p869
aVFELIX-5023
p870
aVFELIX-5022
p871
aVFELIX-5021
p872
aVFELIX-5020
p873
aVFELIX-5019
p874
aVFELIX-5018
p875
aVFELIX-5017
p876
aVFELIX-5016
p877
aVFELIX-5015
p878
aVFELIX-5014
p879
aVFELIX-5013
p880
aVFELIX-5012
p881
aVFELIX-5011
p882
aVFELIX-5010
p883
aVFELIX-5009
p884
aVFELIX-5008
p885
aVFELIX-5007
p886
aVFELIX-5006
p887
aVFELIX-5005
p888
aVFELIX-5004
p889
aVFELIX-5003
p890
aVFELIX-5002
p891
aVFELIX-5001
p892
aVFELIX-5000
p893
aVFELIX-4999
p894
aVFELIX-4998
p895
aVFELIX-4997
p896
aVFELIX-4996
p897
aVFELIX-4995
p898
aVFELIX-4994
p899
aVFELIX-4993
p900
aVFELIX-4992
p901
aVFELIX-4991
p902
aVFELIX-4990
p903
aVFELIX-4989
p904
aVFELIX-4988
p905
aVFELIX-4987
p906
aVFELIX-4986
p907
aVFELIX-4985
p908
aVFELIX-4984
p909
aVFELIX-4983
p910
aVFELIX-4982
p911
aVFELIX-4981
p912
aVFELIX-4980
p913
aVFELIX-4979
p914
aVFELIX-4978
p915
aVFELIX-4977
p916
aVFELIX-4976
p917
aVFELIX-4975
p918
aVFELIX-4974
p919
aVFELIX-4973
p920
aVFELIX-4972
p921
aVFELIX-4971
p922
aVFELIX-4970
p923
aVFELIX-4969
p924
aVFELIX-4968
p925
aVFELIX-4967
p926
aVFELIX-4966
p927
aVFELIX-4965
p928
aVFELIX-4964
p929
aVFELIX-4963
p930
aVFELIX-4962
p931
aVFELIX-4961
p932
aVFELIX-4960
p933
aVFELIX-4959
p934
aVFELIX-4958
p935
aVFELIX-4957
p936
aVFELIX-4956
p937
aVFELIX-4955
p938
aVFELIX-4954
p939
aVFELIX-4953
p940
aVFELIX-4952
p941
aVFELIX-4951
p942
aVFELIX-4950
p943
aVFELIX-4949
p944
aVFELIX-4948
p945
aVFELIX-4947
p946
aVFELIX-4946
p947
aVFELIX-4945
p948
aVFELIX-4944
p949
aVFELIX-4943
p950
aVFELIX-4942
p951
aVFELIX-4941
p952
aVFELIX-4940
p953
aVFELIX-4939
p954
aVFELIX-4938
p955
aVFELIX-4937
p956
aVFELIX-4936
p957
aVFELIX-4935
p958
aVFELIX-4934
p959
aVFELIX-4933
p960
aVFELIX-4932
p961
aVFELIX-4931
p962
aVFELIX-4930
p963
aVFELIX-4929
p964
aVFELIX-4928
p965
aVFELIX-4927
p966
aVFELIX-4926
p967
aVFELIX-4925
p968
aVFELIX-4924
p969
aVFELIX-4923
p970
aVFELIX-4922
p971
aVFELIX-4921
p972
aVFELIX-4920
p973
aVFELIX-4919
p974
aVFELIX-4918
p975
aVFELIX-4917
p976
aVFELIX-4916
p977
aVFELIX-4915
p978
aVFELIX-4914
p979
aVFELIX-4913
p980
aVFELIX-4912
p981
aVFELIX-4911
p982
aVFELIX-4910
p983
aVFELIX-4909
p984
aVFELIX-4908
p985
aVFELIX-4907
p986
aVFELIX-4906
p987
aVFELIX-4905
p988
aVFELIX-4904
p989
aVFELIX-4903
p990
aVFELIX-4902
p991
aVFELIX-4901
p992
aVFELIX-4900
p993
aVFELIX-4899
p994
aVFELIX-4898
p995
aVFELIX-4897
p996
aVFELIX-4896
p997
aVFELIX-4895
p998
aVFELIX-4894
p999
aVFELIX-4893
p1000
aVFELIX-4892
p1001
aVFELIX-4891
p1002
aVFELIX-4890
p1003
aVFELIX-4889
p1004
aVFELIX-4888
p1005
aVFELIX-4887
p1006
aVFELIX-4886
p1007
aVFELIX-4885
p1008
aVFELIX-4884
p1009
aVFELIX-4883
p1010
aVFELIX-4882
p1011
aVFELIX-4881
p1012
aVFELIX-4880
p1013
aVFELIX-4878
p1014
aVFELIX-4877
p1015
aVFELIX-4876
p1016
aVFELIX-4875
p1017
aVFELIX-4874
p1018
aVFELIX-4873
p1019
aVFELIX-4872
p1020
aVFELIX-4871
p1021
aVFELIX-4870
p1022
aVFELIX-4869
p1023
aVFELIX-4868
p1024
aVFELIX-4867
p1025
aVFELIX-4866
p1026
aVFELIX-4865
p1027
aVFELIX-4864
p1028
aVFELIX-4863
p1029
aVFELIX-4862
p1030
aVFELIX-4861
p1031
aVFELIX-4860
p1032
aVFELIX-4859
p1033
aVFELIX-4858
p1034
aVFELIX-4857
p1035
aVFELIX-4856
p1036
aVFELIX-4855
p1037
aVFELIX-4854
p1038
aVFELIX-4853
p1039
aVFELIX-4852
p1040
aVFELIX-4851
p1041
aVFELIX-4850
p1042
aVFELIX-4849
p1043
aVFELIX-4848
p1044
aVFELIX-4847
p1045
aVFELIX-4846
p1046
aVFELIX-4845
p1047
aVFELIX-4844
p1048
aVFELIX-4843
p1049
aVFELIX-4842
p1050
aVFELIX-4841
p1051
aVFELIX-4840
p1052
aVFELIX-4839
p1053
aVFELIX-4838
p1054
aVFELIX-4837
p1055
aVFELIX-4836
p1056
aVFELIX-4835
p1057
aVFELIX-4834
p1058
aVFELIX-4833
p1059
aVFELIX-4832
p1060
aVFELIX-4831
p1061
aVFELIX-4830
p1062
aVFELIX-4829
p1063
aVFELIX-4828
p1064
aVFELIX-4827
p1065
aVFELIX-4826
p1066
aVFELIX-4825
p1067
aVFELIX-4824
p1068
aVFELIX-4823
p1069
aVFELIX-4822
p1070
aVFELIX-4821
p1071
aVFELIX-4820
p1072
aVFELIX-4819
p1073
aVFELIX-4818
p1074
aVFELIX-4817
p1075
aVFELIX-4816
p1076
aVFELIX-4814
p1077
aVFELIX-4813
p1078
aVFELIX-4812
p1079
aVFELIX-4811
p1080
aVFELIX-4810
p1081
aVFELIX-4809
p1082
aVFELIX-4808
p1083
aVFELIX-4807
p1084
aVFELIX-4806
p1085
aVFELIX-4805
p1086
aVFELIX-4804
p1087
aVFELIX-4803
p1088
aVFELIX-4802
p1089
aVFELIX-4801
p1090
aVFELIX-4800
p1091
aVFELIX-4799
p1092
aVFELIX-4798
p1093
aVFELIX-4797
p1094
aVFELIX-4796
p1095
aVFELIX-4795
p1096
aVFELIX-4794
p1097
aVFELIX-4793
p1098
aVFELIX-4792
p1099
aVFELIX-4791
p1100
aVFELIX-4790
p1101
aVFELIX-4789
p1102
aVFELIX-4788
p1103
aVFELIX-4787
p1104
aVFELIX-4786
p1105
aVFELIX-4785
p1106
aVFELIX-4784
p1107
aVFELIX-4783
p1108
aVFELIX-4782
p1109
aVFELIX-4781
p1110
aVFELIX-4780
p1111
aVFELIX-4779
p1112
aVFELIX-4778
p1113
aVFELIX-4777
p1114
aVFELIX-4776
p1115
aVFELIX-4775
p1116
aVFELIX-4774
p1117
aVFELIX-4773
p1118
aVFELIX-4772
p1119
aVFELIX-4771
p1120
aVFELIX-4770
p1121
aVFELIX-4769
p1122
aVFELIX-4768
p1123
aVFELIX-4767
p1124
aVFELIX-4766
p1125
aVFELIX-4765
p1126
aVFELIX-4764
p1127
aVFELIX-4763
p1128
aVFELIX-4762
p1129
aVFELIX-4761
p1130
aVFELIX-4760
p1131
aVFELIX-4759
p1132
aVFELIX-4758
p1133
aVFELIX-4757
p1134
aVFELIX-4756
p1135
aVFELIX-4755
p1136
aVFELIX-4754
p1137
aVFELIX-4753
p1138
aVFELIX-4752
p1139
aVFELIX-4751
p1140
aVFELIX-4750
p1141
aVFELIX-4749
p1142
aVFELIX-4748
p1143
aVFELIX-4747
p1144
aVFELIX-4746
p1145
aVFELIX-4745
p1146
aVFELIX-4744
p1147
aVFELIX-4743
p1148
aVFELIX-4742
p1149
aVFELIX-4741
p1150
aVFELIX-4740
p1151
aVFELIX-4739
p1152
aVFELIX-4738
p1153
aVFELIX-4737
p1154
aVFELIX-4736
p1155
aVFELIX-4735
p1156
aVFELIX-4734
p1157
aVFELIX-4733
p1158
aVFELIX-4732
p1159
aVFELIX-4731
p1160
aVFELIX-4730
p1161
aVFELIX-4729
p1162
aVFELIX-4728
p1163
aVFELIX-4727
p1164
aVFELIX-4726
p1165
aVFELIX-4725
p1166
aVFELIX-4724
p1167
aVFELIX-4723
p1168
aVFELIX-4722
p1169
aVFELIX-4721
p1170
aVFELIX-4720
p1171
aVFELIX-4719
p1172
aVFELIX-4718
p1173
aVFELIX-4717
p1174
aVFELIX-4716
p1175
aVFELIX-4715
p1176
aVFELIX-4714
p1177
aVFELIX-4713
p1178
aVFELIX-4712
p1179
aVFELIX-4711
p1180
aVFELIX-4710
p1181
aVFELIX-4709
p1182
aVFELIX-4708
p1183
aVFELIX-4707
p1184
aVFELIX-4706
p1185
aVFELIX-4705
p1186
aVFELIX-4704
p1187
aVFELIX-4703
p1188
aVFELIX-4702
p1189
aVFELIX-4701
p1190
aVFELIX-4700
p1191
aVFELIX-4699
p1192
aVFELIX-4698
p1193
aVFELIX-4697
p1194
aVFELIX-4696
p1195
aVFELIX-4695
p1196
aVFELIX-4694
p1197
aVFELIX-4693
p1198
aVFELIX-4692
p1199
aVFELIX-4691
p1200
aVFELIX-4690
p1201
aVFELIX-4689
p1202
aVFELIX-4688
p1203
aVFELIX-4687
p1204
aVFELIX-4686
p1205
aVFELIX-4685
p1206
aVFELIX-4684
p1207
aVFELIX-4683
p1208
aVFELIX-4682
p1209
aVFELIX-4681
p1210
aVFELIX-4680
p1211
aVFELIX-4679
p1212
aVFELIX-4678
p1213
aVFELIX-4677
p1214
aVFELIX-4676
p1215
aVFELIX-4675
p1216
aVFELIX-4674
p1217
aVFELIX-4673
p1218
aVFELIX-4672
p1219
aVFELIX-4671
p1220
aVFELIX-4670
p1221
aVFELIX-4669
p1222
aVFELIX-4668
p1223
aVFELIX-4667
p1224
aVFELIX-4666
p1225
aVFELIX-4665
p1226
aVFELIX-4664
p1227
aVFELIX-4663
p1228
aVFELIX-4662
p1229
aVFELIX-4661
p1230
aVFELIX-4660
p1231
aVFELIX-4659
p1232
aVFELIX-4658
p1233
aVFELIX-4657
p1234
aVFELIX-4656
p1235
aVFELIX-4655
p1236
aVFELIX-4654
p1237
aVFELIX-4653
p1238
aVFELIX-4652
p1239
aVFELIX-4651
p1240
aVFELIX-4650
p1241
aVFELIX-4649
p1242
aVFELIX-4648
p1243
aVFELIX-4647
p1244
aVFELIX-4646
p1245
aVFELIX-4645
p1246
aVFELIX-4644
p1247
aVFELIX-4643
p1248
aVFELIX-4642
p1249
aVFELIX-4641
p1250
aVFELIX-4640
p1251
aVFELIX-4639
p1252
aVFELIX-4638
p1253
aVFELIX-4637
p1254
aVFELIX-4636
p1255
aVFELIX-4635
p1256
aVFELIX-4634
p1257
aVFELIX-4633
p1258
aVFELIX-4632
p1259
aVFELIX-4631
p1260
aVFELIX-4630
p1261
aVFELIX-4629
p1262
aVFELIX-4628
p1263
aVFELIX-4627
p1264
aVFELIX-4626
p1265
aVFELIX-4625
p1266
aVFELIX-4624
p1267
aVFELIX-4623
p1268
aVFELIX-4622
p1269
aVFELIX-4621
p1270
aVFELIX-4620
p1271
aVFELIX-4619
p1272
aVFELIX-4618
p1273
aVFELIX-4617
p1274
aVFELIX-4616
p1275
aVFELIX-4615
p1276
aVFELIX-4614
p1277
aVFELIX-4613
p1278
aVFELIX-4612
p1279
aVFELIX-4611
p1280
aVFELIX-4610
p1281
aVFELIX-4609
p1282
aVFELIX-4608
p1283
aVFELIX-4607
p1284
aVFELIX-4606
p1285
aVFELIX-4605
p1286
aVFELIX-4604
p1287
aVFELIX-4603
p1288
aVFELIX-4602
p1289
aVFELIX-4601
p1290
aVFELIX-4600
p1291
aVFELIX-4599
p1292
aVFELIX-4598
p1293
aVFELIX-4597
p1294
aVFELIX-4596
p1295
aVFELIX-4595
p1296
aVFELIX-4594
p1297
aVFELIX-4593
p1298
aVFELIX-4592
p1299
aVFELIX-4591
p1300
aVFELIX-4590
p1301
aVFELIX-4589
p1302
aVFELIX-4588
p1303
aVFELIX-4587
p1304
aVFELIX-4586
p1305
aVFELIX-4585
p1306
aVFELIX-4584
p1307
aVFELIX-4583
p1308
aVFELIX-4582
p1309
aVFELIX-4581
p1310
aVFELIX-4580
p1311
aVFELIX-4579
p1312
aVFELIX-4578
p1313
aVFELIX-4577
p1314
aVFELIX-4576
p1315
aVFELIX-4575
p1316
aVFELIX-4574
p1317
aVFELIX-4573
p1318
aVFELIX-4572
p1319
aVFELIX-4571
p1320
aVFELIX-4570
p1321
aVFELIX-4569
p1322
aVFELIX-4568
p1323
aVFELIX-4567
p1324
aVFELIX-4566
p1325
aVFELIX-4565
p1326
aVFELIX-4564
p1327
aVFELIX-4563
p1328
aVFELIX-4562
p1329
aVFELIX-4561
p1330
aVFELIX-4560
p1331
aVFELIX-4559
p1332
aVFELIX-4558
p1333
aVFELIX-4557
p1334
aVFELIX-4556
p1335
aVFELIX-4555
p1336
aVFELIX-4554
p1337
aVFELIX-4553
p1338
aVFELIX-4552
p1339
aVFELIX-4551
p1340
aVFELIX-4550
p1341
aVFELIX-4549
p1342
aVFELIX-4548
p1343
aVFELIX-4547
p1344
aVFELIX-4546
p1345
aVFELIX-4545
p1346
aVFELIX-4544
p1347
aVFELIX-4543
p1348
aVFELIX-4542
p1349
aVFELIX-4541
p1350
aVFELIX-4540
p1351
aVFELIX-4539
p1352
aVFELIX-4538
p1353
aVFELIX-4537
p1354
aVFELIX-4536
p1355
aVFELIX-4535
p1356
aVFELIX-4534
p1357
aVFELIX-4533
p1358
aVFELIX-4532
p1359
aVFELIX-4531
p1360
aVFELIX-4530
p1361
aVFELIX-4529
p1362
aVFELIX-4528
p1363
aVFELIX-4527
p1364
aVFELIX-4526
p1365
aVFELIX-4525
p1366
aVFELIX-4524
p1367
aVFELIX-4523
p1368
aVFELIX-4522
p1369
aVFELIX-4521
p1370
aVFELIX-4520
p1371
aVFELIX-4519
p1372
aVFELIX-4518
p1373
aVFELIX-4517
p1374
aVFELIX-4516
p1375
aVFELIX-4515
p1376
aVFELIX-4514
p1377
aVFELIX-4513
p1378
aVFELIX-4512
p1379
aVFELIX-4511
p1380
aVFELIX-4510
p1381
aVFELIX-4509
p1382
aVFELIX-4508
p1383
aVFELIX-4507
p1384
aVFELIX-4506
p1385
aVFELIX-4505
p1386
aVFELIX-4504
p1387
aVFELIX-4503
p1388
aVFELIX-4502
p1389
aVFELIX-4501
p1390
aVFELIX-4500
p1391
aVFELIX-4499
p1392
aVFELIX-4498
p1393
aVFELIX-4497
p1394
aVFELIX-4496
p1395
aVFELIX-4495
p1396
aVFELIX-4494
p1397
aVFELIX-4493
p1398
aVFELIX-4492
p1399
aVFELIX-4491
p1400
aVFELIX-4490
p1401
aVFELIX-4489
p1402
aVFELIX-4488
p1403
aVFELIX-4487
p1404
aVFELIX-4486
p1405
aVFELIX-4485
p1406
aVFELIX-4484
p1407
aVFELIX-4483
p1408
aVFELIX-4482
p1409
aVFELIX-4481
p1410
aVFELIX-4480
p1411
aVFELIX-4479
p1412
aVFELIX-4478
p1413
aVFELIX-4477
p1414
aVFELIX-4476
p1415
aVFELIX-4475
p1416
aVFELIX-4474
p1417
aVFELIX-4473
p1418
aVFELIX-4472
p1419
aVFELIX-4471
p1420
aVFELIX-4470
p1421
aVFELIX-4469
p1422
aVFELIX-4468
p1423
aVFELIX-4467
p1424
aVFELIX-4466
p1425
aVFELIX-4465
p1426
aVFELIX-4464
p1427
aVFELIX-4463
p1428
aVFELIX-4462
p1429
aVFELIX-4461
p1430
aVFELIX-4460
p1431
aVFELIX-4459
p1432
aVFELIX-4458
p1433
aVFELIX-4457
p1434
aVFELIX-4456
p1435
aVFELIX-4455
p1436
aVFELIX-4454
p1437
aVFELIX-4453
p1438
aVFELIX-4452
p1439
aVFELIX-4451
p1440
aVFELIX-4450
p1441
aVFELIX-4449
p1442
aVFELIX-4448
p1443
aVFELIX-4447
p1444
aVFELIX-4446
p1445
aVFELIX-4445
p1446
aVFELIX-4444
p1447
aVFELIX-4443
p1448
aVFELIX-4442
p1449
aVFELIX-4441
p1450
aVFELIX-4440
p1451
aVFELIX-4439
p1452
aVFELIX-4438
p1453
aVFELIX-4437
p1454
aVFELIX-4436
p1455
aVFELIX-4435
p1456
aVFELIX-4434
p1457
aVFELIX-4433
p1458
aVFELIX-4432
p1459
aVFELIX-4431
p1460
aVFELIX-4430
p1461
aVFELIX-4429
p1462
aVFELIX-4428
p1463
aVFELIX-4427
p1464
aVFELIX-4426
p1465
aVFELIX-4425
p1466
aVFELIX-4424
p1467
aVFELIX-4423
p1468
aVFELIX-4422
p1469
aVFELIX-4421
p1470
aVFELIX-4420
p1471
aVFELIX-4419
p1472
aVFELIX-4418
p1473
aVFELIX-4417
p1474
aVFELIX-4416
p1475
aVFELIX-4415
p1476
aVFELIX-4414
p1477
aVFELIX-4413
p1478
aVFELIX-4412
p1479
aVFELIX-4411
p1480
aVFELIX-4410
p1481
aVFELIX-4409
p1482
aVFELIX-4408
p1483
aVFELIX-4407
p1484
aVFELIX-4406
p1485
aVFELIX-4405
p1486
aVFELIX-4404
p1487
aVFELIX-4403
p1488
aVFELIX-4402
p1489
aVFELIX-4401
p1490
aVFELIX-4400
p1491
aVFELIX-4399
p1492
aVFELIX-4398
p1493
aVFELIX-4397
p1494
aVFELIX-4396
p1495
aVFELIX-4395
p1496
aVFELIX-4394
p1497
aVFELIX-4393
p1498
aVFELIX-4392
p1499
aVFELIX-4391
p1500
aVFELIX-4390
p1501
aVFELIX-4389
p1502
aVFELIX-4388
p1503
aVFELIX-4387
p1504
aVFELIX-4386
p1505
aVFELIX-4385
p1506
aVFELIX-4384
p1507
aVFELIX-4383
p1508
aVFELIX-4382
p1509
aVFELIX-4381
p1510
aVFELIX-4380
p1511
aVFELIX-4379
p1512
aVFELIX-4378
p1513
aVFELIX-4377
p1514
aVFELIX-4376
p1515
aVFELIX-4375
p1516
aVFELIX-4374
p1517
aVFELIX-4373
p1518
aVFELIX-4372
p1519
aVFELIX-4371
p1520
aVFELIX-4370
p1521
aVFELIX-4369
p1522
aVFELIX-4368
p1523
aVFELIX-4367
p1524
aVFELIX-4366
p1525
aVFELIX-4365
p1526
aVFELIX-4364
p1527
aVFELIX-4363
p1528
aVFELIX-4362
p1529
aVFELIX-4361
p1530
aVFELIX-4360
p1531
aVFELIX-4359
p1532
aVFELIX-4358
p1533
aVFELIX-4357
p1534
aVFELIX-4356
p1535
aVFELIX-4355
p1536
aVFELIX-4354
p1537
aVFELIX-4353
p1538
aVFELIX-4352
p1539
aVFELIX-4351
p1540
aVFELIX-4350
p1541
aVFELIX-4349
p1542
aVFELIX-4348
p1543
aVFELIX-4347
p1544
aVFELIX-4346
p1545
aVFELIX-4345
p1546
aVFELIX-4344
p1547
aVFELIX-4343
p1548
aVFELIX-4342
p1549
aVFELIX-4341
p1550
aVFELIX-4340
p1551
aVFELIX-4339
p1552
aVFELIX-4338
p1553
aVFELIX-4337
p1554
aVFELIX-4336
p1555
aVFELIX-4335
p1556
aVFELIX-4334
p1557
aVFELIX-4333
p1558
aVFELIX-4332
p1559
aVFELIX-4331
p1560
aVFELIX-4330
p1561
aVFELIX-4329
p1562
aVFELIX-4328
p1563
aVFELIX-4327
p1564
aVFELIX-4326
p1565
aVFELIX-4325
p1566
aVFELIX-4324
p1567
aVFELIX-4323
p1568
aVFELIX-4322
p1569
aVFELIX-4321
p1570
aVFELIX-4320
p1571
aVFELIX-4319
p1572
aVFELIX-4318
p1573
aVFELIX-4317
p1574
aVFELIX-4316
p1575
aVFELIX-4315
p1576
aVFELIX-4314
p1577
aVFELIX-4313
p1578
aVFELIX-4312
p1579
aVFELIX-4311
p1580
aVFELIX-4310
p1581
aVFELIX-4309
p1582
aVFELIX-4308
p1583
aVFELIX-4307
p1584
aVFELIX-4306
p1585
aVFELIX-4305
p1586
aVFELIX-4304
p1587
aVFELIX-4303
p1588
aVFELIX-4302
p1589
aVFELIX-4301
p1590
aVFELIX-4300
p1591
aVFELIX-4299
p1592
aVFELIX-4298
p1593
aVFELIX-4297
p1594
aVFELIX-4296
p1595
aVFELIX-4295
p1596
aVFELIX-4294
p1597
aVFELIX-4293
p1598
aVFELIX-4292
p1599
aVFELIX-4291
p1600
aVFELIX-4290
p1601
aVFELIX-4289
p1602
aVFELIX-4288
p1603
aVFELIX-4287
p1604
aVFELIX-4286
p1605
aVFELIX-4285
p1606
aVFELIX-4284
p1607
aVFELIX-4283
p1608
aVFELIX-4282
p1609
aVFELIX-4281
p1610
aVFELIX-4280
p1611
aVFELIX-4279
p1612
aVFELIX-4278
p1613
aVFELIX-4277
p1614
aVFELIX-4276
p1615
aVFELIX-4275
p1616
aVFELIX-4274
p1617
aVFELIX-4273
p1618
aVFELIX-4272
p1619
aVFELIX-4271
p1620
aVFELIX-4270
p1621
aVFELIX-4269
p1622
aVFELIX-4268
p1623
aVFELIX-4267
p1624
aVFELIX-4266
p1625
aVFELIX-4265
p1626
aVFELIX-4264
p1627
aVFELIX-4263
p1628
aVFELIX-4262
p1629
aVFELIX-4261
p1630
aVFELIX-4260
p1631
aVFELIX-4259
p1632
aVFELIX-4258
p1633
aVFELIX-4257
p1634
aVFELIX-4256
p1635
aVFELIX-4255
p1636
aVFELIX-4254
p1637
aVFELIX-4253
p1638
aVFELIX-4252
p1639
aVFELIX-4251
p1640
aVFELIX-4250
p1641
aVFELIX-4249
p1642
aVFELIX-4248
p1643
aVFELIX-4247
p1644
aVFELIX-4246
p1645
aVFELIX-4245
p1646
aVFELIX-4244
p1647
aVFELIX-4243
p1648
aVFELIX-4242
p1649
aVFELIX-4241
p1650
aVFELIX-4240
p1651
aVFELIX-4239
p1652
aVFELIX-4238
p1653
aVFELIX-4237
p1654
aVFELIX-4236
p1655
aVFELIX-4235
p1656
aVFELIX-4234
p1657
aVFELIX-4233
p1658
aVFELIX-4232
p1659
aVFELIX-4231
p1660
aVFELIX-4230
p1661
aVFELIX-4229
p1662
aVFELIX-4228
p1663
aVFELIX-4227
p1664
aVFELIX-4226
p1665
aVFELIX-4225
p1666
aVFELIX-4224
p1667
aVFELIX-4223
p1668
aVFELIX-4222
p1669
aVFELIX-4221
p1670
aVFELIX-4220
p1671
aVFELIX-4219
p1672
aVFELIX-4218
p1673
aVFELIX-4217
p1674
aVFELIX-4216
p1675
aVFELIX-4215
p1676
aVFELIX-4214
p1677
aVFELIX-4213
p1678
aVFELIX-4212
p1679
aVFELIX-4211
p1680
aVFELIX-4210
p1681
aVFELIX-4209
p1682
aVFELIX-4208
p1683
aVFELIX-4207
p1684
aVFELIX-4206
p1685
aVFELIX-4205
p1686
aVFELIX-4204
p1687
aVFELIX-4203
p1688
aVFELIX-4202
p1689
aVFELIX-4201
p1690
aVFELIX-4200
p1691
aVFELIX-4199
p1692
aVFELIX-4198
p1693
aVFELIX-4197
p1694
aVFELIX-4196
p1695
aVFELIX-4195
p1696
aVFELIX-4194
p1697
aVFELIX-4193
p1698
aVFELIX-4192
p1699
aVFELIX-4191
p1700
aVFELIX-4190
p1701
aVFELIX-4189
p1702
aVFELIX-4188
p1703
aVFELIX-4187
p1704
aVFELIX-4186
p1705
aVFELIX-4185
p1706
aVFELIX-4184
p1707
aVFELIX-4183
p1708
aVFELIX-4182
p1709
aVFELIX-4181
p1710
aVFELIX-4180
p1711
aVFELIX-4179
p1712
aVFELIX-4178
p1713
aVFELIX-4177
p1714
aVFELIX-4176
p1715
aVFELIX-4175
p1716
aVFELIX-4174
p1717
aVFELIX-4173
p1718
aVFELIX-4172
p1719
aVFELIX-4171
p1720
aVFELIX-4170
p1721
aVFELIX-4169
p1722
aVFELIX-4168
p1723
aVFELIX-4167
p1724
aVFELIX-4166
p1725
aVFELIX-4165
p1726
aVFELIX-4164
p1727
aVFELIX-4163
p1728
aVFELIX-4162
p1729
aVFELIX-4161
p1730
aVFELIX-4160
p1731
aVFELIX-4159
p1732
aVFELIX-4158
p1733
aVFELIX-4157
p1734
aVFELIX-4156
p1735
aVFELIX-4155
p1736
aVFELIX-4154
p1737
aVFELIX-4153
p1738
aVFELIX-4152
p1739
aVFELIX-4151
p1740
aVFELIX-4150
p1741
aVFELIX-4149
p1742
aVFELIX-4148
p1743
aVFELIX-4147
p1744
aVFELIX-4146
p1745
aVFELIX-4145
p1746
aVFELIX-4144
p1747
aVFELIX-4143
p1748
aVFELIX-4142
p1749
aVFELIX-4141
p1750
aVFELIX-4140
p1751
aVFELIX-4139
p1752
aVFELIX-4138
p1753
aVFELIX-4137
p1754
aVFELIX-4136
p1755
aVFELIX-4135
p1756
aVFELIX-4134
p1757
aVFELIX-4133
p1758
aVFELIX-4132
p1759
aVFELIX-4131
p1760
aVFELIX-4130
p1761
aVFELIX-4129
p1762
aVFELIX-4128
p1763
aVFELIX-4127
p1764
aVFELIX-4126
p1765
aVFELIX-4125
p1766
aVFELIX-4124
p1767
aVFELIX-4123
p1768
aVFELIX-4122
p1769
aVFELIX-4121
p1770
aVFELIX-4120
p1771
aVFELIX-4119
p1772
aVFELIX-4118
p1773
aVFELIX-4117
p1774
aVFELIX-4116
p1775
aVFELIX-4115
p1776
aVFELIX-4114
p1777
aVFELIX-4113
p1778
aVFELIX-4112
p1779
aVFELIX-4111
p1780
aVFELIX-4110
p1781
aVFELIX-4109
p1782
aVFELIX-4108
p1783
aVFELIX-4107
p1784
aVFELIX-4106
p1785
aVFELIX-4105
p1786
aVFELIX-4104
p1787
aVFELIX-4103
p1788
aVFELIX-4102
p1789
aVFELIX-4101
p1790
aVFELIX-4100
p1791
aVFELIX-4099
p1792
aVFELIX-4098
p1793
aVFELIX-4097
p1794
aVFELIX-4096
p1795
aVFELIX-4095
p1796
aVFELIX-4094
p1797
aVFELIX-4093
p1798
aVFELIX-4092
p1799
aVFELIX-4091
p1800
aVFELIX-4090
p1801
aVFELIX-4089
p1802
aVFELIX-4088
p1803
aVFELIX-4087
p1804
aVFELIX-4086
p1805
aVFELIX-4085
p1806
aVFELIX-4084
p1807
aVFELIX-4083
p1808
aVFELIX-4082
p1809
aVFELIX-4081
p1810
aVFELIX-4080
p1811
aVFELIX-4079
p1812
aVFELIX-4078
p1813
aVFELIX-4077
p1814
aVFELIX-4076
p1815
aVFELIX-4075
p1816
aVFELIX-4074
p1817
aVFELIX-4073
p1818
aVFELIX-4072
p1819
aVFELIX-4071
p1820
aVFELIX-4070
p1821
aVFELIX-4069
p1822
aVFELIX-4068
p1823
aVFELIX-4067
p1824
aVFELIX-4066
p1825
aVFELIX-4065
p1826
aVFELIX-4064
p1827
aVFELIX-4063
p1828
aVFELIX-4062
p1829
aVFELIX-4061
p1830
aVFELIX-4060
p1831
aVFELIX-4059
p1832
aVFELIX-4058
p1833
aVFELIX-4057
p1834
aVFELIX-4056
p1835
aVFELIX-4055
p1836
aVFELIX-4054
p1837
aVFELIX-4053
p1838
aVFELIX-4052
p1839
aVFELIX-4051
p1840
aVFELIX-4050
p1841
aVFELIX-4049
p1842
aVFELIX-4048
p1843
aVFELIX-4047
p1844
aVFELIX-4046
p1845
aVFELIX-4045
p1846
aVFELIX-4044
p1847
aVFELIX-4043
p1848
aVFELIX-4042
p1849
aVFELIX-4041
p1850
aVFELIX-4040
p1851
aVFELIX-4039
p1852
aVFELIX-4038
p1853
aVFELIX-4037
p1854
aVFELIX-4036
p1855
aVFELIX-4035
p1856
aVFELIX-4034
p1857
aVFELIX-4033
p1858
aVFELIX-4032
p1859
aVFELIX-4031
p1860
aVFELIX-4030
p1861
aVFELIX-4029
p1862
aVFELIX-4028
p1863
aVFELIX-4027
p1864
aVFELIX-4026
p1865
aVFELIX-4025
p1866
aVFELIX-4024
p1867
aVFELIX-4023
p1868
aVFELIX-4022
p1869
aVFELIX-4021
p1870
aVFELIX-4020
p1871
aVFELIX-4019
p1872
aVFELIX-4018
p1873
aVFELIX-4017
p1874
aVFELIX-4016
p1875
aVFELIX-4015
p1876
aVFELIX-4014
p1877
aVFELIX-4013
p1878
aVFELIX-4012
p1879
aVFELIX-4011
p1880
aVFELIX-4010
p1881
aVFELIX-4009
p1882
aVFELIX-4008
p1883
aVFELIX-4007
p1884
aVFELIX-4006
p1885
aVFELIX-4005
p1886
aVFELIX-4004
p1887
aVFELIX-4003
p1888
aVFELIX-4002
p1889
aVFELIX-4001
p1890
aVFELIX-4000
p1891
aVFELIX-3999
p1892
aVFELIX-3998
p1893
aVFELIX-3997
p1894
aVFELIX-3996
p1895
aVFELIX-3995
p1896
aVFELIX-3994
p1897
aVFELIX-3993
p1898
aVFELIX-3992
p1899
aVFELIX-3991
p1900
aVFELIX-3990
p1901
aVFELIX-3989
p1902
aVFELIX-3988
p1903
aVFELIX-3987
p1904
aVFELIX-3986
p1905
aVFELIX-3985
p1906
aVFELIX-3984
p1907
aVFELIX-3983
p1908
aVFELIX-3982
p1909
aVFELIX-3981
p1910
aVFELIX-3980
p1911
aVFELIX-3979
p1912
aVFELIX-3978
p1913
aVFELIX-3977
p1914
aVFELIX-3976
p1915
aVFELIX-3975
p1916
aVFELIX-3974
p1917
aVFELIX-3973
p1918
aVFELIX-3972
p1919
aVFELIX-3971
p1920
aVFELIX-3970
p1921
aVFELIX-3969
p1922
aVFELIX-3968
p1923
aVFELIX-3967
p1924
aVFELIX-3966
p1925
aVFELIX-3965
p1926
aVFELIX-3964
p1927
aVFELIX-3963
p1928
aVFELIX-3962
p1929
aVFELIX-3961
p1930
aVFELIX-3960
p1931
aVFELIX-3959
p1932
aVFELIX-3958
p1933
aVFELIX-3957
p1934
aVFELIX-3956
p1935
aVFELIX-3955
p1936
aVFELIX-3954
p1937
aVFELIX-3953
p1938
aVFELIX-3952
p1939
aVFELIX-3951
p1940
aVFELIX-3950
p1941
aVFELIX-3949
p1942
aVFELIX-3948
p1943
aVFELIX-3947
p1944
aVFELIX-3946
p1945
aVFELIX-3945
p1946
aVFELIX-3944
p1947
aVFELIX-3943
p1948
aVFELIX-3942
p1949
aVFELIX-3941
p1950
aVFELIX-3940
p1951
aVFELIX-3939
p1952
aVFELIX-3938
p1953
aVFELIX-3937
p1954
aVFELIX-3936
p1955
aVFELIX-3935
p1956
aVFELIX-3934
p1957
aVFELIX-3933
p1958
aVFELIX-3932
p1959
aVFELIX-3931
p1960
aVFELIX-3930
p1961
aVFELIX-3929
p1962
aVFELIX-3928
p1963
aVFELIX-3927
p1964
aVFELIX-3926
p1965
aVFELIX-3925
p1966
aVFELIX-3924
p1967
aVFELIX-3923
p1968
aVFELIX-3922
p1969
aVFELIX-3921
p1970
aVFELIX-3920
p1971
aVFELIX-3919
p1972
aVFELIX-3918
p1973
aVFELIX-3917
p1974
aVFELIX-3916
p1975
aVFELIX-3915
p1976
aVFELIX-3914
p1977
aVFELIX-3913
p1978
aVFELIX-3912
p1979
aVFELIX-3911
p1980
aVFELIX-3910
p1981
aVFELIX-3909
p1982
aVFELIX-3908
p1983
aVFELIX-3907
p1984
aVFELIX-3906
p1985
aVFELIX-3905
p1986
aVFELIX-3904
p1987
aVFELIX-3903
p1988
aVFELIX-3902
p1989
aVFELIX-3901
p1990
aVFELIX-3900
p1991
aVFELIX-3899
p1992
aVFELIX-3898
p1993
aVFELIX-3897
p1994
aVFELIX-3896
p1995
aVFELIX-3895
p1996
aVFELIX-3894
p1997
aVFELIX-3893
p1998
aVFELIX-3892
p1999
aVFELIX-3891
p2000
aVFELIX-3890
p2001
aVFELIX-3889
p2002
aVFELIX-3888
p2003
aVFELIX-3887
p2004
aVFELIX-3886
p2005
aVFELIX-3885
p2006
aVFELIX-3884
p2007
aVFELIX-3883
p2008
aVFELIX-3882
p2009
aVFELIX-3881
p2010
aVFELIX-3880
p2011
aVFELIX-3879
p2012
aVFELIX-3878
p2013
aVFELIX-3877
p2014
aVFELIX-3876
p2015
aVFELIX-3875
p2016
aVFELIX-3874
p2017
aVFELIX-3873
p2018
aVFELIX-3872
p2019
aVFELIX-3871
p2020
aVFELIX-3870
p2021
aVFELIX-3869
p2022
aVFELIX-3868
p2023
aVFELIX-3867
p2024
aVFELIX-3866
p2025
aVFELIX-3865
p2026
aVFELIX-3864
p2027
aVFELIX-3863
p2028
aVFELIX-3862
p2029
aVFELIX-3861
p2030
aVFELIX-3860
p2031
aVFELIX-3859
p2032
aVFELIX-3858
p2033
aVFELIX-3857
p2034
aVFELIX-3856
p2035
aVFELIX-3855
p2036
aVFELIX-3854
p2037
aVFELIX-3853
p2038
aVFELIX-3852
p2039
aVFELIX-3851
p2040
aVFELIX-3850
p2041
aVFELIX-3849
p2042
aVFELIX-3848
p2043
aVFELIX-3847
p2044
aVFELIX-3846
p2045
aVFELIX-3845
p2046
aVFELIX-3844
p2047
aVFELIX-3843
p2048
aVFELIX-3842
p2049
aVFELIX-3841
p2050
aVFELIX-3840
p2051
aVFELIX-3839
p2052
aVFELIX-3838
p2053
aVFELIX-3837
p2054
aVFELIX-3836
p2055
aVFELIX-3835
p2056
aVFELIX-3834
p2057
aVFELIX-3833
p2058
aVFELIX-3832
p2059
aVFELIX-3831
p2060
aVFELIX-3830
p2061
aVFELIX-3829
p2062
aVFELIX-3828
p2063
aVFELIX-3827
p2064
aVFELIX-3826
p2065
aVFELIX-3825
p2066
aVFELIX-3824
p2067
aVFELIX-3823
p2068
aVFELIX-3822
p2069
aVFELIX-3821
p2070
aVFELIX-3820
p2071
aVFELIX-3819
p2072
aVFELIX-3818
p2073
aVFELIX-3817
p2074
aVFELIX-3816
p2075
aVFELIX-3815
p2076
aVFELIX-3814
p2077
aVFELIX-3813
p2078
aVFELIX-3812
p2079
aVFELIX-3811
p2080
aVFELIX-3810
p2081
aVFELIX-3809
p2082
aVFELIX-3808
p2083
aVFELIX-3807
p2084
aVFELIX-3806
p2085
aVFELIX-3805
p2086
aVFELIX-3804
p2087
aVFELIX-3803
p2088
aVFELIX-3802
p2089
aVFELIX-3801
p2090
aVFELIX-3800
p2091
aVFELIX-3799
p2092
aVFELIX-3798
p2093
aVFELIX-3797
p2094
aVFELIX-3796
p2095
aVFELIX-3795
p2096
aVFELIX-3794
p2097
aVFELIX-3793
p2098
aVFELIX-3792
p2099
aVFELIX-3791
p2100
aVFELIX-3790
p2101
aVFELIX-3789
p2102
aVFELIX-3788
p2103
aVFELIX-3787
p2104
aVFELIX-3786
p2105
aVFELIX-3785
p2106
aVFELIX-3784
p2107
aVFELIX-3783
p2108
aVFELIX-3782
p2109
aVFELIX-3781
p2110
aVFELIX-3780
p2111
aVFELIX-3779
p2112
aVFELIX-3778
p2113
aVFELIX-3777
p2114
aVFELIX-3776
p2115
aVFELIX-3775
p2116
aVFELIX-3774
p2117
aVFELIX-3773
p2118
aVFELIX-3772
p2119
aVFELIX-3771
p2120
aVFELIX-3770
p2121
aVFELIX-3769
p2122
aVFELIX-3768
p2123
aVFELIX-3767
p2124
aVFELIX-3766
p2125
aVFELIX-3765
p2126
aVFELIX-3764
p2127
aVFELIX-3763
p2128
aVFELIX-3762
p2129
aVFELIX-3761
p2130
aVFELIX-3760
p2131
aVFELIX-3759
p2132
aVFELIX-3758
p2133
aVFELIX-3757
p2134
aVFELIX-3756
p2135
aVFELIX-3755
p2136
aVFELIX-3754
p2137
aVFELIX-3753
p2138
aVFELIX-3752
p2139
aVFELIX-3751
p2140
aVFELIX-3750
p2141
aVFELIX-3749
p2142
aVFELIX-3748
p2143
aVFELIX-3747
p2144
aVFELIX-3746
p2145
aVFELIX-3745
p2146
aVFELIX-3744
p2147
aVFELIX-3743
p2148
aVFELIX-3742
p2149
aVFELIX-3741
p2150
aVFELIX-3740
p2151
aVFELIX-3739
p2152
aVFELIX-3738
p2153
aVFELIX-3737
p2154
aVFELIX-3736
p2155
aVFELIX-3735
p2156
aVFELIX-3734
p2157
aVFELIX-3733
p2158
aVFELIX-3732
p2159
aVFELIX-3731
p2160
aVFELIX-3730
p2161
aVFELIX-3729
p2162
aVFELIX-3728
p2163
aVFELIX-3727
p2164
aVFELIX-3726
p2165
aVFELIX-3725
p2166
aVFELIX-3724
p2167
aVFELIX-3723
p2168
aVFELIX-3722
p2169
aVFELIX-3721
p2170
aVFELIX-3720
p2171
aVFELIX-3719
p2172
aVFELIX-3718
p2173
aVFELIX-3717
p2174
aVFELIX-3716
p2175
aVFELIX-3715
p2176
aVFELIX-3714
p2177
aVFELIX-3713
p2178
aVFELIX-3712
p2179
aVFELIX-3711
p2180
aVFELIX-3710
p2181
aVFELIX-3709
p2182
aVFELIX-3708
p2183
aVFELIX-3707
p2184
aVFELIX-3706
p2185
aVFELIX-3705
p2186
aVFELIX-3704
p2187
aVFELIX-3703
p2188
aVFELIX-3702
p2189
aVFELIX-3701
p2190
aVFELIX-3700
p2191
aVFELIX-3699
p2192
aVFELIX-3698
p2193
aVFELIX-3697
p2194
aVFELIX-3696
p2195
aVFELIX-3695
p2196
aVFELIX-3694
p2197
aVFELIX-3693
p2198
aVFELIX-3692
p2199
aVFELIX-3691
p2200
aVFELIX-3690
p2201
aVFELIX-3689
p2202
aVFELIX-3688
p2203
aVFELIX-3687
p2204
aVFELIX-3686
p2205
aVFELIX-3685
p2206
aVFELIX-3684
p2207
aVFELIX-3683
p2208
aVFELIX-3682
p2209
aVFELIX-3681
p2210
aVFELIX-3680
p2211
aVFELIX-3679
p2212
aVFELIX-3678
p2213
aVFELIX-3677
p2214
aVFELIX-3676
p2215
aVFELIX-3675
p2216
aVFELIX-3674
p2217
aVFELIX-3673
p2218
aVFELIX-3672
p2219
aVFELIX-3671
p2220
aVFELIX-3670
p2221
aVFELIX-3669
p2222
aVFELIX-3668
p2223
aVFELIX-3667
p2224
aVFELIX-3666
p2225
aVFELIX-3665
p2226
aVFELIX-3664
p2227
aVFELIX-3663
p2228
aVFELIX-3662
p2229
aVFELIX-3661
p2230
aVFELIX-3660
p2231
aVFELIX-3659
p2232
aVFELIX-3658
p2233
aVFELIX-3657
p2234
aVFELIX-3656
p2235
aVFELIX-3655
p2236
aVFELIX-3654
p2237
aVFELIX-3653
p2238
aVFELIX-3652
p2239
aVFELIX-3651
p2240
aVFELIX-3650
p2241
aVFELIX-3649
p2242
aVFELIX-3648
p2243
aVFELIX-3647
p2244
aVFELIX-3646
p2245
aVFELIX-3645
p2246
aVFELIX-3644
p2247
aVFELIX-3643
p2248
aVFELIX-3642
p2249
aVFELIX-3641
p2250
aVFELIX-3640
p2251
aVFELIX-3639
p2252
aVFELIX-3638
p2253
aVFELIX-3637
p2254
aVFELIX-3636
p2255
aVFELIX-3635
p2256
aVFELIX-3634
p2257
aVFELIX-3633
p2258
aVFELIX-3632
p2259
aVFELIX-3631
p2260
aVFELIX-3630
p2261
aVFELIX-3629
p2262
aVFELIX-3628
p2263
aVFELIX-3627
p2264
aVFELIX-3626
p2265
aVFELIX-3625
p2266
aVFELIX-3624
p2267
aVFELIX-3623
p2268
aVFELIX-3622
p2269
aVFELIX-3621
p2270
aVFELIX-3620
p2271
aVFELIX-3619
p2272
aVFELIX-3618
p2273
aVFELIX-3617
p2274
aVFELIX-3616
p2275
aVFELIX-3615
p2276
aVFELIX-3614
p2277
aVFELIX-3613
p2278
aVFELIX-3612
p2279
aVFELIX-3611
p2280
aVFELIX-3610
p2281
aVFELIX-3609
p2282
aVFELIX-3608
p2283
aVFELIX-3607
p2284
aVFELIX-3606
p2285
aVFELIX-3605
p2286
aVFELIX-3604
p2287
aVFELIX-3603
p2288
aVFELIX-3602
p2289
aVFELIX-3601
p2290
aVFELIX-3600
p2291
aVFELIX-3599
p2292
aVFELIX-3598
p2293
aVFELIX-3597
p2294
aVFELIX-3596
p2295
aVFELIX-3595
p2296
aVFELIX-3594
p2297
aVFELIX-3593
p2298
aVFELIX-3592
p2299
aVFELIX-3591
p2300
aVFELIX-3590
p2301
aVFELIX-3589
p2302
aVFELIX-3588
p2303
aVFELIX-3587
p2304
aVFELIX-3586
p2305
aVFELIX-3585
p2306
aVFELIX-3584
p2307
aVFELIX-3583
p2308
aVFELIX-3582
p2309
aVFELIX-3581
p2310
aVFELIX-3580
p2311
aVFELIX-3579
p2312
aVFELIX-3578
p2313
aVFELIX-3577
p2314
aVFELIX-3576
p2315
aVFELIX-3575
p2316
aVFELIX-3574
p2317
aVFELIX-3573
p2318
aVFELIX-3572
p2319
aVFELIX-3571
p2320
aVFELIX-3570
p2321
aVFELIX-3569
p2322
aVFELIX-3568
p2323
aVFELIX-3567
p2324
aVFELIX-3566
p2325
aVFELIX-3565
p2326
aVFELIX-3564
p2327
aVFELIX-3563
p2328
aVFELIX-3562
p2329
aVFELIX-3561
p2330
aVFELIX-3560
p2331
aVFELIX-3559
p2332
aVFELIX-3558
p2333
aVFELIX-3557
p2334
aVFELIX-3556
p2335
aVFELIX-3555
p2336
aVFELIX-3554
p2337
aVFELIX-3553
p2338
aVFELIX-3552
p2339
aVFELIX-3551
p2340
aVFELIX-3550
p2341
aVFELIX-3549
p2342
aVFELIX-3548
p2343
aVFELIX-3547
p2344
aVFELIX-3546
p2345
aVFELIX-3545
p2346
aVFELIX-3544
p2347
aVFELIX-3543
p2348
aVFELIX-3542
p2349
aVFELIX-3541
p2350
aVFELIX-3539
p2351
aVFELIX-3538
p2352
aVFELIX-3537
p2353
aVFELIX-3536
p2354
aVFELIX-3535
p2355
aVFELIX-3534
p2356
aVFELIX-3533
p2357
aVFELIX-3532
p2358
aVFELIX-3531
p2359
aVFELIX-3530
p2360
aVFELIX-3529
p2361
aVFELIX-3528
p2362
aVFELIX-3527
p2363
aVFELIX-3526
p2364
aVFELIX-3525
p2365
aVFELIX-3524
p2366
aVFELIX-3523
p2367
aVFELIX-3522
p2368
aVFELIX-3521
p2369
aVFELIX-3520
p2370
aVFELIX-3519
p2371
aVFELIX-3518
p2372
aVFELIX-3517
p2373
aVFELIX-3516
p2374
aVFELIX-3515
p2375
aVFELIX-3514
p2376
aVFELIX-3513
p2377
aVFELIX-3512
p2378
aVFELIX-3511
p2379
aVFELIX-3510
p2380
aVFELIX-3509
p2381
aVFELIX-3508
p2382
aVFELIX-3507
p2383
aVFELIX-3506
p2384
aVFELIX-3505
p2385
aVFELIX-3504
p2386
aVFELIX-3503
p2387
aVFELIX-3502
p2388
aVFELIX-3501
p2389
aVFELIX-3500
p2390
aVFELIX-3499
p2391
aVFELIX-3498
p2392
aVFELIX-3497
p2393
aVFELIX-3496
p2394
aVFELIX-3495
p2395
aVFELIX-3494
p2396
aVFELIX-3493
p2397
aVFELIX-3492
p2398
aVFELIX-3491
p2399
aVFELIX-3490
p2400
aVFELIX-3489
p2401
aVFELIX-3488
p2402
aVFELIX-3487
p2403
aVFELIX-3486
p2404
aVFELIX-3485
p2405
aVFELIX-3484
p2406
aVFELIX-3483
p2407
aVFELIX-3482
p2408
aVFELIX-3481
p2409
aVFELIX-3480
p2410
aVFELIX-3479
p2411
aVFELIX-3478
p2412
aVFELIX-3477
p2413
aVFELIX-3476
p2414
aVFELIX-3475
p2415
aVFELIX-3474
p2416
aVFELIX-3473
p2417
aVFELIX-3472
p2418
aVFELIX-3471
p2419
aVFELIX-3470
p2420
aVFELIX-3469
p2421
aVFELIX-3468
p2422
aVFELIX-3467
p2423
aVFELIX-3466
p2424
aVFELIX-3465
p2425
aVFELIX-3464
p2426
aVFELIX-3463
p2427
aVFELIX-3462
p2428
aVFELIX-3461
p2429
aVFELIX-3460
p2430
aVFELIX-3459
p2431
aVFELIX-3458
p2432
aVFELIX-3457
p2433
aVFELIX-3456
p2434
aVFELIX-3455
p2435
aVFELIX-3454
p2436
aVFELIX-3453
p2437
aVFELIX-3452
p2438
aVFELIX-3451
p2439
aVFELIX-3450
p2440
aVFELIX-3449
p2441
aVFELIX-3448
p2442
aVFELIX-3447
p2443
aVFELIX-3446
p2444
aVFELIX-3445
p2445
aVFELIX-3444
p2446
aVFELIX-3443
p2447
aVFELIX-3442
p2448
aVFELIX-3441
p2449
aVFELIX-3440
p2450
aVFELIX-3439
p2451
aVFELIX-3438
p2452
aVFELIX-3437
p2453
aVFELIX-3436
p2454
aVFELIX-3435
p2455
aVFELIX-3434
p2456
aVFELIX-3433
p2457
aVFELIX-3432
p2458
aVFELIX-3431
p2459
aVFELIX-3430
p2460
aVFELIX-3429
p2461
aVFELIX-3428
p2462
aVFELIX-3427
p2463
aVFELIX-3426
p2464
aVFELIX-3425
p2465
aVFELIX-3424
p2466
aVFELIX-3423
p2467
aVFELIX-3422
p2468
aVFELIX-3421
p2469
aVFELIX-3420
p2470
aVFELIX-3419
p2471
aVFELIX-3418
p2472
aVFELIX-3417
p2473
aVFELIX-3416
p2474
aVFELIX-3415
p2475
aVFELIX-3414
p2476
aVFELIX-3413
p2477
aVFELIX-3412
p2478
aVFELIX-3411
p2479
aVFELIX-3410
p2480
aVFELIX-3409
p2481
aVFELIX-3408
p2482
aVFELIX-3407
p2483
aVFELIX-3406
p2484
aVFELIX-3405
p2485
aVFELIX-3404
p2486
aVFELIX-3403
p2487
aVFELIX-3402
p2488
aVFELIX-3401
p2489
aVFELIX-3400
p2490
aVFELIX-3399
p2491
aVFELIX-3398
p2492
aVFELIX-3397
p2493
aVFELIX-3396
p2494
aVFELIX-3395
p2495
aVFELIX-3394
p2496
aVFELIX-3393
p2497
aVFELIX-3392
p2498
aVFELIX-3391
p2499
aVFELIX-3390
p2500
aVFELIX-3389
p2501
aVFELIX-3388
p2502
aVFELIX-3387
p2503
aVFELIX-3386
p2504
aVFELIX-3385
p2505
aVFELIX-3384
p2506
aVFELIX-3383
p2507
aVFELIX-3382
p2508
aVFELIX-3381
p2509
aVFELIX-3380
p2510
aVFELIX-3379
p2511
aVFELIX-3378
p2512
aVFELIX-3377
p2513
aVFELIX-3376
p2514
aVFELIX-3375
p2515
aVFELIX-3374
p2516
aVFELIX-3373
p2517
aVFELIX-3372
p2518
aVFELIX-3371
p2519
aVFELIX-3370
p2520
aVFELIX-3369
p2521
aVFELIX-3368
p2522
aVFELIX-3367
p2523
aVFELIX-3366
p2524
aVFELIX-3365
p2525
aVFELIX-3364
p2526
aVFELIX-3363
p2527
aVFELIX-3362
p2528
aVFELIX-3361
p2529
aVFELIX-3360
p2530
aVFELIX-3359
p2531
aVFELIX-3358
p2532
aVFELIX-3357
p2533
aVFELIX-3356
p2534
aVFELIX-3355
p2535
aVFELIX-3354
p2536
aVFELIX-3353
p2537
aVFELIX-3352
p2538
aVFELIX-3351
p2539
aVFELIX-3350
p2540
aVFELIX-3349
p2541
aVFELIX-3348
p2542
aVFELIX-3347
p2543
aVFELIX-3346
p2544
aVFELIX-3345
p2545
aVFELIX-3344
p2546
aVFELIX-3343
p2547
aVFELIX-3342
p2548
aVFELIX-3341
p2549
aVFELIX-3340
p2550
aVFELIX-3339
p2551
aVFELIX-3338
p2552
aVFELIX-3337
p2553
aVFELIX-3336
p2554
aVFELIX-3335
p2555
aVFELIX-3334
p2556
aVFELIX-3333
p2557
aVFELIX-3332
p2558
aVFELIX-3331
p2559
aVFELIX-3330
p2560
aVFELIX-3329
p2561
aVFELIX-3328
p2562
aVFELIX-3327
p2563
aVFELIX-3326
p2564
aVFELIX-3325
p2565
aVFELIX-3324
p2566
aVFELIX-3323
p2567
aVFELIX-3322
p2568
aVFELIX-3321
p2569
aVFELIX-3320
p2570
aVFELIX-3319
p2571
aVFELIX-3318
p2572
aVFELIX-3317
p2573
aVFELIX-3316
p2574
aVFELIX-3315
p2575
aVFELIX-3314
p2576
aVFELIX-3313
p2577
aVFELIX-3312
p2578
aVFELIX-3311
p2579
aVFELIX-3310
p2580
aVFELIX-3309
p2581
aVFELIX-3308
p2582
aVFELIX-3307
p2583
aVFELIX-3306
p2584
aVFELIX-3305
p2585
aVFELIX-3304
p2586
aVFELIX-3303
p2587
aVFELIX-3302
p2588
aVFELIX-3301
p2589
aVFELIX-3300
p2590
aVFELIX-3299
p2591
aVFELIX-3298
p2592
aVFELIX-3297
p2593
aVFELIX-3296
p2594
aVFELIX-3295
p2595
aVFELIX-3294
p2596
aVFELIX-3293
p2597
aVFELIX-3292
p2598
aVFELIX-3291
p2599
aVFELIX-3290
p2600
aVFELIX-3289
p2601
aVFELIX-3288
p2602
aVFELIX-3287
p2603
aVFELIX-3286
p2604
aVFELIX-3285
p2605
aVFELIX-3284
p2606
aVFELIX-3283
p2607
aVFELIX-3282
p2608
aVFELIX-3281
p2609
aVFELIX-3280
p2610
aVFELIX-3279
p2611
aVFELIX-3278
p2612
aVFELIX-3277
p2613
aVFELIX-3276
p2614
aVFELIX-3275
p2615
aVFELIX-3274
p2616
aVFELIX-3273
p2617
aVFELIX-3272
p2618
aVFELIX-3271
p2619
aVFELIX-3270
p2620
aVFELIX-3269
p2621
aVFELIX-3268
p2622
aVFELIX-3267
p2623
aVFELIX-3266
p2624
aVFELIX-3265
p2625
aVFELIX-3264
p2626
aVFELIX-3263
p2627
aVFELIX-3262
p2628
aVFELIX-3261
p2629
aVFELIX-3260
p2630
aVFELIX-3259
p2631
aVFELIX-3258
p2632
aVFELIX-3257
p2633
aVFELIX-3256
p2634
aVFELIX-3255
p2635
aVFELIX-3254
p2636
aVFELIX-3253
p2637
aVFELIX-3252
p2638
aVFELIX-3251
p2639
aVFELIX-3250
p2640
aVFELIX-3249
p2641
aVFELIX-3248
p2642
aVFELIX-3247
p2643
aVFELIX-3246
p2644
aVFELIX-3245
p2645
aVFELIX-3244
p2646
aVFELIX-3243
p2647
aVFELIX-3242
p2648
aVFELIX-3241
p2649
aVFELIX-3240
p2650
aVFELIX-3239
p2651
aVFELIX-3238
p2652
aVFELIX-3237
p2653
aVFELIX-3236
p2654
aVFELIX-3235
p2655
aVFELIX-3234
p2656
aVFELIX-3233
p2657
aVFELIX-3232
p2658
aVFELIX-3231
p2659
aVFELIX-3230
p2660
aVFELIX-3229
p2661
aVFELIX-3228
p2662
aVFELIX-3227
p2663
aVFELIX-3226
p2664
aVFELIX-3225
p2665
aVFELIX-3224
p2666
aVFELIX-3223
p2667
aVFELIX-3222
p2668
aVFELIX-3221
p2669
aVFELIX-3220
p2670
aVFELIX-3219
p2671
aVFELIX-3218
p2672
aVFELIX-3216
p2673
aVFELIX-3215
p2674
aVFELIX-3214
p2675
aVFELIX-3213
p2676
aVFELIX-3212
p2677
aVFELIX-3211
p2678
aVFELIX-3210
p2679
aVFELIX-3209
p2680
aVFELIX-3208
p2681
aVFELIX-3207
p2682
aVFELIX-3206
p2683
aVFELIX-3205
p2684
aVFELIX-3204
p2685
aVFELIX-3203
p2686
aVFELIX-3202
p2687
aVFELIX-3201
p2688
aVFELIX-3200
p2689
aVFELIX-3199
p2690
aVFELIX-3198
p2691
aVFELIX-3197
p2692
aVFELIX-3196
p2693
aVFELIX-3195
p2694
aVFELIX-3194
p2695
aVFELIX-3193
p2696
aVFELIX-3192
p2697
aVFELIX-3191
p2698
aVFELIX-3190
p2699
aVFELIX-3189
p2700
aVFELIX-3188
p2701
aVFELIX-3187
p2702
aVFELIX-3186
p2703
aVFELIX-3185
p2704
aVFELIX-3184
p2705
aVFELIX-3183
p2706
aVFELIX-3182
p2707
aVFELIX-3181
p2708
aVFELIX-3180
p2709
aVFELIX-3179
p2710
aVFELIX-3178
p2711
aVFELIX-3177
p2712
aVFELIX-3176
p2713
aVFELIX-3175
p2714
aVFELIX-3174
p2715
aVFELIX-3173
p2716
aVFELIX-3172
p2717
aVFELIX-3171
p2718
aVFELIX-3170
p2719
aVFELIX-3169
p2720
aVFELIX-3168
p2721
aVFELIX-3167
p2722
aVFELIX-3166
p2723
aVFELIX-3165
p2724
aVFELIX-3164
p2725
aVFELIX-3163
p2726
aVFELIX-3162
p2727
aVFELIX-3161
p2728
aVFELIX-3160
p2729
aVFELIX-3159
p2730
aVFELIX-3158
p2731
aVFELIX-3157
p2732
aVFELIX-3156
p2733
aVFELIX-3155
p2734
aVFELIX-3154
p2735
aVFELIX-3153
p2736
aVFELIX-3152
p2737
aVFELIX-3151
p2738
aVFELIX-3150
p2739
aVFELIX-3149
p2740
aVFELIX-3148
p2741
aVFELIX-3147
p2742
aVFELIX-3146
p2743
aVFELIX-3145
p2744
aVFELIX-3144
p2745
aVFELIX-3143
p2746
aVFELIX-3142
p2747
aVFELIX-3141
p2748
aVFELIX-3140
p2749
aVFELIX-3139
p2750
aVFELIX-3138
p2751
aVFELIX-3137
p2752
aVFELIX-3136
p2753
aVFELIX-3135
p2754
aVFELIX-3134
p2755
aVFELIX-3133
p2756
aVFELIX-3132
p2757
aVFELIX-3131
p2758
aVFELIX-3130
p2759
aVFELIX-3129
p2760
aVFELIX-3128
p2761
aVFELIX-3127
p2762
aVFELIX-3126
p2763
aVFELIX-3125
p2764
aVFELIX-3124
p2765
aVFELIX-3123
p2766
aVFELIX-3122
p2767
aVFELIX-3121
p2768
aVFELIX-3120
p2769
aVFELIX-3119
p2770
aVFELIX-3118
p2771
aVFELIX-3117
p2772
aVFELIX-3116
p2773
aVFELIX-3115
p2774
aVFELIX-3113
p2775
aVFELIX-3112
p2776
aVFELIX-3111
p2777
aVFELIX-3110
p2778
aVFELIX-3109
p2779
aVFELIX-3108
p2780
aVFELIX-3107
p2781
aVFELIX-3106
p2782
aVFELIX-3105
p2783
aVFELIX-3104
p2784
aVFELIX-3103
p2785
aVFELIX-3102
p2786
aVFELIX-3101
p2787
aVFELIX-3100
p2788
aVFELIX-3099
p2789
aVFELIX-3098
p2790
aVFELIX-3097
p2791
aVFELIX-3096
p2792
aVFELIX-3095
p2793
aVFELIX-3094
p2794
aVFELIX-3093
p2795
aVFELIX-3092
p2796
aVFELIX-3091
p2797
aVFELIX-3090
p2798
aVFELIX-3089
p2799
aVFELIX-3088
p2800
aVFELIX-3087
p2801
aVFELIX-3086
p2802
aVFELIX-3085
p2803
aVFELIX-3084
p2804
aVFELIX-3083
p2805
aVFELIX-3082
p2806
aVFELIX-3081
p2807
aVFELIX-3080
p2808
aVFELIX-3079
p2809
aVFELIX-3078
p2810
aVFELIX-3077
p2811
aVFELIX-3076
p2812
aVFELIX-3075
p2813
aVFELIX-3074
p2814
aVFELIX-3073
p2815
aVFELIX-3072
p2816
aVFELIX-3071
p2817
aVFELIX-3070
p2818
aVFELIX-3069
p2819
aVFELIX-3068
p2820
aVFELIX-3067
p2821
aVFELIX-3066
p2822
aVFELIX-3065
p2823
aVFELIX-3064
p2824
aVFELIX-3063
p2825
aVFELIX-3062
p2826
aVFELIX-3061
p2827
aVFELIX-3060
p2828
aVFELIX-3059
p2829
aVFELIX-3058
p2830
aVFELIX-3057
p2831
aVFELIX-3056
p2832
aVFELIX-3055
p2833
aVFELIX-3054
p2834
aVFELIX-3053
p2835
aVFELIX-3052
p2836
aVFELIX-3051
p2837
aVFELIX-3050
p2838
aVFELIX-3049
p2839
aVFELIX-3048
p2840
aVFELIX-3047
p2841
aVFELIX-3046
p2842
aVFELIX-3045
p2843
aVFELIX-3044
p2844
aVFELIX-3043
p2845
aVFELIX-3042
p2846
aVFELIX-3041
p2847
aVFELIX-3040
p2848
aVFELIX-3039
p2849
aVFELIX-3038
p2850
aVFELIX-3037
p2851
aVFELIX-3036
p2852
aVFELIX-3035
p2853
aVFELIX-3034
p2854
aVFELIX-3033
p2855
aVFELIX-3032
p2856
aVFELIX-3031
p2857
aVFELIX-3030
p2858
aVFELIX-3029
p2859
aVFELIX-3028
p2860
aVFELIX-3027
p2861
aVFELIX-3026
p2862
aVFELIX-3025
p2863
aVFELIX-3024
p2864
aVFELIX-3023
p2865
aVFELIX-3022
p2866
aVFELIX-3021
p2867
aVFELIX-3020
p2868
aVFELIX-3019
p2869
aVFELIX-3018
p2870
aVFELIX-3017
p2871
aVFELIX-3016
p2872
aVFELIX-3015
p2873
aVFELIX-3014
p2874
aVFELIX-3013
p2875
aVFELIX-3012
p2876
aVFELIX-3011
p2877
aVFELIX-3010
p2878
aVFELIX-3009
p2879
aVFELIX-3008
p2880
aVFELIX-3007
p2881
aVFELIX-3006
p2882
aVFELIX-3005
p2883
aVFELIX-3004
p2884
aVFELIX-3003
p2885
aVFELIX-3002
p2886
aVFELIX-3001
p2887
aVFELIX-3000
p2888
aVFELIX-2999
p2889
aVFELIX-2998
p2890
aVFELIX-2997
p2891
aVFELIX-2996
p2892
aVFELIX-2995
p2893
aVFELIX-2994
p2894
aVFELIX-2993
p2895
aVFELIX-2992
p2896
aVFELIX-2991
p2897
aVFELIX-2990
p2898
aVFELIX-2989
p2899
aVFELIX-2988
p2900
aVFELIX-2987
p2901
aVFELIX-2986
p2902
aVFELIX-2985
p2903
aVFELIX-2984
p2904
aVFELIX-2983
p2905
aVFELIX-2982
p2906
aVFELIX-2981
p2907
aVFELIX-2980
p2908
aVFELIX-2979
p2909
aVFELIX-2978
p2910
aVFELIX-2977
p2911
aVFELIX-2976
p2912
aVFELIX-2975
p2913
aVFELIX-2974
p2914
aVFELIX-2973
p2915
aVFELIX-2972
p2916
aVFELIX-2971
p2917
aVFELIX-2970
p2918
aVFELIX-2969
p2919
aVFELIX-2968
p2920
aVFELIX-2967
p2921
aVFELIX-2966
p2922
aVFELIX-2965
p2923
aVFELIX-2964
p2924
aVFELIX-2963
p2925
aVFELIX-2962
p2926
aVFELIX-2961
p2927
aVFELIX-2960
p2928
aVFELIX-2959
p2929
aVFELIX-2958
p2930
aVFELIX-2957
p2931
aVFELIX-2956
p2932
aVFELIX-2955
p2933
aVFELIX-2954
p2934
aVFELIX-2953
p2935
aVFELIX-2952
p2936
aVFELIX-2951
p2937
aVFELIX-2950
p2938
aVFELIX-2949
p2939
aVFELIX-2948
p2940
aVFELIX-2947
p2941
aVFELIX-2946
p2942
aVFELIX-2945
p2943
aVFELIX-2944
p2944
aVFELIX-2943
p2945
aVFELIX-2942
p2946
aVFELIX-2941
p2947
aVFELIX-2940
p2948
aVFELIX-2939
p2949
aVFELIX-2938
p2950
aVFELIX-2937
p2951
aVFELIX-2936
p2952
aVFELIX-2935
p2953
aVFELIX-2934
p2954
aVFELIX-2933
p2955
aVFELIX-2932
p2956
aVFELIX-2931
p2957
aVFELIX-2930
p2958
aVFELIX-2929
p2959
aVFELIX-2928
p2960
aVFELIX-2927
p2961
aVFELIX-2926
p2962
aVFELIX-2925
p2963
aVFELIX-2924
p2964
aVFELIX-2923
p2965
aVFELIX-2922
p2966
aVFELIX-2921
p2967
aVFELIX-2920
p2968
aVFELIX-2919
p2969
aVFELIX-2918
p2970
aVFELIX-2917
p2971
aVFELIX-2916
p2972
aVFELIX-2915
p2973
aVFELIX-2914
p2974
aVFELIX-2913
p2975
aVFELIX-2912
p2976
aVFELIX-2911
p2977
aVFELIX-2910
p2978
aVFELIX-2909
p2979
aVFELIX-2908
p2980
aVFELIX-2907
p2981
aVFELIX-2906
p2982
aVFELIX-2905
p2983
aVFELIX-2904
p2984
aVFELIX-2903
p2985
aVFELIX-2902
p2986
aVFELIX-2901
p2987
aVFELIX-2900
p2988
aVFELIX-2899
p2989
aVFELIX-2898
p2990
aVFELIX-2897
p2991
aVFELIX-2896
p2992
aVFELIX-2895
p2993
aVFELIX-2894
p2994
aVFELIX-2893
p2995
aVFELIX-2892
p2996
aVFELIX-2891
p2997
aVFELIX-2890
p2998
aVFELIX-2889
p2999
aVFELIX-2888
p3000
aVFELIX-2887
p3001
aVFELIX-2886
p3002
aVFELIX-2885
p3003
aVFELIX-2884
p3004
aVFELIX-2883
p3005
aVFELIX-2882
p3006
aVFELIX-2881
p3007
aVFELIX-2880
p3008
aVFELIX-2879
p3009
aVFELIX-2878
p3010
aVFELIX-2877
p3011
aVFELIX-2876
p3012
aVFELIX-2875
p3013
aVFELIX-2874
p3014
aVFELIX-2873
p3015
aVFELIX-2872
p3016
aVFELIX-2871
p3017
aVFELIX-2870
p3018
aVFELIX-2869
p3019
aVFELIX-2868
p3020
aVFELIX-2867
p3021
aVFELIX-2866
p3022
aVFELIX-2865
p3023
aVFELIX-2864
p3024
aVFELIX-2863
p3025
aVFELIX-2862
p3026
aVFELIX-2861
p3027
aVFELIX-2860
p3028
aVFELIX-2859
p3029
aVFELIX-2858
p3030
aVFELIX-2856
p3031
aVFELIX-2855
p3032
aVFELIX-2854
p3033
aVFELIX-2853
p3034
aVFELIX-2852
p3035
aVFELIX-2851
p3036
aVFELIX-2850
p3037
aVFELIX-2849
p3038
aVFELIX-2848
p3039
aVFELIX-2847
p3040
aVFELIX-2846
p3041
aVFELIX-2845
p3042
aVFELIX-2844
p3043
aVFELIX-2843
p3044
aVFELIX-2842
p3045
aVFELIX-2841
p3046
aVFELIX-2840
p3047
aVFELIX-2839
p3048
aVFELIX-2838
p3049
aVFELIX-2837
p3050
aVFELIX-2836
p3051
aVFELIX-2835
p3052
aVFELIX-2834
p3053
aVFELIX-2833
p3054
aVFELIX-2832
p3055
aVFELIX-2831
p3056
aVFELIX-2830
p3057
aVFELIX-2829
p3058
aVFELIX-2828
p3059
aVFELIX-2827
p3060
aVFELIX-2826
p3061
aVFELIX-2825
p3062
aVFELIX-2824
p3063
aVFELIX-2823
p3064
aVFELIX-2822
p3065
aVFELIX-2821
p3066
aVFELIX-2820
p3067
aVFELIX-2819
p3068
aVFELIX-2818
p3069
aVFELIX-2817
p3070
aVFELIX-2816
p3071
aVFELIX-2815
p3072
aVFELIX-2814
p3073
aVFELIX-2813
p3074
aVFELIX-2812
p3075
aVFELIX-2811
p3076
aVFELIX-2810
p3077
aVFELIX-2809
p3078
aVFELIX-2808
p3079
aVFELIX-2807
p3080
aVFELIX-2806
p3081
aVFELIX-2805
p3082
aVFELIX-2804
p3083
aVFELIX-2803
p3084
aVFELIX-2802
p3085
aVFELIX-2801
p3086
aVFELIX-2800
p3087
aVFELIX-2799
p3088
aVFELIX-2798
p3089
aVFELIX-2797
p3090
aVFELIX-2796
p3091
aVFELIX-2795
p3092
aVFELIX-2794
p3093
aVFELIX-2793
p3094
aVFELIX-2792
p3095
aVFELIX-2791
p3096
aVFELIX-2790
p3097
aVFELIX-2789
p3098
aVFELIX-2788
p3099
aVFELIX-2787
p3100
aVFELIX-2786
p3101
aVFELIX-2785
p3102
aVFELIX-2784
p3103
aVFELIX-2783
p3104
aVFELIX-2782
p3105
aVFELIX-2781
p3106
aVFELIX-2780
p3107
aVFELIX-2779
p3108
aVFELIX-2778
p3109
aVFELIX-2777
p3110
aVFELIX-2776
p3111
aVFELIX-2775
p3112
aVFELIX-2774
p3113
aVFELIX-2773
p3114
aVFELIX-2772
p3115
aVFELIX-2771
p3116
aVFELIX-2770
p3117
aVFELIX-2769
p3118
aVFELIX-2768
p3119
aVFELIX-2767
p3120
aVFELIX-2766
p3121
aVFELIX-2765
p3122
aVFELIX-2764
p3123
aVFELIX-2763
p3124
aVFELIX-2762
p3125
aVFELIX-2761
p3126
aVFELIX-2760
p3127
aVFELIX-2759
p3128
aVFELIX-2758
p3129
aVFELIX-2757
p3130
aVFELIX-2756
p3131
aVFELIX-2755
p3132
aVFELIX-2754
p3133
aVFELIX-2753
p3134
aVFELIX-2752
p3135
aVFELIX-2751
p3136
aVFELIX-2750
p3137
aVFELIX-2749
p3138
aVFELIX-2748
p3139
aVFELIX-2747
p3140
aVFELIX-2746
p3141
aVFELIX-2745
p3142
aVFELIX-2744
p3143
aVFELIX-2743
p3144
aVFELIX-2742
p3145
aVFELIX-2741
p3146
aVFELIX-2740
p3147
aVFELIX-2739
p3148
aVFELIX-2738
p3149
aVFELIX-2737
p3150
aVFELIX-2736
p3151
aVFELIX-2735
p3152
aVFELIX-2734
p3153
aVFELIX-2733
p3154
aVFELIX-2732
p3155
aVFELIX-2731
p3156
aVFELIX-2730
p3157
aVFELIX-2729
p3158
aVFELIX-2728
p3159
aVFELIX-2727
p3160
aVFELIX-2726
p3161
aVFELIX-2725
p3162
aVFELIX-2724
p3163
aVFELIX-2723
p3164
aVFELIX-2722
p3165
aVFELIX-2721
p3166
aVFELIX-2720
p3167
aVFELIX-2719
p3168
aVFELIX-2718
p3169
aVFELIX-2717
p3170
aVFELIX-2716
p3171
aVFELIX-2715
p3172
aVFELIX-2714
p3173
aVFELIX-2713
p3174
aVFELIX-2712
p3175
aVFELIX-2711
p3176
aVFELIX-2710
p3177
aVFELIX-2709
p3178
aVFELIX-2708
p3179
aVFELIX-2707
p3180
aVFELIX-2706
p3181
aVFELIX-2705
p3182
aVFELIX-2704
p3183
aVFELIX-2703
p3184
aVFELIX-2702
p3185
aVFELIX-2701
p3186
aVFELIX-2700
p3187
aVFELIX-2699
p3188
aVFELIX-2698
p3189
aVFELIX-2697
p3190
aVFELIX-2696
p3191
aVFELIX-2695
p3192
aVFELIX-2694
p3193
aVFELIX-2693
p3194
aVFELIX-2692
p3195
aVFELIX-2691
p3196
aVFELIX-2690
p3197
aVFELIX-2689
p3198
aVFELIX-2688
p3199
aVFELIX-2687
p3200
aVFELIX-2686
p3201
aVFELIX-2685
p3202
aVFELIX-2684
p3203
aVFELIX-2683
p3204
aVFELIX-2682
p3205
aVFELIX-2681
p3206
aVFELIX-2680
p3207
aVFELIX-2679
p3208
aVFELIX-2678
p3209
aVFELIX-2677
p3210
aVFELIX-2676
p3211
aVFELIX-2675
p3212
aVFELIX-2674
p3213
aVFELIX-2673
p3214
aVFELIX-2672
p3215
aVFELIX-2671
p3216
aVFELIX-2670
p3217
aVFELIX-2669
p3218
aVFELIX-2668
p3219
aVFELIX-2667
p3220
aVFELIX-2666
p3221
aVFELIX-2665
p3222
aVFELIX-2664
p3223
aVFELIX-2663
p3224
aVFELIX-2662
p3225
aVFELIX-2661
p3226
aVFELIX-2660
p3227
aVFELIX-2659
p3228
aVFELIX-2658
p3229
aVFELIX-2657
p3230
aVFELIX-2656
p3231
aVFELIX-2655
p3232
aVFELIX-2654
p3233
aVFELIX-2653
p3234
aVFELIX-2652
p3235
aVFELIX-2651
p3236
aVFELIX-2650
p3237
aVFELIX-2649
p3238
aVFELIX-2648
p3239
aVFELIX-2647
p3240
aVFELIX-2646
p3241
aVFELIX-2645
p3242
aVFELIX-2644
p3243
aVFELIX-2643
p3244
aVFELIX-2642
p3245
aVFELIX-2641
p3246
aVFELIX-2640
p3247
aVFELIX-2639
p3248
aVFELIX-2638
p3249
aVFELIX-2637
p3250
aVFELIX-2636
p3251
aVFELIX-2635
p3252
aVFELIX-2634
p3253
aVFELIX-2633
p3254
aVFELIX-2632
p3255
aVFELIX-2631
p3256
aVFELIX-2630
p3257
aVFELIX-2629
p3258
aVFELIX-2628
p3259
aVFELIX-2627
p3260
aVFELIX-2626
p3261
aVFELIX-2625
p3262
aVFELIX-2624
p3263
aVFELIX-2623
p3264
aVFELIX-2622
p3265
aVFELIX-2621
p3266
aVFELIX-2620
p3267
aVFELIX-2619
p3268
aVFELIX-2618
p3269
aVFELIX-2617
p3270
aVFELIX-2616
p3271
aVFELIX-2615
p3272
aVFELIX-2614
p3273
aVFELIX-2613
p3274
aVFELIX-2612
p3275
aVFELIX-2611
p3276
aVFELIX-2610
p3277
aVFELIX-2609
p3278
aVFELIX-2608
p3279
aVFELIX-2607
p3280
aVFELIX-2606
p3281
aVFELIX-2605
p3282
aVFELIX-2604
p3283
aVFELIX-2603
p3284
aVFELIX-2602
p3285
aVFELIX-2601
p3286
aVFELIX-2600
p3287
aVFELIX-2599
p3288
aVFELIX-2598
p3289
aVFELIX-2597
p3290
aVFELIX-2596
p3291
aVFELIX-2595
p3292
aVFELIX-2594
p3293
aVFELIX-2593
p3294
aVFELIX-2592
p3295
aVFELIX-2591
p3296
aVFELIX-2590
p3297
aVFELIX-2589
p3298
aVFELIX-2588
p3299
aVFELIX-2587
p3300
aVFELIX-2586
p3301
aVFELIX-2585
p3302
aVFELIX-2584
p3303
aVFELIX-2583
p3304
aVFELIX-2582
p3305
aVFELIX-2581
p3306
aVFELIX-2580
p3307
aVFELIX-2579
p3308
aVFELIX-2578
p3309
aVFELIX-2577
p3310
aVFELIX-2576
p3311
aVFELIX-2575
p3312
aVFELIX-2574
p3313
aVFELIX-2573
p3314
aVFELIX-2572
p3315
aVFELIX-2571
p3316
aVFELIX-2570
p3317
aVFELIX-2569
p3318
aVFELIX-2568
p3319
aVFELIX-2567
p3320
aVFELIX-2566
p3321
aVFELIX-2565
p3322
aVFELIX-2564
p3323
aVFELIX-2563
p3324
aVFELIX-2562
p3325
aVFELIX-2561
p3326
aVFELIX-2560
p3327
aVFELIX-2559
p3328
aVFELIX-2558
p3329
aVFELIX-2557
p3330
aVFELIX-2556
p3331
aVFELIX-2555
p3332
aVFELIX-2554
p3333
aVFELIX-2553
p3334
aVFELIX-2552
p3335
aVFELIX-2551
p3336
aVFELIX-2549
p3337
aVFELIX-2548
p3338
aVFELIX-2547
p3339
aVFELIX-2546
p3340
aVFELIX-2545
p3341
aVFELIX-2544
p3342
aVFELIX-2543
p3343
aVFELIX-2542
p3344
aVFELIX-2541
p3345
aVFELIX-2540
p3346
aVFELIX-2539
p3347
aVFELIX-2538
p3348
aVFELIX-2537
p3349
aVFELIX-2536
p3350
aVFELIX-2535
p3351
aVFELIX-2534
p3352
aVFELIX-2533
p3353
aVFELIX-2532
p3354
aVFELIX-2531
p3355
aVFELIX-2530
p3356
aVFELIX-2529
p3357
aVFELIX-2528
p3358
aVFELIX-2527
p3359
aVFELIX-2526
p3360
aVFELIX-2525
p3361
aVFELIX-2524
p3362
aVFELIX-2523
p3363
aVFELIX-2522
p3364
aVFELIX-2521
p3365
aVFELIX-2520
p3366
aVFELIX-2519
p3367
aVFELIX-2518
p3368
aVFELIX-2517
p3369
aVFELIX-2516
p3370
aVFELIX-2515
p3371
aVFELIX-2514
p3372
aVFELIX-2513
p3373
aVFELIX-2512
p3374
aVFELIX-2511
p3375
aVFELIX-2510
p3376
aVFELIX-2509
p3377
aVFELIX-2508
p3378
aVFELIX-2507
p3379
aVFELIX-2506
p3380
aVFELIX-2505
p3381
aVFELIX-2504
p3382
aVFELIX-2503
p3383
aVFELIX-2502
p3384
aVFELIX-2501
p3385
aVFELIX-2500
p3386
aVFELIX-2499
p3387
aVFELIX-2498
p3388
aVFELIX-2497
p3389
aVFELIX-2496
p3390
aVFELIX-2495
p3391
aVFELIX-2494
p3392
aVFELIX-2493
p3393
aVFELIX-2492
p3394
aVFELIX-2491
p3395
aVFELIX-2490
p3396
aVFELIX-2489
p3397
aVFELIX-2488
p3398
aVFELIX-2487
p3399
aVFELIX-2486
p3400
aVFELIX-2485
p3401
aVFELIX-2484
p3402
aVFELIX-2483
p3403
aVFELIX-2482
p3404
aVFELIX-2481
p3405
aVFELIX-2480
p3406
aVFELIX-2479
p3407
aVFELIX-2478
p3408
aVFELIX-2477
p3409
aVFELIX-2476
p3410
aVFELIX-2475
p3411
aVFELIX-2474
p3412
aVFELIX-2473
p3413
aVFELIX-2472
p3414
aVFELIX-2471
p3415
aVFELIX-2470
p3416
aVFELIX-2469
p3417
aVFELIX-2468
p3418
aVFELIX-2467
p3419
aVFELIX-2466
p3420
aVFELIX-2465
p3421
aVFELIX-2464
p3422
aVFELIX-2463
p3423
aVFELIX-2462
p3424
aVFELIX-2461
p3425
aVFELIX-2460
p3426
aVFELIX-2459
p3427
aVFELIX-2458
p3428
aVFELIX-2457
p3429
aVFELIX-2456
p3430
aVFELIX-2455
p3431
aVFELIX-2454
p3432
aVFELIX-2453
p3433
aVFELIX-2451
p3434
aVFELIX-2450
p3435
aVFELIX-2449
p3436
aVFELIX-2448
p3437
aVFELIX-2447
p3438
aVFELIX-2446
p3439
aVFELIX-2445
p3440
aVFELIX-2441
p3441
aVFELIX-2438
p3442
aVFELIX-2437
p3443
aVFELIX-2436
p3444
aVFELIX-2435
p3445
aVFELIX-2434
p3446
aVFELIX-2433
p3447
aVFELIX-2432
p3448
aVFELIX-2431
p3449
aVFELIX-2430
p3450
aVFELIX-2429
p3451
aVFELIX-2428
p3452
aVFELIX-2427
p3453
aVFELIX-2426
p3454
aVFELIX-2425
p3455
aVFELIX-2424
p3456
aVFELIX-2423
p3457
aVFELIX-2422
p3458
aVFELIX-2421
p3459
aVFELIX-2420
p3460
aVFELIX-2417
p3461
aVFELIX-2416
p3462
aVFELIX-2413
p3463
aVFELIX-2412
p3464
aVFELIX-2411
p3465
aVFELIX-2410
p3466
aVFELIX-2406
p3467
aVFELIX-2403
p3468
aVFELIX-2401
p3469
aVFELIX-2400
p3470
aVFELIX-2399
p3471
aVFELIX-2398
p3472
aVFELIX-2396
p3473
aVFELIX-2394
p3474
aVFELIX-2393
p3475
aVFELIX-2392
p3476
aVFELIX-2391
p3477
aVFELIX-2390
p3478
aVFELIX-2387
p3479
aVFELIX-2386
p3480
aVFELIX-2385
p3481
aVFELIX-2384
p3482
aVFELIX-2383
p3483
aVFELIX-2380
p3484
aVFELIX-2379
p3485
aVFELIX-2378
p3486
aVFELIX-2376
p3487
aVFELIX-2375
p3488
aVFELIX-2374
p3489
aVFELIX-2372
p3490
aVFELIX-2370
p3491
aVFELIX-2369
p3492
aVFELIX-2368
p3493
aVFELIX-2367
p3494
aVFELIX-2366
p3495
aVFELIX-2363
p3496
aVFELIX-2362
p3497
aVFELIX-2359
p3498
aVFELIX-2356
p3499
aVFELIX-2355
p3500
aVFELIX-2353
p3501
aVFELIX-2351
p3502
aVFELIX-2350
p3503
aVFELIX-2348
p3504
aVFELIX-2347
p3505
aVFELIX-2346
p3506
aVFELIX-2345
p3507
aVFELIX-2344
p3508
aVFELIX-2343
p3509
aVFELIX-2342
p3510
aVFELIX-2340
p3511
aVFELIX-2339
p3512
aVFELIX-2338
p3513
aVFELIX-2337
p3514
aVFELIX-2336
p3515
aVFELIX-2335
p3516
aVFELIX-2334
p3517
aVFELIX-2333
p3518
aVFELIX-2332
p3519
aVFELIX-2331
p3520
aVFELIX-2330
p3521
aVFELIX-2329
p3522
aVFELIX-2328
p3523
aVFELIX-2327
p3524
aVFELIX-2326
p3525
aVFELIX-2325
p3526
aVFELIX-2324
p3527
aVFELIX-2323
p3528
aVFELIX-2322
p3529
aVFELIX-2321
p3530
aVFELIX-2320
p3531
aVFELIX-2319
p3532
aVFELIX-2318
p3533
aVFELIX-2317
p3534
aVFELIX-2316
p3535
aVFELIX-2315
p3536
aVFELIX-2314
p3537
aVFELIX-2313
p3538
aVFELIX-2312
p3539
aVFELIX-2311
p3540
aVFELIX-2309
p3541
aVFELIX-2308
p3542
aVFELIX-2307
p3543
aVFELIX-2306
p3544
aVFELIX-2305
p3545
aVFELIX-2304
p3546
aVFELIX-2303
p3547
aVFELIX-2302
p3548
aVFELIX-2301
p3549
aVFELIX-2300
p3550
aVFELIX-2299
p3551
aVFELIX-2298
p3552
aVFELIX-2297
p3553
aVFELIX-2296
p3554
aVFELIX-2295
p3555
aVFELIX-2294
p3556
aVFELIX-2293
p3557
aVFELIX-2292
p3558
aVFELIX-2291
p3559
aVFELIX-2290
p3560
aVFELIX-2289
p3561
aVFELIX-2288
p3562
aVFELIX-2287
p3563
aVFELIX-2286
p3564
aVFELIX-2285
p3565
aVFELIX-2284
p3566
aVFELIX-2283
p3567
aVFELIX-2282
p3568
aVFELIX-2281
p3569
aVFELIX-2280
p3570
aVFELIX-2279
p3571
aVFELIX-2278
p3572
aVFELIX-2277
p3573
aVFELIX-2276
p3574
aVFELIX-2275
p3575
aVFELIX-2274
p3576
aVFELIX-2273
p3577
aVFELIX-2272
p3578
aVFELIX-2271
p3579
aVFELIX-2270
p3580
aVFELIX-2269
p3581
aVFELIX-2268
p3582
aVFELIX-2267
p3583
aVFELIX-2266
p3584
aVFELIX-2265
p3585
aVFELIX-2264
p3586
aVFELIX-2263
p3587
aVFELIX-2262
p3588
aVFELIX-2261
p3589
aVFELIX-2260
p3590
aVFELIX-2259
p3591
aVFELIX-2258
p3592
aVFELIX-2257
p3593
aVFELIX-2256
p3594
aVFELIX-2255
p3595
aVFELIX-2254
p3596
aVFELIX-2253
p3597
aVFELIX-2252
p3598
aVFELIX-2251
p3599
aVFELIX-2250
p3600
aVFELIX-2249
p3601
aVFELIX-2248
p3602
aVFELIX-2247
p3603
aVFELIX-2246
p3604
aVFELIX-2245
p3605
aVFELIX-2244
p3606
aVFELIX-2243
p3607
aVFELIX-2242
p3608
aVFELIX-2241
p3609
aVFELIX-2240
p3610
aVFELIX-2239
p3611
aVFELIX-2238
p3612
aVFELIX-2237
p3613
aVFELIX-2236
p3614
aVFELIX-2235
p3615
aVFELIX-2234
p3616
aVFELIX-2233
p3617
aVFELIX-2232
p3618
aVFELIX-2231
p3619
aVFELIX-2230
p3620
aVFELIX-2229
p3621
aVFELIX-2228
p3622
aVFELIX-2227
p3623
aVFELIX-2226
p3624
aVFELIX-2225
p3625
aVFELIX-2224
p3626
aVFELIX-2223
p3627
aVFELIX-2222
p3628
aVFELIX-2221
p3629
aVFELIX-2220
p3630
aVFELIX-2219
p3631
aVFELIX-2218
p3632
aVFELIX-2217
p3633
aVFELIX-2216
p3634
aVFELIX-2215
p3635
aVFELIX-2214
p3636
aVFELIX-2213
p3637
aVFELIX-2212
p3638
aVFELIX-2211
p3639
aVFELIX-2210
p3640
aVFELIX-2209
p3641
aVFELIX-2208
p3642
aVFELIX-2207
p3643
aVFELIX-2206
p3644
aVFELIX-2205
p3645
aVFELIX-2204
p3646
aVFELIX-2203
p3647
aVFELIX-2202
p3648
aVFELIX-2201
p3649
aVFELIX-2200
p3650
aVFELIX-2199
p3651
aVFELIX-2198
p3652
aVFELIX-2197
p3653
aVFELIX-2196
p3654
aVFELIX-2195
p3655
aVFELIX-2194
p3656
aVFELIX-2193
p3657
aVFELIX-2192
p3658
aVFELIX-2191
p3659
aVFELIX-2190
p3660
aVFELIX-2189
p3661
aVFELIX-2188
p3662
aVFELIX-2187
p3663
aVFELIX-2186
p3664
aVFELIX-2185
p3665
aVFELIX-2184
p3666
aVFELIX-2183
p3667
aVFELIX-2182
p3668
aVFELIX-2181
p3669
aVFELIX-2180
p3670
aVFELIX-2179
p3671
aVFELIX-2178
p3672
aVFELIX-2177
p3673
aVFELIX-2176
p3674
aVFELIX-2175
p3675
aVFELIX-2174
p3676
aVFELIX-2173
p3677
aVFELIX-2172
p3678
aVFELIX-2171
p3679
aVFELIX-2170
p3680
aVFELIX-2169
p3681
aVFELIX-2168
p3682
aVFELIX-2167
p3683
aVFELIX-2166
p3684
aVFELIX-2165
p3685
aVFELIX-2164
p3686
aVFELIX-2163
p3687
aVFELIX-2162
p3688
aVFELIX-2161
p3689
aVFELIX-2160
p3690
aVFELIX-2159
p3691
aVFELIX-2158
p3692
aVFELIX-2157
p3693
aVFELIX-2156
p3694
aVFELIX-2155
p3695
aVFELIX-2154
p3696
aVFELIX-2153
p3697
aVFELIX-2152
p3698
aVFELIX-2151
p3699
aVFELIX-2150
p3700
aVFELIX-2149
p3701
aVFELIX-2148
p3702
aVFELIX-2147
p3703
aVFELIX-2146
p3704
aVFELIX-2145
p3705
aVFELIX-2144
p3706
aVFELIX-2143
p3707
aVFELIX-2142
p3708
aVFELIX-2140
p3709
aVFELIX-2139
p3710
aVFELIX-2138
p3711
aVFELIX-2137
p3712
aVFELIX-2136
p3713
aVFELIX-2135
p3714
aVFELIX-2134
p3715
aVFELIX-2133
p3716
aVFELIX-2132
p3717
aVFELIX-2130
p3718
aVFELIX-2129
p3719
aVFELIX-2128
p3720
aVFELIX-2127
p3721
aVFELIX-2126
p3722
aVFELIX-2125
p3723
aVFELIX-2124
p3724
aVFELIX-2123
p3725
aVFELIX-2122
p3726
aVFELIX-2121
p3727
aVFELIX-2120
p3728
aVFELIX-2119
p3729
aVFELIX-2118
p3730
aVFELIX-2117
p3731
aVFELIX-2116
p3732
aVFELIX-2115
p3733
aVFELIX-2114
p3734
aVFELIX-2113
p3735
aVFELIX-2112
p3736
aVFELIX-2111
p3737
aVFELIX-2110
p3738
aVFELIX-2109
p3739
aVFELIX-2108
p3740
aVFELIX-2107
p3741
aVFELIX-2106
p3742
aVFELIX-2105
p3743
aVFELIX-2104
p3744
aVFELIX-2103
p3745
aVFELIX-2102
p3746
aVFELIX-2100
p3747
aVFELIX-2099
p3748
aVFELIX-2098
p3749
aVFELIX-2097
p3750
aVFELIX-2096
p3751
aVFELIX-2095
p3752
aVFELIX-2094
p3753
aVFELIX-2093
p3754
aVFELIX-2092
p3755
aVFELIX-2091
p3756
aVFELIX-2090
p3757
aVFELIX-2089
p3758
aVFELIX-2088
p3759
aVFELIX-2087
p3760
aVFELIX-2086
p3761
aVFELIX-2085
p3762
aVFELIX-2084
p3763
aVFELIX-2083
p3764
aVFELIX-2082
p3765
aVFELIX-2081
p3766
aVFELIX-2080
p3767
aVFELIX-2078
p3768
aVFELIX-2076
p3769
aVFELIX-2075
p3770
aVFELIX-2074
p3771
aVFELIX-2073
p3772
aVFELIX-2072
p3773
aVFELIX-2071
p3774
aVFELIX-2070
p3775
aVFELIX-2069
p3776
aVFELIX-2068
p3777
aVFELIX-2067
p3778
aVFELIX-2066
p3779
aVFELIX-2065
p3780
aVFELIX-2064
p3781
aVFELIX-2063
p3782
aVFELIX-2062
p3783
aVFELIX-2061
p3784
aVFELIX-2060
p3785
aVFELIX-2058
p3786
aVFELIX-2057
p3787
aVFELIX-2056
p3788
aVFELIX-2055
p3789
aVFELIX-2054
p3790
aVFELIX-2053
p3791
aVFELIX-2052
p3792
aVFELIX-2051
p3793
aVFELIX-2050
p3794
aVFELIX-2049
p3795
aVFELIX-2048
p3796
aVFELIX-2047
p3797
aVFELIX-2046
p3798
aVFELIX-2045
p3799
aVFELIX-2044
p3800
aVFELIX-2043
p3801
aVFELIX-2042
p3802
aVFELIX-2041
p3803
aVFELIX-2040
p3804
aVFELIX-2039
p3805
aVFELIX-2038
p3806
aVFELIX-2037
p3807
aVFELIX-2036
p3808
aVFELIX-2035
p3809
aVFELIX-2034
p3810
aVFELIX-2033
p3811
aVFELIX-2032
p3812
aVFELIX-2031
p3813
aVFELIX-2030
p3814
aVFELIX-2029
p3815
aVFELIX-2028
p3816
aVFELIX-2027
p3817
aVFELIX-2026
p3818
aVFELIX-2025
p3819
aVFELIX-2023
p3820
aVFELIX-2022
p3821
aVFELIX-2021
p3822
aVFELIX-2020
p3823
aVFELIX-2019
p3824
aVFELIX-2018
p3825
aVFELIX-2017
p3826
aVFELIX-2016
p3827
aVFELIX-2015
p3828
aVFELIX-2014
p3829
aVFELIX-2013
p3830
aVFELIX-2012
p3831
aVFELIX-2010
p3832
aVFELIX-2009
p3833
aVFELIX-2008
p3834
aVFELIX-2007
p3835
aVFELIX-2006
p3836
aVFELIX-2005
p3837
aVFELIX-2004
p3838
aVFELIX-2003
p3839
aVFELIX-2002
p3840
aVFELIX-2001
p3841
aVFELIX-2000
p3842
aVFELIX-1999
p3843
aVFELIX-1998
p3844
aVFELIX-1997
p3845
aVFELIX-1996
p3846
aVFELIX-1995
p3847
aVFELIX-1994
p3848
aVFELIX-1993
p3849
aVFELIX-1992
p3850
aVFELIX-1991
p3851
aVFELIX-1990
p3852
aVFELIX-1989
p3853
aVFELIX-1988
p3854
aVFELIX-1987
p3855
aVFELIX-1986
p3856
aVFELIX-1985
p3857
aVFELIX-1984
p3858
aVFELIX-1983
p3859
aVFELIX-1982
p3860
aVFELIX-1981
p3861
aVFELIX-1980
p3862
aVFELIX-1979
p3863
aVFELIX-1978
p3864
aVFELIX-1977
p3865
aVFELIX-1976
p3866
aVFELIX-1975
p3867
aVFELIX-1974
p3868
aVFELIX-1973
p3869
aVFELIX-1972
p3870
aVFELIX-1971
p3871
aVFELIX-1970
p3872
aVFELIX-1969
p3873
aVFELIX-1968
p3874
aVFELIX-1967
p3875
aVFELIX-1965
p3876
aVFELIX-1964
p3877
aVFELIX-1963
p3878
aVFELIX-1962
p3879
aVFELIX-1961
p3880
aVFELIX-1960
p3881
aVFELIX-1959
p3882
aVFELIX-1958
p3883
aVFELIX-1957
p3884
aVFELIX-1956
p3885
aVFELIX-1955
p3886
aVFELIX-1954
p3887
aVFELIX-1953
p3888
aVFELIX-1952
p3889
aVFELIX-1951
p3890
aVFELIX-1949
p3891
aVFELIX-1948
p3892
aVFELIX-1947
p3893
aVFELIX-1946
p3894
aVFELIX-1945
p3895
aVFELIX-1944
p3896
aVFELIX-1943
p3897
aVFELIX-1942
p3898
aVFELIX-1941
p3899
aVFELIX-1940
p3900
aVFELIX-1939
p3901
aVFELIX-1938
p3902
aVFELIX-1936
p3903
aVFELIX-1935
p3904
aVFELIX-1934
p3905
aVFELIX-1933
p3906
aVFELIX-1932
p3907
aVFELIX-1931
p3908
aVFELIX-1930
p3909
aVFELIX-1929
p3910
aVFELIX-1928
p3911
aVFELIX-1927
p3912
aVFELIX-1926
p3913
aVFELIX-1925
p3914
aVFELIX-1924
p3915
aVFELIX-1923
p3916
aVFELIX-1922
p3917
aVFELIX-1921
p3918
aVFELIX-1920
p3919
aVFELIX-1919
p3920
aVFELIX-1918
p3921
aVFELIX-1917
p3922
aVFELIX-1916
p3923
aVFELIX-1915
p3924
aVFELIX-1914
p3925
aVFELIX-1913
p3926
aVFELIX-1912
p3927
aVFELIX-1911
p3928
aVFELIX-1910
p3929
aVFELIX-1909
p3930
aVFELIX-1908
p3931
aVFELIX-1907
p3932
aVFELIX-1906
p3933
aVFELIX-1905
p3934
aVFELIX-1904
p3935
aVFELIX-1903
p3936
aVFELIX-1902
p3937
aVFELIX-1900
p3938
aVFELIX-1899
p3939
aVFELIX-1898
p3940
aVFELIX-1897
p3941
aVFELIX-1896
p3942
aVFELIX-1895
p3943
aVFELIX-1894
p3944
aVFELIX-1893
p3945
aVFELIX-1892
p3946
aVFELIX-1891
p3947
aVFELIX-1890
p3948
aVFELIX-1889
p3949
aVFELIX-1888
p3950
aVFELIX-1887
p3951
aVFELIX-1886
p3952
aVFELIX-1885
p3953
aVFELIX-1884
p3954
aVFELIX-1883
p3955
aVFELIX-1882
p3956
aVFELIX-1880
p3957
aVFELIX-1879
p3958
aVFELIX-1878
p3959
aVFELIX-1877
p3960
aVFELIX-1876
p3961
aVFELIX-1875
p3962
aVFELIX-1874
p3963
aVFELIX-1873
p3964
aVFELIX-1872
p3965
aVFELIX-1871
p3966
aVFELIX-1870
p3967
aVFELIX-1869
p3968
aVFELIX-1868
p3969
aVFELIX-1867
p3970
aVFELIX-1866
p3971
aVFELIX-1865
p3972
aVFELIX-1864
p3973
aVFELIX-1863
p3974
aVFELIX-1862
p3975
aVFELIX-1861
p3976
aVFELIX-1860
p3977
aVFELIX-1859
p3978
aVFELIX-1858
p3979
aVFELIX-1857
p3980
aVFELIX-1856
p3981
aVFELIX-1855
p3982
aVFELIX-1854
p3983
aVFELIX-1853
p3984
aVFELIX-1851
p3985
aVFELIX-1850
p3986
aVFELIX-1849
p3987
aVFELIX-1848
p3988
aVFELIX-1847
p3989
aVFELIX-1846
p3990
aVFELIX-1845
p3991
aVFELIX-1844
p3992
aVFELIX-1843
p3993
aVFELIX-1842
p3994
aVFELIX-1841
p3995
aVFELIX-1840
p3996
aVFELIX-1839
p3997
aVFELIX-1838
p3998
aVFELIX-1837
p3999
aVFELIX-1836
p4000
aVFELIX-1835
p4001
aVFELIX-1834
p4002
aVFELIX-1833
p4003
aVFELIX-1832
p4004
aVFELIX-1831
p4005
aVFELIX-1830
p4006
aVFELIX-1829
p4007
aVFELIX-1828
p4008
aVFELIX-1827
p4009
aVFELIX-1826
p4010
aVFELIX-1825
p4011
aVFELIX-1824
p4012
aVFELIX-1823
p4013
aVFELIX-1822
p4014
aVFELIX-1821
p4015
aVFELIX-1820
p4016
aVFELIX-1819
p4017
aVFELIX-1818
p4018
aVFELIX-1817
p4019
aVFELIX-1816
p4020
aVFELIX-1815
p4021
aVFELIX-1814
p4022
aVFELIX-1813
p4023
aVFELIX-1812
p4024
aVFELIX-1811
p4025
aVFELIX-1810
p4026
aVFELIX-1809
p4027
aVFELIX-1808
p4028
aVFELIX-1807
p4029
aVFELIX-1806
p4030
aVFELIX-1805
p4031
aVFELIX-1804
p4032
aVFELIX-1803
p4033
aVFELIX-1802
p4034
aVFELIX-1801
p4035
aVFELIX-1800
p4036
aVFELIX-1799
p4037
aVFELIX-1798
p4038
aVFELIX-1797
p4039
aVFELIX-1796
p4040
aVFELIX-1795
p4041
aVFELIX-1794
p4042
aVFELIX-1793
p4043
aVFELIX-1792
p4044
aVFELIX-1791
p4045
aVFELIX-1790
p4046
aVFELIX-1789
p4047
aVFELIX-1788
p4048
aVFELIX-1787
p4049
aVFELIX-1786
p4050
aVFELIX-1784
p4051
aVFELIX-1783
p4052
aVFELIX-1782
p4053
aVFELIX-1781
p4054
aVFELIX-1779
p4055
aVFELIX-1778
p4056
aVFELIX-1777
p4057
aVFELIX-1776
p4058
aVFELIX-1775
p4059
aVFELIX-1774
p4060
aVFELIX-1772
p4061
aVFELIX-1771
p4062
aVFELIX-1769
p4063
aVFELIX-1768
p4064
aVFELIX-1766
p4065
aVFELIX-1765
p4066
aVFELIX-1764
p4067
aVFELIX-1763
p4068
aVFELIX-1762
p4069
aVFELIX-1761
p4070
aVFELIX-1759
p4071
aVFELIX-1758
p4072
aVFELIX-1757
p4073
aVFELIX-1756
p4074
aVFELIX-1755
p4075
aVFELIX-1754
p4076
aVFELIX-1753
p4077
aVFELIX-1752
p4078
aVFELIX-1751
p4079
aVFELIX-1750
p4080
aVFELIX-1749
p4081
aVFELIX-1748
p4082
aVFELIX-1747
p4083
aVFELIX-1746
p4084
aVFELIX-1745
p4085
aVFELIX-1744
p4086
aVFELIX-1743
p4087
aVFELIX-1742
p4088
aVFELIX-1741
p4089
aVFELIX-1740
p4090
aVFELIX-1739
p4091
aVFELIX-1738
p4092
aVFELIX-1737
p4093
aVFELIX-1736
p4094
aVFELIX-1735
p4095
aVFELIX-1734
p4096
aVFELIX-1733
p4097
aVFELIX-1732
p4098
aVFELIX-1731
p4099
aVFELIX-1730
p4100
aVFELIX-1729
p4101
aVFELIX-1728
p4102
aVFELIX-1727
p4103
aVFELIX-1726
p4104
aVFELIX-1725
p4105
aVFELIX-1724
p4106
aVFELIX-1723
p4107
aVFELIX-1722
p4108
aVFELIX-1721
p4109
aVFELIX-1719
p4110
aVFELIX-1718
p4111
aVFELIX-1717
p4112
aVFELIX-1716
p4113
aVFELIX-1715
p4114
aVFELIX-1714
p4115
aVFELIX-1713
p4116
aVFELIX-1712
p4117
aVFELIX-1711
p4118
aVFELIX-1710
p4119
aVFELIX-1708
p4120
aVFELIX-1707
p4121
aVFELIX-1706
p4122
aVFELIX-1705
p4123
aVFELIX-1704
p4124
aVFELIX-1703
p4125
aVFELIX-1702
p4126
aVFELIX-1701
p4127
aVFELIX-1700
p4128
aVFELIX-1699
p4129
aVFELIX-1698
p4130
aVFELIX-1697
p4131
aVFELIX-1696
p4132
aVFELIX-1695
p4133
aVFELIX-1694
p4134
aVFELIX-1693
p4135
aVFELIX-1692
p4136
aVFELIX-1691
p4137
aVFELIX-1690
p4138
aVFELIX-1689
p4139
aVFELIX-1688
p4140
aVFELIX-1687
p4141
aVFELIX-1686
p4142
aVFELIX-1685
p4143
aVFELIX-1684
p4144
aVFELIX-1683
p4145
aVFELIX-1682
p4146
aVFELIX-1681
p4147
aVFELIX-1680
p4148
aVFELIX-1679
p4149
aVFELIX-1678
p4150
aVFELIX-1677
p4151
aVFELIX-1676
p4152
aVFELIX-1675
p4153
aVFELIX-1674
p4154
aVFELIX-1673
p4155
aVFELIX-1672
p4156
aVFELIX-1671
p4157
aVFELIX-1670
p4158
aVFELIX-1669
p4159
aVFELIX-1668
p4160
aVFELIX-1667
p4161
aVFELIX-1666
p4162
aVFELIX-1665
p4163
aVFELIX-1664
p4164
aVFELIX-1663
p4165
aVFELIX-1662
p4166
aVFELIX-1661
p4167
aVFELIX-1660
p4168
aVFELIX-1659
p4169
aVFELIX-1658
p4170
aVFELIX-1657
p4171
aVFELIX-1656
p4172
aVFELIX-1655
p4173
aVFELIX-1654
p4174
aVFELIX-1653
p4175
aVFELIX-1652
p4176
aVFELIX-1651
p4177
aVFELIX-1650
p4178
aVFELIX-1649
p4179
aVFELIX-1648
p4180
aVFELIX-1647
p4181
aVFELIX-1646
p4182
aVFELIX-1645
p4183
aVFELIX-1644
p4184
aVFELIX-1643
p4185
aVFELIX-1642
p4186
aVFELIX-1641
p4187
aVFELIX-1640
p4188
aVFELIX-1639
p4189
aVFELIX-1638
p4190
aVFELIX-1637
p4191
aVFELIX-1636
p4192
aVFELIX-1635
p4193
aVFELIX-1634
p4194
aVFELIX-1633
p4195
aVFELIX-1632
p4196
aVFELIX-1631
p4197
aVFELIX-1630
p4198
aVFELIX-1629
p4199
aVFELIX-1628
p4200
aVFELIX-1627
p4201
aVFELIX-1626
p4202
aVFELIX-1625
p4203
aVFELIX-1624
p4204
aVFELIX-1623
p4205
aVFELIX-1622
p4206
aVFELIX-1621
p4207
aVFELIX-1620
p4208
aVFELIX-1619
p4209
aVFELIX-1618
p4210
aVFELIX-1617
p4211
aVFELIX-1616
p4212
aVFELIX-1615
p4213
aVFELIX-1614
p4214
aVFELIX-1613
p4215
aVFELIX-1612
p4216
aVFELIX-1611
p4217
aVFELIX-1610
p4218
aVFELIX-1609
p4219
aVFELIX-1608
p4220
aVFELIX-1607
p4221
aVFELIX-1606
p4222
aVFELIX-1605
p4223
aVFELIX-1604
p4224
aVFELIX-1603
p4225
aVFELIX-1602
p4226
aVFELIX-1601
p4227
aVFELIX-1600
p4228
aVFELIX-1599
p4229
aVFELIX-1598
p4230
aVFELIX-1597
p4231
aVFELIX-1596
p4232
aVFELIX-1595
p4233
aVFELIX-1594
p4234
aVFELIX-1593
p4235
aVFELIX-1592
p4236
aVFELIX-1591
p4237
aVFELIX-1590
p4238
aVFELIX-1589
p4239
aVFELIX-1588
p4240
aVFELIX-1587
p4241
aVFELIX-1586
p4242
aVFELIX-1585
p4243
aVFELIX-1584
p4244
aVFELIX-1583
p4245
aVFELIX-1582
p4246
aVFELIX-1581
p4247
aVFELIX-1580
p4248
aVFELIX-1579
p4249
aVFELIX-1578
p4250
aVFELIX-1577
p4251
aVFELIX-1576
p4252
aVFELIX-1575
p4253
aVFELIX-1574
p4254
aVFELIX-1573
p4255
aVFELIX-1572
p4256
aVFELIX-1571
p4257
aVFELIX-1570
p4258
aVFELIX-1569
p4259
aVFELIX-1568
p4260
aVFELIX-1567
p4261
aVFELIX-1566
p4262
aVFELIX-1565
p4263
aVFELIX-1564
p4264
aVFELIX-1563
p4265
aVFELIX-1562
p4266
aVFELIX-1561
p4267
aVFELIX-1560
p4268
aVFELIX-1559
p4269
aVFELIX-1558
p4270
aVFELIX-1557
p4271
aVFELIX-1556
p4272
aVFELIX-1555
p4273
aVFELIX-1554
p4274
aVFELIX-1553
p4275
aVFELIX-1552
p4276
aVFELIX-1551
p4277
aVFELIX-1550
p4278
aVFELIX-1549
p4279
aVFELIX-1548
p4280
aVFELIX-1547
p4281
aVFELIX-1546
p4282
aVFELIX-1545
p4283
aVFELIX-1543
p4284
aVFELIX-1542
p4285
aVFELIX-1541
p4286
aVFELIX-1540
p4287
aVFELIX-1539
p4288
aVFELIX-1538
p4289
aVFELIX-1537
p4290
aVFELIX-1536
p4291
aVFELIX-1535
p4292
aVFELIX-1534
p4293
aVFELIX-1533
p4294
aVFELIX-1532
p4295
aVFELIX-1531
p4296
aVFELIX-1530
p4297
aVFELIX-1529
p4298
aVFELIX-1528
p4299
aVFELIX-1527
p4300
aVFELIX-1526
p4301
aVFELIX-1525
p4302
aVFELIX-1524
p4303
aVFELIX-1523
p4304
aVFELIX-1522
p4305
aVFELIX-1521
p4306
aVFELIX-1520
p4307
aVFELIX-1519
p4308
aVFELIX-1518
p4309
aVFELIX-1517
p4310
aVFELIX-1516
p4311
aVFELIX-1515
p4312
aVFELIX-1514
p4313
aVFELIX-1513
p4314
aVFELIX-1512
p4315
aVFELIX-1511
p4316
aVFELIX-1510
p4317
aVFELIX-1509
p4318
aVFELIX-1508
p4319
aVFELIX-1507
p4320
aVFELIX-1506
p4321
aVFELIX-1505
p4322
aVFELIX-1504
p4323
aVFELIX-1503
p4324
aVFELIX-1502
p4325
aVFELIX-1501
p4326
aVFELIX-1500
p4327
aVFELIX-1499
p4328
aVFELIX-1498
p4329
aVFELIX-1497
p4330
aVFELIX-1496
p4331
aVFELIX-1494
p4332
aVFELIX-1493
p4333
aVFELIX-1492
p4334
aVFELIX-1491
p4335
aVFELIX-1490
p4336
aVFELIX-1489
p4337
aVFELIX-1488
p4338
aVFELIX-1487
p4339
aVFELIX-1486
p4340
aVFELIX-1485
p4341
aVFELIX-1484
p4342
aVFELIX-1483
p4343
aVFELIX-1482
p4344
aVFELIX-1481
p4345
aVFELIX-1480
p4346
aVFELIX-1479
p4347
aVFELIX-1478
p4348
aVFELIX-1477
p4349
aVFELIX-1476
p4350
aVFELIX-1475
p4351
aVFELIX-1474
p4352
aVFELIX-1473
p4353
aVFELIX-1472
p4354
aVFELIX-1471
p4355
aVFELIX-1470
p4356
aVFELIX-1469
p4357
aVFELIX-1468
p4358
aVFELIX-1467
p4359
aVFELIX-1466
p4360
aVFELIX-1465
p4361
aVFELIX-1464
p4362
aVFELIX-1463
p4363
aVFELIX-1462
p4364
aVFELIX-1461
p4365
aVFELIX-1460
p4366
aVFELIX-1459
p4367
aVFELIX-1458
p4368
aVFELIX-1457
p4369
aVFELIX-1456
p4370
aVFELIX-1455
p4371
aVFELIX-1454
p4372
aVFELIX-1453
p4373
aVFELIX-1452
p4374
aVFELIX-1451
p4375
aVFELIX-1450
p4376
aVFELIX-1449
p4377
aVFELIX-1448
p4378
aVFELIX-1447
p4379
aVFELIX-1446
p4380
aVFELIX-1445
p4381
aVFELIX-1444
p4382
aVFELIX-1443
p4383
aVFELIX-1442
p4384
aVFELIX-1441
p4385
aVFELIX-1440
p4386
aVFELIX-1439
p4387
aVFELIX-1438
p4388
aVFELIX-1437
p4389
aVFELIX-1436
p4390
aVFELIX-1435
p4391
aVFELIX-1434
p4392
aVFELIX-1433
p4393
aVFELIX-1432
p4394
aVFELIX-1431
p4395
aVFELIX-1430
p4396
aVFELIX-1429
p4397
aVFELIX-1428
p4398
aVFELIX-1427
p4399
aVFELIX-1426
p4400
aVFELIX-1425
p4401
aVFELIX-1424
p4402
aVFELIX-1423
p4403
aVFELIX-1422
p4404
aVFELIX-1421
p4405
aVFELIX-1420
p4406
aVFELIX-1419
p4407
aVFELIX-1418
p4408
aVFELIX-1417
p4409
aVFELIX-1416
p4410
aVFELIX-1415
p4411
aVFELIX-1414
p4412
aVFELIX-1413
p4413
aVFELIX-1412
p4414
aVFELIX-1411
p4415
aVFELIX-1410
p4416
aVFELIX-1409
p4417
aVFELIX-1408
p4418
aVFELIX-1407
p4419
aVFELIX-1406
p4420
aVFELIX-1405
p4421
aVFELIX-1404
p4422
aVFELIX-1403
p4423
aVFELIX-1402
p4424
aVFELIX-1401
p4425
aVFELIX-1400
p4426
aVFELIX-1399
p4427
aVFELIX-1398
p4428
aVFELIX-1397
p4429
aVFELIX-1396
p4430
aVFELIX-1395
p4431
aVFELIX-1394
p4432
aVFELIX-1393
p4433
aVFELIX-1392
p4434
aVFELIX-1391
p4435
aVFELIX-1390
p4436
aVFELIX-1389
p4437
aVFELIX-1388
p4438
aVFELIX-1387
p4439
aVFELIX-1386
p4440
aVFELIX-1385
p4441
aVFELIX-1384
p4442
aVFELIX-1383
p4443
aVFELIX-1382
p4444
aVFELIX-1381
p4445
aVFELIX-1380
p4446
aVFELIX-1379
p4447
aVFELIX-1378
p4448
aVFELIX-1377
p4449
aVFELIX-1376
p4450
aVFELIX-1375
p4451
aVFELIX-1374
p4452
aVFELIX-1373
p4453
aVFELIX-1372
p4454
aVFELIX-1371
p4455
aVFELIX-1370
p4456
aVFELIX-1369
p4457
aVFELIX-1368
p4458
aVFELIX-1367
p4459
aVFELIX-1366
p4460
aVFELIX-1365
p4461
aVFELIX-1364
p4462
aVFELIX-1363
p4463
aVFELIX-1362
p4464
aVFELIX-1361
p4465
aVFELIX-1360
p4466
aVFELIX-1359
p4467
aVFELIX-1358
p4468
aVFELIX-1357
p4469
aVFELIX-1356
p4470
aVFELIX-1355
p4471
aVFELIX-1354
p4472
aVFELIX-1353
p4473
aVFELIX-1352
p4474
aVFELIX-1351
p4475
aVFELIX-1350
p4476
aVFELIX-1349
p4477
aVFELIX-1348
p4478
aVFELIX-1347
p4479
aVFELIX-1346
p4480
aVFELIX-1345
p4481
aVFELIX-1344
p4482
aVFELIX-1343
p4483
aVFELIX-1342
p4484
aVFELIX-1341
p4485
aVFELIX-1340
p4486
aVFELIX-1339
p4487
aVFELIX-1338
p4488
aVFELIX-1337
p4489
aVFELIX-1336
p4490
aVFELIX-1335
p4491
aVFELIX-1334
p4492
aVFELIX-1333
p4493
aVFELIX-1332
p4494
aVFELIX-1331
p4495
aVFELIX-1330
p4496
aVFELIX-1329
p4497
aVFELIX-1328
p4498
aVFELIX-1327
p4499
aVFELIX-1326
p4500
aVFELIX-1325
p4501
aVFELIX-1324
p4502
aVFELIX-1323
p4503
aVFELIX-1322
p4504
aVFELIX-1320
p4505
aVFELIX-1319
p4506
aVFELIX-1318
p4507
aVFELIX-1317
p4508
aVFELIX-1315
p4509
aVFELIX-1314
p4510
aVFELIX-1313
p4511
aVFELIX-1312
p4512
aVFELIX-1311
p4513
aVFELIX-1310
p4514
aVFELIX-1308
p4515
aVFELIX-1307
p4516
aVFELIX-1306
p4517
aVFELIX-1305
p4518
aVFELIX-1304
p4519
aVFELIX-1302
p4520
aVFELIX-1301
p4521
aVFELIX-1300
p4522
aVFELIX-1299
p4523
aVFELIX-1298
p4524
aVFELIX-1297
p4525
aVFELIX-1296
p4526
aVFELIX-1295
p4527
aVFELIX-1294
p4528
aVFELIX-1293
p4529
aVFELIX-1292
p4530
aVFELIX-1291
p4531
aVFELIX-1290
p4532
aVFELIX-1289
p4533
aVFELIX-1288
p4534
aVFELIX-1287
p4535
aVFELIX-1286
p4536
aVFELIX-1285
p4537
aVFELIX-1284
p4538
aVFELIX-1283
p4539
aVFELIX-1282
p4540
aVFELIX-1281
p4541
aVFELIX-1280
p4542
aVFELIX-1279
p4543
aVFELIX-1278
p4544
aVFELIX-1277
p4545
aVFELIX-1276
p4546
aVFELIX-1275
p4547
aVFELIX-1274
p4548
aVFELIX-1273
p4549
aVFELIX-1272
p4550
aVFELIX-1271
p4551
aVFELIX-1270
p4552
aVFELIX-1269
p4553
aVFELIX-1268
p4554
aVFELIX-1267
p4555
aVFELIX-1266
p4556
aVFELIX-1265
p4557
aVFELIX-1264
p4558
aVFELIX-1263
p4559
aVFELIX-1262
p4560
aVFELIX-1261
p4561
aVFELIX-1260
p4562
aVFELIX-1259
p4563
aVFELIX-1258
p4564
aVFELIX-1257
p4565
aVFELIX-1256
p4566
aVFELIX-1255
p4567
aVFELIX-1254
p4568
aVFELIX-1253
p4569
aVFELIX-1252
p4570
aVFELIX-1251
p4571
aVFELIX-1250
p4572
aVFELIX-1249
p4573
aVFELIX-1247
p4574
aVFELIX-1246
p4575
aVFELIX-1245
p4576
aVFELIX-1244
p4577
aVFELIX-1243
p4578
aVFELIX-1242
p4579
aVFELIX-1241
p4580
aVFELIX-1240
p4581
aVFELIX-1239
p4582
aVFELIX-1238
p4583
aVFELIX-1237
p4584
aVFELIX-1236
p4585
aVFELIX-1235
p4586
aVFELIX-1234
p4587
aVFELIX-1233
p4588
aVFELIX-1232
p4589
aVFELIX-1231
p4590
aVFELIX-1230
p4591
aVFELIX-1229
p4592
aVFELIX-1228
p4593
aVFELIX-1227
p4594
aVFELIX-1226
p4595
aVFELIX-1225
p4596
aVFELIX-1224
p4597
aVFELIX-1223
p4598
aVFELIX-1222
p4599
aVFELIX-1221
p4600
aVFELIX-1220
p4601
aVFELIX-1219
p4602
aVFELIX-1218
p4603
aVFELIX-1217
p4604
aVFELIX-1216
p4605
aVFELIX-1215
p4606
aVFELIX-1214
p4607
aVFELIX-1213
p4608
aVFELIX-1212
p4609
aVFELIX-1211
p4610
aVFELIX-1210
p4611
aVFELIX-1209
p4612
aVFELIX-1208
p4613
aVFELIX-1207
p4614
aVFELIX-1206
p4615
aVFELIX-1205
p4616
aVFELIX-1204
p4617
aVFELIX-1203
p4618
aVFELIX-1202
p4619
aVFELIX-1201
p4620
aVFELIX-1200
p4621
aVFELIX-1199
p4622
aVFELIX-1198
p4623
aVFELIX-1197
p4624
aVFELIX-1196
p4625
aVFELIX-1195
p4626
aVFELIX-1194
p4627
aVFELIX-1193
p4628
aVFELIX-1192
p4629
aVFELIX-1191
p4630
aVFELIX-1190
p4631
aVFELIX-1189
p4632
aVFELIX-1188
p4633
aVFELIX-1187
p4634
aVFELIX-1186
p4635
aVFELIX-1185
p4636
aVFELIX-1184
p4637
aVFELIX-1183
p4638
aVFELIX-1182
p4639
aVFELIX-1181
p4640
aVFELIX-1180
p4641
aVFELIX-1179
p4642
aVFELIX-1178
p4643
aVFELIX-1177
p4644
aVFELIX-1176
p4645
aVFELIX-1175
p4646
aVFELIX-1174
p4647
aVFELIX-1173
p4648
aVFELIX-1172
p4649
aVFELIX-1171
p4650
aVFELIX-1170
p4651
aVFELIX-1169
p4652
aVFELIX-1168
p4653
aVFELIX-1167
p4654
aVFELIX-1166
p4655
aVFELIX-1165
p4656
aVFELIX-1164
p4657
aVFELIX-1163
p4658
aVFELIX-1162
p4659
aVFELIX-1161
p4660
aVFELIX-1160
p4661
aVFELIX-1159
p4662
aVFELIX-1158
p4663
aVFELIX-1157
p4664
aVFELIX-1156
p4665
aVFELIX-1155
p4666
aVFELIX-1154
p4667
aVFELIX-1153
p4668
aVFELIX-1152
p4669
aVFELIX-1151
p4670
aVFELIX-1150
p4671
aVFELIX-1149
p4672
aVFELIX-1148
p4673
aVFELIX-1146
p4674
aVFELIX-1145
p4675
aVFELIX-1144
p4676
aVFELIX-1143
p4677
aVFELIX-1142
p4678
aVFELIX-1141
p4679
aVFELIX-1140
p4680
aVFELIX-1139
p4681
aVFELIX-1138
p4682
aVFELIX-1137
p4683
aVFELIX-1136
p4684
aVFELIX-1135
p4685
aVFELIX-1134
p4686
aVFELIX-1133
p4687
aVFELIX-1132
p4688
aVFELIX-1131
p4689
aVFELIX-1130
p4690
aVFELIX-1129
p4691
aVFELIX-1128
p4692
aVFELIX-1127
p4693
aVFELIX-1126
p4694
aVFELIX-1125
p4695
aVFELIX-1124
p4696
aVFELIX-1123
p4697
aVFELIX-1122
p4698
aVFELIX-1121
p4699
aVFELIX-1120
p4700
aVFELIX-1119
p4701
aVFELIX-1118
p4702
aVFELIX-1117
p4703
aVFELIX-1116
p4704
aVFELIX-1115
p4705
aVFELIX-1114
p4706
aVFELIX-1112
p4707
aVFELIX-1111
p4708
aVFELIX-1110
p4709
aVFELIX-1109
p4710
aVFELIX-1107
p4711
aVFELIX-1104
p4712
aVFELIX-1103
p4713
aVFELIX-1102
p4714
aVFELIX-1101
p4715
aVFELIX-1100
p4716
aVFELIX-1099
p4717
aVFELIX-1098
p4718
aVFELIX-1097
p4719
aVFELIX-1095
p4720
aVFELIX-1092
p4721
aVFELIX-1091
p4722
aVFELIX-1087
p4723
aVFELIX-1086
p4724
aVFELIX-1079
p4725
aVFELIX-1076
p4726
aVFELIX-1075
p4727
aVFELIX-1066
p4728
aVFELIX-1064
p4729
aVFELIX-1063
p4730
aVFELIX-1062
p4731
aVFELIX-1061
p4732
aVFELIX-1060
p4733
aVFELIX-1059
p4734
aVFELIX-1058
p4735
aVFELIX-1057
p4736
aVFELIX-1056
p4737
aVFELIX-1055
p4738
aVFELIX-1054
p4739
aVFELIX-1053
p4740
aVFELIX-1052
p4741
aVFELIX-1051
p4742
aVFELIX-1050
p4743
aVFELIX-1049
p4744
aVFELIX-1048
p4745
aVFELIX-1047
p4746
aVFELIX-1046
p4747
aVFELIX-1045
p4748
aVFELIX-1044
p4749
aVFELIX-1043
p4750
aVFELIX-1042
p4751
aVFELIX-1041
p4752
aVFELIX-1040
p4753
aVFELIX-1039
p4754
aVFELIX-1038
p4755
aVFELIX-1037
p4756
aVFELIX-1036
p4757
aVFELIX-1035
p4758
aVFELIX-1034
p4759
aVFELIX-1033
p4760
aVFELIX-1032
p4761
aVFELIX-1031
p4762
aVFELIX-1030
p4763
aVFELIX-1029
p4764
aVFELIX-1028
p4765
aVFELIX-1027
p4766
aVFELIX-1026
p4767
aVFELIX-1025
p4768
aVFELIX-1024
p4769
aVFELIX-1023
p4770
aVFELIX-1022
p4771
aVFELIX-1021
p4772
aVFELIX-1020
p4773
aVFELIX-1019
p4774
aVFELIX-1018
p4775
aVFELIX-1017
p4776
aVFELIX-1016
p4777
aVFELIX-1015
p4778
aVFELIX-1014
p4779
aVFELIX-1013
p4780
aVFELIX-1012
p4781
aVFELIX-1011
p4782
aVFELIX-1010
p4783
aVFELIX-1009
p4784
aVFELIX-1008
p4785
aVFELIX-1007
p4786
aVFELIX-1006
p4787
aVFELIX-1005
p4788
aVFELIX-1004
p4789
aVFELIX-1003
p4790
aVFELIX-1002
p4791
aVFELIX-1001
p4792
aVFELIX-1000
p4793
aVFELIX-999
p4794
aVFELIX-998
p4795
aVFELIX-997
p4796
aVFELIX-996
p4797
aVFELIX-995
p4798
aVFELIX-994
p4799
aVFELIX-993
p4800
aVFELIX-992
p4801
aVFELIX-991
p4802
aVFELIX-990
p4803
aVFELIX-989
p4804
aVFELIX-988
p4805
aVFELIX-987
p4806
aVFELIX-986
p4807
aVFELIX-985
p4808
aVFELIX-984
p4809
aVFELIX-983
p4810
aVFELIX-982
p4811
aVFELIX-981
p4812
aVFELIX-980
p4813
aVFELIX-979
p4814
aVFELIX-978
p4815
aVFELIX-977
p4816
aVFELIX-976
p4817
aVFELIX-975
p4818
aVFELIX-974
p4819
aVFELIX-973
p4820
aVFELIX-972
p4821
aVFELIX-971
p4822
aVFELIX-970
p4823
aVFELIX-969
p4824
aVFELIX-968
p4825
aVFELIX-967
p4826
aVFELIX-966
p4827
aVFELIX-965
p4828
aVFELIX-964
p4829
aVFELIX-963
p4830
aVFELIX-962
p4831
aVFELIX-961
p4832
aVFELIX-960
p4833
aVFELIX-959
p4834
aVFELIX-958
p4835
aVFELIX-957
p4836
aVFELIX-956
p4837
aVFELIX-955
p4838
aVFELIX-954
p4839
aVFELIX-953
p4840
aVFELIX-952
p4841
aVFELIX-951
p4842
aVFELIX-950
p4843
aVFELIX-949
p4844
aVFELIX-948
p4845
aVFELIX-947
p4846
aVFELIX-946
p4847
aVFELIX-945
p4848
aVFELIX-944
p4849
aVFELIX-943
p4850
aVFELIX-942
p4851
aVFELIX-941
p4852
aVFELIX-940
p4853
aVFELIX-939
p4854
aVFELIX-938
p4855
aVFELIX-937
p4856
aVFELIX-936
p4857
aVFELIX-935
p4858
aVFELIX-934
p4859
aVFELIX-933
p4860
aVFELIX-932
p4861
aVFELIX-931
p4862
aVFELIX-930
p4863
aVFELIX-929
p4864
aVFELIX-928
p4865
aVFELIX-927
p4866
aVFELIX-926
p4867
aVFELIX-925
p4868
aVFELIX-924
p4869
aVFELIX-923
p4870
aVFELIX-922
p4871
aVFELIX-921
p4872
aVFELIX-920
p4873
aVFELIX-919
p4874
aVFELIX-918
p4875
aVFELIX-917
p4876
aVFELIX-916
p4877
aVFELIX-915
p4878
aVFELIX-914
p4879
aVFELIX-913
p4880
aVFELIX-912
p4881
aVFELIX-911
p4882
aVFELIX-910
p4883
aVFELIX-909
p4884
aVFELIX-908
p4885
aVFELIX-907
p4886
aVFELIX-906
p4887
aVFELIX-905
p4888
aVFELIX-904
p4889
aVFELIX-903
p4890
aVFELIX-902
p4891
aVFELIX-901
p4892
aVFELIX-900
p4893
aVFELIX-899
p4894
aVFELIX-898
p4895
aVFELIX-897
p4896
aVFELIX-896
p4897
aVFELIX-895
p4898
aVFELIX-894
p4899
aVFELIX-893
p4900
aVFELIX-892
p4901
aVFELIX-891
p4902
aVFELIX-890
p4903
aVFELIX-889
p4904
aVFELIX-888
p4905
aVFELIX-887
p4906
aVFELIX-886
p4907
aVFELIX-885
p4908
aVFELIX-884
p4909
aVFELIX-883
p4910
aVFELIX-882
p4911
aVFELIX-881
p4912
aVFELIX-880
p4913
aVFELIX-879
p4914
aVFELIX-878
p4915
aVFELIX-877
p4916
aVFELIX-876
p4917
aVFELIX-875
p4918
aVFELIX-874
p4919
aVFELIX-873
p4920
aVFELIX-872
p4921
aVFELIX-871
p4922
aVFELIX-870
p4923
aVFELIX-869
p4924
aVFELIX-868
p4925
aVFELIX-867
p4926
aVFELIX-866
p4927
aVFELIX-865
p4928
aVFELIX-864
p4929
aVFELIX-863
p4930
aVFELIX-862
p4931
aVFELIX-861
p4932
aVFELIX-860
p4933
aVFELIX-859
p4934
aVFELIX-858
p4935
aVFELIX-857
p4936
aVFELIX-856
p4937
aVFELIX-855
p4938
aVFELIX-854
p4939
aVFELIX-853
p4940
aVFELIX-852
p4941
aVFELIX-851
p4942
aVFELIX-850
p4943
aVFELIX-849
p4944
aVFELIX-848
p4945
aVFELIX-847
p4946
aVFELIX-846
p4947
aVFELIX-845
p4948
aVFELIX-844
p4949
aVFELIX-843
p4950
aVFELIX-842
p4951
aVFELIX-841
p4952
aVFELIX-840
p4953
aVFELIX-839
p4954
aVFELIX-838
p4955
aVFELIX-837
p4956
aVFELIX-836
p4957
aVFELIX-835
p4958
aVFELIX-834
p4959
aVFELIX-833
p4960
aVFELIX-832
p4961
aVFELIX-831
p4962
aVFELIX-830
p4963
aVFELIX-829
p4964
aVFELIX-828
p4965
aVFELIX-827
p4966
aVFELIX-826
p4967
aVFELIX-825
p4968
aVFELIX-824
p4969
aVFELIX-823
p4970
aVFELIX-822
p4971
aVFELIX-821
p4972
aVFELIX-820
p4973
aVFELIX-819
p4974
aVFELIX-818
p4975
aVFELIX-817
p4976
aVFELIX-816
p4977
aVFELIX-815
p4978
aVFELIX-814
p4979
aVFELIX-813
p4980
aVFELIX-812
p4981
aVFELIX-811
p4982
aVFELIX-810
p4983
aVFELIX-809
p4984
aVFELIX-808
p4985
aVFELIX-807
p4986
aVFELIX-806
p4987
aVFELIX-805
p4988
aVFELIX-804
p4989
aVFELIX-803
p4990
aVFELIX-802
p4991
aVFELIX-801
p4992
aVFELIX-800
p4993
aVFELIX-799
p4994
aVFELIX-798
p4995
aVFELIX-797
p4996
aVFELIX-796
p4997
aVFELIX-795
p4998
aVFELIX-794
p4999
aVFELIX-793
p5000
aVFELIX-792
p5001
aVFELIX-791
p5002
aVFELIX-790
p5003
aVFELIX-789
p5004
aVFELIX-788
p5005
aVFELIX-787
p5006
aVFELIX-786
p5007
aVFELIX-785
p5008
aVFELIX-784
p5009
aVFELIX-783
p5010
aVFELIX-782
p5011
aVFELIX-781
p5012
aVFELIX-780
p5013
aVFELIX-779
p5014
aVFELIX-778
p5015
aVFELIX-777
p5016
aVFELIX-776
p5017
aVFELIX-775
p5018
aVFELIX-774
p5019
aVFELIX-773
p5020
aVFELIX-772
p5021
aVFELIX-771
p5022
aVFELIX-770
p5023
aVFELIX-769
p5024
aVFELIX-768
p5025
aVFELIX-767
p5026
aVFELIX-766
p5027
aVFELIX-765
p5028
aVFELIX-764
p5029
aVFELIX-763
p5030
aVFELIX-762
p5031
aVFELIX-761
p5032
aVFELIX-760
p5033
aVFELIX-759
p5034
aVFELIX-758
p5035
aVFELIX-757
p5036
aVFELIX-756
p5037
aVFELIX-755
p5038
aVFELIX-754
p5039
aVFELIX-753
p5040
aVFELIX-752
p5041
aVFELIX-751
p5042
aVFELIX-750
p5043
aVFELIX-749
p5044
aVFELIX-748
p5045
aVFELIX-747
p5046
aVFELIX-746
p5047
aVFELIX-745
p5048
aVFELIX-744
p5049
aVFELIX-743
p5050
aVFELIX-742
p5051
aVFELIX-741
p5052
aVFELIX-740
p5053
aVFELIX-739
p5054
aVFELIX-738
p5055
aVFELIX-737
p5056
aVFELIX-736
p5057
aVFELIX-735
p5058
aVFELIX-734
p5059
aVFELIX-733
p5060
aVFELIX-732
p5061
aVFELIX-731
p5062
aVFELIX-730
p5063
aVFELIX-729
p5064
aVFELIX-728
p5065
aVFELIX-727
p5066
aVFELIX-726
p5067
aVFELIX-725
p5068
aVFELIX-724
p5069
aVFELIX-723
p5070
aVFELIX-722
p5071
aVFELIX-721
p5072
aVFELIX-720
p5073
aVFELIX-719
p5074
aVFELIX-718
p5075
aVFELIX-717
p5076
aVFELIX-716
p5077
aVFELIX-715
p5078
aVFELIX-714
p5079
aVFELIX-713
p5080
aVFELIX-712
p5081
aVFELIX-711
p5082
aVFELIX-710
p5083
aVFELIX-709
p5084
aVFELIX-708
p5085
aVFELIX-707
p5086
aVFELIX-706
p5087
aVFELIX-705
p5088
aVFELIX-704
p5089
aVFELIX-703
p5090
aVFELIX-702
p5091
aVFELIX-701
p5092
aVFELIX-700
p5093
aVFELIX-699
p5094
aVFELIX-698
p5095
aVFELIX-697
p5096
aVFELIX-696
p5097
aVFELIX-695
p5098
aVFELIX-694
p5099
aVFELIX-693
p5100
aVFELIX-692
p5101
aVFELIX-691
p5102
aVFELIX-690
p5103
aVFELIX-689
p5104
aVFELIX-688
p5105
aVFELIX-687
p5106
aVFELIX-686
p5107
aVFELIX-685
p5108
aVFELIX-684
p5109
aVFELIX-683
p5110
aVFELIX-682
p5111
aVFELIX-681
p5112
aVFELIX-680
p5113
aVFELIX-679
p5114
aVFELIX-678
p5115
aVFELIX-677
p5116
aVFELIX-676
p5117
aVFELIX-675
p5118
aVFELIX-674
p5119
aVFELIX-673
p5120
aVFELIX-672
p5121
aVFELIX-671
p5122
aVFELIX-670
p5123
aVFELIX-669
p5124
aVFELIX-668
p5125
aVFELIX-667
p5126
aVFELIX-666
p5127
aVFELIX-665
p5128
aVFELIX-664
p5129
aVFELIX-663
p5130
aVFELIX-662
p5131
aVFELIX-661
p5132
aVFELIX-660
p5133
aVFELIX-659
p5134
aVFELIX-658
p5135
aVFELIX-657
p5136
aVFELIX-656
p5137
aVFELIX-655
p5138
aVFELIX-654
p5139
aVFELIX-653
p5140
aVFELIX-652
p5141
aVFELIX-651
p5142
aVFELIX-650
p5143
aVFELIX-649
p5144
aVFELIX-648
p5145
aVFELIX-647
p5146
aVFELIX-646
p5147
aVFELIX-645
p5148
aVFELIX-644
p5149
aVFELIX-643
p5150
aVFELIX-642
p5151
aVFELIX-641
p5152
aVFELIX-640
p5153
aVFELIX-639
p5154
aVFELIX-638
p5155
aVFELIX-637
p5156
aVFELIX-636
p5157
aVFELIX-635
p5158
aVFELIX-634
p5159
aVFELIX-633
p5160
aVFELIX-632
p5161
aVFELIX-631
p5162
aVFELIX-630
p5163
aVFELIX-629
p5164
aVFELIX-628
p5165
aVFELIX-627
p5166
aVFELIX-626
p5167
aVFELIX-625
p5168
aVFELIX-624
p5169
aVFELIX-623
p5170
aVFELIX-622
p5171
aVFELIX-621
p5172
aVFELIX-620
p5173
aVFELIX-619
p5174
aVFELIX-618
p5175
aVFELIX-617
p5176
aVFELIX-616
p5177
aVFELIX-615
p5178
aVFELIX-614
p5179
aVFELIX-613
p5180
aVFELIX-612
p5181
aVFELIX-611
p5182
aVFELIX-610
p5183
aVFELIX-609
p5184
aVFELIX-608
p5185
aVFELIX-607
p5186
aVFELIX-606
p5187
aVFELIX-605
p5188
aVFELIX-604
p5189
aVFELIX-603
p5190
aVFELIX-602
p5191
aVFELIX-601
p5192
aVFELIX-600
p5193
aVFELIX-599
p5194
aVFELIX-598
p5195
aVFELIX-597
p5196
aVFELIX-596
p5197
aVFELIX-595
p5198
aVFELIX-594
p5199
aVFELIX-593
p5200
aVFELIX-592
p5201
aVFELIX-591
p5202
aVFELIX-590
p5203
aVFELIX-589
p5204
aVFELIX-588
p5205
aVFELIX-587
p5206
aVFELIX-586
p5207
aVFELIX-585
p5208
aVFELIX-584
p5209
aVFELIX-583
p5210
aVFELIX-582
p5211
aVFELIX-581
p5212
aVFELIX-580
p5213
aVFELIX-579
p5214
aVFELIX-578
p5215
aVFELIX-577
p5216
aVFELIX-576
p5217
aVFELIX-575
p5218
aVFELIX-574
p5219
aVFELIX-573
p5220
aVFELIX-572
p5221
aVFELIX-571
p5222
aVFELIX-570
p5223
aVFELIX-569
p5224
aVFELIX-568
p5225
aVFELIX-567
p5226
aVFELIX-566
p5227
aVFELIX-565
p5228
aVFELIX-564
p5229
aVFELIX-563
p5230
aVFELIX-562
p5231
aVFELIX-561
p5232
aVFELIX-560
p5233
aVFELIX-559
p5234
aVFELIX-558
p5235
aVFELIX-557
p5236
aVFELIX-556
p5237
aVFELIX-555
p5238
aVFELIX-554
p5239
aVFELIX-553
p5240
aVFELIX-552
p5241
aVFELIX-551
p5242
aVFELIX-550
p5243
aVFELIX-549
p5244
aVFELIX-548
p5245
aVFELIX-547
p5246
aVFELIX-546
p5247
aVFELIX-545
p5248
aVFELIX-544
p5249
aVFELIX-543
p5250
aVFELIX-542
p5251
aVFELIX-541
p5252
aVFELIX-540
p5253
aVFELIX-539
p5254
aVFELIX-538
p5255
aVFELIX-537
p5256
aVFELIX-536
p5257
aVFELIX-535
p5258
aVFELIX-534
p5259
aVFELIX-533
p5260
aVFELIX-532
p5261
aVFELIX-531
p5262
aVFELIX-530
p5263
aVFELIX-529
p5264
aVFELIX-528
p5265
aVFELIX-527
p5266
aVFELIX-526
p5267
aVFELIX-525
p5268
aVFELIX-524
p5269
aVFELIX-523
p5270
aVFELIX-522
p5271
aVFELIX-521
p5272
aVFELIX-520
p5273
aVFELIX-519
p5274
aVFELIX-518
p5275
aVFELIX-517
p5276
aVFELIX-516
p5277
aVFELIX-515
p5278
aVFELIX-514
p5279
aVFELIX-513
p5280
aVFELIX-512
p5281
aVFELIX-511
p5282
aVFELIX-510
p5283
aVFELIX-509
p5284
aVFELIX-508
p5285
aVFELIX-507
p5286
aVFELIX-506
p5287
aVFELIX-505
p5288
aVFELIX-504
p5289
aVFELIX-503
p5290
aVFELIX-502
p5291
aVFELIX-501
p5292
aVFELIX-500
p5293
aVFELIX-499
p5294
aVFELIX-498
p5295
aVFELIX-497
p5296
aVFELIX-496
p5297
aVFELIX-495
p5298
aVFELIX-494
p5299
aVFELIX-493
p5300
aVFELIX-492
p5301
aVFELIX-491
p5302
aVFELIX-490
p5303
aVFELIX-489
p5304
aVFELIX-488
p5305
aVFELIX-487
p5306
aVFELIX-486
p5307
aVFELIX-485
p5308
aVFELIX-484
p5309
aVFELIX-483
p5310
aVFELIX-482
p5311
aVFELIX-481
p5312
aVFELIX-480
p5313
aVFELIX-479
p5314
aVFELIX-478
p5315
aVFELIX-477
p5316
aVFELIX-476
p5317
aVFELIX-475
p5318
aVFELIX-474
p5319
aVFELIX-473
p5320
aVFELIX-472
p5321
aVFELIX-471
p5322
aVFELIX-470
p5323
aVFELIX-469
p5324
aVFELIX-468
p5325
aVFELIX-467
p5326
aVFELIX-466
p5327
aVFELIX-465
p5328
aVFELIX-464
p5329
aVFELIX-463
p5330
aVFELIX-462
p5331
aVFELIX-461
p5332
aVFELIX-460
p5333
aVFELIX-459
p5334
aVFELIX-458
p5335
aVFELIX-457
p5336
aVFELIX-456
p5337
aVFELIX-455
p5338
aVFELIX-454
p5339
aVFELIX-453
p5340
aVFELIX-452
p5341
aVFELIX-451
p5342
aVFELIX-450
p5343
aVFELIX-449
p5344
aVFELIX-448
p5345
aVFELIX-447
p5346
aVFELIX-446
p5347
aVFELIX-445
p5348
aVFELIX-444
p5349
aVFELIX-443
p5350
aVFELIX-442
p5351
aVFELIX-441
p5352
aVFELIX-440
p5353
aVFELIX-439
p5354
aVFELIX-438
p5355
aVFELIX-437
p5356
aVFELIX-436
p5357
aVFELIX-435
p5358
aVFELIX-434
p5359
aVFELIX-433
p5360
aVFELIX-432
p5361
aVFELIX-431
p5362
aVFELIX-430
p5363
aVFELIX-429
p5364
aVFELIX-428
p5365
aVFELIX-427
p5366
aVFELIX-426
p5367
aVFELIX-425
p5368
aVFELIX-424
p5369
aVFELIX-423
p5370
aVFELIX-422
p5371
aVFELIX-421
p5372
aVFELIX-420
p5373
aVFELIX-419
p5374
aVFELIX-418
p5375
aVFELIX-417
p5376
aVFELIX-416
p5377
aVFELIX-415
p5378
aVFELIX-414
p5379
aVFELIX-413
p5380
aVFELIX-412
p5381
aVFELIX-411
p5382
aVFELIX-410
p5383
aVFELIX-409
p5384
aVFELIX-408
p5385
aVFELIX-407
p5386
aVFELIX-406
p5387
aVFELIX-405
p5388
aVFELIX-404
p5389
aVFELIX-403
p5390
aVFELIX-402
p5391
aVFELIX-401
p5392
aVFELIX-400
p5393
aVFELIX-399
p5394
aVFELIX-398
p5395
aVFELIX-397
p5396
aVFELIX-396
p5397
aVFELIX-395
p5398
aVFELIX-394
p5399
aVFELIX-393
p5400
aVFELIX-392
p5401
aVFELIX-391
p5402
aVFELIX-390
p5403
aVFELIX-389
p5404
aVFELIX-388
p5405
aVFELIX-387
p5406
aVFELIX-386
p5407
aVFELIX-385
p5408
aVFELIX-384
p5409
aVFELIX-383
p5410
aVFELIX-382
p5411
aVFELIX-381
p5412
aVFELIX-380
p5413
aVFELIX-379
p5414
aVFELIX-378
p5415
aVFELIX-377
p5416
aVFELIX-376
p5417
aVFELIX-375
p5418
aVFELIX-374
p5419
aVFELIX-373
p5420
aVFELIX-372
p5421
aVFELIX-371
p5422
aVFELIX-370
p5423
aVFELIX-369
p5424
aVFELIX-368
p5425
aVFELIX-367
p5426
aVFELIX-366
p5427
aVFELIX-365
p5428
aVFELIX-364
p5429
aVFELIX-363
p5430
aVFELIX-362
p5431
aVFELIX-361
p5432
aVFELIX-360
p5433
aVFELIX-359
p5434
aVFELIX-358
p5435
aVFELIX-357
p5436
aVFELIX-356
p5437
aVFELIX-355
p5438
aVFELIX-354
p5439
aVFELIX-353
p5440
aVFELIX-352
p5441
aVFELIX-351
p5442
aVFELIX-350
p5443
aVFELIX-349
p5444
aVFELIX-348
p5445
aVFELIX-347
p5446
aVFELIX-346
p5447
aVFELIX-345
p5448
aVFELIX-344
p5449
aVFELIX-343
p5450
aVFELIX-342
p5451
aVFELIX-341
p5452
aVFELIX-340
p5453
aVFELIX-339
p5454
aVFELIX-338
p5455
aVFELIX-337
p5456
aVFELIX-336
p5457
aVFELIX-335
p5458
aVFELIX-334
p5459
aVFELIX-333
p5460
aVFELIX-332
p5461
aVFELIX-331
p5462
aVFELIX-330
p5463
aVFELIX-329
p5464
aVFELIX-328
p5465
aVFELIX-327
p5466
aVFELIX-326
p5467
aVFELIX-325
p5468
aVFELIX-324
p5469
aVFELIX-323
p5470
aVFELIX-322
p5471
aVFELIX-321
p5472
aVFELIX-320
p5473
aVFELIX-319
p5474
aVFELIX-318
p5475
aVFELIX-317
p5476
aVFELIX-316
p5477
aVFELIX-315
p5478
aVFELIX-314
p5479
aVFELIX-313
p5480
aVFELIX-312
p5481
aVFELIX-311
p5482
aVFELIX-310
p5483
aVFELIX-309
p5484
aVFELIX-308
p5485
aVFELIX-307
p5486
aVFELIX-306
p5487
aVFELIX-305
p5488
aVFELIX-304
p5489
aVFELIX-303
p5490
aVFELIX-302
p5491
aVFELIX-301
p5492
aVFELIX-300
p5493
aVFELIX-299
p5494
aVFELIX-298
p5495
aVFELIX-297
p5496
aVFELIX-296
p5497
aVFELIX-295
p5498
aVFELIX-294
p5499
aVFELIX-293
p5500
aVFELIX-292
p5501
aVFELIX-291
p5502
aVFELIX-290
p5503
aVFELIX-289
p5504
aVFELIX-288
p5505
aVFELIX-287
p5506
aVFELIX-286
p5507
aVFELIX-285
p5508
aVFELIX-284
p5509
aVFELIX-283
p5510
aVFELIX-282
p5511
aVFELIX-281
p5512
aVFELIX-280
p5513
aVFELIX-279
p5514
aVFELIX-278
p5515
aVFELIX-277
p5516
aVFELIX-276
p5517
aVFELIX-275
p5518
aVFELIX-274
p5519
aVFELIX-273
p5520
aVFELIX-272
p5521
aVFELIX-271
p5522
aVFELIX-270
p5523
aVFELIX-269
p5524
aVFELIX-268
p5525
aVFELIX-267
p5526
aVFELIX-266
p5527
aVFELIX-265
p5528
aVFELIX-264
p5529
aVFELIX-263
p5530
aVFELIX-262
p5531
aVFELIX-261
p5532
aVFELIX-260
p5533
aVFELIX-259
p5534
aVFELIX-258
p5535
aVFELIX-257
p5536
aVFELIX-256
p5537
aVFELIX-255
p5538
aVFELIX-254
p5539
aVFELIX-253
p5540
aVFELIX-252
p5541
aVFELIX-251
p5542
aVFELIX-250
p5543
aVFELIX-249
p5544
aVFELIX-248
p5545
aVFELIX-247
p5546
aVFELIX-246
p5547
aVFELIX-245
p5548
aVFELIX-244
p5549
aVFELIX-243
p5550
aVFELIX-242
p5551
aVFELIX-241
p5552
aVFELIX-240
p5553
aVFELIX-239
p5554
aVFELIX-238
p5555
aVFELIX-237
p5556
aVFELIX-236
p5557
aVFELIX-235
p5558
aVFELIX-234
p5559
aVFELIX-233
p5560
aVFELIX-232
p5561
aVFELIX-231
p5562
aVFELIX-230
p5563
aVFELIX-229
p5564
aVFELIX-228
p5565
aVFELIX-227
p5566
aVFELIX-226
p5567
aVFELIX-225
p5568
aVFELIX-224
p5569
aVFELIX-223
p5570
aVFELIX-222
p5571
aVFELIX-221
p5572
aVFELIX-220
p5573
aVFELIX-219
p5574
aVFELIX-218
p5575
aVFELIX-217
p5576
aVFELIX-216
p5577
aVFELIX-215
p5578
aVFELIX-214
p5579
aVFELIX-213
p5580
aVFELIX-212
p5581
aVFELIX-211
p5582
aVFELIX-210
p5583
aVFELIX-209
p5584
aVFELIX-208
p5585
aVFELIX-207
p5586
aVFELIX-206
p5587
aVFELIX-205
p5588
aVFELIX-204
p5589
aVFELIX-203
p5590
aVFELIX-202
p5591
aVFELIX-201
p5592
aVFELIX-200
p5593
aVFELIX-199
p5594
aVFELIX-198
p5595
aVFELIX-197
p5596
aVFELIX-196
p5597
aVFELIX-195
p5598
aVFELIX-194
p5599
aVFELIX-193
p5600
aVFELIX-192
p5601
aVFELIX-191
p5602
aVFELIX-190
p5603
aVFELIX-189
p5604
aVFELIX-188
p5605
aVFELIX-187
p5606
aVFELIX-186
p5607
aVFELIX-185
p5608
aVFELIX-184
p5609
aVFELIX-183
p5610
aVFELIX-182
p5611
aVFELIX-181
p5612
aVFELIX-180
p5613
aVFELIX-179
p5614
aVFELIX-178
p5615
aVFELIX-177
p5616
aVFELIX-176
p5617
aVFELIX-175
p5618
aVFELIX-174
p5619
aVFELIX-173
p5620
aVFELIX-172
p5621
aVFELIX-171
p5622
aVFELIX-170
p5623
aVFELIX-169
p5624
aVFELIX-168
p5625
aVFELIX-167
p5626
aVFELIX-166
p5627
aVFELIX-165
p5628
aVFELIX-164
p5629
aVFELIX-163
p5630
aVFELIX-162
p5631
aVFELIX-161
p5632
aVFELIX-160
p5633
aVFELIX-159
p5634
aVFELIX-158
p5635
aVFELIX-157
p5636
aVFELIX-156
p5637
aVFELIX-155
p5638
aVFELIX-154
p5639
aVFELIX-153
p5640
aVFELIX-152
p5641
aVFELIX-151
p5642
aVFELIX-150
p5643
aVFELIX-149
p5644
aVFELIX-148
p5645
aVFELIX-147
p5646
aVFELIX-146
p5647
aVFELIX-145
p5648
aVFELIX-144
p5649
aVFELIX-143
p5650
aVFELIX-142
p5651
aVFELIX-141
p5652
aVFELIX-140
p5653
aVFELIX-139
p5654
aVFELIX-138
p5655
aVFELIX-137
p5656
aVFELIX-136
p5657
aVFELIX-135
p5658
aVFELIX-134
p5659
aVFELIX-133
p5660
aVFELIX-132
p5661
aVFELIX-131
p5662
aVFELIX-130
p5663
aVFELIX-129
p5664
aVFELIX-128
p5665
aVFELIX-127
p5666
aVFELIX-126
p5667
aVFELIX-125
p5668
aVFELIX-124
p5669
aVFELIX-123
p5670
aVFELIX-122
p5671
aVFELIX-121
p5672
aVFELIX-120
p5673
aVFELIX-119
p5674
aVFELIX-118
p5675
aVFELIX-117
p5676
aVFELIX-116
p5677
aVFELIX-115
p5678
aVFELIX-114
p5679
aVFELIX-113
p5680
aVFELIX-112
p5681
aVFELIX-111
p5682
aVFELIX-110
p5683
aVFELIX-109
p5684
aVFELIX-108
p5685
aVFELIX-107
p5686
aVFELIX-106
p5687
aVFELIX-105
p5688
aVFELIX-104
p5689
aVFELIX-103
p5690
aVFELIX-102
p5691
aVFELIX-101
p5692
aVFELIX-100
p5693
aVFELIX-99
p5694
aVFELIX-98
p5695
aVFELIX-97
p5696
aVFELIX-96
p5697
aVFELIX-95
p5698
aVFELIX-94
p5699
aVFELIX-93
p5700
aVFELIX-92
p5701
aVFELIX-91
p5702
aVFELIX-90
p5703
aVFELIX-89
p5704
aVFELIX-88
p5705
aVFELIX-87
p5706
aVFELIX-86
p5707
aVFELIX-85
p5708
aVFELIX-84
p5709
aVFELIX-83
p5710
aVFELIX-82
p5711
aVFELIX-81
p5712
aVFELIX-80
p5713
aVFELIX-79
p5714
aVFELIX-78
p5715
aVFELIX-77
p5716
aVFELIX-76
p5717
aVFELIX-75
p5718
aVFELIX-74
p5719
aVFELIX-73
p5720
aVFELIX-72
p5721
aVFELIX-71
p5722
aVFELIX-70
p5723
aVFELIX-69
p5724
aVFELIX-68
p5725
aVFELIX-67
p5726
aVFELIX-66
p5727
aVFELIX-65
p5728
aVFELIX-64
p5729
aVFELIX-63
p5730
aVFELIX-62
p5731
aVFELIX-61
p5732
aVFELIX-60
p5733
aVFELIX-59
p5734
aVFELIX-58
p5735
aVFELIX-57
p5736
aVFELIX-56
p5737
aVFELIX-55
p5738
aVFELIX-54
p5739
aVFELIX-53
p5740
aVFELIX-52
p5741
aVFELIX-51
p5742
aVFELIX-50
p5743
aVFELIX-49
p5744
aVFELIX-48
p5745
aVFELIX-47
p5746
aVFELIX-46
p5747
aVFELIX-44
p5748
aVFELIX-43
p5749
aVFELIX-42
p5750
aVFELIX-41
p5751
aVFELIX-40
p5752
aVFELIX-39
p5753
aVFELIX-38
p5754
aVFELIX-37
p5755
aVFELIX-36
p5756
aVFELIX-35
p5757
aVFELIX-34
p5758
aVFELIX-33
p5759
aVFELIX-32
p5760
aVFELIX-31
p5761
aVFELIX-30
p5762
aVFELIX-29
p5763
aVFELIX-28
p5764
aVFELIX-27
p5765
aVFELIX-26
p5766
aVFELIX-25
p5767
aVFELIX-24
p5768
aVFELIX-23
p5769
aVFELIX-22
p5770
aVFELIX-21
p5771
aVFELIX-20
p5772
aVFELIX-19
p5773
aVFELIX-18
p5774
aVFELIX-17
p5775
aVFELIX-16
p5776
aVFELIX-15
p5777
aVFELIX-14
p5778
aVFELIX-13
p5779
aVFELIX-12
p5780
aVFELIX-11
p5781
aVFELIX-10
p5782
aVFELIX-9
p5783
aVFELIX-8
p5784
aVFELIX-7
p5785
aVFELIX-6
p5786
aVFELIX-5
p5787
aVFELIX-4
p5788
aVFELIX-3
p5789
aVFELIX-2
p5790
aVFELIX-1
p5791
a.