(lp0
VFILEUPLOAD-290
p1
aVFILEUPLOAD-288
p2
aVFILEUPLOAD-287
p3
aVFILEUPLOAD-286
p4
aVFILEUPLOAD-285
p5
aVFILEUPLOAD-284
p6
aVFILEUPLOAD-283
p7
aVFILEUPLOAD-282
p8
aVFILEUPLOAD-281
p9
aVFILEUPLOAD-280
p10
aVFILEUPLOAD-279
p11
aVFILEUPLOAD-278
p12
aVFILEUPLOAD-277
p13
aVFILEUPLOAD-276
p14
aVFILEUPLOAD-275
p15
aVFILEUPLOAD-274
p16
aVFILEUPLOAD-273
p17
aVFILEUPLOAD-272
p18
aVFILEUPLOAD-271
p19
aVFILEUPLOAD-270
p20
aVFILEUPLOAD-269
p21
aVFILEUPLOAD-268
p22
aVFILEUPLOAD-267
p23
aVFILEUPLOAD-266
p24
aVFILEUPLOAD-265
p25
aVFILEUPLOAD-264
p26
aVFILEUPLOAD-263
p27
aVFILEUPLOAD-262
p28
aVFILEUPLOAD-261
p29
aVFILEUPLOAD-260
p30
aVFILEUPLOAD-259
p31
aVFILEUPLOAD-258
p32
aVFILEUPLOAD-257
p33
aVFILEUPLOAD-256
p34
aVFILEUPLOAD-255
p35
aVFILEUPLOAD-254
p36
aVFILEUPLOAD-253
p37
aVFILEUPLOAD-252
p38
aVFILEUPLOAD-251
p39
aVFILEUPLOAD-250
p40
aVFILEUPLOAD-249
p41
aVFILEUPLOAD-248
p42
aVFILEUPLOAD-247
p43
aVFILEUPLOAD-246
p44
aVFILEUPLOAD-245
p45
aVFILEUPLOAD-244
p46
aVFILEUPLOAD-243
p47
aVFILEUPLOAD-242
p48
aVFILEUPLOAD-241
p49
aVFILEUPLOAD-240
p50
aVFILEUPLOAD-239
p51
aVFILEUPLOAD-238
p52
aVFILEUPLOAD-237
p53
aVFILEUPLOAD-236
p54
aVFILEUPLOAD-235
p55
aVFILEUPLOAD-234
p56
aVFILEUPLOAD-233
p57
aVFILEUPLOAD-232
p58
aVFILEUPLOAD-231
p59
aVFILEUPLOAD-230
p60
aVFILEUPLOAD-229
p61
aVFILEUPLOAD-228
p62
aVFILEUPLOAD-227
p63
aVFILEUPLOAD-226
p64
aVFILEUPLOAD-225
p65
aVFILEUPLOAD-224
p66
aVFILEUPLOAD-223
p67
aVFILEUPLOAD-222
p68
aVFILEUPLOAD-221
p69
aVFILEUPLOAD-220
p70
aVFILEUPLOAD-219
p71
aVFILEUPLOAD-218
p72
aVFILEUPLOAD-217
p73
aVFILEUPLOAD-216
p74
aVFILEUPLOAD-215
p75
aVFILEUPLOAD-214
p76
aVFILEUPLOAD-213
p77
aVFILEUPLOAD-212
p78
aVFILEUPLOAD-211
p79
aVFILEUPLOAD-210
p80
aVFILEUPLOAD-209
p81
aVFILEUPLOAD-208
p82
aVFILEUPLOAD-207
p83
aVFILEUPLOAD-206
p84
aVFILEUPLOAD-205
p85
aVFILEUPLOAD-204
p86
aVFILEUPLOAD-203
p87
aVFILEUPLOAD-202
p88
aVFILEUPLOAD-201
p89
aVFILEUPLOAD-200
p90
aVFILEUPLOAD-199
p91
aVFILEUPLOAD-198
p92
aVFILEUPLOAD-197
p93
aVFILEUPLOAD-196
p94
aVFILEUPLOAD-195
p95
aVFILEUPLOAD-194
p96
aVFILEUPLOAD-193
p97
aVFILEUPLOAD-192
p98
aVFILEUPLOAD-191
p99
aVFILEUPLOAD-190
p100
aVFILEUPLOAD-189
p101
aVFILEUPLOAD-188
p102
aVFILEUPLOAD-187
p103
aVFILEUPLOAD-186
p104
aVFILEUPLOAD-185
p105
aVFILEUPLOAD-184
p106
aVFILEUPLOAD-183
p107
aVFILEUPLOAD-182
p108
aVFILEUPLOAD-181
p109
aVFILEUPLOAD-180
p110
aVFILEUPLOAD-179
p111
aVFILEUPLOAD-178
p112
aVFILEUPLOAD-177
p113
aVFILEUPLOAD-176
p114
aVFILEUPLOAD-175
p115
aVFILEUPLOAD-174
p116
aVFILEUPLOAD-173
p117
aVFILEUPLOAD-172
p118
aVFILEUPLOAD-170
p119
aVFILEUPLOAD-169
p120
aVFILEUPLOAD-168
p121
aVFILEUPLOAD-167
p122
aVFILEUPLOAD-166
p123
aVFILEUPLOAD-165
p124
aVFILEUPLOAD-164
p125
aVFILEUPLOAD-163
p126
aVFILEUPLOAD-162
p127
aVFILEUPLOAD-161
p128
aVFILEUPLOAD-160
p129
aVFILEUPLOAD-159
p130
aVFILEUPLOAD-158
p131
aVFILEUPLOAD-157
p132
aVFILEUPLOAD-156
p133
aVFILEUPLOAD-155
p134
aVFILEUPLOAD-154
p135
aVFILEUPLOAD-153
p136
aVFILEUPLOAD-152
p137
aVFILEUPLOAD-151
p138
aVFILEUPLOAD-150
p139
aVFILEUPLOAD-149
p140
aVFILEUPLOAD-148
p141
aVFILEUPLOAD-147
p142
aVFILEUPLOAD-146
p143
aVFILEUPLOAD-145
p144
aVFILEUPLOAD-144
p145
aVFILEUPLOAD-143
p146
aVFILEUPLOAD-142
p147
aVFILEUPLOAD-141
p148
aVFILEUPLOAD-140
p149
aVFILEUPLOAD-139
p150
aVFILEUPLOAD-138
p151
aVFILEUPLOAD-137
p152
aVFILEUPLOAD-136
p153
aVFILEUPLOAD-135
p154
aVFILEUPLOAD-134
p155
aVFILEUPLOAD-133
p156
aVFILEUPLOAD-132
p157
aVFILEUPLOAD-131
p158
aVFILEUPLOAD-130
p159
aVFILEUPLOAD-129
p160
aVFILEUPLOAD-128
p161
aVFILEUPLOAD-127
p162
aVFILEUPLOAD-126
p163
aVFILEUPLOAD-125
p164
aVFILEUPLOAD-124
p165
aVFILEUPLOAD-123
p166
aVFILEUPLOAD-122
p167
aVFILEUPLOAD-121
p168
aVFILEUPLOAD-120
p169
aVFILEUPLOAD-119
p170
aVFILEUPLOAD-118
p171
aVFILEUPLOAD-117
p172
aVFILEUPLOAD-116
p173
aVFILEUPLOAD-115
p174
aVFILEUPLOAD-114
p175
aVFILEUPLOAD-113
p176
aVFILEUPLOAD-112
p177
aVFILEUPLOAD-111
p178
aVFILEUPLOAD-110
p179
aVFILEUPLOAD-109
p180
aVFILEUPLOAD-108
p181
aVFILEUPLOAD-107
p182
aVFILEUPLOAD-106
p183
aVFILEUPLOAD-105
p184
aVFILEUPLOAD-104
p185
aVFILEUPLOAD-103
p186
aVFILEUPLOAD-102
p187
aVFILEUPLOAD-101
p188
aVFILEUPLOAD-100
p189
aVFILEUPLOAD-99
p190
aVFILEUPLOAD-98
p191
aVFILEUPLOAD-97
p192
aVFILEUPLOAD-96
p193
aVFILEUPLOAD-95
p194
aVFILEUPLOAD-94
p195
aVFILEUPLOAD-93
p196
aVFILEUPLOAD-92
p197
aVFILEUPLOAD-91
p198
aVFILEUPLOAD-90
p199
aVFILEUPLOAD-89
p200
aVFILEUPLOAD-88
p201
aVFILEUPLOAD-87
p202
aVFILEUPLOAD-86
p203
aVFILEUPLOAD-85
p204
aVFILEUPLOAD-84
p205
aVFILEUPLOAD-83
p206
aVFILEUPLOAD-82
p207
aVFILEUPLOAD-81
p208
aVFILEUPLOAD-80
p209
aVFILEUPLOAD-79
p210
aVFILEUPLOAD-78
p211
aVFILEUPLOAD-77
p212
aVFILEUPLOAD-76
p213
aVFILEUPLOAD-75
p214
aVFILEUPLOAD-74
p215
aVFILEUPLOAD-73
p216
aVFILEUPLOAD-72
p217
aVFILEUPLOAD-71
p218
aVFILEUPLOAD-70
p219
aVFILEUPLOAD-69
p220
aVFILEUPLOAD-68
p221
aVFILEUPLOAD-67
p222
aVFILEUPLOAD-66
p223
aVFILEUPLOAD-65
p224
aVFILEUPLOAD-64
p225
aVFILEUPLOAD-63
p226
aVFILEUPLOAD-62
p227
aVFILEUPLOAD-61
p228
aVFILEUPLOAD-60
p229
aVFILEUPLOAD-59
p230
aVFILEUPLOAD-58
p231
aVFILEUPLOAD-57
p232
aVFILEUPLOAD-56
p233
aVFILEUPLOAD-55
p234
aVFILEUPLOAD-54
p235
aVFILEUPLOAD-53
p236
aVFILEUPLOAD-52
p237
aVFILEUPLOAD-51
p238
aVFILEUPLOAD-50
p239
aVFILEUPLOAD-49
p240
aVFILEUPLOAD-48
p241
aVFILEUPLOAD-47
p242
aVFILEUPLOAD-46
p243
aVFILEUPLOAD-45
p244
aVFILEUPLOAD-44
p245
aVFILEUPLOAD-43
p246
aVFILEUPLOAD-42
p247
aVFILEUPLOAD-41
p248
aVFILEUPLOAD-40
p249
aVFILEUPLOAD-39
p250
aVFILEUPLOAD-38
p251
aVFILEUPLOAD-37
p252
aVFILEUPLOAD-36
p253
aVFILEUPLOAD-35
p254
aVFILEUPLOAD-34
p255
aVFILEUPLOAD-33
p256
aVFILEUPLOAD-32
p257
aVFILEUPLOAD-31
p258
aVFILEUPLOAD-30
p259
aVFILEUPLOAD-29
p260
aVFILEUPLOAD-28
p261
aVFILEUPLOAD-27
p262
aVFILEUPLOAD-26
p263
aVFILEUPLOAD-25
p264
aVFILEUPLOAD-24
p265
aVFILEUPLOAD-23
p266
aVFILEUPLOAD-22
p267
aVFILEUPLOAD-21
p268
aVFILEUPLOAD-20
p269
aVFILEUPLOAD-19
p270
aVFILEUPLOAD-18
p271
aVFILEUPLOAD-17
p272
aVFILEUPLOAD-16
p273
aVFILEUPLOAD-15
p274
aVFILEUPLOAD-14
p275
aVFILEUPLOAD-13
p276
aVFILEUPLOAD-12
p277
aVFILEUPLOAD-11
p278
aVFILEUPLOAD-10
p279
aVFILEUPLOAD-9
p280
aVFILEUPLOAD-8
p281
aVFILEUPLOAD-7
p282
aVFILEUPLOAD-6
p283
aVFILEUPLOAD-5
p284
aVFILEUPLOAD-4
p285
aVFILEUPLOAD-3
p286
aVFILEUPLOAD-2
p287
aVFILEUPLOAD-1
p288
a.