(lp0
VFINERACT-643
p1
aVFINERACT-642
p2
aVFINERACT-641
p3
aVFINERACT-640
p4
aVFINERACT-639
p5
aVFINERACT-638
p6
aVFINERACT-637
p7
aVFINERACT-636
p8
aVFINERACT-635
p9
aVFINERACT-634
p10
aVFINERACT-633
p11
aVFINERACT-632
p12
aVFINERACT-631
p13
aVFINERACT-630
p14
aVFINERACT-629
p15
aVFINERACT-628
p16
aVFINERACT-627
p17
aVFINERACT-626
p18
aVFINERACT-625
p19
aVFINERACT-624
p20
aVFINERACT-623
p21
aVFINERACT-622
p22
aVFINERACT-621
p23
aVFINERACT-620
p24
aVFINERACT-619
p25
aVFINERACT-618
p26
aVFINERACT-617
p27
aVFINERACT-616
p28
aVFINERACT-615
p29
aVFINERACT-614
p30
aVFINERACT-613
p31
aVFINERACT-612
p32
aVFINERACT-611
p33
aVFINERACT-610
p34
aVFINERACT-609
p35
aVFINERACT-608
p36
aVFINERACT-607
p37
aVFINERACT-606
p38
aVFINERACT-605
p39
aVFINERACT-604
p40
aVFINERACT-603
p41
aVFINERACT-602
p42
aVFINERACT-601
p43
aVFINERACT-600
p44
aVFINERACT-599
p45
aVFINERACT-598
p46
aVFINERACT-597
p47
aVFINERACT-596
p48
aVFINERACT-595
p49
aVFINERACT-594
p50
aVFINERACT-593
p51
aVFINERACT-592
p52
aVFINERACT-591
p53
aVFINERACT-590
p54
aVFINERACT-589
p55
aVFINERACT-588
p56
aVFINERACT-587
p57
aVFINERACT-586
p58
aVFINERACT-585
p59
aVFINERACT-584
p60
aVFINERACT-583
p61
aVFINERACT-582
p62
aVFINERACT-581
p63
aVFINERACT-580
p64
aVFINERACT-579
p65
aVFINERACT-578
p66
aVFINERACT-577
p67
aVFINERACT-576
p68
aVFINERACT-575
p69
aVFINERACT-574
p70
aVFINERACT-573
p71
aVFINERACT-572
p72
aVFINERACT-571
p73
aVFINERACT-570
p74
aVFINERACT-569
p75
aVFINERACT-568
p76
aVFINERACT-567
p77
aVFINERACT-566
p78
aVFINERACT-565
p79
aVFINERACT-564
p80
aVFINERACT-563
p81
aVFINERACT-562
p82
aVFINERACT-561
p83
aVFINERACT-560
p84
aVFINERACT-559
p85
aVFINERACT-558
p86
aVFINERACT-557
p87
aVFINERACT-556
p88
aVFINERACT-555
p89
aVFINERACT-554
p90
aVFINERACT-553
p91
aVFINERACT-552
p92
aVFINERACT-551
p93
aVFINERACT-550
p94
aVFINERACT-549
p95
aVFINERACT-548
p96
aVFINERACT-547
p97
aVFINERACT-546
p98
aVFINERACT-545
p99
aVFINERACT-544
p100
aVFINERACT-543
p101
aVFINERACT-542
p102
aVFINERACT-541
p103
aVFINERACT-540
p104
aVFINERACT-539
p105
aVFINERACT-538
p106
aVFINERACT-537
p107
aVFINERACT-536
p108
aVFINERACT-535
p109
aVFINERACT-534
p110
aVFINERACT-533
p111
aVFINERACT-532
p112
aVFINERACT-531
p113
aVFINERACT-530
p114
aVFINERACT-529
p115
aVFINERACT-528
p116
aVFINERACT-527
p117
aVFINERACT-526
p118
aVFINERACT-525
p119
aVFINERACT-524
p120
aVFINERACT-523
p121
aVFINERACT-522
p122
aVFINERACT-521
p123
aVFINERACT-520
p124
aVFINERACT-519
p125
aVFINERACT-518
p126
aVFINERACT-517
p127
aVFINERACT-516
p128
aVFINERACT-515
p129
aVFINERACT-514
p130
aVFINERACT-513
p131
aVFINERACT-512
p132
aVFINERACT-511
p133
aVFINERACT-510
p134
aVFINERACT-509
p135
aVFINERACT-508
p136
aVFINERACT-507
p137
aVFINERACT-506
p138
aVFINERACT-505
p139
aVFINERACT-504
p140
aVFINERACT-503
p141
aVFINERACT-502
p142
aVFINERACT-501
p143
aVFINERACT-500
p144
aVFINERACT-499
p145
aVFINERACT-498
p146
aVFINERACT-497
p147
aVFINERACT-496
p148
aVFINERACT-495
p149
aVFINERACT-494
p150
aVFINERACT-493
p151
aVFINERACT-492
p152
aVFINERACT-491
p153
aVFINERACT-490
p154
aVFINERACT-489
p155
aVFINERACT-488
p156
aVFINERACT-487
p157
aVFINERACT-486
p158
aVFINERACT-485
p159
aVFINERACT-484
p160
aVFINERACT-483
p161
aVFINERACT-482
p162
aVFINERACT-481
p163
aVFINERACT-480
p164
aVFINERACT-479
p165
aVFINERACT-478
p166
aVFINERACT-477
p167
aVFINERACT-476
p168
aVFINERACT-475
p169
aVFINERACT-474
p170
aVFINERACT-473
p171
aVFINERACT-472
p172
aVFINERACT-471
p173
aVFINERACT-470
p174
aVFINERACT-469
p175
aVFINERACT-468
p176
aVFINERACT-467
p177
aVFINERACT-466
p178
aVFINERACT-465
p179
aVFINERACT-464
p180
aVFINERACT-463
p181
aVFINERACT-462
p182
aVFINERACT-461
p183
aVFINERACT-460
p184
aVFINERACT-459
p185
aVFINERACT-458
p186
aVFINERACT-457
p187
aVFINERACT-456
p188
aVFINERACT-455
p189
aVFINERACT-454
p190
aVFINERACT-453
p191
aVFINERACT-452
p192
aVFINERACT-451
p193
aVFINERACT-450
p194
aVFINERACT-449
p195
aVFINERACT-448
p196
aVFINERACT-447
p197
aVFINERACT-446
p198
aVFINERACT-445
p199
aVFINERACT-444
p200
aVFINERACT-443
p201
aVFINERACT-442
p202
aVFINERACT-441
p203
aVFINERACT-440
p204
aVFINERACT-439
p205
aVFINERACT-438
p206
aVFINERACT-437
p207
aVFINERACT-436
p208
aVFINERACT-435
p209
aVFINERACT-434
p210
aVFINERACT-433
p211
aVFINERACT-432
p212
aVFINERACT-431
p213
aVFINERACT-430
p214
aVFINERACT-429
p215
aVFINERACT-428
p216
aVFINERACT-427
p217
aVFINERACT-426
p218
aVFINERACT-425
p219
aVFINERACT-424
p220
aVFINERACT-423
p221
aVFINERACT-422
p222
aVFINERACT-421
p223
aVFINERACT-420
p224
aVFINERACT-419
p225
aVFINERACT-418
p226
aVFINERACT-417
p227
aVFINERACT-416
p228
aVFINERACT-415
p229
aVFINERACT-414
p230
aVFINERACT-413
p231
aVFINERACT-412
p232
aVFINERACT-411
p233
aVFINERACT-410
p234
aVFINERACT-409
p235
aVFINERACT-408
p236
aVFINERACT-407
p237
aVFINERACT-406
p238
aVFINERACT-405
p239
aVFINERACT-404
p240
aVFINERACT-403
p241
aVFINERACT-402
p242
aVFINERACT-401
p243
aVFINERACT-400
p244
aVFINERACT-399
p245
aVFINERACT-398
p246
aVFINERACT-397
p247
aVFINERACT-396
p248
aVFINERACT-395
p249
aVFINERACT-394
p250
aVFINERACT-393
p251
aVFINERACT-392
p252
aVFINERACT-391
p253
aVFINERACT-390
p254
aVFINERACT-389
p255
aVFINERACT-388
p256
aVFINERACT-387
p257
aVFINERACT-386
p258
aVFINERACT-385
p259
aVFINERACT-384
p260
aVFINERACT-383
p261
aVFINERACT-382
p262
aVFINERACT-381
p263
aVFINERACT-380
p264
aVFINERACT-379
p265
aVFINERACT-378
p266
aVFINERACT-377
p267
aVFINERACT-376
p268
aVFINERACT-375
p269
aVFINERACT-374
p270
aVFINERACT-373
p271
aVFINERACT-372
p272
aVFINERACT-371
p273
aVFINERACT-370
p274
aVFINERACT-369
p275
aVFINERACT-368
p276
aVFINERACT-367
p277
aVFINERACT-366
p278
aVFINERACT-365
p279
aVFINERACT-364
p280
aVFINERACT-363
p281
aVFINERACT-362
p282
aVFINERACT-361
p283
aVFINERACT-360
p284
aVFINERACT-359
p285
aVFINERACT-358
p286
aVFINERACT-357
p287
aVFINERACT-356
p288
aVFINERACT-355
p289
aVFINERACT-354
p290
aVFINERACT-353
p291
aVFINERACT-352
p292
aVFINERACT-351
p293
aVFINERACT-350
p294
aVFINERACT-349
p295
aVFINERACT-348
p296
aVFINERACT-347
p297
aVFINERACT-346
p298
aVFINERACT-345
p299
aVFINERACT-344
p300
aVFINERACT-343
p301
aVFINERACT-342
p302
aVFINERACT-341
p303
aVFINERACT-340
p304
aVFINERACT-339
p305
aVFINERACT-338
p306
aVFINERACT-337
p307
aVFINERACT-336
p308
aVFINERACT-335
p309
aVFINERACT-334
p310
aVFINERACT-333
p311
aVFINERACT-332
p312
aVFINERACT-331
p313
aVFINERACT-330
p314
aVFINERACT-329
p315
aVFINERACT-328
p316
aVFINERACT-327
p317
aVFINERACT-326
p318
aVFINERACT-325
p319
aVFINERACT-324
p320
aVFINERACT-323
p321
aVFINERACT-322
p322
aVFINERACT-321
p323
aVFINERACT-320
p324
aVFINERACT-319
p325
aVFINERACT-318
p326
aVFINERACT-317
p327
aVFINERACT-316
p328
aVFINERACT-315
p329
aVFINERACT-314
p330
aVFINERACT-313
p331
aVFINERACT-312
p332
aVFINERACT-311
p333
aVFINERACT-310
p334
aVFINERACT-309
p335
aVFINERACT-308
p336
aVFINERACT-307
p337
aVFINERACT-306
p338
aVFINERACT-305
p339
aVFINERACT-304
p340
aVFINERACT-303
p341
aVFINERACT-302
p342
aVFINERACT-301
p343
aVFINERACT-300
p344
aVFINERACT-299
p345
aVFINERACT-298
p346
aVFINERACT-297
p347
aVFINERACT-296
p348
aVFINERACT-295
p349
aVFINERACT-294
p350
aVFINERACT-293
p351
aVFINERACT-292
p352
aVFINERACT-291
p353
aVFINERACT-290
p354
aVFINERACT-289
p355
aVFINERACT-288
p356
aVFINERACT-287
p357
aVFINERACT-286
p358
aVFINERACT-285
p359
aVFINERACT-284
p360
aVFINERACT-283
p361
aVFINERACT-282
p362
aVFINERACT-281
p363
aVFINERACT-280
p364
aVFINERACT-279
p365
aVFINERACT-278
p366
aVFINERACT-277
p367
aVFINERACT-276
p368
aVFINERACT-275
p369
aVFINERACT-274
p370
aVFINERACT-273
p371
aVFINERACT-272
p372
aVFINERACT-271
p373
aVFINERACT-270
p374
aVFINERACT-269
p375
aVFINERACT-268
p376
aVFINERACT-267
p377
aVFINERACT-266
p378
aVFINERACT-265
p379
aVFINERACT-264
p380
aVFINERACT-263
p381
aVFINERACT-262
p382
aVFINERACT-261
p383
aVFINERACT-260
p384
aVFINERACT-259
p385
aVFINERACT-258
p386
aVFINERACT-257
p387
aVFINERACT-256
p388
aVFINERACT-255
p389
aVFINERACT-254
p390
aVFINERACT-253
p391
aVFINERACT-252
p392
aVFINERACT-251
p393
aVFINERACT-250
p394
aVFINERACT-249
p395
aVFINERACT-248
p396
aVFINERACT-247
p397
aVFINERACT-246
p398
aVFINERACT-245
p399
aVFINERACT-244
p400
aVFINERACT-243
p401
aVFINERACT-242
p402
aVFINERACT-241
p403
aVFINERACT-240
p404
aVFINERACT-239
p405
aVFINERACT-238
p406
aVFINERACT-237
p407
aVFINERACT-236
p408
aVFINERACT-235
p409
aVFINERACT-234
p410
aVFINERACT-233
p411
aVFINERACT-232
p412
aVFINERACT-231
p413
aVFINERACT-230
p414
aVFINERACT-229
p415
aVFINERACT-228
p416
aVFINERACT-227
p417
aVFINERACT-226
p418
aVFINERACT-225
p419
aVFINERACT-224
p420
aVFINERACT-223
p421
aVFINERACT-222
p422
aVFINERACT-221
p423
aVFINERACT-220
p424
aVFINERACT-219
p425
aVFINERACT-218
p426
aVFINERACT-217
p427
aVFINERACT-216
p428
aVFINERACT-215
p429
aVFINERACT-214
p430
aVFINERACT-213
p431
aVFINERACT-212
p432
aVFINERACT-211
p433
aVFINERACT-210
p434
aVFINERACT-209
p435
aVFINERACT-208
p436
aVFINERACT-207
p437
aVFINERACT-206
p438
aVFINERACT-205
p439
aVFINERACT-204
p440
aVFINERACT-203
p441
aVFINERACT-202
p442
aVFINERACT-201
p443
aVFINERACT-200
p444
aVFINERACT-199
p445
aVFINERACT-198
p446
aVFINERACT-197
p447
aVFINERACT-196
p448
aVFINERACT-195
p449
aVFINERACT-194
p450
aVFINERACT-193
p451
aVFINERACT-192
p452
aVFINERACT-191
p453
aVFINERACT-190
p454
aVFINERACT-189
p455
aVFINERACT-188
p456
aVFINERACT-187
p457
aVFINERACT-186
p458
aVFINERACT-185
p459
aVFINERACT-184
p460
aVFINERACT-183
p461
aVFINERACT-182
p462
aVFINERACT-181
p463
aVFINERACT-180
p464
aVFINERACT-179
p465
aVFINERACT-178
p466
aVFINERACT-177
p467
aVFINERACT-176
p468
aVFINERACT-175
p469
aVFINERACT-174
p470
aVFINERACT-173
p471
aVFINERACT-172
p472
aVFINERACT-171
p473
aVFINERACT-170
p474
aVFINERACT-169
p475
aVFINERACT-168
p476
aVFINERACT-167
p477
aVFINERACT-166
p478
aVFINERACT-165
p479
aVFINERACT-164
p480
aVFINERACT-163
p481
aVFINERACT-162
p482
aVFINERACT-161
p483
aVFINERACT-160
p484
aVFINERACT-159
p485
aVFINERACT-158
p486
aVFINERACT-157
p487
aVFINERACT-156
p488
aVFINERACT-155
p489
aVFINERACT-154
p490
aVFINERACT-153
p491
aVFINERACT-152
p492
aVFINERACT-151
p493
aVFINERACT-150
p494
aVFINERACT-149
p495
aVFINERACT-148
p496
aVFINERACT-147
p497
aVFINERACT-146
p498
aVFINERACT-145
p499
aVFINERACT-144
p500
aVFINERACT-143
p501
aVFINERACT-142
p502
aVFINERACT-141
p503
aVFINERACT-140
p504
aVFINERACT-139
p505
aVFINERACT-138
p506
aVFINERACT-137
p507
aVFINERACT-136
p508
aVFINERACT-135
p509
aVFINERACT-134
p510
aVFINERACT-133
p511
aVFINERACT-132
p512
aVFINERACT-131
p513
aVFINERACT-130
p514
aVFINERACT-129
p515
aVFINERACT-128
p516
aVFINERACT-127
p517
aVFINERACT-126
p518
aVFINERACT-125
p519
aVFINERACT-124
p520
aVFINERACT-123
p521
aVFINERACT-122
p522
aVFINERACT-121
p523
aVFINERACT-120
p524
aVFINERACT-119
p525
aVFINERACT-118
p526
aVFINERACT-117
p527
aVFINERACT-116
p528
aVFINERACT-115
p529
aVFINERACT-114
p530
aVFINERACT-113
p531
aVFINERACT-112
p532
aVFINERACT-111
p533
aVFINERACT-110
p534
aVFINERACT-109
p535
aVFINERACT-108
p536
aVFINERACT-107
p537
aVFINERACT-106
p538
aVFINERACT-105
p539
aVFINERACT-104
p540
aVFINERACT-103
p541
aVFINERACT-102
p542
aVFINERACT-101
p543
aVFINERACT-100
p544
aVFINERACT-99
p545
aVFINERACT-98
p546
aVFINERACT-97
p547
aVFINERACT-96
p548
aVFINERACT-95
p549
aVFINERACT-94
p550
aVFINERACT-93
p551
aVFINERACT-92
p552
aVFINERACT-91
p553
aVFINERACT-90
p554
aVFINERACT-89
p555
aVFINERACT-88
p556
aVFINERACT-87
p557
aVFINERACT-86
p558
aVFINERACT-85
p559
aVFINERACT-84
p560
aVFINERACT-83
p561
aVFINERACT-82
p562
aVFINERACT-81
p563
aVFINERACT-80
p564
aVFINERACT-79
p565
aVFINERACT-78
p566
aVFINERACT-77
p567
aVFINERACT-76
p568
aVFINERACT-75
p569
aVFINERACT-74
p570
aVFINERACT-73
p571
aVFINERACT-72
p572
aVFINERACT-71
p573
aVFINERACT-70
p574
aVFINERACT-69
p575
aVFINERACT-68
p576
aVFINERACT-67
p577
aVFINERACT-66
p578
aVFINERACT-65
p579
aVFINERACT-64
p580
aVFINERACT-63
p581
aVFINERACT-62
p582
aVFINERACT-61
p583
aVFINERACT-60
p584
aVFINERACT-59
p585
aVFINERACT-58
p586
aVFINERACT-57
p587
aVFINERACT-56
p588
aVFINERACT-55
p589
aVFINERACT-54
p590
aVFINERACT-53
p591
aVFINERACT-52
p592
aVFINERACT-51
p593
aVFINERACT-50
p594
aVFINERACT-49
p595
aVFINERACT-48
p596
aVFINERACT-47
p597
aVFINERACT-46
p598
aVFINERACT-45
p599
aVFINERACT-44
p600
aVFINERACT-43
p601
aVFINERACT-42
p602
aVFINERACT-41
p603
aVFINERACT-40
p604
aVFINERACT-39
p605
aVFINERACT-38
p606
aVFINERACT-37
p607
aVFINERACT-36
p608
aVFINERACT-35
p609
aVFINERACT-34
p610
aVFINERACT-33
p611
aVFINERACT-32
p612
aVFINERACT-31
p613
aVFINERACT-30
p614
aVFINERACT-29
p615
aVFINERACT-28
p616
aVFINERACT-27
p617
aVFINERACT-26
p618
aVFINERACT-25
p619
aVFINERACT-24
p620
aVFINERACT-23
p621
aVFINERACT-22
p622
aVFINERACT-21
p623
aVFINERACT-20
p624
aVFINERACT-19
p625
aVFINERACT-18
p626
aVFINERACT-17
p627
aVFINERACT-16
p628
aVFINERACT-15
p629
aVFINERACT-14
p630
aVFINERACT-13
p631
aVFINERACT-12
p632
aVFINERACT-11
p633
aVFINERACT-10
p634
aVFINERACT-9
p635
aVFINERACT-8
p636
aVFINERACT-7
p637
aVFINERACT-6
p638
aVFINERACT-5
p639
aVFINERACT-4
p640
aVFINERACT-3
p641
aVFINERACT-2
p642
aVFINERACT-1
p643
a.