(lp0
VFLUME-3264
p1
aVFLUME-3263
p2
aVFLUME-3262
p3
aVFLUME-3261
p4
aVFLUME-3260
p5
aVFLUME-3259
p6
aVFLUME-3258
p7
aVFLUME-3257
p8
aVFLUME-3256
p9
aVFLUME-3255
p10
aVFLUME-3254
p11
aVFLUME-3253
p12
aVFLUME-3252
p13
aVFLUME-3251
p14
aVFLUME-3250
p15
aVFLUME-3249
p16
aVFLUME-3248
p17
aVFLUME-3247
p18
aVFLUME-3246
p19
aVFLUME-3245
p20
aVFLUME-3244
p21
aVFLUME-3243
p22
aVFLUME-3242
p23
aVFLUME-3241
p24
aVFLUME-3240
p25
aVFLUME-3239
p26
aVFLUME-3238
p27
aVFLUME-3237
p28
aVFLUME-3236
p29
aVFLUME-3235
p30
aVFLUME-3234
p31
aVFLUME-3233
p32
aVFLUME-3232
p33
aVFLUME-3231
p34
aVFLUME-3230
p35
aVFLUME-3229
p36
aVFLUME-3228
p37
aVFLUME-3227
p38
aVFLUME-3226
p39
aVFLUME-3225
p40
aVFLUME-3224
p41
aVFLUME-3223
p42
aVFLUME-3222
p43
aVFLUME-3221
p44
aVFLUME-3220
p45
aVFLUME-3219
p46
aVFLUME-3218
p47
aVFLUME-3217
p48
aVFLUME-3216
p49
aVFLUME-3215
p50
aVFLUME-3214
p51
aVFLUME-3213
p52
aVFLUME-3212
p53
aVFLUME-3211
p54
aVFLUME-3210
p55
aVFLUME-3209
p56
aVFLUME-3208
p57
aVFLUME-3207
p58
aVFLUME-3206
p59
aVFLUME-3205
p60
aVFLUME-3204
p61
aVFLUME-3203
p62
aVFLUME-3202
p63
aVFLUME-3201
p64
aVFLUME-3200
p65
aVFLUME-3199
p66
aVFLUME-3198
p67
aVFLUME-3197
p68
aVFLUME-3196
p69
aVFLUME-3195
p70
aVFLUME-3194
p71
aVFLUME-3193
p72
aVFLUME-3192
p73
aVFLUME-3191
p74
aVFLUME-3190
p75
aVFLUME-3189
p76
aVFLUME-3188
p77
aVFLUME-3187
p78
aVFLUME-3186
p79
aVFLUME-3185
p80
aVFLUME-3184
p81
aVFLUME-3183
p82
aVFLUME-3182
p83
aVFLUME-3181
p84
aVFLUME-3180
p85
aVFLUME-3179
p86
aVFLUME-3178
p87
aVFLUME-3177
p88
aVFLUME-3176
p89
aVFLUME-3175
p90
aVFLUME-3174
p91
aVFLUME-3173
p92
aVFLUME-3172
p93
aVFLUME-3171
p94
aVFLUME-3170
p95
aVFLUME-3169
p96
aVFLUME-3168
p97
aVFLUME-3167
p98
aVFLUME-3166
p99
aVFLUME-3165
p100
aVFLUME-3164
p101
aVFLUME-3163
p102
aVFLUME-3162
p103
aVFLUME-3161
p104
aVFLUME-3160
p105
aVFLUME-3159
p106
aVFLUME-3158
p107
aVFLUME-3157
p108
aVFLUME-3156
p109
aVFLUME-3155
p110
aVFLUME-3154
p111
aVFLUME-3153
p112
aVFLUME-3152
p113
aVFLUME-3151
p114
aVFLUME-3150
p115
aVFLUME-3149
p116
aVFLUME-3148
p117
aVFLUME-3147
p118
aVFLUME-3146
p119
aVFLUME-3145
p120
aVFLUME-3144
p121
aVFLUME-3143
p122
aVFLUME-3142
p123
aVFLUME-3141
p124
aVFLUME-3140
p125
aVFLUME-3139
p126
aVFLUME-3138
p127
aVFLUME-3137
p128
aVFLUME-3136
p129
aVFLUME-3135
p130
aVFLUME-3134
p131
aVFLUME-3133
p132
aVFLUME-3132
p133
aVFLUME-3131
p134
aVFLUME-3130
p135
aVFLUME-3129
p136
aVFLUME-3128
p137
aVFLUME-3127
p138
aVFLUME-3126
p139
aVFLUME-3125
p140
aVFLUME-3124
p141
aVFLUME-3123
p142
aVFLUME-3122
p143
aVFLUME-3121
p144
aVFLUME-3120
p145
aVFLUME-3119
p146
aVFLUME-3118
p147
aVFLUME-3117
p148
aVFLUME-3116
p149
aVFLUME-3115
p150
aVFLUME-3114
p151
aVFLUME-3113
p152
aVFLUME-3112
p153
aVFLUME-3111
p154
aVFLUME-3110
p155
aVFLUME-3109
p156
aVFLUME-3108
p157
aVFLUME-3107
p158
aVFLUME-3106
p159
aVFLUME-3105
p160
aVFLUME-3104
p161
aVFLUME-3103
p162
aVFLUME-3102
p163
aVFLUME-3101
p164
aVFLUME-3100
p165
aVFLUME-3099
p166
aVFLUME-3098
p167
aVFLUME-3097
p168
aVFLUME-3096
p169
aVFLUME-3095
p170
aVFLUME-3094
p171
aVFLUME-3093
p172
aVFLUME-3092
p173
aVFLUME-3091
p174
aVFLUME-3090
p175
aVFLUME-3089
p176
aVFLUME-3088
p177
aVFLUME-3087
p178
aVFLUME-3086
p179
aVFLUME-3085
p180
aVFLUME-3084
p181
aVFLUME-3083
p182
aVFLUME-3082
p183
aVFLUME-3081
p184
aVFLUME-3080
p185
aVFLUME-3079
p186
aVFLUME-3078
p187
aVFLUME-3077
p188
aVFLUME-3076
p189
aVFLUME-3075
p190
aVFLUME-3074
p191
aVFLUME-3073
p192
aVFLUME-3072
p193
aVFLUME-3071
p194
aVFLUME-3070
p195
aVFLUME-3069
p196
aVFLUME-3068
p197
aVFLUME-3067
p198
aVFLUME-3066
p199
aVFLUME-3065
p200
aVFLUME-3064
p201
aVFLUME-3063
p202
aVFLUME-3062
p203
aVFLUME-3061
p204
aVFLUME-3060
p205
aVFLUME-3059
p206
aVFLUME-3058
p207
aVFLUME-3057
p208
aVFLUME-3056
p209
aVFLUME-3055
p210
aVFLUME-3054
p211
aVFLUME-3053
p212
aVFLUME-3052
p213
aVFLUME-3051
p214
aVFLUME-3050
p215
aVFLUME-3049
p216
aVFLUME-3048
p217
aVFLUME-3047
p218
aVFLUME-3046
p219
aVFLUME-3045
p220
aVFLUME-3044
p221
aVFLUME-3043
p222
aVFLUME-3042
p223
aVFLUME-3041
p224
aVFLUME-3040
p225
aVFLUME-3039
p226
aVFLUME-3038
p227
aVFLUME-3037
p228
aVFLUME-3036
p229
aVFLUME-3035
p230
aVFLUME-3034
p231
aVFLUME-3033
p232
aVFLUME-3032
p233
aVFLUME-3031
p234
aVFLUME-3030
p235
aVFLUME-3029
p236
aVFLUME-3028
p237
aVFLUME-3027
p238
aVFLUME-3026
p239
aVFLUME-3025
p240
aVFLUME-3024
p241
aVFLUME-3023
p242
aVFLUME-3022
p243
aVFLUME-3021
p244
aVFLUME-3020
p245
aVFLUME-3019
p246
aVFLUME-3018
p247
aVFLUME-3017
p248
aVFLUME-3016
p249
aVFLUME-3015
p250
aVFLUME-3014
p251
aVFLUME-3013
p252
aVFLUME-3012
p253
aVFLUME-3011
p254
aVFLUME-3010
p255
aVFLUME-3008
p256
aVFLUME-3007
p257
aVFLUME-3006
p258
aVFLUME-3005
p259
aVFLUME-3004
p260
aVFLUME-3003
p261
aVFLUME-3002
p262
aVFLUME-3001
p263
aVFLUME-3000
p264
aVFLUME-2999
p265
aVFLUME-2998
p266
aVFLUME-2997
p267
aVFLUME-2996
p268
aVFLUME-2995
p269
aVFLUME-2994
p270
aVFLUME-2993
p271
aVFLUME-2992
p272
aVFLUME-2991
p273
aVFLUME-2990
p274
aVFLUME-2989
p275
aVFLUME-2988
p276
aVFLUME-2987
p277
aVFLUME-2986
p278
aVFLUME-2985
p279
aVFLUME-2984
p280
aVFLUME-2983
p281
aVFLUME-2982
p282
aVFLUME-2981
p283
aVFLUME-2980
p284
aVFLUME-2979
p285
aVFLUME-2978
p286
aVFLUME-2977
p287
aVFLUME-2976
p288
aVFLUME-2975
p289
aVFLUME-2974
p290
aVFLUME-2973
p291
aVFLUME-2972
p292
aVFLUME-2971
p293
aVFLUME-2970
p294
aVFLUME-2969
p295
aVFLUME-2968
p296
aVFLUME-2967
p297
aVFLUME-2966
p298
aVFLUME-2965
p299
aVFLUME-2964
p300
aVFLUME-2963
p301
aVFLUME-2962
p302
aVFLUME-2961
p303
aVFLUME-2960
p304
aVFLUME-2959
p305
aVFLUME-2958
p306
aVFLUME-2957
p307
aVFLUME-2956
p308
aVFLUME-2955
p309
aVFLUME-2954
p310
aVFLUME-2953
p311
aVFLUME-2952
p312
aVFLUME-2951
p313
aVFLUME-2950
p314
aVFLUME-2949
p315
aVFLUME-2948
p316
aVFLUME-2947
p317
aVFLUME-2946
p318
aVFLUME-2945
p319
aVFLUME-2944
p320
aVFLUME-2943
p321
aVFLUME-2942
p322
aVFLUME-2941
p323
aVFLUME-2940
p324
aVFLUME-2939
p325
aVFLUME-2938
p326
aVFLUME-2937
p327
aVFLUME-2936
p328
aVFLUME-2935
p329
aVFLUME-2934
p330
aVFLUME-2933
p331
aVFLUME-2932
p332
aVFLUME-2931
p333
aVFLUME-2930
p334
aVFLUME-2929
p335
aVFLUME-2928
p336
aVFLUME-2927
p337
aVFLUME-2926
p338
aVFLUME-2925
p339
aVFLUME-2924
p340
aVFLUME-2923
p341
aVFLUME-2922
p342
aVFLUME-2921
p343
aVFLUME-2920
p344
aVFLUME-2919
p345
aVFLUME-2918
p346
aVFLUME-2917
p347
aVFLUME-2916
p348
aVFLUME-2915
p349
aVFLUME-2914
p350
aVFLUME-2913
p351
aVFLUME-2912
p352
aVFLUME-2911
p353
aVFLUME-2910
p354
aVFLUME-2909
p355
aVFLUME-2908
p356
aVFLUME-2907
p357
aVFLUME-2906
p358
aVFLUME-2905
p359
aVFLUME-2904
p360
aVFLUME-2903
p361
aVFLUME-2902
p362
aVFLUME-2901
p363
aVFLUME-2900
p364
aVFLUME-2899
p365
aVFLUME-2898
p366
aVFLUME-2897
p367
aVFLUME-2896
p368
aVFLUME-2895
p369
aVFLUME-2894
p370
aVFLUME-2893
p371
aVFLUME-2892
p372
aVFLUME-2891
p373
aVFLUME-2890
p374
aVFLUME-2889
p375
aVFLUME-2888
p376
aVFLUME-2887
p377
aVFLUME-2886
p378
aVFLUME-2885
p379
aVFLUME-2884
p380
aVFLUME-2883
p381
aVFLUME-2882
p382
aVFLUME-2881
p383
aVFLUME-2880
p384
aVFLUME-2879
p385
aVFLUME-2878
p386
aVFLUME-2877
p387
aVFLUME-2876
p388
aVFLUME-2875
p389
aVFLUME-2874
p390
aVFLUME-2872
p391
aVFLUME-2871
p392
aVFLUME-2870
p393
aVFLUME-2869
p394
aVFLUME-2868
p395
aVFLUME-2867
p396
aVFLUME-2866
p397
aVFLUME-2865
p398
aVFLUME-2864
p399
aVFLUME-2863
p400
aVFLUME-2862
p401
aVFLUME-2861
p402
aVFLUME-2860
p403
aVFLUME-2859
p404
aVFLUME-2858
p405
aVFLUME-2857
p406
aVFLUME-2856
p407
aVFLUME-2855
p408
aVFLUME-2854
p409
aVFLUME-2853
p410
aVFLUME-2852
p411
aVFLUME-2851
p412
aVFLUME-2850
p413
aVFLUME-2849
p414
aVFLUME-2848
p415
aVFLUME-2847
p416
aVFLUME-2846
p417
aVFLUME-2845
p418
aVFLUME-2844
p419
aVFLUME-2843
p420
aVFLUME-2842
p421
aVFLUME-2841
p422
aVFLUME-2840
p423
aVFLUME-2839
p424
aVFLUME-2838
p425
aVFLUME-2837
p426
aVFLUME-2836
p427
aVFLUME-2835
p428
aVFLUME-2834
p429
aVFLUME-2833
p430
aVFLUME-2832
p431
aVFLUME-2831
p432
aVFLUME-2830
p433
aVFLUME-2829
p434
aVFLUME-2828
p435
aVFLUME-2827
p436
aVFLUME-2826
p437
aVFLUME-2825
p438
aVFLUME-2824
p439
aVFLUME-2823
p440
aVFLUME-2822
p441
aVFLUME-2821
p442
aVFLUME-2820
p443
aVFLUME-2819
p444
aVFLUME-2818
p445
aVFLUME-2817
p446
aVFLUME-2816
p447
aVFLUME-2815
p448
aVFLUME-2814
p449
aVFLUME-2813
p450
aVFLUME-2812
p451
aVFLUME-2811
p452
aVFLUME-2810
p453
aVFLUME-2809
p454
aVFLUME-2808
p455
aVFLUME-2807
p456
aVFLUME-2806
p457
aVFLUME-2805
p458
aVFLUME-2804
p459
aVFLUME-2803
p460
aVFLUME-2802
p461
aVFLUME-2801
p462
aVFLUME-2800
p463
aVFLUME-2799
p464
aVFLUME-2798
p465
aVFLUME-2797
p466
aVFLUME-2796
p467
aVFLUME-2795
p468
aVFLUME-2794
p469
aVFLUME-2793
p470
aVFLUME-2792
p471
aVFLUME-2791
p472
aVFLUME-2790
p473
aVFLUME-2789
p474
aVFLUME-2788
p475
aVFLUME-2787
p476
aVFLUME-2786
p477
aVFLUME-2785
p478
aVFLUME-2784
p479
aVFLUME-2783
p480
aVFLUME-2782
p481
aVFLUME-2781
p482
aVFLUME-2780
p483
aVFLUME-2779
p484
aVFLUME-2778
p485
aVFLUME-2777
p486
aVFLUME-2776
p487
aVFLUME-2775
p488
aVFLUME-2774
p489
aVFLUME-2773
p490
aVFLUME-2772
p491
aVFLUME-2771
p492
aVFLUME-2770
p493
aVFLUME-2769
p494
aVFLUME-2768
p495
aVFLUME-2767
p496
aVFLUME-2766
p497
aVFLUME-2765
p498
aVFLUME-2764
p499
aVFLUME-2763
p500
aVFLUME-2762
p501
aVFLUME-2761
p502
aVFLUME-2760
p503
aVFLUME-2759
p504
aVFLUME-2758
p505
aVFLUME-2757
p506
aVFLUME-2756
p507
aVFLUME-2755
p508
aVFLUME-2754
p509
aVFLUME-2753
p510
aVFLUME-2752
p511
aVFLUME-2751
p512
aVFLUME-2750
p513
aVFLUME-2749
p514
aVFLUME-2748
p515
aVFLUME-2747
p516
aVFLUME-2746
p517
aVFLUME-2745
p518
aVFLUME-2744
p519
aVFLUME-2743
p520
aVFLUME-2742
p521
aVFLUME-2741
p522
aVFLUME-2740
p523
aVFLUME-2739
p524
aVFLUME-2738
p525
aVFLUME-2737
p526
aVFLUME-2736
p527
aVFLUME-2735
p528
aVFLUME-2734
p529
aVFLUME-2733
p530
aVFLUME-2732
p531
aVFLUME-2731
p532
aVFLUME-2730
p533
aVFLUME-2729
p534
aVFLUME-2728
p535
aVFLUME-2727
p536
aVFLUME-2726
p537
aVFLUME-2725
p538
aVFLUME-2724
p539
aVFLUME-2723
p540
aVFLUME-2722
p541
aVFLUME-2721
p542
aVFLUME-2720
p543
aVFLUME-2719
p544
aVFLUME-2718
p545
aVFLUME-2717
p546
aVFLUME-2716
p547
aVFLUME-2715
p548
aVFLUME-2714
p549
aVFLUME-2713
p550
aVFLUME-2712
p551
aVFLUME-2711
p552
aVFLUME-2710
p553
aVFLUME-2709
p554
aVFLUME-2708
p555
aVFLUME-2707
p556
aVFLUME-2706
p557
aVFLUME-2705
p558
aVFLUME-2704
p559
aVFLUME-2703
p560
aVFLUME-2702
p561
aVFLUME-2701
p562
aVFLUME-2700
p563
aVFLUME-2699
p564
aVFLUME-2698
p565
aVFLUME-2697
p566
aVFLUME-2696
p567
aVFLUME-2695
p568
aVFLUME-2694
p569
aVFLUME-2693
p570
aVFLUME-2692
p571
aVFLUME-2691
p572
aVFLUME-2690
p573
aVFLUME-2689
p574
aVFLUME-2688
p575
aVFLUME-2687
p576
aVFLUME-2686
p577
aVFLUME-2685
p578
aVFLUME-2684
p579
aVFLUME-2683
p580
aVFLUME-2682
p581
aVFLUME-2681
p582
aVFLUME-2680
p583
aVFLUME-2679
p584
aVFLUME-2678
p585
aVFLUME-2677
p586
aVFLUME-2676
p587
aVFLUME-2675
p588
aVFLUME-2674
p589
aVFLUME-2673
p590
aVFLUME-2672
p591
aVFLUME-2671
p592
aVFLUME-2670
p593
aVFLUME-2669
p594
aVFLUME-2668
p595
aVFLUME-2667
p596
aVFLUME-2666
p597
aVFLUME-2665
p598
aVFLUME-2664
p599
aVFLUME-2663
p600
aVFLUME-2662
p601
aVFLUME-2661
p602
aVFLUME-2660
p603
aVFLUME-2659
p604
aVFLUME-2658
p605
aVFLUME-2657
p606
aVFLUME-2656
p607
aVFLUME-2655
p608
aVFLUME-2654
p609
aVFLUME-2653
p610
aVFLUME-2652
p611
aVFLUME-2651
p612
aVFLUME-2650
p613
aVFLUME-2649
p614
aVFLUME-2648
p615
aVFLUME-2647
p616
aVFLUME-2646
p617
aVFLUME-2645
p618
aVFLUME-2644
p619
aVFLUME-2643
p620
aVFLUME-2642
p621
aVFLUME-2641
p622
aVFLUME-2640
p623
aVFLUME-2639
p624
aVFLUME-2638
p625
aVFLUME-2637
p626
aVFLUME-2636
p627
aVFLUME-2635
p628
aVFLUME-2634
p629
aVFLUME-2633
p630
aVFLUME-2632
p631
aVFLUME-2631
p632
aVFLUME-2630
p633
aVFLUME-2629
p634
aVFLUME-2628
p635
aVFLUME-2627
p636
aVFLUME-2626
p637
aVFLUME-2625
p638
aVFLUME-2624
p639
aVFLUME-2623
p640
aVFLUME-2622
p641
aVFLUME-2621
p642
aVFLUME-2620
p643
aVFLUME-2619
p644
aVFLUME-2618
p645
aVFLUME-2617
p646
aVFLUME-2616
p647
aVFLUME-2615
p648
aVFLUME-2614
p649
aVFLUME-2613
p650
aVFLUME-2612
p651
aVFLUME-2611
p652
aVFLUME-2610
p653
aVFLUME-2609
p654
aVFLUME-2608
p655
aVFLUME-2607
p656
aVFLUME-2606
p657
aVFLUME-2605
p658
aVFLUME-2604
p659
aVFLUME-2603
p660
aVFLUME-2602
p661
aVFLUME-2601
p662
aVFLUME-2600
p663
aVFLUME-2599
p664
aVFLUME-2598
p665
aVFLUME-2597
p666
aVFLUME-2596
p667
aVFLUME-2595
p668
aVFLUME-2594
p669
aVFLUME-2593
p670
aVFLUME-2592
p671
aVFLUME-2591
p672
aVFLUME-2590
p673
aVFLUME-2589
p674
aVFLUME-2588
p675
aVFLUME-2587
p676
aVFLUME-2586
p677
aVFLUME-2585
p678
aVFLUME-2584
p679
aVFLUME-2583
p680
aVFLUME-2582
p681
aVFLUME-2581
p682
aVFLUME-2580
p683
aVFLUME-2579
p684
aVFLUME-2578
p685
aVFLUME-2577
p686
aVFLUME-2576
p687
aVFLUME-2575
p688
aVFLUME-2574
p689
aVFLUME-2573
p690
aVFLUME-2572
p691
aVFLUME-2571
p692
aVFLUME-2570
p693
aVFLUME-2569
p694
aVFLUME-2568
p695
aVFLUME-2567
p696
aVFLUME-2566
p697
aVFLUME-2565
p698
aVFLUME-2564
p699
aVFLUME-2563
p700
aVFLUME-2562
p701
aVFLUME-2561
p702
aVFLUME-2560
p703
aVFLUME-2559
p704
aVFLUME-2558
p705
aVFLUME-2557
p706
aVFLUME-2556
p707
aVFLUME-2555
p708
aVFLUME-2554
p709
aVFLUME-2553
p710
aVFLUME-2552
p711
aVFLUME-2551
p712
aVFLUME-2550
p713
aVFLUME-2549
p714
aVFLUME-2548
p715
aVFLUME-2547
p716
aVFLUME-2546
p717
aVFLUME-2545
p718
aVFLUME-2544
p719
aVFLUME-2543
p720
aVFLUME-2542
p721
aVFLUME-2541
p722
aVFLUME-2540
p723
aVFLUME-2539
p724
aVFLUME-2538
p725
aVFLUME-2537
p726
aVFLUME-2536
p727
aVFLUME-2535
p728
aVFLUME-2534
p729
aVFLUME-2533
p730
aVFLUME-2532
p731
aVFLUME-2531
p732
aVFLUME-2530
p733
aVFLUME-2529
p734
aVFLUME-2528
p735
aVFLUME-2527
p736
aVFLUME-2526
p737
aVFLUME-2525
p738
aVFLUME-2524
p739
aVFLUME-2523
p740
aVFLUME-2522
p741
aVFLUME-2521
p742
aVFLUME-2520
p743
aVFLUME-2519
p744
aVFLUME-2518
p745
aVFLUME-2517
p746
aVFLUME-2516
p747
aVFLUME-2515
p748
aVFLUME-2514
p749
aVFLUME-2513
p750
aVFLUME-2512
p751
aVFLUME-2511
p752
aVFLUME-2510
p753
aVFLUME-2509
p754
aVFLUME-2508
p755
aVFLUME-2507
p756
aVFLUME-2506
p757
aVFLUME-2505
p758
aVFLUME-2504
p759
aVFLUME-2503
p760
aVFLUME-2502
p761
aVFLUME-2501
p762
aVFLUME-2500
p763
aVFLUME-2499
p764
aVFLUME-2498
p765
aVFLUME-2497
p766
aVFLUME-2496
p767
aVFLUME-2495
p768
aVFLUME-2494
p769
aVFLUME-2493
p770
aVFLUME-2492
p771
aVFLUME-2491
p772
aVFLUME-2490
p773
aVFLUME-2489
p774
aVFLUME-2488
p775
aVFLUME-2487
p776
aVFLUME-2486
p777
aVFLUME-2485
p778
aVFLUME-2484
p779
aVFLUME-2483
p780
aVFLUME-2482
p781
aVFLUME-2481
p782
aVFLUME-2480
p783
aVFLUME-2479
p784
aVFLUME-2478
p785
aVFLUME-2477
p786
aVFLUME-2476
p787
aVFLUME-2475
p788
aVFLUME-2474
p789
aVFLUME-2473
p790
aVFLUME-2472
p791
aVFLUME-2471
p792
aVFLUME-2470
p793
aVFLUME-2469
p794
aVFLUME-2468
p795
aVFLUME-2467
p796
aVFLUME-2466
p797
aVFLUME-2465
p798
aVFLUME-2464
p799
aVFLUME-2463
p800
aVFLUME-2462
p801
aVFLUME-2461
p802
aVFLUME-2460
p803
aVFLUME-2459
p804
aVFLUME-2458
p805
aVFLUME-2457
p806
aVFLUME-2456
p807
aVFLUME-2455
p808
aVFLUME-2454
p809
aVFLUME-2453
p810
aVFLUME-2452
p811
aVFLUME-2451
p812
aVFLUME-2450
p813
aVFLUME-2449
p814
aVFLUME-2448
p815
aVFLUME-2447
p816
aVFLUME-2446
p817
aVFLUME-2445
p818
aVFLUME-2444
p819
aVFLUME-2443
p820
aVFLUME-2442
p821
aVFLUME-2441
p822
aVFLUME-2440
p823
aVFLUME-2439
p824
aVFLUME-2438
p825
aVFLUME-2437
p826
aVFLUME-2436
p827
aVFLUME-2435
p828
aVFLUME-2434
p829
aVFLUME-2433
p830
aVFLUME-2432
p831
aVFLUME-2431
p832
aVFLUME-2430
p833
aVFLUME-2429
p834
aVFLUME-2428
p835
aVFLUME-2427
p836
aVFLUME-2426
p837
aVFLUME-2425
p838
aVFLUME-2424
p839
aVFLUME-2423
p840
aVFLUME-2422
p841
aVFLUME-2421
p842
aVFLUME-2420
p843
aVFLUME-2419
p844
aVFLUME-2418
p845
aVFLUME-2417
p846
aVFLUME-2416
p847
aVFLUME-2415
p848
aVFLUME-2414
p849
aVFLUME-2413
p850
aVFLUME-2412
p851
aVFLUME-2411
p852
aVFLUME-2410
p853
aVFLUME-2409
p854
aVFLUME-2408
p855
aVFLUME-2407
p856
aVFLUME-2406
p857
aVFLUME-2405
p858
aVFLUME-2404
p859
aVFLUME-2403
p860
aVFLUME-2402
p861
aVFLUME-2401
p862
aVFLUME-2400
p863
aVFLUME-2399
p864
aVFLUME-2398
p865
aVFLUME-2397
p866
aVFLUME-2396
p867
aVFLUME-2395
p868
aVFLUME-2394
p869
aVFLUME-2393
p870
aVFLUME-2392
p871
aVFLUME-2391
p872
aVFLUME-2390
p873
aVFLUME-2389
p874
aVFLUME-2388
p875
aVFLUME-2387
p876
aVFLUME-2386
p877
aVFLUME-2385
p878
aVFLUME-2384
p879
aVFLUME-2383
p880
aVFLUME-2382
p881
aVFLUME-2381
p882
aVFLUME-2380
p883
aVFLUME-2379
p884
aVFLUME-2378
p885
aVFLUME-2377
p886
aVFLUME-2376
p887
aVFLUME-2375
p888
aVFLUME-2374
p889
aVFLUME-2373
p890
aVFLUME-2372
p891
aVFLUME-2371
p892
aVFLUME-2370
p893
aVFLUME-2369
p894
aVFLUME-2368
p895
aVFLUME-2367
p896
aVFLUME-2366
p897
aVFLUME-2365
p898
aVFLUME-2364
p899
aVFLUME-2363
p900
aVFLUME-2362
p901
aVFLUME-2361
p902
aVFLUME-2360
p903
aVFLUME-2359
p904
aVFLUME-2358
p905
aVFLUME-2357
p906
aVFLUME-2356
p907
aVFLUME-2355
p908
aVFLUME-2354
p909
aVFLUME-2353
p910
aVFLUME-2352
p911
aVFLUME-2351
p912
aVFLUME-2350
p913
aVFLUME-2349
p914
aVFLUME-2348
p915
aVFLUME-2347
p916
aVFLUME-2346
p917
aVFLUME-2345
p918
aVFLUME-2344
p919
aVFLUME-2343
p920
aVFLUME-2342
p921
aVFLUME-2341
p922
aVFLUME-2340
p923
aVFLUME-2339
p924
aVFLUME-2338
p925
aVFLUME-2337
p926
aVFLUME-2336
p927
aVFLUME-2335
p928
aVFLUME-2334
p929
aVFLUME-2333
p930
aVFLUME-2332
p931
aVFLUME-2331
p932
aVFLUME-2330
p933
aVFLUME-2329
p934
aVFLUME-2328
p935
aVFLUME-2327
p936
aVFLUME-2326
p937
aVFLUME-2325
p938
aVFLUME-2324
p939
aVFLUME-2323
p940
aVFLUME-2322
p941
aVFLUME-2321
p942
aVFLUME-2320
p943
aVFLUME-2319
p944
aVFLUME-2318
p945
aVFLUME-2317
p946
aVFLUME-2316
p947
aVFLUME-2315
p948
aVFLUME-2314
p949
aVFLUME-2313
p950
aVFLUME-2312
p951
aVFLUME-2311
p952
aVFLUME-2310
p953
aVFLUME-2309
p954
aVFLUME-2308
p955
aVFLUME-2307
p956
aVFLUME-2306
p957
aVFLUME-2305
p958
aVFLUME-2304
p959
aVFLUME-2303
p960
aVFLUME-2302
p961
aVFLUME-2301
p962
aVFLUME-2300
p963
aVFLUME-2299
p964
aVFLUME-2298
p965
aVFLUME-2297
p966
aVFLUME-2296
p967
aVFLUME-2295
p968
aVFLUME-2294
p969
aVFLUME-2293
p970
aVFLUME-2292
p971
aVFLUME-2291
p972
aVFLUME-2290
p973
aVFLUME-2289
p974
aVFLUME-2288
p975
aVFLUME-2287
p976
aVFLUME-2286
p977
aVFLUME-2285
p978
aVFLUME-2284
p979
aVFLUME-2283
p980
aVFLUME-2282
p981
aVFLUME-2281
p982
aVFLUME-2280
p983
aVFLUME-2279
p984
aVFLUME-2278
p985
aVFLUME-2277
p986
aVFLUME-2276
p987
aVFLUME-2275
p988
aVFLUME-2274
p989
aVFLUME-2273
p990
aVFLUME-2272
p991
aVFLUME-2271
p992
aVFLUME-2270
p993
aVFLUME-2269
p994
aVFLUME-2268
p995
aVFLUME-2267
p996
aVFLUME-2266
p997
aVFLUME-2265
p998
aVFLUME-2264
p999
aVFLUME-2263
p1000
aVFLUME-2262
p1001
aVFLUME-2261
p1002
aVFLUME-2260
p1003
aVFLUME-2259
p1004
aVFLUME-2258
p1005
aVFLUME-2257
p1006
aVFLUME-2256
p1007
aVFLUME-2255
p1008
aVFLUME-2254
p1009
aVFLUME-2253
p1010
aVFLUME-2252
p1011
aVFLUME-2251
p1012
aVFLUME-2250
p1013
aVFLUME-2249
p1014
aVFLUME-2248
p1015
aVFLUME-2247
p1016
aVFLUME-2246
p1017
aVFLUME-2245
p1018
aVFLUME-2244
p1019
aVFLUME-2243
p1020
aVFLUME-2242
p1021
aVFLUME-2241
p1022
aVFLUME-2240
p1023
aVFLUME-2239
p1024
aVFLUME-2238
p1025
aVFLUME-2237
p1026
aVFLUME-2236
p1027
aVFLUME-2235
p1028
aVFLUME-2234
p1029
aVFLUME-2233
p1030
aVFLUME-2232
p1031
aVFLUME-2231
p1032
aVFLUME-2230
p1033
aVFLUME-2229
p1034
aVFLUME-2228
p1035
aVFLUME-2227
p1036
aVFLUME-2226
p1037
aVFLUME-2225
p1038
aVFLUME-2224
p1039
aVFLUME-2223
p1040
aVFLUME-2222
p1041
aVFLUME-2221
p1042
aVFLUME-2220
p1043
aVFLUME-2219
p1044
aVFLUME-2218
p1045
aVFLUME-2217
p1046
aVFLUME-2216
p1047
aVFLUME-2215
p1048
aVFLUME-2214
p1049
aVFLUME-2213
p1050
aVFLUME-2212
p1051
aVFLUME-2211
p1052
aVFLUME-2210
p1053
aVFLUME-2209
p1054
aVFLUME-2208
p1055
aVFLUME-2207
p1056
aVFLUME-2206
p1057
aVFLUME-2205
p1058
aVFLUME-2204
p1059
aVFLUME-2203
p1060
aVFLUME-2202
p1061
aVFLUME-2201
p1062
aVFLUME-2200
p1063
aVFLUME-2199
p1064
aVFLUME-2198
p1065
aVFLUME-2197
p1066
aVFLUME-2196
p1067
aVFLUME-2195
p1068
aVFLUME-2194
p1069
aVFLUME-2193
p1070
aVFLUME-2192
p1071
aVFLUME-2191
p1072
aVFLUME-2190
p1073
aVFLUME-2189
p1074
aVFLUME-2188
p1075
aVFLUME-2187
p1076
aVFLUME-2186
p1077
aVFLUME-2185
p1078
aVFLUME-2184
p1079
aVFLUME-2183
p1080
aVFLUME-2182
p1081
aVFLUME-2181
p1082
aVFLUME-2180
p1083
aVFLUME-2179
p1084
aVFLUME-2178
p1085
aVFLUME-2177
p1086
aVFLUME-2176
p1087
aVFLUME-2175
p1088
aVFLUME-2174
p1089
aVFLUME-2173
p1090
aVFLUME-2172
p1091
aVFLUME-2171
p1092
aVFLUME-2170
p1093
aVFLUME-2169
p1094
aVFLUME-2168
p1095
aVFLUME-2167
p1096
aVFLUME-2166
p1097
aVFLUME-2165
p1098
aVFLUME-2164
p1099
aVFLUME-2163
p1100
aVFLUME-2162
p1101
aVFLUME-2161
p1102
aVFLUME-2160
p1103
aVFLUME-2159
p1104
aVFLUME-2158
p1105
aVFLUME-2157
p1106
aVFLUME-2156
p1107
aVFLUME-2155
p1108
aVFLUME-2154
p1109
aVFLUME-2153
p1110
aVFLUME-2152
p1111
aVFLUME-2151
p1112
aVFLUME-2150
p1113
aVFLUME-2149
p1114
aVFLUME-2148
p1115
aVFLUME-2147
p1116
aVFLUME-2146
p1117
aVFLUME-2145
p1118
aVFLUME-2144
p1119
aVFLUME-2143
p1120
aVFLUME-2142
p1121
aVFLUME-2141
p1122
aVFLUME-2140
p1123
aVFLUME-2139
p1124
aVFLUME-2138
p1125
aVFLUME-2137
p1126
aVFLUME-2136
p1127
aVFLUME-2135
p1128
aVFLUME-2134
p1129
aVFLUME-2133
p1130
aVFLUME-2132
p1131
aVFLUME-2131
p1132
aVFLUME-2130
p1133
aVFLUME-2129
p1134
aVFLUME-2128
p1135
aVFLUME-2127
p1136
aVFLUME-2126
p1137
aVFLUME-2125
p1138
aVFLUME-2124
p1139
aVFLUME-2123
p1140
aVFLUME-2122
p1141
aVFLUME-2121
p1142
aVFLUME-2120
p1143
aVFLUME-2119
p1144
aVFLUME-2118
p1145
aVFLUME-2117
p1146
aVFLUME-2116
p1147
aVFLUME-2115
p1148
aVFLUME-2114
p1149
aVFLUME-2113
p1150
aVFLUME-2112
p1151
aVFLUME-2111
p1152
aVFLUME-2110
p1153
aVFLUME-2109
p1154
aVFLUME-2108
p1155
aVFLUME-2107
p1156
aVFLUME-2106
p1157
aVFLUME-2105
p1158
aVFLUME-2104
p1159
aVFLUME-2103
p1160
aVFLUME-2102
p1161
aVFLUME-2101
p1162
aVFLUME-2100
p1163
aVFLUME-2099
p1164
aVFLUME-2098
p1165
aVFLUME-2097
p1166
aVFLUME-2096
p1167
aVFLUME-2095
p1168
aVFLUME-2094
p1169
aVFLUME-2093
p1170
aVFLUME-2092
p1171
aVFLUME-2091
p1172
aVFLUME-2090
p1173
aVFLUME-2089
p1174
aVFLUME-2088
p1175
aVFLUME-2087
p1176
aVFLUME-2086
p1177
aVFLUME-2085
p1178
aVFLUME-2084
p1179
aVFLUME-2083
p1180
aVFLUME-2082
p1181
aVFLUME-2081
p1182
aVFLUME-2080
p1183
aVFLUME-2079
p1184
aVFLUME-2078
p1185
aVFLUME-2077
p1186
aVFLUME-2076
p1187
aVFLUME-2075
p1188
aVFLUME-2074
p1189
aVFLUME-2073
p1190
aVFLUME-2072
p1191
aVFLUME-2071
p1192
aVFLUME-2070
p1193
aVFLUME-2069
p1194
aVFLUME-2068
p1195
aVFLUME-2067
p1196
aVFLUME-2066
p1197
aVFLUME-2065
p1198
aVFLUME-2064
p1199
aVFLUME-2063
p1200
aVFLUME-2062
p1201
aVFLUME-2061
p1202
aVFLUME-2060
p1203
aVFLUME-2059
p1204
aVFLUME-2058
p1205
aVFLUME-2057
p1206
aVFLUME-2056
p1207
aVFLUME-2055
p1208
aVFLUME-2054
p1209
aVFLUME-2053
p1210
aVFLUME-2052
p1211
aVFLUME-2051
p1212
aVFLUME-2050
p1213
aVFLUME-2049
p1214
aVFLUME-2048
p1215
aVFLUME-2047
p1216
aVFLUME-2046
p1217
aVFLUME-2045
p1218
aVFLUME-2044
p1219
aVFLUME-2043
p1220
aVFLUME-2042
p1221
aVFLUME-2041
p1222
aVFLUME-2040
p1223
aVFLUME-2039
p1224
aVFLUME-2038
p1225
aVFLUME-2037
p1226
aVFLUME-2036
p1227
aVFLUME-2035
p1228
aVFLUME-2034
p1229
aVFLUME-2033
p1230
aVFLUME-2032
p1231
aVFLUME-2031
p1232
aVFLUME-2030
p1233
aVFLUME-2029
p1234
aVFLUME-2028
p1235
aVFLUME-2027
p1236
aVFLUME-2026
p1237
aVFLUME-2025
p1238
aVFLUME-2024
p1239
aVFLUME-2023
p1240
aVFLUME-2022
p1241
aVFLUME-2021
p1242
aVFLUME-2020
p1243
aVFLUME-2019
p1244
aVFLUME-2018
p1245
aVFLUME-2017
p1246
aVFLUME-2016
p1247
aVFLUME-2015
p1248
aVFLUME-2014
p1249
aVFLUME-2013
p1250
aVFLUME-2012
p1251
aVFLUME-2011
p1252
aVFLUME-2010
p1253
aVFLUME-2009
p1254
aVFLUME-2008
p1255
aVFLUME-2007
p1256
aVFLUME-2006
p1257
aVFLUME-2005
p1258
aVFLUME-2004
p1259
aVFLUME-2003
p1260
aVFLUME-2002
p1261
aVFLUME-2001
p1262
aVFLUME-2000
p1263
aVFLUME-1999
p1264
aVFLUME-1998
p1265
aVFLUME-1997
p1266
aVFLUME-1996
p1267
aVFLUME-1995
p1268
aVFLUME-1994
p1269
aVFLUME-1993
p1270
aVFLUME-1992
p1271
aVFLUME-1991
p1272
aVFLUME-1990
p1273
aVFLUME-1989
p1274
aVFLUME-1988
p1275
aVFLUME-1987
p1276
aVFLUME-1986
p1277
aVFLUME-1985
p1278
aVFLUME-1984
p1279
aVFLUME-1983
p1280
aVFLUME-1982
p1281
aVFLUME-1981
p1282
aVFLUME-1980
p1283
aVFLUME-1979
p1284
aVFLUME-1978
p1285
aVFLUME-1977
p1286
aVFLUME-1976
p1287
aVFLUME-1975
p1288
aVFLUME-1974
p1289
aVFLUME-1973
p1290
aVFLUME-1972
p1291
aVFLUME-1971
p1292
aVFLUME-1970
p1293
aVFLUME-1969
p1294
aVFLUME-1968
p1295
aVFLUME-1967
p1296
aVFLUME-1966
p1297
aVFLUME-1965
p1298
aVFLUME-1964
p1299
aVFLUME-1963
p1300
aVFLUME-1962
p1301
aVFLUME-1961
p1302
aVFLUME-1960
p1303
aVFLUME-1959
p1304
aVFLUME-1958
p1305
aVFLUME-1957
p1306
aVFLUME-1956
p1307
aVFLUME-1955
p1308
aVFLUME-1954
p1309
aVFLUME-1953
p1310
aVFLUME-1952
p1311
aVFLUME-1951
p1312
aVFLUME-1950
p1313
aVFLUME-1949
p1314
aVFLUME-1948
p1315
aVFLUME-1947
p1316
aVFLUME-1946
p1317
aVFLUME-1945
p1318
aVFLUME-1944
p1319
aVFLUME-1943
p1320
aVFLUME-1942
p1321
aVFLUME-1941
p1322
aVFLUME-1940
p1323
aVFLUME-1939
p1324
aVFLUME-1938
p1325
aVFLUME-1937
p1326
aVFLUME-1936
p1327
aVFLUME-1935
p1328
aVFLUME-1934
p1329
aVFLUME-1933
p1330
aVFLUME-1932
p1331
aVFLUME-1931
p1332
aVFLUME-1930
p1333
aVFLUME-1929
p1334
aVFLUME-1928
p1335
aVFLUME-1926
p1336
aVFLUME-1925
p1337
aVFLUME-1924
p1338
aVFLUME-1923
p1339
aVFLUME-1922
p1340
aVFLUME-1921
p1341
aVFLUME-1920
p1342
aVFLUME-1919
p1343
aVFLUME-1918
p1344
aVFLUME-1917
p1345
aVFLUME-1916
p1346
aVFLUME-1915
p1347
aVFLUME-1914
p1348
aVFLUME-1913
p1349
aVFLUME-1912
p1350
aVFLUME-1911
p1351
aVFLUME-1910
p1352
aVFLUME-1909
p1353
aVFLUME-1908
p1354
aVFLUME-1907
p1355
aVFLUME-1906
p1356
aVFLUME-1905
p1357
aVFLUME-1904
p1358
aVFLUME-1903
p1359
aVFLUME-1902
p1360
aVFLUME-1901
p1361
aVFLUME-1900
p1362
aVFLUME-1899
p1363
aVFLUME-1898
p1364
aVFLUME-1897
p1365
aVFLUME-1896
p1366
aVFLUME-1895
p1367
aVFLUME-1894
p1368
aVFLUME-1893
p1369
aVFLUME-1892
p1370
aVFLUME-1891
p1371
aVFLUME-1890
p1372
aVFLUME-1889
p1373
aVFLUME-1888
p1374
aVFLUME-1887
p1375
aVFLUME-1886
p1376
aVFLUME-1885
p1377
aVFLUME-1884
p1378
aVFLUME-1883
p1379
aVFLUME-1882
p1380
aVFLUME-1881
p1381
aVFLUME-1880
p1382
aVFLUME-1879
p1383
aVFLUME-1878
p1384
aVFLUME-1876
p1385
aVFLUME-1875
p1386
aVFLUME-1874
p1387
aVFLUME-1873
p1388
aVFLUME-1872
p1389
aVFLUME-1871
p1390
aVFLUME-1870
p1391
aVFLUME-1869
p1392
aVFLUME-1868
p1393
aVFLUME-1867
p1394
aVFLUME-1866
p1395
aVFLUME-1865
p1396
aVFLUME-1864
p1397
aVFLUME-1863
p1398
aVFLUME-1862
p1399
aVFLUME-1861
p1400
aVFLUME-1860
p1401
aVFLUME-1859
p1402
aVFLUME-1858
p1403
aVFLUME-1857
p1404
aVFLUME-1856
p1405
aVFLUME-1855
p1406
aVFLUME-1854
p1407
aVFLUME-1853
p1408
aVFLUME-1852
p1409
aVFLUME-1851
p1410
aVFLUME-1850
p1411
aVFLUME-1849
p1412
aVFLUME-1848
p1413
aVFLUME-1847
p1414
aVFLUME-1846
p1415
aVFLUME-1845
p1416
aVFLUME-1844
p1417
aVFLUME-1843
p1418
aVFLUME-1842
p1419
aVFLUME-1841
p1420
aVFLUME-1840
p1421
aVFLUME-1839
p1422
aVFLUME-1838
p1423
aVFLUME-1837
p1424
aVFLUME-1836
p1425
aVFLUME-1835
p1426
aVFLUME-1834
p1427
aVFLUME-1833
p1428
aVFLUME-1832
p1429
aVFLUME-1831
p1430
aVFLUME-1830
p1431
aVFLUME-1829
p1432
aVFLUME-1828
p1433
aVFLUME-1827
p1434
aVFLUME-1826
p1435
aVFLUME-1825
p1436
aVFLUME-1824
p1437
aVFLUME-1823
p1438
aVFLUME-1822
p1439
aVFLUME-1821
p1440
aVFLUME-1820
p1441
aVFLUME-1819
p1442
aVFLUME-1818
p1443
aVFLUME-1817
p1444
aVFLUME-1816
p1445
aVFLUME-1815
p1446
aVFLUME-1814
p1447
aVFLUME-1813
p1448
aVFLUME-1812
p1449
aVFLUME-1811
p1450
aVFLUME-1810
p1451
aVFLUME-1809
p1452
aVFLUME-1808
p1453
aVFLUME-1807
p1454
aVFLUME-1806
p1455
aVFLUME-1805
p1456
aVFLUME-1804
p1457
aVFLUME-1803
p1458
aVFLUME-1802
p1459
aVFLUME-1801
p1460
aVFLUME-1800
p1461
aVFLUME-1799
p1462
aVFLUME-1798
p1463
aVFLUME-1797
p1464
aVFLUME-1796
p1465
aVFLUME-1795
p1466
aVFLUME-1794
p1467
aVFLUME-1793
p1468
aVFLUME-1792
p1469
aVFLUME-1791
p1470
aVFLUME-1790
p1471
aVFLUME-1789
p1472
aVFLUME-1788
p1473
aVFLUME-1787
p1474
aVFLUME-1786
p1475
aVFLUME-1785
p1476
aVFLUME-1784
p1477
aVFLUME-1783
p1478
aVFLUME-1782
p1479
aVFLUME-1781
p1480
aVFLUME-1780
p1481
aVFLUME-1779
p1482
aVFLUME-1778
p1483
aVFLUME-1777
p1484
aVFLUME-1776
p1485
aVFLUME-1775
p1486
aVFLUME-1774
p1487
aVFLUME-1773
p1488
aVFLUME-1772
p1489
aVFLUME-1771
p1490
aVFLUME-1770
p1491
aVFLUME-1769
p1492
aVFLUME-1768
p1493
aVFLUME-1767
p1494
aVFLUME-1766
p1495
aVFLUME-1765
p1496
aVFLUME-1764
p1497
aVFLUME-1763
p1498
aVFLUME-1762
p1499
aVFLUME-1761
p1500
aVFLUME-1760
p1501
aVFLUME-1759
p1502
aVFLUME-1758
p1503
aVFLUME-1757
p1504
aVFLUME-1756
p1505
aVFLUME-1755
p1506
aVFLUME-1754
p1507
aVFLUME-1753
p1508
aVFLUME-1752
p1509
aVFLUME-1751
p1510
aVFLUME-1750
p1511
aVFLUME-1749
p1512
aVFLUME-1748
p1513
aVFLUME-1747
p1514
aVFLUME-1746
p1515
aVFLUME-1745
p1516
aVFLUME-1744
p1517
aVFLUME-1743
p1518
aVFLUME-1742
p1519
aVFLUME-1741
p1520
aVFLUME-1740
p1521
aVFLUME-1739
p1522
aVFLUME-1738
p1523
aVFLUME-1737
p1524
aVFLUME-1736
p1525
aVFLUME-1735
p1526
aVFLUME-1734
p1527
aVFLUME-1733
p1528
aVFLUME-1732
p1529
aVFLUME-1731
p1530
aVFLUME-1730
p1531
aVFLUME-1729
p1532
aVFLUME-1728
p1533
aVFLUME-1727
p1534
aVFLUME-1726
p1535
aVFLUME-1725
p1536
aVFLUME-1724
p1537
aVFLUME-1723
p1538
aVFLUME-1722
p1539
aVFLUME-1721
p1540
aVFLUME-1720
p1541
aVFLUME-1719
p1542
aVFLUME-1718
p1543
aVFLUME-1717
p1544
aVFLUME-1716
p1545
aVFLUME-1715
p1546
aVFLUME-1714
p1547
aVFLUME-1713
p1548
aVFLUME-1712
p1549
aVFLUME-1711
p1550
aVFLUME-1710
p1551
aVFLUME-1709
p1552
aVFLUME-1708
p1553
aVFLUME-1707
p1554
aVFLUME-1706
p1555
aVFLUME-1705
p1556
aVFLUME-1704
p1557
aVFLUME-1703
p1558
aVFLUME-1702
p1559
aVFLUME-1701
p1560
aVFLUME-1700
p1561
aVFLUME-1699
p1562
aVFLUME-1698
p1563
aVFLUME-1697
p1564
aVFLUME-1696
p1565
aVFLUME-1695
p1566
aVFLUME-1694
p1567
aVFLUME-1693
p1568
aVFLUME-1692
p1569
aVFLUME-1691
p1570
aVFLUME-1690
p1571
aVFLUME-1689
p1572
aVFLUME-1688
p1573
aVFLUME-1687
p1574
aVFLUME-1686
p1575
aVFLUME-1685
p1576
aVFLUME-1684
p1577
aVFLUME-1683
p1578
aVFLUME-1682
p1579
aVFLUME-1681
p1580
aVFLUME-1680
p1581
aVFLUME-1679
p1582
aVFLUME-1678
p1583
aVFLUME-1677
p1584
aVFLUME-1676
p1585
aVFLUME-1675
p1586
aVFLUME-1674
p1587
aVFLUME-1673
p1588
aVFLUME-1672
p1589
aVFLUME-1671
p1590
aVFLUME-1670
p1591
aVFLUME-1669
p1592
aVFLUME-1668
p1593
aVFLUME-1667
p1594
aVFLUME-1666
p1595
aVFLUME-1665
p1596
aVFLUME-1664
p1597
aVFLUME-1663
p1598
aVFLUME-1662
p1599
aVFLUME-1661
p1600
aVFLUME-1660
p1601
aVFLUME-1659
p1602
aVFLUME-1658
p1603
aVFLUME-1657
p1604
aVFLUME-1656
p1605
aVFLUME-1655
p1606
aVFLUME-1654
p1607
aVFLUME-1653
p1608
aVFLUME-1652
p1609
aVFLUME-1651
p1610
aVFLUME-1650
p1611
aVFLUME-1649
p1612
aVFLUME-1648
p1613
aVFLUME-1647
p1614
aVFLUME-1646
p1615
aVFLUME-1645
p1616
aVFLUME-1644
p1617
aVFLUME-1643
p1618
aVFLUME-1642
p1619
aVFLUME-1641
p1620
aVFLUME-1640
p1621
aVFLUME-1639
p1622
aVFLUME-1638
p1623
aVFLUME-1637
p1624
aVFLUME-1636
p1625
aVFLUME-1635
p1626
aVFLUME-1634
p1627
aVFLUME-1633
p1628
aVFLUME-1632
p1629
aVFLUME-1631
p1630
aVFLUME-1630
p1631
aVFLUME-1629
p1632
aVFLUME-1628
p1633
aVFLUME-1627
p1634
aVFLUME-1626
p1635
aVFLUME-1625
p1636
aVFLUME-1624
p1637
aVFLUME-1623
p1638
aVFLUME-1622
p1639
aVFLUME-1621
p1640
aVFLUME-1620
p1641
aVFLUME-1619
p1642
aVFLUME-1618
p1643
aVFLUME-1617
p1644
aVFLUME-1616
p1645
aVFLUME-1615
p1646
aVFLUME-1614
p1647
aVFLUME-1613
p1648
aVFLUME-1612
p1649
aVFLUME-1611
p1650
aVFLUME-1610
p1651
aVFLUME-1609
p1652
aVFLUME-1608
p1653
aVFLUME-1607
p1654
aVFLUME-1606
p1655
aVFLUME-1605
p1656
aVFLUME-1604
p1657
aVFLUME-1603
p1658
aVFLUME-1602
p1659
aVFLUME-1601
p1660
aVFLUME-1600
p1661
aVFLUME-1599
p1662
aVFLUME-1598
p1663
aVFLUME-1597
p1664
aVFLUME-1596
p1665
aVFLUME-1595
p1666
aVFLUME-1594
p1667
aVFLUME-1593
p1668
aVFLUME-1592
p1669
aVFLUME-1591
p1670
aVFLUME-1590
p1671
aVFLUME-1589
p1672
aVFLUME-1588
p1673
aVFLUME-1587
p1674
aVFLUME-1586
p1675
aVFLUME-1585
p1676
aVFLUME-1584
p1677
aVFLUME-1583
p1678
aVFLUME-1582
p1679
aVFLUME-1581
p1680
aVFLUME-1580
p1681
aVFLUME-1579
p1682
aVFLUME-1578
p1683
aVFLUME-1577
p1684
aVFLUME-1576
p1685
aVFLUME-1575
p1686
aVFLUME-1574
p1687
aVFLUME-1573
p1688
aVFLUME-1572
p1689
aVFLUME-1571
p1690
aVFLUME-1570
p1691
aVFLUME-1569
p1692
aVFLUME-1568
p1693
aVFLUME-1567
p1694
aVFLUME-1566
p1695
aVFLUME-1565
p1696
aVFLUME-1564
p1697
aVFLUME-1563
p1698
aVFLUME-1562
p1699
aVFLUME-1561
p1700
aVFLUME-1560
p1701
aVFLUME-1559
p1702
aVFLUME-1558
p1703
aVFLUME-1557
p1704
aVFLUME-1556
p1705
aVFLUME-1555
p1706
aVFLUME-1554
p1707
aVFLUME-1553
p1708
aVFLUME-1552
p1709
aVFLUME-1551
p1710
aVFLUME-1550
p1711
aVFLUME-1549
p1712
aVFLUME-1548
p1713
aVFLUME-1547
p1714
aVFLUME-1546
p1715
aVFLUME-1545
p1716
aVFLUME-1544
p1717
aVFLUME-1543
p1718
aVFLUME-1542
p1719
aVFLUME-1541
p1720
aVFLUME-1540
p1721
aVFLUME-1539
p1722
aVFLUME-1538
p1723
aVFLUME-1537
p1724
aVFLUME-1536
p1725
aVFLUME-1535
p1726
aVFLUME-1534
p1727
aVFLUME-1533
p1728
aVFLUME-1532
p1729
aVFLUME-1531
p1730
aVFLUME-1530
p1731
aVFLUME-1529
p1732
aVFLUME-1528
p1733
aVFLUME-1527
p1734
aVFLUME-1526
p1735
aVFLUME-1525
p1736
aVFLUME-1524
p1737
aVFLUME-1523
p1738
aVFLUME-1522
p1739
aVFLUME-1521
p1740
aVFLUME-1520
p1741
aVFLUME-1519
p1742
aVFLUME-1518
p1743
aVFLUME-1517
p1744
aVFLUME-1516
p1745
aVFLUME-1515
p1746
aVFLUME-1514
p1747
aVFLUME-1513
p1748
aVFLUME-1512
p1749
aVFLUME-1511
p1750
aVFLUME-1510
p1751
aVFLUME-1509
p1752
aVFLUME-1508
p1753
aVFLUME-1507
p1754
aVFLUME-1506
p1755
aVFLUME-1505
p1756
aVFLUME-1504
p1757
aVFLUME-1503
p1758
aVFLUME-1502
p1759
aVFLUME-1501
p1760
aVFLUME-1500
p1761
aVFLUME-1499
p1762
aVFLUME-1498
p1763
aVFLUME-1497
p1764
aVFLUME-1496
p1765
aVFLUME-1495
p1766
aVFLUME-1494
p1767
aVFLUME-1493
p1768
aVFLUME-1492
p1769
aVFLUME-1491
p1770
aVFLUME-1490
p1771
aVFLUME-1489
p1772
aVFLUME-1488
p1773
aVFLUME-1487
p1774
aVFLUME-1486
p1775
aVFLUME-1485
p1776
aVFLUME-1484
p1777
aVFLUME-1482
p1778
aVFLUME-1481
p1779
aVFLUME-1480
p1780
aVFLUME-1479
p1781
aVFLUME-1477
p1782
aVFLUME-1476
p1783
aVFLUME-1475
p1784
aVFLUME-1474
p1785
aVFLUME-1473
p1786
aVFLUME-1472
p1787
aVFLUME-1471
p1788
aVFLUME-1470
p1789
aVFLUME-1461
p1790
aVFLUME-1460
p1791
aVFLUME-1459
p1792
aVFLUME-1458
p1793
aVFLUME-1457
p1794
aVFLUME-1456
p1795
aVFLUME-1455
p1796
aVFLUME-1454
p1797
aVFLUME-1453
p1798
aVFLUME-1452
p1799
aVFLUME-1451
p1800
aVFLUME-1450
p1801
aVFLUME-1449
p1802
aVFLUME-1448
p1803
aVFLUME-1447
p1804
aVFLUME-1446
p1805
aVFLUME-1445
p1806
aVFLUME-1444
p1807
aVFLUME-1443
p1808
aVFLUME-1442
p1809
aVFLUME-1441
p1810
aVFLUME-1440
p1811
aVFLUME-1439
p1812
aVFLUME-1437
p1813
aVFLUME-1436
p1814
aVFLUME-1435
p1815
aVFLUME-1434
p1816
aVFLUME-1433
p1817
aVFLUME-1432
p1818
aVFLUME-1431
p1819
aVFLUME-1430
p1820
aVFLUME-1429
p1821
aVFLUME-1428
p1822
aVFLUME-1427
p1823
aVFLUME-1426
p1824
aVFLUME-1425
p1825
aVFLUME-1424
p1826
aVFLUME-1423
p1827
aVFLUME-1422
p1828
aVFLUME-1421
p1829
aVFLUME-1420
p1830
aVFLUME-1419
p1831
aVFLUME-1418
p1832
aVFLUME-1417
p1833
aVFLUME-1416
p1834
aVFLUME-1415
p1835
aVFLUME-1414
p1836
aVFLUME-1413
p1837
aVFLUME-1412
p1838
aVFLUME-1411
p1839
aVFLUME-1410
p1840
aVFLUME-1409
p1841
aVFLUME-1408
p1842
aVFLUME-1407
p1843
aVFLUME-1406
p1844
aVFLUME-1405
p1845
aVFLUME-1404
p1846
aVFLUME-1403
p1847
aVFLUME-1402
p1848
aVFLUME-1401
p1849
aVFLUME-1400
p1850
aVFLUME-1399
p1851
aVFLUME-1398
p1852
aVFLUME-1397
p1853
aVFLUME-1396
p1854
aVFLUME-1395
p1855
aVFLUME-1394
p1856
aVFLUME-1393
p1857
aVFLUME-1392
p1858
aVFLUME-1391
p1859
aVFLUME-1390
p1860
aVFLUME-1389
p1861
aVFLUME-1388
p1862
aVFLUME-1387
p1863
aVFLUME-1386
p1864
aVFLUME-1385
p1865
aVFLUME-1384
p1866
aVFLUME-1383
p1867
aVFLUME-1382
p1868
aVFLUME-1381
p1869
aVFLUME-1380
p1870
aVFLUME-1379
p1871
aVFLUME-1378
p1872
aVFLUME-1377
p1873
aVFLUME-1376
p1874
aVFLUME-1375
p1875
aVFLUME-1374
p1876
aVFLUME-1373
p1877
aVFLUME-1372
p1878
aVFLUME-1371
p1879
aVFLUME-1370
p1880
aVFLUME-1369
p1881
aVFLUME-1368
p1882
aVFLUME-1367
p1883
aVFLUME-1366
p1884
aVFLUME-1365
p1885
aVFLUME-1364
p1886
aVFLUME-1363
p1887
aVFLUME-1362
p1888
aVFLUME-1361
p1889
aVFLUME-1360
p1890
aVFLUME-1359
p1891
aVFLUME-1358
p1892
aVFLUME-1357
p1893
aVFLUME-1356
p1894
aVFLUME-1355
p1895
aVFLUME-1354
p1896
aVFLUME-1353
p1897
aVFLUME-1352
p1898
aVFLUME-1351
p1899
aVFLUME-1350
p1900
aVFLUME-1349
p1901
aVFLUME-1348
p1902
aVFLUME-1347
p1903
aVFLUME-1346
p1904
aVFLUME-1345
p1905
aVFLUME-1344
p1906
aVFLUME-1343
p1907
aVFLUME-1342
p1908
aVFLUME-1341
p1909
aVFLUME-1340
p1910
aVFLUME-1339
p1911
aVFLUME-1338
p1912
aVFLUME-1337
p1913
aVFLUME-1336
p1914
aVFLUME-1335
p1915
aVFLUME-1334
p1916
aVFLUME-1333
p1917
aVFLUME-1332
p1918
aVFLUME-1331
p1919
aVFLUME-1330
p1920
aVFLUME-1329
p1921
aVFLUME-1328
p1922
aVFLUME-1327
p1923
aVFLUME-1326
p1924
aVFLUME-1325
p1925
aVFLUME-1324
p1926
aVFLUME-1323
p1927
aVFLUME-1322
p1928
aVFLUME-1321
p1929
aVFLUME-1320
p1930
aVFLUME-1319
p1931
aVFLUME-1318
p1932
aVFLUME-1317
p1933
aVFLUME-1316
p1934
aVFLUME-1315
p1935
aVFLUME-1314
p1936
aVFLUME-1313
p1937
aVFLUME-1312
p1938
aVFLUME-1311
p1939
aVFLUME-1310
p1940
aVFLUME-1309
p1941
aVFLUME-1308
p1942
aVFLUME-1307
p1943
aVFLUME-1306
p1944
aVFLUME-1305
p1945
aVFLUME-1304
p1946
aVFLUME-1303
p1947
aVFLUME-1302
p1948
aVFLUME-1301
p1949
aVFLUME-1300
p1950
aVFLUME-1299
p1951
aVFLUME-1298
p1952
aVFLUME-1297
p1953
aVFLUME-1296
p1954
aVFLUME-1295
p1955
aVFLUME-1294
p1956
aVFLUME-1293
p1957
aVFLUME-1292
p1958
aVFLUME-1291
p1959
aVFLUME-1290
p1960
aVFLUME-1289
p1961
aVFLUME-1288
p1962
aVFLUME-1287
p1963
aVFLUME-1286
p1964
aVFLUME-1285
p1965
aVFLUME-1284
p1966
aVFLUME-1283
p1967
aVFLUME-1282
p1968
aVFLUME-1281
p1969
aVFLUME-1280
p1970
aVFLUME-1279
p1971
aVFLUME-1278
p1972
aVFLUME-1277
p1973
aVFLUME-1276
p1974
aVFLUME-1275
p1975
aVFLUME-1274
p1976
aVFLUME-1273
p1977
aVFLUME-1272
p1978
aVFLUME-1271
p1979
aVFLUME-1270
p1980
aVFLUME-1269
p1981
aVFLUME-1268
p1982
aVFLUME-1267
p1983
aVFLUME-1266
p1984
aVFLUME-1265
p1985
aVFLUME-1264
p1986
aVFLUME-1263
p1987
aVFLUME-1262
p1988
aVFLUME-1261
p1989
aVFLUME-1260
p1990
aVFLUME-1259
p1991
aVFLUME-1258
p1992
aVFLUME-1257
p1993
aVFLUME-1256
p1994
aVFLUME-1255
p1995
aVFLUME-1254
p1996
aVFLUME-1253
p1997
aVFLUME-1252
p1998
aVFLUME-1251
p1999
aVFLUME-1250
p2000
aVFLUME-1249
p2001
aVFLUME-1248
p2002
aVFLUME-1247
p2003
aVFLUME-1246
p2004
aVFLUME-1245
p2005
aVFLUME-1244
p2006
aVFLUME-1243
p2007
aVFLUME-1242
p2008
aVFLUME-1241
p2009
aVFLUME-1240
p2010
aVFLUME-1239
p2011
aVFLUME-1238
p2012
aVFLUME-1237
p2013
aVFLUME-1236
p2014
aVFLUME-1235
p2015
aVFLUME-1234
p2016
aVFLUME-1233
p2017
aVFLUME-1232
p2018
aVFLUME-1231
p2019
aVFLUME-1230
p2020
aVFLUME-1229
p2021
aVFLUME-1228
p2022
aVFLUME-1227
p2023
aVFLUME-1226
p2024
aVFLUME-1225
p2025
aVFLUME-1224
p2026
aVFLUME-1223
p2027
aVFLUME-1222
p2028
aVFLUME-1221
p2029
aVFLUME-1220
p2030
aVFLUME-1219
p2031
aVFLUME-1218
p2032
aVFLUME-1217
p2033
aVFLUME-1216
p2034
aVFLUME-1215
p2035
aVFLUME-1214
p2036
aVFLUME-1213
p2037
aVFLUME-1212
p2038
aVFLUME-1211
p2039
aVFLUME-1210
p2040
aVFLUME-1209
p2041
aVFLUME-1208
p2042
aVFLUME-1207
p2043
aVFLUME-1206
p2044
aVFLUME-1205
p2045
aVFLUME-1204
p2046
aVFLUME-1203
p2047
aVFLUME-1202
p2048
aVFLUME-1201
p2049
aVFLUME-1200
p2050
aVFLUME-1199
p2051
aVFLUME-1198
p2052
aVFLUME-1197
p2053
aVFLUME-1196
p2054
aVFLUME-1195
p2055
aVFLUME-1194
p2056
aVFLUME-1193
p2057
aVFLUME-1192
p2058
aVFLUME-1191
p2059
aVFLUME-1190
p2060
aVFLUME-1189
p2061
aVFLUME-1188
p2062
aVFLUME-1187
p2063
aVFLUME-1186
p2064
aVFLUME-1185
p2065
aVFLUME-1184
p2066
aVFLUME-1183
p2067
aVFLUME-1182
p2068
aVFLUME-1181
p2069
aVFLUME-1180
p2070
aVFLUME-1179
p2071
aVFLUME-1178
p2072
aVFLUME-1177
p2073
aVFLUME-1176
p2074
aVFLUME-1175
p2075
aVFLUME-1174
p2076
aVFLUME-1173
p2077
aVFLUME-1172
p2078
aVFLUME-1171
p2079
aVFLUME-1170
p2080
aVFLUME-1169
p2081
aVFLUME-1168
p2082
aVFLUME-1167
p2083
aVFLUME-1166
p2084
aVFLUME-1165
p2085
aVFLUME-1164
p2086
aVFLUME-1163
p2087
aVFLUME-1162
p2088
aVFLUME-1161
p2089
aVFLUME-1160
p2090
aVFLUME-1159
p2091
aVFLUME-1158
p2092
aVFLUME-1157
p2093
aVFLUME-1156
p2094
aVFLUME-1155
p2095
aVFLUME-1154
p2096
aVFLUME-1153
p2097
aVFLUME-1152
p2098
aVFLUME-1151
p2099
aVFLUME-1150
p2100
aVFLUME-1149
p2101
aVFLUME-1148
p2102
aVFLUME-1147
p2103
aVFLUME-1146
p2104
aVFLUME-1145
p2105
aVFLUME-1144
p2106
aVFLUME-1143
p2107
aVFLUME-1142
p2108
aVFLUME-1141
p2109
aVFLUME-1140
p2110
aVFLUME-1139
p2111
aVFLUME-1138
p2112
aVFLUME-1137
p2113
aVFLUME-1136
p2114
aVFLUME-1135
p2115
aVFLUME-1134
p2116
aVFLUME-1133
p2117
aVFLUME-1132
p2118
aVFLUME-1131
p2119
aVFLUME-1130
p2120
aVFLUME-1129
p2121
aVFLUME-1128
p2122
aVFLUME-1127
p2123
aVFLUME-1126
p2124
aVFLUME-1125
p2125
aVFLUME-1124
p2126
aVFLUME-1123
p2127
aVFLUME-1122
p2128
aVFLUME-1121
p2129
aVFLUME-1120
p2130
aVFLUME-1119
p2131
aVFLUME-1118
p2132
aVFLUME-1117
p2133
aVFLUME-1116
p2134
aVFLUME-1115
p2135
aVFLUME-1114
p2136
aVFLUME-1113
p2137
aVFLUME-1112
p2138
aVFLUME-1111
p2139
aVFLUME-1110
p2140
aVFLUME-1109
p2141
aVFLUME-1108
p2142
aVFLUME-1107
p2143
aVFLUME-1106
p2144
aVFLUME-1105
p2145
aVFLUME-1104
p2146
aVFLUME-1103
p2147
aVFLUME-1102
p2148
aVFLUME-1101
p2149
aVFLUME-1100
p2150
aVFLUME-1099
p2151
aVFLUME-1098
p2152
aVFLUME-1097
p2153
aVFLUME-1096
p2154
aVFLUME-1095
p2155
aVFLUME-1094
p2156
aVFLUME-1093
p2157
aVFLUME-1092
p2158
aVFLUME-1091
p2159
aVFLUME-1090
p2160
aVFLUME-1089
p2161
aVFLUME-1088
p2162
aVFLUME-1087
p2163
aVFLUME-1086
p2164
aVFLUME-1085
p2165
aVFLUME-1084
p2166
aVFLUME-1083
p2167
aVFLUME-1082
p2168
aVFLUME-1081
p2169
aVFLUME-1080
p2170
aVFLUME-1079
p2171
aVFLUME-1078
p2172
aVFLUME-1077
p2173
aVFLUME-1076
p2174
aVFLUME-1075
p2175
aVFLUME-1074
p2176
aVFLUME-1073
p2177
aVFLUME-1072
p2178
aVFLUME-1071
p2179
aVFLUME-1070
p2180
aVFLUME-1069
p2181
aVFLUME-1068
p2182
aVFLUME-1067
p2183
aVFLUME-1066
p2184
aVFLUME-1065
p2185
aVFLUME-1064
p2186
aVFLUME-1063
p2187
aVFLUME-1062
p2188
aVFLUME-1061
p2189
aVFLUME-1060
p2190
aVFLUME-1059
p2191
aVFLUME-1058
p2192
aVFLUME-1057
p2193
aVFLUME-1056
p2194
aVFLUME-1055
p2195
aVFLUME-1054
p2196
aVFLUME-1053
p2197
aVFLUME-1052
p2198
aVFLUME-1051
p2199
aVFLUME-1050
p2200
aVFLUME-1049
p2201
aVFLUME-1048
p2202
aVFLUME-1047
p2203
aVFLUME-1046
p2204
aVFLUME-1045
p2205
aVFLUME-1044
p2206
aVFLUME-1043
p2207
aVFLUME-1042
p2208
aVFLUME-1041
p2209
aVFLUME-1040
p2210
aVFLUME-1039
p2211
aVFLUME-1038
p2212
aVFLUME-1037
p2213
aVFLUME-1036
p2214
aVFLUME-1035
p2215
aVFLUME-1034
p2216
aVFLUME-1033
p2217
aVFLUME-1032
p2218
aVFLUME-1031
p2219
aVFLUME-1030
p2220
aVFLUME-1029
p2221
aVFLUME-1028
p2222
aVFLUME-1027
p2223
aVFLUME-1026
p2224
aVFLUME-1025
p2225
aVFLUME-1024
p2226
aVFLUME-1023
p2227
aVFLUME-1022
p2228
aVFLUME-1021
p2229
aVFLUME-1020
p2230
aVFLUME-1019
p2231
aVFLUME-1018
p2232
aVFLUME-1017
p2233
aVFLUME-1016
p2234
aVFLUME-1015
p2235
aVFLUME-1014
p2236
aVFLUME-1013
p2237
aVFLUME-1012
p2238
aVFLUME-1011
p2239
aVFLUME-1010
p2240
aVFLUME-1009
p2241
aVFLUME-1008
p2242
aVFLUME-1007
p2243
aVFLUME-1006
p2244
aVFLUME-1005
p2245
aVFLUME-1004
p2246
aVFLUME-1003
p2247
aVFLUME-1002
p2248
aVFLUME-1001
p2249
aVFLUME-1000
p2250
aVFLUME-999
p2251
aVFLUME-998
p2252
aVFLUME-997
p2253
aVFLUME-996
p2254
aVFLUME-995
p2255
aVFLUME-994
p2256
aVFLUME-993
p2257
aVFLUME-992
p2258
aVFLUME-991
p2259
aVFLUME-990
p2260
aVFLUME-989
p2261
aVFLUME-988
p2262
aVFLUME-987
p2263
aVFLUME-986
p2264
aVFLUME-985
p2265
aVFLUME-984
p2266
aVFLUME-983
p2267
aVFLUME-982
p2268
aVFLUME-981
p2269
aVFLUME-980
p2270
aVFLUME-979
p2271
aVFLUME-978
p2272
aVFLUME-977
p2273
aVFLUME-976
p2274
aVFLUME-975
p2275
aVFLUME-974
p2276
aVFLUME-973
p2277
aVFLUME-972
p2278
aVFLUME-971
p2279
aVFLUME-970
p2280
aVFLUME-969
p2281
aVFLUME-968
p2282
aVFLUME-967
p2283
aVFLUME-966
p2284
aVFLUME-965
p2285
aVFLUME-964
p2286
aVFLUME-963
p2287
aVFLUME-962
p2288
aVFLUME-961
p2289
aVFLUME-960
p2290
aVFLUME-959
p2291
aVFLUME-958
p2292
aVFLUME-957
p2293
aVFLUME-956
p2294
aVFLUME-955
p2295
aVFLUME-954
p2296
aVFLUME-953
p2297
aVFLUME-952
p2298
aVFLUME-951
p2299
aVFLUME-950
p2300
aVFLUME-949
p2301
aVFLUME-948
p2302
aVFLUME-947
p2303
aVFLUME-946
p2304
aVFLUME-945
p2305
aVFLUME-944
p2306
aVFLUME-943
p2307
aVFLUME-942
p2308
aVFLUME-941
p2309
aVFLUME-940
p2310
aVFLUME-939
p2311
aVFLUME-938
p2312
aVFLUME-937
p2313
aVFLUME-936
p2314
aVFLUME-935
p2315
aVFLUME-934
p2316
aVFLUME-933
p2317
aVFLUME-932
p2318
aVFLUME-931
p2319
aVFLUME-930
p2320
aVFLUME-929
p2321
aVFLUME-928
p2322
aVFLUME-927
p2323
aVFLUME-926
p2324
aVFLUME-925
p2325
aVFLUME-924
p2326
aVFLUME-923
p2327
aVFLUME-922
p2328
aVFLUME-921
p2329
aVFLUME-920
p2330
aVFLUME-919
p2331
aVFLUME-918
p2332
aVFLUME-917
p2333
aVFLUME-916
p2334
aVFLUME-915
p2335
aVFLUME-914
p2336
aVFLUME-913
p2337
aVFLUME-912
p2338
aVFLUME-911
p2339
aVFLUME-910
p2340
aVFLUME-909
p2341
aVFLUME-908
p2342
aVFLUME-907
p2343
aVFLUME-906
p2344
aVFLUME-905
p2345
aVFLUME-904
p2346
aVFLUME-903
p2347
aVFLUME-902
p2348
aVFLUME-901
p2349
aVFLUME-900
p2350
aVFLUME-899
p2351
aVFLUME-898
p2352
aVFLUME-897
p2353
aVFLUME-896
p2354
aVFLUME-895
p2355
aVFLUME-894
p2356
aVFLUME-893
p2357
aVFLUME-892
p2358
aVFLUME-891
p2359
aVFLUME-890
p2360
aVFLUME-889
p2361
aVFLUME-888
p2362
aVFLUME-887
p2363
aVFLUME-886
p2364
aVFLUME-885
p2365
aVFLUME-884
p2366
aVFLUME-883
p2367
aVFLUME-882
p2368
aVFLUME-881
p2369
aVFLUME-880
p2370
aVFLUME-879
p2371
aVFLUME-878
p2372
aVFLUME-876
p2373
aVFLUME-875
p2374
aVFLUME-874
p2375
aVFLUME-873
p2376
aVFLUME-872
p2377
aVFLUME-871
p2378
aVFLUME-870
p2379
aVFLUME-869
p2380
aVFLUME-868
p2381
aVFLUME-867
p2382
aVFLUME-866
p2383
aVFLUME-865
p2384
aVFLUME-864
p2385
aVFLUME-863
p2386
aVFLUME-862
p2387
aVFLUME-861
p2388
aVFLUME-860
p2389
aVFLUME-859
p2390
aVFLUME-858
p2391
aVFLUME-857
p2392
aVFLUME-856
p2393
aVFLUME-855
p2394
aVFLUME-854
p2395
aVFLUME-853
p2396
aVFLUME-852
p2397
aVFLUME-851
p2398
aVFLUME-850
p2399
aVFLUME-849
p2400
aVFLUME-848
p2401
aVFLUME-847
p2402
aVFLUME-846
p2403
aVFLUME-845
p2404
aVFLUME-844
p2405
aVFLUME-843
p2406
aVFLUME-842
p2407
aVFLUME-841
p2408
aVFLUME-840
p2409
aVFLUME-839
p2410
aVFLUME-838
p2411
aVFLUME-837
p2412
aVFLUME-836
p2413
aVFLUME-835
p2414
aVFLUME-834
p2415
aVFLUME-833
p2416
aVFLUME-832
p2417
aVFLUME-831
p2418
aVFLUME-830
p2419
aVFLUME-829
p2420
aVFLUME-828
p2421
aVFLUME-827
p2422
aVFLUME-826
p2423
aVFLUME-825
p2424
aVFLUME-824
p2425
aVFLUME-823
p2426
aVFLUME-822
p2427
aVFLUME-821
p2428
aVFLUME-820
p2429
aVFLUME-819
p2430
aVFLUME-818
p2431
aVFLUME-817
p2432
aVFLUME-816
p2433
aVFLUME-815
p2434
aVFLUME-814
p2435
aVFLUME-813
p2436
aVFLUME-812
p2437
aVFLUME-811
p2438
aVFLUME-810
p2439
aVFLUME-809
p2440
aVFLUME-808
p2441
aVFLUME-807
p2442
aVFLUME-806
p2443
aVFLUME-805
p2444
aVFLUME-804
p2445
aVFLUME-803
p2446
aVFLUME-802
p2447
aVFLUME-801
p2448
aVFLUME-800
p2449
aVFLUME-799
p2450
aVFLUME-798
p2451
aVFLUME-797
p2452
aVFLUME-796
p2453
aVFLUME-795
p2454
aVFLUME-794
p2455
aVFLUME-793
p2456
aVFLUME-792
p2457
aVFLUME-791
p2458
aVFLUME-790
p2459
aVFLUME-789
p2460
aVFLUME-788
p2461
aVFLUME-787
p2462
aVFLUME-786
p2463
aVFLUME-785
p2464
aVFLUME-784
p2465
aVFLUME-783
p2466
aVFLUME-782
p2467
aVFLUME-781
p2468
aVFLUME-780
p2469
aVFLUME-779
p2470
aVFLUME-778
p2471
aVFLUME-777
p2472
aVFLUME-776
p2473
aVFLUME-775
p2474
aVFLUME-774
p2475
aVFLUME-773
p2476
aVFLUME-772
p2477
aVFLUME-771
p2478
aVFLUME-770
p2479
aVFLUME-769
p2480
aVFLUME-768
p2481
aVFLUME-767
p2482
aVFLUME-766
p2483
aVFLUME-765
p2484
aVFLUME-764
p2485
aVFLUME-763
p2486
aVFLUME-762
p2487
aVFLUME-761
p2488
aVFLUME-760
p2489
aVFLUME-759
p2490
aVFLUME-758
p2491
aVFLUME-757
p2492
aVFLUME-756
p2493
aVFLUME-755
p2494
aVFLUME-754
p2495
aVFLUME-753
p2496
aVFLUME-752
p2497
aVFLUME-751
p2498
aVFLUME-750
p2499
aVFLUME-749
p2500
aVFLUME-748
p2501
aVFLUME-747
p2502
aVFLUME-746
p2503
aVFLUME-745
p2504
aVFLUME-744
p2505
aVFLUME-743
p2506
aVFLUME-742
p2507
aVFLUME-741
p2508
aVFLUME-740
p2509
aVFLUME-739
p2510
aVFLUME-738
p2511
aVFLUME-737
p2512
aVFLUME-736
p2513
aVFLUME-735
p2514
aVFLUME-734
p2515
aVFLUME-733
p2516
aVFLUME-732
p2517
aVFLUME-731
p2518
aVFLUME-730
p2519
aVFLUME-729
p2520
aVFLUME-728
p2521
aVFLUME-727
p2522
aVFLUME-726
p2523
aVFLUME-725
p2524
aVFLUME-724
p2525
aVFLUME-723
p2526
aVFLUME-722
p2527
aVFLUME-721
p2528
aVFLUME-720
p2529
aVFLUME-719
p2530
aVFLUME-718
p2531
aVFLUME-717
p2532
aVFLUME-716
p2533
aVFLUME-715
p2534
aVFLUME-714
p2535
aVFLUME-713
p2536
aVFLUME-712
p2537
aVFLUME-711
p2538
aVFLUME-710
p2539
aVFLUME-709
p2540
aVFLUME-708
p2541
aVFLUME-707
p2542
aVFLUME-706
p2543
aVFLUME-705
p2544
aVFLUME-704
p2545
aVFLUME-703
p2546
aVFLUME-702
p2547
aVFLUME-701
p2548
aVFLUME-700
p2549
aVFLUME-699
p2550
aVFLUME-698
p2551
aVFLUME-697
p2552
aVFLUME-696
p2553
aVFLUME-695
p2554
aVFLUME-694
p2555
aVFLUME-693
p2556
aVFLUME-692
p2557
aVFLUME-691
p2558
aVFLUME-690
p2559
aVFLUME-689
p2560
aVFLUME-688
p2561
aVFLUME-687
p2562
aVFLUME-686
p2563
aVFLUME-685
p2564
aVFLUME-684
p2565
aVFLUME-683
p2566
aVFLUME-682
p2567
aVFLUME-681
p2568
aVFLUME-680
p2569
aVFLUME-679
p2570
aVFLUME-678
p2571
aVFLUME-677
p2572
aVFLUME-676
p2573
aVFLUME-675
p2574
aVFLUME-674
p2575
aVFLUME-673
p2576
aVFLUME-672
p2577
aVFLUME-671
p2578
aVFLUME-670
p2579
aVFLUME-669
p2580
aVFLUME-668
p2581
aVFLUME-667
p2582
aVFLUME-666
p2583
aVFLUME-665
p2584
aVFLUME-664
p2585
aVFLUME-663
p2586
aVFLUME-662
p2587
aVFLUME-661
p2588
aVFLUME-660
p2589
aVFLUME-659
p2590
aVFLUME-658
p2591
aVFLUME-657
p2592
aVFLUME-656
p2593
aVFLUME-655
p2594
aVFLUME-654
p2595
aVFLUME-653
p2596
aVFLUME-652
p2597
aVFLUME-651
p2598
aVFLUME-650
p2599
aVFLUME-649
p2600
aVFLUME-648
p2601
aVFLUME-647
p2602
aVFLUME-646
p2603
aVFLUME-645
p2604
aVFLUME-644
p2605
aVFLUME-643
p2606
aVFLUME-642
p2607
aVFLUME-641
p2608
aVFLUME-640
p2609
aVFLUME-639
p2610
aVFLUME-638
p2611
aVFLUME-637
p2612
aVFLUME-636
p2613
aVFLUME-635
p2614
aVFLUME-634
p2615
aVFLUME-633
p2616
aVFLUME-632
p2617
aVFLUME-631
p2618
aVFLUME-630
p2619
aVFLUME-629
p2620
aVFLUME-628
p2621
aVFLUME-627
p2622
aVFLUME-626
p2623
aVFLUME-625
p2624
aVFLUME-624
p2625
aVFLUME-623
p2626
aVFLUME-622
p2627
aVFLUME-621
p2628
aVFLUME-620
p2629
aVFLUME-619
p2630
aVFLUME-618
p2631
aVFLUME-617
p2632
aVFLUME-616
p2633
aVFLUME-615
p2634
aVFLUME-614
p2635
aVFLUME-613
p2636
aVFLUME-612
p2637
aVFLUME-611
p2638
aVFLUME-610
p2639
aVFLUME-609
p2640
aVFLUME-608
p2641
aVFLUME-607
p2642
aVFLUME-606
p2643
aVFLUME-605
p2644
aVFLUME-604
p2645
aVFLUME-603
p2646
aVFLUME-602
p2647
aVFLUME-601
p2648
aVFLUME-600
p2649
aVFLUME-599
p2650
aVFLUME-598
p2651
aVFLUME-597
p2652
aVFLUME-596
p2653
aVFLUME-595
p2654
aVFLUME-594
p2655
aVFLUME-593
p2656
aVFLUME-592
p2657
aVFLUME-591
p2658
aVFLUME-590
p2659
aVFLUME-589
p2660
aVFLUME-588
p2661
aVFLUME-587
p2662
aVFLUME-586
p2663
aVFLUME-585
p2664
aVFLUME-584
p2665
aVFLUME-583
p2666
aVFLUME-582
p2667
aVFLUME-581
p2668
aVFLUME-580
p2669
aVFLUME-579
p2670
aVFLUME-578
p2671
aVFLUME-577
p2672
aVFLUME-576
p2673
aVFLUME-575
p2674
aVFLUME-574
p2675
aVFLUME-573
p2676
aVFLUME-572
p2677
aVFLUME-571
p2678
aVFLUME-570
p2679
aVFLUME-569
p2680
aVFLUME-568
p2681
aVFLUME-567
p2682
aVFLUME-566
p2683
aVFLUME-565
p2684
aVFLUME-564
p2685
aVFLUME-563
p2686
aVFLUME-562
p2687
aVFLUME-561
p2688
aVFLUME-560
p2689
aVFLUME-559
p2690
aVFLUME-558
p2691
aVFLUME-557
p2692
aVFLUME-556
p2693
aVFLUME-555
p2694
aVFLUME-554
p2695
aVFLUME-553
p2696
aVFLUME-552
p2697
aVFLUME-551
p2698
aVFLUME-550
p2699
aVFLUME-549
p2700
aVFLUME-548
p2701
aVFLUME-547
p2702
aVFLUME-546
p2703
aVFLUME-545
p2704
aVFLUME-544
p2705
aVFLUME-543
p2706
aVFLUME-542
p2707
aVFLUME-541
p2708
aVFLUME-540
p2709
aVFLUME-539
p2710
aVFLUME-538
p2711
aVFLUME-537
p2712
aVFLUME-536
p2713
aVFLUME-535
p2714
aVFLUME-534
p2715
aVFLUME-533
p2716
aVFLUME-532
p2717
aVFLUME-531
p2718
aVFLUME-530
p2719
aVFLUME-529
p2720
aVFLUME-528
p2721
aVFLUME-527
p2722
aVFLUME-526
p2723
aVFLUME-525
p2724
aVFLUME-524
p2725
aVFLUME-523
p2726
aVFLUME-522
p2727
aVFLUME-521
p2728
aVFLUME-520
p2729
aVFLUME-519
p2730
aVFLUME-518
p2731
aVFLUME-517
p2732
aVFLUME-516
p2733
aVFLUME-515
p2734
aVFLUME-514
p2735
aVFLUME-513
p2736
aVFLUME-512
p2737
aVFLUME-511
p2738
aVFLUME-510
p2739
aVFLUME-509
p2740
aVFLUME-508
p2741
aVFLUME-507
p2742
aVFLUME-506
p2743
aVFLUME-505
p2744
aVFLUME-504
p2745
aVFLUME-503
p2746
aVFLUME-502
p2747
aVFLUME-501
p2748
aVFLUME-500
p2749
aVFLUME-499
p2750
aVFLUME-498
p2751
aVFLUME-497
p2752
aVFLUME-496
p2753
aVFLUME-495
p2754
aVFLUME-494
p2755
aVFLUME-493
p2756
aVFLUME-492
p2757
aVFLUME-491
p2758
aVFLUME-490
p2759
aVFLUME-489
p2760
aVFLUME-488
p2761
aVFLUME-487
p2762
aVFLUME-486
p2763
aVFLUME-485
p2764
aVFLUME-484
p2765
aVFLUME-483
p2766
aVFLUME-482
p2767
aVFLUME-481
p2768
aVFLUME-480
p2769
aVFLUME-479
p2770
aVFLUME-478
p2771
aVFLUME-477
p2772
aVFLUME-476
p2773
aVFLUME-475
p2774
aVFLUME-474
p2775
aVFLUME-473
p2776
aVFLUME-472
p2777
aVFLUME-471
p2778
aVFLUME-470
p2779
aVFLUME-469
p2780
aVFLUME-468
p2781
aVFLUME-467
p2782
aVFLUME-466
p2783
aVFLUME-465
p2784
aVFLUME-464
p2785
aVFLUME-463
p2786
aVFLUME-462
p2787
aVFLUME-461
p2788
aVFLUME-460
p2789
aVFLUME-459
p2790
aVFLUME-458
p2791
aVFLUME-457
p2792
aVFLUME-456
p2793
aVFLUME-455
p2794
aVFLUME-454
p2795
aVFLUME-453
p2796
aVFLUME-452
p2797
aVFLUME-451
p2798
aVFLUME-450
p2799
aVFLUME-449
p2800
aVFLUME-448
p2801
aVFLUME-447
p2802
aVFLUME-446
p2803
aVFLUME-445
p2804
aVFLUME-444
p2805
aVFLUME-443
p2806
aVFLUME-442
p2807
aVFLUME-441
p2808
aVFLUME-440
p2809
aVFLUME-439
p2810
aVFLUME-438
p2811
aVFLUME-437
p2812
aVFLUME-436
p2813
aVFLUME-435
p2814
aVFLUME-434
p2815
aVFLUME-433
p2816
aVFLUME-432
p2817
aVFLUME-431
p2818
aVFLUME-430
p2819
aVFLUME-429
p2820
aVFLUME-428
p2821
aVFLUME-427
p2822
aVFLUME-426
p2823
aVFLUME-425
p2824
aVFLUME-424
p2825
aVFLUME-423
p2826
aVFLUME-422
p2827
aVFLUME-421
p2828
aVFLUME-420
p2829
aVFLUME-419
p2830
aVFLUME-418
p2831
aVFLUME-417
p2832
aVFLUME-416
p2833
aVFLUME-415
p2834
aVFLUME-414
p2835
aVFLUME-413
p2836
aVFLUME-412
p2837
aVFLUME-411
p2838
aVFLUME-410
p2839
aVFLUME-409
p2840
aVFLUME-408
p2841
aVFLUME-407
p2842
aVFLUME-406
p2843
aVFLUME-405
p2844
aVFLUME-404
p2845
aVFLUME-403
p2846
aVFLUME-402
p2847
aVFLUME-401
p2848
aVFLUME-400
p2849
aVFLUME-399
p2850
aVFLUME-398
p2851
aVFLUME-397
p2852
aVFLUME-396
p2853
aVFLUME-395
p2854
aVFLUME-394
p2855
aVFLUME-393
p2856
aVFLUME-392
p2857
aVFLUME-391
p2858
aVFLUME-390
p2859
aVFLUME-389
p2860
aVFLUME-388
p2861
aVFLUME-387
p2862
aVFLUME-386
p2863
aVFLUME-385
p2864
aVFLUME-384
p2865
aVFLUME-383
p2866
aVFLUME-382
p2867
aVFLUME-381
p2868
aVFLUME-380
p2869
aVFLUME-379
p2870
aVFLUME-378
p2871
aVFLUME-377
p2872
aVFLUME-376
p2873
aVFLUME-375
p2874
aVFLUME-374
p2875
aVFLUME-373
p2876
aVFLUME-372
p2877
aVFLUME-371
p2878
aVFLUME-370
p2879
aVFLUME-369
p2880
aVFLUME-368
p2881
aVFLUME-367
p2882
aVFLUME-366
p2883
aVFLUME-365
p2884
aVFLUME-364
p2885
aVFLUME-363
p2886
aVFLUME-362
p2887
aVFLUME-361
p2888
aVFLUME-360
p2889
aVFLUME-359
p2890
aVFLUME-358
p2891
aVFLUME-357
p2892
aVFLUME-356
p2893
aVFLUME-355
p2894
aVFLUME-354
p2895
aVFLUME-353
p2896
aVFLUME-352
p2897
aVFLUME-351
p2898
aVFLUME-350
p2899
aVFLUME-349
p2900
aVFLUME-348
p2901
aVFLUME-347
p2902
aVFLUME-346
p2903
aVFLUME-345
p2904
aVFLUME-344
p2905
aVFLUME-343
p2906
aVFLUME-342
p2907
aVFLUME-341
p2908
aVFLUME-340
p2909
aVFLUME-339
p2910
aVFLUME-338
p2911
aVFLUME-337
p2912
aVFLUME-336
p2913
aVFLUME-335
p2914
aVFLUME-334
p2915
aVFLUME-333
p2916
aVFLUME-332
p2917
aVFLUME-331
p2918
aVFLUME-330
p2919
aVFLUME-329
p2920
aVFLUME-328
p2921
aVFLUME-327
p2922
aVFLUME-326
p2923
aVFLUME-325
p2924
aVFLUME-324
p2925
aVFLUME-323
p2926
aVFLUME-322
p2927
aVFLUME-321
p2928
aVFLUME-320
p2929
aVFLUME-319
p2930
aVFLUME-318
p2931
aVFLUME-317
p2932
aVFLUME-316
p2933
aVFLUME-315
p2934
aVFLUME-314
p2935
aVFLUME-313
p2936
aVFLUME-312
p2937
aVFLUME-311
p2938
aVFLUME-310
p2939
aVFLUME-309
p2940
aVFLUME-308
p2941
aVFLUME-307
p2942
aVFLUME-306
p2943
aVFLUME-305
p2944
aVFLUME-304
p2945
aVFLUME-303
p2946
aVFLUME-302
p2947
aVFLUME-301
p2948
aVFLUME-300
p2949
aVFLUME-299
p2950
aVFLUME-298
p2951
aVFLUME-297
p2952
aVFLUME-296
p2953
aVFLUME-295
p2954
aVFLUME-294
p2955
aVFLUME-293
p2956
aVFLUME-292
p2957
aVFLUME-291
p2958
aVFLUME-290
p2959
aVFLUME-289
p2960
aVFLUME-288
p2961
aVFLUME-287
p2962
aVFLUME-286
p2963
aVFLUME-285
p2964
aVFLUME-284
p2965
aVFLUME-283
p2966
aVFLUME-282
p2967
aVFLUME-281
p2968
aVFLUME-280
p2969
aVFLUME-279
p2970
aVFLUME-278
p2971
aVFLUME-277
p2972
aVFLUME-276
p2973
aVFLUME-275
p2974
aVFLUME-274
p2975
aVFLUME-273
p2976
aVFLUME-272
p2977
aVFLUME-271
p2978
aVFLUME-270
p2979
aVFLUME-269
p2980
aVFLUME-268
p2981
aVFLUME-267
p2982
aVFLUME-266
p2983
aVFLUME-265
p2984
aVFLUME-264
p2985
aVFLUME-263
p2986
aVFLUME-262
p2987
aVFLUME-261
p2988
aVFLUME-260
p2989
aVFLUME-259
p2990
aVFLUME-258
p2991
aVFLUME-257
p2992
aVFLUME-256
p2993
aVFLUME-255
p2994
aVFLUME-254
p2995
aVFLUME-253
p2996
aVFLUME-252
p2997
aVFLUME-251
p2998
aVFLUME-250
p2999
aVFLUME-249
p3000
aVFLUME-248
p3001
aVFLUME-247
p3002
aVFLUME-246
p3003
aVFLUME-245
p3004
aVFLUME-244
p3005
aVFLUME-243
p3006
aVFLUME-242
p3007
aVFLUME-241
p3008
aVFLUME-240
p3009
aVFLUME-239
p3010
aVFLUME-238
p3011
aVFLUME-237
p3012
aVFLUME-236
p3013
aVFLUME-235
p3014
aVFLUME-234
p3015
aVFLUME-233
p3016
aVFLUME-232
p3017
aVFLUME-231
p3018
aVFLUME-230
p3019
aVFLUME-229
p3020
aVFLUME-228
p3021
aVFLUME-227
p3022
aVFLUME-226
p3023
aVFLUME-225
p3024
aVFLUME-224
p3025
aVFLUME-223
p3026
aVFLUME-222
p3027
aVFLUME-221
p3028
aVFLUME-220
p3029
aVFLUME-219
p3030
aVFLUME-218
p3031
aVFLUME-217
p3032
aVFLUME-216
p3033
aVFLUME-215
p3034
aVFLUME-214
p3035
aVFLUME-213
p3036
aVFLUME-212
p3037
aVFLUME-211
p3038
aVFLUME-210
p3039
aVFLUME-209
p3040
aVFLUME-208
p3041
aVFLUME-207
p3042
aVFLUME-206
p3043
aVFLUME-205
p3044
aVFLUME-204
p3045
aVFLUME-203
p3046
aVFLUME-202
p3047
aVFLUME-201
p3048
aVFLUME-200
p3049
aVFLUME-199
p3050
aVFLUME-198
p3051
aVFLUME-197
p3052
aVFLUME-196
p3053
aVFLUME-195
p3054
aVFLUME-194
p3055
aVFLUME-193
p3056
aVFLUME-192
p3057
aVFLUME-191
p3058
aVFLUME-190
p3059
aVFLUME-189
p3060
aVFLUME-188
p3061
aVFLUME-187
p3062
aVFLUME-186
p3063
aVFLUME-185
p3064
aVFLUME-184
p3065
aVFLUME-183
p3066
aVFLUME-182
p3067
aVFLUME-181
p3068
aVFLUME-180
p3069
aVFLUME-179
p3070
aVFLUME-178
p3071
aVFLUME-177
p3072
aVFLUME-176
p3073
aVFLUME-175
p3074
aVFLUME-174
p3075
aVFLUME-173
p3076
aVFLUME-172
p3077
aVFLUME-171
p3078
aVFLUME-170
p3079
aVFLUME-169
p3080
aVFLUME-168
p3081
aVFLUME-167
p3082
aVFLUME-166
p3083
aVFLUME-165
p3084
aVFLUME-164
p3085
aVFLUME-163
p3086
aVFLUME-162
p3087
aVFLUME-161
p3088
aVFLUME-160
p3089
aVFLUME-159
p3090
aVFLUME-158
p3091
aVFLUME-157
p3092
aVFLUME-156
p3093
aVFLUME-155
p3094
aVFLUME-154
p3095
aVFLUME-153
p3096
aVFLUME-152
p3097
aVFLUME-151
p3098
aVFLUME-150
p3099
aVFLUME-149
p3100
aVFLUME-148
p3101
aVFLUME-147
p3102
aVFLUME-146
p3103
aVFLUME-145
p3104
aVFLUME-144
p3105
aVFLUME-142
p3106
aVFLUME-141
p3107
aVFLUME-140
p3108
aVFLUME-139
p3109
aVFLUME-138
p3110
aVFLUME-137
p3111
aVFLUME-136
p3112
aVFLUME-135
p3113
aVFLUME-134
p3114
aVFLUME-133
p3115
aVFLUME-132
p3116
aVFLUME-131
p3117
aVFLUME-130
p3118
aVFLUME-129
p3119
aVFLUME-128
p3120
aVFLUME-127
p3121
aVFLUME-126
p3122
aVFLUME-125
p3123
aVFLUME-124
p3124
aVFLUME-123
p3125
aVFLUME-122
p3126
aVFLUME-121
p3127
aVFLUME-120
p3128
aVFLUME-119
p3129
aVFLUME-118
p3130
aVFLUME-117
p3131
aVFLUME-116
p3132
aVFLUME-115
p3133
aVFLUME-114
p3134
aVFLUME-113
p3135
aVFLUME-112
p3136
aVFLUME-111
p3137
aVFLUME-110
p3138
aVFLUME-109
p3139
aVFLUME-108
p3140
aVFLUME-107
p3141
aVFLUME-106
p3142
aVFLUME-105
p3143
aVFLUME-104
p3144
aVFLUME-103
p3145
aVFLUME-102
p3146
aVFLUME-101
p3147
aVFLUME-100
p3148
aVFLUME-99
p3149
aVFLUME-98
p3150
aVFLUME-97
p3151
aVFLUME-96
p3152
aVFLUME-95
p3153
aVFLUME-94
p3154
aVFLUME-93
p3155
aVFLUME-92
p3156
aVFLUME-91
p3157
aVFLUME-90
p3158
aVFLUME-89
p3159
aVFLUME-88
p3160
aVFLUME-87
p3161
aVFLUME-86
p3162
aVFLUME-85
p3163
aVFLUME-84
p3164
aVFLUME-83
p3165
aVFLUME-82
p3166
aVFLUME-81
p3167
aVFLUME-80
p3168
aVFLUME-79
p3169
aVFLUME-78
p3170
aVFLUME-77
p3171
aVFLUME-76
p3172
aVFLUME-75
p3173
aVFLUME-74
p3174
aVFLUME-73
p3175
aVFLUME-72
p3176
aVFLUME-71
p3177
aVFLUME-70
p3178
aVFLUME-69
p3179
aVFLUME-68
p3180
aVFLUME-67
p3181
aVFLUME-66
p3182
aVFLUME-65
p3183
aVFLUME-64
p3184
aVFLUME-63
p3185
aVFLUME-62
p3186
aVFLUME-61
p3187
aVFLUME-60
p3188
aVFLUME-59
p3189
aVFLUME-58
p3190
aVFLUME-57
p3191
aVFLUME-56
p3192
aVFLUME-55
p3193
aVFLUME-54
p3194
aVFLUME-53
p3195
aVFLUME-52
p3196
aVFLUME-51
p3197
aVFLUME-50
p3198
aVFLUME-49
p3199
aVFLUME-48
p3200
aVFLUME-47
p3201
aVFLUME-46
p3202
aVFLUME-45
p3203
aVFLUME-44
p3204
aVFLUME-43
p3205
aVFLUME-42
p3206
aVFLUME-41
p3207
aVFLUME-40
p3208
aVFLUME-39
p3209
aVFLUME-38
p3210
aVFLUME-37
p3211
aVFLUME-36
p3212
aVFLUME-35
p3213
aVFLUME-34
p3214
aVFLUME-33
p3215
aVFLUME-32
p3216
aVFLUME-31
p3217
aVFLUME-30
p3218
aVFLUME-29
p3219
aVFLUME-28
p3220
aVFLUME-27
p3221
aVFLUME-26
p3222
aVFLUME-25
p3223
aVFLUME-24
p3224
aVFLUME-23
p3225
aVFLUME-22
p3226
aVFLUME-21
p3227
aVFLUME-20
p3228
aVFLUME-19
p3229
aVFLUME-18
p3230
aVFLUME-17
p3231
aVFLUME-16
p3232
aVFLUME-15
p3233
aVFLUME-14
p3234
aVFLUME-13
p3235
aVFLUME-12
p3236
aVFLUME-11
p3237
aVFLUME-10
p3238
aVFLUME-9
p3239
aVFLUME-8
p3240
aVFLUME-7
p3241
aVFLUME-6
p3242
aVFLUME-5
p3243
aVFLUME-4
p3244
aVFLUME-3
p3245
aVFLUME-2
p3246
aVFLUME-1
p3247
a.