(lp0
VFOP-2808
p1
aVFOP-2807
p2
aVFOP-2806
p3
aVFOP-2805
p4
aVFOP-2804
p5
aVFOP-2803
p6
aVFOP-2802
p7
aVFOP-2801
p8
aVFOP-2800
p9
aVFOP-2799
p10
aVFOP-2798
p11
aVFOP-2797
p12
aVFOP-2796
p13
aVFOP-2795
p14
aVFOP-2794
p15
aVFOP-2793
p16
aVFOP-2792
p17
aVFOP-2791
p18
aVFOP-2790
p19
aVFOP-2789
p20
aVFOP-2788
p21
aVFOP-2787
p22
aVFOP-2786
p23
aVFOP-2785
p24
aVFOP-2784
p25
aVFOP-2783
p26
aVFOP-2782
p27
aVFOP-2781
p28
aVFOP-2780
p29
aVFOP-2779
p30
aVFOP-2778
p31
aVFOP-2777
p32
aVFOP-2776
p33
aVFOP-2775
p34
aVFOP-2774
p35
aVFOP-2773
p36
aVFOP-2772
p37
aVFOP-2771
p38
aVFOP-2770
p39
aVFOP-2769
p40
aVFOP-2768
p41
aVFOP-2767
p42
aVFOP-2766
p43
aVFOP-2765
p44
aVFOP-2764
p45
aVFOP-2763
p46
aVFOP-2762
p47
aVFOP-2761
p48
aVFOP-2760
p49
aVFOP-2759
p50
aVFOP-2758
p51
aVFOP-2757
p52
aVFOP-2756
p53
aVFOP-2755
p54
aVFOP-2754
p55
aVFOP-2753
p56
aVFOP-2752
p57
aVFOP-2751
p58
aVFOP-2750
p59
aVFOP-2749
p60
aVFOP-2748
p61
aVFOP-2747
p62
aVFOP-2746
p63
aVFOP-2745
p64
aVFOP-2744
p65
aVFOP-2743
p66
aVFOP-2742
p67
aVFOP-2741
p68
aVFOP-2740
p69
aVFOP-2739
p70
aVFOP-2738
p71
aVFOP-2737
p72
aVFOP-2736
p73
aVFOP-2735
p74
aVFOP-2734
p75
aVFOP-2733
p76
aVFOP-2732
p77
aVFOP-2731
p78
aVFOP-2730
p79
aVFOP-2729
p80
aVFOP-2728
p81
aVFOP-2727
p82
aVFOP-2726
p83
aVFOP-2725
p84
aVFOP-2724
p85
aVFOP-2723
p86
aVFOP-2722
p87
aVFOP-2721
p88
aVFOP-2720
p89
aVFOP-2719
p90
aVFOP-2718
p91
aVFOP-2717
p92
aVFOP-2716
p93
aVFOP-2715
p94
aVFOP-2714
p95
aVFOP-2713
p96
aVFOP-2712
p97
aVFOP-2711
p98
aVFOP-2710
p99
aVFOP-2709
p100
aVFOP-2708
p101
aVFOP-2707
p102
aVFOP-2706
p103
aVFOP-2705
p104
aVFOP-2704
p105
aVFOP-2703
p106
aVFOP-2702
p107
aVFOP-2701
p108
aVFOP-2700
p109
aVFOP-2699
p110
aVFOP-2698
p111
aVFOP-2697
p112
aVFOP-2696
p113
aVFOP-2695
p114
aVFOP-2694
p115
aVFOP-2693
p116
aVFOP-2692
p117
aVFOP-2691
p118
aVFOP-2690
p119
aVFOP-2689
p120
aVFOP-2688
p121
aVFOP-2687
p122
aVFOP-2686
p123
aVFOP-2685
p124
aVFOP-2684
p125
aVFOP-2683
p126
aVFOP-2682
p127
aVFOP-2681
p128
aVFOP-2680
p129
aVFOP-2679
p130
aVFOP-2678
p131
aVFOP-2677
p132
aVFOP-2676
p133
aVFOP-2675
p134
aVFOP-2674
p135
aVFOP-2673
p136
aVFOP-2672
p137
aVFOP-2671
p138
aVFOP-2670
p139
aVFOP-2669
p140
aVFOP-2668
p141
aVFOP-2667
p142
aVFOP-2666
p143
aVFOP-2665
p144
aVFOP-2664
p145
aVFOP-2663
p146
aVFOP-2662
p147
aVFOP-2661
p148
aVFOP-2660
p149
aVFOP-2659
p150
aVFOP-2658
p151
aVFOP-2657
p152
aVFOP-2656
p153
aVFOP-2655
p154
aVFOP-2654
p155
aVFOP-2653
p156
aVFOP-2652
p157
aVFOP-2651
p158
aVFOP-2650
p159
aVFOP-2649
p160
aVFOP-2648
p161
aVFOP-2647
p162
aVFOP-2646
p163
aVFOP-2645
p164
aVFOP-2644
p165
aVFOP-2643
p166
aVFOP-2642
p167
aVFOP-2641
p168
aVFOP-2640
p169
aVFOP-2639
p170
aVFOP-2638
p171
aVFOP-2637
p172
aVFOP-2636
p173
aVFOP-2635
p174
aVFOP-2634
p175
aVFOP-2633
p176
aVFOP-2632
p177
aVFOP-2631
p178
aVFOP-2630
p179
aVFOP-2629
p180
aVFOP-2628
p181
aVFOP-2627
p182
aVFOP-2626
p183
aVFOP-2625
p184
aVFOP-2624
p185
aVFOP-2623
p186
aVFOP-2622
p187
aVFOP-2621
p188
aVFOP-2620
p189
aVFOP-2619
p190
aVFOP-2618
p191
aVFOP-2617
p192
aVFOP-2616
p193
aVFOP-2615
p194
aVFOP-2614
p195
aVFOP-2613
p196
aVFOP-2612
p197
aVFOP-2611
p198
aVFOP-2610
p199
aVFOP-2609
p200
aVFOP-2608
p201
aVFOP-2607
p202
aVFOP-2606
p203
aVFOP-2605
p204
aVFOP-2604
p205
aVFOP-2603
p206
aVFOP-2602
p207
aVFOP-2601
p208
aVFOP-2600
p209
aVFOP-2599
p210
aVFOP-2598
p211
aVFOP-2597
p212
aVFOP-2596
p213
aVFOP-2595
p214
aVFOP-2594
p215
aVFOP-2593
p216
aVFOP-2592
p217
aVFOP-2591
p218
aVFOP-2590
p219
aVFOP-2589
p220
aVFOP-2588
p221
aVFOP-2587
p222
aVFOP-2586
p223
aVFOP-2585
p224
aVFOP-2584
p225
aVFOP-2583
p226
aVFOP-2582
p227
aVFOP-2581
p228
aVFOP-2580
p229
aVFOP-2579
p230
aVFOP-2578
p231
aVFOP-2577
p232
aVFOP-2576
p233
aVFOP-2575
p234
aVFOP-2574
p235
aVFOP-2573
p236
aVFOP-2572
p237
aVFOP-2571
p238
aVFOP-2570
p239
aVFOP-2569
p240
aVFOP-2568
p241
aVFOP-2567
p242
aVFOP-2566
p243
aVFOP-2565
p244
aVFOP-2564
p245
aVFOP-2563
p246
aVFOP-2562
p247
aVFOP-2561
p248
aVFOP-2560
p249
aVFOP-2559
p250
aVFOP-2558
p251
aVFOP-2557
p252
aVFOP-2556
p253
aVFOP-2555
p254
aVFOP-2554
p255
aVFOP-2553
p256
aVFOP-2552
p257
aVFOP-2551
p258
aVFOP-2550
p259
aVFOP-2549
p260
aVFOP-2548
p261
aVFOP-2547
p262
aVFOP-2546
p263
aVFOP-2545
p264
aVFOP-2544
p265
aVFOP-2543
p266
aVFOP-2542
p267
aVFOP-2541
p268
aVFOP-2540
p269
aVFOP-2539
p270
aVFOP-2538
p271
aVFOP-2537
p272
aVFOP-2536
p273
aVFOP-2535
p274
aVFOP-2534
p275
aVFOP-2533
p276
aVFOP-2532
p277
aVFOP-2531
p278
aVFOP-2530
p279
aVFOP-2529
p280
aVFOP-2528
p281
aVFOP-2527
p282
aVFOP-2526
p283
aVFOP-2525
p284
aVFOP-2524
p285
aVFOP-2523
p286
aVFOP-2522
p287
aVFOP-2521
p288
aVFOP-2520
p289
aVFOP-2519
p290
aVFOP-2518
p291
aVFOP-2517
p292
aVFOP-2516
p293
aVFOP-2515
p294
aVFOP-2514
p295
aVFOP-2513
p296
aVFOP-2512
p297
aVFOP-2511
p298
aVFOP-2510
p299
aVFOP-2509
p300
aVFOP-2508
p301
aVFOP-2507
p302
aVFOP-2506
p303
aVFOP-2505
p304
aVFOP-2504
p305
aVFOP-2503
p306
aVFOP-2502
p307
aVFOP-2501
p308
aVFOP-2500
p309
aVFOP-2499
p310
aVFOP-2498
p311
aVFOP-2497
p312
aVFOP-2496
p313
aVFOP-2495
p314
aVFOP-2494
p315
aVFOP-2493
p316
aVFOP-2492
p317
aVFOP-2491
p318
aVFOP-2490
p319
aVFOP-2489
p320
aVFOP-2488
p321
aVFOP-2487
p322
aVFOP-2486
p323
aVFOP-2485
p324
aVFOP-2484
p325
aVFOP-2483
p326
aVFOP-2482
p327
aVFOP-2481
p328
aVFOP-2480
p329
aVFOP-2479
p330
aVFOP-2478
p331
aVFOP-2477
p332
aVFOP-2476
p333
aVFOP-2475
p334
aVFOP-2474
p335
aVFOP-2473
p336
aVFOP-2472
p337
aVFOP-2471
p338
aVFOP-2470
p339
aVFOP-2469
p340
aVFOP-2468
p341
aVFOP-2467
p342
aVFOP-2466
p343
aVFOP-2465
p344
aVFOP-2464
p345
aVFOP-2463
p346
aVFOP-2462
p347
aVFOP-2461
p348
aVFOP-2460
p349
aVFOP-2459
p350
aVFOP-2458
p351
aVFOP-2457
p352
aVFOP-2456
p353
aVFOP-2455
p354
aVFOP-2454
p355
aVFOP-2453
p356
aVFOP-2452
p357
aVFOP-2451
p358
aVFOP-2450
p359
aVFOP-2449
p360
aVFOP-2448
p361
aVFOP-2447
p362
aVFOP-2446
p363
aVFOP-2445
p364
aVFOP-2444
p365
aVFOP-2443
p366
aVFOP-2442
p367
aVFOP-2441
p368
aVFOP-2440
p369
aVFOP-2439
p370
aVFOP-2438
p371
aVFOP-2437
p372
aVFOP-2436
p373
aVFOP-2435
p374
aVFOP-2434
p375
aVFOP-2433
p376
aVFOP-2432
p377
aVFOP-2431
p378
aVFOP-2430
p379
aVFOP-2429
p380
aVFOP-2428
p381
aVFOP-2427
p382
aVFOP-2426
p383
aVFOP-2425
p384
aVFOP-2424
p385
aVFOP-2423
p386
aVFOP-2422
p387
aVFOP-2421
p388
aVFOP-2420
p389
aVFOP-2419
p390
aVFOP-2418
p391
aVFOP-2417
p392
aVFOP-2416
p393
aVFOP-2415
p394
aVFOP-2414
p395
aVFOP-2413
p396
aVFOP-2412
p397
aVFOP-2411
p398
aVFOP-2410
p399
aVFOP-2409
p400
aVFOP-2408
p401
aVFOP-2407
p402
aVFOP-2406
p403
aVFOP-2405
p404
aVFOP-2404
p405
aVFOP-2403
p406
aVFOP-2402
p407
aVFOP-2401
p408
aVFOP-2400
p409
aVFOP-2399
p410
aVFOP-2398
p411
aVFOP-2397
p412
aVFOP-2396
p413
aVFOP-2395
p414
aVFOP-2394
p415
aVFOP-2393
p416
aVFOP-2392
p417
aVFOP-2391
p418
aVFOP-2390
p419
aVFOP-2389
p420
aVFOP-2388
p421
aVFOP-2387
p422
aVFOP-2386
p423
aVFOP-2385
p424
aVFOP-2384
p425
aVFOP-2383
p426
aVFOP-2382
p427
aVFOP-2381
p428
aVFOP-2380
p429
aVFOP-2379
p430
aVFOP-2378
p431
aVFOP-2377
p432
aVFOP-2376
p433
aVFOP-2375
p434
aVFOP-2374
p435
aVFOP-2373
p436
aVFOP-2372
p437
aVFOP-2371
p438
aVFOP-2370
p439
aVFOP-2369
p440
aVFOP-2368
p441
aVFOP-2367
p442
aVFOP-2366
p443
aVFOP-2365
p444
aVFOP-2364
p445
aVFOP-2363
p446
aVFOP-2362
p447
aVFOP-2361
p448
aVFOP-2360
p449
aVFOP-2359
p450
aVFOP-2358
p451
aVFOP-2357
p452
aVFOP-2356
p453
aVFOP-2355
p454
aVFOP-2354
p455
aVFOP-2353
p456
aVFOP-2352
p457
aVFOP-2351
p458
aVFOP-2350
p459
aVFOP-2349
p460
aVFOP-2348
p461
aVFOP-2347
p462
aVFOP-2346
p463
aVFOP-2345
p464
aVFOP-2344
p465
aVFOP-2343
p466
aVFOP-2342
p467
aVFOP-2341
p468
aVFOP-2340
p469
aVFOP-2339
p470
aVFOP-2338
p471
aVFOP-2337
p472
aVFOP-2336
p473
aVFOP-2335
p474
aVFOP-2334
p475
aVFOP-2333
p476
aVFOP-2332
p477
aVFOP-2331
p478
aVFOP-2330
p479
aVFOP-2329
p480
aVFOP-2328
p481
aVFOP-2327
p482
aVFOP-2326
p483
aVFOP-2325
p484
aVFOP-2324
p485
aVFOP-2323
p486
aVFOP-2322
p487
aVFOP-2321
p488
aVFOP-2320
p489
aVFOP-2319
p490
aVFOP-2318
p491
aVFOP-2317
p492
aVFOP-2316
p493
aVFOP-2315
p494
aVFOP-2314
p495
aVFOP-2313
p496
aVFOP-2312
p497
aVFOP-2311
p498
aVFOP-2310
p499
aVFOP-2309
p500
aVFOP-2308
p501
aVFOP-2307
p502
aVFOP-2306
p503
aVFOP-2305
p504
aVFOP-2304
p505
aVFOP-2303
p506
aVFOP-2302
p507
aVFOP-2301
p508
aVFOP-2300
p509
aVFOP-2299
p510
aVFOP-2298
p511
aVFOP-2297
p512
aVFOP-2296
p513
aVFOP-2295
p514
aVFOP-2294
p515
aVFOP-2293
p516
aVFOP-2292
p517
aVFOP-2291
p518
aVFOP-2290
p519
aVFOP-2289
p520
aVFOP-2288
p521
aVFOP-2287
p522
aVFOP-2286
p523
aVFOP-2285
p524
aVFOP-2284
p525
aVFOP-2283
p526
aVFOP-2282
p527
aVFOP-2281
p528
aVFOP-2280
p529
aVFOP-2279
p530
aVFOP-2278
p531
aVFOP-2277
p532
aVFOP-2276
p533
aVFOP-2275
p534
aVFOP-2274
p535
aVFOP-2273
p536
aVFOP-2272
p537
aVFOP-2271
p538
aVFOP-2270
p539
aVFOP-2269
p540
aVFOP-2268
p541
aVFOP-2267
p542
aVFOP-2266
p543
aVFOP-2265
p544
aVFOP-2264
p545
aVFOP-2263
p546
aVFOP-2262
p547
aVFOP-2261
p548
aVFOP-2260
p549
aVFOP-2259
p550
aVFOP-2258
p551
aVFOP-2257
p552
aVFOP-2256
p553
aVFOP-2255
p554
aVFOP-2254
p555
aVFOP-2253
p556
aVFOP-2252
p557
aVFOP-2251
p558
aVFOP-2250
p559
aVFOP-2249
p560
aVFOP-2248
p561
aVFOP-2247
p562
aVFOP-2246
p563
aVFOP-2245
p564
aVFOP-2244
p565
aVFOP-2243
p566
aVFOP-2242
p567
aVFOP-2241
p568
aVFOP-2240
p569
aVFOP-2239
p570
aVFOP-2238
p571
aVFOP-2237
p572
aVFOP-2236
p573
aVFOP-2235
p574
aVFOP-2234
p575
aVFOP-2233
p576
aVFOP-2232
p577
aVFOP-2231
p578
aVFOP-2230
p579
aVFOP-2229
p580
aVFOP-2228
p581
aVFOP-2227
p582
aVFOP-2226
p583
aVFOP-2225
p584
aVFOP-2224
p585
aVFOP-2223
p586
aVFOP-2222
p587
aVFOP-2221
p588
aVFOP-2220
p589
aVFOP-2218
p590
aVFOP-2217
p591
aVFOP-2216
p592
aVFOP-2215
p593
aVFOP-2214
p594
aVFOP-2213
p595
aVFOP-2212
p596
aVFOP-2211
p597
aVFOP-2210
p598
aVFOP-2209
p599
aVFOP-2208
p600
aVFOP-2206
p601
aVFOP-2205
p602
aVFOP-2204
p603
aVFOP-2203
p604
aVFOP-2202
p605
aVFOP-2201
p606
aVFOP-2200
p607
aVFOP-2199
p608
aVFOP-2198
p609
aVFOP-2197
p610
aVFOP-2196
p611
aVFOP-2195
p612
aVFOP-2194
p613
aVFOP-2193
p614
aVFOP-2192
p615
aVFOP-2191
p616
aVFOP-2190
p617
aVFOP-2189
p618
aVFOP-2188
p619
aVFOP-2187
p620
aVFOP-2186
p621
aVFOP-2185
p622
aVFOP-2184
p623
aVFOP-2183
p624
aVFOP-2182
p625
aVFOP-2181
p626
aVFOP-2180
p627
aVFOP-2179
p628
aVFOP-2178
p629
aVFOP-2177
p630
aVFOP-2176
p631
aVFOP-2174
p632
aVFOP-2173
p633
aVFOP-2172
p634
aVFOP-2171
p635
aVFOP-2170
p636
aVFOP-2169
p637
aVFOP-2168
p638
aVFOP-2167
p639
aVFOP-2166
p640
aVFOP-2165
p641
aVFOP-2164
p642
aVFOP-2163
p643
aVFOP-2162
p644
aVFOP-2161
p645
aVFOP-2160
p646
aVFOP-2159
p647
aVFOP-2158
p648
aVFOP-2157
p649
aVFOP-2156
p650
aVFOP-2155
p651
aVFOP-2154
p652
aVFOP-2153
p653
aVFOP-2152
p654
aVFOP-2151
p655
aVFOP-2150
p656
aVFOP-2149
p657
aVFOP-2148
p658
aVFOP-2147
p659
aVFOP-2146
p660
aVFOP-2145
p661
aVFOP-2144
p662
aVFOP-2143
p663
aVFOP-2142
p664
aVFOP-2141
p665
aVFOP-2140
p666
aVFOP-2139
p667
aVFOP-2138
p668
aVFOP-2137
p669
aVFOP-2136
p670
aVFOP-2135
p671
aVFOP-2134
p672
aVFOP-2133
p673
aVFOP-2132
p674
aVFOP-2131
p675
aVFOP-2130
p676
aVFOP-2129
p677
aVFOP-2128
p678
aVFOP-2127
p679
aVFOP-2126
p680
aVFOP-2125
p681
aVFOP-2124
p682
aVFOP-2123
p683
aVFOP-2122
p684
aVFOP-2121
p685
aVFOP-2120
p686
aVFOP-2119
p687
aVFOP-2118
p688
aVFOP-2117
p689
aVFOP-2116
p690
aVFOP-2115
p691
aVFOP-2114
p692
aVFOP-2113
p693
aVFOP-2112
p694
aVFOP-2111
p695
aVFOP-2110
p696
aVFOP-2109
p697
aVFOP-2108
p698
aVFOP-2107
p699
aVFOP-2106
p700
aVFOP-2105
p701
aVFOP-2104
p702
aVFOP-2103
p703
aVFOP-2102
p704
aVFOP-2101
p705
aVFOP-2100
p706
aVFOP-2099
p707
aVFOP-2098
p708
aVFOP-2097
p709
aVFOP-2096
p710
aVFOP-2095
p711
aVFOP-2094
p712
aVFOP-2093
p713
aVFOP-2092
p714
aVFOP-2091
p715
aVFOP-2090
p716
aVFOP-2089
p717
aVFOP-2088
p718
aVFOP-2087
p719
aVFOP-2086
p720
aVFOP-2085
p721
aVFOP-2084
p722
aVFOP-2083
p723
aVFOP-2082
p724
aVFOP-2081
p725
aVFOP-2080
p726
aVFOP-2079
p727
aVFOP-2078
p728
aVFOP-2077
p729
aVFOP-2076
p730
aVFOP-2075
p731
aVFOP-2074
p732
aVFOP-2073
p733
aVFOP-2072
p734
aVFOP-2071
p735
aVFOP-2070
p736
aVFOP-2069
p737
aVFOP-2068
p738
aVFOP-2067
p739
aVFOP-2066
p740
aVFOP-2065
p741
aVFOP-2064
p742
aVFOP-2063
p743
aVFOP-2062
p744
aVFOP-2061
p745
aVFOP-2060
p746
aVFOP-2059
p747
aVFOP-2058
p748
aVFOP-2057
p749
aVFOP-2056
p750
aVFOP-2055
p751
aVFOP-2054
p752
aVFOP-2053
p753
aVFOP-2052
p754
aVFOP-2051
p755
aVFOP-2050
p756
aVFOP-2049
p757
aVFOP-2048
p758
aVFOP-2047
p759
aVFOP-2046
p760
aVFOP-2045
p761
aVFOP-2044
p762
aVFOP-2043
p763
aVFOP-2042
p764
aVFOP-2041
p765
aVFOP-2040
p766
aVFOP-2039
p767
aVFOP-2038
p768
aVFOP-2037
p769
aVFOP-2036
p770
aVFOP-2035
p771
aVFOP-2034
p772
aVFOP-2033
p773
aVFOP-2032
p774
aVFOP-2031
p775
aVFOP-2030
p776
aVFOP-2029
p777
aVFOP-2028
p778
aVFOP-2027
p779
aVFOP-2026
p780
aVFOP-2025
p781
aVFOP-2024
p782
aVFOP-2023
p783
aVFOP-2022
p784
aVFOP-2021
p785
aVFOP-2020
p786
aVFOP-2019
p787
aVFOP-2018
p788
aVFOP-2017
p789
aVFOP-2016
p790
aVFOP-2015
p791
aVFOP-2014
p792
aVFOP-2013
p793
aVFOP-2012
p794
aVFOP-2011
p795
aVFOP-2010
p796
aVFOP-2009
p797
aVFOP-2008
p798
aVFOP-2007
p799
aVFOP-2006
p800
aVFOP-2005
p801
aVFOP-2004
p802
aVFOP-2003
p803
aVFOP-2002
p804
aVFOP-2001
p805
aVFOP-2000
p806
aVFOP-1999
p807
aVFOP-1998
p808
aVFOP-1997
p809
aVFOP-1996
p810
aVFOP-1995
p811
aVFOP-1994
p812
aVFOP-1993
p813
aVFOP-1992
p814
aVFOP-1991
p815
aVFOP-1990
p816
aVFOP-1989
p817
aVFOP-1988
p818
aVFOP-1987
p819
aVFOP-1986
p820
aVFOP-1985
p821
aVFOP-1984
p822
aVFOP-1983
p823
aVFOP-1982
p824
aVFOP-1981
p825
aVFOP-1980
p826
aVFOP-1979
p827
aVFOP-1978
p828
aVFOP-1977
p829
aVFOP-1976
p830
aVFOP-1975
p831
aVFOP-1974
p832
aVFOP-1973
p833
aVFOP-1972
p834
aVFOP-1971
p835
aVFOP-1970
p836
aVFOP-1969
p837
aVFOP-1968
p838
aVFOP-1967
p839
aVFOP-1966
p840
aVFOP-1965
p841
aVFOP-1964
p842
aVFOP-1963
p843
aVFOP-1962
p844
aVFOP-1961
p845
aVFOP-1960
p846
aVFOP-1959
p847
aVFOP-1958
p848
aVFOP-1957
p849
aVFOP-1956
p850
aVFOP-1955
p851
aVFOP-1954
p852
aVFOP-1953
p853
aVFOP-1952
p854
aVFOP-1951
p855
aVFOP-1950
p856
aVFOP-1949
p857
aVFOP-1948
p858
aVFOP-1947
p859
aVFOP-1946
p860
aVFOP-1945
p861
aVFOP-1944
p862
aVFOP-1943
p863
aVFOP-1942
p864
aVFOP-1941
p865
aVFOP-1940
p866
aVFOP-1939
p867
aVFOP-1938
p868
aVFOP-1937
p869
aVFOP-1936
p870
aVFOP-1935
p871
aVFOP-1934
p872
aVFOP-1933
p873
aVFOP-1932
p874
aVFOP-1931
p875
aVFOP-1930
p876
aVFOP-1929
p877
aVFOP-1928
p878
aVFOP-1927
p879
aVFOP-1926
p880
aVFOP-1925
p881
aVFOP-1924
p882
aVFOP-1923
p883
aVFOP-1922
p884
aVFOP-1921
p885
aVFOP-1920
p886
aVFOP-1919
p887
aVFOP-1918
p888
aVFOP-1917
p889
aVFOP-1916
p890
aVFOP-1915
p891
aVFOP-1914
p892
aVFOP-1913
p893
aVFOP-1912
p894
aVFOP-1911
p895
aVFOP-1910
p896
aVFOP-1909
p897
aVFOP-1908
p898
aVFOP-1907
p899
aVFOP-1906
p900
aVFOP-1905
p901
aVFOP-1904
p902
aVFOP-1903
p903
aVFOP-1902
p904
aVFOP-1901
p905
aVFOP-1900
p906
aVFOP-1899
p907
aVFOP-1898
p908
aVFOP-1897
p909
aVFOP-1896
p910
aVFOP-1895
p911
aVFOP-1894
p912
aVFOP-1893
p913
aVFOP-1892
p914
aVFOP-1891
p915
aVFOP-1890
p916
aVFOP-1889
p917
aVFOP-1888
p918
aVFOP-1887
p919
aVFOP-1886
p920
aVFOP-1885
p921
aVFOP-1884
p922
aVFOP-1883
p923
aVFOP-1882
p924
aVFOP-1881
p925
aVFOP-1880
p926
aVFOP-1879
p927
aVFOP-1878
p928
aVFOP-1877
p929
aVFOP-1876
p930
aVFOP-1875
p931
aVFOP-1874
p932
aVFOP-1873
p933
aVFOP-1872
p934
aVFOP-1871
p935
aVFOP-1870
p936
aVFOP-1869
p937
aVFOP-1868
p938
aVFOP-1867
p939
aVFOP-1866
p940
aVFOP-1865
p941
aVFOP-1864
p942
aVFOP-1863
p943
aVFOP-1862
p944
aVFOP-1861
p945
aVFOP-1860
p946
aVFOP-1859
p947
aVFOP-1858
p948
aVFOP-1857
p949
aVFOP-1856
p950
aVFOP-1855
p951
aVFOP-1854
p952
aVFOP-1853
p953
aVFOP-1852
p954
aVFOP-1851
p955
aVFOP-1850
p956
aVFOP-1849
p957
aVFOP-1848
p958
aVFOP-1847
p959
aVFOP-1846
p960
aVFOP-1845
p961
aVFOP-1844
p962
aVFOP-1843
p963
aVFOP-1842
p964
aVFOP-1841
p965
aVFOP-1840
p966
aVFOP-1839
p967
aVFOP-1838
p968
aVFOP-1837
p969
aVFOP-1836
p970
aVFOP-1835
p971
aVFOP-1834
p972
aVFOP-1833
p973
aVFOP-1832
p974
aVFOP-1831
p975
aVFOP-1830
p976
aVFOP-1829
p977
aVFOP-1828
p978
aVFOP-1827
p979
aVFOP-1826
p980
aVFOP-1825
p981
aVFOP-1824
p982
aVFOP-1823
p983
aVFOP-1822
p984
aVFOP-1821
p985
aVFOP-1820
p986
aVFOP-1819
p987
aVFOP-1818
p988
aVFOP-1817
p989
aVFOP-1816
p990
aVFOP-1815
p991
aVFOP-1814
p992
aVFOP-1813
p993
aVFOP-1812
p994
aVFOP-1811
p995
aVFOP-1810
p996
aVFOP-1809
p997
aVFOP-1808
p998
aVFOP-1807
p999
aVFOP-1806
p1000
aVFOP-1805
p1001
aVFOP-1804
p1002
aVFOP-1803
p1003
aVFOP-1802
p1004
aVFOP-1801
p1005
aVFOP-1800
p1006
aVFOP-1799
p1007
aVFOP-1798
p1008
aVFOP-1797
p1009
aVFOP-1796
p1010
aVFOP-1795
p1011
aVFOP-1794
p1012
aVFOP-1793
p1013
aVFOP-1792
p1014
aVFOP-1791
p1015
aVFOP-1790
p1016
aVFOP-1789
p1017
aVFOP-1788
p1018
aVFOP-1787
p1019
aVFOP-1786
p1020
aVFOP-1785
p1021
aVFOP-1784
p1022
aVFOP-1783
p1023
aVFOP-1782
p1024
aVFOP-1781
p1025
aVFOP-1780
p1026
aVFOP-1779
p1027
aVFOP-1778
p1028
aVFOP-1777
p1029
aVFOP-1776
p1030
aVFOP-1775
p1031
aVFOP-1774
p1032
aVFOP-1773
p1033
aVFOP-1772
p1034
aVFOP-1771
p1035
aVFOP-1770
p1036
aVFOP-1769
p1037
aVFOP-1768
p1038
aVFOP-1767
p1039
aVFOP-1766
p1040
aVFOP-1765
p1041
aVFOP-1764
p1042
aVFOP-1763
p1043
aVFOP-1762
p1044
aVFOP-1761
p1045
aVFOP-1760
p1046
aVFOP-1759
p1047
aVFOP-1758
p1048
aVFOP-1757
p1049
aVFOP-1756
p1050
aVFOP-1755
p1051
aVFOP-1754
p1052
aVFOP-1753
p1053
aVFOP-1752
p1054
aVFOP-1751
p1055
aVFOP-1750
p1056
aVFOP-1749
p1057
aVFOP-1748
p1058
aVFOP-1747
p1059
aVFOP-1746
p1060
aVFOP-1745
p1061
aVFOP-1744
p1062
aVFOP-1743
p1063
aVFOP-1742
p1064
aVFOP-1741
p1065
aVFOP-1740
p1066
aVFOP-1739
p1067
aVFOP-1738
p1068
aVFOP-1737
p1069
aVFOP-1736
p1070
aVFOP-1735
p1071
aVFOP-1734
p1072
aVFOP-1733
p1073
aVFOP-1732
p1074
aVFOP-1731
p1075
aVFOP-1730
p1076
aVFOP-1729
p1077
aVFOP-1728
p1078
aVFOP-1727
p1079
aVFOP-1726
p1080
aVFOP-1725
p1081
aVFOP-1724
p1082
aVFOP-1723
p1083
aVFOP-1722
p1084
aVFOP-1721
p1085
aVFOP-1720
p1086
aVFOP-1719
p1087
aVFOP-1718
p1088
aVFOP-1717
p1089
aVFOP-1716
p1090
aVFOP-1715
p1091
aVFOP-1714
p1092
aVFOP-1713
p1093
aVFOP-1712
p1094
aVFOP-1711
p1095
aVFOP-1710
p1096
aVFOP-1709
p1097
aVFOP-1708
p1098
aVFOP-1707
p1099
aVFOP-1706
p1100
aVFOP-1705
p1101
aVFOP-1704
p1102
aVFOP-1703
p1103
aVFOP-1702
p1104
aVFOP-1701
p1105
aVFOP-1700
p1106
aVFOP-1699
p1107
aVFOP-1698
p1108
aVFOP-1697
p1109
aVFOP-1696
p1110
aVFOP-1695
p1111
aVFOP-1694
p1112
aVFOP-1693
p1113
aVFOP-1692
p1114
aVFOP-1691
p1115
aVFOP-1690
p1116
aVFOP-1689
p1117
aVFOP-1688
p1118
aVFOP-1687
p1119
aVFOP-1686
p1120
aVFOP-1685
p1121
aVFOP-1684
p1122
aVFOP-1683
p1123
aVFOP-1682
p1124
aVFOP-1681
p1125
aVFOP-1680
p1126
aVFOP-1679
p1127
aVFOP-1678
p1128
aVFOP-1677
p1129
aVFOP-1676
p1130
aVFOP-1675
p1131
aVFOP-1674
p1132
aVFOP-1673
p1133
aVFOP-1672
p1134
aVFOP-1671
p1135
aVFOP-1670
p1136
aVFOP-1669
p1137
aVFOP-1668
p1138
aVFOP-1667
p1139
aVFOP-1666
p1140
aVFOP-1665
p1141
aVFOP-1664
p1142
aVFOP-1663
p1143
aVFOP-1662
p1144
aVFOP-1661
p1145
aVFOP-1660
p1146
aVFOP-1659
p1147
aVFOP-1658
p1148
aVFOP-1657
p1149
aVFOP-1656
p1150
aVFOP-1655
p1151
aVFOP-1654
p1152
aVFOP-1653
p1153
aVFOP-1652
p1154
aVFOP-1651
p1155
aVFOP-1650
p1156
aVFOP-1649
p1157
aVFOP-1648
p1158
aVFOP-1647
p1159
aVFOP-1646
p1160
aVFOP-1645
p1161
aVFOP-1644
p1162
aVFOP-1643
p1163
aVFOP-1642
p1164
aVFOP-1641
p1165
aVFOP-1640
p1166
aVFOP-1639
p1167
aVFOP-1638
p1168
aVFOP-1637
p1169
aVFOP-1636
p1170
aVFOP-1635
p1171
aVFOP-1634
p1172
aVFOP-1633
p1173
aVFOP-1632
p1174
aVFOP-1631
p1175
aVFOP-1630
p1176
aVFOP-1629
p1177
aVFOP-1628
p1178
aVFOP-1627
p1179
aVFOP-1626
p1180
aVFOP-1625
p1181
aVFOP-1624
p1182
aVFOP-1623
p1183
aVFOP-1622
p1184
aVFOP-1621
p1185
aVFOP-1620
p1186
aVFOP-1619
p1187
aVFOP-1618
p1188
aVFOP-1617
p1189
aVFOP-1616
p1190
aVFOP-1615
p1191
aVFOP-1614
p1192
aVFOP-1613
p1193
aVFOP-1612
p1194
aVFOP-1611
p1195
aVFOP-1610
p1196
aVFOP-1609
p1197
aVFOP-1608
p1198
aVFOP-1607
p1199
aVFOP-1606
p1200
aVFOP-1605
p1201
aVFOP-1604
p1202
aVFOP-1603
p1203
aVFOP-1602
p1204
aVFOP-1601
p1205
aVFOP-1600
p1206
aVFOP-1599
p1207
aVFOP-1598
p1208
aVFOP-1597
p1209
aVFOP-1596
p1210
aVFOP-1595
p1211
aVFOP-1594
p1212
aVFOP-1593
p1213
aVFOP-1592
p1214
aVFOP-1591
p1215
aVFOP-1590
p1216
aVFOP-1589
p1217
aVFOP-1588
p1218
aVFOP-1587
p1219
aVFOP-1586
p1220
aVFOP-1585
p1221
aVFOP-1584
p1222
aVFOP-1583
p1223
aVFOP-1582
p1224
aVFOP-1581
p1225
aVFOP-1580
p1226
aVFOP-1579
p1227
aVFOP-1578
p1228
aVFOP-1577
p1229
aVFOP-1576
p1230
aVFOP-1575
p1231
aVFOP-1574
p1232
aVFOP-1573
p1233
aVFOP-1572
p1234
aVFOP-1571
p1235
aVFOP-1570
p1236
aVFOP-1569
p1237
aVFOP-1568
p1238
aVFOP-1567
p1239
aVFOP-1566
p1240
aVFOP-1565
p1241
aVFOP-1564
p1242
aVFOP-1563
p1243
aVFOP-1562
p1244
aVFOP-1561
p1245
aVFOP-1560
p1246
aVFOP-1559
p1247
aVFOP-1558
p1248
aVFOP-1557
p1249
aVFOP-1556
p1250
aVFOP-1555
p1251
aVFOP-1554
p1252
aVFOP-1553
p1253
aVFOP-1552
p1254
aVFOP-1551
p1255
aVFOP-1550
p1256
aVFOP-1549
p1257
aVFOP-1548
p1258
aVFOP-1547
p1259
aVFOP-1546
p1260
aVFOP-1545
p1261
aVFOP-1544
p1262
aVFOP-1543
p1263
aVFOP-1542
p1264
aVFOP-1541
p1265
aVFOP-1540
p1266
aVFOP-1539
p1267
aVFOP-1538
p1268
aVFOP-1537
p1269
aVFOP-1536
p1270
aVFOP-1535
p1271
aVFOP-1534
p1272
aVFOP-1533
p1273
aVFOP-1532
p1274
aVFOP-1531
p1275
aVFOP-1530
p1276
aVFOP-1529
p1277
aVFOP-1528
p1278
aVFOP-1527
p1279
aVFOP-1526
p1280
aVFOP-1525
p1281
aVFOP-1524
p1282
aVFOP-1523
p1283
aVFOP-1522
p1284
aVFOP-1521
p1285
aVFOP-1520
p1286
aVFOP-1519
p1287
aVFOP-1518
p1288
aVFOP-1517
p1289
aVFOP-1516
p1290
aVFOP-1515
p1291
aVFOP-1514
p1292
aVFOP-1513
p1293
aVFOP-1512
p1294
aVFOP-1511
p1295
aVFOP-1510
p1296
aVFOP-1509
p1297
aVFOP-1508
p1298
aVFOP-1507
p1299
aVFOP-1506
p1300
aVFOP-1505
p1301
aVFOP-1504
p1302
aVFOP-1503
p1303
aVFOP-1502
p1304
aVFOP-1501
p1305
aVFOP-1500
p1306
aVFOP-1499
p1307
aVFOP-1498
p1308
aVFOP-1497
p1309
aVFOP-1496
p1310
aVFOP-1495
p1311
aVFOP-1494
p1312
aVFOP-1493
p1313
aVFOP-1492
p1314
aVFOP-1491
p1315
aVFOP-1490
p1316
aVFOP-1489
p1317
aVFOP-1488
p1318
aVFOP-1487
p1319
aVFOP-1486
p1320
aVFOP-1485
p1321
aVFOP-1484
p1322
aVFOP-1483
p1323
aVFOP-1482
p1324
aVFOP-1481
p1325
aVFOP-1480
p1326
aVFOP-1479
p1327
aVFOP-1478
p1328
aVFOP-1477
p1329
aVFOP-1476
p1330
aVFOP-1475
p1331
aVFOP-1474
p1332
aVFOP-1473
p1333
aVFOP-1472
p1334
aVFOP-1471
p1335
aVFOP-1470
p1336
aVFOP-1469
p1337
aVFOP-1468
p1338
aVFOP-1467
p1339
aVFOP-1466
p1340
aVFOP-1465
p1341
aVFOP-1464
p1342
aVFOP-1463
p1343
aVFOP-1462
p1344
aVFOP-1461
p1345
aVFOP-1460
p1346
aVFOP-1459
p1347
aVFOP-1458
p1348
aVFOP-1457
p1349
aVFOP-1456
p1350
aVFOP-1455
p1351
aVFOP-1454
p1352
aVFOP-1453
p1353
aVFOP-1452
p1354
aVFOP-1451
p1355
aVFOP-1450
p1356
aVFOP-1449
p1357
aVFOP-1448
p1358
aVFOP-1447
p1359
aVFOP-1446
p1360
aVFOP-1445
p1361
aVFOP-1444
p1362
aVFOP-1443
p1363
aVFOP-1442
p1364
aVFOP-1441
p1365
aVFOP-1440
p1366
aVFOP-1439
p1367
aVFOP-1438
p1368
aVFOP-1437
p1369
aVFOP-1436
p1370
aVFOP-1435
p1371
aVFOP-1434
p1372
aVFOP-1433
p1373
aVFOP-1432
p1374
aVFOP-1431
p1375
aVFOP-1430
p1376
aVFOP-1429
p1377
aVFOP-1428
p1378
aVFOP-1427
p1379
aVFOP-1426
p1380
aVFOP-1425
p1381
aVFOP-1424
p1382
aVFOP-1423
p1383
aVFOP-1422
p1384
aVFOP-1421
p1385
aVFOP-1420
p1386
aVFOP-1419
p1387
aVFOP-1418
p1388
aVFOP-1417
p1389
aVFOP-1416
p1390
aVFOP-1415
p1391
aVFOP-1414
p1392
aVFOP-1413
p1393
aVFOP-1412
p1394
aVFOP-1411
p1395
aVFOP-1410
p1396
aVFOP-1409
p1397
aVFOP-1408
p1398
aVFOP-1407
p1399
aVFOP-1406
p1400
aVFOP-1405
p1401
aVFOP-1404
p1402
aVFOP-1403
p1403
aVFOP-1402
p1404
aVFOP-1401
p1405
aVFOP-1400
p1406
aVFOP-1399
p1407
aVFOP-1398
p1408
aVFOP-1397
p1409
aVFOP-1396
p1410
aVFOP-1395
p1411
aVFOP-1394
p1412
aVFOP-1393
p1413
aVFOP-1392
p1414
aVFOP-1391
p1415
aVFOP-1390
p1416
aVFOP-1389
p1417
aVFOP-1388
p1418
aVFOP-1387
p1419
aVFOP-1386
p1420
aVFOP-1385
p1421
aVFOP-1384
p1422
aVFOP-1383
p1423
aVFOP-1382
p1424
aVFOP-1381
p1425
aVFOP-1380
p1426
aVFOP-1379
p1427
aVFOP-1378
p1428
aVFOP-1377
p1429
aVFOP-1376
p1430
aVFOP-1375
p1431
aVFOP-1374
p1432
aVFOP-1373
p1433
aVFOP-1372
p1434
aVFOP-1371
p1435
aVFOP-1370
p1436
aVFOP-1369
p1437
aVFOP-1368
p1438
aVFOP-1367
p1439
aVFOP-1366
p1440
aVFOP-1365
p1441
aVFOP-1364
p1442
aVFOP-1363
p1443
aVFOP-1362
p1444
aVFOP-1361
p1445
aVFOP-1360
p1446
aVFOP-1359
p1447
aVFOP-1358
p1448
aVFOP-1357
p1449
aVFOP-1356
p1450
aVFOP-1355
p1451
aVFOP-1354
p1452
aVFOP-1353
p1453
aVFOP-1352
p1454
aVFOP-1351
p1455
aVFOP-1350
p1456
aVFOP-1349
p1457
aVFOP-1348
p1458
aVFOP-1347
p1459
aVFOP-1346
p1460
aVFOP-1345
p1461
aVFOP-1344
p1462
aVFOP-1343
p1463
aVFOP-1342
p1464
aVFOP-1341
p1465
aVFOP-1340
p1466
aVFOP-1339
p1467
aVFOP-1338
p1468
aVFOP-1337
p1469
aVFOP-1336
p1470
aVFOP-1335
p1471
aVFOP-1334
p1472
aVFOP-1333
p1473
aVFOP-1332
p1474
aVFOP-1331
p1475
aVFOP-1330
p1476
aVFOP-1329
p1477
aVFOP-1328
p1478
aVFOP-1327
p1479
aVFOP-1326
p1480
aVFOP-1325
p1481
aVFOP-1324
p1482
aVFOP-1323
p1483
aVFOP-1322
p1484
aVFOP-1321
p1485
aVFOP-1320
p1486
aVFOP-1319
p1487
aVFOP-1318
p1488
aVFOP-1317
p1489
aVFOP-1316
p1490
aVFOP-1315
p1491
aVFOP-1314
p1492
aVFOP-1313
p1493
aVFOP-1312
p1494
aVFOP-1311
p1495
aVFOP-1310
p1496
aVFOP-1309
p1497
aVFOP-1308
p1498
aVFOP-1307
p1499
aVFOP-1306
p1500
aVFOP-1305
p1501
aVFOP-1304
p1502
aVFOP-1303
p1503
aVFOP-1302
p1504
aVFOP-1301
p1505
aVFOP-1300
p1506
aVFOP-1299
p1507
aVFOP-1298
p1508
aVFOP-1297
p1509
aVFOP-1296
p1510
aVFOP-1295
p1511
aVFOP-1294
p1512
aVFOP-1293
p1513
aVFOP-1292
p1514
aVFOP-1291
p1515
aVFOP-1290
p1516
aVFOP-1289
p1517
aVFOP-1288
p1518
aVFOP-1287
p1519
aVFOP-1286
p1520
aVFOP-1285
p1521
aVFOP-1284
p1522
aVFOP-1283
p1523
aVFOP-1282
p1524
aVFOP-1281
p1525
aVFOP-1280
p1526
aVFOP-1279
p1527
aVFOP-1278
p1528
aVFOP-1277
p1529
aVFOP-1276
p1530
aVFOP-1275
p1531
aVFOP-1274
p1532
aVFOP-1273
p1533
aVFOP-1272
p1534
aVFOP-1271
p1535
aVFOP-1270
p1536
aVFOP-1269
p1537
aVFOP-1268
p1538
aVFOP-1267
p1539
aVFOP-1266
p1540
aVFOP-1265
p1541
aVFOP-1264
p1542
aVFOP-1263
p1543
aVFOP-1262
p1544
aVFOP-1261
p1545
aVFOP-1260
p1546
aVFOP-1259
p1547
aVFOP-1258
p1548
aVFOP-1257
p1549
aVFOP-1256
p1550
aVFOP-1255
p1551
aVFOP-1254
p1552
aVFOP-1253
p1553
aVFOP-1252
p1554
aVFOP-1251
p1555
aVFOP-1250
p1556
aVFOP-1249
p1557
aVFOP-1248
p1558
aVFOP-1247
p1559
aVFOP-1246
p1560
aVFOP-1245
p1561
aVFOP-1244
p1562
aVFOP-1243
p1563
aVFOP-1242
p1564
aVFOP-1241
p1565
aVFOP-1240
p1566
aVFOP-1239
p1567
aVFOP-1238
p1568
aVFOP-1237
p1569
aVFOP-1236
p1570
aVFOP-1235
p1571
aVFOP-1234
p1572
aVFOP-1233
p1573
aVFOP-1232
p1574
aVFOP-1231
p1575
aVFOP-1230
p1576
aVFOP-1229
p1577
aVFOP-1228
p1578
aVFOP-1227
p1579
aVFOP-1226
p1580
aVFOP-1225
p1581
aVFOP-1224
p1582
aVFOP-1223
p1583
aVFOP-1222
p1584
aVFOP-1221
p1585
aVFOP-1220
p1586
aVFOP-1219
p1587
aVFOP-1218
p1588
aVFOP-1217
p1589
aVFOP-1216
p1590
aVFOP-1215
p1591
aVFOP-1214
p1592
aVFOP-1213
p1593
aVFOP-1212
p1594
aVFOP-1211
p1595
aVFOP-1210
p1596
aVFOP-1209
p1597
aVFOP-1208
p1598
aVFOP-1207
p1599
aVFOP-1206
p1600
aVFOP-1205
p1601
aVFOP-1204
p1602
aVFOP-1203
p1603
aVFOP-1202
p1604
aVFOP-1201
p1605
aVFOP-1200
p1606
aVFOP-1199
p1607
aVFOP-1198
p1608
aVFOP-1197
p1609
aVFOP-1196
p1610
aVFOP-1195
p1611
aVFOP-1194
p1612
aVFOP-1193
p1613
aVFOP-1192
p1614
aVFOP-1191
p1615
aVFOP-1190
p1616
aVFOP-1189
p1617
aVFOP-1188
p1618
aVFOP-1187
p1619
aVFOP-1186
p1620
aVFOP-1185
p1621
aVFOP-1184
p1622
aVFOP-1183
p1623
aVFOP-1182
p1624
aVFOP-1181
p1625
aVFOP-1180
p1626
aVFOP-1179
p1627
aVFOP-1178
p1628
aVFOP-1177
p1629
aVFOP-1176
p1630
aVFOP-1175
p1631
aVFOP-1174
p1632
aVFOP-1173
p1633
aVFOP-1172
p1634
aVFOP-1171
p1635
aVFOP-1170
p1636
aVFOP-1169
p1637
aVFOP-1168
p1638
aVFOP-1167
p1639
aVFOP-1166
p1640
aVFOP-1165
p1641
aVFOP-1164
p1642
aVFOP-1163
p1643
aVFOP-1162
p1644
aVFOP-1161
p1645
aVFOP-1160
p1646
aVFOP-1159
p1647
aVFOP-1158
p1648
aVFOP-1157
p1649
aVFOP-1156
p1650
aVFOP-1155
p1651
aVFOP-1154
p1652
aVFOP-1153
p1653
aVFOP-1152
p1654
aVFOP-1151
p1655
aVFOP-1150
p1656
aVFOP-1149
p1657
aVFOP-1148
p1658
aVFOP-1147
p1659
aVFOP-1146
p1660
aVFOP-1145
p1661
aVFOP-1144
p1662
aVFOP-1143
p1663
aVFOP-1142
p1664
aVFOP-1141
p1665
aVFOP-1140
p1666
aVFOP-1139
p1667
aVFOP-1138
p1668
aVFOP-1137
p1669
aVFOP-1136
p1670
aVFOP-1135
p1671
aVFOP-1134
p1672
aVFOP-1133
p1673
aVFOP-1132
p1674
aVFOP-1131
p1675
aVFOP-1130
p1676
aVFOP-1129
p1677
aVFOP-1128
p1678
aVFOP-1127
p1679
aVFOP-1126
p1680
aVFOP-1125
p1681
aVFOP-1124
p1682
aVFOP-1123
p1683
aVFOP-1122
p1684
aVFOP-1121
p1685
aVFOP-1120
p1686
aVFOP-1119
p1687
aVFOP-1118
p1688
aVFOP-1117
p1689
aVFOP-1116
p1690
aVFOP-1115
p1691
aVFOP-1114
p1692
aVFOP-1113
p1693
aVFOP-1112
p1694
aVFOP-1111
p1695
aVFOP-1110
p1696
aVFOP-1109
p1697
aVFOP-1108
p1698
aVFOP-1107
p1699
aVFOP-1106
p1700
aVFOP-1105
p1701
aVFOP-1104
p1702
aVFOP-1103
p1703
aVFOP-1102
p1704
aVFOP-1101
p1705
aVFOP-1100
p1706
aVFOP-1099
p1707
aVFOP-1098
p1708
aVFOP-1097
p1709
aVFOP-1096
p1710
aVFOP-1095
p1711
aVFOP-1094
p1712
aVFOP-1093
p1713
aVFOP-1092
p1714
aVFOP-1091
p1715
aVFOP-1090
p1716
aVFOP-1089
p1717
aVFOP-1088
p1718
aVFOP-1087
p1719
aVFOP-1086
p1720
aVFOP-1085
p1721
aVFOP-1084
p1722
aVFOP-1083
p1723
aVFOP-1082
p1724
aVFOP-1081
p1725
aVFOP-1080
p1726
aVFOP-1079
p1727
aVFOP-1078
p1728
aVFOP-1077
p1729
aVFOP-1076
p1730
aVFOP-1075
p1731
aVFOP-1074
p1732
aVFOP-1073
p1733
aVFOP-1072
p1734
aVFOP-1071
p1735
aVFOP-1070
p1736
aVFOP-1069
p1737
aVFOP-1068
p1738
aVFOP-1067
p1739
aVFOP-1066
p1740
aVFOP-1065
p1741
aVFOP-1064
p1742
aVFOP-1063
p1743
aVFOP-1062
p1744
aVFOP-1061
p1745
aVFOP-1060
p1746
aVFOP-1059
p1747
aVFOP-1058
p1748
aVFOP-1057
p1749
aVFOP-1056
p1750
aVFOP-1055
p1751
aVFOP-1054
p1752
aVFOP-1053
p1753
aVFOP-1052
p1754
aVFOP-1051
p1755
aVFOP-1050
p1756
aVFOP-1049
p1757
aVFOP-1048
p1758
aVFOP-1047
p1759
aVFOP-1046
p1760
aVFOP-1045
p1761
aVFOP-1044
p1762
aVFOP-1043
p1763
aVFOP-1042
p1764
aVFOP-1041
p1765
aVFOP-1040
p1766
aVFOP-1039
p1767
aVFOP-1038
p1768
aVFOP-1037
p1769
aVFOP-1036
p1770
aVFOP-1035
p1771
aVFOP-1034
p1772
aVFOP-1033
p1773
aVFOP-1032
p1774
aVFOP-1031
p1775
aVFOP-1030
p1776
aVFOP-1029
p1777
aVFOP-1028
p1778
aVFOP-1027
p1779
aVFOP-1026
p1780
aVFOP-1025
p1781
aVFOP-1024
p1782
aVFOP-1023
p1783
aVFOP-1022
p1784
aVFOP-1021
p1785
aVFOP-1020
p1786
aVFOP-1019
p1787
aVFOP-1018
p1788
aVFOP-1017
p1789
aVFOP-1016
p1790
aVFOP-1015
p1791
aVFOP-1014
p1792
aVFOP-1013
p1793
aVFOP-1012
p1794
aVFOP-1011
p1795
aVFOP-1010
p1796
aVFOP-1009
p1797
aVFOP-1008
p1798
aVFOP-1007
p1799
aVFOP-1006
p1800
aVFOP-1005
p1801
aVFOP-1004
p1802
aVFOP-1003
p1803
aVFOP-1002
p1804
aVFOP-1001
p1805
aVFOP-1000
p1806
aVFOP-999
p1807
aVFOP-998
p1808
aVFOP-997
p1809
aVFOP-996
p1810
aVFOP-995
p1811
aVFOP-994
p1812
aVFOP-993
p1813
aVFOP-992
p1814
aVFOP-991
p1815
aVFOP-990
p1816
aVFOP-989
p1817
aVFOP-988
p1818
aVFOP-987
p1819
aVFOP-986
p1820
aVFOP-985
p1821
aVFOP-984
p1822
aVFOP-983
p1823
aVFOP-982
p1824
aVFOP-981
p1825
aVFOP-980
p1826
aVFOP-979
p1827
aVFOP-978
p1828
aVFOP-977
p1829
aVFOP-976
p1830
aVFOP-975
p1831
aVFOP-974
p1832
aVFOP-973
p1833
aVFOP-972
p1834
aVFOP-971
p1835
aVFOP-970
p1836
aVFOP-969
p1837
aVFOP-968
p1838
aVFOP-967
p1839
aVFOP-966
p1840
aVFOP-965
p1841
aVFOP-964
p1842
aVFOP-963
p1843
aVFOP-962
p1844
aVFOP-961
p1845
aVFOP-960
p1846
aVFOP-959
p1847
aVFOP-958
p1848
aVFOP-957
p1849
aVFOP-956
p1850
aVFOP-955
p1851
aVFOP-954
p1852
aVFOP-953
p1853
aVFOP-952
p1854
aVFOP-951
p1855
aVFOP-950
p1856
aVFOP-949
p1857
aVFOP-948
p1858
aVFOP-947
p1859
aVFOP-946
p1860
aVFOP-945
p1861
aVFOP-944
p1862
aVFOP-943
p1863
aVFOP-942
p1864
aVFOP-941
p1865
aVFOP-940
p1866
aVFOP-939
p1867
aVFOP-938
p1868
aVFOP-937
p1869
aVFOP-936
p1870
aVFOP-935
p1871
aVFOP-934
p1872
aVFOP-933
p1873
aVFOP-932
p1874
aVFOP-931
p1875
aVFOP-930
p1876
aVFOP-929
p1877
aVFOP-928
p1878
aVFOP-927
p1879
aVFOP-926
p1880
aVFOP-925
p1881
aVFOP-924
p1882
aVFOP-923
p1883
aVFOP-922
p1884
aVFOP-921
p1885
aVFOP-920
p1886
aVFOP-919
p1887
aVFOP-918
p1888
aVFOP-917
p1889
aVFOP-916
p1890
aVFOP-915
p1891
aVFOP-914
p1892
aVFOP-913
p1893
aVFOP-912
p1894
aVFOP-911
p1895
aVFOP-910
p1896
aVFOP-909
p1897
aVFOP-908
p1898
aVFOP-907
p1899
aVFOP-906
p1900
aVFOP-905
p1901
aVFOP-904
p1902
aVFOP-903
p1903
aVFOP-902
p1904
aVFOP-901
p1905
aVFOP-900
p1906
aVFOP-899
p1907
aVFOP-898
p1908
aVFOP-897
p1909
aVFOP-896
p1910
aVFOP-895
p1911
aVFOP-894
p1912
aVFOP-893
p1913
aVFOP-892
p1914
aVFOP-891
p1915
aVFOP-890
p1916
aVFOP-889
p1917
aVFOP-888
p1918
aVFOP-887
p1919
aVFOP-886
p1920
aVFOP-885
p1921
aVFOP-884
p1922
aVFOP-883
p1923
aVFOP-882
p1924
aVFOP-881
p1925
aVFOP-880
p1926
aVFOP-879
p1927
aVFOP-878
p1928
aVFOP-877
p1929
aVFOP-876
p1930
aVFOP-875
p1931
aVFOP-874
p1932
aVFOP-873
p1933
aVFOP-872
p1934
aVFOP-871
p1935
aVFOP-870
p1936
aVFOP-869
p1937
aVFOP-868
p1938
aVFOP-867
p1939
aVFOP-866
p1940
aVFOP-865
p1941
aVFOP-864
p1942
aVFOP-863
p1943
aVFOP-862
p1944
aVFOP-861
p1945
aVFOP-860
p1946
aVFOP-859
p1947
aVFOP-858
p1948
aVFOP-857
p1949
aVFOP-856
p1950
aVFOP-855
p1951
aVFOP-854
p1952
aVFOP-853
p1953
aVFOP-852
p1954
aVFOP-851
p1955
aVFOP-850
p1956
aVFOP-849
p1957
aVFOP-848
p1958
aVFOP-847
p1959
aVFOP-846
p1960
aVFOP-845
p1961
aVFOP-844
p1962
aVFOP-843
p1963
aVFOP-842
p1964
aVFOP-841
p1965
aVFOP-840
p1966
aVFOP-839
p1967
aVFOP-838
p1968
aVFOP-837
p1969
aVFOP-836
p1970
aVFOP-835
p1971
aVFOP-834
p1972
aVFOP-833
p1973
aVFOP-832
p1974
aVFOP-831
p1975
aVFOP-830
p1976
aVFOP-829
p1977
aVFOP-828
p1978
aVFOP-827
p1979
aVFOP-826
p1980
aVFOP-825
p1981
aVFOP-824
p1982
aVFOP-823
p1983
aVFOP-822
p1984
aVFOP-821
p1985
aVFOP-820
p1986
aVFOP-819
p1987
aVFOP-818
p1988
aVFOP-817
p1989
aVFOP-816
p1990
aVFOP-815
p1991
aVFOP-814
p1992
aVFOP-813
p1993
aVFOP-812
p1994
aVFOP-811
p1995
aVFOP-810
p1996
aVFOP-809
p1997
aVFOP-808
p1998
aVFOP-807
p1999
aVFOP-806
p2000
aVFOP-805
p2001
aVFOP-804
p2002
aVFOP-803
p2003
aVFOP-802
p2004
aVFOP-801
p2005
aVFOP-800
p2006
aVFOP-799
p2007
aVFOP-798
p2008
aVFOP-797
p2009
aVFOP-796
p2010
aVFOP-795
p2011
aVFOP-794
p2012
aVFOP-793
p2013
aVFOP-792
p2014
aVFOP-791
p2015
aVFOP-790
p2016
aVFOP-789
p2017
aVFOP-788
p2018
aVFOP-787
p2019
aVFOP-786
p2020
aVFOP-785
p2021
aVFOP-784
p2022
aVFOP-783
p2023
aVFOP-782
p2024
aVFOP-781
p2025
aVFOP-780
p2026
aVFOP-779
p2027
aVFOP-778
p2028
aVFOP-777
p2029
aVFOP-776
p2030
aVFOP-775
p2031
aVFOP-774
p2032
aVFOP-773
p2033
aVFOP-772
p2034
aVFOP-771
p2035
aVFOP-770
p2036
aVFOP-769
p2037
aVFOP-768
p2038
aVFOP-767
p2039
aVFOP-766
p2040
aVFOP-765
p2041
aVFOP-764
p2042
aVFOP-763
p2043
aVFOP-762
p2044
aVFOP-761
p2045
aVFOP-760
p2046
aVFOP-759
p2047
aVFOP-758
p2048
aVFOP-757
p2049
aVFOP-756
p2050
aVFOP-755
p2051
aVFOP-754
p2052
aVFOP-753
p2053
aVFOP-752
p2054
aVFOP-751
p2055
aVFOP-750
p2056
aVFOP-749
p2057
aVFOP-748
p2058
aVFOP-747
p2059
aVFOP-746
p2060
aVFOP-745
p2061
aVFOP-744
p2062
aVFOP-743
p2063
aVFOP-742
p2064
aVFOP-741
p2065
aVFOP-740
p2066
aVFOP-739
p2067
aVFOP-738
p2068
aVFOP-737
p2069
aVFOP-736
p2070
aVFOP-735
p2071
aVFOP-734
p2072
aVFOP-733
p2073
aVFOP-732
p2074
aVFOP-731
p2075
aVFOP-730
p2076
aVFOP-729
p2077
aVFOP-728
p2078
aVFOP-727
p2079
aVFOP-726
p2080
aVFOP-725
p2081
aVFOP-724
p2082
aVFOP-723
p2083
aVFOP-722
p2084
aVFOP-721
p2085
aVFOP-720
p2086
aVFOP-719
p2087
aVFOP-718
p2088
aVFOP-717
p2089
aVFOP-716
p2090
aVFOP-715
p2091
aVFOP-714
p2092
aVFOP-713
p2093
aVFOP-712
p2094
aVFOP-711
p2095
aVFOP-710
p2096
aVFOP-709
p2097
aVFOP-708
p2098
aVFOP-707
p2099
aVFOP-706
p2100
aVFOP-705
p2101
aVFOP-704
p2102
aVFOP-703
p2103
aVFOP-702
p2104
aVFOP-701
p2105
aVFOP-700
p2106
aVFOP-699
p2107
aVFOP-698
p2108
aVFOP-697
p2109
aVFOP-696
p2110
aVFOP-695
p2111
aVFOP-694
p2112
aVFOP-693
p2113
aVFOP-692
p2114
aVFOP-691
p2115
aVFOP-690
p2116
aVFOP-689
p2117
aVFOP-688
p2118
aVFOP-687
p2119
aVFOP-686
p2120
aVFOP-685
p2121
aVFOP-684
p2122
aVFOP-683
p2123
aVFOP-682
p2124
aVFOP-681
p2125
aVFOP-680
p2126
aVFOP-679
p2127
aVFOP-678
p2128
aVFOP-677
p2129
aVFOP-676
p2130
aVFOP-675
p2131
aVFOP-674
p2132
aVFOP-673
p2133
aVFOP-672
p2134
aVFOP-671
p2135
aVFOP-670
p2136
aVFOP-669
p2137
aVFOP-668
p2138
aVFOP-667
p2139
aVFOP-666
p2140
aVFOP-665
p2141
aVFOP-664
p2142
aVFOP-663
p2143
aVFOP-662
p2144
aVFOP-661
p2145
aVFOP-660
p2146
aVFOP-659
p2147
aVFOP-658
p2148
aVFOP-657
p2149
aVFOP-656
p2150
aVFOP-655
p2151
aVFOP-654
p2152
aVFOP-653
p2153
aVFOP-652
p2154
aVFOP-651
p2155
aVFOP-650
p2156
aVFOP-649
p2157
aVFOP-648
p2158
aVFOP-647
p2159
aVFOP-646
p2160
aVFOP-645
p2161
aVFOP-644
p2162
aVFOP-643
p2163
aVFOP-642
p2164
aVFOP-641
p2165
aVFOP-640
p2166
aVFOP-639
p2167
aVFOP-638
p2168
aVFOP-637
p2169
aVFOP-636
p2170
aVFOP-635
p2171
aVFOP-634
p2172
aVFOP-633
p2173
aVFOP-632
p2174
aVFOP-631
p2175
aVFOP-630
p2176
aVFOP-629
p2177
aVFOP-628
p2178
aVFOP-627
p2179
aVFOP-626
p2180
aVFOP-625
p2181
aVFOP-624
p2182
aVFOP-623
p2183
aVFOP-622
p2184
aVFOP-621
p2185
aVFOP-620
p2186
aVFOP-619
p2187
aVFOP-618
p2188
aVFOP-617
p2189
aVFOP-616
p2190
aVFOP-615
p2191
aVFOP-614
p2192
aVFOP-613
p2193
aVFOP-612
p2194
aVFOP-611
p2195
aVFOP-610
p2196
aVFOP-609
p2197
aVFOP-608
p2198
aVFOP-607
p2199
aVFOP-606
p2200
aVFOP-605
p2201
aVFOP-604
p2202
aVFOP-603
p2203
aVFOP-602
p2204
aVFOP-601
p2205
aVFOP-600
p2206
aVFOP-599
p2207
aVFOP-598
p2208
aVFOP-597
p2209
aVFOP-596
p2210
aVFOP-595
p2211
aVFOP-594
p2212
aVFOP-593
p2213
aVFOP-592
p2214
aVFOP-591
p2215
aVFOP-590
p2216
aVFOP-589
p2217
aVFOP-588
p2218
aVFOP-587
p2219
aVFOP-586
p2220
aVFOP-585
p2221
aVFOP-584
p2222
aVFOP-583
p2223
aVFOP-582
p2224
aVFOP-581
p2225
aVFOP-580
p2226
aVFOP-579
p2227
aVFOP-578
p2228
aVFOP-577
p2229
aVFOP-576
p2230
aVFOP-575
p2231
aVFOP-574
p2232
aVFOP-573
p2233
aVFOP-572
p2234
aVFOP-571
p2235
aVFOP-570
p2236
aVFOP-569
p2237
aVFOP-568
p2238
aVFOP-567
p2239
aVFOP-566
p2240
aVFOP-565
p2241
aVFOP-564
p2242
aVFOP-563
p2243
aVFOP-562
p2244
aVFOP-561
p2245
aVFOP-560
p2246
aVFOP-559
p2247
aVFOP-558
p2248
aVFOP-557
p2249
aVFOP-556
p2250
aVFOP-555
p2251
aVFOP-554
p2252
aVFOP-553
p2253
aVFOP-552
p2254
aVFOP-551
p2255
aVFOP-550
p2256
aVFOP-549
p2257
aVFOP-548
p2258
aVFOP-547
p2259
aVFOP-546
p2260
aVFOP-545
p2261
aVFOP-544
p2262
aVFOP-543
p2263
aVFOP-542
p2264
aVFOP-541
p2265
aVFOP-540
p2266
aVFOP-539
p2267
aVFOP-538
p2268
aVFOP-537
p2269
aVFOP-536
p2270
aVFOP-535
p2271
aVFOP-534
p2272
aVFOP-533
p2273
aVFOP-532
p2274
aVFOP-531
p2275
aVFOP-530
p2276
aVFOP-529
p2277
aVFOP-528
p2278
aVFOP-527
p2279
aVFOP-526
p2280
aVFOP-525
p2281
aVFOP-524
p2282
aVFOP-523
p2283
aVFOP-522
p2284
aVFOP-521
p2285
aVFOP-520
p2286
aVFOP-519
p2287
aVFOP-518
p2288
aVFOP-517
p2289
aVFOP-516
p2290
aVFOP-515
p2291
aVFOP-514
p2292
aVFOP-513
p2293
aVFOP-512
p2294
aVFOP-511
p2295
aVFOP-510
p2296
aVFOP-509
p2297
aVFOP-508
p2298
aVFOP-507
p2299
aVFOP-506
p2300
aVFOP-505
p2301
aVFOP-504
p2302
aVFOP-503
p2303
aVFOP-502
p2304
aVFOP-501
p2305
aVFOP-500
p2306
aVFOP-499
p2307
aVFOP-498
p2308
aVFOP-497
p2309
aVFOP-496
p2310
aVFOP-495
p2311
aVFOP-494
p2312
aVFOP-493
p2313
aVFOP-492
p2314
aVFOP-491
p2315
aVFOP-490
p2316
aVFOP-489
p2317
aVFOP-488
p2318
aVFOP-487
p2319
aVFOP-486
p2320
aVFOP-485
p2321
aVFOP-484
p2322
aVFOP-483
p2323
aVFOP-482
p2324
aVFOP-481
p2325
aVFOP-480
p2326
aVFOP-479
p2327
aVFOP-478
p2328
aVFOP-477
p2329
aVFOP-476
p2330
aVFOP-475
p2331
aVFOP-474
p2332
aVFOP-473
p2333
aVFOP-472
p2334
aVFOP-471
p2335
aVFOP-470
p2336
aVFOP-469
p2337
aVFOP-468
p2338
aVFOP-467
p2339
aVFOP-466
p2340
aVFOP-465
p2341
aVFOP-464
p2342
aVFOP-463
p2343
aVFOP-462
p2344
aVFOP-461
p2345
aVFOP-460
p2346
aVFOP-459
p2347
aVFOP-458
p2348
aVFOP-457
p2349
aVFOP-456
p2350
aVFOP-455
p2351
aVFOP-454
p2352
aVFOP-453
p2353
aVFOP-452
p2354
aVFOP-451
p2355
aVFOP-450
p2356
aVFOP-449
p2357
aVFOP-448
p2358
aVFOP-447
p2359
aVFOP-446
p2360
aVFOP-445
p2361
aVFOP-444
p2362
aVFOP-443
p2363
aVFOP-442
p2364
aVFOP-441
p2365
aVFOP-440
p2366
aVFOP-439
p2367
aVFOP-438
p2368
aVFOP-437
p2369
aVFOP-436
p2370
aVFOP-435
p2371
aVFOP-434
p2372
aVFOP-433
p2373
aVFOP-432
p2374
aVFOP-431
p2375
aVFOP-430
p2376
aVFOP-429
p2377
aVFOP-428
p2378
aVFOP-427
p2379
aVFOP-426
p2380
aVFOP-425
p2381
aVFOP-424
p2382
aVFOP-423
p2383
aVFOP-422
p2384
aVFOP-421
p2385
aVFOP-420
p2386
aVFOP-419
p2387
aVFOP-418
p2388
aVFOP-417
p2389
aVFOP-416
p2390
aVFOP-415
p2391
aVFOP-414
p2392
aVFOP-413
p2393
aVFOP-412
p2394
aVFOP-411
p2395
aVFOP-410
p2396
aVFOP-409
p2397
aVFOP-408
p2398
aVFOP-407
p2399
aVFOP-406
p2400
aVFOP-405
p2401
aVFOP-404
p2402
aVFOP-403
p2403
aVFOP-402
p2404
aVFOP-401
p2405
aVFOP-400
p2406
aVFOP-399
p2407
aVFOP-398
p2408
aVFOP-397
p2409
aVFOP-396
p2410
aVFOP-395
p2411
aVFOP-394
p2412
aVFOP-393
p2413
aVFOP-392
p2414
aVFOP-391
p2415
aVFOP-390
p2416
aVFOP-389
p2417
aVFOP-388
p2418
aVFOP-387
p2419
aVFOP-386
p2420
aVFOP-385
p2421
aVFOP-384
p2422
aVFOP-383
p2423
aVFOP-382
p2424
aVFOP-381
p2425
aVFOP-380
p2426
aVFOP-379
p2427
aVFOP-378
p2428
aVFOP-377
p2429
aVFOP-376
p2430
aVFOP-375
p2431
aVFOP-374
p2432
aVFOP-373
p2433
aVFOP-372
p2434
aVFOP-371
p2435
aVFOP-370
p2436
aVFOP-369
p2437
aVFOP-368
p2438
aVFOP-367
p2439
aVFOP-366
p2440
aVFOP-365
p2441
aVFOP-364
p2442
aVFOP-363
p2443
aVFOP-362
p2444
aVFOP-361
p2445
aVFOP-360
p2446
aVFOP-359
p2447
aVFOP-358
p2448
aVFOP-357
p2449
aVFOP-356
p2450
aVFOP-355
p2451
aVFOP-354
p2452
aVFOP-353
p2453
aVFOP-352
p2454
aVFOP-351
p2455
aVFOP-350
p2456
aVFOP-349
p2457
aVFOP-348
p2458
aVFOP-347
p2459
aVFOP-346
p2460
aVFOP-345
p2461
aVFOP-344
p2462
aVFOP-343
p2463
aVFOP-342
p2464
aVFOP-341
p2465
aVFOP-340
p2466
aVFOP-339
p2467
aVFOP-338
p2468
aVFOP-337
p2469
aVFOP-336
p2470
aVFOP-335
p2471
aVFOP-334
p2472
aVFOP-333
p2473
aVFOP-332
p2474
aVFOP-331
p2475
aVFOP-330
p2476
aVFOP-329
p2477
aVFOP-328
p2478
aVFOP-327
p2479
aVFOP-326
p2480
aVFOP-325
p2481
aVFOP-324
p2482
aVFOP-323
p2483
aVFOP-322
p2484
aVFOP-321
p2485
aVFOP-320
p2486
aVFOP-319
p2487
aVFOP-318
p2488
aVFOP-317
p2489
aVFOP-316
p2490
aVFOP-315
p2491
aVFOP-314
p2492
aVFOP-313
p2493
aVFOP-312
p2494
aVFOP-311
p2495
aVFOP-310
p2496
aVFOP-309
p2497
aVFOP-308
p2498
aVFOP-307
p2499
aVFOP-306
p2500
aVFOP-305
p2501
aVFOP-304
p2502
aVFOP-303
p2503
aVFOP-302
p2504
aVFOP-301
p2505
aVFOP-300
p2506
aVFOP-299
p2507
aVFOP-298
p2508
aVFOP-297
p2509
aVFOP-296
p2510
aVFOP-295
p2511
aVFOP-294
p2512
aVFOP-293
p2513
aVFOP-292
p2514
aVFOP-291
p2515
aVFOP-290
p2516
aVFOP-289
p2517
aVFOP-288
p2518
aVFOP-287
p2519
aVFOP-286
p2520
aVFOP-285
p2521
aVFOP-284
p2522
aVFOP-283
p2523
aVFOP-282
p2524
aVFOP-281
p2525
aVFOP-280
p2526
aVFOP-279
p2527
aVFOP-278
p2528
aVFOP-277
p2529
aVFOP-276
p2530
aVFOP-275
p2531
aVFOP-274
p2532
aVFOP-273
p2533
aVFOP-272
p2534
aVFOP-271
p2535
aVFOP-270
p2536
aVFOP-269
p2537
aVFOP-268
p2538
aVFOP-267
p2539
aVFOP-266
p2540
aVFOP-265
p2541
aVFOP-264
p2542
aVFOP-263
p2543
aVFOP-262
p2544
aVFOP-261
p2545
aVFOP-260
p2546
aVFOP-259
p2547
aVFOP-258
p2548
aVFOP-257
p2549
aVFOP-256
p2550
aVFOP-255
p2551
aVFOP-254
p2552
aVFOP-253
p2553
aVFOP-252
p2554
aVFOP-251
p2555
aVFOP-250
p2556
aVFOP-249
p2557
aVFOP-248
p2558
aVFOP-247
p2559
aVFOP-246
p2560
aVFOP-245
p2561
aVFOP-244
p2562
aVFOP-243
p2563
aVFOP-242
p2564
aVFOP-241
p2565
aVFOP-240
p2566
aVFOP-239
p2567
aVFOP-238
p2568
aVFOP-237
p2569
aVFOP-236
p2570
aVFOP-235
p2571
aVFOP-234
p2572
aVFOP-233
p2573
aVFOP-232
p2574
aVFOP-231
p2575
aVFOP-230
p2576
aVFOP-229
p2577
aVFOP-228
p2578
aVFOP-227
p2579
aVFOP-226
p2580
aVFOP-225
p2581
aVFOP-224
p2582
aVFOP-223
p2583
aVFOP-222
p2584
aVFOP-221
p2585
aVFOP-220
p2586
aVFOP-219
p2587
aVFOP-218
p2588
aVFOP-217
p2589
aVFOP-216
p2590
aVFOP-215
p2591
aVFOP-214
p2592
aVFOP-213
p2593
aVFOP-212
p2594
aVFOP-211
p2595
aVFOP-210
p2596
aVFOP-209
p2597
aVFOP-208
p2598
aVFOP-207
p2599
aVFOP-206
p2600
aVFOP-205
p2601
aVFOP-204
p2602
aVFOP-203
p2603
aVFOP-202
p2604
aVFOP-201
p2605
aVFOP-200
p2606
aVFOP-199
p2607
aVFOP-198
p2608
aVFOP-197
p2609
aVFOP-196
p2610
aVFOP-195
p2611
aVFOP-194
p2612
aVFOP-193
p2613
aVFOP-192
p2614
aVFOP-191
p2615
aVFOP-190
p2616
aVFOP-189
p2617
aVFOP-188
p2618
aVFOP-187
p2619
aVFOP-186
p2620
aVFOP-185
p2621
aVFOP-184
p2622
aVFOP-183
p2623
aVFOP-182
p2624
aVFOP-181
p2625
aVFOP-180
p2626
aVFOP-179
p2627
aVFOP-178
p2628
aVFOP-177
p2629
aVFOP-176
p2630
aVFOP-175
p2631
aVFOP-174
p2632
aVFOP-173
p2633
aVFOP-172
p2634
aVFOP-171
p2635
aVFOP-170
p2636
aVFOP-169
p2637
aVFOP-168
p2638
aVFOP-167
p2639
aVFOP-166
p2640
aVFOP-165
p2641
aVFOP-164
p2642
aVFOP-163
p2643
aVFOP-162
p2644
aVFOP-161
p2645
aVFOP-160
p2646
aVFOP-159
p2647
aVFOP-158
p2648
aVFOP-157
p2649
aVFOP-156
p2650
aVFOP-155
p2651
aVFOP-154
p2652
aVFOP-153
p2653
aVFOP-152
p2654
aVFOP-151
p2655
aVFOP-150
p2656
aVFOP-149
p2657
aVFOP-148
p2658
aVFOP-147
p2659
aVFOP-146
p2660
aVFOP-145
p2661
aVFOP-144
p2662
aVFOP-143
p2663
aVFOP-142
p2664
aVFOP-141
p2665
aVFOP-140
p2666
aVFOP-139
p2667
aVFOP-138
p2668
aVFOP-137
p2669
aVFOP-136
p2670
aVFOP-135
p2671
aVFOP-134
p2672
aVFOP-133
p2673
aVFOP-132
p2674
aVFOP-131
p2675
aVFOP-130
p2676
aVFOP-129
p2677
aVFOP-128
p2678
aVFOP-127
p2679
aVFOP-126
p2680
aVFOP-125
p2681
aVFOP-124
p2682
aVFOP-123
p2683
aVFOP-122
p2684
aVFOP-121
p2685
aVFOP-120
p2686
aVFOP-119
p2687
aVFOP-118
p2688
aVFOP-117
p2689
aVFOP-116
p2690
aVFOP-115
p2691
aVFOP-114
p2692
aVFOP-113
p2693
aVFOP-112
p2694
aVFOP-111
p2695
aVFOP-110
p2696
aVFOP-109
p2697
aVFOP-108
p2698
aVFOP-107
p2699
aVFOP-106
p2700
aVFOP-105
p2701
aVFOP-104
p2702
aVFOP-103
p2703
aVFOP-102
p2704
aVFOP-101
p2705
aVFOP-100
p2706
aVFOP-99
p2707
aVFOP-98
p2708
aVFOP-97
p2709
aVFOP-96
p2710
aVFOP-95
p2711
aVFOP-94
p2712
aVFOP-93
p2713
aVFOP-92
p2714
aVFOP-91
p2715
aVFOP-90
p2716
aVFOP-89
p2717
aVFOP-88
p2718
aVFOP-87
p2719
aVFOP-86
p2720
aVFOP-85
p2721
aVFOP-84
p2722
aVFOP-83
p2723
aVFOP-82
p2724
aVFOP-81
p2725
aVFOP-80
p2726
aVFOP-79
p2727
aVFOP-78
p2728
aVFOP-77
p2729
aVFOP-76
p2730
aVFOP-75
p2731
aVFOP-74
p2732
aVFOP-73
p2733
aVFOP-72
p2734
aVFOP-71
p2735
aVFOP-70
p2736
aVFOP-69
p2737
aVFOP-68
p2738
aVFOP-67
p2739
aVFOP-66
p2740
aVFOP-65
p2741
aVFOP-64
p2742
aVFOP-63
p2743
aVFOP-62
p2744
aVFOP-61
p2745
aVFOP-60
p2746
aVFOP-59
p2747
aVFOP-58
p2748
aVFOP-57
p2749
aVFOP-56
p2750
aVFOP-55
p2751
aVFOP-54
p2752
aVFOP-53
p2753
aVFOP-52
p2754
aVFOP-51
p2755
aVFOP-50
p2756
aVFOP-49
p2757
aVFOP-48
p2758
aVFOP-47
p2759
aVFOP-46
p2760
aVFOP-45
p2761
aVFOP-44
p2762
aVFOP-43
p2763
aVFOP-42
p2764
aVFOP-41
p2765
aVFOP-40
p2766
aVFOP-39
p2767
aVFOP-38
p2768
aVFOP-37
p2769
aVFOP-36
p2770
aVFOP-35
p2771
aVFOP-34
p2772
aVFOP-33
p2773
aVFOP-32
p2774
aVFOP-31
p2775
aVFOP-30
p2776
aVFOP-29
p2777
aVFOP-28
p2778
aVFOP-27
p2779
aVFOP-26
p2780
aVFOP-25
p2781
aVFOP-24
p2782
aVFOP-23
p2783
aVFOP-22
p2784
aVFOP-21
p2785
aVFOP-20
p2786
aVFOP-19
p2787
aVFOP-18
p2788
aVFOP-17
p2789
aVFOP-16
p2790
aVFOP-15
p2791
aVFOP-14
p2792
aVFOP-13
p2793
aVFOP-12
p2794
aVFOP-11
p2795
aVFOP-10
p2796
aVFOP-9
p2797
aVFOP-8
p2798
aVFOP-7
p2799
aVFOP-6
p2800
aVFOP-5
p2801
aVFOP-4
p2802
aVFOP-3
p2803
aVFOP-2
p2804
aVFOP-1
p2805
a.