(lp0
VFREEMARKER-101
p1
aVFREEMARKER-100
p2
aVFREEMARKER-99
p3
aVFREEMARKER-98
p4
aVFREEMARKER-97
p5
aVFREEMARKER-96
p6
aVFREEMARKER-95
p7
aVFREEMARKER-94
p8
aVFREEMARKER-93
p9
aVFREEMARKER-92
p10
aVFREEMARKER-91
p11
aVFREEMARKER-90
p12
aVFREEMARKER-89
p13
aVFREEMARKER-88
p14
aVFREEMARKER-87
p15
aVFREEMARKER-86
p16
aVFREEMARKER-85
p17
aVFREEMARKER-84
p18
aVFREEMARKER-83
p19
aVFREEMARKER-82
p20
aVFREEMARKER-81
p21
aVFREEMARKER-80
p22
aVFREEMARKER-79
p23
aVFREEMARKER-78
p24
aVFREEMARKER-77
p25
aVFREEMARKER-76
p26
aVFREEMARKER-75
p27
aVFREEMARKER-74
p28
aVFREEMARKER-73
p29
aVFREEMARKER-72
p30
aVFREEMARKER-71
p31
aVFREEMARKER-70
p32
aVFREEMARKER-69
p33
aVFREEMARKER-68
p34
aVFREEMARKER-67
p35
aVFREEMARKER-66
p36
aVFREEMARKER-65
p37
aVFREEMARKER-64
p38
aVFREEMARKER-63
p39
aVFREEMARKER-62
p40
aVFREEMARKER-61
p41
aVFREEMARKER-60
p42
aVFREEMARKER-59
p43
aVFREEMARKER-58
p44
aVFREEMARKER-57
p45
aVFREEMARKER-56
p46
aVFREEMARKER-55
p47
aVFREEMARKER-54
p48
aVFREEMARKER-53
p49
aVFREEMARKER-52
p50
aVFREEMARKER-51
p51
aVFREEMARKER-50
p52
aVFREEMARKER-49
p53
aVFREEMARKER-48
p54
aVFREEMARKER-47
p55
aVFREEMARKER-46
p56
aVFREEMARKER-45
p57
aVFREEMARKER-44
p58
aVFREEMARKER-43
p59
aVFREEMARKER-42
p60
aVFREEMARKER-41
p61
aVFREEMARKER-40
p62
aVFREEMARKER-39
p63
aVFREEMARKER-38
p64
aVFREEMARKER-37
p65
aVFREEMARKER-36
p66
aVFREEMARKER-35
p67
aVFREEMARKER-34
p68
aVFREEMARKER-33
p69
aVFREEMARKER-32
p70
aVFREEMARKER-31
p71
aVFREEMARKER-30
p72
aVFREEMARKER-29
p73
aVFREEMARKER-28
p74
aVFREEMARKER-27
p75
aVFREEMARKER-26
p76
aVFREEMARKER-25
p77
aVFREEMARKER-24
p78
aVFREEMARKER-23
p79
aVFREEMARKER-22
p80
aVFREEMARKER-21
p81
aVFREEMARKER-20
p82
aVFREEMARKER-19
p83
aVFREEMARKER-18
p84
aVFREEMARKER-17
p85
aVFREEMARKER-16
p86
aVFREEMARKER-15
p87
aVFREEMARKER-14
p88
aVFREEMARKER-13
p89
aVFREEMARKER-12
p90
aVFREEMARKER-11
p91
aVFREEMARKER-10
p92
aVFREEMARKER-9
p93
aVFREEMARKER-8
p94
aVFREEMARKER-7
p95
aVFREEMARKER-6
p96
aVFREEMARKER-5
p97
aVFREEMARKER-4
p98
aVFREEMARKER-3
p99
aVFREEMARKER-2
p100
aVFREEMARKER-1
p101
a.