(lp0
VFTPSERVER-487
p1
aVFTPSERVER-486
p2
aVFTPSERVER-485
p3
aVFTPSERVER-484
p4
aVFTPSERVER-483
p5
aVFTPSERVER-482
p6
aVFTPSERVER-481
p7
aVFTPSERVER-480
p8
aVFTPSERVER-479
p9
aVFTPSERVER-478
p10
aVFTPSERVER-477
p11
aVFTPSERVER-476
p12
aVFTPSERVER-475
p13
aVFTPSERVER-474
p14
aVFTPSERVER-473
p15
aVFTPSERVER-472
p16
aVFTPSERVER-471
p17
aVFTPSERVER-470
p18
aVFTPSERVER-469
p19
aVFTPSERVER-468
p20
aVFTPSERVER-467
p21
aVFTPSERVER-466
p22
aVFTPSERVER-465
p23
aVFTPSERVER-464
p24
aVFTPSERVER-463
p25
aVFTPSERVER-462
p26
aVFTPSERVER-461
p27
aVFTPSERVER-460
p28
aVFTPSERVER-459
p29
aVFTPSERVER-458
p30
aVFTPSERVER-457
p31
aVFTPSERVER-456
p32
aVFTPSERVER-455
p33
aVFTPSERVER-454
p34
aVFTPSERVER-453
p35
aVFTPSERVER-452
p36
aVFTPSERVER-451
p37
aVFTPSERVER-450
p38
aVFTPSERVER-449
p39
aVFTPSERVER-448
p40
aVFTPSERVER-447
p41
aVFTPSERVER-446
p42
aVFTPSERVER-445
p43
aVFTPSERVER-444
p44
aVFTPSERVER-443
p45
aVFTPSERVER-442
p46
aVFTPSERVER-441
p47
aVFTPSERVER-440
p48
aVFTPSERVER-439
p49
aVFTPSERVER-438
p50
aVFTPSERVER-437
p51
aVFTPSERVER-436
p52
aVFTPSERVER-435
p53
aVFTPSERVER-434
p54
aVFTPSERVER-433
p55
aVFTPSERVER-432
p56
aVFTPSERVER-431
p57
aVFTPSERVER-430
p58
aVFTPSERVER-429
p59
aVFTPSERVER-428
p60
aVFTPSERVER-427
p61
aVFTPSERVER-426
p62
aVFTPSERVER-425
p63
aVFTPSERVER-424
p64
aVFTPSERVER-423
p65
aVFTPSERVER-422
p66
aVFTPSERVER-421
p67
aVFTPSERVER-420
p68
aVFTPSERVER-419
p69
aVFTPSERVER-418
p70
aVFTPSERVER-417
p71
aVFTPSERVER-416
p72
aVFTPSERVER-415
p73
aVFTPSERVER-414
p74
aVFTPSERVER-413
p75
aVFTPSERVER-412
p76
aVFTPSERVER-411
p77
aVFTPSERVER-410
p78
aVFTPSERVER-409
p79
aVFTPSERVER-408
p80
aVFTPSERVER-407
p81
aVFTPSERVER-406
p82
aVFTPSERVER-405
p83
aVFTPSERVER-404
p84
aVFTPSERVER-403
p85
aVFTPSERVER-402
p86
aVFTPSERVER-401
p87
aVFTPSERVER-400
p88
aVFTPSERVER-399
p89
aVFTPSERVER-398
p90
aVFTPSERVER-397
p91
aVFTPSERVER-396
p92
aVFTPSERVER-395
p93
aVFTPSERVER-394
p94
aVFTPSERVER-393
p95
aVFTPSERVER-392
p96
aVFTPSERVER-391
p97
aVFTPSERVER-390
p98
aVFTPSERVER-389
p99
aVFTPSERVER-388
p100
aVFTPSERVER-387
p101
aVFTPSERVER-386
p102
aVFTPSERVER-385
p103
aVFTPSERVER-384
p104
aVFTPSERVER-383
p105
aVFTPSERVER-382
p106
aVFTPSERVER-381
p107
aVFTPSERVER-380
p108
aVFTPSERVER-379
p109
aVFTPSERVER-378
p110
aVFTPSERVER-377
p111
aVFTPSERVER-376
p112
aVFTPSERVER-375
p113
aVFTPSERVER-374
p114
aVFTPSERVER-373
p115
aVFTPSERVER-372
p116
aVFTPSERVER-371
p117
aVFTPSERVER-370
p118
aVFTPSERVER-369
p119
aVFTPSERVER-368
p120
aVFTPSERVER-367
p121
aVFTPSERVER-366
p122
aVFTPSERVER-365
p123
aVFTPSERVER-364
p124
aVFTPSERVER-363
p125
aVFTPSERVER-362
p126
aVFTPSERVER-361
p127
aVFTPSERVER-360
p128
aVFTPSERVER-359
p129
aVFTPSERVER-358
p130
aVFTPSERVER-357
p131
aVFTPSERVER-356
p132
aVFTPSERVER-355
p133
aVFTPSERVER-354
p134
aVFTPSERVER-353
p135
aVFTPSERVER-352
p136
aVFTPSERVER-351
p137
aVFTPSERVER-350
p138
aVFTPSERVER-349
p139
aVFTPSERVER-348
p140
aVFTPSERVER-347
p141
aVFTPSERVER-346
p142
aVFTPSERVER-345
p143
aVFTPSERVER-344
p144
aVFTPSERVER-343
p145
aVFTPSERVER-342
p146
aVFTPSERVER-341
p147
aVFTPSERVER-340
p148
aVFTPSERVER-339
p149
aVFTPSERVER-338
p150
aVFTPSERVER-337
p151
aVFTPSERVER-336
p152
aVFTPSERVER-335
p153
aVFTPSERVER-334
p154
aVFTPSERVER-333
p155
aVFTPSERVER-332
p156
aVFTPSERVER-331
p157
aVFTPSERVER-330
p158
aVFTPSERVER-329
p159
aVFTPSERVER-328
p160
aVFTPSERVER-327
p161
aVFTPSERVER-326
p162
aVFTPSERVER-325
p163
aVFTPSERVER-324
p164
aVFTPSERVER-323
p165
aVFTPSERVER-322
p166
aVFTPSERVER-321
p167
aVFTPSERVER-320
p168
aVFTPSERVER-319
p169
aVFTPSERVER-318
p170
aVFTPSERVER-317
p171
aVFTPSERVER-316
p172
aVFTPSERVER-315
p173
aVFTPSERVER-314
p174
aVFTPSERVER-313
p175
aVFTPSERVER-312
p176
aVFTPSERVER-311
p177
aVFTPSERVER-310
p178
aVFTPSERVER-309
p179
aVFTPSERVER-308
p180
aVFTPSERVER-307
p181
aVFTPSERVER-306
p182
aVFTPSERVER-305
p183
aVFTPSERVER-304
p184
aVFTPSERVER-303
p185
aVFTPSERVER-302
p186
aVFTPSERVER-301
p187
aVFTPSERVER-300
p188
aVFTPSERVER-299
p189
aVFTPSERVER-298
p190
aVFTPSERVER-297
p191
aVFTPSERVER-296
p192
aVFTPSERVER-295
p193
aVFTPSERVER-294
p194
aVFTPSERVER-293
p195
aVFTPSERVER-292
p196
aVFTPSERVER-291
p197
aVFTPSERVER-290
p198
aVFTPSERVER-289
p199
aVFTPSERVER-288
p200
aVFTPSERVER-287
p201
aVFTPSERVER-286
p202
aVFTPSERVER-285
p203
aVFTPSERVER-284
p204
aVFTPSERVER-283
p205
aVFTPSERVER-282
p206
aVFTPSERVER-280
p207
aVFTPSERVER-279
p208
aVFTPSERVER-278
p209
aVFTPSERVER-277
p210
aVFTPSERVER-276
p211
aVFTPSERVER-275
p212
aVFTPSERVER-274
p213
aVFTPSERVER-273
p214
aVFTPSERVER-272
p215
aVFTPSERVER-271
p216
aVFTPSERVER-270
p217
aVFTPSERVER-269
p218
aVFTPSERVER-268
p219
aVFTPSERVER-267
p220
aVFTPSERVER-266
p221
aVFTPSERVER-265
p222
aVFTPSERVER-264
p223
aVFTPSERVER-263
p224
aVFTPSERVER-262
p225
aVFTPSERVER-261
p226
aVFTPSERVER-260
p227
aVFTPSERVER-259
p228
aVFTPSERVER-258
p229
aVFTPSERVER-257
p230
aVFTPSERVER-256
p231
aVFTPSERVER-255
p232
aVFTPSERVER-254
p233
aVFTPSERVER-253
p234
aVFTPSERVER-252
p235
aVFTPSERVER-251
p236
aVFTPSERVER-250
p237
aVFTPSERVER-249
p238
aVFTPSERVER-248
p239
aVFTPSERVER-247
p240
aVFTPSERVER-246
p241
aVFTPSERVER-244
p242
aVFTPSERVER-243
p243
aVFTPSERVER-242
p244
aVFTPSERVER-241
p245
aVFTPSERVER-240
p246
aVFTPSERVER-239
p247
aVFTPSERVER-238
p248
aVFTPSERVER-237
p249
aVFTPSERVER-236
p250
aVFTPSERVER-235
p251
aVFTPSERVER-234
p252
aVFTPSERVER-233
p253
aVFTPSERVER-232
p254
aVFTPSERVER-231
p255
aVFTPSERVER-230
p256
aVFTPSERVER-229
p257
aVFTPSERVER-228
p258
aVFTPSERVER-227
p259
aVFTPSERVER-226
p260
aVFTPSERVER-225
p261
aVFTPSERVER-224
p262
aVFTPSERVER-223
p263
aVFTPSERVER-222
p264
aVFTPSERVER-221
p265
aVFTPSERVER-220
p266
aVFTPSERVER-219
p267
aVFTPSERVER-218
p268
aVFTPSERVER-217
p269
aVFTPSERVER-216
p270
aVFTPSERVER-215
p271
aVFTPSERVER-214
p272
aVFTPSERVER-213
p273
aVFTPSERVER-212
p274
aVFTPSERVER-211
p275
aVFTPSERVER-210
p276
aVFTPSERVER-209
p277
aVFTPSERVER-208
p278
aVFTPSERVER-207
p279
aVFTPSERVER-206
p280
aVFTPSERVER-205
p281
aVFTPSERVER-204
p282
aVFTPSERVER-203
p283
aVFTPSERVER-202
p284
aVFTPSERVER-201
p285
aVFTPSERVER-200
p286
aVFTPSERVER-199
p287
aVFTPSERVER-198
p288
aVFTPSERVER-197
p289
aVFTPSERVER-196
p290
aVFTPSERVER-195
p291
aVFTPSERVER-194
p292
aVFTPSERVER-193
p293
aVFTPSERVER-192
p294
aVFTPSERVER-191
p295
aVFTPSERVER-190
p296
aVFTPSERVER-189
p297
aVFTPSERVER-188
p298
aVFTPSERVER-187
p299
aVFTPSERVER-186
p300
aVFTPSERVER-185
p301
aVFTPSERVER-184
p302
aVFTPSERVER-183
p303
aVFTPSERVER-182
p304
aVFTPSERVER-181
p305
aVFTPSERVER-180
p306
aVFTPSERVER-179
p307
aVFTPSERVER-178
p308
aVFTPSERVER-177
p309
aVFTPSERVER-176
p310
aVFTPSERVER-175
p311
aVFTPSERVER-174
p312
aVFTPSERVER-173
p313
aVFTPSERVER-172
p314
aVFTPSERVER-171
p315
aVFTPSERVER-170
p316
aVFTPSERVER-169
p317
aVFTPSERVER-168
p318
aVFTPSERVER-167
p319
aVFTPSERVER-166
p320
aVFTPSERVER-165
p321
aVFTPSERVER-164
p322
aVFTPSERVER-163
p323
aVFTPSERVER-162
p324
aVFTPSERVER-161
p325
aVFTPSERVER-160
p326
aVFTPSERVER-159
p327
aVFTPSERVER-158
p328
aVFTPSERVER-157
p329
aVFTPSERVER-156
p330
aVFTPSERVER-155
p331
aVFTPSERVER-154
p332
aVFTPSERVER-153
p333
aVFTPSERVER-152
p334
aVFTPSERVER-151
p335
aVFTPSERVER-150
p336
aVFTPSERVER-149
p337
aVFTPSERVER-148
p338
aVFTPSERVER-147
p339
aVFTPSERVER-146
p340
aVFTPSERVER-145
p341
aVFTPSERVER-144
p342
aVFTPSERVER-143
p343
aVFTPSERVER-142
p344
aVFTPSERVER-141
p345
aVFTPSERVER-140
p346
aVFTPSERVER-139
p347
aVFTPSERVER-138
p348
aVFTPSERVER-137
p349
aVFTPSERVER-136
p350
aVFTPSERVER-135
p351
aVFTPSERVER-134
p352
aVFTPSERVER-133
p353
aVFTPSERVER-132
p354
aVFTPSERVER-131
p355
aVFTPSERVER-130
p356
aVFTPSERVER-129
p357
aVFTPSERVER-128
p358
aVFTPSERVER-127
p359
aVFTPSERVER-126
p360
aVFTPSERVER-125
p361
aVFTPSERVER-124
p362
aVFTPSERVER-123
p363
aVFTPSERVER-122
p364
aVFTPSERVER-121
p365
aVFTPSERVER-120
p366
aVFTPSERVER-119
p367
aVFTPSERVER-118
p368
aVFTPSERVER-117
p369
aVFTPSERVER-116
p370
aVFTPSERVER-115
p371
aVFTPSERVER-114
p372
aVFTPSERVER-112
p373
aVFTPSERVER-111
p374
aVFTPSERVER-110
p375
aVFTPSERVER-109
p376
aVFTPSERVER-108
p377
aVFTPSERVER-107
p378
aVFTPSERVER-106
p379
aVFTPSERVER-105
p380
aVFTPSERVER-104
p381
aVFTPSERVER-103
p382
aVFTPSERVER-102
p383
aVFTPSERVER-101
p384
aVFTPSERVER-100
p385
aVFTPSERVER-99
p386
aVFTPSERVER-98
p387
aVFTPSERVER-97
p388
aVFTPSERVER-96
p389
aVFTPSERVER-95
p390
aVFTPSERVER-94
p391
aVFTPSERVER-93
p392
aVFTPSERVER-92
p393
aVFTPSERVER-91
p394
aVFTPSERVER-90
p395
aVFTPSERVER-89
p396
aVFTPSERVER-88
p397
aVFTPSERVER-87
p398
aVFTPSERVER-86
p399
aVFTPSERVER-85
p400
aVFTPSERVER-84
p401
aVFTPSERVER-83
p402
aVFTPSERVER-82
p403
aVFTPSERVER-81
p404
aVFTPSERVER-80
p405
aVFTPSERVER-79
p406
aVFTPSERVER-78
p407
aVFTPSERVER-77
p408
aVFTPSERVER-76
p409
aVFTPSERVER-75
p410
aVFTPSERVER-74
p411
aVFTPSERVER-73
p412
aVFTPSERVER-72
p413
aVFTPSERVER-71
p414
aVFTPSERVER-70
p415
aVFTPSERVER-69
p416
aVFTPSERVER-68
p417
aVFTPSERVER-67
p418
aVFTPSERVER-66
p419
aVFTPSERVER-65
p420
aVFTPSERVER-64
p421
aVFTPSERVER-63
p422
aVFTPSERVER-61
p423
aVFTPSERVER-60
p424
aVFTPSERVER-58
p425
aVFTPSERVER-57
p426
aVFTPSERVER-56
p427
aVFTPSERVER-55
p428
aVFTPSERVER-54
p429
aVFTPSERVER-53
p430
aVFTPSERVER-52
p431
aVFTPSERVER-51
p432
aVFTPSERVER-50
p433
aVFTPSERVER-49
p434
aVFTPSERVER-48
p435
aVFTPSERVER-47
p436
aVFTPSERVER-46
p437
aVFTPSERVER-45
p438
aVFTPSERVER-44
p439
aVFTPSERVER-43
p440
aVFTPSERVER-42
p441
aVFTPSERVER-41
p442
aVFTPSERVER-40
p443
aVFTPSERVER-39
p444
aVFTPSERVER-38
p445
aVFTPSERVER-37
p446
aVFTPSERVER-36
p447
aVFTPSERVER-35
p448
aVFTPSERVER-34
p449
aVFTPSERVER-33
p450
aVFTPSERVER-32
p451
aVFTPSERVER-31
p452
aVFTPSERVER-30
p453
aVFTPSERVER-29
p454
aVFTPSERVER-28
p455
aVFTPSERVER-27
p456
aVFTPSERVER-26
p457
aVFTPSERVER-25
p458
aVFTPSERVER-24
p459
aVFTPSERVER-23
p460
aVFTPSERVER-22
p461
aVFTPSERVER-21
p462
aVFTPSERVER-20
p463
aVFTPSERVER-19
p464
aVFTPSERVER-18
p465
aVFTPSERVER-17
p466
aVFTPSERVER-16
p467
aVFTPSERVER-15
p468
aVFTPSERVER-14
p469
aVFTPSERVER-13
p470
aVFTPSERVER-12
p471
aVFTPSERVER-11
p472
aVFTPSERVER-10
p473
aVFTPSERVER-9
p474
aVFTPSERVER-8
p475
aVFTPSERVER-7
p476
aVFTPSERVER-6
p477
aVFTPSERVER-5
p478
aVFTPSERVER-4
p479
aVFTPSERVER-3
p480
aVFTPSERVER-2
p481
aVFTPSERVER-1
p482
a.