(lp0
VFUNCTOR-30
p1
aVFUNCTOR-29
p2
aVFUNCTOR-28
p3
aVFUNCTOR-27
p4
aVFUNCTOR-26
p5
aVFUNCTOR-25
p6
aVFUNCTOR-24
p7
aVFUNCTOR-23
p8
aVFUNCTOR-22
p9
aVFUNCTOR-21
p10
aVFUNCTOR-20
p11
aVFUNCTOR-19
p12
aVFUNCTOR-18
p13
aVFUNCTOR-17
p14
aVFUNCTOR-16
p15
aVFUNCTOR-15
p16
aVFUNCTOR-14
p17
aVFUNCTOR-13
p18
aVFUNCTOR-12
p19
aVFUNCTOR-11
p20
aVFUNCTOR-10
p21
aVFUNCTOR-9
p22
aVFUNCTOR-8
p23
aVFUNCTOR-7
p24
aVFUNCTOR-6
p25
aVFUNCTOR-5
p26
aVFUNCTOR-4
p27
aVFUNCTOR-3
p28
aVFUNCTOR-2
p29
aVFUNCTOR-1
p30
a.