(lp0
VGERONIMODEVTOOLS-815
p1
aVGERONIMODEVTOOLS-814
p2
aVGERONIMODEVTOOLS-813
p3
aVGERONIMODEVTOOLS-812
p4
aVGERONIMODEVTOOLS-811
p5
aVGERONIMODEVTOOLS-810
p6
aVGERONIMODEVTOOLS-809
p7
aVGERONIMODEVTOOLS-808
p8
aVGERONIMODEVTOOLS-807
p9
aVGERONIMODEVTOOLS-806
p10
aVGERONIMODEVTOOLS-805
p11
aVGERONIMODEVTOOLS-804
p12
aVGERONIMODEVTOOLS-803
p13
aVGERONIMODEVTOOLS-802
p14
aVGERONIMODEVTOOLS-800
p15
aVGERONIMODEVTOOLS-799
p16
aVGERONIMODEVTOOLS-798
p17
aVGERONIMODEVTOOLS-797
p18
aVGERONIMODEVTOOLS-796
p19
aVGERONIMODEVTOOLS-795
p20
aVGERONIMODEVTOOLS-794
p21
aVGERONIMODEVTOOLS-793
p22
aVGERONIMODEVTOOLS-792
p23
aVGERONIMODEVTOOLS-791
p24
aVGERONIMODEVTOOLS-790
p25
aVGERONIMODEVTOOLS-789
p26
aVGERONIMODEVTOOLS-788
p27
aVGERONIMODEVTOOLS-787
p28
aVGERONIMODEVTOOLS-786
p29
aVGERONIMODEVTOOLS-785
p30
aVGERONIMODEVTOOLS-784
p31
aVGERONIMODEVTOOLS-783
p32
aVGERONIMODEVTOOLS-782
p33
aVGERONIMODEVTOOLS-781
p34
aVGERONIMODEVTOOLS-780
p35
aVGERONIMODEVTOOLS-779
p36
aVGERONIMODEVTOOLS-778
p37
aVGERONIMODEVTOOLS-777
p38
aVGERONIMODEVTOOLS-776
p39
aVGERONIMODEVTOOLS-775
p40
aVGERONIMODEVTOOLS-774
p41
aVGERONIMODEVTOOLS-773
p42
aVGERONIMODEVTOOLS-772
p43
aVGERONIMODEVTOOLS-771
p44
aVGERONIMODEVTOOLS-770
p45
aVGERONIMODEVTOOLS-769
p46
aVGERONIMODEVTOOLS-768
p47
aVGERONIMODEVTOOLS-767
p48
aVGERONIMODEVTOOLS-766
p49
aVGERONIMODEVTOOLS-765
p50
aVGERONIMODEVTOOLS-764
p51
aVGERONIMODEVTOOLS-763
p52
aVGERONIMODEVTOOLS-762
p53
aVGERONIMODEVTOOLS-761
p54
aVGERONIMODEVTOOLS-760
p55
aVGERONIMODEVTOOLS-759
p56
aVGERONIMODEVTOOLS-758
p57
aVGERONIMODEVTOOLS-757
p58
aVGERONIMODEVTOOLS-756
p59
aVGERONIMODEVTOOLS-755
p60
aVGERONIMODEVTOOLS-754
p61
aVGERONIMODEVTOOLS-753
p62
aVGERONIMODEVTOOLS-752
p63
aVGERONIMODEVTOOLS-751
p64
aVGERONIMODEVTOOLS-750
p65
aVGERONIMODEVTOOLS-749
p66
aVGERONIMODEVTOOLS-748
p67
aVGERONIMODEVTOOLS-747
p68
aVGERONIMODEVTOOLS-746
p69
aVGERONIMODEVTOOLS-745
p70
aVGERONIMODEVTOOLS-744
p71
aVGERONIMODEVTOOLS-743
p72
aVGERONIMODEVTOOLS-742
p73
aVGERONIMODEVTOOLS-741
p74
aVGERONIMODEVTOOLS-740
p75
aVGERONIMODEVTOOLS-739
p76
aVGERONIMODEVTOOLS-738
p77
aVGERONIMODEVTOOLS-737
p78
aVGERONIMODEVTOOLS-736
p79
aVGERONIMODEVTOOLS-735
p80
aVGERONIMODEVTOOLS-734
p81
aVGERONIMODEVTOOLS-733
p82
aVGERONIMODEVTOOLS-732
p83
aVGERONIMODEVTOOLS-731
p84
aVGERONIMODEVTOOLS-730
p85
aVGERONIMODEVTOOLS-729
p86
aVGERONIMODEVTOOLS-728
p87
aVGERONIMODEVTOOLS-727
p88
aVGERONIMODEVTOOLS-726
p89
aVGERONIMODEVTOOLS-725
p90
aVGERONIMODEVTOOLS-724
p91
aVGERONIMODEVTOOLS-723
p92
aVGERONIMODEVTOOLS-722
p93
aVGERONIMODEVTOOLS-721
p94
aVGERONIMODEVTOOLS-720
p95
aVGERONIMODEVTOOLS-719
p96
aVGERONIMODEVTOOLS-718
p97
aVGERONIMODEVTOOLS-717
p98
aVGERONIMODEVTOOLS-716
p99
aVGERONIMODEVTOOLS-715
p100
aVGERONIMODEVTOOLS-714
p101
aVGERONIMODEVTOOLS-713
p102
aVGERONIMODEVTOOLS-712
p103
aVGERONIMODEVTOOLS-711
p104
aVGERONIMODEVTOOLS-710
p105
aVGERONIMODEVTOOLS-709
p106
aVGERONIMODEVTOOLS-708
p107
aVGERONIMODEVTOOLS-707
p108
aVGERONIMODEVTOOLS-706
p109
aVGERONIMODEVTOOLS-705
p110
aVGERONIMODEVTOOLS-704
p111
aVGERONIMODEVTOOLS-703
p112
aVGERONIMODEVTOOLS-702
p113
aVGERONIMODEVTOOLS-701
p114
aVGERONIMODEVTOOLS-700
p115
aVGERONIMODEVTOOLS-699
p116
aVGERONIMODEVTOOLS-698
p117
aVGERONIMODEVTOOLS-697
p118
aVGERONIMODEVTOOLS-696
p119
aVGERONIMODEVTOOLS-695
p120
aVGERONIMODEVTOOLS-694
p121
aVGERONIMODEVTOOLS-693
p122
aVGERONIMODEVTOOLS-692
p123
aVGERONIMODEVTOOLS-691
p124
aVGERONIMODEVTOOLS-690
p125
aVGERONIMODEVTOOLS-689
p126
aVGERONIMODEVTOOLS-688
p127
aVGERONIMODEVTOOLS-687
p128
aVGERONIMODEVTOOLS-686
p129
aVGERONIMODEVTOOLS-685
p130
aVGERONIMODEVTOOLS-684
p131
aVGERONIMODEVTOOLS-683
p132
aVGERONIMODEVTOOLS-682
p133
aVGERONIMODEVTOOLS-681
p134
aVGERONIMODEVTOOLS-680
p135
aVGERONIMODEVTOOLS-679
p136
aVGERONIMODEVTOOLS-678
p137
aVGERONIMODEVTOOLS-677
p138
aVGERONIMODEVTOOLS-676
p139
aVGERONIMODEVTOOLS-675
p140
aVGERONIMODEVTOOLS-674
p141
aVGERONIMODEVTOOLS-673
p142
aVGERONIMODEVTOOLS-672
p143
aVGERONIMODEVTOOLS-671
p144
aVGERONIMODEVTOOLS-670
p145
aVGERONIMODEVTOOLS-669
p146
aVGERONIMODEVTOOLS-668
p147
aVGERONIMODEVTOOLS-667
p148
aVGERONIMODEVTOOLS-666
p149
aVGERONIMODEVTOOLS-665
p150
aVGERONIMODEVTOOLS-664
p151
aVGERONIMODEVTOOLS-663
p152
aVGERONIMODEVTOOLS-662
p153
aVGERONIMODEVTOOLS-661
p154
aVGERONIMODEVTOOLS-660
p155
aVGERONIMODEVTOOLS-659
p156
aVGERONIMODEVTOOLS-658
p157
aVGERONIMODEVTOOLS-657
p158
aVGERONIMODEVTOOLS-656
p159
aVGERONIMODEVTOOLS-655
p160
aVGERONIMODEVTOOLS-654
p161
aVGERONIMODEVTOOLS-653
p162
aVGERONIMODEVTOOLS-652
p163
aVGERONIMODEVTOOLS-651
p164
aVGERONIMODEVTOOLS-650
p165
aVGERONIMODEVTOOLS-649
p166
aVGERONIMODEVTOOLS-648
p167
aVGERONIMODEVTOOLS-647
p168
aVGERONIMODEVTOOLS-646
p169
aVGERONIMODEVTOOLS-644
p170
aVGERONIMODEVTOOLS-643
p171
aVGERONIMODEVTOOLS-642
p172
aVGERONIMODEVTOOLS-641
p173
aVGERONIMODEVTOOLS-640
p174
aVGERONIMODEVTOOLS-639
p175
aVGERONIMODEVTOOLS-638
p176
aVGERONIMODEVTOOLS-637
p177
aVGERONIMODEVTOOLS-636
p178
aVGERONIMODEVTOOLS-635
p179
aVGERONIMODEVTOOLS-634
p180
aVGERONIMODEVTOOLS-633
p181
aVGERONIMODEVTOOLS-632
p182
aVGERONIMODEVTOOLS-631
p183
aVGERONIMODEVTOOLS-630
p184
aVGERONIMODEVTOOLS-629
p185
aVGERONIMODEVTOOLS-628
p186
aVGERONIMODEVTOOLS-627
p187
aVGERONIMODEVTOOLS-626
p188
aVGERONIMODEVTOOLS-625
p189
aVGERONIMODEVTOOLS-624
p190
aVGERONIMODEVTOOLS-623
p191
aVGERONIMODEVTOOLS-622
p192
aVGERONIMODEVTOOLS-621
p193
aVGERONIMODEVTOOLS-620
p194
aVGERONIMODEVTOOLS-619
p195
aVGERONIMODEVTOOLS-618
p196
aVGERONIMODEVTOOLS-617
p197
aVGERONIMODEVTOOLS-616
p198
aVGERONIMODEVTOOLS-615
p199
aVGERONIMODEVTOOLS-614
p200
aVGERONIMODEVTOOLS-613
p201
aVGERONIMODEVTOOLS-612
p202
aVGERONIMODEVTOOLS-611
p203
aVGERONIMODEVTOOLS-610
p204
aVGERONIMODEVTOOLS-609
p205
aVGERONIMODEVTOOLS-608
p206
aVGERONIMODEVTOOLS-607
p207
aVGERONIMODEVTOOLS-606
p208
aVGERONIMODEVTOOLS-605
p209
aVGERONIMODEVTOOLS-604
p210
aVGERONIMODEVTOOLS-603
p211
aVGERONIMODEVTOOLS-602
p212
aVGERONIMODEVTOOLS-601
p213
aVGERONIMODEVTOOLS-600
p214
aVGERONIMODEVTOOLS-599
p215
aVGERONIMODEVTOOLS-598
p216
aVGERONIMODEVTOOLS-597
p217
aVGERONIMODEVTOOLS-596
p218
aVGERONIMODEVTOOLS-595
p219
aVGERONIMODEVTOOLS-594
p220
aVGERONIMODEVTOOLS-593
p221
aVGERONIMODEVTOOLS-592
p222
aVGERONIMODEVTOOLS-591
p223
aVGERONIMODEVTOOLS-590
p224
aVGERONIMODEVTOOLS-589
p225
aVGERONIMODEVTOOLS-588
p226
aVGERONIMODEVTOOLS-587
p227
aVGERONIMODEVTOOLS-586
p228
aVGERONIMODEVTOOLS-585
p229
aVGERONIMODEVTOOLS-584
p230
aVGERONIMODEVTOOLS-583
p231
aVGERONIMODEVTOOLS-582
p232
aVGERONIMODEVTOOLS-581
p233
aVGERONIMODEVTOOLS-580
p234
aVGERONIMODEVTOOLS-579
p235
aVGERONIMODEVTOOLS-578
p236
aVGERONIMODEVTOOLS-577
p237
aVGERONIMODEVTOOLS-575
p238
aVGERONIMODEVTOOLS-574
p239
aVGERONIMODEVTOOLS-573
p240
aVGERONIMODEVTOOLS-572
p241
aVGERONIMODEVTOOLS-571
p242
aVGERONIMODEVTOOLS-570
p243
aVGERONIMODEVTOOLS-569
p244
aVGERONIMODEVTOOLS-568
p245
aVGERONIMODEVTOOLS-567
p246
aVGERONIMODEVTOOLS-566
p247
aVGERONIMODEVTOOLS-565
p248
aVGERONIMODEVTOOLS-564
p249
aVGERONIMODEVTOOLS-563
p250
aVGERONIMODEVTOOLS-562
p251
aVGERONIMODEVTOOLS-561
p252
aVGERONIMODEVTOOLS-560
p253
aVGERONIMODEVTOOLS-559
p254
aVGERONIMODEVTOOLS-558
p255
aVGERONIMODEVTOOLS-557
p256
aVGERONIMODEVTOOLS-556
p257
aVGERONIMODEVTOOLS-555
p258
aVGERONIMODEVTOOLS-554
p259
aVGERONIMODEVTOOLS-553
p260
aVGERONIMODEVTOOLS-552
p261
aVGERONIMODEVTOOLS-551
p262
aVGERONIMODEVTOOLS-550
p263
aVGERONIMODEVTOOLS-549
p264
aVGERONIMODEVTOOLS-548
p265
aVGERONIMODEVTOOLS-547
p266
aVGERONIMODEVTOOLS-546
p267
aVGERONIMODEVTOOLS-545
p268
aVGERONIMODEVTOOLS-544
p269
aVGERONIMODEVTOOLS-543
p270
aVGERONIMODEVTOOLS-542
p271
aVGERONIMODEVTOOLS-541
p272
aVGERONIMODEVTOOLS-540
p273
aVGERONIMODEVTOOLS-539
p274
aVGERONIMODEVTOOLS-538
p275
aVGERONIMODEVTOOLS-537
p276
aVGERONIMODEVTOOLS-536
p277
aVGERONIMODEVTOOLS-535
p278
aVGERONIMODEVTOOLS-534
p279
aVGERONIMODEVTOOLS-533
p280
aVGERONIMODEVTOOLS-532
p281
aVGERONIMODEVTOOLS-531
p282
aVGERONIMODEVTOOLS-530
p283
aVGERONIMODEVTOOLS-529
p284
aVGERONIMODEVTOOLS-528
p285
aVGERONIMODEVTOOLS-527
p286
aVGERONIMODEVTOOLS-526
p287
aVGERONIMODEVTOOLS-525
p288
aVGERONIMODEVTOOLS-524
p289
aVGERONIMODEVTOOLS-523
p290
aVGERONIMODEVTOOLS-522
p291
aVGERONIMODEVTOOLS-521
p292
aVGERONIMODEVTOOLS-520
p293
aVGERONIMODEVTOOLS-519
p294
aVGERONIMODEVTOOLS-518
p295
aVGERONIMODEVTOOLS-517
p296
aVGERONIMODEVTOOLS-516
p297
aVGERONIMODEVTOOLS-515
p298
aVGERONIMODEVTOOLS-514
p299
aVGERONIMODEVTOOLS-513
p300
aVGERONIMODEVTOOLS-512
p301
aVGERONIMODEVTOOLS-511
p302
aVGERONIMODEVTOOLS-510
p303
aVGERONIMODEVTOOLS-509
p304
aVGERONIMODEVTOOLS-508
p305
aVGERONIMODEVTOOLS-507
p306
aVGERONIMODEVTOOLS-506
p307
aVGERONIMODEVTOOLS-505
p308
aVGERONIMODEVTOOLS-504
p309
aVGERONIMODEVTOOLS-503
p310
aVGERONIMODEVTOOLS-502
p311
aVGERONIMODEVTOOLS-501
p312
aVGERONIMODEVTOOLS-500
p313
aVGERONIMODEVTOOLS-499
p314
aVGERONIMODEVTOOLS-498
p315
aVGERONIMODEVTOOLS-497
p316
aVGERONIMODEVTOOLS-496
p317
aVGERONIMODEVTOOLS-495
p318
aVGERONIMODEVTOOLS-494
p319
aVGERONIMODEVTOOLS-493
p320
aVGERONIMODEVTOOLS-492
p321
aVGERONIMODEVTOOLS-491
p322
aVGERONIMODEVTOOLS-490
p323
aVGERONIMODEVTOOLS-489
p324
aVGERONIMODEVTOOLS-488
p325
aVGERONIMODEVTOOLS-487
p326
aVGERONIMODEVTOOLS-486
p327
aVGERONIMODEVTOOLS-485
p328
aVGERONIMODEVTOOLS-484
p329
aVGERONIMODEVTOOLS-482
p330
aVGERONIMODEVTOOLS-481
p331
aVGERONIMODEVTOOLS-480
p332
aVGERONIMODEVTOOLS-479
p333
aVGERONIMODEVTOOLS-478
p334
aVGERONIMODEVTOOLS-477
p335
aVGERONIMODEVTOOLS-476
p336
aVGERONIMODEVTOOLS-475
p337
aVGERONIMODEVTOOLS-474
p338
aVGERONIMODEVTOOLS-473
p339
aVGERONIMODEVTOOLS-472
p340
aVGERONIMODEVTOOLS-471
p341
aVGERONIMODEVTOOLS-470
p342
aVGERONIMODEVTOOLS-469
p343
aVGERONIMODEVTOOLS-468
p344
aVGERONIMODEVTOOLS-467
p345
aVGERONIMODEVTOOLS-466
p346
aVGERONIMODEVTOOLS-465
p347
aVGERONIMODEVTOOLS-464
p348
aVGERONIMODEVTOOLS-463
p349
aVGERONIMODEVTOOLS-462
p350
aVGERONIMODEVTOOLS-461
p351
aVGERONIMODEVTOOLS-460
p352
aVGERONIMODEVTOOLS-459
p353
aVGERONIMODEVTOOLS-458
p354
aVGERONIMODEVTOOLS-457
p355
aVGERONIMODEVTOOLS-456
p356
aVGERONIMODEVTOOLS-455
p357
aVGERONIMODEVTOOLS-454
p358
aVGERONIMODEVTOOLS-453
p359
aVGERONIMODEVTOOLS-452
p360
aVGERONIMODEVTOOLS-451
p361
aVGERONIMODEVTOOLS-450
p362
aVGERONIMODEVTOOLS-449
p363
aVGERONIMODEVTOOLS-448
p364
aVGERONIMODEVTOOLS-447
p365
aVGERONIMODEVTOOLS-446
p366
aVGERONIMODEVTOOLS-445
p367
aVGERONIMODEVTOOLS-444
p368
aVGERONIMODEVTOOLS-443
p369
aVGERONIMODEVTOOLS-442
p370
aVGERONIMODEVTOOLS-441
p371
aVGERONIMODEVTOOLS-440
p372
aVGERONIMODEVTOOLS-439
p373
aVGERONIMODEVTOOLS-438
p374
aVGERONIMODEVTOOLS-437
p375
aVGERONIMODEVTOOLS-436
p376
aVGERONIMODEVTOOLS-435
p377
aVGERONIMODEVTOOLS-434
p378
aVGERONIMODEVTOOLS-433
p379
aVGERONIMODEVTOOLS-432
p380
aVGERONIMODEVTOOLS-431
p381
aVGERONIMODEVTOOLS-430
p382
aVGERONIMODEVTOOLS-429
p383
aVGERONIMODEVTOOLS-428
p384
aVGERONIMODEVTOOLS-427
p385
aVGERONIMODEVTOOLS-426
p386
aVGERONIMODEVTOOLS-425
p387
aVGERONIMODEVTOOLS-424
p388
aVGERONIMODEVTOOLS-423
p389
aVGERONIMODEVTOOLS-422
p390
aVGERONIMODEVTOOLS-421
p391
aVGERONIMODEVTOOLS-420
p392
aVGERONIMODEVTOOLS-419
p393
aVGERONIMODEVTOOLS-418
p394
aVGERONIMODEVTOOLS-417
p395
aVGERONIMODEVTOOLS-416
p396
aVGERONIMODEVTOOLS-415
p397
aVGERONIMODEVTOOLS-414
p398
aVGERONIMODEVTOOLS-413
p399
aVGERONIMODEVTOOLS-412
p400
aVGERONIMODEVTOOLS-411
p401
aVGERONIMODEVTOOLS-410
p402
aVGERONIMODEVTOOLS-409
p403
aVGERONIMODEVTOOLS-408
p404
aVGERONIMODEVTOOLS-407
p405
aVGERONIMODEVTOOLS-406
p406
aVGERONIMODEVTOOLS-405
p407
aVGERONIMODEVTOOLS-404
p408
aVGERONIMODEVTOOLS-403
p409
aVGERONIMODEVTOOLS-402
p410
aVGERONIMODEVTOOLS-401
p411
aVGERONIMODEVTOOLS-400
p412
aVGERONIMODEVTOOLS-399
p413
aVGERONIMODEVTOOLS-398
p414
aVGERONIMODEVTOOLS-397
p415
aVGERONIMODEVTOOLS-396
p416
aVGERONIMODEVTOOLS-395
p417
aVGERONIMODEVTOOLS-394
p418
aVGERONIMODEVTOOLS-393
p419
aVGERONIMODEVTOOLS-392
p420
aVGERONIMODEVTOOLS-391
p421
aVGERONIMODEVTOOLS-390
p422
aVGERONIMODEVTOOLS-389
p423
aVGERONIMODEVTOOLS-388
p424
aVGERONIMODEVTOOLS-387
p425
aVGERONIMODEVTOOLS-386
p426
aVGERONIMODEVTOOLS-385
p427
aVGERONIMODEVTOOLS-384
p428
aVGERONIMODEVTOOLS-383
p429
aVGERONIMODEVTOOLS-382
p430
aVGERONIMODEVTOOLS-381
p431
aVGERONIMODEVTOOLS-380
p432
aVGERONIMODEVTOOLS-379
p433
aVGERONIMODEVTOOLS-378
p434
aVGERONIMODEVTOOLS-377
p435
aVGERONIMODEVTOOLS-376
p436
aVGERONIMODEVTOOLS-375
p437
aVGERONIMODEVTOOLS-374
p438
aVGERONIMODEVTOOLS-373
p439
aVGERONIMODEVTOOLS-372
p440
aVGERONIMODEVTOOLS-371
p441
aVGERONIMODEVTOOLS-370
p442
aVGERONIMODEVTOOLS-369
p443
aVGERONIMODEVTOOLS-368
p444
aVGERONIMODEVTOOLS-367
p445
aVGERONIMODEVTOOLS-366
p446
aVGERONIMODEVTOOLS-365
p447
aVGERONIMODEVTOOLS-364
p448
aVGERONIMODEVTOOLS-363
p449
aVGERONIMODEVTOOLS-362
p450
aVGERONIMODEVTOOLS-361
p451
aVGERONIMODEVTOOLS-360
p452
aVGERONIMODEVTOOLS-359
p453
aVGERONIMODEVTOOLS-358
p454
aVGERONIMODEVTOOLS-357
p455
aVGERONIMODEVTOOLS-356
p456
aVGERONIMODEVTOOLS-355
p457
aVGERONIMODEVTOOLS-354
p458
aVGERONIMODEVTOOLS-353
p459
aVGERONIMODEVTOOLS-352
p460
aVGERONIMODEVTOOLS-351
p461
aVGERONIMODEVTOOLS-350
p462
aVGERONIMODEVTOOLS-349
p463
aVGERONIMODEVTOOLS-348
p464
aVGERONIMODEVTOOLS-347
p465
aVGERONIMODEVTOOLS-346
p466
aVGERONIMODEVTOOLS-345
p467
aVGERONIMODEVTOOLS-344
p468
aVGERONIMODEVTOOLS-343
p469
aVGERONIMODEVTOOLS-342
p470
aVGERONIMODEVTOOLS-341
p471
aVGERONIMODEVTOOLS-340
p472
aVGERONIMODEVTOOLS-339
p473
aVGERONIMODEVTOOLS-338
p474
aVGERONIMODEVTOOLS-337
p475
aVGERONIMODEVTOOLS-336
p476
aVGERONIMODEVTOOLS-335
p477
aVGERONIMODEVTOOLS-334
p478
aVGERONIMODEVTOOLS-333
p479
aVGERONIMODEVTOOLS-332
p480
aVGERONIMODEVTOOLS-331
p481
aVGERONIMODEVTOOLS-330
p482
aVGERONIMODEVTOOLS-329
p483
aVGERONIMODEVTOOLS-328
p484
aVGERONIMODEVTOOLS-327
p485
aVGERONIMODEVTOOLS-326
p486
aVGERONIMODEVTOOLS-325
p487
aVGERONIMODEVTOOLS-324
p488
aVGERONIMODEVTOOLS-323
p489
aVGERONIMODEVTOOLS-322
p490
aVGERONIMODEVTOOLS-321
p491
aVGERONIMODEVTOOLS-320
p492
aVGERONIMODEVTOOLS-319
p493
aVGERONIMODEVTOOLS-318
p494
aVGERONIMODEVTOOLS-317
p495
aVGERONIMODEVTOOLS-316
p496
aVGERONIMODEVTOOLS-315
p497
aVGERONIMODEVTOOLS-314
p498
aVGERONIMODEVTOOLS-313
p499
aVGERONIMODEVTOOLS-312
p500
aVGERONIMODEVTOOLS-311
p501
aVGERONIMODEVTOOLS-310
p502
aVGERONIMODEVTOOLS-309
p503
aVGERONIMODEVTOOLS-308
p504
aVGERONIMODEVTOOLS-307
p505
aVGERONIMODEVTOOLS-306
p506
aVGERONIMODEVTOOLS-305
p507
aVGERONIMODEVTOOLS-304
p508
aVGERONIMODEVTOOLS-303
p509
aVGERONIMODEVTOOLS-302
p510
aVGERONIMODEVTOOLS-301
p511
aVGERONIMODEVTOOLS-300
p512
aVGERONIMODEVTOOLS-299
p513
aVGERONIMODEVTOOLS-298
p514
aVGERONIMODEVTOOLS-297
p515
aVGERONIMODEVTOOLS-296
p516
aVGERONIMODEVTOOLS-295
p517
aVGERONIMODEVTOOLS-294
p518
aVGERONIMODEVTOOLS-293
p519
aVGERONIMODEVTOOLS-292
p520
aVGERONIMODEVTOOLS-291
p521
aVGERONIMODEVTOOLS-290
p522
aVGERONIMODEVTOOLS-289
p523
aVGERONIMODEVTOOLS-288
p524
aVGERONIMODEVTOOLS-287
p525
aVGERONIMODEVTOOLS-286
p526
aVGERONIMODEVTOOLS-285
p527
aVGERONIMODEVTOOLS-284
p528
aVGERONIMODEVTOOLS-283
p529
aVGERONIMODEVTOOLS-282
p530
aVGERONIMODEVTOOLS-281
p531
aVGERONIMODEVTOOLS-280
p532
aVGERONIMODEVTOOLS-279
p533
aVGERONIMODEVTOOLS-278
p534
aVGERONIMODEVTOOLS-277
p535
aVGERONIMODEVTOOLS-276
p536
aVGERONIMODEVTOOLS-275
p537
aVGERONIMODEVTOOLS-274
p538
aVGERONIMODEVTOOLS-273
p539
aVGERONIMODEVTOOLS-272
p540
aVGERONIMODEVTOOLS-271
p541
aVGERONIMODEVTOOLS-270
p542
aVGERONIMODEVTOOLS-269
p543
aVGERONIMODEVTOOLS-268
p544
aVGERONIMODEVTOOLS-267
p545
aVGERONIMODEVTOOLS-266
p546
aVGERONIMODEVTOOLS-265
p547
aVGERONIMODEVTOOLS-264
p548
aVGERONIMODEVTOOLS-263
p549
aVGERONIMODEVTOOLS-262
p550
aVGERONIMODEVTOOLS-261
p551
aVGERONIMODEVTOOLS-260
p552
aVGERONIMODEVTOOLS-259
p553
aVGERONIMODEVTOOLS-258
p554
aVGERONIMODEVTOOLS-257
p555
aVGERONIMODEVTOOLS-256
p556
aVGERONIMODEVTOOLS-255
p557
aVGERONIMODEVTOOLS-254
p558
aVGERONIMODEVTOOLS-253
p559
aVGERONIMODEVTOOLS-252
p560
aVGERONIMODEVTOOLS-251
p561
aVGERONIMODEVTOOLS-250
p562
aVGERONIMODEVTOOLS-249
p563
aVGERONIMODEVTOOLS-248
p564
aVGERONIMODEVTOOLS-247
p565
aVGERONIMODEVTOOLS-246
p566
aVGERONIMODEVTOOLS-245
p567
aVGERONIMODEVTOOLS-244
p568
aVGERONIMODEVTOOLS-243
p569
aVGERONIMODEVTOOLS-242
p570
aVGERONIMODEVTOOLS-241
p571
aVGERONIMODEVTOOLS-240
p572
aVGERONIMODEVTOOLS-239
p573
aVGERONIMODEVTOOLS-238
p574
aVGERONIMODEVTOOLS-237
p575
aVGERONIMODEVTOOLS-236
p576
aVGERONIMODEVTOOLS-235
p577
aVGERONIMODEVTOOLS-234
p578
aVGERONIMODEVTOOLS-233
p579
aVGERONIMODEVTOOLS-232
p580
aVGERONIMODEVTOOLS-231
p581
aVGERONIMODEVTOOLS-230
p582
aVGERONIMODEVTOOLS-229
p583
aVGERONIMODEVTOOLS-228
p584
aVGERONIMODEVTOOLS-227
p585
aVGERONIMODEVTOOLS-226
p586
aVGERONIMODEVTOOLS-225
p587
aVGERONIMODEVTOOLS-224
p588
aVGERONIMODEVTOOLS-223
p589
aVGERONIMODEVTOOLS-222
p590
aVGERONIMODEVTOOLS-221
p591
aVGERONIMODEVTOOLS-220
p592
aVGERONIMODEVTOOLS-219
p593
aVGERONIMODEVTOOLS-218
p594
aVGERONIMODEVTOOLS-217
p595
aVGERONIMODEVTOOLS-216
p596
aVGERONIMODEVTOOLS-215
p597
aVGERONIMODEVTOOLS-214
p598
aVGERONIMODEVTOOLS-213
p599
aVGERONIMODEVTOOLS-212
p600
aVGERONIMODEVTOOLS-211
p601
aVGERONIMODEVTOOLS-210
p602
aVGERONIMODEVTOOLS-209
p603
aVGERONIMODEVTOOLS-208
p604
aVGERONIMODEVTOOLS-207
p605
aVGERONIMODEVTOOLS-206
p606
aVGERONIMODEVTOOLS-205
p607
aVGERONIMODEVTOOLS-204
p608
aVGERONIMODEVTOOLS-203
p609
aVGERONIMODEVTOOLS-202
p610
aVGERONIMODEVTOOLS-201
p611
aVGERONIMODEVTOOLS-200
p612
aVGERONIMODEVTOOLS-199
p613
aVGERONIMODEVTOOLS-198
p614
aVGERONIMODEVTOOLS-197
p615
aVGERONIMODEVTOOLS-196
p616
aVGERONIMODEVTOOLS-195
p617
aVGERONIMODEVTOOLS-194
p618
aVGERONIMODEVTOOLS-193
p619
aVGERONIMODEVTOOLS-192
p620
aVGERONIMODEVTOOLS-191
p621
aVGERONIMODEVTOOLS-190
p622
aVGERONIMODEVTOOLS-189
p623
aVGERONIMODEVTOOLS-188
p624
aVGERONIMODEVTOOLS-187
p625
aVGERONIMODEVTOOLS-186
p626
aVGERONIMODEVTOOLS-185
p627
aVGERONIMODEVTOOLS-184
p628
aVGERONIMODEVTOOLS-183
p629
aVGERONIMODEVTOOLS-182
p630
aVGERONIMODEVTOOLS-181
p631
aVGERONIMODEVTOOLS-180
p632
aVGERONIMODEVTOOLS-179
p633
aVGERONIMODEVTOOLS-178
p634
aVGERONIMODEVTOOLS-177
p635
aVGERONIMODEVTOOLS-176
p636
aVGERONIMODEVTOOLS-175
p637
aVGERONIMODEVTOOLS-174
p638
aVGERONIMODEVTOOLS-173
p639
aVGERONIMODEVTOOLS-172
p640
aVGERONIMODEVTOOLS-171
p641
aVGERONIMODEVTOOLS-170
p642
aVGERONIMODEVTOOLS-169
p643
aVGERONIMODEVTOOLS-168
p644
aVGERONIMODEVTOOLS-167
p645
aVGERONIMODEVTOOLS-166
p646
aVGERONIMODEVTOOLS-165
p647
aVGERONIMODEVTOOLS-164
p648
aVGERONIMODEVTOOLS-163
p649
aVGERONIMODEVTOOLS-162
p650
aVGERONIMODEVTOOLS-161
p651
aVGERONIMODEVTOOLS-160
p652
aVGERONIMODEVTOOLS-159
p653
aVGERONIMODEVTOOLS-158
p654
aVGERONIMODEVTOOLS-157
p655
aVGERONIMODEVTOOLS-156
p656
aVGERONIMODEVTOOLS-155
p657
aVGERONIMODEVTOOLS-154
p658
aVGERONIMODEVTOOLS-153
p659
aVGERONIMODEVTOOLS-152
p660
aVGERONIMODEVTOOLS-151
p661
aVGERONIMODEVTOOLS-150
p662
aVGERONIMODEVTOOLS-149
p663
aVGERONIMODEVTOOLS-148
p664
aVGERONIMODEVTOOLS-147
p665
aVGERONIMODEVTOOLS-146
p666
aVGERONIMODEVTOOLS-145
p667
aVGERONIMODEVTOOLS-144
p668
aVGERONIMODEVTOOLS-143
p669
aVGERONIMODEVTOOLS-142
p670
aVGERONIMODEVTOOLS-141
p671
aVGERONIMODEVTOOLS-140
p672
aVGERONIMODEVTOOLS-139
p673
aVGERONIMODEVTOOLS-138
p674
aVGERONIMODEVTOOLS-137
p675
aVGERONIMODEVTOOLS-136
p676
aVGERONIMODEVTOOLS-135
p677
aVGERONIMODEVTOOLS-134
p678
aVGERONIMODEVTOOLS-133
p679
aVGERONIMODEVTOOLS-132
p680
aVGERONIMODEVTOOLS-131
p681
aVGERONIMODEVTOOLS-130
p682
aVGERONIMODEVTOOLS-129
p683
aVGERONIMODEVTOOLS-128
p684
aVGERONIMODEVTOOLS-127
p685
aVGERONIMODEVTOOLS-126
p686
aVGERONIMODEVTOOLS-125
p687
aVGERONIMODEVTOOLS-124
p688
aVGERONIMODEVTOOLS-123
p689
aVGERONIMODEVTOOLS-122
p690
aVGERONIMODEVTOOLS-121
p691
aVGERONIMODEVTOOLS-120
p692
aVGERONIMODEVTOOLS-119
p693
aVGERONIMODEVTOOLS-118
p694
aVGERONIMODEVTOOLS-117
p695
aVGERONIMODEVTOOLS-116
p696
aVGERONIMODEVTOOLS-115
p697
aVGERONIMODEVTOOLS-114
p698
aVGERONIMODEVTOOLS-113
p699
aVGERONIMODEVTOOLS-111
p700
aVGERONIMODEVTOOLS-110
p701
aVGERONIMODEVTOOLS-109
p702
aVGERONIMODEVTOOLS-108
p703
aVGERONIMODEVTOOLS-107
p704
aVGERONIMODEVTOOLS-106
p705
aVGERONIMODEVTOOLS-105
p706
aVGERONIMODEVTOOLS-104
p707
aVGERONIMODEVTOOLS-103
p708
aVGERONIMODEVTOOLS-102
p709
aVGERONIMODEVTOOLS-101
p710
aVGERONIMODEVTOOLS-100
p711
aVGERONIMODEVTOOLS-99
p712
aVGERONIMODEVTOOLS-98
p713
aVGERONIMODEVTOOLS-97
p714
aVGERONIMODEVTOOLS-96
p715
aVGERONIMODEVTOOLS-95
p716
aVGERONIMODEVTOOLS-94
p717
aVGERONIMODEVTOOLS-93
p718
aVGERONIMODEVTOOLS-92
p719
aVGERONIMODEVTOOLS-91
p720
aVGERONIMODEVTOOLS-90
p721
aVGERONIMODEVTOOLS-89
p722
aVGERONIMODEVTOOLS-88
p723
aVGERONIMODEVTOOLS-87
p724
aVGERONIMODEVTOOLS-86
p725
aVGERONIMODEVTOOLS-85
p726
aVGERONIMODEVTOOLS-84
p727
aVGERONIMODEVTOOLS-83
p728
aVGERONIMODEVTOOLS-82
p729
aVGERONIMODEVTOOLS-80
p730
aVGERONIMODEVTOOLS-79
p731
aVGERONIMODEVTOOLS-78
p732
aVGERONIMODEVTOOLS-77
p733
aVGERONIMODEVTOOLS-76
p734
aVGERONIMODEVTOOLS-75
p735
aVGERONIMODEVTOOLS-74
p736
aVGERONIMODEVTOOLS-73
p737
aVGERONIMODEVTOOLS-72
p738
aVGERONIMODEVTOOLS-71
p739
aVGERONIMODEVTOOLS-70
p740
aVGERONIMODEVTOOLS-69
p741
aVGERONIMODEVTOOLS-68
p742
aVGERONIMODEVTOOLS-67
p743
aVGERONIMODEVTOOLS-66
p744
aVGERONIMODEVTOOLS-65
p745
aVGERONIMODEVTOOLS-64
p746
aVGERONIMODEVTOOLS-63
p747
aVGERONIMODEVTOOLS-62
p748
aVGERONIMODEVTOOLS-61
p749
aVGERONIMODEVTOOLS-59
p750
aVGERONIMODEVTOOLS-58
p751
aVGERONIMODEVTOOLS-57
p752
aVGERONIMODEVTOOLS-56
p753
aVGERONIMODEVTOOLS-55
p754
aVGERONIMODEVTOOLS-54
p755
aVGERONIMODEVTOOLS-53
p756
aVGERONIMODEVTOOLS-52
p757
aVGERONIMODEVTOOLS-51
p758
aVGERONIMODEVTOOLS-50
p759
aVGERONIMODEVTOOLS-49
p760
aVGERONIMODEVTOOLS-48
p761
aVGERONIMODEVTOOLS-47
p762
aVGERONIMODEVTOOLS-45
p763
aVGERONIMODEVTOOLS-43
p764
aVGERONIMODEVTOOLS-42
p765
aVGERONIMODEVTOOLS-41
p766
aVGERONIMODEVTOOLS-40
p767
aVGERONIMODEVTOOLS-39
p768
aVGERONIMODEVTOOLS-38
p769
aVGERONIMODEVTOOLS-37
p770
aVGERONIMODEVTOOLS-36
p771
aVGERONIMODEVTOOLS-35
p772
aVGERONIMODEVTOOLS-34
p773
aVGERONIMODEVTOOLS-33
p774
aVGERONIMODEVTOOLS-32
p775
aVGERONIMODEVTOOLS-31
p776
aVGERONIMODEVTOOLS-30
p777
aVGERONIMODEVTOOLS-29
p778
aVGERONIMODEVTOOLS-28
p779
aVGERONIMODEVTOOLS-27
p780
aVGERONIMODEVTOOLS-26
p781
aVGERONIMODEVTOOLS-25
p782
aVGERONIMODEVTOOLS-24
p783
aVGERONIMODEVTOOLS-23
p784
aVGERONIMODEVTOOLS-22
p785
aVGERONIMODEVTOOLS-21
p786
aVGERONIMODEVTOOLS-20
p787
aVGERONIMODEVTOOLS-19
p788
aVGERONIMODEVTOOLS-18
p789
aVGERONIMODEVTOOLS-17
p790
aVGERONIMODEVTOOLS-16
p791
aVGERONIMODEVTOOLS-15
p792
aVGERONIMODEVTOOLS-14
p793
aVGERONIMODEVTOOLS-13
p794
aVGERONIMODEVTOOLS-12
p795
aVGERONIMODEVTOOLS-11
p796
aVGERONIMODEVTOOLS-10
p797
aVGERONIMODEVTOOLS-9
p798
aVGERONIMODEVTOOLS-8
p799
aVGERONIMODEVTOOLS-7
p800
aVGERONIMODEVTOOLS-6
p801
aVGERONIMODEVTOOLS-5
p802
aVGERONIMODEVTOOLS-4
p803
aVGERONIMODEVTOOLS-3
p804
aVGERONIMODEVTOOLS-2
p805
aVGERONIMODEVTOOLS-1
p806
a.