(lp0
VGERONIMO-6427
p1
aVGERONIMO-6376
p2
aVGERONIMO-5184
p3
aVGERONIMO-4273
p4
aVGERONIMO-2665
p5
aVGERONIMO-782
p6
aVGERONIMO-781
p7
aVGERONIMO-780
p8
aVGERONIMO-779
p9
aVGERONIMO-778
p10
aVGERONIMO-777
p11
aVGERONIMO-776
p12
aVGERONIMO-775
p13
aVGERONIMO-774
p14
aVGERONIMO-773
p15
aVGERONIMO-772
p16
aVGERONIMO-771
p17
aVGERONIMO-770
p18
aVGERONIMO-769
p19
aVGERONIMO-768
p20
aVGERONIMO-767
p21
aVGERONIMO-766
p22
aVGERONIMO-765
p23
aVGERONIMO-764
p24
aVGERONIMO-763
p25
aVGERONIMO-762
p26
aVGERONIMO-761
p27
aVGERONIMO-760
p28
aVGERONIMO-759
p29
aVGERONIMO-758
p30
aVGERONIMO-757
p31
aVGERONIMO-756
p32
aVGERONIMO-755
p33
aVGERONIMO-754
p34
aVGERONIMO-753
p35
aVGERONIMO-752
p36
aVGERONIMO-751
p37
aVGERONIMO-750
p38
aVGERONIMO-749
p39
aVGERONIMO-748
p40
aVGERONIMO-747
p41
aVGERONIMO-746
p42
aVGERONIMO-745
p43
aVGERONIMO-744
p44
aVGERONIMO-743
p45
aVGERONIMO-742
p46
aVGERONIMO-741
p47
aVGERONIMO-740
p48
aVGERONIMO-739
p49
aVGERONIMO-738
p50
aVGERONIMO-737
p51
aVGERONIMO-736
p52
aVGERONIMO-735
p53
aVGERONIMO-734
p54
aVGERONIMO-733
p55
aVGERONIMO-732
p56
aVGERONIMO-731
p57
aVGERONIMO-730
p58
aVGERONIMO-729
p59
aVGERONIMO-728
p60
aVGERONIMO-727
p61
aVGERONIMO-726
p62
aVGERONIMO-725
p63
aVGERONIMO-724
p64
aVGERONIMO-723
p65
aVGERONIMO-722
p66
aVGERONIMO-721
p67
aVGERONIMO-720
p68
aVGERONIMO-719
p69
aVGERONIMO-718
p70
aVGERONIMO-717
p71
aVGERONIMO-716
p72
aVGERONIMO-715
p73
aVGERONIMO-714
p74
aVGERONIMO-713
p75
aVGERONIMO-712
p76
aVGERONIMO-711
p77
aVGERONIMO-710
p78
aVGERONIMO-709
p79
aVGERONIMO-708
p80
aVGERONIMO-707
p81
aVGERONIMO-706
p82
aVGERONIMO-704
p83
aVGERONIMO-703
p84
aVGERONIMO-702
p85
aVGERONIMO-701
p86
aVGERONIMO-700
p87
aVGERONIMO-699
p88
aVGERONIMO-698
p89
aVGERONIMO-697
p90
aVGERONIMO-696
p91
aVGERONIMO-695
p92
aVGERONIMO-694
p93
aVGERONIMO-693
p94
aVGERONIMO-692
p95
aVGERONIMO-691
p96
aVGERONIMO-690
p97
aVGERONIMO-689
p98
aVGERONIMO-688
p99
aVGERONIMO-687
p100
aVGERONIMO-686
p101
aVGERONIMO-685
p102
aVGERONIMO-684
p103
aVGERONIMO-683
p104
aVGERONIMO-682
p105
aVGERONIMO-681
p106
aVGERONIMO-680
p107
aVGERONIMO-679
p108
aVGERONIMO-678
p109
aVGERONIMO-677
p110
aVGERONIMO-676
p111
aVGERONIMO-675
p112
aVGERONIMO-674
p113
aVGERONIMO-673
p114
aVGERONIMO-672
p115
aVGERONIMO-671
p116
aVGERONIMO-670
p117
aVGERONIMO-669
p118
aVGERONIMO-668
p119
aVGERONIMO-667
p120
aVGERONIMO-666
p121
aVGERONIMO-665
p122
aVGERONIMO-664
p123
aVGERONIMO-663
p124
aVGERONIMO-662
p125
aVGERONIMO-661
p126
aVGERONIMO-660
p127
aVGERONIMO-659
p128
aVGERONIMO-658
p129
aVGERONIMO-657
p130
aVGERONIMO-656
p131
aVGERONIMO-655
p132
aVGERONIMO-654
p133
aVGERONIMO-653
p134
aVGERONIMO-652
p135
aVGERONIMO-651
p136
aVGERONIMO-650
p137
aVGERONIMO-649
p138
aVGERONIMO-648
p139
aVGERONIMO-647
p140
aVGERONIMO-646
p141
aVGERONIMO-645
p142
aVGERONIMO-644
p143
aVGERONIMO-643
p144
aVGERONIMO-642
p145
aVGERONIMO-641
p146
aVGERONIMO-640
p147
aVGERONIMO-639
p148
aVGERONIMO-638
p149
aVGERONIMO-637
p150
aVGERONIMO-636
p151
aVGERONIMO-635
p152
aVGERONIMO-634
p153
aVGERONIMO-633
p154
aVGERONIMO-632
p155
aVGERONIMO-631
p156
aVGERONIMO-630
p157
aVGERONIMO-629
p158
aVGERONIMO-628
p159
aVGERONIMO-627
p160
aVGERONIMO-626
p161
aVGERONIMO-625
p162
aVGERONIMO-624
p163
aVGERONIMO-623
p164
aVGERONIMO-622
p165
aVGERONIMO-621
p166
aVGERONIMO-620
p167
aVGERONIMO-619
p168
aVGERONIMO-618
p169
aVGERONIMO-617
p170
aVGERONIMO-616
p171
aVGERONIMO-615
p172
aVGERONIMO-614
p173
aVGERONIMO-613
p174
aVGERONIMO-612
p175
aVGERONIMO-611
p176
aVGERONIMO-610
p177
aVGERONIMO-609
p178
aVGERONIMO-608
p179
aVGERONIMO-607
p180
aVGERONIMO-606
p181
aVGERONIMO-605
p182
aVGERONIMO-604
p183
aVGERONIMO-603
p184
aVGERONIMO-602
p185
aVGERONIMO-601
p186
aVGERONIMO-600
p187
aVGERONIMO-599
p188
aVGERONIMO-598
p189
aVGERONIMO-597
p190
aVGERONIMO-596
p191
aVGERONIMO-595
p192
aVGERONIMO-594
p193
aVGERONIMO-593
p194
aVGERONIMO-592
p195
aVGERONIMO-591
p196
aVGERONIMO-590
p197
aVGERONIMO-589
p198
aVGERONIMO-588
p199
aVGERONIMO-587
p200
aVGERONIMO-586
p201
aVGERONIMO-585
p202
aVGERONIMO-584
p203
aVGERONIMO-583
p204
aVGERONIMO-582
p205
aVGERONIMO-581
p206
aVGERONIMO-580
p207
aVGERONIMO-579
p208
aVGERONIMO-578
p209
aVGERONIMO-577
p210
aVGERONIMO-576
p211
aVGERONIMO-575
p212
aVGERONIMO-574
p213
aVGERONIMO-573
p214
aVGERONIMO-572
p215
aVGERONIMO-571
p216
aVGERONIMO-570
p217
aVGERONIMO-569
p218
aVGERONIMO-568
p219
aVGERONIMO-567
p220
aVGERONIMO-566
p221
aVGERONIMO-565
p222
aVGERONIMO-564
p223
aVGERONIMO-563
p224
aVGERONIMO-562
p225
aVGERONIMO-561
p226
aVGERONIMO-560
p227
aVGERONIMO-559
p228
aVGERONIMO-558
p229
aVGERONIMO-557
p230
aVGERONIMO-556
p231
aVGERONIMO-555
p232
aVGERONIMO-554
p233
aVGERONIMO-553
p234
aVGERONIMO-552
p235
aVGERONIMO-551
p236
aVGERONIMO-550
p237
aVGERONIMO-549
p238
aVGERONIMO-548
p239
aVGERONIMO-547
p240
aVGERONIMO-546
p241
aVGERONIMO-545
p242
aVGERONIMO-544
p243
aVGERONIMO-543
p244
aVGERONIMO-542
p245
aVGERONIMO-541
p246
aVGERONIMO-540
p247
aVGERONIMO-539
p248
aVGERONIMO-538
p249
aVGERONIMO-537
p250
aVGERONIMO-536
p251
aVGERONIMO-535
p252
aVGERONIMO-534
p253
aVGERONIMO-533
p254
aVGERONIMO-532
p255
aVGERONIMO-531
p256
aVGERONIMO-530
p257
aVGERONIMO-529
p258
aVGERONIMO-528
p259
aVGERONIMO-527
p260
aVGERONIMO-526
p261
aVGERONIMO-525
p262
aVGERONIMO-524
p263
aVGERONIMO-523
p264
aVGERONIMO-522
p265
aVGERONIMO-521
p266
aVGERONIMO-520
p267
aVGERONIMO-518
p268
aVGERONIMO-517
p269
aVGERONIMO-516
p270
aVGERONIMO-515
p271
aVGERONIMO-514
p272
aVGERONIMO-513
p273
aVGERONIMO-512
p274
aVGERONIMO-511
p275
aVGERONIMO-510
p276
aVGERONIMO-509
p277
aVGERONIMO-508
p278
aVGERONIMO-507
p279
aVGERONIMO-506
p280
aVGERONIMO-505
p281
aVGERONIMO-504
p282
aVGERONIMO-503
p283
aVGERONIMO-502
p284
aVGERONIMO-501
p285
aVGERONIMO-500
p286
aVGERONIMO-499
p287
aVGERONIMO-498
p288
aVGERONIMO-497
p289
aVGERONIMO-496
p290
aVGERONIMO-495
p291
aVGERONIMO-494
p292
aVGERONIMO-493
p293
aVGERONIMO-492
p294
aVGERONIMO-491
p295
aVGERONIMO-490
p296
aVGERONIMO-489
p297
aVGERONIMO-488
p298
aVGERONIMO-487
p299
aVGERONIMO-486
p300
aVGERONIMO-485
p301
aVGERONIMO-484
p302
aVGERONIMO-483
p303
aVGERONIMO-482
p304
aVGERONIMO-481
p305
aVGERONIMO-480
p306
aVGERONIMO-479
p307
aVGERONIMO-478
p308
aVGERONIMO-477
p309
aVGERONIMO-476
p310
aVGERONIMO-475
p311
aVGERONIMO-474
p312
aVGERONIMO-473
p313
aVGERONIMO-472
p314
aVGERONIMO-471
p315
aVGERONIMO-470
p316
aVGERONIMO-469
p317
aVGERONIMO-468
p318
aVGERONIMO-467
p319
aVGERONIMO-466
p320
aVGERONIMO-465
p321
aVGERONIMO-464
p322
aVGERONIMO-463
p323
aVGERONIMO-462
p324
aVGERONIMO-461
p325
aVGERONIMO-460
p326
aVGERONIMO-459
p327
aVGERONIMO-458
p328
aVGERONIMO-457
p329
aVGERONIMO-456
p330
aVGERONIMO-455
p331
aVGERONIMO-454
p332
aVGERONIMO-453
p333
aVGERONIMO-452
p334
aVGERONIMO-451
p335
aVGERONIMO-450
p336
aVGERONIMO-449
p337
aVGERONIMO-448
p338
aVGERONIMO-447
p339
aVGERONIMO-446
p340
aVGERONIMO-445
p341
aVGERONIMO-444
p342
aVGERONIMO-443
p343
aVGERONIMO-442
p344
aVGERONIMO-441
p345
aVGERONIMO-440
p346
aVGERONIMO-439
p347
aVGERONIMO-438
p348
aVGERONIMO-437
p349
aVGERONIMO-436
p350
aVGERONIMO-435
p351
aVGERONIMO-434
p352
aVGERONIMO-433
p353
aVGERONIMO-432
p354
aVGERONIMO-431
p355
aVGERONIMO-430
p356
aVGERONIMO-429
p357
aVGERONIMO-428
p358
aVGERONIMO-427
p359
aVGERONIMO-426
p360
aVGERONIMO-425
p361
aVGERONIMO-424
p362
aVGERONIMO-423
p363
aVGERONIMO-422
p364
aVGERONIMO-421
p365
aVGERONIMO-420
p366
aVGERONIMO-419
p367
aVGERONIMO-418
p368
aVGERONIMO-417
p369
aVGERONIMO-416
p370
aVGERONIMO-415
p371
aVGERONIMO-414
p372
aVGERONIMO-413
p373
aVGERONIMO-412
p374
aVGERONIMO-411
p375
aVGERONIMO-410
p376
aVGERONIMO-409
p377
aVGERONIMO-408
p378
aVGERONIMO-407
p379
aVGERONIMO-406
p380
aVGERONIMO-405
p381
aVGERONIMO-404
p382
aVGERONIMO-403
p383
aVGERONIMO-402
p384
aVGERONIMO-401
p385
aVGERONIMO-400
p386
aVGERONIMO-399
p387
aVGERONIMO-398
p388
aVGERONIMO-397
p389
aVGERONIMO-396
p390
aVGERONIMO-395
p391
aVGERONIMO-394
p392
aVGERONIMO-393
p393
aVGERONIMO-392
p394
aVGERONIMO-391
p395
aVGERONIMO-390
p396
aVGERONIMO-389
p397
aVGERONIMO-387
p398
aVGERONIMO-386
p399
aVGERONIMO-385
p400
aVGERONIMO-384
p401
aVGERONIMO-383
p402
aVGERONIMO-382
p403
aVGERONIMO-381
p404
aVGERONIMO-380
p405
aVGERONIMO-379
p406
aVGERONIMO-378
p407
aVGERONIMO-377
p408
aVGERONIMO-376
p409
aVGERONIMO-375
p410
aVGERONIMO-374
p411
aVGERONIMO-373
p412
aVGERONIMO-372
p413
aVGERONIMO-371
p414
aVGERONIMO-370
p415
aVGERONIMO-369
p416
aVGERONIMO-368
p417
aVGERONIMO-367
p418
aVGERONIMO-366
p419
aVGERONIMO-365
p420
aVGERONIMO-364
p421
aVGERONIMO-363
p422
aVGERONIMO-362
p423
aVGERONIMO-361
p424
aVGERONIMO-360
p425
aVGERONIMO-359
p426
aVGERONIMO-358
p427
aVGERONIMO-357
p428
aVGERONIMO-356
p429
aVGERONIMO-355
p430
aVGERONIMO-354
p431
aVGERONIMO-353
p432
aVGERONIMO-352
p433
aVGERONIMO-351
p434
aVGERONIMO-350
p435
aVGERONIMO-349
p436
aVGERONIMO-348
p437
aVGERONIMO-347
p438
aVGERONIMO-346
p439
aVGERONIMO-345
p440
aVGERONIMO-344
p441
aVGERONIMO-343
p442
aVGERONIMO-342
p443
aVGERONIMO-341
p444
aVGERONIMO-340
p445
aVGERONIMO-339
p446
aVGERONIMO-338
p447
aVGERONIMO-337
p448
aVGERONIMO-336
p449
aVGERONIMO-335
p450
aVGERONIMO-334
p451
aVGERONIMO-333
p452
aVGERONIMO-332
p453
aVGERONIMO-331
p454
aVGERONIMO-330
p455
aVGERONIMO-329
p456
aVGERONIMO-328
p457
aVGERONIMO-327
p458
aVGERONIMO-326
p459
aVGERONIMO-325
p460
aVGERONIMO-324
p461
aVGERONIMO-323
p462
aVGERONIMO-322
p463
aVGERONIMO-321
p464
aVGERONIMO-320
p465
aVGERONIMO-319
p466
aVGERONIMO-318
p467
aVGERONIMO-317
p468
aVGERONIMO-316
p469
aVGERONIMO-315
p470
aVGERONIMO-314
p471
aVGERONIMO-313
p472
aVGERONIMO-312
p473
aVGERONIMO-311
p474
aVGERONIMO-310
p475
aVGERONIMO-309
p476
aVGERONIMO-308
p477
aVGERONIMO-307
p478
aVGERONIMO-306
p479
aVGERONIMO-305
p480
aVGERONIMO-304
p481
aVGERONIMO-303
p482
aVGERONIMO-302
p483
aVGERONIMO-301
p484
aVGERONIMO-300
p485
aVGERONIMO-299
p486
aVGERONIMO-298
p487
aVGERONIMO-297
p488
aVGERONIMO-296
p489
aVGERONIMO-294
p490
aVGERONIMO-293
p491
aVGERONIMO-292
p492
aVGERONIMO-291
p493
aVGERONIMO-290
p494
aVGERONIMO-289
p495
aVGERONIMO-288
p496
aVGERONIMO-287
p497
aVGERONIMO-286
p498
aVGERONIMO-285
p499
aVGERONIMO-284
p500
aVGERONIMO-283
p501
aVGERONIMO-282
p502
aVGERONIMO-281
p503
aVGERONIMO-280
p504
aVGERONIMO-279
p505
aVGERONIMO-278
p506
aVGERONIMO-277
p507
aVGERONIMO-276
p508
aVGERONIMO-275
p509
aVGERONIMO-274
p510
aVGERONIMO-273
p511
aVGERONIMO-272
p512
aVGERONIMO-271
p513
aVGERONIMO-270
p514
aVGERONIMO-269
p515
aVGERONIMO-268
p516
aVGERONIMO-267
p517
aVGERONIMO-266
p518
aVGERONIMO-265
p519
aVGERONIMO-264
p520
aVGERONIMO-263
p521
aVGERONIMO-262
p522
aVGERONIMO-261
p523
aVGERONIMO-260
p524
aVGERONIMO-259
p525
aVGERONIMO-258
p526
aVGERONIMO-257
p527
aVGERONIMO-256
p528
aVGERONIMO-255
p529
aVGERONIMO-254
p530
aVGERONIMO-253
p531
aVGERONIMO-252
p532
aVGERONIMO-251
p533
aVGERONIMO-250
p534
aVGERONIMO-249
p535
aVGERONIMO-248
p536
aVGERONIMO-247
p537
aVGERONIMO-246
p538
aVGERONIMO-245
p539
aVGERONIMO-244
p540
aVGERONIMO-243
p541
aVGERONIMO-242
p542
aVGERONIMO-241
p543
aVGERONIMO-240
p544
aVGERONIMO-239
p545
aVGERONIMO-238
p546
aVGERONIMO-237
p547
aVGERONIMO-236
p548
aVGERONIMO-235
p549
aVGERONIMO-234
p550
aVGERONIMO-233
p551
aVGERONIMO-232
p552
aVGERONIMO-231
p553
aVGERONIMO-230
p554
aVGERONIMO-229
p555
aVGERONIMO-228
p556
aVGERONIMO-227
p557
aVGERONIMO-226
p558
aVGERONIMO-225
p559
aVGERONIMO-224
p560
aVGERONIMO-223
p561
aVGERONIMO-222
p562
aVGERONIMO-221
p563
aVGERONIMO-220
p564
aVGERONIMO-219
p565
aVGERONIMO-218
p566
aVGERONIMO-217
p567
aVGERONIMO-216
p568
aVGERONIMO-215
p569
aVGERONIMO-214
p570
aVGERONIMO-213
p571
aVGERONIMO-212
p572
aVGERONIMO-211
p573
aVGERONIMO-210
p574
aVGERONIMO-209
p575
aVGERONIMO-208
p576
aVGERONIMO-207
p577
aVGERONIMO-206
p578
aVGERONIMO-205
p579
aVGERONIMO-204
p580
aVGERONIMO-203
p581
aVGERONIMO-202
p582
aVGERONIMO-201
p583
aVGERONIMO-200
p584
aVGERONIMO-199
p585
aVGERONIMO-198
p586
aVGERONIMO-197
p587
aVGERONIMO-196
p588
aVGERONIMO-195
p589
aVGERONIMO-194
p590
aVGERONIMO-193
p591
aVGERONIMO-192
p592
aVGERONIMO-191
p593
aVGERONIMO-190
p594
aVGERONIMO-189
p595
aVGERONIMO-188
p596
aVGERONIMO-187
p597
aVGERONIMO-186
p598
aVGERONIMO-185
p599
aVGERONIMO-184
p600
aVGERONIMO-183
p601
aVGERONIMO-182
p602
aVGERONIMO-181
p603
aVGERONIMO-180
p604
aVGERONIMO-179
p605
aVGERONIMO-178
p606
aVGERONIMO-177
p607
aVGERONIMO-176
p608
aVGERONIMO-175
p609
aVGERONIMO-174
p610
aVGERONIMO-173
p611
aVGERONIMO-172
p612
aVGERONIMO-171
p613
aVGERONIMO-170
p614
aVGERONIMO-169
p615
aVGERONIMO-168
p616
aVGERONIMO-167
p617
aVGERONIMO-166
p618
aVGERONIMO-165
p619
aVGERONIMO-164
p620
aVGERONIMO-163
p621
aVGERONIMO-162
p622
aVGERONIMO-161
p623
aVGERONIMO-160
p624
aVGERONIMO-159
p625
aVGERONIMO-158
p626
aVGERONIMO-157
p627
aVGERONIMO-156
p628
aVGERONIMO-155
p629
aVGERONIMO-154
p630
aVGERONIMO-153
p631
aVGERONIMO-152
p632
aVGERONIMO-151
p633
aVGERONIMO-150
p634
aVGERONIMO-149
p635
aVGERONIMO-148
p636
aVGERONIMO-147
p637
aVGERONIMO-146
p638
aVGERONIMO-145
p639
aVGERONIMO-144
p640
aVGERONIMO-143
p641
aVGERONIMO-142
p642
aVGERONIMO-141
p643
aVGERONIMO-140
p644
aVGERONIMO-139
p645
aVGERONIMO-138
p646
aVGERONIMO-137
p647
aVGERONIMO-136
p648
aVGERONIMO-135
p649
aVGERONIMO-134
p650
aVGERONIMO-133
p651
aVGERONIMO-132
p652
aVGERONIMO-131
p653
aVGERONIMO-130
p654
aVGERONIMO-129
p655
aVGERONIMO-128
p656
aVGERONIMO-127
p657
aVGERONIMO-126
p658
aVGERONIMO-125
p659
aVGERONIMO-124
p660
aVGERONIMO-123
p661
aVGERONIMO-122
p662
aVGERONIMO-121
p663
aVGERONIMO-120
p664
aVGERONIMO-119
p665
aVGERONIMO-118
p666
aVGERONIMO-117
p667
aVGERONIMO-116
p668
aVGERONIMO-115
p669
aVGERONIMO-114
p670
aVGERONIMO-113
p671
aVGERONIMO-112
p672
aVGERONIMO-111
p673
aVGERONIMO-110
p674
aVGERONIMO-109
p675
aVGERONIMO-108
p676
aVGERONIMO-107
p677
aVGERONIMO-106
p678
aVGERONIMO-105
p679
aVGERONIMO-104
p680
aVGERONIMO-103
p681
aVGERONIMO-102
p682
aVGERONIMO-101
p683
aVGERONIMO-100
p684
aVGERONIMO-99
p685
aVGERONIMO-98
p686
aVGERONIMO-97
p687
aVGERONIMO-96
p688
aVGERONIMO-95
p689
aVGERONIMO-94
p690
aVGERONIMO-93
p691
aVGERONIMO-92
p692
aVGERONIMO-91
p693
aVGERONIMO-90
p694
aVGERONIMO-89
p695
aVGERONIMO-88
p696
aVGERONIMO-87
p697
aVGERONIMO-86
p698
aVGERONIMO-85
p699
aVGERONIMO-84
p700
aVGERONIMO-83
p701
aVGERONIMO-82
p702
aVGERONIMO-81
p703
aVGERONIMO-80
p704
aVGERONIMO-79
p705
aVGERONIMO-78
p706
aVGERONIMO-77
p707
aVGERONIMO-76
p708
aVGERONIMO-75
p709
aVGERONIMO-74
p710
aVGERONIMO-73
p711
aVGERONIMO-72
p712
aVGERONIMO-71
p713
aVGERONIMO-70
p714
aVGERONIMO-69
p715
aVGERONIMO-68
p716
aVGERONIMO-67
p717
aVGERONIMO-66
p718
aVGERONIMO-65
p719
aVGERONIMO-64
p720
aVGERONIMO-63
p721
aVGERONIMO-62
p722
aVGERONIMO-61
p723
aVGERONIMO-60
p724
aVGERONIMO-59
p725
aVGERONIMO-58
p726
aVGERONIMO-57
p727
aVGERONIMO-56
p728
aVGERONIMO-55
p729
aVGERONIMO-54
p730
aVGERONIMO-53
p731
aVGERONIMO-52
p732
aVGERONIMO-51
p733
aVGERONIMO-50
p734
aVGERONIMO-48
p735
aVGERONIMO-47
p736
aVGERONIMO-46
p737
aVGERONIMO-45
p738
aVGERONIMO-44
p739
aVGERONIMO-43
p740
aVGERONIMO-42
p741
aVGERONIMO-41
p742
aVGERONIMO-40
p743
aVGERONIMO-39
p744
aVGERONIMO-38
p745
aVGERONIMO-37
p746
aVGERONIMO-36
p747
aVGERONIMO-35
p748
aVGERONIMO-34
p749
aVGERONIMO-33
p750
aVGERONIMO-32
p751
aVGERONIMO-31
p752
aVGERONIMO-30
p753
aVGERONIMO-29
p754
aVGERONIMO-28
p755
aVGERONIMO-27
p756
aVGERONIMO-26
p757
aVGERONIMO-25
p758
aVGERONIMO-24
p759
aVGERONIMO-23
p760
aVGERONIMO-22
p761
aVGERONIMO-21
p762
aVGERONIMO-20
p763
aVGERONIMO-19
p764
aVGERONIMO-18
p765
aVGERONIMO-17
p766
aVGERONIMO-16
p767
aVGERONIMO-15
p768
aVGERONIMO-14
p769
aVGERONIMO-13
p770
aVGERONIMO-12
p771
aVGERONIMO-11
p772
aVGERONIMO-10
p773
aVGERONIMO-9
p774
aVGERONIMO-8
p775
aVGERONIMO-7
p776
aVGERONIMO-6
p777
aVGERONIMO-5
p778
aVGERONIMO-3
p779
aVGERONIMO-2
p780
aVGERONIMO-1
p781
a.