(lp0
VGIRAPH-1199
p1
aVGIRAPH-1198
p2
aVGIRAPH-1197
p3
aVGIRAPH-1196
p4
aVGIRAPH-1195
p5
aVGIRAPH-1194
p6
aVGIRAPH-1193
p7
aVGIRAPH-1192
p8
aVGIRAPH-1191
p9
aVGIRAPH-1190
p10
aVGIRAPH-1189
p11
aVGIRAPH-1188
p12
aVGIRAPH-1187
p13
aVGIRAPH-1186
p14
aVGIRAPH-1185
p15
aVGIRAPH-1184
p16
aVGIRAPH-1183
p17
aVGIRAPH-1182
p18
aVGIRAPH-1181
p19
aVGIRAPH-1180
p20
aVGIRAPH-1179
p21
aVGIRAPH-1178
p22
aVGIRAPH-1177
p23
aVGIRAPH-1176
p24
aVGIRAPH-1175
p25
aVGIRAPH-1174
p26
aVGIRAPH-1173
p27
aVGIRAPH-1172
p28
aVGIRAPH-1171
p29
aVGIRAPH-1170
p30
aVGIRAPH-1169
p31
aVGIRAPH-1168
p32
aVGIRAPH-1167
p33
aVGIRAPH-1166
p34
aVGIRAPH-1165
p35
aVGIRAPH-1164
p36
aVGIRAPH-1163
p37
aVGIRAPH-1162
p38
aVGIRAPH-1161
p39
aVGIRAPH-1160
p40
aVGIRAPH-1159
p41
aVGIRAPH-1158
p42
aVGIRAPH-1157
p43
aVGIRAPH-1156
p44
aVGIRAPH-1155
p45
aVGIRAPH-1154
p46
aVGIRAPH-1153
p47
aVGIRAPH-1152
p48
aVGIRAPH-1151
p49
aVGIRAPH-1150
p50
aVGIRAPH-1149
p51
aVGIRAPH-1148
p52
aVGIRAPH-1147
p53
aVGIRAPH-1146
p54
aVGIRAPH-1145
p55
aVGIRAPH-1144
p56
aVGIRAPH-1143
p57
aVGIRAPH-1142
p58
aVGIRAPH-1141
p59
aVGIRAPH-1140
p60
aVGIRAPH-1139
p61
aVGIRAPH-1138
p62
aVGIRAPH-1137
p63
aVGIRAPH-1136
p64
aVGIRAPH-1135
p65
aVGIRAPH-1134
p66
aVGIRAPH-1133
p67
aVGIRAPH-1132
p68
aVGIRAPH-1131
p69
aVGIRAPH-1130
p70
aVGIRAPH-1129
p71
aVGIRAPH-1128
p72
aVGIRAPH-1127
p73
aVGIRAPH-1126
p74
aVGIRAPH-1125
p75
aVGIRAPH-1124
p76
aVGIRAPH-1123
p77
aVGIRAPH-1122
p78
aVGIRAPH-1121
p79
aVGIRAPH-1120
p80
aVGIRAPH-1119
p81
aVGIRAPH-1118
p82
aVGIRAPH-1117
p83
aVGIRAPH-1116
p84
aVGIRAPH-1115
p85
aVGIRAPH-1114
p86
aVGIRAPH-1113
p87
aVGIRAPH-1112
p88
aVGIRAPH-1111
p89
aVGIRAPH-1110
p90
aVGIRAPH-1109
p91
aVGIRAPH-1108
p92
aVGIRAPH-1107
p93
aVGIRAPH-1106
p94
aVGIRAPH-1105
p95
aVGIRAPH-1104
p96
aVGIRAPH-1103
p97
aVGIRAPH-1102
p98
aVGIRAPH-1101
p99
aVGIRAPH-1100
p100
aVGIRAPH-1099
p101
aVGIRAPH-1098
p102
aVGIRAPH-1097
p103
aVGIRAPH-1096
p104
aVGIRAPH-1095
p105
aVGIRAPH-1094
p106
aVGIRAPH-1093
p107
aVGIRAPH-1092
p108
aVGIRAPH-1091
p109
aVGIRAPH-1090
p110
aVGIRAPH-1089
p111
aVGIRAPH-1088
p112
aVGIRAPH-1087
p113
aVGIRAPH-1086
p114
aVGIRAPH-1085
p115
aVGIRAPH-1084
p116
aVGIRAPH-1083
p117
aVGIRAPH-1082
p118
aVGIRAPH-1081
p119
aVGIRAPH-1080
p120
aVGIRAPH-1079
p121
aVGIRAPH-1078
p122
aVGIRAPH-1077
p123
aVGIRAPH-1076
p124
aVGIRAPH-1075
p125
aVGIRAPH-1074
p126
aVGIRAPH-1073
p127
aVGIRAPH-1072
p128
aVGIRAPH-1071
p129
aVGIRAPH-1070
p130
aVGIRAPH-1069
p131
aVGIRAPH-1068
p132
aVGIRAPH-1067
p133
aVGIRAPH-1066
p134
aVGIRAPH-1065
p135
aVGIRAPH-1064
p136
aVGIRAPH-1063
p137
aVGIRAPH-1062
p138
aVGIRAPH-1061
p139
aVGIRAPH-1060
p140
aVGIRAPH-1059
p141
aVGIRAPH-1058
p142
aVGIRAPH-1057
p143
aVGIRAPH-1056
p144
aVGIRAPH-1055
p145
aVGIRAPH-1054
p146
aVGIRAPH-1053
p147
aVGIRAPH-1052
p148
aVGIRAPH-1051
p149
aVGIRAPH-1050
p150
aVGIRAPH-1049
p151
aVGIRAPH-1048
p152
aVGIRAPH-1047
p153
aVGIRAPH-1046
p154
aVGIRAPH-1045
p155
aVGIRAPH-1044
p156
aVGIRAPH-1043
p157
aVGIRAPH-1042
p158
aVGIRAPH-1041
p159
aVGIRAPH-1040
p160
aVGIRAPH-1039
p161
aVGIRAPH-1038
p162
aVGIRAPH-1037
p163
aVGIRAPH-1036
p164
aVGIRAPH-1035
p165
aVGIRAPH-1034
p166
aVGIRAPH-1033
p167
aVGIRAPH-1032
p168
aVGIRAPH-1031
p169
aVGIRAPH-1030
p170
aVGIRAPH-1029
p171
aVGIRAPH-1028
p172
aVGIRAPH-1027
p173
aVGIRAPH-1026
p174
aVGIRAPH-1025
p175
aVGIRAPH-1024
p176
aVGIRAPH-1023
p177
aVGIRAPH-1022
p178
aVGIRAPH-1021
p179
aVGIRAPH-1020
p180
aVGIRAPH-1019
p181
aVGIRAPH-1018
p182
aVGIRAPH-1017
p183
aVGIRAPH-1016
p184
aVGIRAPH-1015
p185
aVGIRAPH-1014
p186
aVGIRAPH-1013
p187
aVGIRAPH-1012
p188
aVGIRAPH-1011
p189
aVGIRAPH-1010
p190
aVGIRAPH-1009
p191
aVGIRAPH-1008
p192
aVGIRAPH-1007
p193
aVGIRAPH-1006
p194
aVGIRAPH-1005
p195
aVGIRAPH-1004
p196
aVGIRAPH-1003
p197
aVGIRAPH-1002
p198
aVGIRAPH-1001
p199
aVGIRAPH-1000
p200
aVGIRAPH-999
p201
aVGIRAPH-998
p202
aVGIRAPH-997
p203
aVGIRAPH-996
p204
aVGIRAPH-995
p205
aVGIRAPH-994
p206
aVGIRAPH-993
p207
aVGIRAPH-992
p208
aVGIRAPH-991
p209
aVGIRAPH-990
p210
aVGIRAPH-989
p211
aVGIRAPH-988
p212
aVGIRAPH-987
p213
aVGIRAPH-986
p214
aVGIRAPH-985
p215
aVGIRAPH-984
p216
aVGIRAPH-983
p217
aVGIRAPH-982
p218
aVGIRAPH-981
p219
aVGIRAPH-980
p220
aVGIRAPH-979
p221
aVGIRAPH-978
p222
aVGIRAPH-977
p223
aVGIRAPH-976
p224
aVGIRAPH-975
p225
aVGIRAPH-974
p226
aVGIRAPH-973
p227
aVGIRAPH-972
p228
aVGIRAPH-971
p229
aVGIRAPH-970
p230
aVGIRAPH-969
p231
aVGIRAPH-968
p232
aVGIRAPH-967
p233
aVGIRAPH-966
p234
aVGIRAPH-965
p235
aVGIRAPH-964
p236
aVGIRAPH-963
p237
aVGIRAPH-962
p238
aVGIRAPH-961
p239
aVGIRAPH-960
p240
aVGIRAPH-959
p241
aVGIRAPH-958
p242
aVGIRAPH-957
p243
aVGIRAPH-956
p244
aVGIRAPH-955
p245
aVGIRAPH-954
p246
aVGIRAPH-953
p247
aVGIRAPH-952
p248
aVGIRAPH-951
p249
aVGIRAPH-950
p250
aVGIRAPH-949
p251
aVGIRAPH-948
p252
aVGIRAPH-947
p253
aVGIRAPH-946
p254
aVGIRAPH-945
p255
aVGIRAPH-944
p256
aVGIRAPH-943
p257
aVGIRAPH-942
p258
aVGIRAPH-941
p259
aVGIRAPH-940
p260
aVGIRAPH-939
p261
aVGIRAPH-938
p262
aVGIRAPH-937
p263
aVGIRAPH-936
p264
aVGIRAPH-935
p265
aVGIRAPH-934
p266
aVGIRAPH-933
p267
aVGIRAPH-932
p268
aVGIRAPH-931
p269
aVGIRAPH-930
p270
aVGIRAPH-929
p271
aVGIRAPH-928
p272
aVGIRAPH-927
p273
aVGIRAPH-926
p274
aVGIRAPH-925
p275
aVGIRAPH-924
p276
aVGIRAPH-923
p277
aVGIRAPH-922
p278
aVGIRAPH-921
p279
aVGIRAPH-920
p280
aVGIRAPH-919
p281
aVGIRAPH-918
p282
aVGIRAPH-917
p283
aVGIRAPH-916
p284
aVGIRAPH-915
p285
aVGIRAPH-914
p286
aVGIRAPH-913
p287
aVGIRAPH-912
p288
aVGIRAPH-911
p289
aVGIRAPH-910
p290
aVGIRAPH-909
p291
aVGIRAPH-908
p292
aVGIRAPH-907
p293
aVGIRAPH-906
p294
aVGIRAPH-905
p295
aVGIRAPH-904
p296
aVGIRAPH-903
p297
aVGIRAPH-902
p298
aVGIRAPH-901
p299
aVGIRAPH-900
p300
aVGIRAPH-899
p301
aVGIRAPH-898
p302
aVGIRAPH-897
p303
aVGIRAPH-896
p304
aVGIRAPH-895
p305
aVGIRAPH-894
p306
aVGIRAPH-893
p307
aVGIRAPH-892
p308
aVGIRAPH-891
p309
aVGIRAPH-890
p310
aVGIRAPH-889
p311
aVGIRAPH-888
p312
aVGIRAPH-887
p313
aVGIRAPH-886
p314
aVGIRAPH-885
p315
aVGIRAPH-884
p316
aVGIRAPH-883
p317
aVGIRAPH-882
p318
aVGIRAPH-881
p319
aVGIRAPH-880
p320
aVGIRAPH-879
p321
aVGIRAPH-878
p322
aVGIRAPH-877
p323
aVGIRAPH-876
p324
aVGIRAPH-875
p325
aVGIRAPH-874
p326
aVGIRAPH-873
p327
aVGIRAPH-872
p328
aVGIRAPH-871
p329
aVGIRAPH-870
p330
aVGIRAPH-869
p331
aVGIRAPH-868
p332
aVGIRAPH-867
p333
aVGIRAPH-866
p334
aVGIRAPH-865
p335
aVGIRAPH-864
p336
aVGIRAPH-863
p337
aVGIRAPH-862
p338
aVGIRAPH-861
p339
aVGIRAPH-860
p340
aVGIRAPH-859
p341
aVGIRAPH-858
p342
aVGIRAPH-857
p343
aVGIRAPH-856
p344
aVGIRAPH-855
p345
aVGIRAPH-854
p346
aVGIRAPH-853
p347
aVGIRAPH-852
p348
aVGIRAPH-851
p349
aVGIRAPH-850
p350
aVGIRAPH-849
p351
aVGIRAPH-848
p352
aVGIRAPH-847
p353
aVGIRAPH-846
p354
aVGIRAPH-845
p355
aVGIRAPH-844
p356
aVGIRAPH-843
p357
aVGIRAPH-842
p358
aVGIRAPH-841
p359
aVGIRAPH-840
p360
aVGIRAPH-839
p361
aVGIRAPH-838
p362
aVGIRAPH-837
p363
aVGIRAPH-836
p364
aVGIRAPH-835
p365
aVGIRAPH-834
p366
aVGIRAPH-833
p367
aVGIRAPH-832
p368
aVGIRAPH-831
p369
aVGIRAPH-830
p370
aVGIRAPH-829
p371
aVGIRAPH-828
p372
aVGIRAPH-827
p373
aVGIRAPH-826
p374
aVGIRAPH-825
p375
aVGIRAPH-824
p376
aVGIRAPH-823
p377
aVGIRAPH-822
p378
aVGIRAPH-821
p379
aVGIRAPH-820
p380
aVGIRAPH-819
p381
aVGIRAPH-818
p382
aVGIRAPH-817
p383
aVGIRAPH-816
p384
aVGIRAPH-815
p385
aVGIRAPH-814
p386
aVGIRAPH-813
p387
aVGIRAPH-812
p388
aVGIRAPH-811
p389
aVGIRAPH-810
p390
aVGIRAPH-809
p391
aVGIRAPH-808
p392
aVGIRAPH-807
p393
aVGIRAPH-806
p394
aVGIRAPH-805
p395
aVGIRAPH-804
p396
aVGIRAPH-803
p397
aVGIRAPH-802
p398
aVGIRAPH-801
p399
aVGIRAPH-800
p400
aVGIRAPH-799
p401
aVGIRAPH-798
p402
aVGIRAPH-797
p403
aVGIRAPH-796
p404
aVGIRAPH-795
p405
aVGIRAPH-794
p406
aVGIRAPH-793
p407
aVGIRAPH-792
p408
aVGIRAPH-791
p409
aVGIRAPH-790
p410
aVGIRAPH-789
p411
aVGIRAPH-788
p412
aVGIRAPH-787
p413
aVGIRAPH-786
p414
aVGIRAPH-785
p415
aVGIRAPH-784
p416
aVGIRAPH-783
p417
aVGIRAPH-782
p418
aVGIRAPH-781
p419
aVGIRAPH-780
p420
aVGIRAPH-779
p421
aVGIRAPH-778
p422
aVGIRAPH-777
p423
aVGIRAPH-776
p424
aVGIRAPH-775
p425
aVGIRAPH-774
p426
aVGIRAPH-773
p427
aVGIRAPH-772
p428
aVGIRAPH-771
p429
aVGIRAPH-770
p430
aVGIRAPH-769
p431
aVGIRAPH-768
p432
aVGIRAPH-767
p433
aVGIRAPH-766
p434
aVGIRAPH-765
p435
aVGIRAPH-764
p436
aVGIRAPH-763
p437
aVGIRAPH-762
p438
aVGIRAPH-761
p439
aVGIRAPH-760
p440
aVGIRAPH-759
p441
aVGIRAPH-758
p442
aVGIRAPH-757
p443
aVGIRAPH-756
p444
aVGIRAPH-755
p445
aVGIRAPH-754
p446
aVGIRAPH-753
p447
aVGIRAPH-752
p448
aVGIRAPH-751
p449
aVGIRAPH-750
p450
aVGIRAPH-749
p451
aVGIRAPH-748
p452
aVGIRAPH-747
p453
aVGIRAPH-746
p454
aVGIRAPH-745
p455
aVGIRAPH-744
p456
aVGIRAPH-743
p457
aVGIRAPH-742
p458
aVGIRAPH-741
p459
aVGIRAPH-740
p460
aVGIRAPH-739
p461
aVGIRAPH-738
p462
aVGIRAPH-737
p463
aVGIRAPH-736
p464
aVGIRAPH-735
p465
aVGIRAPH-734
p466
aVGIRAPH-733
p467
aVGIRAPH-732
p468
aVGIRAPH-731
p469
aVGIRAPH-730
p470
aVGIRAPH-729
p471
aVGIRAPH-728
p472
aVGIRAPH-727
p473
aVGIRAPH-726
p474
aVGIRAPH-725
p475
aVGIRAPH-724
p476
aVGIRAPH-723
p477
aVGIRAPH-722
p478
aVGIRAPH-721
p479
aVGIRAPH-720
p480
aVGIRAPH-719
p481
aVGIRAPH-718
p482
aVGIRAPH-717
p483
aVGIRAPH-716
p484
aVGIRAPH-715
p485
aVGIRAPH-714
p486
aVGIRAPH-713
p487
aVGIRAPH-712
p488
aVGIRAPH-711
p489
aVGIRAPH-710
p490
aVGIRAPH-709
p491
aVGIRAPH-708
p492
aVGIRAPH-707
p493
aVGIRAPH-706
p494
aVGIRAPH-705
p495
aVGIRAPH-704
p496
aVGIRAPH-703
p497
aVGIRAPH-702
p498
aVGIRAPH-701
p499
aVGIRAPH-700
p500
aVGIRAPH-699
p501
aVGIRAPH-698
p502
aVGIRAPH-697
p503
aVGIRAPH-696
p504
aVGIRAPH-695
p505
aVGIRAPH-694
p506
aVGIRAPH-693
p507
aVGIRAPH-692
p508
aVGIRAPH-691
p509
aVGIRAPH-690
p510
aVGIRAPH-689
p511
aVGIRAPH-688
p512
aVGIRAPH-687
p513
aVGIRAPH-686
p514
aVGIRAPH-685
p515
aVGIRAPH-684
p516
aVGIRAPH-683
p517
aVGIRAPH-682
p518
aVGIRAPH-681
p519
aVGIRAPH-680
p520
aVGIRAPH-679
p521
aVGIRAPH-678
p522
aVGIRAPH-677
p523
aVGIRAPH-676
p524
aVGIRAPH-675
p525
aVGIRAPH-674
p526
aVGIRAPH-673
p527
aVGIRAPH-672
p528
aVGIRAPH-671
p529
aVGIRAPH-670
p530
aVGIRAPH-669
p531
aVGIRAPH-668
p532
aVGIRAPH-667
p533
aVGIRAPH-666
p534
aVGIRAPH-665
p535
aVGIRAPH-664
p536
aVGIRAPH-663
p537
aVGIRAPH-662
p538
aVGIRAPH-661
p539
aVGIRAPH-660
p540
aVGIRAPH-659
p541
aVGIRAPH-658
p542
aVGIRAPH-657
p543
aVGIRAPH-656
p544
aVGIRAPH-655
p545
aVGIRAPH-654
p546
aVGIRAPH-653
p547
aVGIRAPH-652
p548
aVGIRAPH-651
p549
aVGIRAPH-650
p550
aVGIRAPH-649
p551
aVGIRAPH-648
p552
aVGIRAPH-647
p553
aVGIRAPH-646
p554
aVGIRAPH-645
p555
aVGIRAPH-644
p556
aVGIRAPH-643
p557
aVGIRAPH-642
p558
aVGIRAPH-641
p559
aVGIRAPH-640
p560
aVGIRAPH-639
p561
aVGIRAPH-638
p562
aVGIRAPH-637
p563
aVGIRAPH-636
p564
aVGIRAPH-635
p565
aVGIRAPH-634
p566
aVGIRAPH-633
p567
aVGIRAPH-632
p568
aVGIRAPH-631
p569
aVGIRAPH-630
p570
aVGIRAPH-629
p571
aVGIRAPH-628
p572
aVGIRAPH-627
p573
aVGIRAPH-626
p574
aVGIRAPH-625
p575
aVGIRAPH-624
p576
aVGIRAPH-623
p577
aVGIRAPH-622
p578
aVGIRAPH-621
p579
aVGIRAPH-620
p580
aVGIRAPH-619
p581
aVGIRAPH-618
p582
aVGIRAPH-617
p583
aVGIRAPH-616
p584
aVGIRAPH-615
p585
aVGIRAPH-614
p586
aVGIRAPH-613
p587
aVGIRAPH-612
p588
aVGIRAPH-611
p589
aVGIRAPH-610
p590
aVGIRAPH-609
p591
aVGIRAPH-608
p592
aVGIRAPH-607
p593
aVGIRAPH-606
p594
aVGIRAPH-605
p595
aVGIRAPH-604
p596
aVGIRAPH-603
p597
aVGIRAPH-602
p598
aVGIRAPH-601
p599
aVGIRAPH-600
p600
aVGIRAPH-599
p601
aVGIRAPH-598
p602
aVGIRAPH-597
p603
aVGIRAPH-596
p604
aVGIRAPH-595
p605
aVGIRAPH-594
p606
aVGIRAPH-593
p607
aVGIRAPH-592
p608
aVGIRAPH-591
p609
aVGIRAPH-590
p610
aVGIRAPH-589
p611
aVGIRAPH-588
p612
aVGIRAPH-587
p613
aVGIRAPH-586
p614
aVGIRAPH-585
p615
aVGIRAPH-584
p616
aVGIRAPH-583
p617
aVGIRAPH-582
p618
aVGIRAPH-581
p619
aVGIRAPH-580
p620
aVGIRAPH-579
p621
aVGIRAPH-578
p622
aVGIRAPH-577
p623
aVGIRAPH-576
p624
aVGIRAPH-575
p625
aVGIRAPH-574
p626
aVGIRAPH-573
p627
aVGIRAPH-572
p628
aVGIRAPH-571
p629
aVGIRAPH-570
p630
aVGIRAPH-569
p631
aVGIRAPH-568
p632
aVGIRAPH-567
p633
aVGIRAPH-566
p634
aVGIRAPH-565
p635
aVGIRAPH-564
p636
aVGIRAPH-563
p637
aVGIRAPH-562
p638
aVGIRAPH-561
p639
aVGIRAPH-560
p640
aVGIRAPH-559
p641
aVGIRAPH-558
p642
aVGIRAPH-557
p643
aVGIRAPH-556
p644
aVGIRAPH-555
p645
aVGIRAPH-554
p646
aVGIRAPH-553
p647
aVGIRAPH-552
p648
aVGIRAPH-551
p649
aVGIRAPH-550
p650
aVGIRAPH-549
p651
aVGIRAPH-548
p652
aVGIRAPH-547
p653
aVGIRAPH-546
p654
aVGIRAPH-545
p655
aVGIRAPH-544
p656
aVGIRAPH-543
p657
aVGIRAPH-542
p658
aVGIRAPH-541
p659
aVGIRAPH-540
p660
aVGIRAPH-539
p661
aVGIRAPH-538
p662
aVGIRAPH-537
p663
aVGIRAPH-536
p664
aVGIRAPH-535
p665
aVGIRAPH-534
p666
aVGIRAPH-533
p667
aVGIRAPH-532
p668
aVGIRAPH-531
p669
aVGIRAPH-530
p670
aVGIRAPH-529
p671
aVGIRAPH-528
p672
aVGIRAPH-527
p673
aVGIRAPH-526
p674
aVGIRAPH-525
p675
aVGIRAPH-524
p676
aVGIRAPH-523
p677
aVGIRAPH-522
p678
aVGIRAPH-521
p679
aVGIRAPH-520
p680
aVGIRAPH-519
p681
aVGIRAPH-518
p682
aVGIRAPH-517
p683
aVGIRAPH-516
p684
aVGIRAPH-515
p685
aVGIRAPH-514
p686
aVGIRAPH-513
p687
aVGIRAPH-512
p688
aVGIRAPH-511
p689
aVGIRAPH-510
p690
aVGIRAPH-509
p691
aVGIRAPH-508
p692
aVGIRAPH-507
p693
aVGIRAPH-506
p694
aVGIRAPH-505
p695
aVGIRAPH-504
p696
aVGIRAPH-503
p697
aVGIRAPH-502
p698
aVGIRAPH-501
p699
aVGIRAPH-500
p700
aVGIRAPH-499
p701
aVGIRAPH-498
p702
aVGIRAPH-497
p703
aVGIRAPH-496
p704
aVGIRAPH-495
p705
aVGIRAPH-494
p706
aVGIRAPH-493
p707
aVGIRAPH-492
p708
aVGIRAPH-491
p709
aVGIRAPH-490
p710
aVGIRAPH-489
p711
aVGIRAPH-488
p712
aVGIRAPH-487
p713
aVGIRAPH-486
p714
aVGIRAPH-485
p715
aVGIRAPH-484
p716
aVGIRAPH-483
p717
aVGIRAPH-482
p718
aVGIRAPH-481
p719
aVGIRAPH-480
p720
aVGIRAPH-479
p721
aVGIRAPH-478
p722
aVGIRAPH-477
p723
aVGIRAPH-476
p724
aVGIRAPH-475
p725
aVGIRAPH-474
p726
aVGIRAPH-473
p727
aVGIRAPH-472
p728
aVGIRAPH-471
p729
aVGIRAPH-470
p730
aVGIRAPH-469
p731
aVGIRAPH-468
p732
aVGIRAPH-467
p733
aVGIRAPH-466
p734
aVGIRAPH-465
p735
aVGIRAPH-464
p736
aVGIRAPH-463
p737
aVGIRAPH-462
p738
aVGIRAPH-461
p739
aVGIRAPH-460
p740
aVGIRAPH-459
p741
aVGIRAPH-458
p742
aVGIRAPH-457
p743
aVGIRAPH-456
p744
aVGIRAPH-455
p745
aVGIRAPH-454
p746
aVGIRAPH-453
p747
aVGIRAPH-452
p748
aVGIRAPH-451
p749
aVGIRAPH-450
p750
aVGIRAPH-449
p751
aVGIRAPH-448
p752
aVGIRAPH-447
p753
aVGIRAPH-446
p754
aVGIRAPH-445
p755
aVGIRAPH-444
p756
aVGIRAPH-443
p757
aVGIRAPH-442
p758
aVGIRAPH-441
p759
aVGIRAPH-440
p760
aVGIRAPH-439
p761
aVGIRAPH-438
p762
aVGIRAPH-437
p763
aVGIRAPH-436
p764
aVGIRAPH-435
p765
aVGIRAPH-434
p766
aVGIRAPH-433
p767
aVGIRAPH-432
p768
aVGIRAPH-431
p769
aVGIRAPH-430
p770
aVGIRAPH-429
p771
aVGIRAPH-428
p772
aVGIRAPH-427
p773
aVGIRAPH-426
p774
aVGIRAPH-425
p775
aVGIRAPH-424
p776
aVGIRAPH-423
p777
aVGIRAPH-422
p778
aVGIRAPH-421
p779
aVGIRAPH-420
p780
aVGIRAPH-419
p781
aVGIRAPH-418
p782
aVGIRAPH-417
p783
aVGIRAPH-416
p784
aVGIRAPH-415
p785
aVGIRAPH-414
p786
aVGIRAPH-413
p787
aVGIRAPH-412
p788
aVGIRAPH-411
p789
aVGIRAPH-410
p790
aVGIRAPH-409
p791
aVGIRAPH-408
p792
aVGIRAPH-407
p793
aVGIRAPH-406
p794
aVGIRAPH-405
p795
aVGIRAPH-404
p796
aVGIRAPH-403
p797
aVGIRAPH-402
p798
aVGIRAPH-401
p799
aVGIRAPH-400
p800
aVGIRAPH-399
p801
aVGIRAPH-398
p802
aVGIRAPH-397
p803
aVGIRAPH-396
p804
aVGIRAPH-395
p805
aVGIRAPH-394
p806
aVGIRAPH-393
p807
aVGIRAPH-392
p808
aVGIRAPH-391
p809
aVGIRAPH-390
p810
aVGIRAPH-389
p811
aVGIRAPH-388
p812
aVGIRAPH-387
p813
aVGIRAPH-386
p814
aVGIRAPH-385
p815
aVGIRAPH-384
p816
aVGIRAPH-383
p817
aVGIRAPH-382
p818
aVGIRAPH-381
p819
aVGIRAPH-380
p820
aVGIRAPH-379
p821
aVGIRAPH-378
p822
aVGIRAPH-377
p823
aVGIRAPH-376
p824
aVGIRAPH-375
p825
aVGIRAPH-374
p826
aVGIRAPH-373
p827
aVGIRAPH-372
p828
aVGIRAPH-371
p829
aVGIRAPH-370
p830
aVGIRAPH-369
p831
aVGIRAPH-368
p832
aVGIRAPH-367
p833
aVGIRAPH-366
p834
aVGIRAPH-365
p835
aVGIRAPH-364
p836
aVGIRAPH-363
p837
aVGIRAPH-362
p838
aVGIRAPH-361
p839
aVGIRAPH-360
p840
aVGIRAPH-359
p841
aVGIRAPH-358
p842
aVGIRAPH-357
p843
aVGIRAPH-356
p844
aVGIRAPH-355
p845
aVGIRAPH-354
p846
aVGIRAPH-353
p847
aVGIRAPH-352
p848
aVGIRAPH-351
p849
aVGIRAPH-350
p850
aVGIRAPH-349
p851
aVGIRAPH-348
p852
aVGIRAPH-347
p853
aVGIRAPH-346
p854
aVGIRAPH-345
p855
aVGIRAPH-344
p856
aVGIRAPH-343
p857
aVGIRAPH-342
p858
aVGIRAPH-341
p859
aVGIRAPH-340
p860
aVGIRAPH-339
p861
aVGIRAPH-338
p862
aVGIRAPH-337
p863
aVGIRAPH-336
p864
aVGIRAPH-335
p865
aVGIRAPH-334
p866
aVGIRAPH-333
p867
aVGIRAPH-332
p868
aVGIRAPH-331
p869
aVGIRAPH-330
p870
aVGIRAPH-329
p871
aVGIRAPH-328
p872
aVGIRAPH-327
p873
aVGIRAPH-326
p874
aVGIRAPH-325
p875
aVGIRAPH-324
p876
aVGIRAPH-323
p877
aVGIRAPH-322
p878
aVGIRAPH-321
p879
aVGIRAPH-320
p880
aVGIRAPH-319
p881
aVGIRAPH-318
p882
aVGIRAPH-317
p883
aVGIRAPH-316
p884
aVGIRAPH-315
p885
aVGIRAPH-314
p886
aVGIRAPH-313
p887
aVGIRAPH-312
p888
aVGIRAPH-311
p889
aVGIRAPH-310
p890
aVGIRAPH-309
p891
aVGIRAPH-308
p892
aVGIRAPH-307
p893
aVGIRAPH-306
p894
aVGIRAPH-305
p895
aVGIRAPH-304
p896
aVGIRAPH-303
p897
aVGIRAPH-302
p898
aVGIRAPH-301
p899
aVGIRAPH-300
p900
aVGIRAPH-299
p901
aVGIRAPH-298
p902
aVGIRAPH-297
p903
aVGIRAPH-296
p904
aVGIRAPH-295
p905
aVGIRAPH-294
p906
aVGIRAPH-293
p907
aVGIRAPH-292
p908
aVGIRAPH-291
p909
aVGIRAPH-290
p910
aVGIRAPH-289
p911
aVGIRAPH-288
p912
aVGIRAPH-287
p913
aVGIRAPH-286
p914
aVGIRAPH-285
p915
aVGIRAPH-284
p916
aVGIRAPH-283
p917
aVGIRAPH-282
p918
aVGIRAPH-281
p919
aVGIRAPH-280
p920
aVGIRAPH-279
p921
aVGIRAPH-278
p922
aVGIRAPH-277
p923
aVGIRAPH-276
p924
aVGIRAPH-275
p925
aVGIRAPH-274
p926
aVGIRAPH-273
p927
aVGIRAPH-272
p928
aVGIRAPH-271
p929
aVGIRAPH-270
p930
aVGIRAPH-269
p931
aVGIRAPH-268
p932
aVGIRAPH-267
p933
aVGIRAPH-266
p934
aVGIRAPH-265
p935
aVGIRAPH-264
p936
aVGIRAPH-263
p937
aVGIRAPH-262
p938
aVGIRAPH-261
p939
aVGIRAPH-260
p940
aVGIRAPH-259
p941
aVGIRAPH-258
p942
aVGIRAPH-257
p943
aVGIRAPH-256
p944
aVGIRAPH-255
p945
aVGIRAPH-254
p946
aVGIRAPH-253
p947
aVGIRAPH-252
p948
aVGIRAPH-251
p949
aVGIRAPH-250
p950
aVGIRAPH-249
p951
aVGIRAPH-248
p952
aVGIRAPH-247
p953
aVGIRAPH-246
p954
aVGIRAPH-245
p955
aVGIRAPH-244
p956
aVGIRAPH-243
p957
aVGIRAPH-242
p958
aVGIRAPH-241
p959
aVGIRAPH-240
p960
aVGIRAPH-239
p961
aVGIRAPH-238
p962
aVGIRAPH-237
p963
aVGIRAPH-236
p964
aVGIRAPH-235
p965
aVGIRAPH-234
p966
aVGIRAPH-233
p967
aVGIRAPH-232
p968
aVGIRAPH-231
p969
aVGIRAPH-230
p970
aVGIRAPH-229
p971
aVGIRAPH-228
p972
aVGIRAPH-227
p973
aVGIRAPH-226
p974
aVGIRAPH-225
p975
aVGIRAPH-224
p976
aVGIRAPH-223
p977
aVGIRAPH-222
p978
aVGIRAPH-221
p979
aVGIRAPH-220
p980
aVGIRAPH-219
p981
aVGIRAPH-218
p982
aVGIRAPH-217
p983
aVGIRAPH-216
p984
aVGIRAPH-215
p985
aVGIRAPH-214
p986
aVGIRAPH-213
p987
aVGIRAPH-212
p988
aVGIRAPH-211
p989
aVGIRAPH-210
p990
aVGIRAPH-209
p991
aVGIRAPH-208
p992
aVGIRAPH-207
p993
aVGIRAPH-206
p994
aVGIRAPH-205
p995
aVGIRAPH-204
p996
aVGIRAPH-203
p997
aVGIRAPH-202
p998
aVGIRAPH-201
p999
aVGIRAPH-200
p1000
aVGIRAPH-199
p1001
aVGIRAPH-198
p1002
aVGIRAPH-197
p1003
aVGIRAPH-196
p1004
aVGIRAPH-195
p1005
aVGIRAPH-194
p1006
aVGIRAPH-193
p1007
aVGIRAPH-192
p1008
aVGIRAPH-191
p1009
aVGIRAPH-190
p1010
aVGIRAPH-189
p1011
aVGIRAPH-188
p1012
aVGIRAPH-187
p1013
aVGIRAPH-186
p1014
aVGIRAPH-185
p1015
aVGIRAPH-184
p1016
aVGIRAPH-183
p1017
aVGIRAPH-182
p1018
aVGIRAPH-181
p1019
aVGIRAPH-180
p1020
aVGIRAPH-179
p1021
aVGIRAPH-178
p1022
aVGIRAPH-177
p1023
aVGIRAPH-176
p1024
aVGIRAPH-175
p1025
aVGIRAPH-174
p1026
aVGIRAPH-173
p1027
aVGIRAPH-172
p1028
aVGIRAPH-171
p1029
aVGIRAPH-170
p1030
aVGIRAPH-169
p1031
aVGIRAPH-168
p1032
aVGIRAPH-167
p1033
aVGIRAPH-166
p1034
aVGIRAPH-165
p1035
aVGIRAPH-164
p1036
aVGIRAPH-163
p1037
aVGIRAPH-162
p1038
aVGIRAPH-161
p1039
aVGIRAPH-160
p1040
aVGIRAPH-159
p1041
aVGIRAPH-158
p1042
aVGIRAPH-157
p1043
aVGIRAPH-156
p1044
aVGIRAPH-155
p1045
aVGIRAPH-154
p1046
aVGIRAPH-153
p1047
aVGIRAPH-152
p1048
aVGIRAPH-151
p1049
aVGIRAPH-150
p1050
aVGIRAPH-149
p1051
aVGIRAPH-148
p1052
aVGIRAPH-147
p1053
aVGIRAPH-146
p1054
aVGIRAPH-145
p1055
aVGIRAPH-144
p1056
aVGIRAPH-143
p1057
aVGIRAPH-142
p1058
aVGIRAPH-141
p1059
aVGIRAPH-140
p1060
aVGIRAPH-139
p1061
aVGIRAPH-138
p1062
aVGIRAPH-137
p1063
aVGIRAPH-136
p1064
aVGIRAPH-135
p1065
aVGIRAPH-134
p1066
aVGIRAPH-133
p1067
aVGIRAPH-132
p1068
aVGIRAPH-131
p1069
aVGIRAPH-130
p1070
aVGIRAPH-129
p1071
aVGIRAPH-128
p1072
aVGIRAPH-127
p1073
aVGIRAPH-126
p1074
aVGIRAPH-125
p1075
aVGIRAPH-124
p1076
aVGIRAPH-123
p1077
aVGIRAPH-122
p1078
aVGIRAPH-121
p1079
aVGIRAPH-120
p1080
aVGIRAPH-119
p1081
aVGIRAPH-118
p1082
aVGIRAPH-117
p1083
aVGIRAPH-116
p1084
aVGIRAPH-115
p1085
aVGIRAPH-114
p1086
aVGIRAPH-113
p1087
aVGIRAPH-112
p1088
aVGIRAPH-111
p1089
aVGIRAPH-110
p1090
aVGIRAPH-109
p1091
aVGIRAPH-108
p1092
aVGIRAPH-107
p1093
aVGIRAPH-106
p1094
aVGIRAPH-105
p1095
aVGIRAPH-104
p1096
aVGIRAPH-103
p1097
aVGIRAPH-102
p1098
aVGIRAPH-101
p1099
aVGIRAPH-100
p1100
aVGIRAPH-99
p1101
aVGIRAPH-98
p1102
aVGIRAPH-97
p1103
aVGIRAPH-96
p1104
aVGIRAPH-95
p1105
aVGIRAPH-94
p1106
aVGIRAPH-93
p1107
aVGIRAPH-92
p1108
aVGIRAPH-91
p1109
aVGIRAPH-90
p1110
aVGIRAPH-89
p1111
aVGIRAPH-88
p1112
aVGIRAPH-87
p1113
aVGIRAPH-86
p1114
aVGIRAPH-85
p1115
aVGIRAPH-84
p1116
aVGIRAPH-83
p1117
aVGIRAPH-82
p1118
aVGIRAPH-81
p1119
aVGIRAPH-80
p1120
aVGIRAPH-79
p1121
aVGIRAPH-78
p1122
aVGIRAPH-77
p1123
aVGIRAPH-76
p1124
aVGIRAPH-75
p1125
aVGIRAPH-74
p1126
aVGIRAPH-73
p1127
aVGIRAPH-72
p1128
aVGIRAPH-71
p1129
aVGIRAPH-70
p1130
aVGIRAPH-69
p1131
aVGIRAPH-68
p1132
aVGIRAPH-67
p1133
aVGIRAPH-66
p1134
aVGIRAPH-65
p1135
aVGIRAPH-64
p1136
aVGIRAPH-63
p1137
aVGIRAPH-62
p1138
aVGIRAPH-61
p1139
aVGIRAPH-60
p1140
aVGIRAPH-59
p1141
aVGIRAPH-58
p1142
aVGIRAPH-57
p1143
aVGIRAPH-56
p1144
aVGIRAPH-55
p1145
aVGIRAPH-54
p1146
aVGIRAPH-53
p1147
aVGIRAPH-52
p1148
aVGIRAPH-51
p1149
aVGIRAPH-50
p1150
aVGIRAPH-49
p1151
aVGIRAPH-48
p1152
aVGIRAPH-47
p1153
aVGIRAPH-46
p1154
aVGIRAPH-45
p1155
aVGIRAPH-44
p1156
aVGIRAPH-43
p1157
aVGIRAPH-42
p1158
aVGIRAPH-41
p1159
aVGIRAPH-40
p1160
aVGIRAPH-39
p1161
aVGIRAPH-38
p1162
aVGIRAPH-37
p1163
aVGIRAPH-36
p1164
aVGIRAPH-35
p1165
aVGIRAPH-34
p1166
aVGIRAPH-33
p1167
aVGIRAPH-32
p1168
aVGIRAPH-31
p1169
aVGIRAPH-30
p1170
aVGIRAPH-29
p1171
aVGIRAPH-28
p1172
aVGIRAPH-27
p1173
aVGIRAPH-26
p1174
aVGIRAPH-25
p1175
aVGIRAPH-24
p1176
aVGIRAPH-23
p1177
aVGIRAPH-22
p1178
aVGIRAPH-21
p1179
aVGIRAPH-20
p1180
aVGIRAPH-19
p1181
aVGIRAPH-18
p1182
aVGIRAPH-17
p1183
aVGIRAPH-16
p1184
aVGIRAPH-15
p1185
aVGIRAPH-14
p1186
aVGIRAPH-13
p1187
aVGIRAPH-12
p1188
aVGIRAPH-11
p1189
aVGIRAPH-10
p1190
aVGIRAPH-9
p1191
aVGIRAPH-8
p1192
aVGIRAPH-7
p1193
aVGIRAPH-6
p1194
aVGIRAPH-5
p1195
aVGIRAPH-4
p1196
aVGIRAPH-3
p1197
aVGIRAPH-2
p1198
aVGIRAPH-1
p1199
a.