(lp0
VGORA-539
p1
aVGORA-538
p2
aVGORA-537
p3
aVGORA-536
p4
aVGORA-535
p5
aVGORA-534
p6
aVGORA-533
p7
aVGORA-532
p8
aVGORA-531
p9
aVGORA-530
p10
aVGORA-529
p11
aVGORA-528
p12
aVGORA-527
p13
aVGORA-526
p14
aVGORA-525
p15
aVGORA-524
p16
aVGORA-523
p17
aVGORA-522
p18
aVGORA-521
p19
aVGORA-520
p20
aVGORA-519
p21
aVGORA-518
p22
aVGORA-517
p23
aVGORA-516
p24
aVGORA-515
p25
aVGORA-514
p26
aVGORA-513
p27
aVGORA-512
p28
aVGORA-511
p29
aVGORA-510
p30
aVGORA-509
p31
aVGORA-508
p32
aVGORA-507
p33
aVGORA-506
p34
aVGORA-505
p35
aVGORA-504
p36
aVGORA-503
p37
aVGORA-502
p38
aVGORA-501
p39
aVGORA-500
p40
aVGORA-499
p41
aVGORA-498
p42
aVGORA-497
p43
aVGORA-496
p44
aVGORA-495
p45
aVGORA-494
p46
aVGORA-493
p47
aVGORA-492
p48
aVGORA-491
p49
aVGORA-490
p50
aVGORA-489
p51
aVGORA-488
p52
aVGORA-487
p53
aVGORA-486
p54
aVGORA-485
p55
aVGORA-484
p56
aVGORA-483
p57
aVGORA-482
p58
aVGORA-481
p59
aVGORA-480
p60
aVGORA-479
p61
aVGORA-478
p62
aVGORA-477
p63
aVGORA-476
p64
aVGORA-475
p65
aVGORA-474
p66
aVGORA-473
p67
aVGORA-472
p68
aVGORA-471
p69
aVGORA-470
p70
aVGORA-469
p71
aVGORA-468
p72
aVGORA-467
p73
aVGORA-466
p74
aVGORA-465
p75
aVGORA-464
p76
aVGORA-463
p77
aVGORA-462
p78
aVGORA-461
p79
aVGORA-460
p80
aVGORA-459
p81
aVGORA-458
p82
aVGORA-457
p83
aVGORA-456
p84
aVGORA-455
p85
aVGORA-454
p86
aVGORA-453
p87
aVGORA-452
p88
aVGORA-451
p89
aVGORA-450
p90
aVGORA-449
p91
aVGORA-448
p92
aVGORA-447
p93
aVGORA-446
p94
aVGORA-445
p95
aVGORA-444
p96
aVGORA-443
p97
aVGORA-442
p98
aVGORA-441
p99
aVGORA-440
p100
aVGORA-439
p101
aVGORA-438
p102
aVGORA-437
p103
aVGORA-436
p104
aVGORA-435
p105
aVGORA-434
p106
aVGORA-433
p107
aVGORA-432
p108
aVGORA-431
p109
aVGORA-430
p110
aVGORA-429
p111
aVGORA-428
p112
aVGORA-427
p113
aVGORA-426
p114
aVGORA-425
p115
aVGORA-424
p116
aVGORA-423
p117
aVGORA-422
p118
aVGORA-421
p119
aVGORA-420
p120
aVGORA-419
p121
aVGORA-418
p122
aVGORA-417
p123
aVGORA-416
p124
aVGORA-415
p125
aVGORA-414
p126
aVGORA-413
p127
aVGORA-412
p128
aVGORA-411
p129
aVGORA-410
p130
aVGORA-409
p131
aVGORA-408
p132
aVGORA-407
p133
aVGORA-406
p134
aVGORA-405
p135
aVGORA-404
p136
aVGORA-403
p137
aVGORA-402
p138
aVGORA-401
p139
aVGORA-400
p140
aVGORA-399
p141
aVGORA-398
p142
aVGORA-397
p143
aVGORA-396
p144
aVGORA-395
p145
aVGORA-394
p146
aVGORA-393
p147
aVGORA-392
p148
aVGORA-391
p149
aVGORA-390
p150
aVGORA-389
p151
aVGORA-388
p152
aVGORA-387
p153
aVGORA-386
p154
aVGORA-385
p155
aVGORA-384
p156
aVGORA-383
p157
aVGORA-382
p158
aVGORA-381
p159
aVGORA-380
p160
aVGORA-379
p161
aVGORA-378
p162
aVGORA-377
p163
aVGORA-376
p164
aVGORA-375
p165
aVGORA-374
p166
aVGORA-373
p167
aVGORA-372
p168
aVGORA-371
p169
aVGORA-370
p170
aVGORA-369
p171
aVGORA-368
p172
aVGORA-367
p173
aVGORA-366
p174
aVGORA-365
p175
aVGORA-364
p176
aVGORA-363
p177
aVGORA-362
p178
aVGORA-361
p179
aVGORA-360
p180
aVGORA-359
p181
aVGORA-358
p182
aVGORA-357
p183
aVGORA-356
p184
aVGORA-355
p185
aVGORA-354
p186
aVGORA-353
p187
aVGORA-352
p188
aVGORA-351
p189
aVGORA-350
p190
aVGORA-349
p191
aVGORA-348
p192
aVGORA-347
p193
aVGORA-346
p194
aVGORA-345
p195
aVGORA-344
p196
aVGORA-343
p197
aVGORA-342
p198
aVGORA-341
p199
aVGORA-340
p200
aVGORA-339
p201
aVGORA-338
p202
aVGORA-337
p203
aVGORA-336
p204
aVGORA-335
p205
aVGORA-334
p206
aVGORA-333
p207
aVGORA-332
p208
aVGORA-331
p209
aVGORA-330
p210
aVGORA-329
p211
aVGORA-328
p212
aVGORA-327
p213
aVGORA-326
p214
aVGORA-325
p215
aVGORA-324
p216
aVGORA-323
p217
aVGORA-322
p218
aVGORA-321
p219
aVGORA-320
p220
aVGORA-319
p221
aVGORA-318
p222
aVGORA-317
p223
aVGORA-316
p224
aVGORA-315
p225
aVGORA-314
p226
aVGORA-313
p227
aVGORA-312
p228
aVGORA-311
p229
aVGORA-310
p230
aVGORA-309
p231
aVGORA-308
p232
aVGORA-307
p233
aVGORA-306
p234
aVGORA-305
p235
aVGORA-304
p236
aVGORA-303
p237
aVGORA-302
p238
aVGORA-301
p239
aVGORA-300
p240
aVGORA-299
p241
aVGORA-298
p242
aVGORA-297
p243
aVGORA-296
p244
aVGORA-295
p245
aVGORA-294
p246
aVGORA-293
p247
aVGORA-292
p248
aVGORA-291
p249
aVGORA-290
p250
aVGORA-289
p251
aVGORA-288
p252
aVGORA-287
p253
aVGORA-286
p254
aVGORA-285
p255
aVGORA-284
p256
aVGORA-283
p257
aVGORA-282
p258
aVGORA-281
p259
aVGORA-280
p260
aVGORA-279
p261
aVGORA-278
p262
aVGORA-277
p263
aVGORA-276
p264
aVGORA-275
p265
aVGORA-274
p266
aVGORA-273
p267
aVGORA-272
p268
aVGORA-271
p269
aVGORA-270
p270
aVGORA-269
p271
aVGORA-268
p272
aVGORA-267
p273
aVGORA-266
p274
aVGORA-265
p275
aVGORA-264
p276
aVGORA-263
p277
aVGORA-262
p278
aVGORA-261
p279
aVGORA-260
p280
aVGORA-259
p281
aVGORA-258
p282
aVGORA-257
p283
aVGORA-256
p284
aVGORA-255
p285
aVGORA-254
p286
aVGORA-253
p287
aVGORA-252
p288
aVGORA-251
p289
aVGORA-250
p290
aVGORA-249
p291
aVGORA-248
p292
aVGORA-247
p293
aVGORA-246
p294
aVGORA-245
p295
aVGORA-244
p296
aVGORA-243
p297
aVGORA-242
p298
aVGORA-241
p299
aVGORA-240
p300
aVGORA-239
p301
aVGORA-238
p302
aVGORA-237
p303
aVGORA-236
p304
aVGORA-235
p305
aVGORA-234
p306
aVGORA-233
p307
aVGORA-232
p308
aVGORA-231
p309
aVGORA-230
p310
aVGORA-229
p311
aVGORA-228
p312
aVGORA-227
p313
aVGORA-226
p314
aVGORA-225
p315
aVGORA-224
p316
aVGORA-223
p317
aVGORA-222
p318
aVGORA-221
p319
aVGORA-220
p320
aVGORA-219
p321
aVGORA-218
p322
aVGORA-217
p323
aVGORA-216
p324
aVGORA-215
p325
aVGORA-214
p326
aVGORA-213
p327
aVGORA-212
p328
aVGORA-211
p329
aVGORA-210
p330
aVGORA-209
p331
aVGORA-208
p332
aVGORA-207
p333
aVGORA-206
p334
aVGORA-205
p335
aVGORA-204
p336
aVGORA-203
p337
aVGORA-202
p338
aVGORA-201
p339
aVGORA-200
p340
aVGORA-199
p341
aVGORA-198
p342
aVGORA-197
p343
aVGORA-196
p344
aVGORA-195
p345
aVGORA-194
p346
aVGORA-193
p347
aVGORA-192
p348
aVGORA-191
p349
aVGORA-190
p350
aVGORA-189
p351
aVGORA-188
p352
aVGORA-187
p353
aVGORA-186
p354
aVGORA-185
p355
aVGORA-184
p356
aVGORA-183
p357
aVGORA-182
p358
aVGORA-181
p359
aVGORA-180
p360
aVGORA-179
p361
aVGORA-178
p362
aVGORA-177
p363
aVGORA-176
p364
aVGORA-175
p365
aVGORA-174
p366
aVGORA-173
p367
aVGORA-172
p368
aVGORA-171
p369
aVGORA-170
p370
aVGORA-169
p371
aVGORA-168
p372
aVGORA-167
p373
aVGORA-166
p374
aVGORA-165
p375
aVGORA-164
p376
aVGORA-163
p377
aVGORA-162
p378
aVGORA-161
p379
aVGORA-160
p380
aVGORA-159
p381
aVGORA-158
p382
aVGORA-157
p383
aVGORA-156
p384
aVGORA-155
p385
aVGORA-154
p386
aVGORA-153
p387
aVGORA-152
p388
aVGORA-151
p389
aVGORA-150
p390
aVGORA-149
p391
aVGORA-148
p392
aVGORA-147
p393
aVGORA-146
p394
aVGORA-145
p395
aVGORA-144
p396
aVGORA-143
p397
aVGORA-142
p398
aVGORA-141
p399
aVGORA-140
p400
aVGORA-139
p401
aVGORA-138
p402
aVGORA-137
p403
aVGORA-136
p404
aVGORA-135
p405
aVGORA-134
p406
aVGORA-133
p407
aVGORA-132
p408
aVGORA-131
p409
aVGORA-130
p410
aVGORA-129
p411
aVGORA-128
p412
aVGORA-127
p413
aVGORA-126
p414
aVGORA-125
p415
aVGORA-124
p416
aVGORA-123
p417
aVGORA-122
p418
aVGORA-121
p419
aVGORA-120
p420
aVGORA-119
p421
aVGORA-118
p422
aVGORA-117
p423
aVGORA-116
p424
aVGORA-115
p425
aVGORA-114
p426
aVGORA-113
p427
aVGORA-112
p428
aVGORA-111
p429
aVGORA-110
p430
aVGORA-109
p431
aVGORA-108
p432
aVGORA-107
p433
aVGORA-106
p434
aVGORA-105
p435
aVGORA-104
p436
aVGORA-103
p437
aVGORA-102
p438
aVGORA-101
p439
aVGORA-100
p440
aVGORA-99
p441
aVGORA-98
p442
aVGORA-97
p443
aVGORA-96
p444
aVGORA-95
p445
aVGORA-94
p446
aVGORA-93
p447
aVGORA-92
p448
aVGORA-91
p449
aVGORA-90
p450
aVGORA-89
p451
aVGORA-88
p452
aVGORA-87
p453
aVGORA-86
p454
aVGORA-85
p455
aVGORA-84
p456
aVGORA-83
p457
aVGORA-82
p458
aVGORA-81
p459
aVGORA-80
p460
aVGORA-79
p461
aVGORA-78
p462
aVGORA-77
p463
aVGORA-76
p464
aVGORA-75
p465
aVGORA-74
p466
aVGORA-73
p467
aVGORA-72
p468
aVGORA-71
p469
aVGORA-70
p470
aVGORA-69
p471
aVGORA-68
p472
aVGORA-67
p473
aVGORA-66
p474
aVGORA-65
p475
aVGORA-64
p476
aVGORA-63
p477
aVGORA-62
p478
aVGORA-61
p479
aVGORA-60
p480
aVGORA-59
p481
aVGORA-58
p482
aVGORA-57
p483
aVGORA-56
p484
aVGORA-55
p485
aVGORA-54
p486
aVGORA-53
p487
aVGORA-52
p488
aVGORA-51
p489
aVGORA-50
p490
aVGORA-49
p491
aVGORA-48
p492
aVGORA-47
p493
aVGORA-46
p494
aVGORA-45
p495
aVGORA-44
p496
aVGORA-43
p497
aVGORA-42
p498
aVGORA-41
p499
aVGORA-40
p500
aVGORA-39
p501
aVGORA-38
p502
aVGORA-37
p503
aVGORA-36
p504
aVGORA-35
p505
aVGORA-34
p506
aVGORA-33
p507
aVGORA-32
p508
aVGORA-31
p509
aVGORA-30
p510
aVGORA-29
p511
aVGORA-28
p512
aVGORA-27
p513
aVGORA-26
p514
aVGORA-25
p515
aVGORA-24
p516
aVGORA-23
p517
aVGORA-22
p518
aVGORA-21
p519
aVGORA-20
p520
aVGORA-19
p521
aVGORA-18
p522
aVGORA-17
p523
aVGORA-16
p524
aVGORA-15
p525
aVGORA-14
p526
aVGORA-13
p527
aVGORA-12
p528
aVGORA-11
p529
aVGORA-10
p530
aVGORA-9
p531
aVGORA-8
p532
aVGORA-7
p533
aVGORA-6
p534
aVGORA-5
p535
aVGORA-4
p536
aVGORA-3
p537
aVGORA-2
p538
aVGORA-1
p539
a.