(lp0
VGROOVY-8728
p1
aVGROOVY-8727
p2
aVGROOVY-8726
p3
aVGROOVY-8725
p4
aVGROOVY-8724
p5
aVGROOVY-8723
p6
aVGROOVY-8722
p7
aVGROOVY-8721
p8
aVGROOVY-8720
p9
aVGROOVY-8719
p10
aVGROOVY-8718
p11
aVGROOVY-8717
p12
aVGROOVY-8716
p13
aVGROOVY-8715
p14
aVGROOVY-8714
p15
aVGROOVY-8713
p16
aVGROOVY-8712
p17
aVGROOVY-8711
p18
aVGROOVY-8710
p19
aVGROOVY-8709
p20
aVGROOVY-8708
p21
aVGROOVY-8707
p22
aVGROOVY-8706
p23
aVGROOVY-8705
p24
aVGROOVY-8704
p25
aVGROOVY-8703
p26
aVGROOVY-8702
p27
aVGROOVY-8701
p28
aVGROOVY-8700
p29
aVGROOVY-8699
p30
aVGROOVY-8698
p31
aVGROOVY-8697
p32
aVGROOVY-8696
p33
aVGROOVY-8695
p34
aVGROOVY-8694
p35
aVGROOVY-8693
p36
aVGROOVY-8692
p37
aVGROOVY-8691
p38
aVGROOVY-8690
p39
aVGROOVY-8689
p40
aVGROOVY-8688
p41
aVGROOVY-8687
p42
aVGROOVY-8686
p43
aVGROOVY-8685
p44
aVGROOVY-8684
p45
aVGROOVY-8683
p46
aVGROOVY-8682
p47
aVGROOVY-8681
p48
aVGROOVY-8680
p49
aVGROOVY-8679
p50
aVGROOVY-8678
p51
aVGROOVY-8677
p52
aVGROOVY-8676
p53
aVGROOVY-8675
p54
aVGROOVY-8674
p55
aVGROOVY-8673
p56
aVGROOVY-8672
p57
aVGROOVY-8671
p58
aVGROOVY-8670
p59
aVGROOVY-8669
p60
aVGROOVY-8668
p61
aVGROOVY-8667
p62
aVGROOVY-8666
p63
aVGROOVY-8665
p64
aVGROOVY-8664
p65
aVGROOVY-8663
p66
aVGROOVY-8662
p67
aVGROOVY-8661
p68
aVGROOVY-8660
p69
aVGROOVY-8659
p70
aVGROOVY-8658
p71
aVGROOVY-8657
p72
aVGROOVY-8656
p73
aVGROOVY-8655
p74
aVGROOVY-8654
p75
aVGROOVY-8653
p76
aVGROOVY-8652
p77
aVGROOVY-8651
p78
aVGROOVY-8650
p79
aVGROOVY-8649
p80
aVGROOVY-8648
p81
aVGROOVY-8647
p82
aVGROOVY-8646
p83
aVGROOVY-8645
p84
aVGROOVY-8644
p85
aVGROOVY-8643
p86
aVGROOVY-8642
p87
aVGROOVY-8641
p88
aVGROOVY-8640
p89
aVGROOVY-8639
p90
aVGROOVY-8638
p91
aVGROOVY-8637
p92
aVGROOVY-8636
p93
aVGROOVY-8635
p94
aVGROOVY-8634
p95
aVGROOVY-8633
p96
aVGROOVY-8632
p97
aVGROOVY-8631
p98
aVGROOVY-8630
p99
aVGROOVY-8629
p100
aVGROOVY-8628
p101
aVGROOVY-8627
p102
aVGROOVY-8626
p103
aVGROOVY-8625
p104
aVGROOVY-8624
p105
aVGROOVY-8623
p106
aVGROOVY-8622
p107
aVGROOVY-8621
p108
aVGROOVY-8620
p109
aVGROOVY-8619
p110
aVGROOVY-8618
p111
aVGROOVY-8617
p112
aVGROOVY-8616
p113
aVGROOVY-8615
p114
aVGROOVY-8614
p115
aVGROOVY-8613
p116
aVGROOVY-8612
p117
aVGROOVY-8611
p118
aVGROOVY-8610
p119
aVGROOVY-8609
p120
aVGROOVY-8608
p121
aVGROOVY-8607
p122
aVGROOVY-8606
p123
aVGROOVY-8605
p124
aVGROOVY-8604
p125
aVGROOVY-8603
p126
aVGROOVY-8602
p127
aVGROOVY-8601
p128
aVGROOVY-8600
p129
aVGROOVY-8599
p130
aVGROOVY-8598
p131
aVGROOVY-8597
p132
aVGROOVY-8596
p133
aVGROOVY-8595
p134
aVGROOVY-8594
p135
aVGROOVY-8593
p136
aVGROOVY-8592
p137
aVGROOVY-8591
p138
aVGROOVY-8590
p139
aVGROOVY-8589
p140
aVGROOVY-8588
p141
aVGROOVY-8587
p142
aVGROOVY-8586
p143
aVGROOVY-8585
p144
aVGROOVY-8584
p145
aVGROOVY-8583
p146
aVGROOVY-8582
p147
aVGROOVY-8580
p148
aVGROOVY-8579
p149
aVGROOVY-8578
p150
aVGROOVY-8577
p151
aVGROOVY-8576
p152
aVGROOVY-8575
p153
aVGROOVY-8574
p154
aVGROOVY-8573
p155
aVGROOVY-8572
p156
aVGROOVY-8571
p157
aVGROOVY-8570
p158
aVGROOVY-8569
p159
aVGROOVY-8568
p160
aVGROOVY-8567
p161
aVGROOVY-8566
p162
aVGROOVY-8565
p163
aVGROOVY-8564
p164
aVGROOVY-8563
p165
aVGROOVY-8562
p166
aVGROOVY-8561
p167
aVGROOVY-8560
p168
aVGROOVY-8559
p169
aVGROOVY-8558
p170
aVGROOVY-8557
p171
aVGROOVY-8556
p172
aVGROOVY-8555
p173
aVGROOVY-8554
p174
aVGROOVY-8553
p175
aVGROOVY-8552
p176
aVGROOVY-8551
p177
aVGROOVY-8550
p178
aVGROOVY-8549
p179
aVGROOVY-8548
p180
aVGROOVY-8547
p181
aVGROOVY-8546
p182
aVGROOVY-8545
p183
aVGROOVY-8544
p184
aVGROOVY-8543
p185
aVGROOVY-8542
p186
aVGROOVY-8541
p187
aVGROOVY-8540
p188
aVGROOVY-8539
p189
aVGROOVY-8538
p190
aVGROOVY-8537
p191
aVGROOVY-8536
p192
aVGROOVY-8535
p193
aVGROOVY-8534
p194
aVGROOVY-8533
p195
aVGROOVY-8532
p196
aVGROOVY-8531
p197
aVGROOVY-8530
p198
aVGROOVY-8529
p199
aVGROOVY-8528
p200
aVGROOVY-8527
p201
aVGROOVY-8526
p202
aVGROOVY-8525
p203
aVGROOVY-8524
p204
aVGROOVY-8523
p205
aVGROOVY-8522
p206
aVGROOVY-8521
p207
aVGROOVY-8520
p208
aVGROOVY-8519
p209
aVGROOVY-8518
p210
aVGROOVY-8517
p211
aVGROOVY-8516
p212
aVGROOVY-8515
p213
aVGROOVY-8514
p214
aVGROOVY-8513
p215
aVGROOVY-8512
p216
aVGROOVY-8511
p217
aVGROOVY-8510
p218
aVGROOVY-8509
p219
aVGROOVY-8508
p220
aVGROOVY-8507
p221
aVGROOVY-8506
p222
aVGROOVY-8505
p223
aVGROOVY-8504
p224
aVGROOVY-8503
p225
aVGROOVY-8502
p226
aVGROOVY-8501
p227
aVGROOVY-8500
p228
aVGROOVY-8499
p229
aVGROOVY-8498
p230
aVGROOVY-8497
p231
aVGROOVY-8496
p232
aVGROOVY-8495
p233
aVGROOVY-8494
p234
aVGROOVY-8493
p235
aVGROOVY-8492
p236
aVGROOVY-8491
p237
aVGROOVY-8490
p238
aVGROOVY-8489
p239
aVGROOVY-8488
p240
aVGROOVY-8487
p241
aVGROOVY-8486
p242
aVGROOVY-8485
p243
aVGROOVY-8484
p244
aVGROOVY-8483
p245
aVGROOVY-8482
p246
aVGROOVY-8481
p247
aVGROOVY-8480
p248
aVGROOVY-8479
p249
aVGROOVY-8478
p250
aVGROOVY-8477
p251
aVGROOVY-8476
p252
aVGROOVY-8475
p253
aVGROOVY-8474
p254
aVGROOVY-8473
p255
aVGROOVY-8472
p256
aVGROOVY-8471
p257
aVGROOVY-8470
p258
aVGROOVY-8469
p259
aVGROOVY-8468
p260
aVGROOVY-8467
p261
aVGROOVY-8466
p262
aVGROOVY-8465
p263
aVGROOVY-8464
p264
aVGROOVY-8463
p265
aVGROOVY-8462
p266
aVGROOVY-8461
p267
aVGROOVY-8460
p268
aVGROOVY-8459
p269
aVGROOVY-8458
p270
aVGROOVY-8457
p271
aVGROOVY-8456
p272
aVGROOVY-8455
p273
aVGROOVY-8454
p274
aVGROOVY-8453
p275
aVGROOVY-8452
p276
aVGROOVY-8451
p277
aVGROOVY-8450
p278
aVGROOVY-8449
p279
aVGROOVY-8448
p280
aVGROOVY-8447
p281
aVGROOVY-8446
p282
aVGROOVY-8445
p283
aVGROOVY-8444
p284
aVGROOVY-8443
p285
aVGROOVY-8442
p286
aVGROOVY-8441
p287
aVGROOVY-8440
p288
aVGROOVY-8439
p289
aVGROOVY-8438
p290
aVGROOVY-8437
p291
aVGROOVY-8436
p292
aVGROOVY-8435
p293
aVGROOVY-8434
p294
aVGROOVY-8433
p295
aVGROOVY-8432
p296
aVGROOVY-8431
p297
aVGROOVY-8430
p298
aVGROOVY-8429
p299
aVGROOVY-8428
p300
aVGROOVY-8427
p301
aVGROOVY-8426
p302
aVGROOVY-8425
p303
aVGROOVY-8424
p304
aVGROOVY-8423
p305
aVGROOVY-8422
p306
aVGROOVY-8421
p307
aVGROOVY-8420
p308
aVGROOVY-8419
p309
aVGROOVY-8418
p310
aVGROOVY-8417
p311
aVGROOVY-8416
p312
aVGROOVY-8414
p313
aVGROOVY-8413
p314
aVGROOVY-8412
p315
aVGROOVY-8411
p316
aVGROOVY-8410
p317
aVGROOVY-8409
p318
aVGROOVY-8408
p319
aVGROOVY-8407
p320
aVGROOVY-8406
p321
aVGROOVY-8405
p322
aVGROOVY-8404
p323
aVGROOVY-8403
p324
aVGROOVY-8402
p325
aVGROOVY-8401
p326
aVGROOVY-8400
p327
aVGROOVY-8399
p328
aVGROOVY-8398
p329
aVGROOVY-8397
p330
aVGROOVY-8396
p331
aVGROOVY-8395
p332
aVGROOVY-8394
p333
aVGROOVY-8393
p334
aVGROOVY-8392
p335
aVGROOVY-8391
p336
aVGROOVY-8390
p337
aVGROOVY-8389
p338
aVGROOVY-8388
p339
aVGROOVY-8387
p340
aVGROOVY-8386
p341
aVGROOVY-8385
p342
aVGROOVY-8384
p343
aVGROOVY-8383
p344
aVGROOVY-8382
p345
aVGROOVY-8381
p346
aVGROOVY-8380
p347
aVGROOVY-8379
p348
aVGROOVY-8378
p349
aVGROOVY-8377
p350
aVGROOVY-8376
p351
aVGROOVY-8375
p352
aVGROOVY-8374
p353
aVGROOVY-8373
p354
aVGROOVY-8372
p355
aVGROOVY-8371
p356
aVGROOVY-8370
p357
aVGROOVY-8369
p358
aVGROOVY-8368
p359
aVGROOVY-8367
p360
aVGROOVY-8366
p361
aVGROOVY-8365
p362
aVGROOVY-8364
p363
aVGROOVY-8363
p364
aVGROOVY-8362
p365
aVGROOVY-8361
p366
aVGROOVY-8360
p367
aVGROOVY-8359
p368
aVGROOVY-8358
p369
aVGROOVY-8357
p370
aVGROOVY-8356
p371
aVGROOVY-8355
p372
aVGROOVY-8354
p373
aVGROOVY-8353
p374
aVGROOVY-8352
p375
aVGROOVY-8351
p376
aVGROOVY-8350
p377
aVGROOVY-8349
p378
aVGROOVY-8348
p379
aVGROOVY-8347
p380
aVGROOVY-8346
p381
aVGROOVY-8345
p382
aVGROOVY-8344
p383
aVGROOVY-8343
p384
aVGROOVY-8342
p385
aVGROOVY-8341
p386
aVGROOVY-8340
p387
aVGROOVY-8339
p388
aVGROOVY-8338
p389
aVGROOVY-8337
p390
aVGROOVY-8336
p391
aVGROOVY-8335
p392
aVGROOVY-8334
p393
aVGROOVY-8333
p394
aVGROOVY-8332
p395
aVGROOVY-8331
p396
aVGROOVY-8330
p397
aVGROOVY-8329
p398
aVGROOVY-8328
p399
aVGROOVY-8327
p400
aVGROOVY-8326
p401
aVGROOVY-8325
p402
aVGROOVY-8324
p403
aVGROOVY-8323
p404
aVGROOVY-8322
p405
aVGROOVY-8321
p406
aVGROOVY-8320
p407
aVGROOVY-8319
p408
aVGROOVY-8318
p409
aVGROOVY-8317
p410
aVGROOVY-8316
p411
aVGROOVY-8315
p412
aVGROOVY-8314
p413
aVGROOVY-8313
p414
aVGROOVY-8312
p415
aVGROOVY-8311
p416
aVGROOVY-8310
p417
aVGROOVY-8309
p418
aVGROOVY-8308
p419
aVGROOVY-8307
p420
aVGROOVY-8306
p421
aVGROOVY-8305
p422
aVGROOVY-8304
p423
aVGROOVY-8303
p424
aVGROOVY-8302
p425
aVGROOVY-8301
p426
aVGROOVY-8300
p427
aVGROOVY-8299
p428
aVGROOVY-8298
p429
aVGROOVY-8297
p430
aVGROOVY-8296
p431
aVGROOVY-8295
p432
aVGROOVY-8294
p433
aVGROOVY-8293
p434
aVGROOVY-8292
p435
aVGROOVY-8291
p436
aVGROOVY-8290
p437
aVGROOVY-8289
p438
aVGROOVY-8288
p439
aVGROOVY-8287
p440
aVGROOVY-8286
p441
aVGROOVY-8285
p442
aVGROOVY-8284
p443
aVGROOVY-8283
p444
aVGROOVY-8282
p445
aVGROOVY-8281
p446
aVGROOVY-8280
p447
aVGROOVY-8279
p448
aVGROOVY-8278
p449
aVGROOVY-8277
p450
aVGROOVY-8276
p451
aVGROOVY-8275
p452
aVGROOVY-8274
p453
aVGROOVY-8273
p454
aVGROOVY-8272
p455
aVGROOVY-8271
p456
aVGROOVY-8270
p457
aVGROOVY-8269
p458
aVGROOVY-8268
p459
aVGROOVY-8267
p460
aVGROOVY-8266
p461
aVGROOVY-8265
p462
aVGROOVY-8264
p463
aVGROOVY-8263
p464
aVGROOVY-8262
p465
aVGROOVY-8261
p466
aVGROOVY-8260
p467
aVGROOVY-8259
p468
aVGROOVY-8258
p469
aVGROOVY-8257
p470
aVGROOVY-8256
p471
aVGROOVY-8255
p472
aVGROOVY-8254
p473
aVGROOVY-8253
p474
aVGROOVY-8252
p475
aVGROOVY-8251
p476
aVGROOVY-8250
p477
aVGROOVY-8249
p478
aVGROOVY-8248
p479
aVGROOVY-8247
p480
aVGROOVY-8246
p481
aVGROOVY-8245
p482
aVGROOVY-8244
p483
aVGROOVY-8243
p484
aVGROOVY-8242
p485
aVGROOVY-8241
p486
aVGROOVY-8240
p487
aVGROOVY-8239
p488
aVGROOVY-8238
p489
aVGROOVY-8237
p490
aVGROOVY-8236
p491
aVGROOVY-8235
p492
aVGROOVY-8234
p493
aVGROOVY-8233
p494
aVGROOVY-8232
p495
aVGROOVY-8231
p496
aVGROOVY-8230
p497
aVGROOVY-8229
p498
aVGROOVY-8228
p499
aVGROOVY-8227
p500
aVGROOVY-8226
p501
aVGROOVY-8225
p502
aVGROOVY-8224
p503
aVGROOVY-8223
p504
aVGROOVY-8222
p505
aVGROOVY-8221
p506
aVGROOVY-8220
p507
aVGROOVY-8219
p508
aVGROOVY-8218
p509
aVGROOVY-8217
p510
aVGROOVY-8216
p511
aVGROOVY-8215
p512
aVGROOVY-8214
p513
aVGROOVY-8213
p514
aVGROOVY-8212
p515
aVGROOVY-8211
p516
aVGROOVY-8210
p517
aVGROOVY-8209
p518
aVGROOVY-8208
p519
aVGROOVY-8207
p520
aVGROOVY-8206
p521
aVGROOVY-8205
p522
aVGROOVY-8204
p523
aVGROOVY-8203
p524
aVGROOVY-8202
p525
aVGROOVY-8201
p526
aVGROOVY-8200
p527
aVGROOVY-8199
p528
aVGROOVY-8198
p529
aVGROOVY-8197
p530
aVGROOVY-8196
p531
aVGROOVY-8195
p532
aVGROOVY-8194
p533
aVGROOVY-8193
p534
aVGROOVY-8192
p535
aVGROOVY-8191
p536
aVGROOVY-8190
p537
aVGROOVY-8189
p538
aVGROOVY-8188
p539
aVGROOVY-8187
p540
aVGROOVY-8186
p541
aVGROOVY-8185
p542
aVGROOVY-8184
p543
aVGROOVY-8183
p544
aVGROOVY-8182
p545
aVGROOVY-8181
p546
aVGROOVY-8180
p547
aVGROOVY-8179
p548
aVGROOVY-8178
p549
aVGROOVY-8177
p550
aVGROOVY-8176
p551
aVGROOVY-8175
p552
aVGROOVY-8174
p553
aVGROOVY-8173
p554
aVGROOVY-8172
p555
aVGROOVY-8171
p556
aVGROOVY-8170
p557
aVGROOVY-8169
p558
aVGROOVY-8168
p559
aVGROOVY-8167
p560
aVGROOVY-8166
p561
aVGROOVY-8165
p562
aVGROOVY-8164
p563
aVGROOVY-8163
p564
aVGROOVY-8162
p565
aVGROOVY-8161
p566
aVGROOVY-8160
p567
aVGROOVY-8159
p568
aVGROOVY-8158
p569
aVGROOVY-8157
p570
aVGROOVY-8156
p571
aVGROOVY-8155
p572
aVGROOVY-8154
p573
aVGROOVY-8153
p574
aVGROOVY-8152
p575
aVGROOVY-8151
p576
aVGROOVY-8150
p577
aVGROOVY-8149
p578
aVGROOVY-8148
p579
aVGROOVY-8147
p580
aVGROOVY-8146
p581
aVGROOVY-8145
p582
aVGROOVY-8144
p583
aVGROOVY-8143
p584
aVGROOVY-8142
p585
aVGROOVY-8141
p586
aVGROOVY-8140
p587
aVGROOVY-8139
p588
aVGROOVY-8138
p589
aVGROOVY-8137
p590
aVGROOVY-8136
p591
aVGROOVY-8135
p592
aVGROOVY-8134
p593
aVGROOVY-8133
p594
aVGROOVY-8132
p595
aVGROOVY-8131
p596
aVGROOVY-8130
p597
aVGROOVY-8129
p598
aVGROOVY-8128
p599
aVGROOVY-8127
p600
aVGROOVY-8126
p601
aVGROOVY-8125
p602
aVGROOVY-8124
p603
aVGROOVY-8123
p604
aVGROOVY-8122
p605
aVGROOVY-8121
p606
aVGROOVY-8120
p607
aVGROOVY-8119
p608
aVGROOVY-8118
p609
aVGROOVY-8117
p610
aVGROOVY-8116
p611
aVGROOVY-8115
p612
aVGROOVY-8114
p613
aVGROOVY-8113
p614
aVGROOVY-8112
p615
aVGROOVY-8111
p616
aVGROOVY-8110
p617
aVGROOVY-8109
p618
aVGROOVY-8108
p619
aVGROOVY-8107
p620
aVGROOVY-8106
p621
aVGROOVY-8105
p622
aVGROOVY-8104
p623
aVGROOVY-8103
p624
aVGROOVY-8102
p625
aVGROOVY-8101
p626
aVGROOVY-8100
p627
aVGROOVY-8099
p628
aVGROOVY-8098
p629
aVGROOVY-8097
p630
aVGROOVY-8096
p631
aVGROOVY-8095
p632
aVGROOVY-8094
p633
aVGROOVY-8093
p634
aVGROOVY-8092
p635
aVGROOVY-8091
p636
aVGROOVY-8090
p637
aVGROOVY-8089
p638
aVGROOVY-8088
p639
aVGROOVY-8087
p640
aVGROOVY-8086
p641
aVGROOVY-8085
p642
aVGROOVY-8084
p643
aVGROOVY-8083
p644
aVGROOVY-8082
p645
aVGROOVY-8081
p646
aVGROOVY-8080
p647
aVGROOVY-8079
p648
aVGROOVY-8078
p649
aVGROOVY-8077
p650
aVGROOVY-8076
p651
aVGROOVY-8075
p652
aVGROOVY-8074
p653
aVGROOVY-8073
p654
aVGROOVY-8072
p655
aVGROOVY-8071
p656
aVGROOVY-8070
p657
aVGROOVY-8069
p658
aVGROOVY-8068
p659
aVGROOVY-8067
p660
aVGROOVY-8066
p661
aVGROOVY-8065
p662
aVGROOVY-8064
p663
aVGROOVY-8063
p664
aVGROOVY-8062
p665
aVGROOVY-8061
p666
aVGROOVY-8060
p667
aVGROOVY-8059
p668
aVGROOVY-8058
p669
aVGROOVY-8057
p670
aVGROOVY-8056
p671
aVGROOVY-8055
p672
aVGROOVY-8054
p673
aVGROOVY-8053
p674
aVGROOVY-8052
p675
aVGROOVY-8051
p676
aVGROOVY-8050
p677
aVGROOVY-8049
p678
aVGROOVY-8048
p679
aVGROOVY-8047
p680
aVGROOVY-8046
p681
aVGROOVY-8045
p682
aVGROOVY-8044
p683
aVGROOVY-8043
p684
aVGROOVY-8042
p685
aVGROOVY-8041
p686
aVGROOVY-8040
p687
aVGROOVY-8039
p688
aVGROOVY-8038
p689
aVGROOVY-8037
p690
aVGROOVY-8036
p691
aVGROOVY-8035
p692
aVGROOVY-8034
p693
aVGROOVY-8033
p694
aVGROOVY-8032
p695
aVGROOVY-8031
p696
aVGROOVY-8030
p697
aVGROOVY-8029
p698
aVGROOVY-8028
p699
aVGROOVY-8027
p700
aVGROOVY-8026
p701
aVGROOVY-8025
p702
aVGROOVY-8024
p703
aVGROOVY-8023
p704
aVGROOVY-8022
p705
aVGROOVY-8021
p706
aVGROOVY-8020
p707
aVGROOVY-8019
p708
aVGROOVY-8018
p709
aVGROOVY-8017
p710
aVGROOVY-8016
p711
aVGROOVY-8015
p712
aVGROOVY-8014
p713
aVGROOVY-8013
p714
aVGROOVY-8012
p715
aVGROOVY-8011
p716
aVGROOVY-8010
p717
aVGROOVY-8009
p718
aVGROOVY-8008
p719
aVGROOVY-8007
p720
aVGROOVY-8006
p721
aVGROOVY-8005
p722
aVGROOVY-8004
p723
aVGROOVY-8003
p724
aVGROOVY-8002
p725
aVGROOVY-8001
p726
aVGROOVY-8000
p727
aVGROOVY-7999
p728
aVGROOVY-7998
p729
aVGROOVY-7997
p730
aVGROOVY-7996
p731
aVGROOVY-7995
p732
aVGROOVY-7994
p733
aVGROOVY-7993
p734
aVGROOVY-7992
p735
aVGROOVY-7991
p736
aVGROOVY-7990
p737
aVGROOVY-7989
p738
aVGROOVY-7988
p739
aVGROOVY-7987
p740
aVGROOVY-7986
p741
aVGROOVY-7985
p742
aVGROOVY-7984
p743
aVGROOVY-7983
p744
aVGROOVY-7982
p745
aVGROOVY-7981
p746
aVGROOVY-7980
p747
aVGROOVY-7979
p748
aVGROOVY-7978
p749
aVGROOVY-7977
p750
aVGROOVY-7976
p751
aVGROOVY-7975
p752
aVGROOVY-7974
p753
aVGROOVY-7973
p754
aVGROOVY-7972
p755
aVGROOVY-7971
p756
aVGROOVY-7970
p757
aVGROOVY-7969
p758
aVGROOVY-7968
p759
aVGROOVY-7967
p760
aVGROOVY-7966
p761
aVGROOVY-7965
p762
aVGROOVY-7964
p763
aVGROOVY-7963
p764
aVGROOVY-7962
p765
aVGROOVY-7961
p766
aVGROOVY-7960
p767
aVGROOVY-7959
p768
aVGROOVY-7958
p769
aVGROOVY-7957
p770
aVGROOVY-7956
p771
aVGROOVY-7955
p772
aVGROOVY-7954
p773
aVGROOVY-7953
p774
aVGROOVY-7952
p775
aVGROOVY-7951
p776
aVGROOVY-7950
p777
aVGROOVY-7949
p778
aVGROOVY-7948
p779
aVGROOVY-7947
p780
aVGROOVY-7946
p781
aVGROOVY-7945
p782
aVGROOVY-7944
p783
aVGROOVY-7943
p784
aVGROOVY-7942
p785
aVGROOVY-7941
p786
aVGROOVY-7940
p787
aVGROOVY-7939
p788
aVGROOVY-7938
p789
aVGROOVY-7937
p790
aVGROOVY-7936
p791
aVGROOVY-7935
p792
aVGROOVY-7934
p793
aVGROOVY-7933
p794
aVGROOVY-7932
p795
aVGROOVY-7931
p796
aVGROOVY-7930
p797
aVGROOVY-7929
p798
aVGROOVY-7928
p799
aVGROOVY-7927
p800
aVGROOVY-7926
p801
aVGROOVY-7925
p802
aVGROOVY-7924
p803
aVGROOVY-7923
p804
aVGROOVY-7922
p805
aVGROOVY-7921
p806
aVGROOVY-7920
p807
aVGROOVY-7919
p808
aVGROOVY-7918
p809
aVGROOVY-7917
p810
aVGROOVY-7916
p811
aVGROOVY-7915
p812
aVGROOVY-7914
p813
aVGROOVY-7913
p814
aVGROOVY-7912
p815
aVGROOVY-7911
p816
aVGROOVY-7910
p817
aVGROOVY-7909
p818
aVGROOVY-7908
p819
aVGROOVY-7907
p820
aVGROOVY-7906
p821
aVGROOVY-7905
p822
aVGROOVY-7904
p823
aVGROOVY-7903
p824
aVGROOVY-7902
p825
aVGROOVY-7901
p826
aVGROOVY-7900
p827
aVGROOVY-7899
p828
aVGROOVY-7898
p829
aVGROOVY-7897
p830
aVGROOVY-7896
p831
aVGROOVY-7895
p832
aVGROOVY-7894
p833
aVGROOVY-7893
p834
aVGROOVY-7892
p835
aVGROOVY-7891
p836
aVGROOVY-7890
p837
aVGROOVY-7889
p838
aVGROOVY-7888
p839
aVGROOVY-7887
p840
aVGROOVY-7886
p841
aVGROOVY-7885
p842
aVGROOVY-7884
p843
aVGROOVY-7883
p844
aVGROOVY-7882
p845
aVGROOVY-7881
p846
aVGROOVY-7880
p847
aVGROOVY-7879
p848
aVGROOVY-7878
p849
aVGROOVY-7877
p850
aVGROOVY-7876
p851
aVGROOVY-7875
p852
aVGROOVY-7874
p853
aVGROOVY-7873
p854
aVGROOVY-7872
p855
aVGROOVY-7871
p856
aVGROOVY-7870
p857
aVGROOVY-7869
p858
aVGROOVY-7868
p859
aVGROOVY-7867
p860
aVGROOVY-7866
p861
aVGROOVY-7865
p862
aVGROOVY-7864
p863
aVGROOVY-7863
p864
aVGROOVY-7862
p865
aVGROOVY-7861
p866
aVGROOVY-7860
p867
aVGROOVY-7859
p868
aVGROOVY-7858
p869
aVGROOVY-7857
p870
aVGROOVY-7856
p871
aVGROOVY-7855
p872
aVGROOVY-7854
p873
aVGROOVY-7853
p874
aVGROOVY-7852
p875
aVGROOVY-7851
p876
aVGROOVY-7850
p877
aVGROOVY-7849
p878
aVGROOVY-7848
p879
aVGROOVY-7847
p880
aVGROOVY-7846
p881
aVGROOVY-7845
p882
aVGROOVY-7844
p883
aVGROOVY-7843
p884
aVGROOVY-7842
p885
aVGROOVY-7841
p886
aVGROOVY-7840
p887
aVGROOVY-7839
p888
aVGROOVY-7837
p889
aVGROOVY-7836
p890
aVGROOVY-7835
p891
aVGROOVY-7834
p892
aVGROOVY-7833
p893
aVGROOVY-7832
p894
aVGROOVY-7831
p895
aVGROOVY-7830
p896
aVGROOVY-7829
p897
aVGROOVY-7828
p898
aVGROOVY-7827
p899
aVGROOVY-7826
p900
aVGROOVY-7825
p901
aVGROOVY-7824
p902
aVGROOVY-7823
p903
aVGROOVY-7822
p904
aVGROOVY-7821
p905
aVGROOVY-7820
p906
aVGROOVY-7819
p907
aVGROOVY-7818
p908
aVGROOVY-7817
p909
aVGROOVY-7816
p910
aVGROOVY-7815
p911
aVGROOVY-7814
p912
aVGROOVY-7813
p913
aVGROOVY-7812
p914
aVGROOVY-7811
p915
aVGROOVY-7810
p916
aVGROOVY-7809
p917
aVGROOVY-7808
p918
aVGROOVY-7807
p919
aVGROOVY-7806
p920
aVGROOVY-7805
p921
aVGROOVY-7804
p922
aVGROOVY-7803
p923
aVGROOVY-7802
p924
aVGROOVY-7801
p925
aVGROOVY-7800
p926
aVGROOVY-7799
p927
aVGROOVY-7798
p928
aVGROOVY-7797
p929
aVGROOVY-7796
p930
aVGROOVY-7795
p931
aVGROOVY-7794
p932
aVGROOVY-7793
p933
aVGROOVY-7792
p934
aVGROOVY-7791
p935
aVGROOVY-7790
p936
aVGROOVY-7789
p937
aVGROOVY-7788
p938
aVGROOVY-7787
p939
aVGROOVY-7786
p940
aVGROOVY-7785
p941
aVGROOVY-7784
p942
aVGROOVY-7783
p943
aVGROOVY-7782
p944
aVGROOVY-7781
p945
aVGROOVY-7780
p946
aVGROOVY-7779
p947
aVGROOVY-7778
p948
aVGROOVY-7777
p949
aVGROOVY-7776
p950
aVGROOVY-7775
p951
aVGROOVY-7774
p952
aVGROOVY-7773
p953
aVGROOVY-7772
p954
aVGROOVY-7771
p955
aVGROOVY-7770
p956
aVGROOVY-7769
p957
aVGROOVY-7768
p958
aVGROOVY-7767
p959
aVGROOVY-7766
p960
aVGROOVY-7765
p961
aVGROOVY-7764
p962
aVGROOVY-7763
p963
aVGROOVY-7762
p964
aVGROOVY-7761
p965
aVGROOVY-7760
p966
aVGROOVY-7759
p967
aVGROOVY-7758
p968
aVGROOVY-7757
p969
aVGROOVY-7756
p970
aVGROOVY-7755
p971
aVGROOVY-7754
p972
aVGROOVY-7753
p973
aVGROOVY-7752
p974
aVGROOVY-7751
p975
aVGROOVY-7750
p976
aVGROOVY-7749
p977
aVGROOVY-7748
p978
aVGROOVY-7747
p979
aVGROOVY-7746
p980
aVGROOVY-7745
p981
aVGROOVY-7744
p982
aVGROOVY-7743
p983
aVGROOVY-7742
p984
aVGROOVY-7741
p985
aVGROOVY-7740
p986
aVGROOVY-7739
p987
aVGROOVY-7738
p988
aVGROOVY-7737
p989
aVGROOVY-7736
p990
aVGROOVY-7735
p991
aVGROOVY-7734
p992
aVGROOVY-7733
p993
aVGROOVY-7732
p994
aVGROOVY-7731
p995
aVGROOVY-7730
p996
aVGROOVY-7729
p997
aVGROOVY-7728
p998
aVGROOVY-7727
p999
aVGROOVY-7726
p1000
aVGROOVY-7725
p1001
aVGROOVY-7724
p1002
aVGROOVY-7723
p1003
aVGROOVY-7722
p1004
aVGROOVY-7721
p1005
aVGROOVY-7720
p1006
aVGROOVY-7719
p1007
aVGROOVY-7718
p1008
aVGROOVY-7717
p1009
aVGROOVY-7716
p1010
aVGROOVY-7715
p1011
aVGROOVY-7714
p1012
aVGROOVY-7713
p1013
aVGROOVY-7712
p1014
aVGROOVY-7711
p1015
aVGROOVY-7710
p1016
aVGROOVY-7709
p1017
aVGROOVY-7708
p1018
aVGROOVY-7707
p1019
aVGROOVY-7706
p1020
aVGROOVY-7705
p1021
aVGROOVY-7704
p1022
aVGROOVY-7703
p1023
aVGROOVY-7702
p1024
aVGROOVY-7701
p1025
aVGROOVY-7700
p1026
aVGROOVY-7699
p1027
aVGROOVY-7698
p1028
aVGROOVY-7697
p1029
aVGROOVY-7696
p1030
aVGROOVY-7695
p1031
aVGROOVY-7694
p1032
aVGROOVY-7693
p1033
aVGROOVY-7692
p1034
aVGROOVY-7691
p1035
aVGROOVY-7690
p1036
aVGROOVY-7689
p1037
aVGROOVY-7688
p1038
aVGROOVY-7687
p1039
aVGROOVY-7686
p1040
aVGROOVY-7685
p1041
aVGROOVY-7684
p1042
aVGROOVY-7683
p1043
aVGROOVY-7682
p1044
aVGROOVY-7681
p1045
aVGROOVY-7680
p1046
aVGROOVY-7679
p1047
aVGROOVY-7678
p1048
aVGROOVY-7677
p1049
aVGROOVY-7676
p1050
aVGROOVY-7675
p1051
aVGROOVY-7674
p1052
aVGROOVY-7673
p1053
aVGROOVY-7672
p1054
aVGROOVY-7671
p1055
aVGROOVY-7670
p1056
aVGROOVY-7669
p1057
aVGROOVY-7668
p1058
aVGROOVY-7667
p1059
aVGROOVY-7666
p1060
aVGROOVY-7665
p1061
aVGROOVY-7664
p1062
aVGROOVY-7663
p1063
aVGROOVY-7662
p1064
aVGROOVY-7661
p1065
aVGROOVY-7660
p1066
aVGROOVY-7659
p1067
aVGROOVY-7658
p1068
aVGROOVY-7657
p1069
aVGROOVY-7656
p1070
aVGROOVY-7655
p1071
aVGROOVY-7654
p1072
aVGROOVY-7653
p1073
aVGROOVY-7652
p1074
aVGROOVY-7651
p1075
aVGROOVY-7650
p1076
aVGROOVY-7649
p1077
aVGROOVY-7648
p1078
aVGROOVY-7647
p1079
aVGROOVY-7646
p1080
aVGROOVY-7645
p1081
aVGROOVY-7644
p1082
aVGROOVY-7643
p1083
aVGROOVY-7642
p1084
aVGROOVY-7641
p1085
aVGROOVY-7640
p1086
aVGROOVY-7639
p1087
aVGROOVY-7638
p1088
aVGROOVY-7637
p1089
aVGROOVY-7636
p1090
aVGROOVY-7635
p1091
aVGROOVY-7634
p1092
aVGROOVY-7633
p1093
aVGROOVY-7632
p1094
aVGROOVY-7631
p1095
aVGROOVY-7630
p1096
aVGROOVY-7629
p1097
aVGROOVY-7628
p1098
aVGROOVY-7627
p1099
aVGROOVY-7626
p1100
aVGROOVY-7625
p1101
aVGROOVY-7624
p1102
aVGROOVY-7623
p1103
aVGROOVY-7622
p1104
aVGROOVY-7621
p1105
aVGROOVY-7620
p1106
aVGROOVY-7619
p1107
aVGROOVY-7618
p1108
aVGROOVY-7617
p1109
aVGROOVY-7616
p1110
aVGROOVY-7615
p1111
aVGROOVY-7614
p1112
aVGROOVY-7613
p1113
aVGROOVY-7612
p1114
aVGROOVY-7611
p1115
aVGROOVY-7610
p1116
aVGROOVY-7609
p1117
aVGROOVY-7608
p1118
aVGROOVY-7607
p1119
aVGROOVY-7606
p1120
aVGROOVY-7605
p1121
aVGROOVY-7604
p1122
aVGROOVY-7603
p1123
aVGROOVY-7602
p1124
aVGROOVY-7601
p1125
aVGROOVY-7600
p1126
aVGROOVY-7599
p1127
aVGROOVY-7598
p1128
aVGROOVY-7597
p1129
aVGROOVY-7596
p1130
aVGROOVY-7595
p1131
aVGROOVY-7594
p1132
aVGROOVY-7593
p1133
aVGROOVY-7592
p1134
aVGROOVY-7591
p1135
aVGROOVY-7590
p1136
aVGROOVY-7589
p1137
aVGROOVY-7588
p1138
aVGROOVY-7587
p1139
aVGROOVY-7586
p1140
aVGROOVY-7585
p1141
aVGROOVY-7584
p1142
aVGROOVY-7583
p1143
aVGROOVY-7582
p1144
aVGROOVY-7581
p1145
aVGROOVY-7580
p1146
aVGROOVY-7579
p1147
aVGROOVY-7578
p1148
aVGROOVY-7577
p1149
aVGROOVY-7576
p1150
aVGROOVY-7575
p1151
aVGROOVY-7574
p1152
aVGROOVY-7573
p1153
aVGROOVY-7572
p1154
aVGROOVY-7571
p1155
aVGROOVY-7570
p1156
aVGROOVY-7569
p1157
aVGROOVY-7568
p1158
aVGROOVY-7567
p1159
aVGROOVY-7566
p1160
aVGROOVY-7565
p1161
aVGROOVY-7564
p1162
aVGROOVY-7563
p1163
aVGROOVY-7562
p1164
aVGROOVY-7561
p1165
aVGROOVY-7560
p1166
aVGROOVY-7559
p1167
aVGROOVY-7558
p1168
aVGROOVY-7557
p1169
aVGROOVY-7556
p1170
aVGROOVY-7555
p1171
aVGROOVY-7554
p1172
aVGROOVY-7553
p1173
aVGROOVY-7552
p1174
aVGROOVY-7551
p1175
aVGROOVY-7550
p1176
aVGROOVY-7549
p1177
aVGROOVY-7548
p1178
aVGROOVY-7547
p1179
aVGROOVY-7546
p1180
aVGROOVY-7545
p1181
aVGROOVY-7544
p1182
aVGROOVY-7543
p1183
aVGROOVY-7542
p1184
aVGROOVY-7541
p1185
aVGROOVY-7540
p1186
aVGROOVY-7539
p1187
aVGROOVY-7538
p1188
aVGROOVY-7537
p1189
aVGROOVY-7536
p1190
aVGROOVY-7535
p1191
aVGROOVY-7534
p1192
aVGROOVY-7533
p1193
aVGROOVY-7532
p1194
aVGROOVY-7531
p1195
aVGROOVY-7530
p1196
aVGROOVY-7529
p1197
aVGROOVY-7528
p1198
aVGROOVY-7527
p1199
aVGROOVY-7526
p1200
aVGROOVY-7525
p1201
aVGROOVY-7524
p1202
aVGROOVY-7523
p1203
aVGROOVY-7522
p1204
aVGROOVY-7521
p1205
aVGROOVY-7520
p1206
aVGROOVY-7519
p1207
aVGROOVY-7518
p1208
aVGROOVY-7517
p1209
aVGROOVY-7516
p1210
aVGROOVY-7515
p1211
aVGROOVY-7514
p1212
aVGROOVY-7513
p1213
aVGROOVY-7512
p1214
aVGROOVY-7511
p1215
aVGROOVY-7510
p1216
aVGROOVY-7509
p1217
aVGROOVY-7508
p1218
aVGROOVY-7507
p1219
aVGROOVY-7506
p1220
aVGROOVY-7505
p1221
aVGROOVY-7504
p1222
aVGROOVY-7503
p1223
aVGROOVY-7502
p1224
aVGROOVY-7501
p1225
aVGROOVY-7500
p1226
aVGROOVY-7499
p1227
aVGROOVY-7498
p1228
aVGROOVY-7497
p1229
aVGROOVY-7496
p1230
aVGROOVY-7495
p1231
aVGROOVY-7494
p1232
aVGROOVY-7493
p1233
aVGROOVY-7492
p1234
aVGROOVY-7491
p1235
aVGROOVY-7490
p1236
aVGROOVY-7489
p1237
aVGROOVY-7488
p1238
aVGROOVY-7487
p1239
aVGROOVY-7486
p1240
aVGROOVY-7485
p1241
aVGROOVY-7484
p1242
aVGROOVY-7483
p1243
aVGROOVY-7482
p1244
aVGROOVY-7481
p1245
aVGROOVY-7480
p1246
aVGROOVY-7479
p1247
aVGROOVY-7478
p1248
aVGROOVY-7477
p1249
aVGROOVY-7476
p1250
aVGROOVY-7475
p1251
aVGROOVY-7474
p1252
aVGROOVY-7473
p1253
aVGROOVY-7472
p1254
aVGROOVY-7471
p1255
aVGROOVY-7470
p1256
aVGROOVY-7469
p1257
aVGROOVY-7468
p1258
aVGROOVY-7467
p1259
aVGROOVY-7466
p1260
aVGROOVY-7465
p1261
aVGROOVY-7464
p1262
aVGROOVY-7463
p1263
aVGROOVY-7462
p1264
aVGROOVY-7461
p1265
aVGROOVY-7460
p1266
aVGROOVY-7459
p1267
aVGROOVY-7458
p1268
aVGROOVY-7457
p1269
aVGROOVY-7456
p1270
aVGROOVY-7455
p1271
aVGROOVY-7454
p1272
aVGROOVY-7453
p1273
aVGROOVY-7452
p1274
aVGROOVY-7451
p1275
aVGROOVY-7450
p1276
aVGROOVY-7449
p1277
aVGROOVY-7448
p1278
aVGROOVY-7447
p1279
aVGROOVY-7446
p1280
aVGROOVY-7445
p1281
aVGROOVY-7444
p1282
aVGROOVY-7443
p1283
aVGROOVY-7442
p1284
aVGROOVY-7441
p1285
aVGROOVY-7440
p1286
aVGROOVY-7439
p1287
aVGROOVY-7438
p1288
aVGROOVY-7437
p1289
aVGROOVY-7436
p1290
aVGROOVY-7435
p1291
aVGROOVY-7434
p1292
aVGROOVY-7433
p1293
aVGROOVY-7432
p1294
aVGROOVY-7431
p1295
aVGROOVY-7430
p1296
aVGROOVY-7429
p1297
aVGROOVY-7428
p1298
aVGROOVY-7427
p1299
aVGROOVY-7426
p1300
aVGROOVY-7425
p1301
aVGROOVY-7424
p1302
aVGROOVY-7423
p1303
aVGROOVY-7422
p1304
aVGROOVY-7421
p1305
aVGROOVY-7420
p1306
aVGROOVY-7419
p1307
aVGROOVY-7418
p1308
aVGROOVY-7417
p1309
aVGROOVY-7416
p1310
aVGROOVY-7415
p1311
aVGROOVY-7414
p1312
aVGROOVY-7413
p1313
aVGROOVY-7412
p1314
aVGROOVY-7411
p1315
aVGROOVY-7410
p1316
aVGROOVY-7409
p1317
aVGROOVY-7408
p1318
aVGROOVY-7407
p1319
aVGROOVY-7406
p1320
aVGROOVY-7405
p1321
aVGROOVY-7404
p1322
aVGROOVY-7403
p1323
aVGROOVY-7402
p1324
aVGROOVY-7401
p1325
aVGROOVY-7400
p1326
aVGROOVY-7399
p1327
aVGROOVY-7398
p1328
aVGROOVY-7397
p1329
aVGROOVY-7396
p1330
aVGROOVY-7395
p1331
aVGROOVY-7394
p1332
aVGROOVY-7393
p1333
aVGROOVY-7392
p1334
aVGROOVY-7391
p1335
aVGROOVY-7390
p1336
aVGROOVY-7389
p1337
aVGROOVY-7388
p1338
aVGROOVY-7387
p1339
aVGROOVY-7386
p1340
aVGROOVY-7385
p1341
aVGROOVY-7384
p1342
aVGROOVY-7383
p1343
aVGROOVY-7382
p1344
aVGROOVY-7381
p1345
aVGROOVY-7380
p1346
aVGROOVY-7379
p1347
aVGROOVY-7378
p1348
aVGROOVY-7377
p1349
aVGROOVY-7376
p1350
aVGROOVY-7375
p1351
aVGROOVY-7374
p1352
aVGROOVY-7373
p1353
aVGROOVY-7372
p1354
aVGROOVY-7371
p1355
aVGROOVY-7370
p1356
aVGROOVY-7369
p1357
aVGROOVY-7368
p1358
aVGROOVY-7367
p1359
aVGROOVY-7366
p1360
aVGROOVY-7365
p1361
aVGROOVY-7364
p1362
aVGROOVY-7363
p1363
aVGROOVY-7362
p1364
aVGROOVY-7361
p1365
aVGROOVY-7360
p1366
aVGROOVY-7359
p1367
aVGROOVY-7358
p1368
aVGROOVY-7357
p1369
aVGROOVY-7356
p1370
aVGROOVY-7355
p1371
aVGROOVY-7354
p1372
aVGROOVY-7353
p1373
aVGROOVY-7352
p1374
aVGROOVY-7351
p1375
aVGROOVY-7350
p1376
aVGROOVY-7349
p1377
aVGROOVY-7348
p1378
aVGROOVY-7347
p1379
aVGROOVY-7346
p1380
aVGROOVY-7345
p1381
aVGROOVY-7344
p1382
aVGROOVY-7343
p1383
aVGROOVY-7342
p1384
aVGROOVY-7341
p1385
aVGROOVY-7340
p1386
aVGROOVY-7339
p1387
aVGROOVY-7338
p1388
aVGROOVY-7337
p1389
aVGROOVY-7336
p1390
aVGROOVY-7335
p1391
aVGROOVY-7334
p1392
aVGROOVY-7333
p1393
aVGROOVY-7332
p1394
aVGROOVY-7331
p1395
aVGROOVY-7330
p1396
aVGROOVY-7329
p1397
aVGROOVY-7328
p1398
aVGROOVY-7327
p1399
aVGROOVY-7326
p1400
aVGROOVY-7325
p1401
aVGROOVY-7324
p1402
aVGROOVY-7323
p1403
aVGROOVY-7322
p1404
aVGROOVY-7321
p1405
aVGROOVY-7320
p1406
aVGROOVY-7319
p1407
aVGROOVY-7318
p1408
aVGROOVY-7317
p1409
aVGROOVY-7316
p1410
aVGROOVY-7315
p1411
aVGROOVY-7314
p1412
aVGROOVY-7313
p1413
aVGROOVY-7312
p1414
aVGROOVY-7311
p1415
aVGROOVY-7310
p1416
aVGROOVY-7309
p1417
aVGROOVY-7308
p1418
aVGROOVY-7307
p1419
aVGROOVY-7306
p1420
aVGROOVY-7305
p1421
aVGROOVY-7304
p1422
aVGROOVY-7303
p1423
aVGROOVY-7302
p1424
aVGROOVY-7301
p1425
aVGROOVY-7300
p1426
aVGROOVY-7299
p1427
aVGROOVY-7298
p1428
aVGROOVY-7297
p1429
aVGROOVY-7296
p1430
aVGROOVY-7295
p1431
aVGROOVY-7294
p1432
aVGROOVY-7293
p1433
aVGROOVY-7292
p1434
aVGROOVY-7291
p1435
aVGROOVY-7290
p1436
aVGROOVY-7289
p1437
aVGROOVY-7288
p1438
aVGROOVY-7287
p1439
aVGROOVY-7286
p1440
aVGROOVY-7285
p1441
aVGROOVY-7284
p1442
aVGROOVY-7283
p1443
aVGROOVY-7282
p1444
aVGROOVY-7281
p1445
aVGROOVY-7280
p1446
aVGROOVY-7279
p1447
aVGROOVY-7278
p1448
aVGROOVY-7277
p1449
aVGROOVY-7276
p1450
aVGROOVY-7275
p1451
aVGROOVY-7274
p1452
aVGROOVY-7273
p1453
aVGROOVY-7272
p1454
aVGROOVY-7271
p1455
aVGROOVY-7270
p1456
aVGROOVY-7269
p1457
aVGROOVY-7268
p1458
aVGROOVY-7267
p1459
aVGROOVY-7266
p1460
aVGROOVY-7265
p1461
aVGROOVY-7264
p1462
aVGROOVY-7263
p1463
aVGROOVY-7262
p1464
aVGROOVY-7261
p1465
aVGROOVY-7260
p1466
aVGROOVY-7259
p1467
aVGROOVY-7258
p1468
aVGROOVY-7257
p1469
aVGROOVY-7256
p1470
aVGROOVY-7255
p1471
aVGROOVY-7254
p1472
aVGROOVY-7253
p1473
aVGROOVY-7252
p1474
aVGROOVY-7251
p1475
aVGROOVY-7249
p1476
aVGROOVY-7248
p1477
aVGROOVY-7247
p1478
aVGROOVY-7246
p1479
aVGROOVY-7245
p1480
aVGROOVY-7244
p1481
aVGROOVY-7243
p1482
aVGROOVY-7242
p1483
aVGROOVY-7241
p1484
aVGROOVY-7240
p1485
aVGROOVY-7239
p1486
aVGROOVY-7238
p1487
aVGROOVY-7237
p1488
aVGROOVY-7236
p1489
aVGROOVY-7235
p1490
aVGROOVY-7234
p1491
aVGROOVY-7233
p1492
aVGROOVY-7232
p1493
aVGROOVY-7231
p1494
aVGROOVY-7230
p1495
aVGROOVY-7229
p1496
aVGROOVY-7228
p1497
aVGROOVY-7227
p1498
aVGROOVY-7226
p1499
aVGROOVY-7225
p1500
aVGROOVY-7224
p1501
aVGROOVY-7223
p1502
aVGROOVY-7222
p1503
aVGROOVY-7221
p1504
aVGROOVY-7220
p1505
aVGROOVY-7219
p1506
aVGROOVY-7218
p1507
aVGROOVY-7217
p1508
aVGROOVY-7216
p1509
aVGROOVY-7215
p1510
aVGROOVY-7214
p1511
aVGROOVY-7213
p1512
aVGROOVY-7212
p1513
aVGROOVY-7211
p1514
aVGROOVY-7210
p1515
aVGROOVY-7209
p1516
aVGROOVY-7208
p1517
aVGROOVY-7207
p1518
aVGROOVY-7206
p1519
aVGROOVY-7205
p1520
aVGROOVY-7204
p1521
aVGROOVY-7203
p1522
aVGROOVY-7202
p1523
aVGROOVY-7201
p1524
aVGROOVY-7200
p1525
aVGROOVY-7199
p1526
aVGROOVY-7198
p1527
aVGROOVY-7197
p1528
aVGROOVY-7196
p1529
aVGROOVY-7195
p1530
aVGROOVY-7194
p1531
aVGROOVY-7193
p1532
aVGROOVY-7192
p1533
aVGROOVY-7191
p1534
aVGROOVY-7190
p1535
aVGROOVY-7189
p1536
aVGROOVY-7188
p1537
aVGROOVY-7187
p1538
aVGROOVY-7186
p1539
aVGROOVY-7185
p1540
aVGROOVY-7184
p1541
aVGROOVY-7183
p1542
aVGROOVY-7182
p1543
aVGROOVY-7181
p1544
aVGROOVY-7180
p1545
aVGROOVY-7179
p1546
aVGROOVY-7178
p1547
aVGROOVY-7177
p1548
aVGROOVY-7176
p1549
aVGROOVY-7175
p1550
aVGROOVY-7174
p1551
aVGROOVY-7173
p1552
aVGROOVY-7172
p1553
aVGROOVY-7171
p1554
aVGROOVY-7170
p1555
aVGROOVY-7169
p1556
aVGROOVY-7168
p1557
aVGROOVY-7167
p1558
aVGROOVY-7166
p1559
aVGROOVY-7165
p1560
aVGROOVY-7164
p1561
aVGROOVY-7163
p1562
aVGROOVY-7162
p1563
aVGROOVY-7161
p1564
aVGROOVY-7160
p1565
aVGROOVY-7159
p1566
aVGROOVY-7158
p1567
aVGROOVY-7157
p1568
aVGROOVY-7156
p1569
aVGROOVY-7155
p1570
aVGROOVY-7154
p1571
aVGROOVY-7153
p1572
aVGROOVY-7152
p1573
aVGROOVY-7151
p1574
aVGROOVY-7150
p1575
aVGROOVY-7149
p1576
aVGROOVY-7148
p1577
aVGROOVY-7147
p1578
aVGROOVY-7146
p1579
aVGROOVY-7145
p1580
aVGROOVY-7144
p1581
aVGROOVY-7143
p1582
aVGROOVY-7142
p1583
aVGROOVY-7141
p1584
aVGROOVY-7140
p1585
aVGROOVY-7139
p1586
aVGROOVY-7138
p1587
aVGROOVY-7137
p1588
aVGROOVY-7136
p1589
aVGROOVY-7135
p1590
aVGROOVY-7134
p1591
aVGROOVY-7133
p1592
aVGROOVY-7132
p1593
aVGROOVY-7131
p1594
aVGROOVY-7130
p1595
aVGROOVY-7129
p1596
aVGROOVY-7128
p1597
aVGROOVY-7127
p1598
aVGROOVY-7126
p1599
aVGROOVY-7125
p1600
aVGROOVY-7124
p1601
aVGROOVY-7123
p1602
aVGROOVY-7122
p1603
aVGROOVY-7121
p1604
aVGROOVY-7120
p1605
aVGROOVY-7119
p1606
aVGROOVY-7118
p1607
aVGROOVY-7117
p1608
aVGROOVY-7116
p1609
aVGROOVY-7115
p1610
aVGROOVY-7114
p1611
aVGROOVY-7113
p1612
aVGROOVY-7112
p1613
aVGROOVY-7111
p1614
aVGROOVY-7110
p1615
aVGROOVY-7109
p1616
aVGROOVY-7108
p1617
aVGROOVY-7107
p1618
aVGROOVY-7106
p1619
aVGROOVY-7105
p1620
aVGROOVY-7104
p1621
aVGROOVY-7103
p1622
aVGROOVY-7102
p1623
aVGROOVY-7101
p1624
aVGROOVY-7100
p1625
aVGROOVY-7099
p1626
aVGROOVY-7098
p1627
aVGROOVY-7097
p1628
aVGROOVY-7096
p1629
aVGROOVY-7095
p1630
aVGROOVY-7094
p1631
aVGROOVY-7093
p1632
aVGROOVY-7092
p1633
aVGROOVY-7091
p1634
aVGROOVY-7090
p1635
aVGROOVY-7089
p1636
aVGROOVY-7088
p1637
aVGROOVY-7087
p1638
aVGROOVY-7086
p1639
aVGROOVY-7085
p1640
aVGROOVY-7084
p1641
aVGROOVY-7083
p1642
aVGROOVY-7082
p1643
aVGROOVY-7081
p1644
aVGROOVY-7080
p1645
aVGROOVY-7079
p1646
aVGROOVY-7078
p1647
aVGROOVY-7077
p1648
aVGROOVY-7076
p1649
aVGROOVY-7075
p1650
aVGROOVY-7074
p1651
aVGROOVY-7073
p1652
aVGROOVY-7072
p1653
aVGROOVY-7071
p1654
aVGROOVY-7070
p1655
aVGROOVY-7069
p1656
aVGROOVY-7068
p1657
aVGROOVY-7067
p1658
aVGROOVY-7066
p1659
aVGROOVY-7065
p1660
aVGROOVY-7064
p1661
aVGROOVY-7063
p1662
aVGROOVY-7062
p1663
aVGROOVY-7061
p1664
aVGROOVY-7060
p1665
aVGROOVY-7059
p1666
aVGROOVY-7058
p1667
aVGROOVY-7057
p1668
aVGROOVY-7056
p1669
aVGROOVY-7055
p1670
aVGROOVY-7054
p1671
aVGROOVY-7053
p1672
aVGROOVY-7052
p1673
aVGROOVY-7051
p1674
aVGROOVY-7050
p1675
aVGROOVY-7049
p1676
aVGROOVY-7048
p1677
aVGROOVY-7047
p1678
aVGROOVY-7046
p1679
aVGROOVY-7045
p1680
aVGROOVY-7044
p1681
aVGROOVY-7043
p1682
aVGROOVY-7042
p1683
aVGROOVY-7041
p1684
aVGROOVY-7040
p1685
aVGROOVY-7039
p1686
aVGROOVY-7038
p1687
aVGROOVY-7037
p1688
aVGROOVY-7036
p1689
aVGROOVY-7035
p1690
aVGROOVY-7034
p1691
aVGROOVY-7033
p1692
aVGROOVY-7032
p1693
aVGROOVY-7031
p1694
aVGROOVY-7030
p1695
aVGROOVY-7029
p1696
aVGROOVY-7028
p1697
aVGROOVY-7027
p1698
aVGROOVY-7026
p1699
aVGROOVY-7025
p1700
aVGROOVY-7024
p1701
aVGROOVY-7023
p1702
aVGROOVY-7022
p1703
aVGROOVY-7021
p1704
aVGROOVY-7020
p1705
aVGROOVY-7019
p1706
aVGROOVY-7018
p1707
aVGROOVY-7017
p1708
aVGROOVY-7016
p1709
aVGROOVY-7015
p1710
aVGROOVY-7014
p1711
aVGROOVY-7013
p1712
aVGROOVY-7012
p1713
aVGROOVY-7011
p1714
aVGROOVY-7010
p1715
aVGROOVY-7009
p1716
aVGROOVY-7008
p1717
aVGROOVY-7007
p1718
aVGROOVY-7006
p1719
aVGROOVY-7005
p1720
aVGROOVY-7004
p1721
aVGROOVY-7003
p1722
aVGROOVY-7002
p1723
aVGROOVY-7001
p1724
aVGROOVY-7000
p1725
aVGROOVY-6999
p1726
aVGROOVY-6998
p1727
aVGROOVY-6997
p1728
aVGROOVY-6996
p1729
aVGROOVY-6995
p1730
aVGROOVY-6994
p1731
aVGROOVY-6993
p1732
aVGROOVY-6992
p1733
aVGROOVY-6991
p1734
aVGROOVY-6990
p1735
aVGROOVY-6989
p1736
aVGROOVY-6988
p1737
aVGROOVY-6987
p1738
aVGROOVY-6986
p1739
aVGROOVY-6985
p1740
aVGROOVY-6984
p1741
aVGROOVY-6983
p1742
aVGROOVY-6982
p1743
aVGROOVY-6981
p1744
aVGROOVY-6980
p1745
aVGROOVY-6979
p1746
aVGROOVY-6978
p1747
aVGROOVY-6977
p1748
aVGROOVY-6976
p1749
aVGROOVY-6975
p1750
aVGROOVY-6974
p1751
aVGROOVY-6973
p1752
aVGROOVY-6972
p1753
aVGROOVY-6971
p1754
aVGROOVY-6970
p1755
aVGROOVY-6969
p1756
aVGROOVY-6968
p1757
aVGROOVY-6967
p1758
aVGROOVY-6966
p1759
aVGROOVY-6965
p1760
aVGROOVY-6964
p1761
aVGROOVY-6963
p1762
aVGROOVY-6962
p1763
aVGROOVY-6961
p1764
aVGROOVY-6960
p1765
aVGROOVY-6959
p1766
aVGROOVY-6958
p1767
aVGROOVY-6957
p1768
aVGROOVY-6956
p1769
aVGROOVY-6955
p1770
aVGROOVY-6954
p1771
aVGROOVY-6953
p1772
aVGROOVY-6952
p1773
aVGROOVY-6951
p1774
aVGROOVY-6950
p1775
aVGROOVY-6949
p1776
aVGROOVY-6948
p1777
aVGROOVY-6947
p1778
aVGROOVY-6946
p1779
aVGROOVY-6945
p1780
aVGROOVY-6944
p1781
aVGROOVY-6943
p1782
aVGROOVY-6942
p1783
aVGROOVY-6941
p1784
aVGROOVY-6940
p1785
aVGROOVY-6939
p1786
aVGROOVY-6938
p1787
aVGROOVY-6937
p1788
aVGROOVY-6936
p1789
aVGROOVY-6935
p1790
aVGROOVY-6934
p1791
aVGROOVY-6933
p1792
aVGROOVY-6932
p1793
aVGROOVY-6931
p1794
aVGROOVY-6930
p1795
aVGROOVY-6929
p1796
aVGROOVY-6928
p1797
aVGROOVY-6927
p1798
aVGROOVY-6926
p1799
aVGROOVY-6925
p1800
aVGROOVY-6924
p1801
aVGROOVY-6923
p1802
aVGROOVY-6922
p1803
aVGROOVY-6921
p1804
aVGROOVY-6920
p1805
aVGROOVY-6919
p1806
aVGROOVY-6918
p1807
aVGROOVY-6917
p1808
aVGROOVY-6916
p1809
aVGROOVY-6915
p1810
aVGROOVY-6914
p1811
aVGROOVY-6913
p1812
aVGROOVY-6912
p1813
aVGROOVY-6911
p1814
aVGROOVY-6910
p1815
aVGROOVY-6909
p1816
aVGROOVY-6908
p1817
aVGROOVY-6907
p1818
aVGROOVY-6906
p1819
aVGROOVY-6905
p1820
aVGROOVY-6904
p1821
aVGROOVY-6903
p1822
aVGROOVY-6902
p1823
aVGROOVY-6901
p1824
aVGROOVY-6900
p1825
aVGROOVY-6899
p1826
aVGROOVY-6898
p1827
aVGROOVY-6897
p1828
aVGROOVY-6896
p1829
aVGROOVY-6895
p1830
aVGROOVY-6894
p1831
aVGROOVY-6893
p1832
aVGROOVY-6892
p1833
aVGROOVY-6891
p1834
aVGROOVY-6890
p1835
aVGROOVY-6889
p1836
aVGROOVY-6888
p1837
aVGROOVY-6887
p1838
aVGROOVY-6886
p1839
aVGROOVY-6885
p1840
aVGROOVY-6884
p1841
aVGROOVY-6883
p1842
aVGROOVY-6882
p1843
aVGROOVY-6881
p1844
aVGROOVY-6880
p1845
aVGROOVY-6879
p1846
aVGROOVY-6878
p1847
aVGROOVY-6877
p1848
aVGROOVY-6876
p1849
aVGROOVY-6875
p1850
aVGROOVY-6874
p1851
aVGROOVY-6873
p1852
aVGROOVY-6872
p1853
aVGROOVY-6871
p1854
aVGROOVY-6870
p1855
aVGROOVY-6869
p1856
aVGROOVY-6868
p1857
aVGROOVY-6867
p1858
aVGROOVY-6866
p1859
aVGROOVY-6865
p1860
aVGROOVY-6864
p1861
aVGROOVY-6863
p1862
aVGROOVY-6862
p1863
aVGROOVY-6861
p1864
aVGROOVY-6860
p1865
aVGROOVY-6859
p1866
aVGROOVY-6858
p1867
aVGROOVY-6857
p1868
aVGROOVY-6856
p1869
aVGROOVY-6855
p1870
aVGROOVY-6854
p1871
aVGROOVY-6853
p1872
aVGROOVY-6852
p1873
aVGROOVY-6851
p1874
aVGROOVY-6850
p1875
aVGROOVY-6849
p1876
aVGROOVY-6848
p1877
aVGROOVY-6847
p1878
aVGROOVY-6846
p1879
aVGROOVY-6845
p1880
aVGROOVY-6844
p1881
aVGROOVY-6843
p1882
aVGROOVY-6842
p1883
aVGROOVY-6841
p1884
aVGROOVY-6840
p1885
aVGROOVY-6839
p1886
aVGROOVY-6838
p1887
aVGROOVY-6837
p1888
aVGROOVY-6836
p1889
aVGROOVY-6835
p1890
aVGROOVY-6834
p1891
aVGROOVY-6833
p1892
aVGROOVY-6832
p1893
aVGROOVY-6831
p1894
aVGROOVY-6830
p1895
aVGROOVY-6829
p1896
aVGROOVY-6828
p1897
aVGROOVY-6827
p1898
aVGROOVY-6826
p1899
aVGROOVY-6825
p1900
aVGROOVY-6824
p1901
aVGROOVY-6823
p1902
aVGROOVY-6822
p1903
aVGROOVY-6821
p1904
aVGROOVY-6820
p1905
aVGROOVY-6819
p1906
aVGROOVY-6818
p1907
aVGROOVY-6817
p1908
aVGROOVY-6816
p1909
aVGROOVY-6815
p1910
aVGROOVY-6814
p1911
aVGROOVY-6813
p1912
aVGROOVY-6812
p1913
aVGROOVY-6811
p1914
aVGROOVY-6810
p1915
aVGROOVY-6809
p1916
aVGROOVY-6808
p1917
aVGROOVY-6807
p1918
aVGROOVY-6806
p1919
aVGROOVY-6805
p1920
aVGROOVY-6804
p1921
aVGROOVY-6803
p1922
aVGROOVY-6802
p1923
aVGROOVY-6801
p1924
aVGROOVY-6800
p1925
aVGROOVY-6799
p1926
aVGROOVY-6798
p1927
aVGROOVY-6797
p1928
aVGROOVY-6796
p1929
aVGROOVY-6795
p1930
aVGROOVY-6794
p1931
aVGROOVY-6793
p1932
aVGROOVY-6792
p1933
aVGROOVY-6791
p1934
aVGROOVY-6790
p1935
aVGROOVY-6789
p1936
aVGROOVY-6788
p1937
aVGROOVY-6787
p1938
aVGROOVY-6786
p1939
aVGROOVY-6785
p1940
aVGROOVY-6784
p1941
aVGROOVY-6783
p1942
aVGROOVY-6782
p1943
aVGROOVY-6781
p1944
aVGROOVY-6780
p1945
aVGROOVY-6779
p1946
aVGROOVY-6778
p1947
aVGROOVY-6777
p1948
aVGROOVY-6776
p1949
aVGROOVY-6775
p1950
aVGROOVY-6774
p1951
aVGROOVY-6773
p1952
aVGROOVY-6772
p1953
aVGROOVY-6771
p1954
aVGROOVY-6770
p1955
aVGROOVY-6769
p1956
aVGROOVY-6768
p1957
aVGROOVY-6767
p1958
aVGROOVY-6766
p1959
aVGROOVY-6765
p1960
aVGROOVY-6764
p1961
aVGROOVY-6763
p1962
aVGROOVY-6762
p1963
aVGROOVY-6761
p1964
aVGROOVY-6760
p1965
aVGROOVY-6759
p1966
aVGROOVY-6758
p1967
aVGROOVY-6757
p1968
aVGROOVY-6756
p1969
aVGROOVY-6755
p1970
aVGROOVY-6754
p1971
aVGROOVY-6753
p1972
aVGROOVY-6752
p1973
aVGROOVY-6751
p1974
aVGROOVY-6750
p1975
aVGROOVY-6749
p1976
aVGROOVY-6748
p1977
aVGROOVY-6747
p1978
aVGROOVY-6746
p1979
aVGROOVY-6745
p1980
aVGROOVY-6744
p1981
aVGROOVY-6743
p1982
aVGROOVY-6742
p1983
aVGROOVY-6741
p1984
aVGROOVY-6740
p1985
aVGROOVY-6739
p1986
aVGROOVY-6738
p1987
aVGROOVY-6737
p1988
aVGROOVY-6736
p1989
aVGROOVY-6735
p1990
aVGROOVY-6734
p1991
aVGROOVY-6733
p1992
aVGROOVY-6732
p1993
aVGROOVY-6731
p1994
aVGROOVY-6730
p1995
aVGROOVY-6729
p1996
aVGROOVY-6728
p1997
aVGROOVY-6727
p1998
aVGROOVY-6726
p1999
aVGROOVY-6725
p2000
aVGROOVY-6724
p2001
aVGROOVY-6723
p2002
aVGROOVY-6722
p2003
aVGROOVY-6721
p2004
aVGROOVY-6720
p2005
aVGROOVY-6719
p2006
aVGROOVY-6718
p2007
aVGROOVY-6717
p2008
aVGROOVY-6716
p2009
aVGROOVY-6715
p2010
aVGROOVY-6714
p2011
aVGROOVY-6713
p2012
aVGROOVY-6712
p2013
aVGROOVY-6711
p2014
aVGROOVY-6710
p2015
aVGROOVY-6709
p2016
aVGROOVY-6708
p2017
aVGROOVY-6707
p2018
aVGROOVY-6706
p2019
aVGROOVY-6705
p2020
aVGROOVY-6704
p2021
aVGROOVY-6703
p2022
aVGROOVY-6702
p2023
aVGROOVY-6701
p2024
aVGROOVY-6700
p2025
aVGROOVY-6699
p2026
aVGROOVY-6698
p2027
aVGROOVY-6697
p2028
aVGROOVY-6696
p2029
aVGROOVY-6695
p2030
aVGROOVY-6694
p2031
aVGROOVY-6693
p2032
aVGROOVY-6692
p2033
aVGROOVY-6691
p2034
aVGROOVY-6690
p2035
aVGROOVY-6689
p2036
aVGROOVY-6688
p2037
aVGROOVY-6687
p2038
aVGROOVY-6686
p2039
aVGROOVY-6685
p2040
aVGROOVY-6684
p2041
aVGROOVY-6683
p2042
aVGROOVY-6682
p2043
aVGROOVY-6681
p2044
aVGROOVY-6680
p2045
aVGROOVY-6679
p2046
aVGROOVY-6678
p2047
aVGROOVY-6677
p2048
aVGROOVY-6676
p2049
aVGROOVY-6675
p2050
aVGROOVY-6674
p2051
aVGROOVY-6673
p2052
aVGROOVY-6672
p2053
aVGROOVY-6671
p2054
aVGROOVY-6670
p2055
aVGROOVY-6669
p2056
aVGROOVY-6668
p2057
aVGROOVY-6667
p2058
aVGROOVY-6666
p2059
aVGROOVY-6665
p2060
aVGROOVY-6664
p2061
aVGROOVY-6663
p2062
aVGROOVY-6662
p2063
aVGROOVY-6661
p2064
aVGROOVY-6660
p2065
aVGROOVY-6659
p2066
aVGROOVY-6658
p2067
aVGROOVY-6657
p2068
aVGROOVY-6656
p2069
aVGROOVY-6655
p2070
aVGROOVY-6654
p2071
aVGROOVY-6653
p2072
aVGROOVY-6652
p2073
aVGROOVY-6651
p2074
aVGROOVY-6650
p2075
aVGROOVY-6649
p2076
aVGROOVY-6648
p2077
aVGROOVY-6647
p2078
aVGROOVY-6646
p2079
aVGROOVY-6645
p2080
aVGROOVY-6644
p2081
aVGROOVY-6643
p2082
aVGROOVY-6642
p2083
aVGROOVY-6641
p2084
aVGROOVY-6640
p2085
aVGROOVY-6639
p2086
aVGROOVY-6638
p2087
aVGROOVY-6637
p2088
aVGROOVY-6636
p2089
aVGROOVY-6635
p2090
aVGROOVY-6634
p2091
aVGROOVY-6633
p2092
aVGROOVY-6632
p2093
aVGROOVY-6631
p2094
aVGROOVY-6630
p2095
aVGROOVY-6629
p2096
aVGROOVY-6628
p2097
aVGROOVY-6627
p2098
aVGROOVY-6626
p2099
aVGROOVY-6625
p2100
aVGROOVY-6624
p2101
aVGROOVY-6623
p2102
aVGROOVY-6622
p2103
aVGROOVY-6621
p2104
aVGROOVY-6620
p2105
aVGROOVY-6619
p2106
aVGROOVY-6618
p2107
aVGROOVY-6617
p2108
aVGROOVY-6616
p2109
aVGROOVY-6615
p2110
aVGROOVY-6614
p2111
aVGROOVY-6613
p2112
aVGROOVY-6612
p2113
aVGROOVY-6611
p2114
aVGROOVY-6610
p2115
aVGROOVY-6609
p2116
aVGROOVY-6608
p2117
aVGROOVY-6607
p2118
aVGROOVY-6606
p2119
aVGROOVY-6605
p2120
aVGROOVY-6604
p2121
aVGROOVY-6603
p2122
aVGROOVY-6602
p2123
aVGROOVY-6601
p2124
aVGROOVY-6600
p2125
aVGROOVY-6599
p2126
aVGROOVY-6598
p2127
aVGROOVY-6597
p2128
aVGROOVY-6596
p2129
aVGROOVY-6595
p2130
aVGROOVY-6594
p2131
aVGROOVY-6593
p2132
aVGROOVY-6592
p2133
aVGROOVY-6591
p2134
aVGROOVY-6590
p2135
aVGROOVY-6589
p2136
aVGROOVY-6588
p2137
aVGROOVY-6587
p2138
aVGROOVY-6586
p2139
aVGROOVY-6585
p2140
aVGROOVY-6584
p2141
aVGROOVY-6583
p2142
aVGROOVY-6582
p2143
aVGROOVY-6581
p2144
aVGROOVY-6580
p2145
aVGROOVY-6579
p2146
aVGROOVY-6578
p2147
aVGROOVY-6577
p2148
aVGROOVY-6576
p2149
aVGROOVY-6575
p2150
aVGROOVY-6574
p2151
aVGROOVY-6573
p2152
aVGROOVY-6572
p2153
aVGROOVY-6571
p2154
aVGROOVY-6570
p2155
aVGROOVY-6569
p2156
aVGROOVY-6568
p2157
aVGROOVY-6567
p2158
aVGROOVY-6566
p2159
aVGROOVY-6565
p2160
aVGROOVY-6564
p2161
aVGROOVY-6563
p2162
aVGROOVY-6562
p2163
aVGROOVY-6561
p2164
aVGROOVY-6560
p2165
aVGROOVY-6559
p2166
aVGROOVY-6558
p2167
aVGROOVY-6557
p2168
aVGROOVY-6556
p2169
aVGROOVY-6555
p2170
aVGROOVY-6554
p2171
aVGROOVY-6553
p2172
aVGROOVY-6552
p2173
aVGROOVY-6551
p2174
aVGROOVY-6550
p2175
aVGROOVY-6549
p2176
aVGROOVY-6548
p2177
aVGROOVY-6547
p2178
aVGROOVY-6546
p2179
aVGROOVY-6545
p2180
aVGROOVY-6544
p2181
aVGROOVY-6543
p2182
aVGROOVY-6542
p2183
aVGROOVY-6541
p2184
aVGROOVY-6540
p2185
aVGROOVY-6539
p2186
aVGROOVY-6538
p2187
aVGROOVY-6537
p2188
aVGROOVY-6536
p2189
aVGROOVY-6535
p2190
aVGROOVY-6534
p2191
aVGROOVY-6533
p2192
aVGROOVY-6532
p2193
aVGROOVY-6531
p2194
aVGROOVY-6530
p2195
aVGROOVY-6529
p2196
aVGROOVY-6528
p2197
aVGROOVY-6527
p2198
aVGROOVY-6526
p2199
aVGROOVY-6525
p2200
aVGROOVY-6524
p2201
aVGROOVY-6523
p2202
aVGROOVY-6522
p2203
aVGROOVY-6521
p2204
aVGROOVY-6520
p2205
aVGROOVY-6519
p2206
aVGROOVY-6518
p2207
aVGROOVY-6517
p2208
aVGROOVY-6516
p2209
aVGROOVY-6515
p2210
aVGROOVY-6514
p2211
aVGROOVY-6513
p2212
aVGROOVY-6512
p2213
aVGROOVY-6511
p2214
aVGROOVY-6510
p2215
aVGROOVY-6509
p2216
aVGROOVY-6508
p2217
aVGROOVY-6507
p2218
aVGROOVY-6506
p2219
aVGROOVY-6505
p2220
aVGROOVY-6504
p2221
aVGROOVY-6503
p2222
aVGROOVY-6502
p2223
aVGROOVY-6501
p2224
aVGROOVY-6500
p2225
aVGROOVY-6499
p2226
aVGROOVY-6498
p2227
aVGROOVY-6497
p2228
aVGROOVY-6496
p2229
aVGROOVY-6495
p2230
aVGROOVY-6494
p2231
aVGROOVY-6493
p2232
aVGROOVY-6492
p2233
aVGROOVY-6491
p2234
aVGROOVY-6490
p2235
aVGROOVY-6489
p2236
aVGROOVY-6488
p2237
aVGROOVY-6487
p2238
aVGROOVY-6486
p2239
aVGROOVY-6485
p2240
aVGROOVY-6484
p2241
aVGROOVY-6483
p2242
aVGROOVY-6482
p2243
aVGROOVY-6481
p2244
aVGROOVY-6480
p2245
aVGROOVY-6479
p2246
aVGROOVY-6478
p2247
aVGROOVY-6477
p2248
aVGROOVY-6476
p2249
aVGROOVY-6475
p2250
aVGROOVY-6474
p2251
aVGROOVY-6473
p2252
aVGROOVY-6472
p2253
aVGROOVY-6471
p2254
aVGROOVY-6470
p2255
aVGROOVY-6469
p2256
aVGROOVY-6468
p2257
aVGROOVY-6467
p2258
aVGROOVY-6466
p2259
aVGROOVY-6465
p2260
aVGROOVY-6464
p2261
aVGROOVY-6463
p2262
aVGROOVY-6462
p2263
aVGROOVY-6461
p2264
aVGROOVY-6460
p2265
aVGROOVY-6459
p2266
aVGROOVY-6458
p2267
aVGROOVY-6457
p2268
aVGROOVY-6456
p2269
aVGROOVY-6455
p2270
aVGROOVY-6454
p2271
aVGROOVY-6453
p2272
aVGROOVY-6452
p2273
aVGROOVY-6451
p2274
aVGROOVY-6450
p2275
aVGROOVY-6449
p2276
aVGROOVY-6448
p2277
aVGROOVY-6447
p2278
aVGROOVY-6446
p2279
aVGROOVY-6445
p2280
aVGROOVY-6444
p2281
aVGROOVY-6443
p2282
aVGROOVY-6442
p2283
aVGROOVY-6441
p2284
aVGROOVY-6440
p2285
aVGROOVY-6439
p2286
aVGROOVY-6438
p2287
aVGROOVY-6437
p2288
aVGROOVY-6436
p2289
aVGROOVY-6435
p2290
aVGROOVY-6434
p2291
aVGROOVY-6433
p2292
aVGROOVY-6432
p2293
aVGROOVY-6431
p2294
aVGROOVY-6430
p2295
aVGROOVY-6429
p2296
aVGROOVY-6428
p2297
aVGROOVY-6427
p2298
aVGROOVY-6426
p2299
aVGROOVY-6425
p2300
aVGROOVY-6424
p2301
aVGROOVY-6423
p2302
aVGROOVY-6422
p2303
aVGROOVY-6421
p2304
aVGROOVY-6420
p2305
aVGROOVY-6419
p2306
aVGROOVY-6418
p2307
aVGROOVY-6417
p2308
aVGROOVY-6416
p2309
aVGROOVY-6415
p2310
aVGROOVY-6414
p2311
aVGROOVY-6413
p2312
aVGROOVY-6412
p2313
aVGROOVY-6411
p2314
aVGROOVY-6410
p2315
aVGROOVY-6409
p2316
aVGROOVY-6408
p2317
aVGROOVY-6407
p2318
aVGROOVY-6406
p2319
aVGROOVY-6405
p2320
aVGROOVY-6404
p2321
aVGROOVY-6403
p2322
aVGROOVY-6402
p2323
aVGROOVY-6401
p2324
aVGROOVY-6400
p2325
aVGROOVY-6399
p2326
aVGROOVY-6398
p2327
aVGROOVY-6397
p2328
aVGROOVY-6396
p2329
aVGROOVY-6395
p2330
aVGROOVY-6394
p2331
aVGROOVY-6393
p2332
aVGROOVY-6392
p2333
aVGROOVY-6391
p2334
aVGROOVY-6390
p2335
aVGROOVY-6389
p2336
aVGROOVY-6388
p2337
aVGROOVY-6387
p2338
aVGROOVY-6386
p2339
aVGROOVY-6385
p2340
aVGROOVY-6384
p2341
aVGROOVY-6383
p2342
aVGROOVY-6382
p2343
aVGROOVY-6381
p2344
aVGROOVY-6380
p2345
aVGROOVY-6379
p2346
aVGROOVY-6378
p2347
aVGROOVY-6377
p2348
aVGROOVY-6376
p2349
aVGROOVY-6375
p2350
aVGROOVY-6374
p2351
aVGROOVY-6373
p2352
aVGROOVY-6372
p2353
aVGROOVY-6371
p2354
aVGROOVY-6370
p2355
aVGROOVY-6369
p2356
aVGROOVY-6368
p2357
aVGROOVY-6367
p2358
aVGROOVY-6366
p2359
aVGROOVY-6365
p2360
aVGROOVY-6364
p2361
aVGROOVY-6363
p2362
aVGROOVY-6362
p2363
aVGROOVY-6361
p2364
aVGROOVY-6360
p2365
aVGROOVY-6359
p2366
aVGROOVY-6358
p2367
aVGROOVY-6357
p2368
aVGROOVY-6356
p2369
aVGROOVY-6355
p2370
aVGROOVY-6354
p2371
aVGROOVY-6353
p2372
aVGROOVY-6352
p2373
aVGROOVY-6351
p2374
aVGROOVY-6350
p2375
aVGROOVY-6349
p2376
aVGROOVY-6348
p2377
aVGROOVY-6347
p2378
aVGROOVY-6346
p2379
aVGROOVY-6345
p2380
aVGROOVY-6344
p2381
aVGROOVY-6343
p2382
aVGROOVY-6342
p2383
aVGROOVY-6341
p2384
aVGROOVY-6340
p2385
aVGROOVY-6339
p2386
aVGROOVY-6338
p2387
aVGROOVY-6337
p2388
aVGROOVY-6336
p2389
aVGROOVY-6335
p2390
aVGROOVY-6334
p2391
aVGROOVY-6333
p2392
aVGROOVY-6332
p2393
aVGROOVY-6331
p2394
aVGROOVY-6330
p2395
aVGROOVY-6329
p2396
aVGROOVY-6328
p2397
aVGROOVY-6327
p2398
aVGROOVY-6326
p2399
aVGROOVY-6325
p2400
aVGROOVY-6324
p2401
aVGROOVY-6323
p2402
aVGROOVY-6322
p2403
aVGROOVY-6321
p2404
aVGROOVY-6320
p2405
aVGROOVY-6319
p2406
aVGROOVY-6318
p2407
aVGROOVY-6317
p2408
aVGROOVY-6316
p2409
aVGROOVY-6315
p2410
aVGROOVY-6314
p2411
aVGROOVY-6313
p2412
aVGROOVY-6312
p2413
aVGROOVY-6311
p2414
aVGROOVY-6310
p2415
aVGROOVY-6309
p2416
aVGROOVY-6308
p2417
aVGROOVY-6307
p2418
aVGROOVY-6306
p2419
aVGROOVY-6305
p2420
aVGROOVY-6304
p2421
aVGROOVY-6303
p2422
aVGROOVY-6302
p2423
aVGROOVY-6301
p2424
aVGROOVY-6300
p2425
aVGROOVY-6299
p2426
aVGROOVY-6298
p2427
aVGROOVY-6297
p2428
aVGROOVY-6296
p2429
aVGROOVY-6295
p2430
aVGROOVY-6294
p2431
aVGROOVY-6293
p2432
aVGROOVY-6292
p2433
aVGROOVY-6291
p2434
aVGROOVY-6290
p2435
aVGROOVY-6289
p2436
aVGROOVY-6288
p2437
aVGROOVY-6287
p2438
aVGROOVY-6286
p2439
aVGROOVY-6285
p2440
aVGROOVY-6284
p2441
aVGROOVY-6283
p2442
aVGROOVY-6282
p2443
aVGROOVY-6281
p2444
aVGROOVY-6280
p2445
aVGROOVY-6279
p2446
aVGROOVY-6278
p2447
aVGROOVY-6277
p2448
aVGROOVY-6276
p2449
aVGROOVY-6275
p2450
aVGROOVY-6274
p2451
aVGROOVY-6273
p2452
aVGROOVY-6272
p2453
aVGROOVY-6271
p2454
aVGROOVY-6270
p2455
aVGROOVY-6269
p2456
aVGROOVY-6268
p2457
aVGROOVY-6267
p2458
aVGROOVY-6266
p2459
aVGROOVY-6264
p2460
aVGROOVY-6263
p2461
aVGROOVY-6262
p2462
aVGROOVY-6261
p2463
aVGROOVY-6260
p2464
aVGROOVY-6259
p2465
aVGROOVY-6258
p2466
aVGROOVY-6257
p2467
aVGROOVY-6256
p2468
aVGROOVY-6255
p2469
aVGROOVY-6254
p2470
aVGROOVY-6253
p2471
aVGROOVY-6252
p2472
aVGROOVY-6251
p2473
aVGROOVY-6250
p2474
aVGROOVY-6249
p2475
aVGROOVY-6248
p2476
aVGROOVY-6247
p2477
aVGROOVY-6246
p2478
aVGROOVY-6245
p2479
aVGROOVY-6244
p2480
aVGROOVY-6243
p2481
aVGROOVY-6242
p2482
aVGROOVY-6241
p2483
aVGROOVY-6240
p2484
aVGROOVY-6239
p2485
aVGROOVY-6238
p2486
aVGROOVY-6237
p2487
aVGROOVY-6236
p2488
aVGROOVY-6235
p2489
aVGROOVY-6234
p2490
aVGROOVY-6233
p2491
aVGROOVY-6232
p2492
aVGROOVY-6231
p2493
aVGROOVY-6230
p2494
aVGROOVY-6229
p2495
aVGROOVY-6228
p2496
aVGROOVY-6227
p2497
aVGROOVY-6226
p2498
aVGROOVY-6225
p2499
aVGROOVY-6224
p2500
aVGROOVY-6223
p2501
aVGROOVY-6222
p2502
aVGROOVY-6221
p2503
aVGROOVY-6220
p2504
aVGROOVY-6219
p2505
aVGROOVY-6218
p2506
aVGROOVY-6217
p2507
aVGROOVY-6216
p2508
aVGROOVY-6215
p2509
aVGROOVY-6214
p2510
aVGROOVY-6213
p2511
aVGROOVY-6212
p2512
aVGROOVY-6211
p2513
aVGROOVY-6210
p2514
aVGROOVY-6209
p2515
aVGROOVY-6208
p2516
aVGROOVY-6207
p2517
aVGROOVY-6206
p2518
aVGROOVY-6205
p2519
aVGROOVY-6204
p2520
aVGROOVY-6203
p2521
aVGROOVY-6202
p2522
aVGROOVY-6201
p2523
aVGROOVY-6200
p2524
aVGROOVY-6199
p2525
aVGROOVY-6198
p2526
aVGROOVY-6197
p2527
aVGROOVY-6196
p2528
aVGROOVY-6195
p2529
aVGROOVY-6194
p2530
aVGROOVY-6193
p2531
aVGROOVY-6192
p2532
aVGROOVY-6191
p2533
aVGROOVY-6190
p2534
aVGROOVY-6189
p2535
aVGROOVY-6188
p2536
aVGROOVY-6187
p2537
aVGROOVY-6186
p2538
aVGROOVY-6185
p2539
aVGROOVY-6184
p2540
aVGROOVY-6183
p2541
aVGROOVY-6182
p2542
aVGROOVY-6181
p2543
aVGROOVY-6180
p2544
aVGROOVY-6179
p2545
aVGROOVY-6178
p2546
aVGROOVY-6177
p2547
aVGROOVY-6176
p2548
aVGROOVY-6175
p2549
aVGROOVY-6174
p2550
aVGROOVY-6173
p2551
aVGROOVY-6172
p2552
aVGROOVY-6171
p2553
aVGROOVY-6170
p2554
aVGROOVY-6169
p2555
aVGROOVY-6168
p2556
aVGROOVY-6167
p2557
aVGROOVY-6166
p2558
aVGROOVY-6165
p2559
aVGROOVY-6164
p2560
aVGROOVY-6163
p2561
aVGROOVY-6162
p2562
aVGROOVY-6161
p2563
aVGROOVY-6160
p2564
aVGROOVY-6159
p2565
aVGROOVY-6158
p2566
aVGROOVY-6157
p2567
aVGROOVY-6156
p2568
aVGROOVY-6155
p2569
aVGROOVY-6154
p2570
aVGROOVY-6153
p2571
aVGROOVY-6152
p2572
aVGROOVY-6151
p2573
aVGROOVY-6150
p2574
aVGROOVY-6149
p2575
aVGROOVY-6148
p2576
aVGROOVY-6147
p2577
aVGROOVY-6146
p2578
aVGROOVY-6145
p2579
aVGROOVY-6144
p2580
aVGROOVY-6143
p2581
aVGROOVY-6142
p2582
aVGROOVY-6141
p2583
aVGROOVY-6140
p2584
aVGROOVY-6139
p2585
aVGROOVY-6138
p2586
aVGROOVY-6137
p2587
aVGROOVY-6136
p2588
aVGROOVY-6135
p2589
aVGROOVY-6134
p2590
aVGROOVY-6133
p2591
aVGROOVY-6132
p2592
aVGROOVY-6131
p2593
aVGROOVY-6130
p2594
aVGROOVY-6129
p2595
aVGROOVY-6128
p2596
aVGROOVY-6127
p2597
aVGROOVY-6126
p2598
aVGROOVY-6125
p2599
aVGROOVY-6124
p2600
aVGROOVY-6123
p2601
aVGROOVY-6122
p2602
aVGROOVY-6121
p2603
aVGROOVY-6120
p2604
aVGROOVY-6119
p2605
aVGROOVY-6118
p2606
aVGROOVY-6117
p2607
aVGROOVY-6116
p2608
aVGROOVY-6115
p2609
aVGROOVY-6114
p2610
aVGROOVY-6113
p2611
aVGROOVY-6112
p2612
aVGROOVY-6111
p2613
aVGROOVY-6110
p2614
aVGROOVY-6109
p2615
aVGROOVY-6108
p2616
aVGROOVY-6107
p2617
aVGROOVY-6106
p2618
aVGROOVY-6105
p2619
aVGROOVY-6104
p2620
aVGROOVY-6103
p2621
aVGROOVY-6102
p2622
aVGROOVY-6101
p2623
aVGROOVY-6100
p2624
aVGROOVY-6099
p2625
aVGROOVY-6098
p2626
aVGROOVY-6097
p2627
aVGROOVY-6096
p2628
aVGROOVY-6095
p2629
aVGROOVY-6094
p2630
aVGROOVY-6093
p2631
aVGROOVY-6092
p2632
aVGROOVY-6091
p2633
aVGROOVY-6090
p2634
aVGROOVY-6089
p2635
aVGROOVY-6088
p2636
aVGROOVY-6087
p2637
aVGROOVY-6086
p2638
aVGROOVY-6085
p2639
aVGROOVY-6084
p2640
aVGROOVY-6083
p2641
aVGROOVY-6082
p2642
aVGROOVY-6081
p2643
aVGROOVY-6080
p2644
aVGROOVY-6078
p2645
aVGROOVY-6077
p2646
aVGROOVY-6076
p2647
aVGROOVY-6075
p2648
aVGROOVY-6074
p2649
aVGROOVY-6073
p2650
aVGROOVY-6072
p2651
aVGROOVY-6071
p2652
aVGROOVY-6070
p2653
aVGROOVY-6069
p2654
aVGROOVY-6068
p2655
aVGROOVY-6067
p2656
aVGROOVY-6066
p2657
aVGROOVY-6065
p2658
aVGROOVY-6064
p2659
aVGROOVY-6063
p2660
aVGROOVY-6062
p2661
aVGROOVY-6061
p2662
aVGROOVY-6060
p2663
aVGROOVY-6059
p2664
aVGROOVY-6058
p2665
aVGROOVY-6057
p2666
aVGROOVY-6056
p2667
aVGROOVY-6055
p2668
aVGROOVY-6054
p2669
aVGROOVY-6053
p2670
aVGROOVY-6052
p2671
aVGROOVY-6051
p2672
aVGROOVY-6050
p2673
aVGROOVY-6049
p2674
aVGROOVY-6048
p2675
aVGROOVY-6047
p2676
aVGROOVY-6046
p2677
aVGROOVY-6045
p2678
aVGROOVY-6044
p2679
aVGROOVY-6043
p2680
aVGROOVY-6042
p2681
aVGROOVY-6041
p2682
aVGROOVY-6040
p2683
aVGROOVY-6039
p2684
aVGROOVY-6038
p2685
aVGROOVY-6037
p2686
aVGROOVY-6036
p2687
aVGROOVY-6035
p2688
aVGROOVY-6034
p2689
aVGROOVY-6033
p2690
aVGROOVY-6032
p2691
aVGROOVY-6031
p2692
aVGROOVY-6030
p2693
aVGROOVY-6029
p2694
aVGROOVY-6028
p2695
aVGROOVY-6027
p2696
aVGROOVY-6026
p2697
aVGROOVY-6025
p2698
aVGROOVY-6024
p2699
aVGROOVY-6023
p2700
aVGROOVY-6022
p2701
aVGROOVY-6021
p2702
aVGROOVY-6020
p2703
aVGROOVY-6019
p2704
aVGROOVY-6018
p2705
aVGROOVY-6017
p2706
aVGROOVY-6016
p2707
aVGROOVY-6015
p2708
aVGROOVY-6014
p2709
aVGROOVY-6013
p2710
aVGROOVY-6012
p2711
aVGROOVY-6011
p2712
aVGROOVY-6010
p2713
aVGROOVY-6009
p2714
aVGROOVY-6008
p2715
aVGROOVY-6007
p2716
aVGROOVY-6006
p2717
aVGROOVY-6005
p2718
aVGROOVY-6004
p2719
aVGROOVY-6003
p2720
aVGROOVY-6002
p2721
aVGROOVY-6001
p2722
aVGROOVY-6000
p2723
aVGROOVY-5999
p2724
aVGROOVY-5998
p2725
aVGROOVY-5997
p2726
aVGROOVY-5996
p2727
aVGROOVY-5995
p2728
aVGROOVY-5994
p2729
aVGROOVY-5993
p2730
aVGROOVY-5992
p2731
aVGROOVY-5991
p2732
aVGROOVY-5990
p2733
aVGROOVY-5989
p2734
aVGROOVY-5988
p2735
aVGROOVY-5987
p2736
aVGROOVY-5986
p2737
aVGROOVY-5985
p2738
aVGROOVY-5984
p2739
aVGROOVY-5983
p2740
aVGROOVY-5982
p2741
aVGROOVY-5981
p2742
aVGROOVY-5980
p2743
aVGROOVY-5979
p2744
aVGROOVY-5978
p2745
aVGROOVY-5977
p2746
aVGROOVY-5976
p2747
aVGROOVY-5975
p2748
aVGROOVY-5974
p2749
aVGROOVY-5973
p2750
aVGROOVY-5972
p2751
aVGROOVY-5971
p2752
aVGROOVY-5970
p2753
aVGROOVY-5969
p2754
aVGROOVY-5968
p2755
aVGROOVY-5967
p2756
aVGROOVY-5966
p2757
aVGROOVY-5965
p2758
aVGROOVY-5964
p2759
aVGROOVY-5963
p2760
aVGROOVY-5962
p2761
aVGROOVY-5961
p2762
aVGROOVY-5960
p2763
aVGROOVY-5959
p2764
aVGROOVY-5958
p2765
aVGROOVY-5957
p2766
aVGROOVY-5956
p2767
aVGROOVY-5955
p2768
aVGROOVY-5954
p2769
aVGROOVY-5953
p2770
aVGROOVY-5952
p2771
aVGROOVY-5951
p2772
aVGROOVY-5950
p2773
aVGROOVY-5949
p2774
aVGROOVY-5948
p2775
aVGROOVY-5947
p2776
aVGROOVY-5946
p2777
aVGROOVY-5945
p2778
aVGROOVY-5944
p2779
aVGROOVY-5943
p2780
aVGROOVY-5942
p2781
aVGROOVY-5941
p2782
aVGROOVY-5940
p2783
aVGROOVY-5939
p2784
aVGROOVY-5938
p2785
aVGROOVY-5937
p2786
aVGROOVY-5936
p2787
aVGROOVY-5935
p2788
aVGROOVY-5934
p2789
aVGROOVY-5933
p2790
aVGROOVY-5932
p2791
aVGROOVY-5931
p2792
aVGROOVY-5930
p2793
aVGROOVY-5929
p2794
aVGROOVY-5928
p2795
aVGROOVY-5927
p2796
aVGROOVY-5926
p2797
aVGROOVY-5925
p2798
aVGROOVY-5924
p2799
aVGROOVY-5923
p2800
aVGROOVY-5922
p2801
aVGROOVY-5921
p2802
aVGROOVY-5920
p2803
aVGROOVY-5919
p2804
aVGROOVY-5918
p2805
aVGROOVY-5917
p2806
aVGROOVY-5916
p2807
aVGROOVY-5915
p2808
aVGROOVY-5914
p2809
aVGROOVY-5912
p2810
aVGROOVY-5911
p2811
aVGROOVY-5910
p2812
aVGROOVY-5909
p2813
aVGROOVY-5908
p2814
aVGROOVY-5907
p2815
aVGROOVY-5906
p2816
aVGROOVY-5905
p2817
aVGROOVY-5904
p2818
aVGROOVY-5903
p2819
aVGROOVY-5902
p2820
aVGROOVY-5901
p2821
aVGROOVY-5900
p2822
aVGROOVY-5899
p2823
aVGROOVY-5898
p2824
aVGROOVY-5897
p2825
aVGROOVY-5896
p2826
aVGROOVY-5895
p2827
aVGROOVY-5894
p2828
aVGROOVY-5893
p2829
aVGROOVY-5892
p2830
aVGROOVY-5891
p2831
aVGROOVY-5890
p2832
aVGROOVY-5889
p2833
aVGROOVY-5888
p2834
aVGROOVY-5887
p2835
aVGROOVY-5886
p2836
aVGROOVY-5885
p2837
aVGROOVY-5884
p2838
aVGROOVY-5883
p2839
aVGROOVY-5882
p2840
aVGROOVY-5881
p2841
aVGROOVY-5880
p2842
aVGROOVY-5879
p2843
aVGROOVY-5878
p2844
aVGROOVY-5877
p2845
aVGROOVY-5876
p2846
aVGROOVY-5875
p2847
aVGROOVY-5874
p2848
aVGROOVY-5873
p2849
aVGROOVY-5872
p2850
aVGROOVY-5871
p2851
aVGROOVY-5870
p2852
aVGROOVY-5869
p2853
aVGROOVY-5868
p2854
aVGROOVY-5867
p2855
aVGROOVY-5866
p2856
aVGROOVY-5865
p2857
aVGROOVY-5864
p2858
aVGROOVY-5863
p2859
aVGROOVY-5862
p2860
aVGROOVY-5861
p2861
aVGROOVY-5860
p2862
aVGROOVY-5859
p2863
aVGROOVY-5858
p2864
aVGROOVY-5857
p2865
aVGROOVY-5856
p2866
aVGROOVY-5855
p2867
aVGROOVY-5854
p2868
aVGROOVY-5853
p2869
aVGROOVY-5852
p2870
aVGROOVY-5851
p2871
aVGROOVY-5850
p2872
aVGROOVY-5849
p2873
aVGROOVY-5848
p2874
aVGROOVY-5847
p2875
aVGROOVY-5846
p2876
aVGROOVY-5845
p2877
aVGROOVY-5844
p2878
aVGROOVY-5843
p2879
aVGROOVY-5842
p2880
aVGROOVY-5841
p2881
aVGROOVY-5840
p2882
aVGROOVY-5839
p2883
aVGROOVY-5838
p2884
aVGROOVY-5837
p2885
aVGROOVY-5836
p2886
aVGROOVY-5835
p2887
aVGROOVY-5834
p2888
aVGROOVY-5832
p2889
aVGROOVY-5831
p2890
aVGROOVY-5830
p2891
aVGROOVY-5829
p2892
aVGROOVY-5828
p2893
aVGROOVY-5827
p2894
aVGROOVY-5826
p2895
aVGROOVY-5825
p2896
aVGROOVY-5824
p2897
aVGROOVY-5823
p2898
aVGROOVY-5822
p2899
aVGROOVY-5821
p2900
aVGROOVY-5820
p2901
aVGROOVY-5819
p2902
aVGROOVY-5818
p2903
aVGROOVY-5817
p2904
aVGROOVY-5816
p2905
aVGROOVY-5815
p2906
aVGROOVY-5814
p2907
aVGROOVY-5813
p2908
aVGROOVY-5812
p2909
aVGROOVY-5811
p2910
aVGROOVY-5810
p2911
aVGROOVY-5809
p2912
aVGROOVY-5808
p2913
aVGROOVY-5807
p2914
aVGROOVY-5806
p2915
aVGROOVY-5805
p2916
aVGROOVY-5804
p2917
aVGROOVY-5803
p2918
aVGROOVY-5802
p2919
aVGROOVY-5801
p2920
aVGROOVY-5800
p2921
aVGROOVY-5799
p2922
aVGROOVY-5798
p2923
aVGROOVY-5797
p2924
aVGROOVY-5796
p2925
aVGROOVY-5795
p2926
aVGROOVY-5794
p2927
aVGROOVY-5793
p2928
aVGROOVY-5792
p2929
aVGROOVY-5791
p2930
aVGROOVY-5790
p2931
aVGROOVY-5789
p2932
aVGROOVY-5788
p2933
aVGROOVY-5787
p2934
aVGROOVY-5786
p2935
aVGROOVY-5785
p2936
aVGROOVY-5784
p2937
aVGROOVY-5783
p2938
aVGROOVY-5782
p2939
aVGROOVY-5781
p2940
aVGROOVY-5780
p2941
aVGROOVY-5779
p2942
aVGROOVY-5778
p2943
aVGROOVY-5777
p2944
aVGROOVY-5776
p2945
aVGROOVY-5775
p2946
aVGROOVY-5774
p2947
aVGROOVY-5773
p2948
aVGROOVY-5771
p2949
aVGROOVY-5770
p2950
aVGROOVY-5769
p2951
aVGROOVY-5768
p2952
aVGROOVY-5767
p2953
aVGROOVY-5766
p2954
aVGROOVY-5765
p2955
aVGROOVY-5764
p2956
aVGROOVY-5763
p2957
aVGROOVY-5762
p2958
aVGROOVY-5761
p2959
aVGROOVY-5760
p2960
aVGROOVY-5759
p2961
aVGROOVY-5758
p2962
aVGROOVY-5757
p2963
aVGROOVY-5756
p2964
aVGROOVY-5755
p2965
aVGROOVY-5754
p2966
aVGROOVY-5753
p2967
aVGROOVY-5752
p2968
aVGROOVY-5751
p2969
aVGROOVY-5750
p2970
aVGROOVY-5749
p2971
aVGROOVY-5748
p2972
aVGROOVY-5747
p2973
aVGROOVY-5746
p2974
aVGROOVY-5745
p2975
aVGROOVY-5744
p2976
aVGROOVY-5743
p2977
aVGROOVY-5742
p2978
aVGROOVY-5741
p2979
aVGROOVY-5740
p2980
aVGROOVY-5739
p2981
aVGROOVY-5738
p2982
aVGROOVY-5737
p2983
aVGROOVY-5736
p2984
aVGROOVY-5735
p2985
aVGROOVY-5734
p2986
aVGROOVY-5733
p2987
aVGROOVY-5732
p2988
aVGROOVY-5731
p2989
aVGROOVY-5730
p2990
aVGROOVY-5729
p2991
aVGROOVY-5728
p2992
aVGROOVY-5727
p2993
aVGROOVY-5726
p2994
aVGROOVY-5725
p2995
aVGROOVY-5724
p2996
aVGROOVY-5723
p2997
aVGROOVY-5722
p2998
aVGROOVY-5721
p2999
aVGROOVY-5720
p3000
aVGROOVY-5719
p3001
aVGROOVY-5718
p3002
aVGROOVY-5717
p3003
aVGROOVY-5716
p3004
aVGROOVY-5714
p3005
aVGROOVY-5713
p3006
aVGROOVY-5712
p3007
aVGROOVY-5711
p3008
aVGROOVY-5710
p3009
aVGROOVY-5709
p3010
aVGROOVY-5708
p3011
aVGROOVY-5707
p3012
aVGROOVY-5706
p3013
aVGROOVY-5705
p3014
aVGROOVY-5704
p3015
aVGROOVY-5703
p3016
aVGROOVY-5702
p3017
aVGROOVY-5701
p3018
aVGROOVY-5700
p3019
aVGROOVY-5699
p3020
aVGROOVY-5698
p3021
aVGROOVY-5697
p3022
aVGROOVY-5696
p3023
aVGROOVY-5695
p3024
aVGROOVY-5694
p3025
aVGROOVY-5693
p3026
aVGROOVY-5692
p3027
aVGROOVY-5691
p3028
aVGROOVY-5690
p3029
aVGROOVY-5689
p3030
aVGROOVY-5688
p3031
aVGROOVY-5687
p3032
aVGROOVY-5686
p3033
aVGROOVY-5685
p3034
aVGROOVY-5684
p3035
aVGROOVY-5683
p3036
aVGROOVY-5682
p3037
aVGROOVY-5681
p3038
aVGROOVY-5680
p3039
aVGROOVY-5679
p3040
aVGROOVY-5678
p3041
aVGROOVY-5677
p3042
aVGROOVY-5676
p3043
aVGROOVY-5675
p3044
aVGROOVY-5674
p3045
aVGROOVY-5673
p3046
aVGROOVY-5672
p3047
aVGROOVY-5671
p3048
aVGROOVY-5670
p3049
aVGROOVY-5669
p3050
aVGROOVY-5668
p3051
aVGROOVY-5667
p3052
aVGROOVY-5666
p3053
aVGROOVY-5665
p3054
aVGROOVY-5664
p3055
aVGROOVY-5663
p3056
aVGROOVY-5662
p3057
aVGROOVY-5661
p3058
aVGROOVY-5660
p3059
aVGROOVY-5659
p3060
aVGROOVY-5658
p3061
aVGROOVY-5657
p3062
aVGROOVY-5656
p3063
aVGROOVY-5655
p3064
aVGROOVY-5654
p3065
aVGROOVY-5653
p3066
aVGROOVY-5652
p3067
aVGROOVY-5651
p3068
aVGROOVY-5650
p3069
aVGROOVY-5649
p3070
aVGROOVY-5648
p3071
aVGROOVY-5647
p3072
aVGROOVY-5646
p3073
aVGROOVY-5645
p3074
aVGROOVY-5644
p3075
aVGROOVY-5643
p3076
aVGROOVY-5642
p3077
aVGROOVY-5641
p3078
aVGROOVY-5640
p3079
aVGROOVY-5639
p3080
aVGROOVY-5638
p3081
aVGROOVY-5637
p3082
aVGROOVY-5636
p3083
aVGROOVY-5635
p3084
aVGROOVY-5634
p3085
aVGROOVY-5633
p3086
aVGROOVY-5632
p3087
aVGROOVY-5631
p3088
aVGROOVY-5630
p3089
aVGROOVY-5629
p3090
aVGROOVY-5628
p3091
aVGROOVY-5627
p3092
aVGROOVY-5626
p3093
aVGROOVY-5625
p3094
aVGROOVY-5624
p3095
aVGROOVY-5623
p3096
aVGROOVY-5622
p3097
aVGROOVY-5621
p3098
aVGROOVY-5620
p3099
aVGROOVY-5619
p3100
aVGROOVY-5618
p3101
aVGROOVY-5617
p3102
aVGROOVY-5616
p3103
aVGROOVY-5615
p3104
aVGROOVY-5614
p3105
aVGROOVY-5613
p3106
aVGROOVY-5612
p3107
aVGROOVY-5611
p3108
aVGROOVY-5610
p3109
aVGROOVY-5609
p3110
aVGROOVY-5608
p3111
aVGROOVY-5607
p3112
aVGROOVY-5606
p3113
aVGROOVY-5605
p3114
aVGROOVY-5604
p3115
aVGROOVY-5603
p3116
aVGROOVY-5602
p3117
aVGROOVY-5601
p3118
aVGROOVY-5599
p3119
aVGROOVY-5598
p3120
aVGROOVY-5597
p3121
aVGROOVY-5596
p3122
aVGROOVY-5595
p3123
aVGROOVY-5594
p3124
aVGROOVY-5593
p3125
aVGROOVY-5592
p3126
aVGROOVY-5591
p3127
aVGROOVY-5590
p3128
aVGROOVY-5589
p3129
aVGROOVY-5588
p3130
aVGROOVY-5587
p3131
aVGROOVY-5586
p3132
aVGROOVY-5585
p3133
aVGROOVY-5584
p3134
aVGROOVY-5583
p3135
aVGROOVY-5582
p3136
aVGROOVY-5581
p3137
aVGROOVY-5580
p3138
aVGROOVY-5579
p3139
aVGROOVY-5578
p3140
aVGROOVY-5577
p3141
aVGROOVY-5576
p3142
aVGROOVY-5575
p3143
aVGROOVY-5574
p3144
aVGROOVY-5573
p3145
aVGROOVY-5572
p3146
aVGROOVY-5571
p3147
aVGROOVY-5570
p3148
aVGROOVY-5569
p3149
aVGROOVY-5568
p3150
aVGROOVY-5567
p3151
aVGROOVY-5566
p3152
aVGROOVY-5565
p3153
aVGROOVY-5564
p3154
aVGROOVY-5563
p3155
aVGROOVY-5562
p3156
aVGROOVY-5561
p3157
aVGROOVY-5560
p3158
aVGROOVY-5559
p3159
aVGROOVY-5558
p3160
aVGROOVY-5557
p3161
aVGROOVY-5556
p3162
aVGROOVY-5555
p3163
aVGROOVY-5554
p3164
aVGROOVY-5553
p3165
aVGROOVY-5552
p3166
aVGROOVY-5551
p3167
aVGROOVY-5550
p3168
aVGROOVY-5549
p3169
aVGROOVY-5548
p3170
aVGROOVY-5547
p3171
aVGROOVY-5546
p3172
aVGROOVY-5545
p3173
aVGROOVY-5544
p3174
aVGROOVY-5543
p3175
aVGROOVY-5542
p3176
aVGROOVY-5541
p3177
aVGROOVY-5540
p3178
aVGROOVY-5539
p3179
aVGROOVY-5538
p3180
aVGROOVY-5537
p3181
aVGROOVY-5536
p3182
aVGROOVY-5535
p3183
aVGROOVY-5534
p3184
aVGROOVY-5533
p3185
aVGROOVY-5532
p3186
aVGROOVY-5531
p3187
aVGROOVY-5530
p3188
aVGROOVY-5529
p3189
aVGROOVY-5528
p3190
aVGROOVY-5527
p3191
aVGROOVY-5526
p3192
aVGROOVY-5525
p3193
aVGROOVY-5524
p3194
aVGROOVY-5523
p3195
aVGROOVY-5522
p3196
aVGROOVY-5521
p3197
aVGROOVY-5520
p3198
aVGROOVY-5519
p3199
aVGROOVY-5518
p3200
aVGROOVY-5517
p3201
aVGROOVY-5516
p3202
aVGROOVY-5515
p3203
aVGROOVY-5514
p3204
aVGROOVY-5513
p3205
aVGROOVY-5512
p3206
aVGROOVY-5511
p3207
aVGROOVY-5510
p3208
aVGROOVY-5509
p3209
aVGROOVY-5508
p3210
aVGROOVY-5507
p3211
aVGROOVY-5506
p3212
aVGROOVY-5505
p3213
aVGROOVY-5504
p3214
aVGROOVY-5503
p3215
aVGROOVY-5502
p3216
aVGROOVY-5501
p3217
aVGROOVY-5500
p3218
aVGROOVY-5499
p3219
aVGROOVY-5498
p3220
aVGROOVY-5497
p3221
aVGROOVY-5496
p3222
aVGROOVY-5495
p3223
aVGROOVY-5494
p3224
aVGROOVY-5493
p3225
aVGROOVY-5492
p3226
aVGROOVY-5491
p3227
aVGROOVY-5490
p3228
aVGROOVY-5489
p3229
aVGROOVY-5488
p3230
aVGROOVY-5487
p3231
aVGROOVY-5486
p3232
aVGROOVY-5485
p3233
aVGROOVY-5484
p3234
aVGROOVY-5482
p3235
aVGROOVY-5481
p3236
aVGROOVY-5480
p3237
aVGROOVY-5479
p3238
aVGROOVY-5478
p3239
aVGROOVY-5477
p3240
aVGROOVY-5476
p3241
aVGROOVY-5475
p3242
aVGROOVY-5474
p3243
aVGROOVY-5473
p3244
aVGROOVY-5472
p3245
aVGROOVY-5471
p3246
aVGROOVY-5470
p3247
aVGROOVY-5469
p3248
aVGROOVY-5468
p3249
aVGROOVY-5467
p3250
aVGROOVY-5466
p3251
aVGROOVY-5465
p3252
aVGROOVY-5464
p3253
aVGROOVY-5463
p3254
aVGROOVY-5462
p3255
aVGROOVY-5461
p3256
aVGROOVY-5460
p3257
aVGROOVY-5459
p3258
aVGROOVY-5458
p3259
aVGROOVY-5457
p3260
aVGROOVY-5456
p3261
aVGROOVY-5455
p3262
aVGROOVY-5454
p3263
aVGROOVY-5453
p3264
aVGROOVY-5452
p3265
aVGROOVY-5451
p3266
aVGROOVY-5450
p3267
aVGROOVY-5449
p3268
aVGROOVY-5448
p3269
aVGROOVY-5447
p3270
aVGROOVY-5446
p3271
aVGROOVY-5445
p3272
aVGROOVY-5444
p3273
aVGROOVY-5443
p3274
aVGROOVY-5442
p3275
aVGROOVY-5441
p3276
aVGROOVY-5440
p3277
aVGROOVY-5439
p3278
aVGROOVY-5438
p3279
aVGROOVY-5437
p3280
aVGROOVY-5436
p3281
aVGROOVY-5435
p3282
aVGROOVY-5434
p3283
aVGROOVY-5433
p3284
aVGROOVY-5432
p3285
aVGROOVY-5431
p3286
aVGROOVY-5430
p3287
aVGROOVY-5429
p3288
aVGROOVY-5428
p3289
aVGROOVY-5427
p3290
aVGROOVY-5426
p3291
aVGROOVY-5425
p3292
aVGROOVY-5424
p3293
aVGROOVY-5423
p3294
aVGROOVY-5418
p3295
aVGROOVY-5417
p3296
aVGROOVY-5416
p3297
aVGROOVY-5415
p3298
aVGROOVY-5414
p3299
aVGROOVY-5413
p3300
aVGROOVY-5412
p3301
aVGROOVY-5411
p3302
aVGROOVY-5410
p3303
aVGROOVY-5409
p3304
aVGROOVY-5408
p3305
aVGROOVY-5407
p3306
aVGROOVY-5406
p3307
aVGROOVY-5405
p3308
aVGROOVY-5404
p3309
aVGROOVY-5403
p3310
aVGROOVY-5402
p3311
aVGROOVY-5401
p3312
aVGROOVY-5400
p3313
aVGROOVY-5399
p3314
aVGROOVY-5398
p3315
aVGROOVY-5397
p3316
aVGROOVY-5396
p3317
aVGROOVY-5395
p3318
aVGROOVY-5394
p3319
aVGROOVY-5393
p3320
aVGROOVY-5392
p3321
aVGROOVY-5391
p3322
aVGROOVY-5390
p3323
aVGROOVY-5389
p3324
aVGROOVY-5388
p3325
aVGROOVY-5387
p3326
aVGROOVY-5386
p3327
aVGROOVY-5385
p3328
aVGROOVY-5384
p3329
aVGROOVY-5383
p3330
aVGROOVY-5382
p3331
aVGROOVY-5381
p3332
aVGROOVY-5380
p3333
aVGROOVY-5379
p3334
aVGROOVY-5378
p3335
aVGROOVY-5377
p3336
aVGROOVY-5376
p3337
aVGROOVY-5375
p3338
aVGROOVY-5374
p3339
aVGROOVY-5373
p3340
aVGROOVY-5372
p3341
aVGROOVY-5371
p3342
aVGROOVY-5370
p3343
aVGROOVY-5369
p3344
aVGROOVY-5368
p3345
aVGROOVY-5367
p3346
aVGROOVY-5366
p3347
aVGROOVY-5365
p3348
aVGROOVY-5364
p3349
aVGROOVY-5363
p3350
aVGROOVY-5362
p3351
aVGROOVY-5361
p3352
aVGROOVY-5360
p3353
aVGROOVY-5359
p3354
aVGROOVY-5358
p3355
aVGROOVY-5357
p3356
aVGROOVY-5356
p3357
aVGROOVY-5355
p3358
aVGROOVY-5354
p3359
aVGROOVY-5353
p3360
aVGROOVY-5352
p3361
aVGROOVY-5351
p3362
aVGROOVY-5350
p3363
aVGROOVY-5349
p3364
aVGROOVY-5348
p3365
aVGROOVY-5347
p3366
aVGROOVY-5346
p3367
aVGROOVY-5345
p3368
aVGROOVY-5344
p3369
aVGROOVY-5343
p3370
aVGROOVY-5342
p3371
aVGROOVY-5341
p3372
aVGROOVY-5340
p3373
aVGROOVY-5339
p3374
aVGROOVY-5338
p3375
aVGROOVY-5337
p3376
aVGROOVY-5336
p3377
aVGROOVY-5335
p3378
aVGROOVY-5334
p3379
aVGROOVY-5333
p3380
aVGROOVY-5332
p3381
aVGROOVY-5331
p3382
aVGROOVY-5330
p3383
aVGROOVY-5329
p3384
aVGROOVY-5328
p3385
aVGROOVY-5327
p3386
aVGROOVY-5326
p3387
aVGROOVY-5325
p3388
aVGROOVY-5324
p3389
aVGROOVY-5323
p3390
aVGROOVY-5322
p3391
aVGROOVY-5321
p3392
aVGROOVY-5320
p3393
aVGROOVY-5319
p3394
aVGROOVY-5318
p3395
aVGROOVY-5317
p3396
aVGROOVY-5316
p3397
aVGROOVY-5315
p3398
aVGROOVY-5314
p3399
aVGROOVY-5313
p3400
aVGROOVY-5312
p3401
aVGROOVY-5311
p3402
aVGROOVY-5310
p3403
aVGROOVY-5309
p3404
aVGROOVY-5308
p3405
aVGROOVY-5307
p3406
aVGROOVY-5306
p3407
aVGROOVY-5305
p3408
aVGROOVY-5304
p3409
aVGROOVY-5303
p3410
aVGROOVY-5302
p3411
aVGROOVY-5301
p3412
aVGROOVY-5300
p3413
aVGROOVY-5299
p3414
aVGROOVY-5298
p3415
aVGROOVY-5297
p3416
aVGROOVY-5296
p3417
aVGROOVY-5295
p3418
aVGROOVY-5294
p3419
aVGROOVY-5293
p3420
aVGROOVY-5292
p3421
aVGROOVY-5291
p3422
aVGROOVY-5290
p3423
aVGROOVY-5289
p3424
aVGROOVY-5288
p3425
aVGROOVY-5287
p3426
aVGROOVY-5286
p3427
aVGROOVY-5285
p3428
aVGROOVY-5284
p3429
aVGROOVY-5283
p3430
aVGROOVY-5282
p3431
aVGROOVY-5281
p3432
aVGROOVY-5280
p3433
aVGROOVY-5279
p3434
aVGROOVY-5278
p3435
aVGROOVY-5277
p3436
aVGROOVY-5276
p3437
aVGROOVY-5275
p3438
aVGROOVY-5274
p3439
aVGROOVY-5273
p3440
aVGROOVY-5272
p3441
aVGROOVY-5271
p3442
aVGROOVY-5270
p3443
aVGROOVY-5269
p3444
aVGROOVY-5268
p3445
aVGROOVY-5267
p3446
aVGROOVY-5266
p3447
aVGROOVY-5265
p3448
aVGROOVY-5264
p3449
aVGROOVY-5263
p3450
aVGROOVY-5262
p3451
aVGROOVY-5261
p3452
aVGROOVY-5260
p3453
aVGROOVY-5259
p3454
aVGROOVY-5258
p3455
aVGROOVY-5257
p3456
aVGROOVY-5256
p3457
aVGROOVY-5255
p3458
aVGROOVY-5254
p3459
aVGROOVY-5253
p3460
aVGROOVY-5252
p3461
aVGROOVY-5251
p3462
aVGROOVY-5250
p3463
aVGROOVY-5249
p3464
aVGROOVY-5248
p3465
aVGROOVY-5247
p3466
aVGROOVY-5246
p3467
aVGROOVY-5245
p3468
aVGROOVY-5244
p3469
aVGROOVY-5243
p3470
aVGROOVY-5242
p3471
aVGROOVY-5241
p3472
aVGROOVY-5240
p3473
aVGROOVY-5239
p3474
aVGROOVY-5238
p3475
aVGROOVY-5237
p3476
aVGROOVY-5236
p3477
aVGROOVY-5235
p3478
aVGROOVY-5234
p3479
aVGROOVY-5233
p3480
aVGROOVY-5232
p3481
aVGROOVY-5231
p3482
aVGROOVY-5230
p3483
aVGROOVY-5229
p3484
aVGROOVY-5228
p3485
aVGROOVY-5227
p3486
aVGROOVY-5226
p3487
aVGROOVY-5225
p3488
aVGROOVY-5224
p3489
aVGROOVY-5223
p3490
aVGROOVY-5222
p3491
aVGROOVY-5221
p3492
aVGROOVY-5220
p3493
aVGROOVY-5219
p3494
aVGROOVY-5218
p3495
aVGROOVY-5217
p3496
aVGROOVY-5216
p3497
aVGROOVY-5215
p3498
aVGROOVY-5214
p3499
aVGROOVY-5213
p3500
aVGROOVY-5212
p3501
aVGROOVY-5211
p3502
aVGROOVY-5210
p3503
aVGROOVY-5208
p3504
aVGROOVY-5207
p3505
aVGROOVY-5206
p3506
aVGROOVY-5205
p3507
aVGROOVY-5204
p3508
aVGROOVY-5203
p3509
aVGROOVY-5202
p3510
aVGROOVY-5201
p3511
aVGROOVY-5200
p3512
aVGROOVY-5199
p3513
aVGROOVY-5198
p3514
aVGROOVY-5197
p3515
aVGROOVY-5196
p3516
aVGROOVY-5195
p3517
aVGROOVY-5194
p3518
aVGROOVY-5193
p3519
aVGROOVY-5192
p3520
aVGROOVY-5191
p3521
aVGROOVY-5190
p3522
aVGROOVY-5189
p3523
aVGROOVY-5188
p3524
aVGROOVY-5187
p3525
aVGROOVY-5186
p3526
aVGROOVY-5185
p3527
aVGROOVY-5184
p3528
aVGROOVY-5183
p3529
aVGROOVY-5182
p3530
aVGROOVY-5181
p3531
aVGROOVY-5180
p3532
aVGROOVY-5179
p3533
aVGROOVY-5178
p3534
aVGROOVY-5177
p3535
aVGROOVY-5176
p3536
aVGROOVY-5175
p3537
aVGROOVY-5174
p3538
aVGROOVY-5173
p3539
aVGROOVY-5172
p3540
aVGROOVY-5171
p3541
aVGROOVY-5170
p3542
aVGROOVY-5169
p3543
aVGROOVY-5168
p3544
aVGROOVY-5167
p3545
aVGROOVY-5166
p3546
aVGROOVY-5165
p3547
aVGROOVY-5164
p3548
aVGROOVY-5163
p3549
aVGROOVY-5162
p3550
aVGROOVY-5161
p3551
aVGROOVY-5160
p3552
aVGROOVY-5159
p3553
aVGROOVY-5158
p3554
aVGROOVY-5157
p3555
aVGROOVY-5156
p3556
aVGROOVY-5155
p3557
aVGROOVY-5154
p3558
aVGROOVY-5153
p3559
aVGROOVY-5152
p3560
aVGROOVY-5151
p3561
aVGROOVY-5150
p3562
aVGROOVY-5149
p3563
aVGROOVY-5148
p3564
aVGROOVY-5147
p3565
aVGROOVY-5146
p3566
aVGROOVY-5145
p3567
aVGROOVY-5144
p3568
aVGROOVY-5143
p3569
aVGROOVY-5142
p3570
aVGROOVY-5141
p3571
aVGROOVY-5140
p3572
aVGROOVY-5139
p3573
aVGROOVY-5138
p3574
aVGROOVY-5137
p3575
aVGROOVY-5136
p3576
aVGROOVY-5135
p3577
aVGROOVY-5134
p3578
aVGROOVY-5133
p3579
aVGROOVY-5132
p3580
aVGROOVY-5131
p3581
aVGROOVY-5130
p3582
aVGROOVY-5129
p3583
aVGROOVY-5128
p3584
aVGROOVY-5127
p3585
aVGROOVY-5126
p3586
aVGROOVY-5125
p3587
aVGROOVY-5124
p3588
aVGROOVY-5123
p3589
aVGROOVY-5122
p3590
aVGROOVY-5121
p3591
aVGROOVY-5120
p3592
aVGROOVY-5119
p3593
aVGROOVY-5118
p3594
aVGROOVY-5117
p3595
aVGROOVY-5116
p3596
aVGROOVY-5115
p3597
aVGROOVY-5114
p3598
aVGROOVY-5113
p3599
aVGROOVY-5112
p3600
aVGROOVY-5111
p3601
aVGROOVY-5110
p3602
aVGROOVY-5109
p3603
aVGROOVY-5108
p3604
aVGROOVY-5107
p3605
aVGROOVY-5106
p3606
aVGROOVY-5105
p3607
aVGROOVY-5104
p3608
aVGROOVY-5103
p3609
aVGROOVY-5102
p3610
aVGROOVY-5101
p3611
aVGROOVY-5100
p3612
aVGROOVY-5099
p3613
aVGROOVY-5098
p3614
aVGROOVY-5097
p3615
aVGROOVY-5096
p3616
aVGROOVY-5095
p3617
aVGROOVY-5094
p3618
aVGROOVY-5093
p3619
aVGROOVY-5092
p3620
aVGROOVY-5091
p3621
aVGROOVY-5090
p3622
aVGROOVY-5089
p3623
aVGROOVY-5088
p3624
aVGROOVY-5087
p3625
aVGROOVY-5086
p3626
aVGROOVY-5085
p3627
aVGROOVY-5084
p3628
aVGROOVY-5083
p3629
aVGROOVY-5082
p3630
aVGROOVY-5081
p3631
aVGROOVY-5080
p3632
aVGROOVY-5079
p3633
aVGROOVY-5078
p3634
aVGROOVY-5077
p3635
aVGROOVY-5076
p3636
aVGROOVY-5075
p3637
aVGROOVY-5074
p3638
aVGROOVY-5073
p3639
aVGROOVY-5072
p3640
aVGROOVY-5071
p3641
aVGROOVY-5070
p3642
aVGROOVY-5069
p3643
aVGROOVY-5068
p3644
aVGROOVY-5067
p3645
aVGROOVY-5066
p3646
aVGROOVY-5065
p3647
aVGROOVY-5064
p3648
aVGROOVY-5063
p3649
aVGROOVY-5061
p3650
aVGROOVY-5060
p3651
aVGROOVY-5059
p3652
aVGROOVY-5058
p3653
aVGROOVY-5057
p3654
aVGROOVY-5056
p3655
aVGROOVY-5055
p3656
aVGROOVY-5054
p3657
aVGROOVY-5053
p3658
aVGROOVY-5052
p3659
aVGROOVY-5051
p3660
aVGROOVY-5050
p3661
aVGROOVY-5049
p3662
aVGROOVY-5048
p3663
aVGROOVY-5047
p3664
aVGROOVY-5046
p3665
aVGROOVY-5045
p3666
aVGROOVY-5044
p3667
aVGROOVY-5043
p3668
aVGROOVY-5042
p3669
aVGROOVY-5041
p3670
aVGROOVY-5040
p3671
aVGROOVY-5039
p3672
aVGROOVY-5038
p3673
aVGROOVY-5037
p3674
aVGROOVY-5036
p3675
aVGROOVY-5035
p3676
aVGROOVY-5034
p3677
aVGROOVY-5033
p3678
aVGROOVY-5032
p3679
aVGROOVY-5031
p3680
aVGROOVY-5030
p3681
aVGROOVY-5029
p3682
aVGROOVY-5028
p3683
aVGROOVY-5027
p3684
aVGROOVY-5026
p3685
aVGROOVY-5025
p3686
aVGROOVY-5024
p3687
aVGROOVY-5023
p3688
aVGROOVY-5021
p3689
aVGROOVY-5020
p3690
aVGROOVY-5019
p3691
aVGROOVY-5018
p3692
aVGROOVY-5017
p3693
aVGROOVY-5016
p3694
aVGROOVY-5015
p3695
aVGROOVY-5014
p3696
aVGROOVY-5013
p3697
aVGROOVY-5012
p3698
aVGROOVY-5011
p3699
aVGROOVY-5010
p3700
aVGROOVY-5009
p3701
aVGROOVY-5008
p3702
aVGROOVY-5007
p3703
aVGROOVY-5006
p3704
aVGROOVY-5005
p3705
aVGROOVY-5004
p3706
aVGROOVY-5003
p3707
aVGROOVY-5002
p3708
aVGROOVY-5001
p3709
aVGROOVY-5000
p3710
aVGROOVY-4999
p3711
aVGROOVY-4998
p3712
aVGROOVY-4997
p3713
aVGROOVY-4996
p3714
aVGROOVY-4995
p3715
aVGROOVY-4994
p3716
aVGROOVY-4993
p3717
aVGROOVY-4992
p3718
aVGROOVY-4991
p3719
aVGROOVY-4990
p3720
aVGROOVY-4989
p3721
aVGROOVY-4988
p3722
aVGROOVY-4987
p3723
aVGROOVY-4986
p3724
aVGROOVY-4985
p3725
aVGROOVY-4984
p3726
aVGROOVY-4983
p3727
aVGROOVY-4982
p3728
aVGROOVY-4981
p3729
aVGROOVY-4980
p3730
aVGROOVY-4979
p3731
aVGROOVY-4978
p3732
aVGROOVY-4977
p3733
aVGROOVY-4976
p3734
aVGROOVY-4975
p3735
aVGROOVY-4974
p3736
aVGROOVY-4973
p3737
aVGROOVY-4972
p3738
aVGROOVY-4971
p3739
aVGROOVY-4970
p3740
aVGROOVY-4969
p3741
aVGROOVY-4968
p3742
aVGROOVY-4967
p3743
aVGROOVY-4966
p3744
aVGROOVY-4965
p3745
aVGROOVY-4964
p3746
aVGROOVY-4963
p3747
aVGROOVY-4962
p3748
aVGROOVY-4961
p3749
aVGROOVY-4960
p3750
aVGROOVY-4959
p3751
aVGROOVY-4958
p3752
aVGROOVY-4957
p3753
aVGROOVY-4956
p3754
aVGROOVY-4955
p3755
aVGROOVY-4954
p3756
aVGROOVY-4953
p3757
aVGROOVY-4952
p3758
aVGROOVY-4951
p3759
aVGROOVY-4950
p3760
aVGROOVY-4949
p3761
aVGROOVY-4948
p3762
aVGROOVY-4947
p3763
aVGROOVY-4946
p3764
aVGROOVY-4945
p3765
aVGROOVY-4944
p3766
aVGROOVY-4943
p3767
aVGROOVY-4942
p3768
aVGROOVY-4941
p3769
aVGROOVY-4940
p3770
aVGROOVY-4939
p3771
aVGROOVY-4938
p3772
aVGROOVY-4937
p3773
aVGROOVY-4936
p3774
aVGROOVY-4935
p3775
aVGROOVY-4934
p3776
aVGROOVY-4933
p3777
aVGROOVY-4932
p3778
aVGROOVY-4930
p3779
aVGROOVY-4929
p3780
aVGROOVY-4928
p3781
aVGROOVY-4927
p3782
aVGROOVY-4926
p3783
aVGROOVY-4925
p3784
aVGROOVY-4924
p3785
aVGROOVY-4923
p3786
aVGROOVY-4922
p3787
aVGROOVY-4921
p3788
aVGROOVY-4920
p3789
aVGROOVY-4919
p3790
aVGROOVY-4918
p3791
aVGROOVY-4917
p3792
aVGROOVY-4916
p3793
aVGROOVY-4915
p3794
aVGROOVY-4914
p3795
aVGROOVY-4913
p3796
aVGROOVY-4912
p3797
aVGROOVY-4911
p3798
aVGROOVY-4910
p3799
aVGROOVY-4909
p3800
aVGROOVY-4908
p3801
aVGROOVY-4907
p3802
aVGROOVY-4906
p3803
aVGROOVY-4905
p3804
aVGROOVY-4904
p3805
aVGROOVY-4903
p3806
aVGROOVY-4902
p3807
aVGROOVY-4901
p3808
aVGROOVY-4900
p3809
aVGROOVY-4899
p3810
aVGROOVY-4898
p3811
aVGROOVY-4897
p3812
aVGROOVY-4896
p3813
aVGROOVY-4895
p3814
aVGROOVY-4894
p3815
aVGROOVY-4893
p3816
aVGROOVY-4892
p3817
aVGROOVY-4891
p3818
aVGROOVY-4890
p3819
aVGROOVY-4889
p3820
aVGROOVY-4888
p3821
aVGROOVY-4887
p3822
aVGROOVY-4886
p3823
aVGROOVY-4885
p3824
aVGROOVY-4884
p3825
aVGROOVY-4883
p3826
aVGROOVY-4882
p3827
aVGROOVY-4881
p3828
aVGROOVY-4880
p3829
aVGROOVY-4879
p3830
aVGROOVY-4878
p3831
aVGROOVY-4877
p3832
aVGROOVY-4876
p3833
aVGROOVY-4875
p3834
aVGROOVY-4874
p3835
aVGROOVY-4873
p3836
aVGROOVY-4872
p3837
aVGROOVY-4871
p3838
aVGROOVY-4870
p3839
aVGROOVY-4869
p3840
aVGROOVY-4868
p3841
aVGROOVY-4867
p3842
aVGROOVY-4866
p3843
aVGROOVY-4865
p3844
aVGROOVY-4864
p3845
aVGROOVY-4863
p3846
aVGROOVY-4862
p3847
aVGROOVY-4861
p3848
aVGROOVY-4860
p3849
aVGROOVY-4859
p3850
aVGROOVY-4858
p3851
aVGROOVY-4857
p3852
aVGROOVY-4856
p3853
aVGROOVY-4855
p3854
aVGROOVY-4854
p3855
aVGROOVY-4853
p3856
aVGROOVY-4852
p3857
aVGROOVY-4851
p3858
aVGROOVY-4849
p3859
aVGROOVY-4848
p3860
aVGROOVY-4847
p3861
aVGROOVY-4846
p3862
aVGROOVY-4845
p3863
aVGROOVY-4844
p3864
aVGROOVY-4843
p3865
aVGROOVY-4842
p3866
aVGROOVY-4841
p3867
aVGROOVY-4840
p3868
aVGROOVY-4839
p3869
aVGROOVY-4838
p3870
aVGROOVY-4837
p3871
aVGROOVY-4836
p3872
aVGROOVY-4835
p3873
aVGROOVY-4834
p3874
aVGROOVY-4833
p3875
aVGROOVY-4832
p3876
aVGROOVY-4831
p3877
aVGROOVY-4830
p3878
aVGROOVY-4829
p3879
aVGROOVY-4828
p3880
aVGROOVY-4827
p3881
aVGROOVY-4826
p3882
aVGROOVY-4825
p3883
aVGROOVY-4824
p3884
aVGROOVY-4823
p3885
aVGROOVY-4822
p3886
aVGROOVY-4821
p3887
aVGROOVY-4820
p3888
aVGROOVY-4819
p3889
aVGROOVY-4818
p3890
aVGROOVY-4817
p3891
aVGROOVY-4816
p3892
aVGROOVY-4815
p3893
aVGROOVY-4814
p3894
aVGROOVY-4813
p3895
aVGROOVY-4812
p3896
aVGROOVY-4811
p3897
aVGROOVY-4810
p3898
aVGROOVY-4809
p3899
aVGROOVY-4808
p3900
aVGROOVY-4807
p3901
aVGROOVY-4806
p3902
aVGROOVY-4805
p3903
aVGROOVY-4804
p3904
aVGROOVY-4803
p3905
aVGROOVY-4802
p3906
aVGROOVY-4801
p3907
aVGROOVY-4800
p3908
aVGROOVY-4799
p3909
aVGROOVY-4798
p3910
aVGROOVY-4797
p3911
aVGROOVY-4796
p3912
aVGROOVY-4795
p3913
aVGROOVY-4794
p3914
aVGROOVY-4793
p3915
aVGROOVY-4792
p3916
aVGROOVY-4791
p3917
aVGROOVY-4790
p3918
aVGROOVY-4789
p3919
aVGROOVY-4788
p3920
aVGROOVY-4787
p3921
aVGROOVY-4786
p3922
aVGROOVY-4785
p3923
aVGROOVY-4784
p3924
aVGROOVY-4783
p3925
aVGROOVY-4782
p3926
aVGROOVY-4781
p3927
aVGROOVY-4780
p3928
aVGROOVY-4779
p3929
aVGROOVY-4778
p3930
aVGROOVY-4777
p3931
aVGROOVY-4776
p3932
aVGROOVY-4775
p3933
aVGROOVY-4774
p3934
aVGROOVY-4773
p3935
aVGROOVY-4772
p3936
aVGROOVY-4771
p3937
aVGROOVY-4770
p3938
aVGROOVY-4769
p3939
aVGROOVY-4768
p3940
aVGROOVY-4767
p3941
aVGROOVY-4766
p3942
aVGROOVY-4765
p3943
aVGROOVY-4764
p3944
aVGROOVY-4763
p3945
aVGROOVY-4762
p3946
aVGROOVY-4761
p3947
aVGROOVY-4760
p3948
aVGROOVY-4759
p3949
aVGROOVY-4758
p3950
aVGROOVY-4757
p3951
aVGROOVY-4756
p3952
aVGROOVY-4754
p3953
aVGROOVY-4753
p3954
aVGROOVY-4752
p3955
aVGROOVY-4751
p3956
aVGROOVY-4750
p3957
aVGROOVY-4749
p3958
aVGROOVY-4748
p3959
aVGROOVY-4747
p3960
aVGROOVY-4746
p3961
aVGROOVY-4745
p3962
aVGROOVY-4744
p3963
aVGROOVY-4743
p3964
aVGROOVY-4742
p3965
aVGROOVY-4741
p3966
aVGROOVY-4740
p3967
aVGROOVY-4739
p3968
aVGROOVY-4737
p3969
aVGROOVY-4736
p3970
aVGROOVY-4735
p3971
aVGROOVY-4734
p3972
aVGROOVY-4733
p3973
aVGROOVY-4732
p3974
aVGROOVY-4731
p3975
aVGROOVY-4730
p3976
aVGROOVY-4729
p3977
aVGROOVY-4728
p3978
aVGROOVY-4727
p3979
aVGROOVY-4726
p3980
aVGROOVY-4725
p3981
aVGROOVY-4724
p3982
aVGROOVY-4723
p3983
aVGROOVY-4722
p3984
aVGROOVY-4721
p3985
aVGROOVY-4720
p3986
aVGROOVY-4719
p3987
aVGROOVY-4718
p3988
aVGROOVY-4717
p3989
aVGROOVY-4716
p3990
aVGROOVY-4715
p3991
aVGROOVY-4714
p3992
aVGROOVY-4713
p3993
aVGROOVY-4712
p3994
aVGROOVY-4711
p3995
aVGROOVY-4710
p3996
aVGROOVY-4709
p3997
aVGROOVY-4707
p3998
aVGROOVY-4706
p3999
aVGROOVY-4705
p4000
aVGROOVY-4704
p4001
aVGROOVY-4703
p4002
aVGROOVY-4702
p4003
aVGROOVY-4701
p4004
aVGROOVY-4700
p4005
aVGROOVY-4699
p4006
aVGROOVY-4698
p4007
aVGROOVY-4697
p4008
aVGROOVY-4696
p4009
aVGROOVY-4695
p4010
aVGROOVY-4694
p4011
aVGROOVY-4693
p4012
aVGROOVY-4692
p4013
aVGROOVY-4691
p4014
aVGROOVY-4690
p4015
aVGROOVY-4689
p4016
aVGROOVY-4688
p4017
aVGROOVY-4687
p4018
aVGROOVY-4686
p4019
aVGROOVY-4685
p4020
aVGROOVY-4684
p4021
aVGROOVY-4683
p4022
aVGROOVY-4682
p4023
aVGROOVY-4681
p4024
aVGROOVY-4680
p4025
aVGROOVY-4679
p4026
aVGROOVY-4678
p4027
aVGROOVY-4677
p4028
aVGROOVY-4676
p4029
aVGROOVY-4675
p4030
aVGROOVY-4674
p4031
aVGROOVY-4673
p4032
aVGROOVY-4671
p4033
aVGROOVY-4670
p4034
aVGROOVY-4669
p4035
aVGROOVY-4668
p4036
aVGROOVY-4667
p4037
aVGROOVY-4666
p4038
aVGROOVY-4665
p4039
aVGROOVY-4664
p4040
aVGROOVY-4663
p4041
aVGROOVY-4662
p4042
aVGROOVY-4661
p4043
aVGROOVY-4660
p4044
aVGROOVY-4659
p4045
aVGROOVY-4658
p4046
aVGROOVY-4657
p4047
aVGROOVY-4656
p4048
aVGROOVY-4655
p4049
aVGROOVY-4654
p4050
aVGROOVY-4653
p4051
aVGROOVY-4652
p4052
aVGROOVY-4651
p4053
aVGROOVY-4650
p4054
aVGROOVY-4649
p4055
aVGROOVY-4648
p4056
aVGROOVY-4647
p4057
aVGROOVY-4646
p4058
aVGROOVY-4645
p4059
aVGROOVY-4644
p4060
aVGROOVY-4643
p4061
aVGROOVY-4642
p4062
aVGROOVY-4641
p4063
aVGROOVY-4640
p4064
aVGROOVY-4639
p4065
aVGROOVY-4638
p4066
aVGROOVY-4637
p4067
aVGROOVY-4636
p4068
aVGROOVY-4634
p4069
aVGROOVY-4633
p4070
aVGROOVY-4632
p4071
aVGROOVY-4631
p4072
aVGROOVY-4630
p4073
aVGROOVY-4629
p4074
aVGROOVY-4628
p4075
aVGROOVY-4627
p4076
aVGROOVY-4626
p4077
aVGROOVY-4625
p4078
aVGROOVY-4624
p4079
aVGROOVY-4623
p4080
aVGROOVY-4622
p4081
aVGROOVY-4621
p4082
aVGROOVY-4620
p4083
aVGROOVY-4619
p4084
aVGROOVY-4618
p4085
aVGROOVY-4617
p4086
aVGROOVY-4616
p4087
aVGROOVY-4615
p4088
aVGROOVY-4614
p4089
aVGROOVY-4613
p4090
aVGROOVY-4612
p4091
aVGROOVY-4611
p4092
aVGROOVY-4610
p4093
aVGROOVY-4609
p4094
aVGROOVY-4608
p4095
aVGROOVY-4607
p4096
aVGROOVY-4606
p4097
aVGROOVY-4605
p4098
aVGROOVY-4604
p4099
aVGROOVY-4603
p4100
aVGROOVY-4602
p4101
aVGROOVY-4601
p4102
aVGROOVY-4600
p4103
aVGROOVY-4599
p4104
aVGROOVY-4598
p4105
aVGROOVY-4596
p4106
aVGROOVY-4595
p4107
aVGROOVY-4594
p4108
aVGROOVY-4593
p4109
aVGROOVY-4592
p4110
aVGROOVY-4591
p4111
aVGROOVY-4590
p4112
aVGROOVY-4589
p4113
aVGROOVY-4588
p4114
aVGROOVY-4587
p4115
aVGROOVY-4586
p4116
aVGROOVY-4585
p4117
aVGROOVY-4584
p4118
aVGROOVY-4583
p4119
aVGROOVY-4582
p4120
aVGROOVY-4581
p4121
aVGROOVY-4580
p4122
aVGROOVY-4579
p4123
aVGROOVY-4578
p4124
aVGROOVY-4577
p4125
aVGROOVY-4576
p4126
aVGROOVY-4575
p4127
aVGROOVY-4574
p4128
aVGROOVY-4573
p4129
aVGROOVY-4572
p4130
aVGROOVY-4571
p4131
aVGROOVY-4570
p4132
aVGROOVY-4569
p4133
aVGROOVY-4568
p4134
aVGROOVY-4567
p4135
aVGROOVY-4566
p4136
aVGROOVY-4565
p4137
aVGROOVY-4564
p4138
aVGROOVY-4563
p4139
aVGROOVY-4562
p4140
aVGROOVY-4561
p4141
aVGROOVY-4560
p4142
aVGROOVY-4559
p4143
aVGROOVY-4558
p4144
aVGROOVY-4557
p4145
aVGROOVY-4556
p4146
aVGROOVY-4555
p4147
aVGROOVY-4554
p4148
aVGROOVY-4553
p4149
aVGROOVY-4552
p4150
aVGROOVY-4551
p4151
aVGROOVY-4550
p4152
aVGROOVY-4549
p4153
aVGROOVY-4548
p4154
aVGROOVY-4547
p4155
aVGROOVY-4546
p4156
aVGROOVY-4545
p4157
aVGROOVY-4544
p4158
aVGROOVY-4543
p4159
aVGROOVY-4542
p4160
aVGROOVY-4541
p4161
aVGROOVY-4540
p4162
aVGROOVY-4539
p4163
aVGROOVY-4538
p4164
aVGROOVY-4537
p4165
aVGROOVY-4536
p4166
aVGROOVY-4535
p4167
aVGROOVY-4534
p4168
aVGROOVY-4531
p4169
aVGROOVY-4530
p4170
aVGROOVY-4529
p4171
aVGROOVY-4528
p4172
aVGROOVY-4527
p4173
aVGROOVY-4526
p4174
aVGROOVY-4525
p4175
aVGROOVY-4524
p4176
aVGROOVY-4523
p4177
aVGROOVY-4522
p4178
aVGROOVY-4521
p4179
aVGROOVY-4520
p4180
aVGROOVY-4519
p4181
aVGROOVY-4518
p4182
aVGROOVY-4517
p4183
aVGROOVY-4516
p4184
aVGROOVY-4515
p4185
aVGROOVY-4514
p4186
aVGROOVY-4513
p4187
aVGROOVY-4512
p4188
aVGROOVY-4511
p4189
aVGROOVY-4510
p4190
aVGROOVY-4509
p4191
aVGROOVY-4508
p4192
aVGROOVY-4507
p4193
aVGROOVY-4506
p4194
aVGROOVY-4505
p4195
aVGROOVY-4504
p4196
aVGROOVY-4503
p4197
aVGROOVY-4502
p4198
aVGROOVY-4501
p4199
aVGROOVY-4500
p4200
aVGROOVY-4499
p4201
aVGROOVY-4498
p4202
aVGROOVY-4497
p4203
aVGROOVY-4496
p4204
aVGROOVY-4495
p4205
aVGROOVY-4494
p4206
aVGROOVY-4493
p4207
aVGROOVY-4492
p4208
aVGROOVY-4491
p4209
aVGROOVY-4490
p4210
aVGROOVY-4489
p4211
aVGROOVY-4488
p4212
aVGROOVY-4487
p4213
aVGROOVY-4486
p4214
aVGROOVY-4485
p4215
aVGROOVY-4484
p4216
aVGROOVY-4483
p4217
aVGROOVY-4482
p4218
aVGROOVY-4481
p4219
aVGROOVY-4480
p4220
aVGROOVY-4479
p4221
aVGROOVY-4478
p4222
aVGROOVY-4477
p4223
aVGROOVY-4476
p4224
aVGROOVY-4475
p4225
aVGROOVY-4474
p4226
aVGROOVY-4473
p4227
aVGROOVY-4472
p4228
aVGROOVY-4471
p4229
aVGROOVY-4470
p4230
aVGROOVY-4469
p4231
aVGROOVY-4468
p4232
aVGROOVY-4467
p4233
aVGROOVY-4466
p4234
aVGROOVY-4465
p4235
aVGROOVY-4464
p4236
aVGROOVY-4463
p4237
aVGROOVY-4462
p4238
aVGROOVY-4461
p4239
aVGROOVY-4460
p4240
aVGROOVY-4459
p4241
aVGROOVY-4458
p4242
aVGROOVY-4457
p4243
aVGROOVY-4456
p4244
aVGROOVY-4455
p4245
aVGROOVY-4454
p4246
aVGROOVY-4453
p4247
aVGROOVY-4452
p4248
aVGROOVY-4451
p4249
aVGROOVY-4450
p4250
aVGROOVY-4449
p4251
aVGROOVY-4448
p4252
aVGROOVY-4447
p4253
aVGROOVY-4445
p4254
aVGROOVY-4444
p4255
aVGROOVY-4443
p4256
aVGROOVY-4442
p4257
aVGROOVY-4441
p4258
aVGROOVY-4440
p4259
aVGROOVY-4439
p4260
aVGROOVY-4438
p4261
aVGROOVY-4437
p4262
aVGROOVY-4436
p4263
aVGROOVY-4435
p4264
aVGROOVY-4434
p4265
aVGROOVY-4433
p4266
aVGROOVY-4432
p4267
aVGROOVY-4431
p4268
aVGROOVY-4430
p4269
aVGROOVY-4429
p4270
aVGROOVY-4428
p4271
aVGROOVY-4427
p4272
aVGROOVY-4426
p4273
aVGROOVY-4425
p4274
aVGROOVY-4424
p4275
aVGROOVY-4423
p4276
aVGROOVY-4422
p4277
aVGROOVY-4421
p4278
aVGROOVY-4420
p4279
aVGROOVY-4419
p4280
aVGROOVY-4418
p4281
aVGROOVY-4417
p4282
aVGROOVY-4416
p4283
aVGROOVY-4415
p4284
aVGROOVY-4414
p4285
aVGROOVY-4413
p4286
aVGROOVY-4412
p4287
aVGROOVY-4411
p4288
aVGROOVY-4410
p4289
aVGROOVY-4409
p4290
aVGROOVY-4408
p4291
aVGROOVY-4407
p4292
aVGROOVY-4406
p4293
aVGROOVY-4405
p4294
aVGROOVY-4404
p4295
aVGROOVY-4403
p4296
aVGROOVY-4402
p4297
aVGROOVY-4401
p4298
aVGROOVY-4400
p4299
aVGROOVY-4399
p4300
aVGROOVY-4398
p4301
aVGROOVY-4397
p4302
aVGROOVY-4396
p4303
aVGROOVY-4394
p4304
aVGROOVY-4393
p4305
aVGROOVY-4392
p4306
aVGROOVY-4391
p4307
aVGROOVY-4390
p4308
aVGROOVY-4389
p4309
aVGROOVY-4388
p4310
aVGROOVY-4387
p4311
aVGROOVY-4386
p4312
aVGROOVY-4385
p4313
aVGROOVY-4384
p4314
aVGROOVY-4381
p4315
aVGROOVY-4380
p4316
aVGROOVY-4379
p4317
aVGROOVY-4378
p4318
aVGROOVY-4377
p4319
aVGROOVY-4376
p4320
aVGROOVY-4375
p4321
aVGROOVY-4374
p4322
aVGROOVY-4373
p4323
aVGROOVY-4372
p4324
aVGROOVY-4371
p4325
aVGROOVY-4370
p4326
aVGROOVY-4369
p4327
aVGROOVY-4368
p4328
aVGROOVY-4367
p4329
aVGROOVY-4366
p4330
aVGROOVY-4365
p4331
aVGROOVY-4364
p4332
aVGROOVY-4363
p4333
aVGROOVY-4362
p4334
aVGROOVY-4361
p4335
aVGROOVY-4360
p4336
aVGROOVY-4359
p4337
aVGROOVY-4358
p4338
aVGROOVY-4357
p4339
aVGROOVY-4356
p4340
aVGROOVY-4355
p4341
aVGROOVY-4354
p4342
aVGROOVY-4353
p4343
aVGROOVY-4352
p4344
aVGROOVY-4351
p4345
aVGROOVY-4350
p4346
aVGROOVY-4349
p4347
aVGROOVY-4348
p4348
aVGROOVY-4347
p4349
aVGROOVY-4346
p4350
aVGROOVY-4345
p4351
aVGROOVY-4344
p4352
aVGROOVY-4343
p4353
aVGROOVY-4342
p4354
aVGROOVY-4341
p4355
aVGROOVY-4340
p4356
aVGROOVY-4339
p4357
aVGROOVY-4338
p4358
aVGROOVY-4337
p4359
aVGROOVY-4336
p4360
aVGROOVY-4335
p4361
aVGROOVY-4334
p4362
aVGROOVY-4333
p4363
aVGROOVY-4332
p4364
aVGROOVY-4331
p4365
aVGROOVY-4330
p4366
aVGROOVY-4329
p4367
aVGROOVY-4328
p4368
aVGROOVY-4326
p4369
aVGROOVY-4325
p4370
aVGROOVY-4324
p4371
aVGROOVY-4323
p4372
aVGROOVY-4322
p4373
aVGROOVY-4321
p4374
aVGROOVY-4320
p4375
aVGROOVY-4319
p4376
aVGROOVY-4318
p4377
aVGROOVY-4316
p4378
aVGROOVY-4315
p4379
aVGROOVY-4314
p4380
aVGROOVY-4313
p4381
aVGROOVY-4312
p4382
aVGROOVY-4311
p4383
aVGROOVY-4310
p4384
aVGROOVY-4309
p4385
aVGROOVY-4308
p4386
aVGROOVY-4307
p4387
aVGROOVY-4306
p4388
aVGROOVY-4305
p4389
aVGROOVY-4304
p4390
aVGROOVY-4303
p4391
aVGROOVY-4302
p4392
aVGROOVY-4301
p4393
aVGROOVY-4300
p4394
aVGROOVY-4299
p4395
aVGROOVY-4298
p4396
aVGROOVY-4297
p4397
aVGROOVY-4296
p4398
aVGROOVY-4295
p4399
aVGROOVY-4294
p4400
aVGROOVY-4293
p4401
aVGROOVY-4292
p4402
aVGROOVY-4291
p4403
aVGROOVY-4290
p4404
aVGROOVY-4289
p4405
aVGROOVY-4288
p4406
aVGROOVY-4287
p4407
aVGROOVY-4286
p4408
aVGROOVY-4285
p4409
aVGROOVY-4284
p4410
aVGROOVY-4283
p4411
aVGROOVY-4282
p4412
aVGROOVY-4281
p4413
aVGROOVY-4280
p4414
aVGROOVY-4279
p4415
aVGROOVY-4278
p4416
aVGROOVY-4277
p4417
aVGROOVY-4276
p4418
aVGROOVY-4275
p4419
aVGROOVY-4274
p4420
aVGROOVY-4273
p4421
aVGROOVY-4272
p4422
aVGROOVY-4271
p4423
aVGROOVY-4270
p4424
aVGROOVY-4269
p4425
aVGROOVY-4268
p4426
aVGROOVY-4267
p4427
aVGROOVY-4266
p4428
aVGROOVY-4265
p4429
aVGROOVY-4264
p4430
aVGROOVY-4263
p4431
aVGROOVY-4262
p4432
aVGROOVY-4261
p4433
aVGROOVY-4260
p4434
aVGROOVY-4259
p4435
aVGROOVY-4258
p4436
aVGROOVY-4257
p4437
aVGROOVY-4256
p4438
aVGROOVY-4255
p4439
aVGROOVY-4254
p4440
aVGROOVY-4253
p4441
aVGROOVY-4252
p4442
aVGROOVY-4251
p4443
aVGROOVY-4250
p4444
aVGROOVY-4249
p4445
aVGROOVY-4248
p4446
aVGROOVY-4247
p4447
aVGROOVY-4246
p4448
aVGROOVY-4245
p4449
aVGROOVY-4244
p4450
aVGROOVY-4243
p4451
aVGROOVY-4242
p4452
aVGROOVY-4241
p4453
aVGROOVY-4240
p4454
aVGROOVY-4239
p4455
aVGROOVY-4238
p4456
aVGROOVY-4237
p4457
aVGROOVY-4236
p4458
aVGROOVY-4235
p4459
aVGROOVY-4234
p4460
aVGROOVY-4233
p4461
aVGROOVY-4232
p4462
aVGROOVY-4231
p4463
aVGROOVY-4230
p4464
aVGROOVY-4229
p4465
aVGROOVY-4228
p4466
aVGROOVY-4227
p4467
aVGROOVY-4226
p4468
aVGROOVY-4225
p4469
aVGROOVY-4224
p4470
aVGROOVY-4223
p4471
aVGROOVY-4222
p4472
aVGROOVY-4221
p4473
aVGROOVY-4220
p4474
aVGROOVY-4219
p4475
aVGROOVY-4218
p4476
aVGROOVY-4217
p4477
aVGROOVY-4216
p4478
aVGROOVY-4215
p4479
aVGROOVY-4214
p4480
aVGROOVY-4213
p4481
aVGROOVY-4212
p4482
aVGROOVY-4211
p4483
aVGROOVY-4210
p4484
aVGROOVY-4209
p4485
aVGROOVY-4208
p4486
aVGROOVY-4207
p4487
aVGROOVY-4206
p4488
aVGROOVY-4205
p4489
aVGROOVY-4204
p4490
aVGROOVY-4203
p4491
aVGROOVY-4202
p4492
aVGROOVY-4201
p4493
aVGROOVY-4200
p4494
aVGROOVY-4199
p4495
aVGROOVY-4198
p4496
aVGROOVY-4197
p4497
aVGROOVY-4196
p4498
aVGROOVY-4195
p4499
aVGROOVY-4194
p4500
aVGROOVY-4193
p4501
aVGROOVY-4192
p4502
aVGROOVY-4191
p4503
aVGROOVY-4190
p4504
aVGROOVY-4189
p4505
aVGROOVY-4188
p4506
aVGROOVY-4187
p4507
aVGROOVY-4186
p4508
aVGROOVY-4185
p4509
aVGROOVY-4184
p4510
aVGROOVY-4183
p4511
aVGROOVY-4182
p4512
aVGROOVY-4181
p4513
aVGROOVY-4180
p4514
aVGROOVY-4179
p4515
aVGROOVY-4178
p4516
aVGROOVY-4177
p4517
aVGROOVY-4176
p4518
aVGROOVY-4175
p4519
aVGROOVY-4174
p4520
aVGROOVY-4173
p4521
aVGROOVY-4172
p4522
aVGROOVY-4171
p4523
aVGROOVY-4170
p4524
aVGROOVY-4169
p4525
aVGROOVY-4168
p4526
aVGROOVY-4167
p4527
aVGROOVY-4166
p4528
aVGROOVY-4165
p4529
aVGROOVY-4164
p4530
aVGROOVY-4163
p4531
aVGROOVY-4162
p4532
aVGROOVY-4161
p4533
aVGROOVY-4160
p4534
aVGROOVY-4159
p4535
aVGROOVY-4158
p4536
aVGROOVY-4157
p4537
aVGROOVY-4156
p4538
aVGROOVY-4154
p4539
aVGROOVY-4153
p4540
aVGROOVY-4152
p4541
aVGROOVY-4151
p4542
aVGROOVY-4150
p4543
aVGROOVY-4149
p4544
aVGROOVY-4148
p4545
aVGROOVY-4147
p4546
aVGROOVY-4146
p4547
aVGROOVY-4145
p4548
aVGROOVY-4144
p4549
aVGROOVY-4143
p4550
aVGROOVY-4140
p4551
aVGROOVY-4139
p4552
aVGROOVY-4138
p4553
aVGROOVY-4137
p4554
aVGROOVY-4136
p4555
aVGROOVY-4135
p4556
aVGROOVY-4134
p4557
aVGROOVY-4133
p4558
aVGROOVY-4132
p4559
aVGROOVY-4131
p4560
aVGROOVY-4130
p4561
aVGROOVY-4129
p4562
aVGROOVY-4128
p4563
aVGROOVY-4127
p4564
aVGROOVY-4126
p4565
aVGROOVY-4124
p4566
aVGROOVY-4123
p4567
aVGROOVY-4122
p4568
aVGROOVY-4121
p4569
aVGROOVY-4120
p4570
aVGROOVY-4119
p4571
aVGROOVY-4118
p4572
aVGROOVY-4117
p4573
aVGROOVY-4116
p4574
aVGROOVY-4115
p4575
aVGROOVY-4114
p4576
aVGROOVY-4113
p4577
aVGROOVY-4112
p4578
aVGROOVY-4111
p4579
aVGROOVY-4109
p4580
aVGROOVY-4108
p4581
aVGROOVY-4107
p4582
aVGROOVY-4106
p4583
aVGROOVY-4105
p4584
aVGROOVY-4104
p4585
aVGROOVY-4103
p4586
aVGROOVY-4102
p4587
aVGROOVY-4101
p4588
aVGROOVY-4100
p4589
aVGROOVY-4099
p4590
aVGROOVY-4098
p4591
aVGROOVY-4097
p4592
aVGROOVY-4096
p4593
aVGROOVY-4095
p4594
aVGROOVY-4094
p4595
aVGROOVY-4092
p4596
aVGROOVY-4091
p4597
aVGROOVY-4090
p4598
aVGROOVY-4089
p4599
aVGROOVY-4088
p4600
aVGROOVY-4087
p4601
aVGROOVY-4086
p4602
aVGROOVY-4084
p4603
aVGROOVY-4083
p4604
aVGROOVY-4082
p4605
aVGROOVY-4081
p4606
aVGROOVY-4080
p4607
aVGROOVY-4079
p4608
aVGROOVY-4078
p4609
aVGROOVY-4076
p4610
aVGROOVY-4075
p4611
aVGROOVY-4074
p4612
aVGROOVY-4073
p4613
aVGROOVY-4072
p4614
aVGROOVY-4071
p4615
aVGROOVY-4070
p4616
aVGROOVY-4069
p4617
aVGROOVY-4068
p4618
aVGROOVY-4067
p4619
aVGROOVY-4066
p4620
aVGROOVY-4065
p4621
aVGROOVY-4064
p4622
aVGROOVY-4063
p4623
aVGROOVY-4062
p4624
aVGROOVY-4061
p4625
aVGROOVY-4060
p4626
aVGROOVY-4059
p4627
aVGROOVY-4058
p4628
aVGROOVY-4056
p4629
aVGROOVY-4055
p4630
aVGROOVY-4054
p4631
aVGROOVY-4052
p4632
aVGROOVY-4051
p4633
aVGROOVY-4050
p4634
aVGROOVY-4049
p4635
aVGROOVY-4048
p4636
aVGROOVY-4047
p4637
aVGROOVY-4046
p4638
aVGROOVY-4045
p4639
aVGROOVY-4044
p4640
aVGROOVY-4043
p4641
aVGROOVY-4042
p4642
aVGROOVY-4041
p4643
aVGROOVY-4040
p4644
aVGROOVY-4039
p4645
aVGROOVY-4038
p4646
aVGROOVY-4037
p4647
aVGROOVY-4036
p4648
aVGROOVY-4035
p4649
aVGROOVY-4034
p4650
aVGROOVY-4033
p4651
aVGROOVY-4032
p4652
aVGROOVY-4031
p4653
aVGROOVY-4030
p4654
aVGROOVY-4029
p4655
aVGROOVY-4028
p4656
aVGROOVY-4026
p4657
aVGROOVY-4025
p4658
aVGROOVY-4024
p4659
aVGROOVY-4023
p4660
aVGROOVY-4021
p4661
aVGROOVY-4020
p4662
aVGROOVY-4019
p4663
aVGROOVY-4018
p4664
aVGROOVY-4017
p4665
aVGROOVY-4016
p4666
aVGROOVY-4015
p4667
aVGROOVY-4014
p4668
aVGROOVY-4013
p4669
aVGROOVY-4012
p4670
aVGROOVY-4011
p4671
aVGROOVY-4010
p4672
aVGROOVY-4009
p4673
aVGROOVY-4008
p4674
aVGROOVY-4006
p4675
aVGROOVY-4005
p4676
aVGROOVY-4004
p4677
aVGROOVY-4003
p4678
aVGROOVY-4002
p4679
aVGROOVY-4001
p4680
aVGROOVY-3999
p4681
aVGROOVY-3997
p4682
aVGROOVY-3996
p4683
aVGROOVY-3995
p4684
aVGROOVY-3994
p4685
aVGROOVY-3993
p4686
aVGROOVY-3992
p4687
aVGROOVY-3991
p4688
aVGROOVY-3990
p4689
aVGROOVY-3989
p4690
aVGROOVY-3988
p4691
aVGROOVY-3987
p4692
aVGROOVY-3986
p4693
aVGROOVY-3985
p4694
aVGROOVY-3984
p4695
aVGROOVY-3983
p4696
aVGROOVY-3982
p4697
aVGROOVY-3981
p4698
aVGROOVY-3980
p4699
aVGROOVY-3979
p4700
aVGROOVY-3978
p4701
aVGROOVY-3977
p4702
aVGROOVY-3976
p4703
aVGROOVY-3975
p4704
aVGROOVY-3974
p4705
aVGROOVY-3973
p4706
aVGROOVY-3972
p4707
aVGROOVY-3971
p4708
aVGROOVY-3970
p4709
aVGROOVY-3969
p4710
aVGROOVY-3968
p4711
aVGROOVY-3967
p4712
aVGROOVY-3966
p4713
aVGROOVY-3965
p4714
aVGROOVY-3964
p4715
aVGROOVY-3963
p4716
aVGROOVY-3962
p4717
aVGROOVY-3961
p4718
aVGROOVY-3960
p4719
aVGROOVY-3959
p4720
aVGROOVY-3958
p4721
aVGROOVY-3956
p4722
aVGROOVY-3955
p4723
aVGROOVY-3954
p4724
aVGROOVY-3953
p4725
aVGROOVY-3952
p4726
aVGROOVY-3951
p4727
aVGROOVY-3950
p4728
aVGROOVY-3949
p4729
aVGROOVY-3948
p4730
aVGROOVY-3947
p4731
aVGROOVY-3946
p4732
aVGROOVY-3945
p4733
aVGROOVY-3944
p4734
aVGROOVY-3943
p4735
aVGROOVY-3942
p4736
aVGROOVY-3941
p4737
aVGROOVY-3939
p4738
aVGROOVY-3938
p4739
aVGROOVY-3937
p4740
aVGROOVY-3935
p4741
aVGROOVY-3934
p4742
aVGROOVY-3933
p4743
aVGROOVY-3932
p4744
aVGROOVY-3931
p4745
aVGROOVY-3930
p4746
aVGROOVY-3929
p4747
aVGROOVY-3928
p4748
aVGROOVY-3927
p4749
aVGROOVY-3926
p4750
aVGROOVY-3925
p4751
aVGROOVY-3924
p4752
aVGROOVY-3923
p4753
aVGROOVY-3922
p4754
aVGROOVY-3921
p4755
aVGROOVY-3920
p4756
aVGROOVY-3919
p4757
aVGROOVY-3918
p4758
aVGROOVY-3917
p4759
aVGROOVY-3916
p4760
aVGROOVY-3915
p4761
aVGROOVY-3914
p4762
aVGROOVY-3913
p4763
aVGROOVY-3912
p4764
aVGROOVY-3911
p4765
aVGROOVY-3910
p4766
aVGROOVY-3909
p4767
aVGROOVY-3908
p4768
aVGROOVY-3907
p4769
aVGROOVY-3906
p4770
aVGROOVY-3905
p4771
aVGROOVY-3904
p4772
aVGROOVY-3903
p4773
aVGROOVY-3898
p4774
aVGROOVY-3897
p4775
aVGROOVY-3896
p4776
aVGROOVY-3895
p4777
aVGROOVY-3894
p4778
aVGROOVY-3893
p4779
aVGROOVY-3892
p4780
aVGROOVY-3891
p4781
aVGROOVY-3890
p4782
aVGROOVY-3888
p4783
aVGROOVY-3887
p4784
aVGROOVY-3886
p4785
aVGROOVY-3885
p4786
aVGROOVY-3884
p4787
aVGROOVY-3883
p4788
aVGROOVY-3882
p4789
aVGROOVY-3881
p4790
aVGROOVY-3880
p4791
aVGROOVY-3879
p4792
aVGROOVY-3878
p4793
aVGROOVY-3877
p4794
aVGROOVY-3876
p4795
aVGROOVY-3875
p4796
aVGROOVY-3874
p4797
aVGROOVY-3873
p4798
aVGROOVY-3872
p4799
aVGROOVY-3871
p4800
aVGROOVY-3870
p4801
aVGROOVY-3869
p4802
aVGROOVY-3868
p4803
aVGROOVY-3867
p4804
aVGROOVY-3866
p4805
aVGROOVY-3865
p4806
aVGROOVY-3864
p4807
aVGROOVY-3863
p4808
aVGROOVY-3862
p4809
aVGROOVY-3861
p4810
aVGROOVY-3860
p4811
aVGROOVY-3859
p4812
aVGROOVY-3858
p4813
aVGROOVY-3857
p4814
aVGROOVY-3856
p4815
aVGROOVY-3855
p4816
aVGROOVY-3854
p4817
aVGROOVY-3853
p4818
aVGROOVY-3852
p4819
aVGROOVY-3851
p4820
aVGROOVY-3850
p4821
aVGROOVY-3849
p4822
aVGROOVY-3848
p4823
aVGROOVY-3847
p4824
aVGROOVY-3846
p4825
aVGROOVY-3845
p4826
aVGROOVY-3844
p4827
aVGROOVY-3843
p4828
aVGROOVY-3842
p4829
aVGROOVY-3841
p4830
aVGROOVY-3840
p4831
aVGROOVY-3839
p4832
aVGROOVY-3838
p4833
aVGROOVY-3837
p4834
aVGROOVY-3836
p4835
aVGROOVY-3835
p4836
aVGROOVY-3834
p4837
aVGROOVY-3833
p4838
aVGROOVY-3832
p4839
aVGROOVY-3831
p4840
aVGROOVY-3830
p4841
aVGROOVY-3829
p4842
aVGROOVY-3828
p4843
aVGROOVY-3827
p4844
aVGROOVY-3826
p4845
aVGROOVY-3825
p4846
aVGROOVY-3823
p4847
aVGROOVY-3821
p4848
aVGROOVY-3820
p4849
aVGROOVY-3819
p4850
aVGROOVY-3818
p4851
aVGROOVY-3817
p4852
aVGROOVY-3816
p4853
aVGROOVY-3815
p4854
aVGROOVY-3813
p4855
aVGROOVY-3812
p4856
aVGROOVY-3811
p4857
aVGROOVY-3810
p4858
aVGROOVY-3809
p4859
aVGROOVY-3808
p4860
aVGROOVY-3807
p4861
aVGROOVY-3806
p4862
aVGROOVY-3805
p4863
aVGROOVY-3804
p4864
aVGROOVY-3803
p4865
aVGROOVY-3802
p4866
aVGROOVY-3801
p4867
aVGROOVY-3800
p4868
aVGROOVY-3799
p4869
aVGROOVY-3798
p4870
aVGROOVY-3797
p4871
aVGROOVY-3796
p4872
aVGROOVY-3795
p4873
aVGROOVY-3794
p4874
aVGROOVY-3793
p4875
aVGROOVY-3792
p4876
aVGROOVY-3791
p4877
aVGROOVY-3790
p4878
aVGROOVY-3789
p4879
aVGROOVY-3788
p4880
aVGROOVY-3787
p4881
aVGROOVY-3786
p4882
aVGROOVY-3785
p4883
aVGROOVY-3784
p4884
aVGROOVY-3783
p4885
aVGROOVY-3782
p4886
aVGROOVY-3781
p4887
aVGROOVY-3780
p4888
aVGROOVY-3779
p4889
aVGROOVY-3778
p4890
aVGROOVY-3777
p4891
aVGROOVY-3776
p4892
aVGROOVY-3775
p4893
aVGROOVY-3774
p4894
aVGROOVY-3773
p4895
aVGROOVY-3772
p4896
aVGROOVY-3770
p4897
aVGROOVY-3769
p4898
aVGROOVY-3768
p4899
aVGROOVY-3765
p4900
aVGROOVY-3764
p4901
aVGROOVY-3763
p4902
aVGROOVY-3762
p4903
aVGROOVY-3761
p4904
aVGROOVY-3760
p4905
aVGROOVY-3755
p4906
aVGROOVY-3754
p4907
aVGROOVY-3753
p4908
aVGROOVY-3752
p4909
aVGROOVY-3751
p4910
aVGROOVY-3750
p4911
aVGROOVY-3749
p4912
aVGROOVY-3748
p4913
aVGROOVY-3745
p4914
aVGROOVY-3741
p4915
aVGROOVY-3740
p4916
aVGROOVY-3739
p4917
aVGROOVY-3738
p4918
aVGROOVY-3737
p4919
aVGROOVY-3736
p4920
aVGROOVY-3735
p4921
aVGROOVY-3734
p4922
aVGROOVY-3733
p4923
aVGROOVY-3732
p4924
aVGROOVY-3731
p4925
aVGROOVY-3730
p4926
aVGROOVY-3729
p4927
aVGROOVY-3728
p4928
aVGROOVY-3727
p4929
aVGROOVY-3726
p4930
aVGROOVY-3725
p4931
aVGROOVY-3723
p4932
aVGROOVY-3722
p4933
aVGROOVY-3721
p4934
aVGROOVY-3720
p4935
aVGROOVY-3719
p4936
aVGROOVY-3718
p4937
aVGROOVY-3717
p4938
aVGROOVY-3716
p4939
aVGROOVY-3715
p4940
aVGROOVY-3714
p4941
aVGROOVY-3713
p4942
aVGROOVY-3712
p4943
aVGROOVY-3711
p4944
aVGROOVY-3710
p4945
aVGROOVY-3709
p4946
aVGROOVY-3708
p4947
aVGROOVY-3707
p4948
aVGROOVY-3706
p4949
aVGROOVY-3705
p4950
aVGROOVY-3704
p4951
aVGROOVY-3703
p4952
aVGROOVY-3702
p4953
aVGROOVY-3701
p4954
aVGROOVY-3700
p4955
aVGROOVY-3699
p4956
aVGROOVY-3698
p4957
aVGROOVY-3697
p4958
aVGROOVY-3696
p4959
aVGROOVY-3695
p4960
aVGROOVY-3694
p4961
aVGROOVY-3693
p4962
aVGROOVY-3692
p4963
aVGROOVY-3691
p4964
aVGROOVY-3690
p4965
aVGROOVY-3689
p4966
aVGROOVY-3688
p4967
aVGROOVY-3687
p4968
aVGROOVY-3686
p4969
aVGROOVY-3685
p4970
aVGROOVY-3684
p4971
aVGROOVY-3683
p4972
aVGROOVY-3681
p4973
aVGROOVY-3680
p4974
aVGROOVY-3679
p4975
aVGROOVY-3678
p4976
aVGROOVY-3677
p4977
aVGROOVY-3676
p4978
aVGROOVY-3675
p4979
aVGROOVY-3674
p4980
aVGROOVY-3673
p4981
aVGROOVY-3672
p4982
aVGROOVY-3671
p4983
aVGROOVY-3670
p4984
aVGROOVY-3669
p4985
aVGROOVY-3668
p4986
aVGROOVY-3667
p4987
aVGROOVY-3666
p4988
aVGROOVY-3665
p4989
aVGROOVY-3664
p4990
aVGROOVY-3663
p4991
aVGROOVY-3662
p4992
aVGROOVY-3661
p4993
aVGROOVY-3660
p4994
aVGROOVY-3659
p4995
aVGROOVY-3658
p4996
aVGROOVY-3657
p4997
aVGROOVY-3656
p4998
aVGROOVY-3654
p4999
aVGROOVY-3653
p5000
aVGROOVY-3652
p5001
aVGROOVY-3651
p5002
aVGROOVY-3650
p5003
aVGROOVY-3649
p5004
aVGROOVY-3648
p5005
aVGROOVY-3647
p5006
aVGROOVY-3646
p5007
aVGROOVY-3645
p5008
aVGROOVY-3644
p5009
aVGROOVY-3643
p5010
aVGROOVY-3642
p5011
aVGROOVY-3641
p5012
aVGROOVY-3640
p5013
aVGROOVY-3634
p5014
aVGROOVY-3633
p5015
aVGROOVY-3632
p5016
aVGROOVY-3631
p5017
aVGROOVY-3630
p5018
aVGROOVY-3629
p5019
aVGROOVY-3628
p5020
aVGROOVY-3627
p5021
aVGROOVY-3626
p5022
aVGROOVY-3625
p5023
aVGROOVY-3624
p5024
aVGROOVY-3623
p5025
aVGROOVY-3622
p5026
aVGROOVY-3621
p5027
aVGROOVY-3620
p5028
aVGROOVY-3619
p5029
aVGROOVY-3618
p5030
aVGROOVY-3617
p5031
aVGROOVY-3616
p5032
aVGROOVY-3615
p5033
aVGROOVY-3614
p5034
aVGROOVY-3613
p5035
aVGROOVY-3612
p5036
aVGROOVY-3611
p5037
aVGROOVY-3610
p5038
aVGROOVY-3609
p5039
aVGROOVY-3608
p5040
aVGROOVY-3607
p5041
aVGROOVY-3606
p5042
aVGROOVY-3605
p5043
aVGROOVY-3604
p5044
aVGROOVY-3603
p5045
aVGROOVY-3602
p5046
aVGROOVY-3601
p5047
aVGROOVY-3600
p5048
aVGROOVY-3599
p5049
aVGROOVY-3598
p5050
aVGROOVY-3597
p5051
aVGROOVY-3596
p5052
aVGROOVY-3595
p5053
aVGROOVY-3594
p5054
aVGROOVY-3593
p5055
aVGROOVY-3592
p5056
aVGROOVY-3591
p5057
aVGROOVY-3590
p5058
aVGROOVY-3589
p5059
aVGROOVY-3588
p5060
aVGROOVY-3587
p5061
aVGROOVY-3586
p5062
aVGROOVY-3585
p5063
aVGROOVY-3584
p5064
aVGROOVY-3583
p5065
aVGROOVY-3582
p5066
aVGROOVY-3581
p5067
aVGROOVY-3580
p5068
aVGROOVY-3579
p5069
aVGROOVY-3578
p5070
aVGROOVY-3577
p5071
aVGROOVY-3576
p5072
aVGROOVY-3575
p5073
aVGROOVY-3574
p5074
aVGROOVY-3573
p5075
aVGROOVY-3572
p5076
aVGROOVY-3571
p5077
aVGROOVY-3570
p5078
aVGROOVY-3569
p5079
aVGROOVY-3568
p5080
aVGROOVY-3567
p5081
aVGROOVY-3566
p5082
aVGROOVY-3565
p5083
aVGROOVY-3564
p5084
aVGROOVY-3561
p5085
aVGROOVY-3560
p5086
aVGROOVY-3559
p5087
aVGROOVY-3558
p5088
aVGROOVY-3557
p5089
aVGROOVY-3556
p5090
aVGROOVY-3555
p5091
aVGROOVY-3554
p5092
aVGROOVY-3553
p5093
aVGROOVY-3552
p5094
aVGROOVY-3551
p5095
aVGROOVY-3550
p5096
aVGROOVY-3549
p5097
aVGROOVY-3548
p5098
aVGROOVY-3547
p5099
aVGROOVY-3546
p5100
aVGROOVY-3545
p5101
aVGROOVY-3544
p5102
aVGROOVY-3543
p5103
aVGROOVY-3542
p5104
aVGROOVY-3541
p5105
aVGROOVY-3540
p5106
aVGROOVY-3539
p5107
aVGROOVY-3538
p5108
aVGROOVY-3537
p5109
aVGROOVY-3536
p5110
aVGROOVY-3535
p5111
aVGROOVY-3534
p5112
aVGROOVY-3533
p5113
aVGROOVY-3532
p5114
aVGROOVY-3531
p5115
aVGROOVY-3530
p5116
aVGROOVY-3529
p5117
aVGROOVY-3528
p5118
aVGROOVY-3527
p5119
aVGROOVY-3526
p5120
aVGROOVY-3525
p5121
aVGROOVY-3524
p5122
aVGROOVY-3523
p5123
aVGROOVY-3522
p5124
aVGROOVY-3521
p5125
aVGROOVY-3520
p5126
aVGROOVY-3519
p5127
aVGROOVY-3518
p5128
aVGROOVY-3517
p5129
aVGROOVY-3516
p5130
aVGROOVY-3515
p5131
aVGROOVY-3513
p5132
aVGROOVY-3512
p5133
aVGROOVY-3511
p5134
aVGROOVY-3510
p5135
aVGROOVY-3509
p5136
aVGROOVY-3508
p5137
aVGROOVY-3507
p5138
aVGROOVY-3506
p5139
aVGROOVY-3505
p5140
aVGROOVY-3504
p5141
aVGROOVY-3503
p5142
aVGROOVY-3502
p5143
aVGROOVY-3501
p5144
aVGROOVY-3500
p5145
aVGROOVY-3499
p5146
aVGROOVY-3498
p5147
aVGROOVY-3497
p5148
aVGROOVY-3496
p5149
aVGROOVY-3495
p5150
aVGROOVY-3494
p5151
aVGROOVY-3493
p5152
aVGROOVY-3492
p5153
aVGROOVY-3491
p5154
aVGROOVY-3490
p5155
aVGROOVY-3489
p5156
aVGROOVY-3488
p5157
aVGROOVY-3487
p5158
aVGROOVY-3486
p5159
aVGROOVY-3485
p5160
aVGROOVY-3484
p5161
aVGROOVY-3483
p5162
aVGROOVY-3482
p5163
aVGROOVY-3481
p5164
aVGROOVY-3480
p5165
aVGROOVY-3479
p5166
aVGROOVY-3478
p5167
aVGROOVY-3477
p5168
aVGROOVY-3476
p5169
aVGROOVY-3475
p5170
aVGROOVY-3474
p5171
aVGROOVY-3473
p5172
aVGROOVY-3472
p5173
aVGROOVY-3471
p5174
aVGROOVY-3470
p5175
aVGROOVY-3469
p5176
aVGROOVY-3468
p5177
aVGROOVY-3467
p5178
aVGROOVY-3466
p5179
aVGROOVY-3465
p5180
aVGROOVY-3464
p5181
aVGROOVY-3463
p5182
aVGROOVY-3462
p5183
aVGROOVY-3461
p5184
aVGROOVY-3460
p5185
aVGROOVY-3459
p5186
aVGROOVY-3458
p5187
aVGROOVY-3457
p5188
aVGROOVY-3456
p5189
aVGROOVY-3455
p5190
aVGROOVY-3454
p5191
aVGROOVY-3453
p5192
aVGROOVY-3452
p5193
aVGROOVY-3451
p5194
aVGROOVY-3450
p5195
aVGROOVY-3449
p5196
aVGROOVY-3448
p5197
aVGROOVY-3447
p5198
aVGROOVY-3446
p5199
aVGROOVY-3445
p5200
aVGROOVY-3444
p5201
aVGROOVY-3443
p5202
aVGROOVY-3442
p5203
aVGROOVY-3441
p5204
aVGROOVY-3440
p5205
aVGROOVY-3439
p5206
aVGROOVY-3438
p5207
aVGROOVY-3437
p5208
aVGROOVY-3436
p5209
aVGROOVY-3435
p5210
aVGROOVY-3434
p5211
aVGROOVY-3433
p5212
aVGROOVY-3432
p5213
aVGROOVY-3431
p5214
aVGROOVY-3430
p5215
aVGROOVY-3429
p5216
aVGROOVY-3428
p5217
aVGROOVY-3427
p5218
aVGROOVY-3426
p5219
aVGROOVY-3425
p5220
aVGROOVY-3424
p5221
aVGROOVY-3423
p5222
aVGROOVY-3422
p5223
aVGROOVY-3421
p5224
aVGROOVY-3420
p5225
aVGROOVY-3419
p5226
aVGROOVY-3418
p5227
aVGROOVY-3417
p5228
aVGROOVY-3416
p5229
aVGROOVY-3415
p5230
aVGROOVY-3414
p5231
aVGROOVY-3413
p5232
aVGROOVY-3412
p5233
aVGROOVY-3411
p5234
aVGROOVY-3410
p5235
aVGROOVY-3409
p5236
aVGROOVY-3408
p5237
aVGROOVY-3407
p5238
aVGROOVY-3406
p5239
aVGROOVY-3405
p5240
aVGROOVY-3404
p5241
aVGROOVY-3403
p5242
aVGROOVY-3402
p5243
aVGROOVY-3401
p5244
aVGROOVY-3400
p5245
aVGROOVY-3399
p5246
aVGROOVY-3398
p5247
aVGROOVY-3397
p5248
aVGROOVY-3396
p5249
aVGROOVY-3395
p5250
aVGROOVY-3394
p5251
aVGROOVY-3393
p5252
aVGROOVY-3392
p5253
aVGROOVY-3391
p5254
aVGROOVY-3390
p5255
aVGROOVY-3389
p5256
aVGROOVY-3388
p5257
aVGROOVY-3387
p5258
aVGROOVY-3386
p5259
aVGROOVY-3385
p5260
aVGROOVY-3384
p5261
aVGROOVY-3383
p5262
aVGROOVY-3382
p5263
aVGROOVY-3381
p5264
aVGROOVY-3380
p5265
aVGROOVY-3379
p5266
aVGROOVY-3378
p5267
aVGROOVY-3377
p5268
aVGROOVY-3376
p5269
aVGROOVY-3375
p5270
aVGROOVY-3374
p5271
aVGROOVY-3373
p5272
aVGROOVY-3372
p5273
aVGROOVY-3370
p5274
aVGROOVY-3369
p5275
aVGROOVY-3368
p5276
aVGROOVY-3367
p5277
aVGROOVY-3366
p5278
aVGROOVY-3365
p5279
aVGROOVY-3364
p5280
aVGROOVY-3363
p5281
aVGROOVY-3361
p5282
aVGROOVY-3360
p5283
aVGROOVY-3359
p5284
aVGROOVY-3358
p5285
aVGROOVY-3357
p5286
aVGROOVY-3356
p5287
aVGROOVY-3355
p5288
aVGROOVY-3354
p5289
aVGROOVY-3353
p5290
aVGROOVY-3352
p5291
aVGROOVY-3351
p5292
aVGROOVY-3350
p5293
aVGROOVY-3349
p5294
aVGROOVY-3348
p5295
aVGROOVY-3347
p5296
aVGROOVY-3346
p5297
aVGROOVY-3345
p5298
aVGROOVY-3344
p5299
aVGROOVY-3343
p5300
aVGROOVY-3342
p5301
aVGROOVY-3341
p5302
aVGROOVY-3339
p5303
aVGROOVY-3338
p5304
aVGROOVY-3337
p5305
aVGROOVY-3336
p5306
aVGROOVY-3335
p5307
aVGROOVY-3334
p5308
aVGROOVY-3333
p5309
aVGROOVY-3332
p5310
aVGROOVY-3331
p5311
aVGROOVY-3330
p5312
aVGROOVY-3329
p5313
aVGROOVY-3328
p5314
aVGROOVY-3327
p5315
aVGROOVY-3326
p5316
aVGROOVY-3325
p5317
aVGROOVY-3324
p5318
aVGROOVY-3323
p5319
aVGROOVY-3322
p5320
aVGROOVY-3321
p5321
aVGROOVY-3320
p5322
aVGROOVY-3319
p5323
aVGROOVY-3318
p5324
aVGROOVY-3317
p5325
aVGROOVY-3316
p5326
aVGROOVY-3315
p5327
aVGROOVY-3314
p5328
aVGROOVY-3313
p5329
aVGROOVY-3312
p5330
aVGROOVY-3311
p5331
aVGROOVY-3310
p5332
aVGROOVY-3309
p5333
aVGROOVY-3307
p5334
aVGROOVY-3306
p5335
aVGROOVY-3305
p5336
aVGROOVY-3304
p5337
aVGROOVY-3303
p5338
aVGROOVY-3302
p5339
aVGROOVY-3301
p5340
aVGROOVY-3300
p5341
aVGROOVY-3299
p5342
aVGROOVY-3298
p5343
aVGROOVY-3297
p5344
aVGROOVY-3296
p5345
aVGROOVY-3295
p5346
aVGROOVY-3294
p5347
aVGROOVY-3293
p5348
aVGROOVY-3292
p5349
aVGROOVY-3291
p5350
aVGROOVY-3290
p5351
aVGROOVY-3289
p5352
aVGROOVY-3288
p5353
aVGROOVY-3287
p5354
aVGROOVY-3286
p5355
aVGROOVY-3285
p5356
aVGROOVY-3284
p5357
aVGROOVY-3283
p5358
aVGROOVY-3282
p5359
aVGROOVY-3281
p5360
aVGROOVY-3280
p5361
aVGROOVY-3279
p5362
aVGROOVY-3278
p5363
aVGROOVY-3277
p5364
aVGROOVY-3276
p5365
aVGROOVY-3275
p5366
aVGROOVY-3274
p5367
aVGROOVY-3273
p5368
aVGROOVY-3272
p5369
aVGROOVY-3271
p5370
aVGROOVY-3270
p5371
aVGROOVY-3269
p5372
aVGROOVY-3268
p5373
aVGROOVY-3267
p5374
aVGROOVY-3266
p5375
aVGROOVY-3265
p5376
aVGROOVY-3264
p5377
aVGROOVY-3263
p5378
aVGROOVY-3262
p5379
aVGROOVY-3261
p5380
aVGROOVY-3260
p5381
aVGROOVY-3259
p5382
aVGROOVY-3258
p5383
aVGROOVY-3257
p5384
aVGROOVY-3256
p5385
aVGROOVY-3255
p5386
aVGROOVY-3254
p5387
aVGROOVY-3253
p5388
aVGROOVY-3252
p5389
aVGROOVY-3251
p5390
aVGROOVY-3250
p5391
aVGROOVY-3249
p5392
aVGROOVY-3248
p5393
aVGROOVY-3247
p5394
aVGROOVY-3246
p5395
aVGROOVY-3245
p5396
aVGROOVY-3244
p5397
aVGROOVY-3243
p5398
aVGROOVY-3242
p5399
aVGROOVY-3241
p5400
aVGROOVY-3240
p5401
aVGROOVY-3239
p5402
aVGROOVY-3238
p5403
aVGROOVY-3237
p5404
aVGROOVY-3236
p5405
aVGROOVY-3235
p5406
aVGROOVY-3234
p5407
aVGROOVY-3233
p5408
aVGROOVY-3232
p5409
aVGROOVY-3231
p5410
aVGROOVY-3230
p5411
aVGROOVY-3229
p5412
aVGROOVY-3228
p5413
aVGROOVY-3227
p5414
aVGROOVY-3226
p5415
aVGROOVY-3225
p5416
aVGROOVY-3224
p5417
aVGROOVY-3223
p5418
aVGROOVY-3222
p5419
aVGROOVY-3221
p5420
aVGROOVY-3220
p5421
aVGROOVY-3219
p5422
aVGROOVY-3218
p5423
aVGROOVY-3217
p5424
aVGROOVY-3215
p5425
aVGROOVY-3214
p5426
aVGROOVY-3213
p5427
aVGROOVY-3211
p5428
aVGROOVY-3210
p5429
aVGROOVY-3209
p5430
aVGROOVY-3208
p5431
aVGROOVY-3207
p5432
aVGROOVY-3206
p5433
aVGROOVY-3205
p5434
aVGROOVY-3203
p5435
aVGROOVY-3202
p5436
aVGROOVY-3201
p5437
aVGROOVY-3200
p5438
aVGROOVY-3199
p5439
aVGROOVY-3198
p5440
aVGROOVY-3197
p5441
aVGROOVY-3195
p5442
aVGROOVY-3194
p5443
aVGROOVY-3193
p5444
aVGROOVY-3192
p5445
aVGROOVY-3191
p5446
aVGROOVY-3190
p5447
aVGROOVY-3189
p5448
aVGROOVY-3188
p5449
aVGROOVY-3187
p5450
aVGROOVY-3186
p5451
aVGROOVY-3185
p5452
aVGROOVY-3184
p5453
aVGROOVY-3183
p5454
aVGROOVY-3182
p5455
aVGROOVY-3181
p5456
aVGROOVY-3180
p5457
aVGROOVY-3179
p5458
aVGROOVY-3178
p5459
aVGROOVY-3177
p5460
aVGROOVY-3176
p5461
aVGROOVY-3175
p5462
aVGROOVY-3174
p5463
aVGROOVY-3173
p5464
aVGROOVY-3172
p5465
aVGROOVY-3171
p5466
aVGROOVY-3170
p5467
aVGROOVY-3169
p5468
aVGROOVY-3168
p5469
aVGROOVY-3167
p5470
aVGROOVY-3165
p5471
aVGROOVY-3164
p5472
aVGROOVY-3163
p5473
aVGROOVY-3162
p5474
aVGROOVY-3161
p5475
aVGROOVY-3160
p5476
aVGROOVY-3159
p5477
aVGROOVY-3158
p5478
aVGROOVY-3157
p5479
aVGROOVY-3156
p5480
aVGROOVY-3155
p5481
aVGROOVY-3154
p5482
aVGROOVY-3153
p5483
aVGROOVY-3152
p5484
aVGROOVY-3151
p5485
aVGROOVY-3150
p5486
aVGROOVY-3149
p5487
aVGROOVY-3148
p5488
aVGROOVY-3147
p5489
aVGROOVY-3146
p5490
aVGROOVY-3145
p5491
aVGROOVY-3144
p5492
aVGROOVY-3143
p5493
aVGROOVY-3142
p5494
aVGROOVY-3141
p5495
aVGROOVY-3140
p5496
aVGROOVY-3139
p5497
aVGROOVY-3138
p5498
aVGROOVY-3137
p5499
aVGROOVY-3136
p5500
aVGROOVY-3135
p5501
aVGROOVY-3134
p5502
aVGROOVY-3133
p5503
aVGROOVY-3132
p5504
aVGROOVY-3129
p5505
aVGROOVY-3128
p5506
aVGROOVY-3127
p5507
aVGROOVY-3126
p5508
aVGROOVY-3125
p5509
aVGROOVY-3124
p5510
aVGROOVY-3123
p5511
aVGROOVY-3122
p5512
aVGROOVY-3121
p5513
aVGROOVY-3120
p5514
aVGROOVY-3119
p5515
aVGROOVY-3118
p5516
aVGROOVY-3117
p5517
aVGROOVY-3116
p5518
aVGROOVY-3115
p5519
aVGROOVY-3114
p5520
aVGROOVY-3113
p5521
aVGROOVY-3112
p5522
aVGROOVY-3111
p5523
aVGROOVY-3110
p5524
aVGROOVY-3109
p5525
aVGROOVY-3108
p5526
aVGROOVY-3107
p5527
aVGROOVY-3106
p5528
aVGROOVY-3105
p5529
aVGROOVY-3104
p5530
aVGROOVY-3103
p5531
aVGROOVY-3102
p5532
aVGROOVY-3101
p5533
aVGROOVY-3100
p5534
aVGROOVY-3099
p5535
aVGROOVY-3098
p5536
aVGROOVY-3097
p5537
aVGROOVY-3096
p5538
aVGROOVY-3095
p5539
aVGROOVY-3094
p5540
aVGROOVY-3093
p5541
aVGROOVY-3092
p5542
aVGROOVY-3091
p5543
aVGROOVY-3090
p5544
aVGROOVY-3089
p5545
aVGROOVY-3088
p5546
aVGROOVY-3087
p5547
aVGROOVY-3086
p5548
aVGROOVY-3085
p5549
aVGROOVY-3084
p5550
aVGROOVY-3083
p5551
aVGROOVY-3082
p5552
aVGROOVY-3081
p5553
aVGROOVY-3080
p5554
aVGROOVY-3079
p5555
aVGROOVY-3078
p5556
aVGROOVY-3077
p5557
aVGROOVY-3076
p5558
aVGROOVY-3075
p5559
aVGROOVY-3074
p5560
aVGROOVY-3073
p5561
aVGROOVY-3072
p5562
aVGROOVY-3071
p5563
aVGROOVY-3070
p5564
aVGROOVY-3069
p5565
aVGROOVY-3068
p5566
aVGROOVY-3067
p5567
aVGROOVY-3066
p5568
aVGROOVY-3065
p5569
aVGROOVY-3064
p5570
aVGROOVY-3063
p5571
aVGROOVY-3062
p5572
aVGROOVY-3061
p5573
aVGROOVY-3059
p5574
aVGROOVY-3058
p5575
aVGROOVY-3057
p5576
aVGROOVY-3056
p5577
aVGROOVY-3055
p5578
aVGROOVY-3054
p5579
aVGROOVY-3053
p5580
aVGROOVY-3052
p5581
aVGROOVY-3051
p5582
aVGROOVY-3050
p5583
aVGROOVY-3049
p5584
aVGROOVY-3048
p5585
aVGROOVY-3047
p5586
aVGROOVY-3046
p5587
aVGROOVY-3045
p5588
aVGROOVY-3044
p5589
aVGROOVY-3043
p5590
aVGROOVY-3042
p5591
aVGROOVY-3041
p5592
aVGROOVY-3039
p5593
aVGROOVY-3038
p5594
aVGROOVY-3036
p5595
aVGROOVY-3035
p5596
aVGROOVY-3034
p5597
aVGROOVY-3033
p5598
aVGROOVY-3032
p5599
aVGROOVY-3031
p5600
aVGROOVY-3030
p5601
aVGROOVY-3029
p5602
aVGROOVY-3028
p5603
aVGROOVY-3025
p5604
aVGROOVY-3024
p5605
aVGROOVY-3023
p5606
aVGROOVY-3022
p5607
aVGROOVY-3021
p5608
aVGROOVY-3019
p5609
aVGROOVY-3018
p5610
aVGROOVY-3017
p5611
aVGROOVY-3016
p5612
aVGROOVY-3015
p5613
aVGROOVY-3014
p5614
aVGROOVY-3013
p5615
aVGROOVY-3012
p5616
aVGROOVY-3011
p5617
aVGROOVY-3010
p5618
aVGROOVY-3009
p5619
aVGROOVY-3008
p5620
aVGROOVY-3007
p5621
aVGROOVY-3006
p5622
aVGROOVY-3004
p5623
aVGROOVY-3003
p5624
aVGROOVY-3002
p5625
aVGROOVY-3001
p5626
aVGROOVY-3000
p5627
aVGROOVY-2999
p5628
aVGROOVY-2998
p5629
aVGROOVY-2997
p5630
aVGROOVY-2996
p5631
aVGROOVY-2995
p5632
aVGROOVY-2994
p5633
aVGROOVY-2993
p5634
aVGROOVY-2992
p5635
aVGROOVY-2991
p5636
aVGROOVY-2990
p5637
aVGROOVY-2989
p5638
aVGROOVY-2988
p5639
aVGROOVY-2987
p5640
aVGROOVY-2986
p5641
aVGROOVY-2985
p5642
aVGROOVY-2984
p5643
aVGROOVY-2983
p5644
aVGROOVY-2982
p5645
aVGROOVY-2981
p5646
aVGROOVY-2980
p5647
aVGROOVY-2979
p5648
aVGROOVY-2978
p5649
aVGROOVY-2977
p5650
aVGROOVY-2976
p5651
aVGROOVY-2975
p5652
aVGROOVY-2974
p5653
aVGROOVY-2973
p5654
aVGROOVY-2972
p5655
aVGROOVY-2971
p5656
aVGROOVY-2970
p5657
aVGROOVY-2969
p5658
aVGROOVY-2968
p5659
aVGROOVY-2967
p5660
aVGROOVY-2966
p5661
aVGROOVY-2965
p5662
aVGROOVY-2964
p5663
aVGROOVY-2963
p5664
aVGROOVY-2962
p5665
aVGROOVY-2961
p5666
aVGROOVY-2960
p5667
aVGROOVY-2959
p5668
aVGROOVY-2958
p5669
aVGROOVY-2957
p5670
aVGROOVY-2956
p5671
aVGROOVY-2955
p5672
aVGROOVY-2954
p5673
aVGROOVY-2952
p5674
aVGROOVY-2951
p5675
aVGROOVY-2950
p5676
aVGROOVY-2949
p5677
aVGROOVY-2948
p5678
aVGROOVY-2947
p5679
aVGROOVY-2946
p5680
aVGROOVY-2945
p5681
aVGROOVY-2944
p5682
aVGROOVY-2943
p5683
aVGROOVY-2942
p5684
aVGROOVY-2940
p5685
aVGROOVY-2939
p5686
aVGROOVY-2938
p5687
aVGROOVY-2937
p5688
aVGROOVY-2936
p5689
aVGROOVY-2935
p5690
aVGROOVY-2933
p5691
aVGROOVY-2932
p5692
aVGROOVY-2931
p5693
aVGROOVY-2928
p5694
aVGROOVY-2927
p5695
aVGROOVY-2925
p5696
aVGROOVY-2924
p5697
aVGROOVY-2922
p5698
aVGROOVY-2921
p5699
aVGROOVY-2920
p5700
aVGROOVY-2919
p5701
aVGROOVY-2918
p5702
aVGROOVY-2917
p5703
aVGROOVY-2916
p5704
aVGROOVY-2915
p5705
aVGROOVY-2914
p5706
aVGROOVY-2913
p5707
aVGROOVY-2912
p5708
aVGROOVY-2911
p5709
aVGROOVY-2910
p5710
aVGROOVY-2909
p5711
aVGROOVY-2908
p5712
aVGROOVY-2907
p5713
aVGROOVY-2906
p5714
aVGROOVY-2905
p5715
aVGROOVY-2904
p5716
aVGROOVY-2903
p5717
aVGROOVY-2902
p5718
aVGROOVY-2901
p5719
aVGROOVY-2900
p5720
aVGROOVY-2899
p5721
aVGROOVY-2898
p5722
aVGROOVY-2897
p5723
aVGROOVY-2896
p5724
aVGROOVY-2895
p5725
aVGROOVY-2894
p5726
aVGROOVY-2893
p5727
aVGROOVY-2892
p5728
aVGROOVY-2891
p5729
aVGROOVY-2890
p5730
aVGROOVY-2889
p5731
aVGROOVY-2887
p5732
aVGROOVY-2886
p5733
aVGROOVY-2885
p5734
aVGROOVY-2884
p5735
aVGROOVY-2883
p5736
aVGROOVY-2882
p5737
aVGROOVY-2881
p5738
aVGROOVY-2880
p5739
aVGROOVY-2879
p5740
aVGROOVY-2878
p5741
aVGROOVY-2877
p5742
aVGROOVY-2876
p5743
aVGROOVY-2875
p5744
aVGROOVY-2874
p5745
aVGROOVY-2873
p5746
aVGROOVY-2872
p5747
aVGROOVY-2871
p5748
aVGROOVY-2870
p5749
aVGROOVY-2869
p5750
aVGROOVY-2868
p5751
aVGROOVY-2867
p5752
aVGROOVY-2866
p5753
aVGROOVY-2865
p5754
aVGROOVY-2864
p5755
aVGROOVY-2863
p5756
aVGROOVY-2862
p5757
aVGROOVY-2861
p5758
aVGROOVY-2860
p5759
aVGROOVY-2859
p5760
aVGROOVY-2858
p5761
aVGROOVY-2857
p5762
aVGROOVY-2856
p5763
aVGROOVY-2855
p5764
aVGROOVY-2854
p5765
aVGROOVY-2853
p5766
aVGROOVY-2851
p5767
aVGROOVY-2850
p5768
aVGROOVY-2849
p5769
aVGROOVY-2848
p5770
aVGROOVY-2847
p5771
aVGROOVY-2846
p5772
aVGROOVY-2845
p5773
aVGROOVY-2844
p5774
aVGROOVY-2843
p5775
aVGROOVY-2842
p5776
aVGROOVY-2841
p5777
aVGROOVY-2840
p5778
aVGROOVY-2839
p5779
aVGROOVY-2838
p5780
aVGROOVY-2837
p5781
aVGROOVY-2836
p5782
aVGROOVY-2835
p5783
aVGROOVY-2834
p5784
aVGROOVY-2833
p5785
aVGROOVY-2832
p5786
aVGROOVY-2831
p5787
aVGROOVY-2830
p5788
aVGROOVY-2829
p5789
aVGROOVY-2828
p5790
aVGROOVY-2827
p5791
aVGROOVY-2826
p5792
aVGROOVY-2825
p5793
aVGROOVY-2824
p5794
aVGROOVY-2823
p5795
aVGROOVY-2822
p5796
aVGROOVY-2820
p5797
aVGROOVY-2819
p5798
aVGROOVY-2818
p5799
aVGROOVY-2817
p5800
aVGROOVY-2816
p5801
aVGROOVY-2815
p5802
aVGROOVY-2814
p5803
aVGROOVY-2812
p5804
aVGROOVY-2811
p5805
aVGROOVY-2810
p5806
aVGROOVY-2809
p5807
aVGROOVY-2808
p5808
aVGROOVY-2807
p5809
aVGROOVY-2806
p5810
aVGROOVY-2805
p5811
aVGROOVY-2804
p5812
aVGROOVY-2803
p5813
aVGROOVY-2802
p5814
aVGROOVY-2801
p5815
aVGROOVY-2800
p5816
aVGROOVY-2799
p5817
aVGROOVY-2798
p5818
aVGROOVY-2797
p5819
aVGROOVY-2795
p5820
aVGROOVY-2794
p5821
aVGROOVY-2793
p5822
aVGROOVY-2792
p5823
aVGROOVY-2791
p5824
aVGROOVY-2790
p5825
aVGROOVY-2789
p5826
aVGROOVY-2788
p5827
aVGROOVY-2787
p5828
aVGROOVY-2786
p5829
aVGROOVY-2785
p5830
aVGROOVY-2784
p5831
aVGROOVY-2783
p5832
aVGROOVY-2782
p5833
aVGROOVY-2781
p5834
aVGROOVY-2780
p5835
aVGROOVY-2779
p5836
aVGROOVY-2778
p5837
aVGROOVY-2777
p5838
aVGROOVY-2776
p5839
aVGROOVY-2774
p5840
aVGROOVY-2773
p5841
aVGROOVY-2772
p5842
aVGROOVY-2771
p5843
aVGROOVY-2770
p5844
aVGROOVY-2769
p5845
aVGROOVY-2768
p5846
aVGROOVY-2767
p5847
aVGROOVY-2766
p5848
aVGROOVY-2765
p5849
aVGROOVY-2764
p5850
aVGROOVY-2763
p5851
aVGROOVY-2762
p5852
aVGROOVY-2761
p5853
aVGROOVY-2760
p5854
aVGROOVY-2759
p5855
aVGROOVY-2758
p5856
aVGROOVY-2757
p5857
aVGROOVY-2756
p5858
aVGROOVY-2755
p5859
aVGROOVY-2754
p5860
aVGROOVY-2753
p5861
aVGROOVY-2752
p5862
aVGROOVY-2751
p5863
aVGROOVY-2750
p5864
aVGROOVY-2749
p5865
aVGROOVY-2748
p5866
aVGROOVY-2747
p5867
aVGROOVY-2746
p5868
aVGROOVY-2745
p5869
aVGROOVY-2744
p5870
aVGROOVY-2743
p5871
aVGROOVY-2742
p5872
aVGROOVY-2741
p5873
aVGROOVY-2740
p5874
aVGROOVY-2739
p5875
aVGROOVY-2738
p5876
aVGROOVY-2737
p5877
aVGROOVY-2736
p5878
aVGROOVY-2735
p5879
aVGROOVY-2734
p5880
aVGROOVY-2733
p5881
aVGROOVY-2732
p5882
aVGROOVY-2731
p5883
aVGROOVY-2728
p5884
aVGROOVY-2727
p5885
aVGROOVY-2726
p5886
aVGROOVY-2725
p5887
aVGROOVY-2724
p5888
aVGROOVY-2723
p5889
aVGROOVY-2722
p5890
aVGROOVY-2721
p5891
aVGROOVY-2720
p5892
aVGROOVY-2719
p5893
aVGROOVY-2718
p5894
aVGROOVY-2717
p5895
aVGROOVY-2715
p5896
aVGROOVY-2714
p5897
aVGROOVY-2713
p5898
aVGROOVY-2712
p5899
aVGROOVY-2711
p5900
aVGROOVY-2710
p5901
aVGROOVY-2709
p5902
aVGROOVY-2708
p5903
aVGROOVY-2706
p5904
aVGROOVY-2705
p5905
aVGROOVY-2704
p5906
aVGROOVY-2703
p5907
aVGROOVY-2702
p5908
aVGROOVY-2701
p5909
aVGROOVY-2700
p5910
aVGROOVY-2699
p5911
aVGROOVY-2698
p5912
aVGROOVY-2697
p5913
aVGROOVY-2696
p5914
aVGROOVY-2695
p5915
aVGROOVY-2694
p5916
aVGROOVY-2693
p5917
aVGROOVY-2692
p5918
aVGROOVY-2691
p5919
aVGROOVY-2690
p5920
aVGROOVY-2689
p5921
aVGROOVY-2688
p5922
aVGROOVY-2687
p5923
aVGROOVY-2686
p5924
aVGROOVY-2685
p5925
aVGROOVY-2684
p5926
aVGROOVY-2683
p5927
aVGROOVY-2681
p5928
aVGROOVY-2680
p5929
aVGROOVY-2679
p5930
aVGROOVY-2678
p5931
aVGROOVY-2677
p5932
aVGROOVY-2676
p5933
aVGROOVY-2675
p5934
aVGROOVY-2674
p5935
aVGROOVY-2673
p5936
aVGROOVY-2672
p5937
aVGROOVY-2671
p5938
aVGROOVY-2670
p5939
aVGROOVY-2669
p5940
aVGROOVY-2668
p5941
aVGROOVY-2666
p5942
aVGROOVY-2665
p5943
aVGROOVY-2664
p5944
aVGROOVY-2663
p5945
aVGROOVY-2662
p5946
aVGROOVY-2661
p5947
aVGROOVY-2660
p5948
aVGROOVY-2659
p5949
aVGROOVY-2658
p5950
aVGROOVY-2657
p5951
aVGROOVY-2655
p5952
aVGROOVY-2654
p5953
aVGROOVY-2653
p5954
aVGROOVY-2652
p5955
aVGROOVY-2648
p5956
aVGROOVY-2647
p5957
aVGROOVY-2646
p5958
aVGROOVY-2645
p5959
aVGROOVY-2644
p5960
aVGROOVY-2643
p5961
aVGROOVY-2642
p5962
aVGROOVY-2641
p5963
aVGROOVY-2640
p5964
aVGROOVY-2639
p5965
aVGROOVY-2638
p5966
aVGROOVY-2637
p5967
aVGROOVY-2635
p5968
aVGROOVY-2634
p5969
aVGROOVY-2633
p5970
aVGROOVY-2631
p5971
aVGROOVY-2630
p5972
aVGROOVY-2629
p5973
aVGROOVY-2628
p5974
aVGROOVY-2627
p5975
aVGROOVY-2626
p5976
aVGROOVY-2625
p5977
aVGROOVY-2624
p5978
aVGROOVY-2623
p5979
aVGROOVY-2622
p5980
aVGROOVY-2621
p5981
aVGROOVY-2620
p5982
aVGROOVY-2619
p5983
aVGROOVY-2618
p5984
aVGROOVY-2617
p5985
aVGROOVY-2616
p5986
aVGROOVY-2615
p5987
aVGROOVY-2614
p5988
aVGROOVY-2613
p5989
aVGROOVY-2612
p5990
aVGROOVY-2611
p5991
aVGROOVY-2610
p5992
aVGROOVY-2608
p5993
aVGROOVY-2607
p5994
aVGROOVY-2606
p5995
aVGROOVY-2605
p5996
aVGROOVY-2604
p5997
aVGROOVY-2603
p5998
aVGROOVY-2602
p5999
aVGROOVY-2601
p6000
aVGROOVY-2599
p6001
aVGROOVY-2598
p6002
aVGROOVY-2597
p6003
aVGROOVY-2596
p6004
aVGROOVY-2595
p6005
aVGROOVY-2594
p6006
aVGROOVY-2593
p6007
aVGROOVY-2592
p6008
aVGROOVY-2591
p6009
aVGROOVY-2590
p6010
aVGROOVY-2589
p6011
aVGROOVY-2588
p6012
aVGROOVY-2587
p6013
aVGROOVY-2586
p6014
aVGROOVY-2585
p6015
aVGROOVY-2584
p6016
aVGROOVY-2583
p6017
aVGROOVY-2582
p6018
aVGROOVY-2578
p6019
aVGROOVY-2577
p6020
aVGROOVY-2576
p6021
aVGROOVY-2575
p6022
aVGROOVY-2574
p6023
aVGROOVY-2573
p6024
aVGROOVY-2572
p6025
aVGROOVY-2571
p6026
aVGROOVY-2570
p6027
aVGROOVY-2569
p6028
aVGROOVY-2568
p6029
aVGROOVY-2567
p6030
aVGROOVY-2566
p6031
aVGROOVY-2565
p6032
aVGROOVY-2564
p6033
aVGROOVY-2562
p6034
aVGROOVY-2560
p6035
aVGROOVY-2559
p6036
aVGROOVY-2558
p6037
aVGROOVY-2557
p6038
aVGROOVY-2556
p6039
aVGROOVY-2555
p6040
aVGROOVY-2553
p6041
aVGROOVY-2549
p6042
aVGROOVY-2548
p6043
aVGROOVY-2547
p6044
aVGROOVY-2546
p6045
aVGROOVY-2543
p6046
aVGROOVY-2542
p6047
aVGROOVY-2541
p6048
aVGROOVY-2540
p6049
aVGROOVY-2538
p6050
aVGROOVY-2536
p6051
aVGROOVY-2535
p6052
aVGROOVY-2534
p6053
aVGROOVY-2533
p6054
aVGROOVY-2532
p6055
aVGROOVY-2531
p6056
aVGROOVY-2530
p6057
aVGROOVY-2529
p6058
aVGROOVY-2528
p6059
aVGROOVY-2527
p6060
aVGROOVY-2526
p6061
aVGROOVY-2525
p6062
aVGROOVY-2524
p6063
aVGROOVY-2523
p6064
aVGROOVY-2522
p6065
aVGROOVY-2521
p6066
aVGROOVY-2519
p6067
aVGROOVY-2517
p6068
aVGROOVY-2516
p6069
aVGROOVY-2515
p6070
aVGROOVY-2514
p6071
aVGROOVY-2513
p6072
aVGROOVY-2512
p6073
aVGROOVY-2511
p6074
aVGROOVY-2510
p6075
aVGROOVY-2509
p6076
aVGROOVY-2507
p6077
aVGROOVY-2506
p6078
aVGROOVY-2505
p6079
aVGROOVY-2504
p6080
aVGROOVY-2503
p6081
aVGROOVY-2502
p6082
aVGROOVY-2501
p6083
aVGROOVY-2500
p6084
aVGROOVY-2499
p6085
aVGROOVY-2498
p6086
aVGROOVY-2497
p6087
aVGROOVY-2496
p6088
aVGROOVY-2495
p6089
aVGROOVY-2494
p6090
aVGROOVY-2493
p6091
aVGROOVY-2492
p6092
aVGROOVY-2491
p6093
aVGROOVY-2490
p6094
aVGROOVY-2489
p6095
aVGROOVY-2488
p6096
aVGROOVY-2487
p6097
aVGROOVY-2486
p6098
aVGROOVY-2485
p6099
aVGROOVY-2484
p6100
aVGROOVY-2483
p6101
aVGROOVY-2482
p6102
aVGROOVY-2481
p6103
aVGROOVY-2480
p6104
aVGROOVY-2479
p6105
aVGROOVY-2478
p6106
aVGROOVY-2477
p6107
aVGROOVY-2475
p6108
aVGROOVY-2474
p6109
aVGROOVY-2473
p6110
aVGROOVY-2472
p6111
aVGROOVY-2471
p6112
aVGROOVY-2470
p6113
aVGROOVY-2469
p6114
aVGROOVY-2467
p6115
aVGROOVY-2466
p6116
aVGROOVY-2465
p6117
aVGROOVY-2464
p6118
aVGROOVY-2463
p6119
aVGROOVY-2462
p6120
aVGROOVY-2460
p6121
aVGROOVY-2459
p6122
aVGROOVY-2458
p6123
aVGROOVY-2457
p6124
aVGROOVY-2456
p6125
aVGROOVY-2455
p6126
aVGROOVY-2454
p6127
aVGROOVY-2453
p6128
aVGROOVY-2452
p6129
aVGROOVY-2451
p6130
aVGROOVY-2450
p6131
aVGROOVY-2449
p6132
aVGROOVY-2448
p6133
aVGROOVY-2447
p6134
aVGROOVY-2445
p6135
aVGROOVY-2444
p6136
aVGROOVY-2443
p6137
aVGROOVY-2442
p6138
aVGROOVY-2441
p6139
aVGROOVY-2440
p6140
aVGROOVY-2439
p6141
aVGROOVY-2438
p6142
aVGROOVY-2437
p6143
aVGROOVY-2436
p6144
aVGROOVY-2435
p6145
aVGROOVY-2434
p6146
aVGROOVY-2433
p6147
aVGROOVY-2432
p6148
aVGROOVY-2431
p6149
aVGROOVY-2430
p6150
aVGROOVY-2429
p6151
aVGROOVY-2428
p6152
aVGROOVY-2427
p6153
aVGROOVY-2426
p6154
aVGROOVY-2425
p6155
aVGROOVY-2424
p6156
aVGROOVY-2423
p6157
aVGROOVY-2422
p6158
aVGROOVY-2421
p6159
aVGROOVY-2420
p6160
aVGROOVY-2419
p6161
aVGROOVY-2418
p6162
aVGROOVY-2417
p6163
aVGROOVY-2416
p6164
aVGROOVY-2415
p6165
aVGROOVY-2414
p6166
aVGROOVY-2413
p6167
aVGROOVY-2412
p6168
aVGROOVY-2411
p6169
aVGROOVY-2410
p6170
aVGROOVY-2409
p6171
aVGROOVY-2408
p6172
aVGROOVY-2407
p6173
aVGROOVY-2406
p6174
aVGROOVY-2405
p6175
aVGROOVY-2404
p6176
aVGROOVY-2403
p6177
aVGROOVY-2402
p6178
aVGROOVY-2401
p6179
aVGROOVY-2399
p6180
aVGROOVY-2398
p6181
aVGROOVY-2397
p6182
aVGROOVY-2395
p6183
aVGROOVY-2394
p6184
aVGROOVY-2393
p6185
aVGROOVY-2392
p6186
aVGROOVY-2391
p6187
aVGROOVY-2390
p6188
aVGROOVY-2389
p6189
aVGROOVY-2388
p6190
aVGROOVY-2387
p6191
aVGROOVY-2386
p6192
aVGROOVY-2385
p6193
aVGROOVY-2382
p6194
aVGROOVY-2381
p6195
aVGROOVY-2380
p6196
aVGROOVY-2379
p6197
aVGROOVY-2378
p6198
aVGROOVY-2377
p6199
aVGROOVY-2376
p6200
aVGROOVY-2375
p6201
aVGROOVY-2374
p6202
aVGROOVY-2373
p6203
aVGROOVY-2372
p6204
aVGROOVY-2370
p6205
aVGROOVY-2369
p6206
aVGROOVY-2368
p6207
aVGROOVY-2367
p6208
aVGROOVY-2366
p6209
aVGROOVY-2365
p6210
aVGROOVY-2364
p6211
aVGROOVY-2363
p6212
aVGROOVY-2362
p6213
aVGROOVY-2361
p6214
aVGROOVY-2360
p6215
aVGROOVY-2358
p6216
aVGROOVY-2357
p6217
aVGROOVY-2356
p6218
aVGROOVY-2355
p6219
aVGROOVY-2353
p6220
aVGROOVY-2352
p6221
aVGROOVY-2351
p6222
aVGROOVY-2350
p6223
aVGROOVY-2349
p6224
aVGROOVY-2348
p6225
aVGROOVY-2347
p6226
aVGROOVY-2346
p6227
aVGROOVY-2345
p6228
aVGROOVY-2344
p6229
aVGROOVY-2343
p6230
aVGROOVY-2342
p6231
aVGROOVY-2341
p6232
aVGROOVY-2340
p6233
aVGROOVY-2339
p6234
aVGROOVY-2338
p6235
aVGROOVY-2337
p6236
aVGROOVY-2336
p6237
aVGROOVY-2335
p6238
aVGROOVY-2334
p6239
aVGROOVY-2333
p6240
aVGROOVY-2332
p6241
aVGROOVY-2331
p6242
aVGROOVY-2330
p6243
aVGROOVY-2329
p6244
aVGROOVY-2327
p6245
aVGROOVY-2326
p6246
aVGROOVY-2325
p6247
aVGROOVY-2324
p6248
aVGROOVY-2323
p6249
aVGROOVY-2321
p6250
aVGROOVY-2320
p6251
aVGROOVY-2319
p6252
aVGROOVY-2318
p6253
aVGROOVY-2317
p6254
aVGROOVY-2316
p6255
aVGROOVY-2314
p6256
aVGROOVY-2313
p6257
aVGROOVY-2312
p6258
aVGROOVY-2310
p6259
aVGROOVY-2309
p6260
aVGROOVY-2308
p6261
aVGROOVY-2307
p6262
aVGROOVY-2306
p6263
aVGROOVY-2305
p6264
aVGROOVY-2304
p6265
aVGROOVY-2303
p6266
aVGROOVY-2302
p6267
aVGROOVY-2295
p6268
aVGROOVY-2294
p6269
aVGROOVY-2293
p6270
aVGROOVY-2292
p6271
aVGROOVY-2291
p6272
aVGROOVY-2290
p6273
aVGROOVY-2289
p6274
aVGROOVY-2288
p6275
aVGROOVY-2287
p6276
aVGROOVY-2286
p6277
aVGROOVY-2285
p6278
aVGROOVY-2284
p6279
aVGROOVY-2283
p6280
aVGROOVY-2282
p6281
aVGROOVY-2280
p6282
aVGROOVY-2279
p6283
aVGROOVY-2278
p6284
aVGROOVY-2277
p6285
aVGROOVY-2276
p6286
aVGROOVY-2275
p6287
aVGROOVY-2274
p6288
aVGROOVY-2273
p6289
aVGROOVY-2272
p6290
aVGROOVY-2271
p6291
aVGROOVY-2270
p6292
aVGROOVY-2269
p6293
aVGROOVY-2268
p6294
aVGROOVY-2267
p6295
aVGROOVY-2266
p6296
aVGROOVY-2265
p6297
aVGROOVY-2264
p6298
aVGROOVY-2263
p6299
aVGROOVY-2262
p6300
aVGROOVY-2261
p6301
aVGROOVY-2260
p6302
aVGROOVY-2259
p6303
aVGROOVY-2258
p6304
aVGROOVY-2256
p6305
aVGROOVY-2255
p6306
aVGROOVY-2254
p6307
aVGROOVY-2253
p6308
aVGROOVY-2251
p6309
aVGROOVY-2250
p6310
aVGROOVY-2249
p6311
aVGROOVY-2248
p6312
aVGROOVY-2247
p6313
aVGROOVY-2246
p6314
aVGROOVY-2245
p6315
aVGROOVY-2244
p6316
aVGROOVY-2243
p6317
aVGROOVY-2242
p6318
aVGROOVY-2241
p6319
aVGROOVY-2239
p6320
aVGROOVY-2236
p6321
aVGROOVY-2235
p6322
aVGROOVY-2234
p6323
aVGROOVY-2233
p6324
aVGROOVY-2232
p6325
aVGROOVY-2231
p6326
aVGROOVY-2229
p6327
aVGROOVY-2228
p6328
aVGROOVY-2227
p6329
aVGROOVY-2226
p6330
aVGROOVY-2225
p6331
aVGROOVY-2224
p6332
aVGROOVY-2222
p6333
aVGROOVY-2220
p6334
aVGROOVY-2219
p6335
aVGROOVY-2218
p6336
aVGROOVY-2217
p6337
aVGROOVY-2216
p6338
aVGROOVY-2215
p6339
aVGROOVY-2214
p6340
aVGROOVY-2213
p6341
aVGROOVY-2212
p6342
aVGROOVY-2211
p6343
aVGROOVY-2210
p6344
aVGROOVY-2209
p6345
aVGROOVY-2208
p6346
aVGROOVY-2207
p6347
aVGROOVY-2206
p6348
aVGROOVY-2205
p6349
aVGROOVY-2204
p6350
aVGROOVY-2203
p6351
aVGROOVY-2202
p6352
aVGROOVY-2201
p6353
aVGROOVY-2200
p6354
aVGROOVY-2199
p6355
aVGROOVY-2198
p6356
aVGROOVY-2197
p6357
aVGROOVY-2196
p6358
aVGROOVY-2195
p6359
aVGROOVY-2194
p6360
aVGROOVY-2193
p6361
aVGROOVY-2191
p6362
aVGROOVY-2190
p6363
aVGROOVY-2189
p6364
aVGROOVY-2188
p6365
aVGROOVY-2187
p6366
aVGROOVY-2186
p6367
aVGROOVY-2185
p6368
aVGROOVY-2184
p6369
aVGROOVY-2183
p6370
aVGROOVY-2182
p6371
aVGROOVY-2181
p6372
aVGROOVY-2180
p6373
aVGROOVY-2179
p6374
aVGROOVY-2178
p6375
aVGROOVY-2177
p6376
aVGROOVY-2176
p6377
aVGROOVY-2175
p6378
aVGROOVY-2174
p6379
aVGROOVY-2173
p6380
aVGROOVY-2172
p6381
aVGROOVY-2171
p6382
aVGROOVY-2170
p6383
aVGROOVY-2169
p6384
aVGROOVY-2167
p6385
aVGROOVY-2166
p6386
aVGROOVY-2165
p6387
aVGROOVY-2164
p6388
aVGROOVY-2163
p6389
aVGROOVY-2162
p6390
aVGROOVY-2161
p6391
aVGROOVY-2160
p6392
aVGROOVY-2159
p6393
aVGROOVY-2158
p6394
aVGROOVY-2157
p6395
aVGROOVY-2156
p6396
aVGROOVY-2155
p6397
aVGROOVY-2154
p6398
aVGROOVY-2153
p6399
aVGROOVY-2152
p6400
aVGROOVY-2151
p6401
aVGROOVY-2150
p6402
aVGROOVY-2149
p6403
aVGROOVY-2147
p6404
aVGROOVY-2146
p6405
aVGROOVY-2145
p6406
aVGROOVY-2144
p6407
aVGROOVY-2143
p6408
aVGROOVY-2142
p6409
aVGROOVY-2141
p6410
aVGROOVY-2140
p6411
aVGROOVY-2139
p6412
aVGROOVY-2138
p6413
aVGROOVY-2137
p6414
aVGROOVY-2136
p6415
aVGROOVY-2135
p6416
aVGROOVY-2133
p6417
aVGROOVY-2132
p6418
aVGROOVY-2131
p6419
aVGROOVY-2130
p6420
aVGROOVY-2129
p6421
aVGROOVY-2128
p6422
aVGROOVY-2127
p6423
aVGROOVY-2126
p6424
aVGROOVY-2125
p6425
aVGROOVY-2124
p6426
aVGROOVY-2123
p6427
aVGROOVY-2122
p6428
aVGROOVY-2121
p6429
aVGROOVY-2120
p6430
aVGROOVY-2119
p6431
aVGROOVY-2118
p6432
aVGROOVY-2117
p6433
aVGROOVY-2116
p6434
aVGROOVY-2115
p6435
aVGROOVY-2114
p6436
aVGROOVY-2113
p6437
aVGROOVY-2112
p6438
aVGROOVY-2111
p6439
aVGROOVY-2110
p6440
aVGROOVY-2109
p6441
aVGROOVY-2108
p6442
aVGROOVY-2107
p6443
aVGROOVY-2106
p6444
aVGROOVY-2105
p6445
aVGROOVY-2104
p6446
aVGROOVY-2103
p6447
aVGROOVY-2102
p6448
aVGROOVY-2101
p6449
aVGROOVY-2100
p6450
aVGROOVY-2099
p6451
aVGROOVY-2098
p6452
aVGROOVY-2097
p6453
aVGROOVY-2096
p6454
aVGROOVY-2092
p6455
aVGROOVY-2091
p6456
aVGROOVY-2090
p6457
aVGROOVY-2089
p6458
aVGROOVY-2088
p6459
aVGROOVY-2087
p6460
aVGROOVY-2085
p6461
aVGROOVY-2084
p6462
aVGROOVY-2083
p6463
aVGROOVY-2082
p6464
aVGROOVY-2081
p6465
aVGROOVY-2080
p6466
aVGROOVY-2079
p6467
aVGROOVY-2078
p6468
aVGROOVY-2077
p6469
aVGROOVY-2076
p6470
aVGROOVY-2073
p6471
aVGROOVY-2072
p6472
aVGROOVY-2071
p6473
aVGROOVY-2070
p6474
aVGROOVY-2069
p6475
aVGROOVY-2068
p6476
aVGROOVY-2067
p6477
aVGROOVY-2066
p6478
aVGROOVY-2065
p6479
aVGROOVY-2064
p6480
aVGROOVY-2063
p6481
aVGROOVY-2061
p6482
aVGROOVY-2060
p6483
aVGROOVY-2059
p6484
aVGROOVY-2058
p6485
aVGROOVY-2057
p6486
aVGROOVY-2056
p6487
aVGROOVY-2055
p6488
aVGROOVY-2054
p6489
aVGROOVY-2053
p6490
aVGROOVY-2052
p6491
aVGROOVY-2049
p6492
aVGROOVY-2048
p6493
aVGROOVY-2047
p6494
aVGROOVY-2046
p6495
aVGROOVY-2045
p6496
aVGROOVY-2044
p6497
aVGROOVY-2043
p6498
aVGROOVY-2042
p6499
aVGROOVY-2041
p6500
aVGROOVY-2040
p6501
aVGROOVY-2039
p6502
aVGROOVY-2038
p6503
aVGROOVY-2037
p6504
aVGROOVY-2036
p6505
aVGROOVY-2035
p6506
aVGROOVY-2034
p6507
aVGROOVY-2033
p6508
aVGROOVY-2032
p6509
aVGROOVY-2031
p6510
aVGROOVY-2030
p6511
aVGROOVY-2029
p6512
aVGROOVY-2027
p6513
aVGROOVY-2026
p6514
aVGROOVY-2025
p6515
aVGROOVY-2024
p6516
aVGROOVY-2022
p6517
aVGROOVY-2019
p6518
aVGROOVY-2018
p6519
aVGROOVY-2016
p6520
aVGROOVY-2015
p6521
aVGROOVY-2014
p6522
aVGROOVY-2013
p6523
aVGROOVY-2011
p6524
aVGROOVY-2010
p6525
aVGROOVY-2009
p6526
aVGROOVY-2008
p6527
aVGROOVY-2007
p6528
aVGROOVY-2006
p6529
aVGROOVY-2005
p6530
aVGROOVY-2004
p6531
aVGROOVY-2003
p6532
aVGROOVY-2002
p6533
aVGROOVY-2001
p6534
aVGROOVY-2000
p6535
aVGROOVY-1999
p6536
aVGROOVY-1998
p6537
aVGROOVY-1996
p6538
aVGROOVY-1995
p6539
aVGROOVY-1994
p6540
aVGROOVY-1993
p6541
aVGROOVY-1992
p6542
aVGROOVY-1991
p6543
aVGROOVY-1990
p6544
aVGROOVY-1988
p6545
aVGROOVY-1987
p6546
aVGROOVY-1986
p6547
aVGROOVY-1985
p6548
aVGROOVY-1984
p6549
aVGROOVY-1981
p6550
aVGROOVY-1980
p6551
aVGROOVY-1979
p6552
aVGROOVY-1978
p6553
aVGROOVY-1977
p6554
aVGROOVY-1976
p6555
aVGROOVY-1974
p6556
aVGROOVY-1973
p6557
aVGROOVY-1972
p6558
aVGROOVY-1971
p6559
aVGROOVY-1970
p6560
aVGROOVY-1969
p6561
aVGROOVY-1968
p6562
aVGROOVY-1967
p6563
aVGROOVY-1964
p6564
aVGROOVY-1963
p6565
aVGROOVY-1962
p6566
aVGROOVY-1961
p6567
aVGROOVY-1960
p6568
aVGROOVY-1959
p6569
aVGROOVY-1958
p6570
aVGROOVY-1957
p6571
aVGROOVY-1956
p6572
aVGROOVY-1955
p6573
aVGROOVY-1952
p6574
aVGROOVY-1951
p6575
aVGROOVY-1949
p6576
aVGROOVY-1948
p6577
aVGROOVY-1947
p6578
aVGROOVY-1946
p6579
aVGROOVY-1945
p6580
aVGROOVY-1944
p6581
aVGROOVY-1943
p6582
aVGROOVY-1942
p6583
aVGROOVY-1941
p6584
aVGROOVY-1940
p6585
aVGROOVY-1939
p6586
aVGROOVY-1938
p6587
aVGROOVY-1937
p6588
aVGROOVY-1936
p6589
aVGROOVY-1935
p6590
aVGROOVY-1934
p6591
aVGROOVY-1932
p6592
aVGROOVY-1931
p6593
aVGROOVY-1930
p6594
aVGROOVY-1929
p6595
aVGROOVY-1928
p6596
aVGROOVY-1927
p6597
aVGROOVY-1926
p6598
aVGROOVY-1925
p6599
aVGROOVY-1924
p6600
aVGROOVY-1923
p6601
aVGROOVY-1922
p6602
aVGROOVY-1921
p6603
aVGROOVY-1920
p6604
aVGROOVY-1919
p6605
aVGROOVY-1918
p6606
aVGROOVY-1917
p6607
aVGROOVY-1916
p6608
aVGROOVY-1915
p6609
aVGROOVY-1914
p6610
aVGROOVY-1913
p6611
aVGROOVY-1912
p6612
aVGROOVY-1911
p6613
aVGROOVY-1910
p6614
aVGROOVY-1909
p6615
aVGROOVY-1908
p6616
aVGROOVY-1906
p6617
aVGROOVY-1905
p6618
aVGROOVY-1904
p6619
aVGROOVY-1903
p6620
aVGROOVY-1902
p6621
aVGROOVY-1901
p6622
aVGROOVY-1900
p6623
aVGROOVY-1899
p6624
aVGROOVY-1898
p6625
aVGROOVY-1897
p6626
aVGROOVY-1896
p6627
aVGROOVY-1895
p6628
aVGROOVY-1894
p6629
aVGROOVY-1893
p6630
aVGROOVY-1891
p6631
aVGROOVY-1890
p6632
aVGROOVY-1889
p6633
aVGROOVY-1888
p6634
aVGROOVY-1887
p6635
aVGROOVY-1886
p6636
aVGROOVY-1885
p6637
aVGROOVY-1884
p6638
aVGROOVY-1883
p6639
aVGROOVY-1882
p6640
aVGROOVY-1881
p6641
aVGROOVY-1879
p6642
aVGROOVY-1878
p6643
aVGROOVY-1877
p6644
aVGROOVY-1876
p6645
aVGROOVY-1875
p6646
aVGROOVY-1874
p6647
aVGROOVY-1873
p6648
aVGROOVY-1872
p6649
aVGROOVY-1871
p6650
aVGROOVY-1870
p6651
aVGROOVY-1869
p6652
aVGROOVY-1868
p6653
aVGROOVY-1867
p6654
aVGROOVY-1866
p6655
aVGROOVY-1865
p6656
aVGROOVY-1864
p6657
aVGROOVY-1863
p6658
aVGROOVY-1862
p6659
aVGROOVY-1861
p6660
aVGROOVY-1860
p6661
aVGROOVY-1859
p6662
aVGROOVY-1858
p6663
aVGROOVY-1857
p6664
aVGROOVY-1856
p6665
aVGROOVY-1855
p6666
aVGROOVY-1854
p6667
aVGROOVY-1853
p6668
aVGROOVY-1852
p6669
aVGROOVY-1851
p6670
aVGROOVY-1850
p6671
aVGROOVY-1849
p6672
aVGROOVY-1848
p6673
aVGROOVY-1847
p6674
aVGROOVY-1846
p6675
aVGROOVY-1845
p6676
aVGROOVY-1844
p6677
aVGROOVY-1843
p6678
aVGROOVY-1841
p6679
aVGROOVY-1840
p6680
aVGROOVY-1839
p6681
aVGROOVY-1838
p6682
aVGROOVY-1837
p6683
aVGROOVY-1836
p6684
aVGROOVY-1835
p6685
aVGROOVY-1834
p6686
aVGROOVY-1833
p6687
aVGROOVY-1832
p6688
aVGROOVY-1831
p6689
aVGROOVY-1830
p6690
aVGROOVY-1829
p6691
aVGROOVY-1828
p6692
aVGROOVY-1827
p6693
aVGROOVY-1826
p6694
aVGROOVY-1825
p6695
aVGROOVY-1824
p6696
aVGROOVY-1823
p6697
aVGROOVY-1822
p6698
aVGROOVY-1821
p6699
aVGROOVY-1820
p6700
aVGROOVY-1819
p6701
aVGROOVY-1818
p6702
aVGROOVY-1817
p6703
aVGROOVY-1816
p6704
aVGROOVY-1815
p6705
aVGROOVY-1814
p6706
aVGROOVY-1813
p6707
aVGROOVY-1812
p6708
aVGROOVY-1811
p6709
aVGROOVY-1810
p6710
aVGROOVY-1809
p6711
aVGROOVY-1808
p6712
aVGROOVY-1807
p6713
aVGROOVY-1806
p6714
aVGROOVY-1805
p6715
aVGROOVY-1804
p6716
aVGROOVY-1803
p6717
aVGROOVY-1802
p6718
aVGROOVY-1800
p6719
aVGROOVY-1799
p6720
aVGROOVY-1798
p6721
aVGROOVY-1797
p6722
aVGROOVY-1795
p6723
aVGROOVY-1794
p6724
aVGROOVY-1792
p6725
aVGROOVY-1790
p6726
aVGROOVY-1788
p6727
aVGROOVY-1787
p6728
aVGROOVY-1786
p6729
aVGROOVY-1785
p6730
aVGROOVY-1784
p6731
aVGROOVY-1783
p6732
aVGROOVY-1782
p6733
aVGROOVY-1781
p6734
aVGROOVY-1780
p6735
aVGROOVY-1779
p6736
aVGROOVY-1778
p6737
aVGROOVY-1777
p6738
aVGROOVY-1776
p6739
aVGROOVY-1774
p6740
aVGROOVY-1773
p6741
aVGROOVY-1772
p6742
aVGROOVY-1771
p6743
aVGROOVY-1770
p6744
aVGROOVY-1769
p6745
aVGROOVY-1768
p6746
aVGROOVY-1767
p6747
aVGROOVY-1766
p6748
aVGROOVY-1765
p6749
aVGROOVY-1764
p6750
aVGROOVY-1763
p6751
aVGROOVY-1762
p6752
aVGROOVY-1761
p6753
aVGROOVY-1760
p6754
aVGROOVY-1759
p6755
aVGROOVY-1758
p6756
aVGROOVY-1757
p6757
aVGROOVY-1756
p6758
aVGROOVY-1755
p6759
aVGROOVY-1754
p6760
aVGROOVY-1753
p6761
aVGROOVY-1752
p6762
aVGROOVY-1751
p6763
aVGROOVY-1750
p6764
aVGROOVY-1749
p6765
aVGROOVY-1748
p6766
aVGROOVY-1747
p6767
aVGROOVY-1746
p6768
aVGROOVY-1745
p6769
aVGROOVY-1744
p6770
aVGROOVY-1742
p6771
aVGROOVY-1740
p6772
aVGROOVY-1739
p6773
aVGROOVY-1738
p6774
aVGROOVY-1737
p6775
aVGROOVY-1736
p6776
aVGROOVY-1735
p6777
aVGROOVY-1734
p6778
aVGROOVY-1733
p6779
aVGROOVY-1732
p6780
aVGROOVY-1731
p6781
aVGROOVY-1730
p6782
aVGROOVY-1729
p6783
aVGROOVY-1728
p6784
aVGROOVY-1727
p6785
aVGROOVY-1726
p6786
aVGROOVY-1725
p6787
aVGROOVY-1724
p6788
aVGROOVY-1723
p6789
aVGROOVY-1722
p6790
aVGROOVY-1721
p6791
aVGROOVY-1720
p6792
aVGROOVY-1719
p6793
aVGROOVY-1718
p6794
aVGROOVY-1717
p6795
aVGROOVY-1716
p6796
aVGROOVY-1715
p6797
aVGROOVY-1714
p6798
aVGROOVY-1713
p6799
aVGROOVY-1712
p6800
aVGROOVY-1711
p6801
aVGROOVY-1710
p6802
aVGROOVY-1709
p6803
aVGROOVY-1708
p6804
aVGROOVY-1707
p6805
aVGROOVY-1706
p6806
aVGROOVY-1705
p6807
aVGROOVY-1704
p6808
aVGROOVY-1703
p6809
aVGROOVY-1702
p6810
aVGROOVY-1701
p6811
aVGROOVY-1700
p6812
aVGROOVY-1699
p6813
aVGROOVY-1698
p6814
aVGROOVY-1697
p6815
aVGROOVY-1696
p6816
aVGROOVY-1695
p6817
aVGROOVY-1693
p6818
aVGROOVY-1692
p6819
aVGROOVY-1691
p6820
aVGROOVY-1689
p6821
aVGROOVY-1688
p6822
aVGROOVY-1687
p6823
aVGROOVY-1686
p6824
aVGROOVY-1685
p6825
aVGROOVY-1684
p6826
aVGROOVY-1683
p6827
aVGROOVY-1682
p6828
aVGROOVY-1681
p6829
aVGROOVY-1679
p6830
aVGROOVY-1678
p6831
aVGROOVY-1676
p6832
aVGROOVY-1675
p6833
aVGROOVY-1674
p6834
aVGROOVY-1673
p6835
aVGROOVY-1670
p6836
aVGROOVY-1669
p6837
aVGROOVY-1668
p6838
aVGROOVY-1667
p6839
aVGROOVY-1666
p6840
aVGROOVY-1665
p6841
aVGROOVY-1664
p6842
aVGROOVY-1663
p6843
aVGROOVY-1662
p6844
aVGROOVY-1661
p6845
aVGROOVY-1660
p6846
aVGROOVY-1659
p6847
aVGROOVY-1658
p6848
aVGROOVY-1657
p6849
aVGROOVY-1656
p6850
aVGROOVY-1655
p6851
aVGROOVY-1654
p6852
aVGROOVY-1653
p6853
aVGROOVY-1652
p6854
aVGROOVY-1651
p6855
aVGROOVY-1650
p6856
aVGROOVY-1649
p6857
aVGROOVY-1648
p6858
aVGROOVY-1647
p6859
aVGROOVY-1646
p6860
aVGROOVY-1645
p6861
aVGROOVY-1644
p6862
aVGROOVY-1643
p6863
aVGROOVY-1642
p6864
aVGROOVY-1641
p6865
aVGROOVY-1640
p6866
aVGROOVY-1639
p6867
aVGROOVY-1638
p6868
aVGROOVY-1637
p6869
aVGROOVY-1636
p6870
aVGROOVY-1635
p6871
aVGROOVY-1634
p6872
aVGROOVY-1633
p6873
aVGROOVY-1632
p6874
aVGROOVY-1631
p6875
aVGROOVY-1630
p6876
aVGROOVY-1629
p6877
aVGROOVY-1628
p6878
aVGROOVY-1627
p6879
aVGROOVY-1626
p6880
aVGROOVY-1625
p6881
aVGROOVY-1624
p6882
aVGROOVY-1623
p6883
aVGROOVY-1622
p6884
aVGROOVY-1621
p6885
aVGROOVY-1620
p6886
aVGROOVY-1619
p6887
aVGROOVY-1618
p6888
aVGROOVY-1617
p6889
aVGROOVY-1616
p6890
aVGROOVY-1615
p6891
aVGROOVY-1614
p6892
aVGROOVY-1613
p6893
aVGROOVY-1612
p6894
aVGROOVY-1611
p6895
aVGROOVY-1610
p6896
aVGROOVY-1609
p6897
aVGROOVY-1608
p6898
aVGROOVY-1607
p6899
aVGROOVY-1606
p6900
aVGROOVY-1605
p6901
aVGROOVY-1604
p6902
aVGROOVY-1603
p6903
aVGROOVY-1602
p6904
aVGROOVY-1601
p6905
aVGROOVY-1600
p6906
aVGROOVY-1599
p6907
aVGROOVY-1598
p6908
aVGROOVY-1597
p6909
aVGROOVY-1596
p6910
aVGROOVY-1595
p6911
aVGROOVY-1594
p6912
aVGROOVY-1593
p6913
aVGROOVY-1592
p6914
aVGROOVY-1591
p6915
aVGROOVY-1590
p6916
aVGROOVY-1589
p6917
aVGROOVY-1588
p6918
aVGROOVY-1587
p6919
aVGROOVY-1586
p6920
aVGROOVY-1585
p6921
aVGROOVY-1584
p6922
aVGROOVY-1583
p6923
aVGROOVY-1582
p6924
aVGROOVY-1581
p6925
aVGROOVY-1580
p6926
aVGROOVY-1578
p6927
aVGROOVY-1577
p6928
aVGROOVY-1576
p6929
aVGROOVY-1575
p6930
aVGROOVY-1574
p6931
aVGROOVY-1573
p6932
aVGROOVY-1572
p6933
aVGROOVY-1571
p6934
aVGROOVY-1570
p6935
aVGROOVY-1569
p6936
aVGROOVY-1568
p6937
aVGROOVY-1567
p6938
aVGROOVY-1566
p6939
aVGROOVY-1565
p6940
aVGROOVY-1564
p6941
aVGROOVY-1563
p6942
aVGROOVY-1562
p6943
aVGROOVY-1561
p6944
aVGROOVY-1560
p6945
aVGROOVY-1559
p6946
aVGROOVY-1558
p6947
aVGROOVY-1557
p6948
aVGROOVY-1556
p6949
aVGROOVY-1555
p6950
aVGROOVY-1554
p6951
aVGROOVY-1553
p6952
aVGROOVY-1552
p6953
aVGROOVY-1551
p6954
aVGROOVY-1550
p6955
aVGROOVY-1549
p6956
aVGROOVY-1548
p6957
aVGROOVY-1547
p6958
aVGROOVY-1546
p6959
aVGROOVY-1545
p6960
aVGROOVY-1544
p6961
aVGROOVY-1543
p6962
aVGROOVY-1542
p6963
aVGROOVY-1541
p6964
aVGROOVY-1540
p6965
aVGROOVY-1539
p6966
aVGROOVY-1538
p6967
aVGROOVY-1537
p6968
aVGROOVY-1536
p6969
aVGROOVY-1535
p6970
aVGROOVY-1534
p6971
aVGROOVY-1533
p6972
aVGROOVY-1532
p6973
aVGROOVY-1531
p6974
aVGROOVY-1530
p6975
aVGROOVY-1529
p6976
aVGROOVY-1528
p6977
aVGROOVY-1527
p6978
aVGROOVY-1526
p6979
aVGROOVY-1525
p6980
aVGROOVY-1524
p6981
aVGROOVY-1523
p6982
aVGROOVY-1522
p6983
aVGROOVY-1521
p6984
aVGROOVY-1520
p6985
aVGROOVY-1519
p6986
aVGROOVY-1518
p6987
aVGROOVY-1517
p6988
aVGROOVY-1515
p6989
aVGROOVY-1514
p6990
aVGROOVY-1513
p6991
aVGROOVY-1512
p6992
aVGROOVY-1511
p6993
aVGROOVY-1510
p6994
aVGROOVY-1509
p6995
aVGROOVY-1508
p6996
aVGROOVY-1507
p6997
aVGROOVY-1506
p6998
aVGROOVY-1505
p6999
aVGROOVY-1504
p7000
aVGROOVY-1503
p7001
aVGROOVY-1502
p7002
aVGROOVY-1501
p7003
aVGROOVY-1500
p7004
aVGROOVY-1499
p7005
aVGROOVY-1498
p7006
aVGROOVY-1497
p7007
aVGROOVY-1496
p7008
aVGROOVY-1495
p7009
aVGROOVY-1494
p7010
aVGROOVY-1493
p7011
aVGROOVY-1492
p7012
aVGROOVY-1491
p7013
aVGROOVY-1490
p7014
aVGROOVY-1488
p7015
aVGROOVY-1487
p7016
aVGROOVY-1486
p7017
aVGROOVY-1485
p7018
aVGROOVY-1484
p7019
aVGROOVY-1483
p7020
aVGROOVY-1482
p7021
aVGROOVY-1481
p7022
aVGROOVY-1480
p7023
aVGROOVY-1479
p7024
aVGROOVY-1478
p7025
aVGROOVY-1477
p7026
aVGROOVY-1476
p7027
aVGROOVY-1475
p7028
aVGROOVY-1473
p7029
aVGROOVY-1472
p7030
aVGROOVY-1471
p7031
aVGROOVY-1470
p7032
aVGROOVY-1469
p7033
aVGROOVY-1468
p7034
aVGROOVY-1467
p7035
aVGROOVY-1466
p7036
aVGROOVY-1465
p7037
aVGROOVY-1464
p7038
aVGROOVY-1463
p7039
aVGROOVY-1462
p7040
aVGROOVY-1461
p7041
aVGROOVY-1460
p7042
aVGROOVY-1459
p7043
aVGROOVY-1456
p7044
aVGROOVY-1455
p7045
aVGROOVY-1454
p7046
aVGROOVY-1452
p7047
aVGROOVY-1451
p7048
aVGROOVY-1450
p7049
aVGROOVY-1449
p7050
aVGROOVY-1448
p7051
aVGROOVY-1447
p7052
aVGROOVY-1446
p7053
aVGROOVY-1445
p7054
aVGROOVY-1444
p7055
aVGROOVY-1443
p7056
aVGROOVY-1442
p7057
aVGROOVY-1441
p7058
aVGROOVY-1440
p7059
aVGROOVY-1439
p7060
aVGROOVY-1438
p7061
aVGROOVY-1437
p7062
aVGROOVY-1436
p7063
aVGROOVY-1434
p7064
aVGROOVY-1433
p7065
aVGROOVY-1432
p7066
aVGROOVY-1431
p7067
aVGROOVY-1430
p7068
aVGROOVY-1429
p7069
aVGROOVY-1428
p7070
aVGROOVY-1427
p7071
aVGROOVY-1425
p7072
aVGROOVY-1424
p7073
aVGROOVY-1423
p7074
aVGROOVY-1422
p7075
aVGROOVY-1421
p7076
aVGROOVY-1420
p7077
aVGROOVY-1419
p7078
aVGROOVY-1418
p7079
aVGROOVY-1417
p7080
aVGROOVY-1416
p7081
aVGROOVY-1415
p7082
aVGROOVY-1414
p7083
aVGROOVY-1413
p7084
aVGROOVY-1412
p7085
aVGROOVY-1411
p7086
aVGROOVY-1410
p7087
aVGROOVY-1409
p7088
aVGROOVY-1408
p7089
aVGROOVY-1407
p7090
aVGROOVY-1406
p7091
aVGROOVY-1405
p7092
aVGROOVY-1404
p7093
aVGROOVY-1403
p7094
aVGROOVY-1402
p7095
aVGROOVY-1401
p7096
aVGROOVY-1400
p7097
aVGROOVY-1399
p7098
aVGROOVY-1398
p7099
aVGROOVY-1397
p7100
aVGROOVY-1396
p7101
aVGROOVY-1395
p7102
aVGROOVY-1393
p7103
aVGROOVY-1392
p7104
aVGROOVY-1391
p7105
aVGROOVY-1390
p7106
aVGROOVY-1389
p7107
aVGROOVY-1388
p7108
aVGROOVY-1387
p7109
aVGROOVY-1386
p7110
aVGROOVY-1385
p7111
aVGROOVY-1384
p7112
aVGROOVY-1383
p7113
aVGROOVY-1382
p7114
aVGROOVY-1381
p7115
aVGROOVY-1380
p7116
aVGROOVY-1379
p7117
aVGROOVY-1378
p7118
aVGROOVY-1377
p7119
aVGROOVY-1376
p7120
aVGROOVY-1375
p7121
aVGROOVY-1374
p7122
aVGROOVY-1373
p7123
aVGROOVY-1372
p7124
aVGROOVY-1371
p7125
aVGROOVY-1370
p7126
aVGROOVY-1369
p7127
aVGROOVY-1368
p7128
aVGROOVY-1367
p7129
aVGROOVY-1366
p7130
aVGROOVY-1365
p7131
aVGROOVY-1364
p7132
aVGROOVY-1363
p7133
aVGROOVY-1362
p7134
aVGROOVY-1361
p7135
aVGROOVY-1360
p7136
aVGROOVY-1359
p7137
aVGROOVY-1358
p7138
aVGROOVY-1357
p7139
aVGROOVY-1355
p7140
aVGROOVY-1354
p7141
aVGROOVY-1353
p7142
aVGROOVY-1352
p7143
aVGROOVY-1351
p7144
aVGROOVY-1350
p7145
aVGROOVY-1349
p7146
aVGROOVY-1348
p7147
aVGROOVY-1347
p7148
aVGROOVY-1346
p7149
aVGROOVY-1345
p7150
aVGROOVY-1344
p7151
aVGROOVY-1343
p7152
aVGROOVY-1342
p7153
aVGROOVY-1340
p7154
aVGROOVY-1339
p7155
aVGROOVY-1338
p7156
aVGROOVY-1337
p7157
aVGROOVY-1335
p7158
aVGROOVY-1334
p7159
aVGROOVY-1333
p7160
aVGROOVY-1332
p7161
aVGROOVY-1331
p7162
aVGROOVY-1330
p7163
aVGROOVY-1329
p7164
aVGROOVY-1328
p7165
aVGROOVY-1327
p7166
aVGROOVY-1326
p7167
aVGROOVY-1325
p7168
aVGROOVY-1324
p7169
aVGROOVY-1323
p7170
aVGROOVY-1322
p7171
aVGROOVY-1321
p7172
aVGROOVY-1320
p7173
aVGROOVY-1319
p7174
aVGROOVY-1318
p7175
aVGROOVY-1317
p7176
aVGROOVY-1316
p7177
aVGROOVY-1315
p7178
aVGROOVY-1314
p7179
aVGROOVY-1313
p7180
aVGROOVY-1312
p7181
aVGROOVY-1311
p7182
aVGROOVY-1310
p7183
aVGROOVY-1309
p7184
aVGROOVY-1308
p7185
aVGROOVY-1307
p7186
aVGROOVY-1306
p7187
aVGROOVY-1305
p7188
aVGROOVY-1304
p7189
aVGROOVY-1303
p7190
aVGROOVY-1302
p7191
aVGROOVY-1301
p7192
aVGROOVY-1300
p7193
aVGROOVY-1299
p7194
aVGROOVY-1298
p7195
aVGROOVY-1297
p7196
aVGROOVY-1296
p7197
aVGROOVY-1295
p7198
aVGROOVY-1294
p7199
aVGROOVY-1293
p7200
aVGROOVY-1292
p7201
aVGROOVY-1291
p7202
aVGROOVY-1290
p7203
aVGROOVY-1289
p7204
aVGROOVY-1288
p7205
aVGROOVY-1287
p7206
aVGROOVY-1286
p7207
aVGROOVY-1285
p7208
aVGROOVY-1284
p7209
aVGROOVY-1283
p7210
aVGROOVY-1282
p7211
aVGROOVY-1281
p7212
aVGROOVY-1280
p7213
aVGROOVY-1279
p7214
aVGROOVY-1278
p7215
aVGROOVY-1277
p7216
aVGROOVY-1276
p7217
aVGROOVY-1275
p7218
aVGROOVY-1274
p7219
aVGROOVY-1273
p7220
aVGROOVY-1272
p7221
aVGROOVY-1271
p7222
aVGROOVY-1270
p7223
aVGROOVY-1269
p7224
aVGROOVY-1268
p7225
aVGROOVY-1267
p7226
aVGROOVY-1266
p7227
aVGROOVY-1265
p7228
aVGROOVY-1264
p7229
aVGROOVY-1263
p7230
aVGROOVY-1262
p7231
aVGROOVY-1261
p7232
aVGROOVY-1260
p7233
aVGROOVY-1259
p7234
aVGROOVY-1258
p7235
aVGROOVY-1257
p7236
aVGROOVY-1255
p7237
aVGROOVY-1254
p7238
aVGROOVY-1253
p7239
aVGROOVY-1252
p7240
aVGROOVY-1251
p7241
aVGROOVY-1250
p7242
aVGROOVY-1249
p7243
aVGROOVY-1248
p7244
aVGROOVY-1247
p7245
aVGROOVY-1246
p7246
aVGROOVY-1245
p7247
aVGROOVY-1244
p7248
aVGROOVY-1243
p7249
aVGROOVY-1242
p7250
aVGROOVY-1241
p7251
aVGROOVY-1240
p7252
aVGROOVY-1239
p7253
aVGROOVY-1238
p7254
aVGROOVY-1237
p7255
aVGROOVY-1236
p7256
aVGROOVY-1235
p7257
aVGROOVY-1234
p7258
aVGROOVY-1233
p7259
aVGROOVY-1232
p7260
aVGROOVY-1231
p7261
aVGROOVY-1230
p7262
aVGROOVY-1229
p7263
aVGROOVY-1228
p7264
aVGROOVY-1227
p7265
aVGROOVY-1226
p7266
aVGROOVY-1225
p7267
aVGROOVY-1224
p7268
aVGROOVY-1223
p7269
aVGROOVY-1222
p7270
aVGROOVY-1221
p7271
aVGROOVY-1220
p7272
aVGROOVY-1219
p7273
aVGROOVY-1218
p7274
aVGROOVY-1217
p7275
aVGROOVY-1216
p7276
aVGROOVY-1215
p7277
aVGROOVY-1214
p7278
aVGROOVY-1213
p7279
aVGROOVY-1212
p7280
aVGROOVY-1211
p7281
aVGROOVY-1210
p7282
aVGROOVY-1209
p7283
aVGROOVY-1208
p7284
aVGROOVY-1207
p7285
aVGROOVY-1206
p7286
aVGROOVY-1205
p7287
aVGROOVY-1204
p7288
aVGROOVY-1203
p7289
aVGROOVY-1202
p7290
aVGROOVY-1201
p7291
aVGROOVY-1200
p7292
aVGROOVY-1199
p7293
aVGROOVY-1198
p7294
aVGROOVY-1197
p7295
aVGROOVY-1196
p7296
aVGROOVY-1195
p7297
aVGROOVY-1194
p7298
aVGROOVY-1193
p7299
aVGROOVY-1192
p7300
aVGROOVY-1191
p7301
aVGROOVY-1190
p7302
aVGROOVY-1189
p7303
aVGROOVY-1188
p7304
aVGROOVY-1187
p7305
aVGROOVY-1186
p7306
aVGROOVY-1185
p7307
aVGROOVY-1184
p7308
aVGROOVY-1183
p7309
aVGROOVY-1182
p7310
aVGROOVY-1181
p7311
aVGROOVY-1180
p7312
aVGROOVY-1179
p7313
aVGROOVY-1178
p7314
aVGROOVY-1177
p7315
aVGROOVY-1176
p7316
aVGROOVY-1175
p7317
aVGROOVY-1174
p7318
aVGROOVY-1173
p7319
aVGROOVY-1172
p7320
aVGROOVY-1171
p7321
aVGROOVY-1170
p7322
aVGROOVY-1169
p7323
aVGROOVY-1168
p7324
aVGROOVY-1167
p7325
aVGROOVY-1166
p7326
aVGROOVY-1165
p7327
aVGROOVY-1164
p7328
aVGROOVY-1163
p7329
aVGROOVY-1162
p7330
aVGROOVY-1160
p7331
aVGROOVY-1159
p7332
aVGROOVY-1158
p7333
aVGROOVY-1157
p7334
aVGROOVY-1156
p7335
aVGROOVY-1155
p7336
aVGROOVY-1154
p7337
aVGROOVY-1153
p7338
aVGROOVY-1152
p7339
aVGROOVY-1151
p7340
aVGROOVY-1150
p7341
aVGROOVY-1149
p7342
aVGROOVY-1148
p7343
aVGROOVY-1147
p7344
aVGROOVY-1145
p7345
aVGROOVY-1144
p7346
aVGROOVY-1143
p7347
aVGROOVY-1142
p7348
aVGROOVY-1141
p7349
aVGROOVY-1140
p7350
aVGROOVY-1139
p7351
aVGROOVY-1138
p7352
aVGROOVY-1137
p7353
aVGROOVY-1136
p7354
aVGROOVY-1135
p7355
aVGROOVY-1134
p7356
aVGROOVY-1133
p7357
aVGROOVY-1132
p7358
aVGROOVY-1131
p7359
aVGROOVY-1130
p7360
aVGROOVY-1129
p7361
aVGROOVY-1128
p7362
aVGROOVY-1127
p7363
aVGROOVY-1126
p7364
aVGROOVY-1125
p7365
aVGROOVY-1124
p7366
aVGROOVY-1123
p7367
aVGROOVY-1122
p7368
aVGROOVY-1121
p7369
aVGROOVY-1120
p7370
aVGROOVY-1119
p7371
aVGROOVY-1118
p7372
aVGROOVY-1117
p7373
aVGROOVY-1116
p7374
aVGROOVY-1115
p7375
aVGROOVY-1114
p7376
aVGROOVY-1113
p7377
aVGROOVY-1112
p7378
aVGROOVY-1111
p7379
aVGROOVY-1110
p7380
aVGROOVY-1109
p7381
aVGROOVY-1108
p7382
aVGROOVY-1107
p7383
aVGROOVY-1106
p7384
aVGROOVY-1105
p7385
aVGROOVY-1104
p7386
aVGROOVY-1103
p7387
aVGROOVY-1102
p7388
aVGROOVY-1101
p7389
aVGROOVY-1100
p7390
aVGROOVY-1099
p7391
aVGROOVY-1098
p7392
aVGROOVY-1097
p7393
aVGROOVY-1096
p7394
aVGROOVY-1095
p7395
aVGROOVY-1094
p7396
aVGROOVY-1093
p7397
aVGROOVY-1092
p7398
aVGROOVY-1091
p7399
aVGROOVY-1090
p7400
aVGROOVY-1089
p7401
aVGROOVY-1088
p7402
aVGROOVY-1087
p7403
aVGROOVY-1086
p7404
aVGROOVY-1085
p7405
aVGROOVY-1084
p7406
aVGROOVY-1083
p7407
aVGROOVY-1082
p7408
aVGROOVY-1081
p7409
aVGROOVY-1080
p7410
aVGROOVY-1079
p7411
aVGROOVY-1078
p7412
aVGROOVY-1077
p7413
aVGROOVY-1076
p7414
aVGROOVY-1075
p7415
aVGROOVY-1074
p7416
aVGROOVY-1073
p7417
aVGROOVY-1072
p7418
aVGROOVY-1071
p7419
aVGROOVY-1070
p7420
aVGROOVY-1069
p7421
aVGROOVY-1068
p7422
aVGROOVY-1067
p7423
aVGROOVY-1066
p7424
aVGROOVY-1065
p7425
aVGROOVY-1064
p7426
aVGROOVY-1063
p7427
aVGROOVY-1062
p7428
aVGROOVY-1061
p7429
aVGROOVY-1060
p7430
aVGROOVY-1059
p7431
aVGROOVY-1058
p7432
aVGROOVY-1057
p7433
aVGROOVY-1056
p7434
aVGROOVY-1055
p7435
aVGROOVY-1054
p7436
aVGROOVY-1053
p7437
aVGROOVY-1052
p7438
aVGROOVY-1051
p7439
aVGROOVY-1050
p7440
aVGROOVY-1049
p7441
aVGROOVY-1048
p7442
aVGROOVY-1047
p7443
aVGROOVY-1046
p7444
aVGROOVY-1045
p7445
aVGROOVY-1044
p7446
aVGROOVY-1043
p7447
aVGROOVY-1042
p7448
aVGROOVY-1041
p7449
aVGROOVY-1040
p7450
aVGROOVY-1039
p7451
aVGROOVY-1038
p7452
aVGROOVY-1037
p7453
aVGROOVY-1036
p7454
aVGROOVY-1035
p7455
aVGROOVY-1034
p7456
aVGROOVY-1033
p7457
aVGROOVY-1032
p7458
aVGROOVY-1031
p7459
aVGROOVY-1030
p7460
aVGROOVY-1029
p7461
aVGROOVY-1028
p7462
aVGROOVY-1027
p7463
aVGROOVY-1026
p7464
aVGROOVY-1025
p7465
aVGROOVY-1024
p7466
aVGROOVY-1023
p7467
aVGROOVY-1022
p7468
aVGROOVY-1021
p7469
aVGROOVY-1020
p7470
aVGROOVY-1019
p7471
aVGROOVY-1018
p7472
aVGROOVY-1017
p7473
aVGROOVY-1014
p7474
aVGROOVY-1013
p7475
aVGROOVY-1012
p7476
aVGROOVY-1011
p7477
aVGROOVY-1010
p7478
aVGROOVY-1009
p7479
aVGROOVY-1008
p7480
aVGROOVY-1007
p7481
aVGROOVY-1006
p7482
aVGROOVY-1005
p7483
aVGROOVY-1004
p7484
aVGROOVY-1003
p7485
aVGROOVY-1002
p7486
aVGROOVY-1001
p7487
aVGROOVY-1000
p7488
aVGROOVY-999
p7489
aVGROOVY-998
p7490
aVGROOVY-997
p7491
aVGROOVY-996
p7492
aVGROOVY-995
p7493
aVGROOVY-994
p7494
aVGROOVY-993
p7495
aVGROOVY-992
p7496
aVGROOVY-991
p7497
aVGROOVY-990
p7498
aVGROOVY-989
p7499
aVGROOVY-988
p7500
aVGROOVY-987
p7501
aVGROOVY-986
p7502
aVGROOVY-984
p7503
aVGROOVY-983
p7504
aVGROOVY-982
p7505
aVGROOVY-981
p7506
aVGROOVY-980
p7507
aVGROOVY-979
p7508
aVGROOVY-978
p7509
aVGROOVY-977
p7510
aVGROOVY-976
p7511
aVGROOVY-975
p7512
aVGROOVY-974
p7513
aVGROOVY-973
p7514
aVGROOVY-972
p7515
aVGROOVY-971
p7516
aVGROOVY-970
p7517
aVGROOVY-969
p7518
aVGROOVY-968
p7519
aVGROOVY-967
p7520
aVGROOVY-966
p7521
aVGROOVY-965
p7522
aVGROOVY-964
p7523
aVGROOVY-963
p7524
aVGROOVY-962
p7525
aVGROOVY-961
p7526
aVGROOVY-960
p7527
aVGROOVY-959
p7528
aVGROOVY-958
p7529
aVGROOVY-957
p7530
aVGROOVY-956
p7531
aVGROOVY-955
p7532
aVGROOVY-954
p7533
aVGROOVY-953
p7534
aVGROOVY-952
p7535
aVGROOVY-951
p7536
aVGROOVY-950
p7537
aVGROOVY-949
p7538
aVGROOVY-948
p7539
aVGROOVY-947
p7540
aVGROOVY-946
p7541
aVGROOVY-945
p7542
aVGROOVY-944
p7543
aVGROOVY-943
p7544
aVGROOVY-942
p7545
aVGROOVY-941
p7546
aVGROOVY-940
p7547
aVGROOVY-939
p7548
aVGROOVY-938
p7549
aVGROOVY-937
p7550
aVGROOVY-936
p7551
aVGROOVY-935
p7552
aVGROOVY-934
p7553
aVGROOVY-933
p7554
aVGROOVY-932
p7555
aVGROOVY-931
p7556
aVGROOVY-930
p7557
aVGROOVY-929
p7558
aVGROOVY-928
p7559
aVGROOVY-927
p7560
aVGROOVY-926
p7561
aVGROOVY-925
p7562
aVGROOVY-924
p7563
aVGROOVY-923
p7564
aVGROOVY-922
p7565
aVGROOVY-921
p7566
aVGROOVY-920
p7567
aVGROOVY-919
p7568
aVGROOVY-918
p7569
aVGROOVY-917
p7570
aVGROOVY-916
p7571
aVGROOVY-915
p7572
aVGROOVY-914
p7573
aVGROOVY-913
p7574
aVGROOVY-912
p7575
aVGROOVY-911
p7576
aVGROOVY-910
p7577
aVGROOVY-909
p7578
aVGROOVY-908
p7579
aVGROOVY-907
p7580
aVGROOVY-906
p7581
aVGROOVY-905
p7582
aVGROOVY-904
p7583
aVGROOVY-903
p7584
aVGROOVY-902
p7585
aVGROOVY-901
p7586
aVGROOVY-900
p7587
aVGROOVY-898
p7588
aVGROOVY-897
p7589
aVGROOVY-896
p7590
aVGROOVY-895
p7591
aVGROOVY-894
p7592
aVGROOVY-893
p7593
aVGROOVY-892
p7594
aVGROOVY-891
p7595
aVGROOVY-890
p7596
aVGROOVY-889
p7597
aVGROOVY-888
p7598
aVGROOVY-887
p7599
aVGROOVY-886
p7600
aVGROOVY-885
p7601
aVGROOVY-884
p7602
aVGROOVY-883
p7603
aVGROOVY-882
p7604
aVGROOVY-881
p7605
aVGROOVY-880
p7606
aVGROOVY-879
p7607
aVGROOVY-878
p7608
aVGROOVY-877
p7609
aVGROOVY-876
p7610
aVGROOVY-875
p7611
aVGROOVY-874
p7612
aVGROOVY-873
p7613
aVGROOVY-872
p7614
aVGROOVY-871
p7615
aVGROOVY-870
p7616
aVGROOVY-869
p7617
aVGROOVY-868
p7618
aVGROOVY-867
p7619
aVGROOVY-866
p7620
aVGROOVY-865
p7621
aVGROOVY-864
p7622
aVGROOVY-863
p7623
aVGROOVY-862
p7624
aVGROOVY-861
p7625
aVGROOVY-860
p7626
aVGROOVY-859
p7627
aVGROOVY-858
p7628
aVGROOVY-857
p7629
aVGROOVY-856
p7630
aVGROOVY-855
p7631
aVGROOVY-854
p7632
aVGROOVY-853
p7633
aVGROOVY-852
p7634
aVGROOVY-851
p7635
aVGROOVY-850
p7636
aVGROOVY-849
p7637
aVGROOVY-848
p7638
aVGROOVY-847
p7639
aVGROOVY-846
p7640
aVGROOVY-845
p7641
aVGROOVY-844
p7642
aVGROOVY-843
p7643
aVGROOVY-842
p7644
aVGROOVY-841
p7645
aVGROOVY-840
p7646
aVGROOVY-839
p7647
aVGROOVY-838
p7648
aVGROOVY-837
p7649
aVGROOVY-836
p7650
aVGROOVY-835
p7651
aVGROOVY-834
p7652
aVGROOVY-833
p7653
aVGROOVY-832
p7654
aVGROOVY-831
p7655
aVGROOVY-830
p7656
aVGROOVY-829
p7657
aVGROOVY-828
p7658
aVGROOVY-827
p7659
aVGROOVY-826
p7660
aVGROOVY-825
p7661
aVGROOVY-824
p7662
aVGROOVY-823
p7663
aVGROOVY-822
p7664
aVGROOVY-821
p7665
aVGROOVY-820
p7666
aVGROOVY-819
p7667
aVGROOVY-818
p7668
aVGROOVY-817
p7669
aVGROOVY-816
p7670
aVGROOVY-815
p7671
aVGROOVY-814
p7672
aVGROOVY-813
p7673
aVGROOVY-812
p7674
aVGROOVY-811
p7675
aVGROOVY-810
p7676
aVGROOVY-809
p7677
aVGROOVY-808
p7678
aVGROOVY-807
p7679
aVGROOVY-806
p7680
aVGROOVY-805
p7681
aVGROOVY-804
p7682
aVGROOVY-803
p7683
aVGROOVY-802
p7684
aVGROOVY-801
p7685
aVGROOVY-800
p7686
aVGROOVY-798
p7687
aVGROOVY-797
p7688
aVGROOVY-796
p7689
aVGROOVY-795
p7690
aVGROOVY-794
p7691
aVGROOVY-793
p7692
aVGROOVY-792
p7693
aVGROOVY-791
p7694
aVGROOVY-790
p7695
aVGROOVY-789
p7696
aVGROOVY-788
p7697
aVGROOVY-787
p7698
aVGROOVY-786
p7699
aVGROOVY-785
p7700
aVGROOVY-784
p7701
aVGROOVY-783
p7702
aVGROOVY-782
p7703
aVGROOVY-781
p7704
aVGROOVY-780
p7705
aVGROOVY-779
p7706
aVGROOVY-778
p7707
aVGROOVY-776
p7708
aVGROOVY-773
p7709
aVGROOVY-772
p7710
aVGROOVY-771
p7711
aVGROOVY-770
p7712
aVGROOVY-769
p7713
aVGROOVY-768
p7714
aVGROOVY-767
p7715
aVGROOVY-766
p7716
aVGROOVY-765
p7717
aVGROOVY-764
p7718
aVGROOVY-763
p7719
aVGROOVY-762
p7720
aVGROOVY-761
p7721
aVGROOVY-760
p7722
aVGROOVY-759
p7723
aVGROOVY-758
p7724
aVGROOVY-757
p7725
aVGROOVY-756
p7726
aVGROOVY-755
p7727
aVGROOVY-754
p7728
aVGROOVY-753
p7729
aVGROOVY-752
p7730
aVGROOVY-751
p7731
aVGROOVY-750
p7732
aVGROOVY-749
p7733
aVGROOVY-748
p7734
aVGROOVY-747
p7735
aVGROOVY-746
p7736
aVGROOVY-745
p7737
aVGROOVY-744
p7738
aVGROOVY-743
p7739
aVGROOVY-742
p7740
aVGROOVY-741
p7741
aVGROOVY-740
p7742
aVGROOVY-739
p7743
aVGROOVY-738
p7744
aVGROOVY-737
p7745
aVGROOVY-736
p7746
aVGROOVY-735
p7747
aVGROOVY-734
p7748
aVGROOVY-733
p7749
aVGROOVY-732
p7750
aVGROOVY-731
p7751
aVGROOVY-730
p7752
aVGROOVY-729
p7753
aVGROOVY-728
p7754
aVGROOVY-727
p7755
aVGROOVY-726
p7756
aVGROOVY-724
p7757
aVGROOVY-723
p7758
aVGROOVY-722
p7759
aVGROOVY-721
p7760
aVGROOVY-720
p7761
aVGROOVY-719
p7762
aVGROOVY-718
p7763
aVGROOVY-717
p7764
aVGROOVY-716
p7765
aVGROOVY-715
p7766
aVGROOVY-714
p7767
aVGROOVY-713
p7768
aVGROOVY-712
p7769
aVGROOVY-711
p7770
aVGROOVY-710
p7771
aVGROOVY-709
p7772
aVGROOVY-708
p7773
aVGROOVY-707
p7774
aVGROOVY-706
p7775
aVGROOVY-705
p7776
aVGROOVY-704
p7777
aVGROOVY-703
p7778
aVGROOVY-702
p7779
aVGROOVY-701
p7780
aVGROOVY-700
p7781
aVGROOVY-699
p7782
aVGROOVY-698
p7783
aVGROOVY-697
p7784
aVGROOVY-696
p7785
aVGROOVY-695
p7786
aVGROOVY-694
p7787
aVGROOVY-693
p7788
aVGROOVY-692
p7789
aVGROOVY-691
p7790
aVGROOVY-690
p7791
aVGROOVY-687
p7792
aVGROOVY-686
p7793
aVGROOVY-685
p7794
aVGROOVY-684
p7795
aVGROOVY-683
p7796
aVGROOVY-682
p7797
aVGROOVY-681
p7798
aVGROOVY-680
p7799
aVGROOVY-679
p7800
aVGROOVY-678
p7801
aVGROOVY-677
p7802
aVGROOVY-676
p7803
aVGROOVY-675
p7804
aVGROOVY-674
p7805
aVGROOVY-673
p7806
aVGROOVY-672
p7807
aVGROOVY-671
p7808
aVGROOVY-670
p7809
aVGROOVY-669
p7810
aVGROOVY-668
p7811
aVGROOVY-667
p7812
aVGROOVY-666
p7813
aVGROOVY-665
p7814
aVGROOVY-664
p7815
aVGROOVY-663
p7816
aVGROOVY-662
p7817
aVGROOVY-661
p7818
aVGROOVY-660
p7819
aVGROOVY-659
p7820
aVGROOVY-658
p7821
aVGROOVY-657
p7822
aVGROOVY-656
p7823
aVGROOVY-655
p7824
aVGROOVY-654
p7825
aVGROOVY-653
p7826
aVGROOVY-652
p7827
aVGROOVY-651
p7828
aVGROOVY-650
p7829
aVGROOVY-649
p7830
aVGROOVY-648
p7831
aVGROOVY-647
p7832
aVGROOVY-646
p7833
aVGROOVY-645
p7834
aVGROOVY-644
p7835
aVGROOVY-643
p7836
aVGROOVY-642
p7837
aVGROOVY-641
p7838
aVGROOVY-640
p7839
aVGROOVY-639
p7840
aVGROOVY-638
p7841
aVGROOVY-637
p7842
aVGROOVY-636
p7843
aVGROOVY-635
p7844
aVGROOVY-634
p7845
aVGROOVY-633
p7846
aVGROOVY-632
p7847
aVGROOVY-631
p7848
aVGROOVY-630
p7849
aVGROOVY-629
p7850
aVGROOVY-628
p7851
aVGROOVY-627
p7852
aVGROOVY-626
p7853
aVGROOVY-625
p7854
aVGROOVY-624
p7855
aVGROOVY-623
p7856
aVGROOVY-622
p7857
aVGROOVY-621
p7858
aVGROOVY-620
p7859
aVGROOVY-619
p7860
aVGROOVY-618
p7861
aVGROOVY-617
p7862
aVGROOVY-616
p7863
aVGROOVY-615
p7864
aVGROOVY-614
p7865
aVGROOVY-613
p7866
aVGROOVY-612
p7867
aVGROOVY-611
p7868
aVGROOVY-610
p7869
aVGROOVY-609
p7870
aVGROOVY-608
p7871
aVGROOVY-607
p7872
aVGROOVY-606
p7873
aVGROOVY-605
p7874
aVGROOVY-604
p7875
aVGROOVY-603
p7876
aVGROOVY-602
p7877
aVGROOVY-601
p7878
aVGROOVY-600
p7879
aVGROOVY-599
p7880
aVGROOVY-598
p7881
aVGROOVY-597
p7882
aVGROOVY-596
p7883
aVGROOVY-595
p7884
aVGROOVY-594
p7885
aVGROOVY-593
p7886
aVGROOVY-592
p7887
aVGROOVY-591
p7888
aVGROOVY-590
p7889
aVGROOVY-589
p7890
aVGROOVY-588
p7891
aVGROOVY-587
p7892
aVGROOVY-586
p7893
aVGROOVY-585
p7894
aVGROOVY-584
p7895
aVGROOVY-583
p7896
aVGROOVY-582
p7897
aVGROOVY-581
p7898
aVGROOVY-580
p7899
aVGROOVY-579
p7900
aVGROOVY-578
p7901
aVGROOVY-577
p7902
aVGROOVY-576
p7903
aVGROOVY-575
p7904
aVGROOVY-574
p7905
aVGROOVY-573
p7906
aVGROOVY-572
p7907
aVGROOVY-571
p7908
aVGROOVY-570
p7909
aVGROOVY-569
p7910
aVGROOVY-568
p7911
aVGROOVY-567
p7912
aVGROOVY-566
p7913
aVGROOVY-565
p7914
aVGROOVY-564
p7915
aVGROOVY-563
p7916
aVGROOVY-562
p7917
aVGROOVY-561
p7918
aVGROOVY-560
p7919
aVGROOVY-559
p7920
aVGROOVY-558
p7921
aVGROOVY-557
p7922
aVGROOVY-556
p7923
aVGROOVY-555
p7924
aVGROOVY-554
p7925
aVGROOVY-553
p7926
aVGROOVY-552
p7927
aVGROOVY-551
p7928
aVGROOVY-550
p7929
aVGROOVY-549
p7930
aVGROOVY-548
p7931
aVGROOVY-547
p7932
aVGROOVY-546
p7933
aVGROOVY-545
p7934
aVGROOVY-544
p7935
aVGROOVY-543
p7936
aVGROOVY-542
p7937
aVGROOVY-541
p7938
aVGROOVY-540
p7939
aVGROOVY-539
p7940
aVGROOVY-538
p7941
aVGROOVY-537
p7942
aVGROOVY-536
p7943
aVGROOVY-535
p7944
aVGROOVY-534
p7945
aVGROOVY-533
p7946
aVGROOVY-532
p7947
aVGROOVY-531
p7948
aVGROOVY-530
p7949
aVGROOVY-529
p7950
aVGROOVY-528
p7951
aVGROOVY-527
p7952
aVGROOVY-526
p7953
aVGROOVY-525
p7954
aVGROOVY-524
p7955
aVGROOVY-523
p7956
aVGROOVY-522
p7957
aVGROOVY-521
p7958
aVGROOVY-520
p7959
aVGROOVY-519
p7960
aVGROOVY-518
p7961
aVGROOVY-517
p7962
aVGROOVY-516
p7963
aVGROOVY-515
p7964
aVGROOVY-514
p7965
aVGROOVY-513
p7966
aVGROOVY-512
p7967
aVGROOVY-511
p7968
aVGROOVY-510
p7969
aVGROOVY-509
p7970
aVGROOVY-508
p7971
aVGROOVY-507
p7972
aVGROOVY-506
p7973
aVGROOVY-505
p7974
aVGROOVY-504
p7975
aVGROOVY-503
p7976
aVGROOVY-502
p7977
aVGROOVY-501
p7978
aVGROOVY-500
p7979
aVGROOVY-499
p7980
aVGROOVY-498
p7981
aVGROOVY-497
p7982
aVGROOVY-496
p7983
aVGROOVY-495
p7984
aVGROOVY-494
p7985
aVGROOVY-493
p7986
aVGROOVY-492
p7987
aVGROOVY-491
p7988
aVGROOVY-490
p7989
aVGROOVY-489
p7990
aVGROOVY-488
p7991
aVGROOVY-487
p7992
aVGROOVY-486
p7993
aVGROOVY-485
p7994
aVGROOVY-484
p7995
aVGROOVY-483
p7996
aVGROOVY-482
p7997
aVGROOVY-481
p7998
aVGROOVY-480
p7999
aVGROOVY-479
p8000
aVGROOVY-478
p8001
aVGROOVY-477
p8002
aVGROOVY-476
p8003
aVGROOVY-475
p8004
aVGROOVY-474
p8005
aVGROOVY-473
p8006
aVGROOVY-472
p8007
aVGROOVY-471
p8008
aVGROOVY-470
p8009
aVGROOVY-469
p8010
aVGROOVY-468
p8011
aVGROOVY-467
p8012
aVGROOVY-466
p8013
aVGROOVY-465
p8014
aVGROOVY-464
p8015
aVGROOVY-463
p8016
aVGROOVY-462
p8017
aVGROOVY-461
p8018
aVGROOVY-460
p8019
aVGROOVY-459
p8020
aVGROOVY-458
p8021
aVGROOVY-457
p8022
aVGROOVY-456
p8023
aVGROOVY-455
p8024
aVGROOVY-454
p8025
aVGROOVY-453
p8026
aVGROOVY-452
p8027
aVGROOVY-451
p8028
aVGROOVY-450
p8029
aVGROOVY-449
p8030
aVGROOVY-448
p8031
aVGROOVY-447
p8032
aVGROOVY-446
p8033
aVGROOVY-445
p8034
aVGROOVY-444
p8035
aVGROOVY-443
p8036
aVGROOVY-442
p8037
aVGROOVY-441
p8038
aVGROOVY-440
p8039
aVGROOVY-439
p8040
aVGROOVY-438
p8041
aVGROOVY-437
p8042
aVGROOVY-436
p8043
aVGROOVY-435
p8044
aVGROOVY-434
p8045
aVGROOVY-433
p8046
aVGROOVY-432
p8047
aVGROOVY-431
p8048
aVGROOVY-430
p8049
aVGROOVY-429
p8050
aVGROOVY-428
p8051
aVGROOVY-427
p8052
aVGROOVY-426
p8053
aVGROOVY-425
p8054
aVGROOVY-424
p8055
aVGROOVY-423
p8056
aVGROOVY-422
p8057
aVGROOVY-421
p8058
aVGROOVY-420
p8059
aVGROOVY-419
p8060
aVGROOVY-418
p8061
aVGROOVY-417
p8062
aVGROOVY-416
p8063
aVGROOVY-415
p8064
aVGROOVY-414
p8065
aVGROOVY-413
p8066
aVGROOVY-412
p8067
aVGROOVY-411
p8068
aVGROOVY-410
p8069
aVGROOVY-409
p8070
aVGROOVY-408
p8071
aVGROOVY-407
p8072
aVGROOVY-406
p8073
aVGROOVY-405
p8074
aVGROOVY-404
p8075
aVGROOVY-403
p8076
aVGROOVY-402
p8077
aVGROOVY-401
p8078
aVGROOVY-400
p8079
aVGROOVY-399
p8080
aVGROOVY-398
p8081
aVGROOVY-397
p8082
aVGROOVY-396
p8083
aVGROOVY-395
p8084
aVGROOVY-394
p8085
aVGROOVY-393
p8086
aVGROOVY-392
p8087
aVGROOVY-391
p8088
aVGROOVY-390
p8089
aVGROOVY-389
p8090
aVGROOVY-388
p8091
aVGROOVY-387
p8092
aVGROOVY-386
p8093
aVGROOVY-385
p8094
aVGROOVY-384
p8095
aVGROOVY-383
p8096
aVGROOVY-382
p8097
aVGROOVY-381
p8098
aVGROOVY-380
p8099
aVGROOVY-379
p8100
aVGROOVY-378
p8101
aVGROOVY-377
p8102
aVGROOVY-376
p8103
aVGROOVY-375
p8104
aVGROOVY-374
p8105
aVGROOVY-373
p8106
aVGROOVY-372
p8107
aVGROOVY-371
p8108
aVGROOVY-370
p8109
aVGROOVY-369
p8110
aVGROOVY-368
p8111
aVGROOVY-367
p8112
aVGROOVY-366
p8113
aVGROOVY-365
p8114
aVGROOVY-364
p8115
aVGROOVY-363
p8116
aVGROOVY-362
p8117
aVGROOVY-361
p8118
aVGROOVY-360
p8119
aVGROOVY-359
p8120
aVGROOVY-358
p8121
aVGROOVY-357
p8122
aVGROOVY-356
p8123
aVGROOVY-355
p8124
aVGROOVY-354
p8125
aVGROOVY-353
p8126
aVGROOVY-352
p8127
aVGROOVY-351
p8128
aVGROOVY-350
p8129
aVGROOVY-349
p8130
aVGROOVY-348
p8131
aVGROOVY-347
p8132
aVGROOVY-346
p8133
aVGROOVY-345
p8134
aVGROOVY-344
p8135
aVGROOVY-343
p8136
aVGROOVY-342
p8137
aVGROOVY-341
p8138
aVGROOVY-340
p8139
aVGROOVY-339
p8140
aVGROOVY-338
p8141
aVGROOVY-337
p8142
aVGROOVY-336
p8143
aVGROOVY-335
p8144
aVGROOVY-334
p8145
aVGROOVY-333
p8146
aVGROOVY-332
p8147
aVGROOVY-331
p8148
aVGROOVY-330
p8149
aVGROOVY-329
p8150
aVGROOVY-328
p8151
aVGROOVY-327
p8152
aVGROOVY-326
p8153
aVGROOVY-325
p8154
aVGROOVY-324
p8155
aVGROOVY-323
p8156
aVGROOVY-322
p8157
aVGROOVY-321
p8158
aVGROOVY-320
p8159
aVGROOVY-319
p8160
aVGROOVY-318
p8161
aVGROOVY-317
p8162
aVGROOVY-316
p8163
aVGROOVY-315
p8164
aVGROOVY-314
p8165
aVGROOVY-313
p8166
aVGROOVY-312
p8167
aVGROOVY-311
p8168
aVGROOVY-310
p8169
aVGROOVY-309
p8170
aVGROOVY-308
p8171
aVGROOVY-307
p8172
aVGROOVY-306
p8173
aVGROOVY-305
p8174
aVGROOVY-304
p8175
aVGROOVY-303
p8176
aVGROOVY-302
p8177
aVGROOVY-301
p8178
aVGROOVY-300
p8179
aVGROOVY-299
p8180
aVGROOVY-298
p8181
aVGROOVY-297
p8182
aVGROOVY-296
p8183
aVGROOVY-295
p8184
aVGROOVY-294
p8185
aVGROOVY-293
p8186
aVGROOVY-292
p8187
aVGROOVY-291
p8188
aVGROOVY-290
p8189
aVGROOVY-289
p8190
aVGROOVY-288
p8191
aVGROOVY-287
p8192
aVGROOVY-286
p8193
aVGROOVY-285
p8194
aVGROOVY-284
p8195
aVGROOVY-283
p8196
aVGROOVY-282
p8197
aVGROOVY-281
p8198
aVGROOVY-280
p8199
aVGROOVY-279
p8200
aVGROOVY-278
p8201
aVGROOVY-277
p8202
aVGROOVY-276
p8203
aVGROOVY-275
p8204
aVGROOVY-274
p8205
aVGROOVY-273
p8206
aVGROOVY-272
p8207
aVGROOVY-271
p8208
aVGROOVY-270
p8209
aVGROOVY-269
p8210
aVGROOVY-268
p8211
aVGROOVY-267
p8212
aVGROOVY-266
p8213
aVGROOVY-265
p8214
aVGROOVY-264
p8215
aVGROOVY-263
p8216
aVGROOVY-262
p8217
aVGROOVY-261
p8218
aVGROOVY-260
p8219
aVGROOVY-259
p8220
aVGROOVY-258
p8221
aVGROOVY-257
p8222
aVGROOVY-256
p8223
aVGROOVY-255
p8224
aVGROOVY-254
p8225
aVGROOVY-253
p8226
aVGROOVY-252
p8227
aVGROOVY-251
p8228
aVGROOVY-250
p8229
aVGROOVY-249
p8230
aVGROOVY-248
p8231
aVGROOVY-247
p8232
aVGROOVY-246
p8233
aVGROOVY-245
p8234
aVGROOVY-244
p8235
aVGROOVY-243
p8236
aVGROOVY-242
p8237
aVGROOVY-241
p8238
aVGROOVY-240
p8239
aVGROOVY-239
p8240
aVGROOVY-238
p8241
aVGROOVY-237
p8242
aVGROOVY-236
p8243
aVGROOVY-235
p8244
aVGROOVY-234
p8245
aVGROOVY-233
p8246
aVGROOVY-232
p8247
aVGROOVY-231
p8248
aVGROOVY-230
p8249
aVGROOVY-229
p8250
aVGROOVY-228
p8251
aVGROOVY-227
p8252
aVGROOVY-226
p8253
aVGROOVY-225
p8254
aVGROOVY-224
p8255
aVGROOVY-223
p8256
aVGROOVY-222
p8257
aVGROOVY-221
p8258
aVGROOVY-220
p8259
aVGROOVY-219
p8260
aVGROOVY-218
p8261
aVGROOVY-217
p8262
aVGROOVY-216
p8263
aVGROOVY-215
p8264
aVGROOVY-214
p8265
aVGROOVY-213
p8266
aVGROOVY-212
p8267
aVGROOVY-211
p8268
aVGROOVY-210
p8269
aVGROOVY-209
p8270
aVGROOVY-208
p8271
aVGROOVY-207
p8272
aVGROOVY-206
p8273
aVGROOVY-205
p8274
aVGROOVY-204
p8275
aVGROOVY-203
p8276
aVGROOVY-202
p8277
aVGROOVY-201
p8278
aVGROOVY-200
p8279
aVGROOVY-199
p8280
aVGROOVY-198
p8281
aVGROOVY-197
p8282
aVGROOVY-196
p8283
aVGROOVY-195
p8284
aVGROOVY-194
p8285
aVGROOVY-193
p8286
aVGROOVY-192
p8287
aVGROOVY-191
p8288
aVGROOVY-190
p8289
aVGROOVY-189
p8290
aVGROOVY-188
p8291
aVGROOVY-187
p8292
aVGROOVY-186
p8293
aVGROOVY-185
p8294
aVGROOVY-184
p8295
aVGROOVY-183
p8296
aVGROOVY-182
p8297
aVGROOVY-181
p8298
aVGROOVY-180
p8299
aVGROOVY-179
p8300
aVGROOVY-178
p8301
aVGROOVY-177
p8302
aVGROOVY-176
p8303
aVGROOVY-175
p8304
aVGROOVY-174
p8305
aVGROOVY-173
p8306
aVGROOVY-172
p8307
aVGROOVY-171
p8308
aVGROOVY-170
p8309
aVGROOVY-169
p8310
aVGROOVY-168
p8311
aVGROOVY-167
p8312
aVGROOVY-166
p8313
aVGROOVY-165
p8314
aVGROOVY-164
p8315
aVGROOVY-163
p8316
aVGROOVY-162
p8317
aVGROOVY-161
p8318
aVGROOVY-160
p8319
aVGROOVY-159
p8320
aVGROOVY-158
p8321
aVGROOVY-157
p8322
aVGROOVY-156
p8323
aVGROOVY-155
p8324
aVGROOVY-154
p8325
aVGROOVY-153
p8326
aVGROOVY-152
p8327
aVGROOVY-151
p8328
aVGROOVY-150
p8329
aVGROOVY-149
p8330
aVGROOVY-148
p8331
aVGROOVY-147
p8332
aVGROOVY-146
p8333
aVGROOVY-145
p8334
aVGROOVY-144
p8335
aVGROOVY-143
p8336
aVGROOVY-142
p8337
aVGROOVY-141
p8338
aVGROOVY-140
p8339
aVGROOVY-139
p8340
aVGROOVY-138
p8341
aVGROOVY-137
p8342
aVGROOVY-136
p8343
aVGROOVY-135
p8344
aVGROOVY-134
p8345
aVGROOVY-133
p8346
aVGROOVY-132
p8347
aVGROOVY-131
p8348
aVGROOVY-130
p8349
aVGROOVY-129
p8350
aVGROOVY-128
p8351
aVGROOVY-127
p8352
aVGROOVY-126
p8353
aVGROOVY-125
p8354
aVGROOVY-124
p8355
aVGROOVY-123
p8356
aVGROOVY-122
p8357
aVGROOVY-121
p8358
aVGROOVY-120
p8359
aVGROOVY-119
p8360
aVGROOVY-118
p8361
aVGROOVY-117
p8362
aVGROOVY-116
p8363
aVGROOVY-115
p8364
aVGROOVY-114
p8365
aVGROOVY-113
p8366
aVGROOVY-112
p8367
aVGROOVY-111
p8368
aVGROOVY-110
p8369
aVGROOVY-109
p8370
aVGROOVY-108
p8371
aVGROOVY-107
p8372
aVGROOVY-106
p8373
aVGROOVY-105
p8374
aVGROOVY-104
p8375
aVGROOVY-103
p8376
aVGROOVY-102
p8377
aVGROOVY-101
p8378
aVGROOVY-100
p8379
aVGROOVY-99
p8380
aVGROOVY-98
p8381
aVGROOVY-97
p8382
aVGROOVY-96
p8383
aVGROOVY-95
p8384
aVGROOVY-94
p8385
aVGROOVY-93
p8386
aVGROOVY-92
p8387
aVGROOVY-91
p8388
aVGROOVY-90
p8389
aVGROOVY-89
p8390
aVGROOVY-88
p8391
aVGROOVY-87
p8392
aVGROOVY-86
p8393
aVGROOVY-85
p8394
aVGROOVY-84
p8395
aVGROOVY-83
p8396
aVGROOVY-82
p8397
aVGROOVY-81
p8398
aVGROOVY-80
p8399
aVGROOVY-79
p8400
aVGROOVY-78
p8401
aVGROOVY-77
p8402
aVGROOVY-76
p8403
aVGROOVY-75
p8404
aVGROOVY-74
p8405
aVGROOVY-73
p8406
aVGROOVY-72
p8407
aVGROOVY-71
p8408
aVGROOVY-70
p8409
aVGROOVY-69
p8410
aVGROOVY-68
p8411
aVGROOVY-67
p8412
aVGROOVY-66
p8413
aVGROOVY-65
p8414
aVGROOVY-64
p8415
aVGROOVY-63
p8416
aVGROOVY-62
p8417
aVGROOVY-61
p8418
aVGROOVY-60
p8419
aVGROOVY-59
p8420
aVGROOVY-58
p8421
aVGROOVY-57
p8422
aVGROOVY-56
p8423
aVGROOVY-55
p8424
aVGROOVY-54
p8425
aVGROOVY-53
p8426
aVGROOVY-52
p8427
aVGROOVY-51
p8428
aVGROOVY-50
p8429
aVGROOVY-49
p8430
aVGROOVY-48
p8431
aVGROOVY-47
p8432
aVGROOVY-46
p8433
aVGROOVY-45
p8434
aVGROOVY-44
p8435
aVGROOVY-43
p8436
aVGROOVY-42
p8437
aVGROOVY-41
p8438
aVGROOVY-40
p8439
aVGROOVY-39
p8440
aVGROOVY-38
p8441
aVGROOVY-37
p8442
aVGROOVY-36
p8443
aVGROOVY-35
p8444
aVGROOVY-34
p8445
aVGROOVY-33
p8446
aVGROOVY-32
p8447
aVGROOVY-31
p8448
aVGROOVY-30
p8449
aVGROOVY-29
p8450
aVGROOVY-28
p8451
aVGROOVY-27
p8452
aVGROOVY-26
p8453
aVGROOVY-25
p8454
aVGROOVY-24
p8455
aVGROOVY-23
p8456
aVGROOVY-22
p8457
aVGROOVY-21
p8458
aVGROOVY-20
p8459
aVGROOVY-19
p8460
aVGROOVY-18
p8461
aVGROOVY-17
p8462
aVGROOVY-16
p8463
aVGROOVY-15
p8464
aVGROOVY-14
p8465
aVGROOVY-13
p8466
aVGROOVY-12
p8467
aVGROOVY-11
p8468
aVGROOVY-10
p8469
aVGROOVY-9
p8470
aVGROOVY-8
p8471
aVGROOVY-7
p8472
aVGROOVY-6
p8473
aVGROOVY-5
p8474
aVGROOVY-4
p8475
aVGROOVY-3
p8476
aVGROOVY-2
p8477
aVGROOVY-1
p8478
a.