(lp0
VHAMA-1004
p1
aVHAMA-1003
p2
aVHAMA-1002
p3
aVHAMA-1001
p4
aVHAMA-1000
p5
aVHAMA-999
p6
aVHAMA-998
p7
aVHAMA-997
p8
aVHAMA-996
p9
aVHAMA-995
p10
aVHAMA-994
p11
aVHAMA-993
p12
aVHAMA-992
p13
aVHAMA-991
p14
aVHAMA-990
p15
aVHAMA-989
p16
aVHAMA-988
p17
aVHAMA-987
p18
aVHAMA-986
p19
aVHAMA-985
p20
aVHAMA-984
p21
aVHAMA-983
p22
aVHAMA-982
p23
aVHAMA-981
p24
aVHAMA-980
p25
aVHAMA-979
p26
aVHAMA-978
p27
aVHAMA-977
p28
aVHAMA-976
p29
aVHAMA-975
p30
aVHAMA-974
p31
aVHAMA-973
p32
aVHAMA-972
p33
aVHAMA-971
p34
aVHAMA-970
p35
aVHAMA-969
p36
aVHAMA-968
p37
aVHAMA-967
p38
aVHAMA-966
p39
aVHAMA-965
p40
aVHAMA-964
p41
aVHAMA-963
p42
aVHAMA-962
p43
aVHAMA-961
p44
aVHAMA-960
p45
aVHAMA-959
p46
aVHAMA-958
p47
aVHAMA-957
p48
aVHAMA-956
p49
aVHAMA-955
p50
aVHAMA-954
p51
aVHAMA-953
p52
aVHAMA-952
p53
aVHAMA-951
p54
aVHAMA-950
p55
aVHAMA-949
p56
aVHAMA-948
p57
aVHAMA-947
p58
aVHAMA-946
p59
aVHAMA-945
p60
aVHAMA-944
p61
aVHAMA-943
p62
aVHAMA-942
p63
aVHAMA-941
p64
aVHAMA-940
p65
aVHAMA-939
p66
aVHAMA-938
p67
aVHAMA-937
p68
aVHAMA-936
p69
aVHAMA-935
p70
aVHAMA-934
p71
aVHAMA-933
p72
aVHAMA-932
p73
aVHAMA-931
p74
aVHAMA-930
p75
aVHAMA-929
p76
aVHAMA-928
p77
aVHAMA-927
p78
aVHAMA-926
p79
aVHAMA-925
p80
aVHAMA-924
p81
aVHAMA-923
p82
aVHAMA-922
p83
aVHAMA-921
p84
aVHAMA-920
p85
aVHAMA-919
p86
aVHAMA-918
p87
aVHAMA-917
p88
aVHAMA-916
p89
aVHAMA-915
p90
aVHAMA-914
p91
aVHAMA-913
p92
aVHAMA-912
p93
aVHAMA-911
p94
aVHAMA-910
p95
aVHAMA-909
p96
aVHAMA-908
p97
aVHAMA-907
p98
aVHAMA-906
p99
aVHAMA-905
p100
aVHAMA-904
p101
aVHAMA-903
p102
aVHAMA-902
p103
aVHAMA-901
p104
aVHAMA-900
p105
aVHAMA-899
p106
aVHAMA-898
p107
aVHAMA-897
p108
aVHAMA-896
p109
aVHAMA-895
p110
aVHAMA-894
p111
aVHAMA-893
p112
aVHAMA-892
p113
aVHAMA-891
p114
aVHAMA-890
p115
aVHAMA-889
p116
aVHAMA-888
p117
aVHAMA-887
p118
aVHAMA-886
p119
aVHAMA-885
p120
aVHAMA-884
p121
aVHAMA-883
p122
aVHAMA-882
p123
aVHAMA-881
p124
aVHAMA-880
p125
aVHAMA-879
p126
aVHAMA-878
p127
aVHAMA-877
p128
aVHAMA-876
p129
aVHAMA-875
p130
aVHAMA-874
p131
aVHAMA-873
p132
aVHAMA-872
p133
aVHAMA-871
p134
aVHAMA-870
p135
aVHAMA-869
p136
aVHAMA-868
p137
aVHAMA-867
p138
aVHAMA-866
p139
aVHAMA-865
p140
aVHAMA-864
p141
aVHAMA-863
p142
aVHAMA-862
p143
aVHAMA-861
p144
aVHAMA-860
p145
aVHAMA-859
p146
aVHAMA-858
p147
aVHAMA-857
p148
aVHAMA-856
p149
aVHAMA-855
p150
aVHAMA-854
p151
aVHAMA-853
p152
aVHAMA-852
p153
aVHAMA-851
p154
aVHAMA-850
p155
aVHAMA-849
p156
aVHAMA-848
p157
aVHAMA-847
p158
aVHAMA-846
p159
aVHAMA-845
p160
aVHAMA-844
p161
aVHAMA-843
p162
aVHAMA-842
p163
aVHAMA-841
p164
aVHAMA-840
p165
aVHAMA-839
p166
aVHAMA-838
p167
aVHAMA-837
p168
aVHAMA-836
p169
aVHAMA-835
p170
aVHAMA-834
p171
aVHAMA-833
p172
aVHAMA-832
p173
aVHAMA-831
p174
aVHAMA-830
p175
aVHAMA-829
p176
aVHAMA-828
p177
aVHAMA-827
p178
aVHAMA-826
p179
aVHAMA-825
p180
aVHAMA-824
p181
aVHAMA-823
p182
aVHAMA-822
p183
aVHAMA-821
p184
aVHAMA-820
p185
aVHAMA-819
p186
aVHAMA-818
p187
aVHAMA-817
p188
aVHAMA-816
p189
aVHAMA-815
p190
aVHAMA-814
p191
aVHAMA-813
p192
aVHAMA-812
p193
aVHAMA-811
p194
aVHAMA-810
p195
aVHAMA-809
p196
aVHAMA-808
p197
aVHAMA-807
p198
aVHAMA-806
p199
aVHAMA-805
p200
aVHAMA-804
p201
aVHAMA-803
p202
aVHAMA-802
p203
aVHAMA-801
p204
aVHAMA-800
p205
aVHAMA-799
p206
aVHAMA-798
p207
aVHAMA-797
p208
aVHAMA-796
p209
aVHAMA-795
p210
aVHAMA-794
p211
aVHAMA-793
p212
aVHAMA-792
p213
aVHAMA-791
p214
aVHAMA-790
p215
aVHAMA-789
p216
aVHAMA-788
p217
aVHAMA-787
p218
aVHAMA-786
p219
aVHAMA-785
p220
aVHAMA-784
p221
aVHAMA-783
p222
aVHAMA-782
p223
aVHAMA-781
p224
aVHAMA-780
p225
aVHAMA-779
p226
aVHAMA-778
p227
aVHAMA-777
p228
aVHAMA-776
p229
aVHAMA-775
p230
aVHAMA-774
p231
aVHAMA-773
p232
aVHAMA-772
p233
aVHAMA-771
p234
aVHAMA-770
p235
aVHAMA-769
p236
aVHAMA-768
p237
aVHAMA-767
p238
aVHAMA-766
p239
aVHAMA-765
p240
aVHAMA-764
p241
aVHAMA-763
p242
aVHAMA-762
p243
aVHAMA-761
p244
aVHAMA-760
p245
aVHAMA-759
p246
aVHAMA-758
p247
aVHAMA-757
p248
aVHAMA-756
p249
aVHAMA-755
p250
aVHAMA-754
p251
aVHAMA-753
p252
aVHAMA-752
p253
aVHAMA-751
p254
aVHAMA-750
p255
aVHAMA-749
p256
aVHAMA-748
p257
aVHAMA-747
p258
aVHAMA-746
p259
aVHAMA-745
p260
aVHAMA-744
p261
aVHAMA-743
p262
aVHAMA-742
p263
aVHAMA-741
p264
aVHAMA-740
p265
aVHAMA-739
p266
aVHAMA-738
p267
aVHAMA-737
p268
aVHAMA-736
p269
aVHAMA-735
p270
aVHAMA-734
p271
aVHAMA-733
p272
aVHAMA-732
p273
aVHAMA-731
p274
aVHAMA-730
p275
aVHAMA-729
p276
aVHAMA-728
p277
aVHAMA-727
p278
aVHAMA-726
p279
aVHAMA-725
p280
aVHAMA-724
p281
aVHAMA-723
p282
aVHAMA-722
p283
aVHAMA-721
p284
aVHAMA-720
p285
aVHAMA-719
p286
aVHAMA-718
p287
aVHAMA-717
p288
aVHAMA-716
p289
aVHAMA-715
p290
aVHAMA-714
p291
aVHAMA-713
p292
aVHAMA-712
p293
aVHAMA-711
p294
aVHAMA-710
p295
aVHAMA-709
p296
aVHAMA-708
p297
aVHAMA-707
p298
aVHAMA-706
p299
aVHAMA-705
p300
aVHAMA-704
p301
aVHAMA-703
p302
aVHAMA-702
p303
aVHAMA-701
p304
aVHAMA-700
p305
aVHAMA-699
p306
aVHAMA-698
p307
aVHAMA-697
p308
aVHAMA-696
p309
aVHAMA-695
p310
aVHAMA-694
p311
aVHAMA-693
p312
aVHAMA-692
p313
aVHAMA-691
p314
aVHAMA-690
p315
aVHAMA-689
p316
aVHAMA-688
p317
aVHAMA-687
p318
aVHAMA-686
p319
aVHAMA-685
p320
aVHAMA-684
p321
aVHAMA-683
p322
aVHAMA-682
p323
aVHAMA-681
p324
aVHAMA-680
p325
aVHAMA-679
p326
aVHAMA-678
p327
aVHAMA-677
p328
aVHAMA-676
p329
aVHAMA-675
p330
aVHAMA-674
p331
aVHAMA-673
p332
aVHAMA-672
p333
aVHAMA-671
p334
aVHAMA-670
p335
aVHAMA-669
p336
aVHAMA-668
p337
aVHAMA-667
p338
aVHAMA-666
p339
aVHAMA-665
p340
aVHAMA-664
p341
aVHAMA-663
p342
aVHAMA-662
p343
aVHAMA-661
p344
aVHAMA-660
p345
aVHAMA-659
p346
aVHAMA-658
p347
aVHAMA-657
p348
aVHAMA-656
p349
aVHAMA-655
p350
aVHAMA-654
p351
aVHAMA-653
p352
aVHAMA-652
p353
aVHAMA-651
p354
aVHAMA-650
p355
aVHAMA-649
p356
aVHAMA-648
p357
aVHAMA-647
p358
aVHAMA-646
p359
aVHAMA-645
p360
aVHAMA-644
p361
aVHAMA-643
p362
aVHAMA-642
p363
aVHAMA-641
p364
aVHAMA-640
p365
aVHAMA-639
p366
aVHAMA-638
p367
aVHAMA-637
p368
aVHAMA-636
p369
aVHAMA-635
p370
aVHAMA-634
p371
aVHAMA-633
p372
aVHAMA-632
p373
aVHAMA-631
p374
aVHAMA-630
p375
aVHAMA-629
p376
aVHAMA-628
p377
aVHAMA-627
p378
aVHAMA-626
p379
aVHAMA-621
p380
aVHAMA-620
p381
aVHAMA-619
p382
aVHAMA-618
p383
aVHAMA-617
p384
aVHAMA-616
p385
aVHAMA-615
p386
aVHAMA-614
p387
aVHAMA-613
p388
aVHAMA-612
p389
aVHAMA-611
p390
aVHAMA-610
p391
aVHAMA-609
p392
aVHAMA-608
p393
aVHAMA-607
p394
aVHAMA-606
p395
aVHAMA-605
p396
aVHAMA-604
p397
aVHAMA-603
p398
aVHAMA-602
p399
aVHAMA-601
p400
aVHAMA-600
p401
aVHAMA-599
p402
aVHAMA-598
p403
aVHAMA-597
p404
aVHAMA-596
p405
aVHAMA-595
p406
aVHAMA-594
p407
aVHAMA-593
p408
aVHAMA-592
p409
aVHAMA-591
p410
aVHAMA-590
p411
aVHAMA-589
p412
aVHAMA-588
p413
aVHAMA-587
p414
aVHAMA-586
p415
aVHAMA-585
p416
aVHAMA-584
p417
aVHAMA-583
p418
aVHAMA-582
p419
aVHAMA-581
p420
aVHAMA-580
p421
aVHAMA-579
p422
aVHAMA-578
p423
aVHAMA-577
p424
aVHAMA-576
p425
aVHAMA-575
p426
aVHAMA-574
p427
aVHAMA-573
p428
aVHAMA-572
p429
aVHAMA-571
p430
aVHAMA-570
p431
aVHAMA-569
p432
aVHAMA-568
p433
aVHAMA-567
p434
aVHAMA-566
p435
aVHAMA-565
p436
aVHAMA-564
p437
aVHAMA-563
p438
aVHAMA-562
p439
aVHAMA-561
p440
aVHAMA-560
p441
aVHAMA-559
p442
aVHAMA-558
p443
aVHAMA-557
p444
aVHAMA-556
p445
aVHAMA-555
p446
aVHAMA-554
p447
aVHAMA-553
p448
aVHAMA-552
p449
aVHAMA-551
p450
aVHAMA-550
p451
aVHAMA-549
p452
aVHAMA-548
p453
aVHAMA-547
p454
aVHAMA-546
p455
aVHAMA-545
p456
aVHAMA-544
p457
aVHAMA-543
p458
aVHAMA-542
p459
aVHAMA-541
p460
aVHAMA-540
p461
aVHAMA-539
p462
aVHAMA-538
p463
aVHAMA-537
p464
aVHAMA-536
p465
aVHAMA-535
p466
aVHAMA-534
p467
aVHAMA-533
p468
aVHAMA-532
p469
aVHAMA-531
p470
aVHAMA-530
p471
aVHAMA-529
p472
aVHAMA-528
p473
aVHAMA-527
p474
aVHAMA-526
p475
aVHAMA-525
p476
aVHAMA-524
p477
aVHAMA-523
p478
aVHAMA-522
p479
aVHAMA-521
p480
aVHAMA-520
p481
aVHAMA-519
p482
aVHAMA-518
p483
aVHAMA-517
p484
aVHAMA-516
p485
aVHAMA-515
p486
aVHAMA-514
p487
aVHAMA-513
p488
aVHAMA-512
p489
aVHAMA-511
p490
aVHAMA-510
p491
aVHAMA-509
p492
aVHAMA-508
p493
aVHAMA-507
p494
aVHAMA-506
p495
aVHAMA-505
p496
aVHAMA-504
p497
aVHAMA-503
p498
aVHAMA-502
p499
aVHAMA-501
p500
aVHAMA-500
p501
aVHAMA-499
p502
aVHAMA-498
p503
aVHAMA-497
p504
aVHAMA-496
p505
aVHAMA-495
p506
aVHAMA-494
p507
aVHAMA-493
p508
aVHAMA-492
p509
aVHAMA-491
p510
aVHAMA-490
p511
aVHAMA-489
p512
aVHAMA-488
p513
aVHAMA-487
p514
aVHAMA-486
p515
aVHAMA-485
p516
aVHAMA-484
p517
aVHAMA-483
p518
aVHAMA-482
p519
aVHAMA-481
p520
aVHAMA-480
p521
aVHAMA-479
p522
aVHAMA-478
p523
aVHAMA-477
p524
aVHAMA-476
p525
aVHAMA-475
p526
aVHAMA-474
p527
aVHAMA-473
p528
aVHAMA-472
p529
aVHAMA-471
p530
aVHAMA-470
p531
aVHAMA-469
p532
aVHAMA-468
p533
aVHAMA-467
p534
aVHAMA-466
p535
aVHAMA-465
p536
aVHAMA-464
p537
aVHAMA-463
p538
aVHAMA-462
p539
aVHAMA-461
p540
aVHAMA-460
p541
aVHAMA-459
p542
aVHAMA-458
p543
aVHAMA-457
p544
aVHAMA-456
p545
aVHAMA-455
p546
aVHAMA-454
p547
aVHAMA-453
p548
aVHAMA-452
p549
aVHAMA-451
p550
aVHAMA-450
p551
aVHAMA-449
p552
aVHAMA-448
p553
aVHAMA-447
p554
aVHAMA-446
p555
aVHAMA-445
p556
aVHAMA-444
p557
aVHAMA-443
p558
aVHAMA-442
p559
aVHAMA-441
p560
aVHAMA-440
p561
aVHAMA-439
p562
aVHAMA-438
p563
aVHAMA-437
p564
aVHAMA-436
p565
aVHAMA-435
p566
aVHAMA-434
p567
aVHAMA-433
p568
aVHAMA-432
p569
aVHAMA-431
p570
aVHAMA-430
p571
aVHAMA-429
p572
aVHAMA-428
p573
aVHAMA-427
p574
aVHAMA-426
p575
aVHAMA-425
p576
aVHAMA-424
p577
aVHAMA-423
p578
aVHAMA-422
p579
aVHAMA-421
p580
aVHAMA-420
p581
aVHAMA-419
p582
aVHAMA-418
p583
aVHAMA-417
p584
aVHAMA-416
p585
aVHAMA-415
p586
aVHAMA-414
p587
aVHAMA-413
p588
aVHAMA-412
p589
aVHAMA-411
p590
aVHAMA-410
p591
aVHAMA-409
p592
aVHAMA-408
p593
aVHAMA-407
p594
aVHAMA-406
p595
aVHAMA-405
p596
aVHAMA-404
p597
aVHAMA-403
p598
aVHAMA-402
p599
aVHAMA-401
p600
aVHAMA-400
p601
aVHAMA-399
p602
aVHAMA-398
p603
aVHAMA-397
p604
aVHAMA-396
p605
aVHAMA-395
p606
aVHAMA-394
p607
aVHAMA-393
p608
aVHAMA-392
p609
aVHAMA-391
p610
aVHAMA-390
p611
aVHAMA-389
p612
aVHAMA-388
p613
aVHAMA-387
p614
aVHAMA-386
p615
aVHAMA-385
p616
aVHAMA-384
p617
aVHAMA-383
p618
aVHAMA-382
p619
aVHAMA-381
p620
aVHAMA-380
p621
aVHAMA-379
p622
aVHAMA-378
p623
aVHAMA-377
p624
aVHAMA-376
p625
aVHAMA-375
p626
aVHAMA-374
p627
aVHAMA-373
p628
aVHAMA-372
p629
aVHAMA-371
p630
aVHAMA-370
p631
aVHAMA-369
p632
aVHAMA-368
p633
aVHAMA-367
p634
aVHAMA-366
p635
aVHAMA-365
p636
aVHAMA-364
p637
aVHAMA-363
p638
aVHAMA-362
p639
aVHAMA-361
p640
aVHAMA-360
p641
aVHAMA-359
p642
aVHAMA-358
p643
aVHAMA-357
p644
aVHAMA-356
p645
aVHAMA-355
p646
aVHAMA-354
p647
aVHAMA-353
p648
aVHAMA-352
p649
aVHAMA-351
p650
aVHAMA-350
p651
aVHAMA-349
p652
aVHAMA-348
p653
aVHAMA-347
p654
aVHAMA-346
p655
aVHAMA-345
p656
aVHAMA-344
p657
aVHAMA-343
p658
aVHAMA-342
p659
aVHAMA-341
p660
aVHAMA-340
p661
aVHAMA-339
p662
aVHAMA-338
p663
aVHAMA-337
p664
aVHAMA-336
p665
aVHAMA-335
p666
aVHAMA-334
p667
aVHAMA-333
p668
aVHAMA-332
p669
aVHAMA-331
p670
aVHAMA-330
p671
aVHAMA-329
p672
aVHAMA-328
p673
aVHAMA-327
p674
aVHAMA-326
p675
aVHAMA-325
p676
aVHAMA-324
p677
aVHAMA-323
p678
aVHAMA-322
p679
aVHAMA-321
p680
aVHAMA-320
p681
aVHAMA-319
p682
aVHAMA-318
p683
aVHAMA-317
p684
aVHAMA-316
p685
aVHAMA-315
p686
aVHAMA-314
p687
aVHAMA-313
p688
aVHAMA-312
p689
aVHAMA-311
p690
aVHAMA-310
p691
aVHAMA-309
p692
aVHAMA-308
p693
aVHAMA-307
p694
aVHAMA-306
p695
aVHAMA-305
p696
aVHAMA-304
p697
aVHAMA-303
p698
aVHAMA-302
p699
aVHAMA-301
p700
aVHAMA-300
p701
aVHAMA-299
p702
aVHAMA-298
p703
aVHAMA-297
p704
aVHAMA-296
p705
aVHAMA-295
p706
aVHAMA-294
p707
aVHAMA-293
p708
aVHAMA-292
p709
aVHAMA-291
p710
aVHAMA-290
p711
aVHAMA-289
p712
aVHAMA-288
p713
aVHAMA-287
p714
aVHAMA-286
p715
aVHAMA-285
p716
aVHAMA-284
p717
aVHAMA-283
p718
aVHAMA-282
p719
aVHAMA-281
p720
aVHAMA-280
p721
aVHAMA-279
p722
aVHAMA-278
p723
aVHAMA-277
p724
aVHAMA-276
p725
aVHAMA-275
p726
aVHAMA-274
p727
aVHAMA-273
p728
aVHAMA-272
p729
aVHAMA-271
p730
aVHAMA-270
p731
aVHAMA-269
p732
aVHAMA-268
p733
aVHAMA-267
p734
aVHAMA-266
p735
aVHAMA-265
p736
aVHAMA-264
p737
aVHAMA-263
p738
aVHAMA-262
p739
aVHAMA-261
p740
aVHAMA-260
p741
aVHAMA-259
p742
aVHAMA-258
p743
aVHAMA-257
p744
aVHAMA-256
p745
aVHAMA-255
p746
aVHAMA-254
p747
aVHAMA-253
p748
aVHAMA-252
p749
aVHAMA-251
p750
aVHAMA-250
p751
aVHAMA-249
p752
aVHAMA-248
p753
aVHAMA-247
p754
aVHAMA-246
p755
aVHAMA-245
p756
aVHAMA-244
p757
aVHAMA-243
p758
aVHAMA-242
p759
aVHAMA-241
p760
aVHAMA-240
p761
aVHAMA-239
p762
aVHAMA-238
p763
aVHAMA-237
p764
aVHAMA-236
p765
aVHAMA-235
p766
aVHAMA-234
p767
aVHAMA-233
p768
aVHAMA-232
p769
aVHAMA-231
p770
aVHAMA-230
p771
aVHAMA-229
p772
aVHAMA-228
p773
aVHAMA-227
p774
aVHAMA-226
p775
aVHAMA-225
p776
aVHAMA-224
p777
aVHAMA-223
p778
aVHAMA-222
p779
aVHAMA-221
p780
aVHAMA-220
p781
aVHAMA-219
p782
aVHAMA-218
p783
aVHAMA-217
p784
aVHAMA-216
p785
aVHAMA-215
p786
aVHAMA-214
p787
aVHAMA-213
p788
aVHAMA-212
p789
aVHAMA-211
p790
aVHAMA-210
p791
aVHAMA-209
p792
aVHAMA-208
p793
aVHAMA-207
p794
aVHAMA-206
p795
aVHAMA-205
p796
aVHAMA-204
p797
aVHAMA-203
p798
aVHAMA-202
p799
aVHAMA-201
p800
aVHAMA-200
p801
aVHAMA-199
p802
aVHAMA-198
p803
aVHAMA-197
p804
aVHAMA-196
p805
aVHAMA-195
p806
aVHAMA-194
p807
aVHAMA-193
p808
aVHAMA-192
p809
aVHAMA-191
p810
aVHAMA-190
p811
aVHAMA-189
p812
aVHAMA-188
p813
aVHAMA-187
p814
aVHAMA-186
p815
aVHAMA-185
p816
aVHAMA-184
p817
aVHAMA-183
p818
aVHAMA-182
p819
aVHAMA-181
p820
aVHAMA-180
p821
aVHAMA-179
p822
aVHAMA-178
p823
aVHAMA-177
p824
aVHAMA-176
p825
aVHAMA-175
p826
aVHAMA-174
p827
aVHAMA-173
p828
aVHAMA-172
p829
aVHAMA-171
p830
aVHAMA-170
p831
aVHAMA-169
p832
aVHAMA-168
p833
aVHAMA-167
p834
aVHAMA-166
p835
aVHAMA-165
p836
aVHAMA-164
p837
aVHAMA-163
p838
aVHAMA-162
p839
aVHAMA-161
p840
aVHAMA-160
p841
aVHAMA-159
p842
aVHAMA-158
p843
aVHAMA-157
p844
aVHAMA-156
p845
aVHAMA-155
p846
aVHAMA-154
p847
aVHAMA-153
p848
aVHAMA-152
p849
aVHAMA-151
p850
aVHAMA-150
p851
aVHAMA-149
p852
aVHAMA-148
p853
aVHAMA-147
p854
aVHAMA-146
p855
aVHAMA-145
p856
aVHAMA-144
p857
aVHAMA-143
p858
aVHAMA-142
p859
aVHAMA-141
p860
aVHAMA-140
p861
aVHAMA-139
p862
aVHAMA-138
p863
aVHAMA-137
p864
aVHAMA-136
p865
aVHAMA-135
p866
aVHAMA-134
p867
aVHAMA-133
p868
aVHAMA-132
p869
aVHAMA-131
p870
aVHAMA-130
p871
aVHAMA-129
p872
aVHAMA-128
p873
aVHAMA-127
p874
aVHAMA-126
p875
aVHAMA-125
p876
aVHAMA-124
p877
aVHAMA-123
p878
aVHAMA-122
p879
aVHAMA-121
p880
aVHAMA-120
p881
aVHAMA-119
p882
aVHAMA-118
p883
aVHAMA-117
p884
aVHAMA-116
p885
aVHAMA-115
p886
aVHAMA-114
p887
aVHAMA-113
p888
aVHAMA-112
p889
aVHAMA-111
p890
aVHAMA-110
p891
aVHAMA-109
p892
aVHAMA-108
p893
aVHAMA-107
p894
aVHAMA-106
p895
aVHAMA-105
p896
aVHAMA-104
p897
aVHAMA-103
p898
aVHAMA-102
p899
aVHAMA-101
p900
aVHAMA-100
p901
aVHAMA-99
p902
aVHAMA-98
p903
aVHAMA-97
p904
aVHAMA-96
p905
aVHAMA-95
p906
aVHAMA-94
p907
aVHAMA-93
p908
aVHAMA-92
p909
aVHAMA-91
p910
aVHAMA-90
p911
aVHAMA-89
p912
aVHAMA-88
p913
aVHAMA-87
p914
aVHAMA-86
p915
aVHAMA-85
p916
aVHAMA-84
p917
aVHAMA-83
p918
aVHAMA-82
p919
aVHAMA-81
p920
aVHAMA-80
p921
aVHAMA-79
p922
aVHAMA-78
p923
aVHAMA-77
p924
aVHAMA-76
p925
aVHAMA-75
p926
aVHAMA-74
p927
aVHAMA-73
p928
aVHAMA-72
p929
aVHAMA-71
p930
aVHAMA-70
p931
aVHAMA-69
p932
aVHAMA-68
p933
aVHAMA-67
p934
aVHAMA-66
p935
aVHAMA-65
p936
aVHAMA-64
p937
aVHAMA-63
p938
aVHAMA-62
p939
aVHAMA-61
p940
aVHAMA-60
p941
aVHAMA-59
p942
aVHAMA-58
p943
aVHAMA-57
p944
aVHAMA-56
p945
aVHAMA-55
p946
aVHAMA-54
p947
aVHAMA-53
p948
aVHAMA-52
p949
aVHAMA-51
p950
aVHAMA-50
p951
aVHAMA-49
p952
aVHAMA-48
p953
aVHAMA-47
p954
aVHAMA-46
p955
aVHAMA-45
p956
aVHAMA-44
p957
aVHAMA-43
p958
aVHAMA-42
p959
aVHAMA-41
p960
aVHAMA-40
p961
aVHAMA-39
p962
aVHAMA-38
p963
aVHAMA-37
p964
aVHAMA-36
p965
aVHAMA-35
p966
aVHAMA-34
p967
aVHAMA-33
p968
aVHAMA-32
p969
aVHAMA-31
p970
aVHAMA-30
p971
aVHAMA-29
p972
aVHAMA-28
p973
aVHAMA-27
p974
aVHAMA-26
p975
aVHAMA-25
p976
aVHAMA-24
p977
aVHAMA-23
p978
aVHAMA-22
p979
aVHAMA-21
p980
aVHAMA-20
p981
aVHAMA-19
p982
aVHAMA-18
p983
aVHAMA-17
p984
aVHAMA-16
p985
aVHAMA-15
p986
aVHAMA-14
p987
aVHAMA-13
p988
aVHAMA-12
p989
aVHAMA-11
p990
aVHAMA-10
p991
aVHAMA-9
p992
aVHAMA-8
p993
aVHAMA-7
p994
aVHAMA-6
p995
aVHAMA-5
p996
aVHAMA-4
p997
aVHAMA-3
p998
aVHAMA-2
p999
aVHAMA-1
p1000
a.