(lp0
VHARMONY-6690
p1
aVHARMONY-6689
p2
aVHARMONY-6688
p3
aVHARMONY-6687
p4
aVHARMONY-6686
p5
aVHARMONY-6685
p6
aVHARMONY-6684
p7
aVHARMONY-6683
p8
aVHARMONY-6682
p9
aVHARMONY-6681
p10
aVHARMONY-6680
p11
aVHARMONY-6679
p12
aVHARMONY-6678
p13
aVHARMONY-6677
p14
aVHARMONY-6676
p15
aVHARMONY-6675
p16
aVHARMONY-6674
p17
aVHARMONY-6673
p18
aVHARMONY-6672
p19
aVHARMONY-6671
p20
aVHARMONY-6670
p21
aVHARMONY-6669
p22
aVHARMONY-6668
p23
aVHARMONY-6667
p24
aVHARMONY-6666
p25
aVHARMONY-6665
p26
aVHARMONY-6664
p27
aVHARMONY-6663
p28
aVHARMONY-6662
p29
aVHARMONY-6661
p30
aVHARMONY-6660
p31
aVHARMONY-6659
p32
aVHARMONY-6658
p33
aVHARMONY-6657
p34
aVHARMONY-6656
p35
aVHARMONY-6655
p36
aVHARMONY-6653
p37
aVHARMONY-6652
p38
aVHARMONY-6651
p39
aVHARMONY-6650
p40
aVHARMONY-6649
p41
aVHARMONY-6648
p42
aVHARMONY-6647
p43
aVHARMONY-6646
p44
aVHARMONY-6645
p45
aVHARMONY-6644
p46
aVHARMONY-6643
p47
aVHARMONY-6642
p48
aVHARMONY-6641
p49
aVHARMONY-6640
p50
aVHARMONY-6639
p51
aVHARMONY-6638
p52
aVHARMONY-6637
p53
aVHARMONY-6636
p54
aVHARMONY-6635
p55
aVHARMONY-6634
p56
aVHARMONY-6633
p57
aVHARMONY-6632
p58
aVHARMONY-6631
p59
aVHARMONY-6630
p60
aVHARMONY-6629
p61
aVHARMONY-6628
p62
aVHARMONY-6627
p63
aVHARMONY-6626
p64
aVHARMONY-6625
p65
aVHARMONY-6624
p66
aVHARMONY-6623
p67
aVHARMONY-6622
p68
aVHARMONY-6621
p69
aVHARMONY-6620
p70
aVHARMONY-6619
p71
aVHARMONY-6618
p72
aVHARMONY-6617
p73
aVHARMONY-6616
p74
aVHARMONY-6615
p75
aVHARMONY-6614
p76
aVHARMONY-6613
p77
aVHARMONY-6612
p78
aVHARMONY-6611
p79
aVHARMONY-6610
p80
aVHARMONY-6609
p81
aVHARMONY-6608
p82
aVHARMONY-6607
p83
aVHARMONY-6606
p84
aVHARMONY-6605
p85
aVHARMONY-6604
p86
aVHARMONY-6603
p87
aVHARMONY-6602
p88
aVHARMONY-6601
p89
aVHARMONY-6600
p90
aVHARMONY-6599
p91
aVHARMONY-6598
p92
aVHARMONY-6597
p93
aVHARMONY-6596
p94
aVHARMONY-6595
p95
aVHARMONY-6594
p96
aVHARMONY-6593
p97
aVHARMONY-6592
p98
aVHARMONY-6591
p99
aVHARMONY-6590
p100
aVHARMONY-6589
p101
aVHARMONY-6588
p102
aVHARMONY-6587
p103
aVHARMONY-6586
p104
aVHARMONY-6585
p105
aVHARMONY-6584
p106
aVHARMONY-6583
p107
aVHARMONY-6582
p108
aVHARMONY-6581
p109
aVHARMONY-6580
p110
aVHARMONY-6579
p111
aVHARMONY-6578
p112
aVHARMONY-6577
p113
aVHARMONY-6576
p114
aVHARMONY-6575
p115
aVHARMONY-6574
p116
aVHARMONY-6573
p117
aVHARMONY-6572
p118
aVHARMONY-6571
p119
aVHARMONY-6570
p120
aVHARMONY-6569
p121
aVHARMONY-6568
p122
aVHARMONY-6567
p123
aVHARMONY-6566
p124
aVHARMONY-6565
p125
aVHARMONY-6564
p126
aVHARMONY-6563
p127
aVHARMONY-6562
p128
aVHARMONY-6561
p129
aVHARMONY-6560
p130
aVHARMONY-6559
p131
aVHARMONY-6558
p132
aVHARMONY-6557
p133
aVHARMONY-6556
p134
aVHARMONY-6555
p135
aVHARMONY-6554
p136
aVHARMONY-6553
p137
aVHARMONY-6552
p138
aVHARMONY-6551
p139
aVHARMONY-6550
p140
aVHARMONY-6549
p141
aVHARMONY-6548
p142
aVHARMONY-6547
p143
aVHARMONY-6546
p144
aVHARMONY-6545
p145
aVHARMONY-6544
p146
aVHARMONY-6543
p147
aVHARMONY-6542
p148
aVHARMONY-6541
p149
aVHARMONY-6540
p150
aVHARMONY-6539
p151
aVHARMONY-6538
p152
aVHARMONY-6537
p153
aVHARMONY-6536
p154
aVHARMONY-6535
p155
aVHARMONY-6534
p156
aVHARMONY-6533
p157
aVHARMONY-6532
p158
aVHARMONY-6531
p159
aVHARMONY-6530
p160
aVHARMONY-6529
p161
aVHARMONY-6528
p162
aVHARMONY-6527
p163
aVHARMONY-6526
p164
aVHARMONY-6525
p165
aVHARMONY-6524
p166
aVHARMONY-6523
p167
aVHARMONY-6522
p168
aVHARMONY-6521
p169
aVHARMONY-6520
p170
aVHARMONY-6519
p171
aVHARMONY-6518
p172
aVHARMONY-6517
p173
aVHARMONY-6516
p174
aVHARMONY-6515
p175
aVHARMONY-6514
p176
aVHARMONY-6513
p177
aVHARMONY-6512
p178
aVHARMONY-6511
p179
aVHARMONY-6510
p180
aVHARMONY-6509
p181
aVHARMONY-6508
p182
aVHARMONY-6507
p183
aVHARMONY-6506
p184
aVHARMONY-6505
p185
aVHARMONY-6504
p186
aVHARMONY-6503
p187
aVHARMONY-6502
p188
aVHARMONY-6501
p189
aVHARMONY-6500
p190
aVHARMONY-6499
p191
aVHARMONY-6498
p192
aVHARMONY-6497
p193
aVHARMONY-6496
p194
aVHARMONY-6495
p195
aVHARMONY-6494
p196
aVHARMONY-6493
p197
aVHARMONY-6492
p198
aVHARMONY-6491
p199
aVHARMONY-6490
p200
aVHARMONY-6489
p201
aVHARMONY-6488
p202
aVHARMONY-6487
p203
aVHARMONY-6486
p204
aVHARMONY-6485
p205
aVHARMONY-6484
p206
aVHARMONY-6483
p207
aVHARMONY-6482
p208
aVHARMONY-6481
p209
aVHARMONY-6480
p210
aVHARMONY-6479
p211
aVHARMONY-6478
p212
aVHARMONY-6477
p213
aVHARMONY-6476
p214
aVHARMONY-6475
p215
aVHARMONY-6474
p216
aVHARMONY-6473
p217
aVHARMONY-6472
p218
aVHARMONY-6471
p219
aVHARMONY-6470
p220
aVHARMONY-6469
p221
aVHARMONY-6468
p222
aVHARMONY-6467
p223
aVHARMONY-6466
p224
aVHARMONY-6465
p225
aVHARMONY-6464
p226
aVHARMONY-6463
p227
aVHARMONY-6462
p228
aVHARMONY-6461
p229
aVHARMONY-6460
p230
aVHARMONY-6459
p231
aVHARMONY-6458
p232
aVHARMONY-6457
p233
aVHARMONY-6456
p234
aVHARMONY-6455
p235
aVHARMONY-6454
p236
aVHARMONY-6453
p237
aVHARMONY-6452
p238
aVHARMONY-6451
p239
aVHARMONY-6450
p240
aVHARMONY-6449
p241
aVHARMONY-6448
p242
aVHARMONY-6447
p243
aVHARMONY-6446
p244
aVHARMONY-6445
p245
aVHARMONY-6444
p246
aVHARMONY-6443
p247
aVHARMONY-6442
p248
aVHARMONY-6441
p249
aVHARMONY-6440
p250
aVHARMONY-6439
p251
aVHARMONY-6438
p252
aVHARMONY-6437
p253
aVHARMONY-6436
p254
aVHARMONY-6435
p255
aVHARMONY-6434
p256
aVHARMONY-6433
p257
aVHARMONY-6432
p258
aVHARMONY-6431
p259
aVHARMONY-6430
p260
aVHARMONY-6429
p261
aVHARMONY-6428
p262
aVHARMONY-6427
p263
aVHARMONY-6426
p264
aVHARMONY-6425
p265
aVHARMONY-6424
p266
aVHARMONY-6423
p267
aVHARMONY-6422
p268
aVHARMONY-6421
p269
aVHARMONY-6420
p270
aVHARMONY-6419
p271
aVHARMONY-6418
p272
aVHARMONY-6417
p273
aVHARMONY-6416
p274
aVHARMONY-6415
p275
aVHARMONY-6414
p276
aVHARMONY-6413
p277
aVHARMONY-6412
p278
aVHARMONY-6411
p279
aVHARMONY-6410
p280
aVHARMONY-6409
p281
aVHARMONY-6408
p282
aVHARMONY-6407
p283
aVHARMONY-6406
p284
aVHARMONY-6405
p285
aVHARMONY-6404
p286
aVHARMONY-6403
p287
aVHARMONY-6402
p288
aVHARMONY-6401
p289
aVHARMONY-6400
p290
aVHARMONY-6399
p291
aVHARMONY-6398
p292
aVHARMONY-6397
p293
aVHARMONY-6396
p294
aVHARMONY-6395
p295
aVHARMONY-6394
p296
aVHARMONY-6393
p297
aVHARMONY-6392
p298
aVHARMONY-6391
p299
aVHARMONY-6390
p300
aVHARMONY-6389
p301
aVHARMONY-6388
p302
aVHARMONY-6387
p303
aVHARMONY-6386
p304
aVHARMONY-6385
p305
aVHARMONY-6384
p306
aVHARMONY-6383
p307
aVHARMONY-6382
p308
aVHARMONY-6381
p309
aVHARMONY-6380
p310
aVHARMONY-6379
p311
aVHARMONY-6378
p312
aVHARMONY-6377
p313
aVHARMONY-6376
p314
aVHARMONY-6375
p315
aVHARMONY-6374
p316
aVHARMONY-6373
p317
aVHARMONY-6372
p318
aVHARMONY-6371
p319
aVHARMONY-6370
p320
aVHARMONY-6369
p321
aVHARMONY-6368
p322
aVHARMONY-6367
p323
aVHARMONY-6366
p324
aVHARMONY-6365
p325
aVHARMONY-6364
p326
aVHARMONY-6363
p327
aVHARMONY-6362
p328
aVHARMONY-6361
p329
aVHARMONY-6360
p330
aVHARMONY-6359
p331
aVHARMONY-6358
p332
aVHARMONY-6357
p333
aVHARMONY-6356
p334
aVHARMONY-6355
p335
aVHARMONY-6354
p336
aVHARMONY-6353
p337
aVHARMONY-6352
p338
aVHARMONY-6351
p339
aVHARMONY-6350
p340
aVHARMONY-6349
p341
aVHARMONY-6348
p342
aVHARMONY-6347
p343
aVHARMONY-6346
p344
aVHARMONY-6345
p345
aVHARMONY-6343
p346
aVHARMONY-6342
p347
aVHARMONY-6341
p348
aVHARMONY-6340
p349
aVHARMONY-6339
p350
aVHARMONY-6338
p351
aVHARMONY-6337
p352
aVHARMONY-6336
p353
aVHARMONY-6335
p354
aVHARMONY-6334
p355
aVHARMONY-6333
p356
aVHARMONY-6332
p357
aVHARMONY-6331
p358
aVHARMONY-6330
p359
aVHARMONY-6329
p360
aVHARMONY-6328
p361
aVHARMONY-6327
p362
aVHARMONY-6325
p363
aVHARMONY-6324
p364
aVHARMONY-6323
p365
aVHARMONY-6322
p366
aVHARMONY-6321
p367
aVHARMONY-6320
p368
aVHARMONY-6319
p369
aVHARMONY-6318
p370
aVHARMONY-6317
p371
aVHARMONY-6316
p372
aVHARMONY-6315
p373
aVHARMONY-6314
p374
aVHARMONY-6313
p375
aVHARMONY-6312
p376
aVHARMONY-6311
p377
aVHARMONY-6310
p378
aVHARMONY-6309
p379
aVHARMONY-6308
p380
aVHARMONY-6307
p381
aVHARMONY-6306
p382
aVHARMONY-6305
p383
aVHARMONY-6304
p384
aVHARMONY-6303
p385
aVHARMONY-6302
p386
aVHARMONY-6301
p387
aVHARMONY-6300
p388
aVHARMONY-6299
p389
aVHARMONY-6298
p390
aVHARMONY-6297
p391
aVHARMONY-6296
p392
aVHARMONY-6295
p393
aVHARMONY-6294
p394
aVHARMONY-6293
p395
aVHARMONY-6292
p396
aVHARMONY-6291
p397
aVHARMONY-6290
p398
aVHARMONY-6289
p399
aVHARMONY-6288
p400
aVHARMONY-6287
p401
aVHARMONY-6286
p402
aVHARMONY-6285
p403
aVHARMONY-6284
p404
aVHARMONY-6283
p405
aVHARMONY-6282
p406
aVHARMONY-6281
p407
aVHARMONY-6280
p408
aVHARMONY-6279
p409
aVHARMONY-6278
p410
aVHARMONY-6277
p411
aVHARMONY-6276
p412
aVHARMONY-6275
p413
aVHARMONY-6274
p414
aVHARMONY-6273
p415
aVHARMONY-6272
p416
aVHARMONY-6271
p417
aVHARMONY-6270
p418
aVHARMONY-6269
p419
aVHARMONY-6268
p420
aVHARMONY-6267
p421
aVHARMONY-6266
p422
aVHARMONY-6265
p423
aVHARMONY-6264
p424
aVHARMONY-6263
p425
aVHARMONY-6262
p426
aVHARMONY-6261
p427
aVHARMONY-6260
p428
aVHARMONY-6259
p429
aVHARMONY-6258
p430
aVHARMONY-6257
p431
aVHARMONY-6256
p432
aVHARMONY-6255
p433
aVHARMONY-6254
p434
aVHARMONY-6253
p435
aVHARMONY-6252
p436
aVHARMONY-6251
p437
aVHARMONY-6250
p438
aVHARMONY-6249
p439
aVHARMONY-6248
p440
aVHARMONY-6247
p441
aVHARMONY-6246
p442
aVHARMONY-6245
p443
aVHARMONY-6244
p444
aVHARMONY-6243
p445
aVHARMONY-6242
p446
aVHARMONY-6241
p447
aVHARMONY-6240
p448
aVHARMONY-6239
p449
aVHARMONY-6238
p450
aVHARMONY-6237
p451
aVHARMONY-6236
p452
aVHARMONY-6235
p453
aVHARMONY-6234
p454
aVHARMONY-6233
p455
aVHARMONY-6232
p456
aVHARMONY-6231
p457
aVHARMONY-6230
p458
aVHARMONY-6229
p459
aVHARMONY-6228
p460
aVHARMONY-6227
p461
aVHARMONY-6226
p462
aVHARMONY-6225
p463
aVHARMONY-6224
p464
aVHARMONY-6223
p465
aVHARMONY-6222
p466
aVHARMONY-6221
p467
aVHARMONY-6220
p468
aVHARMONY-6219
p469
aVHARMONY-6218
p470
aVHARMONY-6217
p471
aVHARMONY-6216
p472
aVHARMONY-6215
p473
aVHARMONY-6214
p474
aVHARMONY-6213
p475
aVHARMONY-6212
p476
aVHARMONY-6211
p477
aVHARMONY-6210
p478
aVHARMONY-6209
p479
aVHARMONY-6208
p480
aVHARMONY-6207
p481
aVHARMONY-6206
p482
aVHARMONY-6205
p483
aVHARMONY-6204
p484
aVHARMONY-6203
p485
aVHARMONY-6202
p486
aVHARMONY-6201
p487
aVHARMONY-6200
p488
aVHARMONY-6199
p489
aVHARMONY-6198
p490
aVHARMONY-6197
p491
aVHARMONY-6196
p492
aVHARMONY-6195
p493
aVHARMONY-6194
p494
aVHARMONY-6193
p495
aVHARMONY-6192
p496
aVHARMONY-6191
p497
aVHARMONY-6190
p498
aVHARMONY-6189
p499
aVHARMONY-6188
p500
aVHARMONY-6187
p501
aVHARMONY-6186
p502
aVHARMONY-6185
p503
aVHARMONY-6184
p504
aVHARMONY-6183
p505
aVHARMONY-6182
p506
aVHARMONY-6181
p507
aVHARMONY-6179
p508
aVHARMONY-6178
p509
aVHARMONY-6177
p510
aVHARMONY-6176
p511
aVHARMONY-6175
p512
aVHARMONY-6174
p513
aVHARMONY-6173
p514
aVHARMONY-6172
p515
aVHARMONY-6171
p516
aVHARMONY-6170
p517
aVHARMONY-6169
p518
aVHARMONY-6168
p519
aVHARMONY-6167
p520
aVHARMONY-6166
p521
aVHARMONY-6165
p522
aVHARMONY-6164
p523
aVHARMONY-6163
p524
aVHARMONY-6162
p525
aVHARMONY-6161
p526
aVHARMONY-6160
p527
aVHARMONY-6159
p528
aVHARMONY-6158
p529
aVHARMONY-6157
p530
aVHARMONY-6156
p531
aVHARMONY-6155
p532
aVHARMONY-6154
p533
aVHARMONY-6153
p534
aVHARMONY-6152
p535
aVHARMONY-6151
p536
aVHARMONY-6150
p537
aVHARMONY-6149
p538
aVHARMONY-6148
p539
aVHARMONY-6147
p540
aVHARMONY-6146
p541
aVHARMONY-6145
p542
aVHARMONY-6144
p543
aVHARMONY-6143
p544
aVHARMONY-6142
p545
aVHARMONY-6141
p546
aVHARMONY-6140
p547
aVHARMONY-6139
p548
aVHARMONY-6138
p549
aVHARMONY-6137
p550
aVHARMONY-6136
p551
aVHARMONY-6135
p552
aVHARMONY-6134
p553
aVHARMONY-6133
p554
aVHARMONY-6132
p555
aVHARMONY-6131
p556
aVHARMONY-6130
p557
aVHARMONY-6129
p558
aVHARMONY-6128
p559
aVHARMONY-6127
p560
aVHARMONY-6126
p561
aVHARMONY-6125
p562
aVHARMONY-6124
p563
aVHARMONY-6123
p564
aVHARMONY-6122
p565
aVHARMONY-6121
p566
aVHARMONY-6120
p567
aVHARMONY-6119
p568
aVHARMONY-6118
p569
aVHARMONY-6117
p570
aVHARMONY-6116
p571
aVHARMONY-6115
p572
aVHARMONY-6114
p573
aVHARMONY-6113
p574
aVHARMONY-6112
p575
aVHARMONY-6111
p576
aVHARMONY-6110
p577
aVHARMONY-6109
p578
aVHARMONY-6108
p579
aVHARMONY-6107
p580
aVHARMONY-6106
p581
aVHARMONY-6105
p582
aVHARMONY-6104
p583
aVHARMONY-6103
p584
aVHARMONY-6102
p585
aVHARMONY-6101
p586
aVHARMONY-6100
p587
aVHARMONY-6099
p588
aVHARMONY-6098
p589
aVHARMONY-6097
p590
aVHARMONY-6096
p591
aVHARMONY-6095
p592
aVHARMONY-6094
p593
aVHARMONY-6093
p594
aVHARMONY-6092
p595
aVHARMONY-6091
p596
aVHARMONY-6090
p597
aVHARMONY-6089
p598
aVHARMONY-6088
p599
aVHARMONY-6087
p600
aVHARMONY-6086
p601
aVHARMONY-6085
p602
aVHARMONY-6084
p603
aVHARMONY-6083
p604
aVHARMONY-6082
p605
aVHARMONY-6081
p606
aVHARMONY-6080
p607
aVHARMONY-6079
p608
aVHARMONY-6078
p609
aVHARMONY-6077
p610
aVHARMONY-6076
p611
aVHARMONY-6075
p612
aVHARMONY-6074
p613
aVHARMONY-6073
p614
aVHARMONY-6072
p615
aVHARMONY-6071
p616
aVHARMONY-6070
p617
aVHARMONY-6069
p618
aVHARMONY-6068
p619
aVHARMONY-6067
p620
aVHARMONY-6066
p621
aVHARMONY-6065
p622
aVHARMONY-6064
p623
aVHARMONY-6063
p624
aVHARMONY-6062
p625
aVHARMONY-6061
p626
aVHARMONY-6060
p627
aVHARMONY-6059
p628
aVHARMONY-6058
p629
aVHARMONY-6057
p630
aVHARMONY-6056
p631
aVHARMONY-6055
p632
aVHARMONY-6054
p633
aVHARMONY-6053
p634
aVHARMONY-6052
p635
aVHARMONY-6051
p636
aVHARMONY-6050
p637
aVHARMONY-6049
p638
aVHARMONY-6048
p639
aVHARMONY-6047
p640
aVHARMONY-6046
p641
aVHARMONY-6045
p642
aVHARMONY-6044
p643
aVHARMONY-6043
p644
aVHARMONY-6042
p645
aVHARMONY-6041
p646
aVHARMONY-6040
p647
aVHARMONY-6039
p648
aVHARMONY-6038
p649
aVHARMONY-6037
p650
aVHARMONY-6036
p651
aVHARMONY-6035
p652
aVHARMONY-6034
p653
aVHARMONY-6033
p654
aVHARMONY-6032
p655
aVHARMONY-6031
p656
aVHARMONY-6030
p657
aVHARMONY-6029
p658
aVHARMONY-6028
p659
aVHARMONY-6027
p660
aVHARMONY-6026
p661
aVHARMONY-6025
p662
aVHARMONY-6024
p663
aVHARMONY-6023
p664
aVHARMONY-6022
p665
aVHARMONY-6021
p666
aVHARMONY-6020
p667
aVHARMONY-6019
p668
aVHARMONY-6018
p669
aVHARMONY-6017
p670
aVHARMONY-6016
p671
aVHARMONY-6015
p672
aVHARMONY-6014
p673
aVHARMONY-6013
p674
aVHARMONY-6012
p675
aVHARMONY-6011
p676
aVHARMONY-6010
p677
aVHARMONY-6009
p678
aVHARMONY-6008
p679
aVHARMONY-6007
p680
aVHARMONY-6006
p681
aVHARMONY-6005
p682
aVHARMONY-6004
p683
aVHARMONY-6003
p684
aVHARMONY-6002
p685
aVHARMONY-6001
p686
aVHARMONY-6000
p687
aVHARMONY-5999
p688
aVHARMONY-5998
p689
aVHARMONY-5997
p690
aVHARMONY-5996
p691
aVHARMONY-5995
p692
aVHARMONY-5994
p693
aVHARMONY-5993
p694
aVHARMONY-5992
p695
aVHARMONY-5991
p696
aVHARMONY-5990
p697
aVHARMONY-5989
p698
aVHARMONY-5988
p699
aVHARMONY-5987
p700
aVHARMONY-5986
p701
aVHARMONY-5985
p702
aVHARMONY-5984
p703
aVHARMONY-5983
p704
aVHARMONY-5982
p705
aVHARMONY-5981
p706
aVHARMONY-5980
p707
aVHARMONY-5979
p708
aVHARMONY-5978
p709
aVHARMONY-5977
p710
aVHARMONY-5976
p711
aVHARMONY-5975
p712
aVHARMONY-5974
p713
aVHARMONY-5973
p714
aVHARMONY-5972
p715
aVHARMONY-5971
p716
aVHARMONY-5970
p717
aVHARMONY-5969
p718
aVHARMONY-5968
p719
aVHARMONY-5967
p720
aVHARMONY-5966
p721
aVHARMONY-5965
p722
aVHARMONY-5964
p723
aVHARMONY-5963
p724
aVHARMONY-5962
p725
aVHARMONY-5961
p726
aVHARMONY-5960
p727
aVHARMONY-5959
p728
aVHARMONY-5958
p729
aVHARMONY-5957
p730
aVHARMONY-5956
p731
aVHARMONY-5955
p732
aVHARMONY-5954
p733
aVHARMONY-5953
p734
aVHARMONY-5952
p735
aVHARMONY-5951
p736
aVHARMONY-5950
p737
aVHARMONY-5949
p738
aVHARMONY-5948
p739
aVHARMONY-5947
p740
aVHARMONY-5946
p741
aVHARMONY-5945
p742
aVHARMONY-5944
p743
aVHARMONY-5943
p744
aVHARMONY-5942
p745
aVHARMONY-5941
p746
aVHARMONY-5940
p747
aVHARMONY-5939
p748
aVHARMONY-5938
p749
aVHARMONY-5937
p750
aVHARMONY-5936
p751
aVHARMONY-5935
p752
aVHARMONY-5934
p753
aVHARMONY-5933
p754
aVHARMONY-5932
p755
aVHARMONY-5931
p756
aVHARMONY-5930
p757
aVHARMONY-5929
p758
aVHARMONY-5928
p759
aVHARMONY-5927
p760
aVHARMONY-5926
p761
aVHARMONY-5925
p762
aVHARMONY-5924
p763
aVHARMONY-5923
p764
aVHARMONY-5922
p765
aVHARMONY-5921
p766
aVHARMONY-5920
p767
aVHARMONY-5919
p768
aVHARMONY-5918
p769
aVHARMONY-5917
p770
aVHARMONY-5916
p771
aVHARMONY-5915
p772
aVHARMONY-5914
p773
aVHARMONY-5913
p774
aVHARMONY-5912
p775
aVHARMONY-5911
p776
aVHARMONY-5910
p777
aVHARMONY-5909
p778
aVHARMONY-5908
p779
aVHARMONY-5907
p780
aVHARMONY-5906
p781
aVHARMONY-5905
p782
aVHARMONY-5904
p783
aVHARMONY-5903
p784
aVHARMONY-5902
p785
aVHARMONY-5901
p786
aVHARMONY-5900
p787
aVHARMONY-5899
p788
aVHARMONY-5898
p789
aVHARMONY-5897
p790
aVHARMONY-5896
p791
aVHARMONY-5895
p792
aVHARMONY-5894
p793
aVHARMONY-5893
p794
aVHARMONY-5892
p795
aVHARMONY-5891
p796
aVHARMONY-5890
p797
aVHARMONY-5889
p798
aVHARMONY-5888
p799
aVHARMONY-5887
p800
aVHARMONY-5886
p801
aVHARMONY-5885
p802
aVHARMONY-5884
p803
aVHARMONY-5883
p804
aVHARMONY-5882
p805
aVHARMONY-5881
p806
aVHARMONY-5880
p807
aVHARMONY-5879
p808
aVHARMONY-5878
p809
aVHARMONY-5877
p810
aVHARMONY-5876
p811
aVHARMONY-5875
p812
aVHARMONY-5874
p813
aVHARMONY-5873
p814
aVHARMONY-5872
p815
aVHARMONY-5871
p816
aVHARMONY-5870
p817
aVHARMONY-5869
p818
aVHARMONY-5868
p819
aVHARMONY-5867
p820
aVHARMONY-5866
p821
aVHARMONY-5865
p822
aVHARMONY-5864
p823
aVHARMONY-5863
p824
aVHARMONY-5862
p825
aVHARMONY-5861
p826
aVHARMONY-5860
p827
aVHARMONY-5859
p828
aVHARMONY-5858
p829
aVHARMONY-5857
p830
aVHARMONY-5856
p831
aVHARMONY-5855
p832
aVHARMONY-5854
p833
aVHARMONY-5853
p834
aVHARMONY-5852
p835
aVHARMONY-5850
p836
aVHARMONY-5849
p837
aVHARMONY-5848
p838
aVHARMONY-5847
p839
aVHARMONY-5846
p840
aVHARMONY-5845
p841
aVHARMONY-5844
p842
aVHARMONY-5843
p843
aVHARMONY-5842
p844
aVHARMONY-5841
p845
aVHARMONY-5840
p846
aVHARMONY-5839
p847
aVHARMONY-5838
p848
aVHARMONY-5837
p849
aVHARMONY-5836
p850
aVHARMONY-5835
p851
aVHARMONY-5834
p852
aVHARMONY-5833
p853
aVHARMONY-5832
p854
aVHARMONY-5831
p855
aVHARMONY-5830
p856
aVHARMONY-5829
p857
aVHARMONY-5828
p858
aVHARMONY-5827
p859
aVHARMONY-5826
p860
aVHARMONY-5825
p861
aVHARMONY-5824
p862
aVHARMONY-5823
p863
aVHARMONY-5822
p864
aVHARMONY-5821
p865
aVHARMONY-5820
p866
aVHARMONY-5819
p867
aVHARMONY-5818
p868
aVHARMONY-5817
p869
aVHARMONY-5816
p870
aVHARMONY-5815
p871
aVHARMONY-5814
p872
aVHARMONY-5813
p873
aVHARMONY-5812
p874
aVHARMONY-5811
p875
aVHARMONY-5810
p876
aVHARMONY-5809
p877
aVHARMONY-5808
p878
aVHARMONY-5807
p879
aVHARMONY-5806
p880
aVHARMONY-5805
p881
aVHARMONY-5804
p882
aVHARMONY-5803
p883
aVHARMONY-5802
p884
aVHARMONY-5801
p885
aVHARMONY-5800
p886
aVHARMONY-5799
p887
aVHARMONY-5798
p888
aVHARMONY-5797
p889
aVHARMONY-5796
p890
aVHARMONY-5795
p891
aVHARMONY-5794
p892
aVHARMONY-5793
p893
aVHARMONY-5792
p894
aVHARMONY-5791
p895
aVHARMONY-5790
p896
aVHARMONY-5789
p897
aVHARMONY-5788
p898
aVHARMONY-5787
p899
aVHARMONY-5786
p900
aVHARMONY-5785
p901
aVHARMONY-5784
p902
aVHARMONY-5783
p903
aVHARMONY-5782
p904
aVHARMONY-5781
p905
aVHARMONY-5780
p906
aVHARMONY-5779
p907
aVHARMONY-5778
p908
aVHARMONY-5777
p909
aVHARMONY-5776
p910
aVHARMONY-5775
p911
aVHARMONY-5774
p912
aVHARMONY-5773
p913
aVHARMONY-5772
p914
aVHARMONY-5771
p915
aVHARMONY-5770
p916
aVHARMONY-5769
p917
aVHARMONY-5768
p918
aVHARMONY-5767
p919
aVHARMONY-5766
p920
aVHARMONY-5765
p921
aVHARMONY-5764
p922
aVHARMONY-5763
p923
aVHARMONY-5762
p924
aVHARMONY-5761
p925
aVHARMONY-5760
p926
aVHARMONY-5759
p927
aVHARMONY-5758
p928
aVHARMONY-5757
p929
aVHARMONY-5756
p930
aVHARMONY-5755
p931
aVHARMONY-5754
p932
aVHARMONY-5753
p933
aVHARMONY-5752
p934
aVHARMONY-5751
p935
aVHARMONY-5750
p936
aVHARMONY-5749
p937
aVHARMONY-5748
p938
aVHARMONY-5747
p939
aVHARMONY-5746
p940
aVHARMONY-5745
p941
aVHARMONY-5744
p942
aVHARMONY-5743
p943
aVHARMONY-5742
p944
aVHARMONY-5741
p945
aVHARMONY-5740
p946
aVHARMONY-5739
p947
aVHARMONY-5738
p948
aVHARMONY-5737
p949
aVHARMONY-5736
p950
aVHARMONY-5735
p951
aVHARMONY-5734
p952
aVHARMONY-5733
p953
aVHARMONY-5732
p954
aVHARMONY-5731
p955
aVHARMONY-5730
p956
aVHARMONY-5729
p957
aVHARMONY-5728
p958
aVHARMONY-5727
p959
aVHARMONY-5726
p960
aVHARMONY-5725
p961
aVHARMONY-5724
p962
aVHARMONY-5722
p963
aVHARMONY-5721
p964
aVHARMONY-5720
p965
aVHARMONY-5719
p966
aVHARMONY-5718
p967
aVHARMONY-5717
p968
aVHARMONY-5716
p969
aVHARMONY-5715
p970
aVHARMONY-5714
p971
aVHARMONY-5713
p972
aVHARMONY-5712
p973
aVHARMONY-5711
p974
aVHARMONY-5710
p975
aVHARMONY-5709
p976
aVHARMONY-5708
p977
aVHARMONY-5707
p978
aVHARMONY-5706
p979
aVHARMONY-5705
p980
aVHARMONY-5704
p981
aVHARMONY-5703
p982
aVHARMONY-5702
p983
aVHARMONY-5701
p984
aVHARMONY-5700
p985
aVHARMONY-5699
p986
aVHARMONY-5698
p987
aVHARMONY-5697
p988
aVHARMONY-5696
p989
aVHARMONY-5695
p990
aVHARMONY-5694
p991
aVHARMONY-5693
p992
aVHARMONY-5692
p993
aVHARMONY-5691
p994
aVHARMONY-5690
p995
aVHARMONY-5689
p996
aVHARMONY-5688
p997
aVHARMONY-5687
p998
aVHARMONY-5686
p999
aVHARMONY-5685
p1000
aVHARMONY-5684
p1001
aVHARMONY-5683
p1002
aVHARMONY-5682
p1003
aVHARMONY-5681
p1004
aVHARMONY-5680
p1005
aVHARMONY-5679
p1006
aVHARMONY-5678
p1007
aVHARMONY-5677
p1008
aVHARMONY-5676
p1009
aVHARMONY-5675
p1010
aVHARMONY-5674
p1011
aVHARMONY-5673
p1012
aVHARMONY-5672
p1013
aVHARMONY-5671
p1014
aVHARMONY-5670
p1015
aVHARMONY-5669
p1016
aVHARMONY-5668
p1017
aVHARMONY-5667
p1018
aVHARMONY-5666
p1019
aVHARMONY-5665
p1020
aVHARMONY-5664
p1021
aVHARMONY-5663
p1022
aVHARMONY-5662
p1023
aVHARMONY-5661
p1024
aVHARMONY-5660
p1025
aVHARMONY-5659
p1026
aVHARMONY-5658
p1027
aVHARMONY-5657
p1028
aVHARMONY-5656
p1029
aVHARMONY-5655
p1030
aVHARMONY-5654
p1031
aVHARMONY-5653
p1032
aVHARMONY-5652
p1033
aVHARMONY-5651
p1034
aVHARMONY-5650
p1035
aVHARMONY-5649
p1036
aVHARMONY-5648
p1037
aVHARMONY-5647
p1038
aVHARMONY-5646
p1039
aVHARMONY-5645
p1040
aVHARMONY-5644
p1041
aVHARMONY-5643
p1042
aVHARMONY-5642
p1043
aVHARMONY-5641
p1044
aVHARMONY-5640
p1045
aVHARMONY-5639
p1046
aVHARMONY-5638
p1047
aVHARMONY-5637
p1048
aVHARMONY-5636
p1049
aVHARMONY-5635
p1050
aVHARMONY-5634
p1051
aVHARMONY-5633
p1052
aVHARMONY-5632
p1053
aVHARMONY-5631
p1054
aVHARMONY-5630
p1055
aVHARMONY-5629
p1056
aVHARMONY-5628
p1057
aVHARMONY-5627
p1058
aVHARMONY-5626
p1059
aVHARMONY-5625
p1060
aVHARMONY-5624
p1061
aVHARMONY-5623
p1062
aVHARMONY-5622
p1063
aVHARMONY-5621
p1064
aVHARMONY-5620
p1065
aVHARMONY-5619
p1066
aVHARMONY-5618
p1067
aVHARMONY-5617
p1068
aVHARMONY-5616
p1069
aVHARMONY-5615
p1070
aVHARMONY-5614
p1071
aVHARMONY-5613
p1072
aVHARMONY-5612
p1073
aVHARMONY-5611
p1074
aVHARMONY-5610
p1075
aVHARMONY-5609
p1076
aVHARMONY-5608
p1077
aVHARMONY-5607
p1078
aVHARMONY-5606
p1079
aVHARMONY-5605
p1080
aVHARMONY-5604
p1081
aVHARMONY-5603
p1082
aVHARMONY-5602
p1083
aVHARMONY-5601
p1084
aVHARMONY-5600
p1085
aVHARMONY-5599
p1086
aVHARMONY-5598
p1087
aVHARMONY-5597
p1088
aVHARMONY-5596
p1089
aVHARMONY-5595
p1090
aVHARMONY-5594
p1091
aVHARMONY-5593
p1092
aVHARMONY-5592
p1093
aVHARMONY-5591
p1094
aVHARMONY-5590
p1095
aVHARMONY-5589
p1096
aVHARMONY-5588
p1097
aVHARMONY-5587
p1098
aVHARMONY-5586
p1099
aVHARMONY-5585
p1100
aVHARMONY-5584
p1101
aVHARMONY-5583
p1102
aVHARMONY-5582
p1103
aVHARMONY-5581
p1104
aVHARMONY-5580
p1105
aVHARMONY-5579
p1106
aVHARMONY-5578
p1107
aVHARMONY-5577
p1108
aVHARMONY-5576
p1109
aVHARMONY-5575
p1110
aVHARMONY-5574
p1111
aVHARMONY-5573
p1112
aVHARMONY-5572
p1113
aVHARMONY-5571
p1114
aVHARMONY-5570
p1115
aVHARMONY-5569
p1116
aVHARMONY-5568
p1117
aVHARMONY-5567
p1118
aVHARMONY-5566
p1119
aVHARMONY-5565
p1120
aVHARMONY-5564
p1121
aVHARMONY-5563
p1122
aVHARMONY-5562
p1123
aVHARMONY-5561
p1124
aVHARMONY-5560
p1125
aVHARMONY-5559
p1126
aVHARMONY-5558
p1127
aVHARMONY-5557
p1128
aVHARMONY-5556
p1129
aVHARMONY-5555
p1130
aVHARMONY-5554
p1131
aVHARMONY-5553
p1132
aVHARMONY-5552
p1133
aVHARMONY-5551
p1134
aVHARMONY-5550
p1135
aVHARMONY-5549
p1136
aVHARMONY-5548
p1137
aVHARMONY-5547
p1138
aVHARMONY-5546
p1139
aVHARMONY-5545
p1140
aVHARMONY-5544
p1141
aVHARMONY-5543
p1142
aVHARMONY-5542
p1143
aVHARMONY-5541
p1144
aVHARMONY-5540
p1145
aVHARMONY-5539
p1146
aVHARMONY-5538
p1147
aVHARMONY-5537
p1148
aVHARMONY-5536
p1149
aVHARMONY-5535
p1150
aVHARMONY-5534
p1151
aVHARMONY-5533
p1152
aVHARMONY-5532
p1153
aVHARMONY-5531
p1154
aVHARMONY-5530
p1155
aVHARMONY-5529
p1156
aVHARMONY-5528
p1157
aVHARMONY-5527
p1158
aVHARMONY-5526
p1159
aVHARMONY-5525
p1160
aVHARMONY-5524
p1161
aVHARMONY-5523
p1162
aVHARMONY-5522
p1163
aVHARMONY-5521
p1164
aVHARMONY-5520
p1165
aVHARMONY-5519
p1166
aVHARMONY-5518
p1167
aVHARMONY-5517
p1168
aVHARMONY-5516
p1169
aVHARMONY-5515
p1170
aVHARMONY-5514
p1171
aVHARMONY-5513
p1172
aVHARMONY-5512
p1173
aVHARMONY-5511
p1174
aVHARMONY-5510
p1175
aVHARMONY-5509
p1176
aVHARMONY-5508
p1177
aVHARMONY-5507
p1178
aVHARMONY-5506
p1179
aVHARMONY-5505
p1180
aVHARMONY-5504
p1181
aVHARMONY-5503
p1182
aVHARMONY-5502
p1183
aVHARMONY-5501
p1184
aVHARMONY-5500
p1185
aVHARMONY-5499
p1186
aVHARMONY-5498
p1187
aVHARMONY-5497
p1188
aVHARMONY-5496
p1189
aVHARMONY-5495
p1190
aVHARMONY-5494
p1191
aVHARMONY-5493
p1192
aVHARMONY-5492
p1193
aVHARMONY-5491
p1194
aVHARMONY-5490
p1195
aVHARMONY-5489
p1196
aVHARMONY-5488
p1197
aVHARMONY-5487
p1198
aVHARMONY-5486
p1199
aVHARMONY-5485
p1200
aVHARMONY-5484
p1201
aVHARMONY-5483
p1202
aVHARMONY-5482
p1203
aVHARMONY-5481
p1204
aVHARMONY-5480
p1205
aVHARMONY-5479
p1206
aVHARMONY-5478
p1207
aVHARMONY-5477
p1208
aVHARMONY-5476
p1209
aVHARMONY-5475
p1210
aVHARMONY-5474
p1211
aVHARMONY-5473
p1212
aVHARMONY-5472
p1213
aVHARMONY-5471
p1214
aVHARMONY-5470
p1215
aVHARMONY-5469
p1216
aVHARMONY-5468
p1217
aVHARMONY-5467
p1218
aVHARMONY-5466
p1219
aVHARMONY-5465
p1220
aVHARMONY-5464
p1221
aVHARMONY-5463
p1222
aVHARMONY-5462
p1223
aVHARMONY-5461
p1224
aVHARMONY-5460
p1225
aVHARMONY-5459
p1226
aVHARMONY-5458
p1227
aVHARMONY-5457
p1228
aVHARMONY-5456
p1229
aVHARMONY-5455
p1230
aVHARMONY-5454
p1231
aVHARMONY-5453
p1232
aVHARMONY-5452
p1233
aVHARMONY-5451
p1234
aVHARMONY-5450
p1235
aVHARMONY-5449
p1236
aVHARMONY-5448
p1237
aVHARMONY-5447
p1238
aVHARMONY-5446
p1239
aVHARMONY-5445
p1240
aVHARMONY-5444
p1241
aVHARMONY-5443
p1242
aVHARMONY-5442
p1243
aVHARMONY-5441
p1244
aVHARMONY-5440
p1245
aVHARMONY-5439
p1246
aVHARMONY-5438
p1247
aVHARMONY-5437
p1248
aVHARMONY-5436
p1249
aVHARMONY-5435
p1250
aVHARMONY-5434
p1251
aVHARMONY-5433
p1252
aVHARMONY-5431
p1253
aVHARMONY-5430
p1254
aVHARMONY-5429
p1255
aVHARMONY-5428
p1256
aVHARMONY-5427
p1257
aVHARMONY-5426
p1258
aVHARMONY-5425
p1259
aVHARMONY-5424
p1260
aVHARMONY-5423
p1261
aVHARMONY-5422
p1262
aVHARMONY-5421
p1263
aVHARMONY-5420
p1264
aVHARMONY-5419
p1265
aVHARMONY-5418
p1266
aVHARMONY-5417
p1267
aVHARMONY-5416
p1268
aVHARMONY-5415
p1269
aVHARMONY-5414
p1270
aVHARMONY-5413
p1271
aVHARMONY-5412
p1272
aVHARMONY-5411
p1273
aVHARMONY-5410
p1274
aVHARMONY-5409
p1275
aVHARMONY-5408
p1276
aVHARMONY-5407
p1277
aVHARMONY-5406
p1278
aVHARMONY-5405
p1279
aVHARMONY-5404
p1280
aVHARMONY-5403
p1281
aVHARMONY-5402
p1282
aVHARMONY-5401
p1283
aVHARMONY-5400
p1284
aVHARMONY-5399
p1285
aVHARMONY-5398
p1286
aVHARMONY-5397
p1287
aVHARMONY-5396
p1288
aVHARMONY-5395
p1289
aVHARMONY-5394
p1290
aVHARMONY-5393
p1291
aVHARMONY-5392
p1292
aVHARMONY-5391
p1293
aVHARMONY-5390
p1294
aVHARMONY-5389
p1295
aVHARMONY-5388
p1296
aVHARMONY-5387
p1297
aVHARMONY-5386
p1298
aVHARMONY-5385
p1299
aVHARMONY-5384
p1300
aVHARMONY-5383
p1301
aVHARMONY-5382
p1302
aVHARMONY-5381
p1303
aVHARMONY-5380
p1304
aVHARMONY-5379
p1305
aVHARMONY-5378
p1306
aVHARMONY-5377
p1307
aVHARMONY-5376
p1308
aVHARMONY-5375
p1309
aVHARMONY-5374
p1310
aVHARMONY-5373
p1311
aVHARMONY-5372
p1312
aVHARMONY-5371
p1313
aVHARMONY-5370
p1314
aVHARMONY-5369
p1315
aVHARMONY-5368
p1316
aVHARMONY-5367
p1317
aVHARMONY-5366
p1318
aVHARMONY-5365
p1319
aVHARMONY-5364
p1320
aVHARMONY-5363
p1321
aVHARMONY-5362
p1322
aVHARMONY-5361
p1323
aVHARMONY-5360
p1324
aVHARMONY-5359
p1325
aVHARMONY-5358
p1326
aVHARMONY-5357
p1327
aVHARMONY-5356
p1328
aVHARMONY-5355
p1329
aVHARMONY-5354
p1330
aVHARMONY-5353
p1331
aVHARMONY-5352
p1332
aVHARMONY-5351
p1333
aVHARMONY-5350
p1334
aVHARMONY-5349
p1335
aVHARMONY-5348
p1336
aVHARMONY-5347
p1337
aVHARMONY-5346
p1338
aVHARMONY-5345
p1339
aVHARMONY-5344
p1340
aVHARMONY-5343
p1341
aVHARMONY-5342
p1342
aVHARMONY-5341
p1343
aVHARMONY-5340
p1344
aVHARMONY-5339
p1345
aVHARMONY-5338
p1346
aVHARMONY-5337
p1347
aVHARMONY-5336
p1348
aVHARMONY-5335
p1349
aVHARMONY-5334
p1350
aVHARMONY-5333
p1351
aVHARMONY-5332
p1352
aVHARMONY-5331
p1353
aVHARMONY-5330
p1354
aVHARMONY-5329
p1355
aVHARMONY-5328
p1356
aVHARMONY-5327
p1357
aVHARMONY-5326
p1358
aVHARMONY-5325
p1359
aVHARMONY-5324
p1360
aVHARMONY-5323
p1361
aVHARMONY-5322
p1362
aVHARMONY-5321
p1363
aVHARMONY-5320
p1364
aVHARMONY-5319
p1365
aVHARMONY-5318
p1366
aVHARMONY-5317
p1367
aVHARMONY-5316
p1368
aVHARMONY-5315
p1369
aVHARMONY-5314
p1370
aVHARMONY-5313
p1371
aVHARMONY-5312
p1372
aVHARMONY-5311
p1373
aVHARMONY-5310
p1374
aVHARMONY-5309
p1375
aVHARMONY-5308
p1376
aVHARMONY-5307
p1377
aVHARMONY-5306
p1378
aVHARMONY-5305
p1379
aVHARMONY-5304
p1380
aVHARMONY-5303
p1381
aVHARMONY-5302
p1382
aVHARMONY-5301
p1383
aVHARMONY-5300
p1384
aVHARMONY-5299
p1385
aVHARMONY-5298
p1386
aVHARMONY-5297
p1387
aVHARMONY-5296
p1388
aVHARMONY-5295
p1389
aVHARMONY-5294
p1390
aVHARMONY-5293
p1391
aVHARMONY-5292
p1392
aVHARMONY-5291
p1393
aVHARMONY-5290
p1394
aVHARMONY-5289
p1395
aVHARMONY-5288
p1396
aVHARMONY-5287
p1397
aVHARMONY-5286
p1398
aVHARMONY-5285
p1399
aVHARMONY-5284
p1400
aVHARMONY-5283
p1401
aVHARMONY-5282
p1402
aVHARMONY-5281
p1403
aVHARMONY-5280
p1404
aVHARMONY-5279
p1405
aVHARMONY-5278
p1406
aVHARMONY-5277
p1407
aVHARMONY-5276
p1408
aVHARMONY-5275
p1409
aVHARMONY-5274
p1410
aVHARMONY-5273
p1411
aVHARMONY-5272
p1412
aVHARMONY-5271
p1413
aVHARMONY-5270
p1414
aVHARMONY-5269
p1415
aVHARMONY-5268
p1416
aVHARMONY-5267
p1417
aVHARMONY-5266
p1418
aVHARMONY-5265
p1419
aVHARMONY-5264
p1420
aVHARMONY-5263
p1421
aVHARMONY-5262
p1422
aVHARMONY-5261
p1423
aVHARMONY-5260
p1424
aVHARMONY-5259
p1425
aVHARMONY-5258
p1426
aVHARMONY-5257
p1427
aVHARMONY-5256
p1428
aVHARMONY-5255
p1429
aVHARMONY-5254
p1430
aVHARMONY-5253
p1431
aVHARMONY-5252
p1432
aVHARMONY-5251
p1433
aVHARMONY-5250
p1434
aVHARMONY-5249
p1435
aVHARMONY-5248
p1436
aVHARMONY-5247
p1437
aVHARMONY-5246
p1438
aVHARMONY-5245
p1439
aVHARMONY-5244
p1440
aVHARMONY-5243
p1441
aVHARMONY-5242
p1442
aVHARMONY-5241
p1443
aVHARMONY-5240
p1444
aVHARMONY-5239
p1445
aVHARMONY-5238
p1446
aVHARMONY-5237
p1447
aVHARMONY-5236
p1448
aVHARMONY-5235
p1449
aVHARMONY-5234
p1450
aVHARMONY-5233
p1451
aVHARMONY-5232
p1452
aVHARMONY-5231
p1453
aVHARMONY-5230
p1454
aVHARMONY-5229
p1455
aVHARMONY-5228
p1456
aVHARMONY-5227
p1457
aVHARMONY-5226
p1458
aVHARMONY-5225
p1459
aVHARMONY-5224
p1460
aVHARMONY-5223
p1461
aVHARMONY-5222
p1462
aVHARMONY-5221
p1463
aVHARMONY-5220
p1464
aVHARMONY-5219
p1465
aVHARMONY-5218
p1466
aVHARMONY-5217
p1467
aVHARMONY-5216
p1468
aVHARMONY-5215
p1469
aVHARMONY-5214
p1470
aVHARMONY-5213
p1471
aVHARMONY-5212
p1472
aVHARMONY-5211
p1473
aVHARMONY-5210
p1474
aVHARMONY-5209
p1475
aVHARMONY-5208
p1476
aVHARMONY-5207
p1477
aVHARMONY-5206
p1478
aVHARMONY-5205
p1479
aVHARMONY-5204
p1480
aVHARMONY-5203
p1481
aVHARMONY-5202
p1482
aVHARMONY-5201
p1483
aVHARMONY-5200
p1484
aVHARMONY-5199
p1485
aVHARMONY-5198
p1486
aVHARMONY-5197
p1487
aVHARMONY-5196
p1488
aVHARMONY-5195
p1489
aVHARMONY-5194
p1490
aVHARMONY-5193
p1491
aVHARMONY-5192
p1492
aVHARMONY-5191
p1493
aVHARMONY-5190
p1494
aVHARMONY-5189
p1495
aVHARMONY-5188
p1496
aVHARMONY-5187
p1497
aVHARMONY-5186
p1498
aVHARMONY-5185
p1499
aVHARMONY-5184
p1500
aVHARMONY-5183
p1501
aVHARMONY-5182
p1502
aVHARMONY-5181
p1503
aVHARMONY-5180
p1504
aVHARMONY-5179
p1505
aVHARMONY-5178
p1506
aVHARMONY-5177
p1507
aVHARMONY-5176
p1508
aVHARMONY-5175
p1509
aVHARMONY-5174
p1510
aVHARMONY-5173
p1511
aVHARMONY-5172
p1512
aVHARMONY-5171
p1513
aVHARMONY-5170
p1514
aVHARMONY-5169
p1515
aVHARMONY-5168
p1516
aVHARMONY-5167
p1517
aVHARMONY-5166
p1518
aVHARMONY-5165
p1519
aVHARMONY-5164
p1520
aVHARMONY-5163
p1521
aVHARMONY-5162
p1522
aVHARMONY-5161
p1523
aVHARMONY-5160
p1524
aVHARMONY-5159
p1525
aVHARMONY-5158
p1526
aVHARMONY-5157
p1527
aVHARMONY-5156
p1528
aVHARMONY-5155
p1529
aVHARMONY-5154
p1530
aVHARMONY-5153
p1531
aVHARMONY-5152
p1532
aVHARMONY-5151
p1533
aVHARMONY-5150
p1534
aVHARMONY-5149
p1535
aVHARMONY-5148
p1536
aVHARMONY-5147
p1537
aVHARMONY-5146
p1538
aVHARMONY-5145
p1539
aVHARMONY-5144
p1540
aVHARMONY-5143
p1541
aVHARMONY-5142
p1542
aVHARMONY-5141
p1543
aVHARMONY-5140
p1544
aVHARMONY-5139
p1545
aVHARMONY-5138
p1546
aVHARMONY-5137
p1547
aVHARMONY-5136
p1548
aVHARMONY-5135
p1549
aVHARMONY-5134
p1550
aVHARMONY-5133
p1551
aVHARMONY-5132
p1552
aVHARMONY-5131
p1553
aVHARMONY-5130
p1554
aVHARMONY-5129
p1555
aVHARMONY-5128
p1556
aVHARMONY-5127
p1557
aVHARMONY-5126
p1558
aVHARMONY-5125
p1559
aVHARMONY-5124
p1560
aVHARMONY-5123
p1561
aVHARMONY-5122
p1562
aVHARMONY-5121
p1563
aVHARMONY-5120
p1564
aVHARMONY-5119
p1565
aVHARMONY-5118
p1566
aVHARMONY-5117
p1567
aVHARMONY-5116
p1568
aVHARMONY-5115
p1569
aVHARMONY-5114
p1570
aVHARMONY-5113
p1571
aVHARMONY-5112
p1572
aVHARMONY-5111
p1573
aVHARMONY-5110
p1574
aVHARMONY-5109
p1575
aVHARMONY-5108
p1576
aVHARMONY-5107
p1577
aVHARMONY-5106
p1578
aVHARMONY-5105
p1579
aVHARMONY-5104
p1580
aVHARMONY-5103
p1581
aVHARMONY-5102
p1582
aVHARMONY-5101
p1583
aVHARMONY-5100
p1584
aVHARMONY-5099
p1585
aVHARMONY-5098
p1586
aVHARMONY-5097
p1587
aVHARMONY-5096
p1588
aVHARMONY-5095
p1589
aVHARMONY-5094
p1590
aVHARMONY-5093
p1591
aVHARMONY-5092
p1592
aVHARMONY-5091
p1593
aVHARMONY-5090
p1594
aVHARMONY-5089
p1595
aVHARMONY-5088
p1596
aVHARMONY-5087
p1597
aVHARMONY-5086
p1598
aVHARMONY-5085
p1599
aVHARMONY-5084
p1600
aVHARMONY-5083
p1601
aVHARMONY-5082
p1602
aVHARMONY-5081
p1603
aVHARMONY-5080
p1604
aVHARMONY-5079
p1605
aVHARMONY-5078
p1606
aVHARMONY-5077
p1607
aVHARMONY-5076
p1608
aVHARMONY-5075
p1609
aVHARMONY-5074
p1610
aVHARMONY-5073
p1611
aVHARMONY-5072
p1612
aVHARMONY-5071
p1613
aVHARMONY-5070
p1614
aVHARMONY-5069
p1615
aVHARMONY-5068
p1616
aVHARMONY-5067
p1617
aVHARMONY-5066
p1618
aVHARMONY-5065
p1619
aVHARMONY-5064
p1620
aVHARMONY-5063
p1621
aVHARMONY-5062
p1622
aVHARMONY-5061
p1623
aVHARMONY-5060
p1624
aVHARMONY-5059
p1625
aVHARMONY-5058
p1626
aVHARMONY-5057
p1627
aVHARMONY-5056
p1628
aVHARMONY-5055
p1629
aVHARMONY-5054
p1630
aVHARMONY-5053
p1631
aVHARMONY-5052
p1632
aVHARMONY-5051
p1633
aVHARMONY-5050
p1634
aVHARMONY-5049
p1635
aVHARMONY-5048
p1636
aVHARMONY-5047
p1637
aVHARMONY-5046
p1638
aVHARMONY-5045
p1639
aVHARMONY-5044
p1640
aVHARMONY-5043
p1641
aVHARMONY-5042
p1642
aVHARMONY-5041
p1643
aVHARMONY-5040
p1644
aVHARMONY-5039
p1645
aVHARMONY-5038
p1646
aVHARMONY-5037
p1647
aVHARMONY-5036
p1648
aVHARMONY-5035
p1649
aVHARMONY-5034
p1650
aVHARMONY-5033
p1651
aVHARMONY-5032
p1652
aVHARMONY-5031
p1653
aVHARMONY-5030
p1654
aVHARMONY-5029
p1655
aVHARMONY-5028
p1656
aVHARMONY-5027
p1657
aVHARMONY-5026
p1658
aVHARMONY-5025
p1659
aVHARMONY-5024
p1660
aVHARMONY-5023
p1661
aVHARMONY-5022
p1662
aVHARMONY-5021
p1663
aVHARMONY-5020
p1664
aVHARMONY-5019
p1665
aVHARMONY-5018
p1666
aVHARMONY-5017
p1667
aVHARMONY-5016
p1668
aVHARMONY-5015
p1669
aVHARMONY-5014
p1670
aVHARMONY-5013
p1671
aVHARMONY-5012
p1672
aVHARMONY-5011
p1673
aVHARMONY-5010
p1674
aVHARMONY-5009
p1675
aVHARMONY-5008
p1676
aVHARMONY-5007
p1677
aVHARMONY-5006
p1678
aVHARMONY-5005
p1679
aVHARMONY-5004
p1680
aVHARMONY-5003
p1681
aVHARMONY-5002
p1682
aVHARMONY-5001
p1683
aVHARMONY-5000
p1684
aVHARMONY-4999
p1685
aVHARMONY-4998
p1686
aVHARMONY-4997
p1687
aVHARMONY-4996
p1688
aVHARMONY-4995
p1689
aVHARMONY-4994
p1690
aVHARMONY-4993
p1691
aVHARMONY-4992
p1692
aVHARMONY-4991
p1693
aVHARMONY-4990
p1694
aVHARMONY-4989
p1695
aVHARMONY-4988
p1696
aVHARMONY-4987
p1697
aVHARMONY-4986
p1698
aVHARMONY-4985
p1699
aVHARMONY-4984
p1700
aVHARMONY-4983
p1701
aVHARMONY-4982
p1702
aVHARMONY-4981
p1703
aVHARMONY-4980
p1704
aVHARMONY-4979
p1705
aVHARMONY-4978
p1706
aVHARMONY-4977
p1707
aVHARMONY-4976
p1708
aVHARMONY-4975
p1709
aVHARMONY-4974
p1710
aVHARMONY-4973
p1711
aVHARMONY-4972
p1712
aVHARMONY-4971
p1713
aVHARMONY-4970
p1714
aVHARMONY-4969
p1715
aVHARMONY-4968
p1716
aVHARMONY-4967
p1717
aVHARMONY-4966
p1718
aVHARMONY-4965
p1719
aVHARMONY-4964
p1720
aVHARMONY-4963
p1721
aVHARMONY-4962
p1722
aVHARMONY-4961
p1723
aVHARMONY-4960
p1724
aVHARMONY-4959
p1725
aVHARMONY-4958
p1726
aVHARMONY-4957
p1727
aVHARMONY-4956
p1728
aVHARMONY-4955
p1729
aVHARMONY-4954
p1730
aVHARMONY-4953
p1731
aVHARMONY-4952
p1732
aVHARMONY-4951
p1733
aVHARMONY-4950
p1734
aVHARMONY-4949
p1735
aVHARMONY-4948
p1736
aVHARMONY-4947
p1737
aVHARMONY-4946
p1738
aVHARMONY-4945
p1739
aVHARMONY-4944
p1740
aVHARMONY-4943
p1741
aVHARMONY-4942
p1742
aVHARMONY-4941
p1743
aVHARMONY-4940
p1744
aVHARMONY-4939
p1745
aVHARMONY-4938
p1746
aVHARMONY-4937
p1747
aVHARMONY-4936
p1748
aVHARMONY-4935
p1749
aVHARMONY-4934
p1750
aVHARMONY-4933
p1751
aVHARMONY-4932
p1752
aVHARMONY-4931
p1753
aVHARMONY-4930
p1754
aVHARMONY-4929
p1755
aVHARMONY-4928
p1756
aVHARMONY-4927
p1757
aVHARMONY-4926
p1758
aVHARMONY-4925
p1759
aVHARMONY-4924
p1760
aVHARMONY-4923
p1761
aVHARMONY-4922
p1762
aVHARMONY-4921
p1763
aVHARMONY-4920
p1764
aVHARMONY-4919
p1765
aVHARMONY-4918
p1766
aVHARMONY-4917
p1767
aVHARMONY-4916
p1768
aVHARMONY-4915
p1769
aVHARMONY-4914
p1770
aVHARMONY-4913
p1771
aVHARMONY-4912
p1772
aVHARMONY-4911
p1773
aVHARMONY-4910
p1774
aVHARMONY-4909
p1775
aVHARMONY-4908
p1776
aVHARMONY-4907
p1777
aVHARMONY-4906
p1778
aVHARMONY-4905
p1779
aVHARMONY-4904
p1780
aVHARMONY-4903
p1781
aVHARMONY-4902
p1782
aVHARMONY-4901
p1783
aVHARMONY-4900
p1784
aVHARMONY-4899
p1785
aVHARMONY-4898
p1786
aVHARMONY-4897
p1787
aVHARMONY-4896
p1788
aVHARMONY-4895
p1789
aVHARMONY-4894
p1790
aVHARMONY-4893
p1791
aVHARMONY-4892
p1792
aVHARMONY-4891
p1793
aVHARMONY-4890
p1794
aVHARMONY-4889
p1795
aVHARMONY-4888
p1796
aVHARMONY-4887
p1797
aVHARMONY-4886
p1798
aVHARMONY-4885
p1799
aVHARMONY-4884
p1800
aVHARMONY-4883
p1801
aVHARMONY-4882
p1802
aVHARMONY-4881
p1803
aVHARMONY-4880
p1804
aVHARMONY-4879
p1805
aVHARMONY-4878
p1806
aVHARMONY-4877
p1807
aVHARMONY-4876
p1808
aVHARMONY-4875
p1809
aVHARMONY-4874
p1810
aVHARMONY-4873
p1811
aVHARMONY-4872
p1812
aVHARMONY-4871
p1813
aVHARMONY-4870
p1814
aVHARMONY-4869
p1815
aVHARMONY-4868
p1816
aVHARMONY-4867
p1817
aVHARMONY-4866
p1818
aVHARMONY-4865
p1819
aVHARMONY-4864
p1820
aVHARMONY-4863
p1821
aVHARMONY-4862
p1822
aVHARMONY-4861
p1823
aVHARMONY-4859
p1824
aVHARMONY-4858
p1825
aVHARMONY-4857
p1826
aVHARMONY-4856
p1827
aVHARMONY-4855
p1828
aVHARMONY-4854
p1829
aVHARMONY-4853
p1830
aVHARMONY-4852
p1831
aVHARMONY-4851
p1832
aVHARMONY-4850
p1833
aVHARMONY-4849
p1834
aVHARMONY-4848
p1835
aVHARMONY-4847
p1836
aVHARMONY-4846
p1837
aVHARMONY-4845
p1838
aVHARMONY-4844
p1839
aVHARMONY-4843
p1840
aVHARMONY-4842
p1841
aVHARMONY-4841
p1842
aVHARMONY-4840
p1843
aVHARMONY-4839
p1844
aVHARMONY-4838
p1845
aVHARMONY-4837
p1846
aVHARMONY-4836
p1847
aVHARMONY-4835
p1848
aVHARMONY-4834
p1849
aVHARMONY-4833
p1850
aVHARMONY-4832
p1851
aVHARMONY-4831
p1852
aVHARMONY-4830
p1853
aVHARMONY-4829
p1854
aVHARMONY-4828
p1855
aVHARMONY-4827
p1856
aVHARMONY-4826
p1857
aVHARMONY-4825
p1858
aVHARMONY-4824
p1859
aVHARMONY-4823
p1860
aVHARMONY-4822
p1861
aVHARMONY-4821
p1862
aVHARMONY-4820
p1863
aVHARMONY-4819
p1864
aVHARMONY-4818
p1865
aVHARMONY-4817
p1866
aVHARMONY-4816
p1867
aVHARMONY-4815
p1868
aVHARMONY-4814
p1869
aVHARMONY-4813
p1870
aVHARMONY-4812
p1871
aVHARMONY-4811
p1872
aVHARMONY-4810
p1873
aVHARMONY-4809
p1874
aVHARMONY-4808
p1875
aVHARMONY-4807
p1876
aVHARMONY-4806
p1877
aVHARMONY-4805
p1878
aVHARMONY-4804
p1879
aVHARMONY-4803
p1880
aVHARMONY-4802
p1881
aVHARMONY-4801
p1882
aVHARMONY-4800
p1883
aVHARMONY-4799
p1884
aVHARMONY-4798
p1885
aVHARMONY-4797
p1886
aVHARMONY-4796
p1887
aVHARMONY-4795
p1888
aVHARMONY-4794
p1889
aVHARMONY-4793
p1890
aVHARMONY-4792
p1891
aVHARMONY-4791
p1892
aVHARMONY-4790
p1893
aVHARMONY-4789
p1894
aVHARMONY-4788
p1895
aVHARMONY-4787
p1896
aVHARMONY-4786
p1897
aVHARMONY-4785
p1898
aVHARMONY-4784
p1899
aVHARMONY-4783
p1900
aVHARMONY-4782
p1901
aVHARMONY-4781
p1902
aVHARMONY-4780
p1903
aVHARMONY-4779
p1904
aVHARMONY-4778
p1905
aVHARMONY-4777
p1906
aVHARMONY-4776
p1907
aVHARMONY-4775
p1908
aVHARMONY-4774
p1909
aVHARMONY-4773
p1910
aVHARMONY-4772
p1911
aVHARMONY-4771
p1912
aVHARMONY-4770
p1913
aVHARMONY-4769
p1914
aVHARMONY-4768
p1915
aVHARMONY-4767
p1916
aVHARMONY-4766
p1917
aVHARMONY-4765
p1918
aVHARMONY-4764
p1919
aVHARMONY-4763
p1920
aVHARMONY-4762
p1921
aVHARMONY-4761
p1922
aVHARMONY-4760
p1923
aVHARMONY-4759
p1924
aVHARMONY-4758
p1925
aVHARMONY-4757
p1926
aVHARMONY-4756
p1927
aVHARMONY-4755
p1928
aVHARMONY-4754
p1929
aVHARMONY-4753
p1930
aVHARMONY-4752
p1931
aVHARMONY-4751
p1932
aVHARMONY-4750
p1933
aVHARMONY-4749
p1934
aVHARMONY-4748
p1935
aVHARMONY-4747
p1936
aVHARMONY-4746
p1937
aVHARMONY-4745
p1938
aVHARMONY-4744
p1939
aVHARMONY-4743
p1940
aVHARMONY-4742
p1941
aVHARMONY-4741
p1942
aVHARMONY-4740
p1943
aVHARMONY-4739
p1944
aVHARMONY-4738
p1945
aVHARMONY-4737
p1946
aVHARMONY-4736
p1947
aVHARMONY-4735
p1948
aVHARMONY-4734
p1949
aVHARMONY-4733
p1950
aVHARMONY-4732
p1951
aVHARMONY-4731
p1952
aVHARMONY-4730
p1953
aVHARMONY-4729
p1954
aVHARMONY-4728
p1955
aVHARMONY-4727
p1956
aVHARMONY-4726
p1957
aVHARMONY-4725
p1958
aVHARMONY-4724
p1959
aVHARMONY-4723
p1960
aVHARMONY-4722
p1961
aVHARMONY-4721
p1962
aVHARMONY-4720
p1963
aVHARMONY-4719
p1964
aVHARMONY-4718
p1965
aVHARMONY-4717
p1966
aVHARMONY-4716
p1967
aVHARMONY-4715
p1968
aVHARMONY-4714
p1969
aVHARMONY-4713
p1970
aVHARMONY-4712
p1971
aVHARMONY-4711
p1972
aVHARMONY-4710
p1973
aVHARMONY-4709
p1974
aVHARMONY-4708
p1975
aVHARMONY-4707
p1976
aVHARMONY-4706
p1977
aVHARMONY-4705
p1978
aVHARMONY-4704
p1979
aVHARMONY-4703
p1980
aVHARMONY-4702
p1981
aVHARMONY-4701
p1982
aVHARMONY-4700
p1983
aVHARMONY-4699
p1984
aVHARMONY-4698
p1985
aVHARMONY-4697
p1986
aVHARMONY-4696
p1987
aVHARMONY-4695
p1988
aVHARMONY-4694
p1989
aVHARMONY-4693
p1990
aVHARMONY-4692
p1991
aVHARMONY-4691
p1992
aVHARMONY-4690
p1993
aVHARMONY-4689
p1994
aVHARMONY-4688
p1995
aVHARMONY-4687
p1996
aVHARMONY-4686
p1997
aVHARMONY-4685
p1998
aVHARMONY-4684
p1999
aVHARMONY-4683
p2000
aVHARMONY-4682
p2001
aVHARMONY-4681
p2002
aVHARMONY-4680
p2003
aVHARMONY-4679
p2004
aVHARMONY-4678
p2005
aVHARMONY-4677
p2006
aVHARMONY-4676
p2007
aVHARMONY-4675
p2008
aVHARMONY-4674
p2009
aVHARMONY-4673
p2010
aVHARMONY-4672
p2011
aVHARMONY-4671
p2012
aVHARMONY-4670
p2013
aVHARMONY-4669
p2014
aVHARMONY-4668
p2015
aVHARMONY-4667
p2016
aVHARMONY-4666
p2017
aVHARMONY-4665
p2018
aVHARMONY-4664
p2019
aVHARMONY-4663
p2020
aVHARMONY-4662
p2021
aVHARMONY-4661
p2022
aVHARMONY-4660
p2023
aVHARMONY-4659
p2024
aVHARMONY-4658
p2025
aVHARMONY-4657
p2026
aVHARMONY-4656
p2027
aVHARMONY-4655
p2028
aVHARMONY-4654
p2029
aVHARMONY-4653
p2030
aVHARMONY-4652
p2031
aVHARMONY-4651
p2032
aVHARMONY-4650
p2033
aVHARMONY-4649
p2034
aVHARMONY-4648
p2035
aVHARMONY-4647
p2036
aVHARMONY-4646
p2037
aVHARMONY-4645
p2038
aVHARMONY-4644
p2039
aVHARMONY-4643
p2040
aVHARMONY-4642
p2041
aVHARMONY-4641
p2042
aVHARMONY-4640
p2043
aVHARMONY-4639
p2044
aVHARMONY-4638
p2045
aVHARMONY-4637
p2046
aVHARMONY-4636
p2047
aVHARMONY-4635
p2048
aVHARMONY-4634
p2049
aVHARMONY-4633
p2050
aVHARMONY-4632
p2051
aVHARMONY-4631
p2052
aVHARMONY-4630
p2053
aVHARMONY-4629
p2054
aVHARMONY-4628
p2055
aVHARMONY-4627
p2056
aVHARMONY-4626
p2057
aVHARMONY-4625
p2058
aVHARMONY-4624
p2059
aVHARMONY-4623
p2060
aVHARMONY-4622
p2061
aVHARMONY-4621
p2062
aVHARMONY-4620
p2063
aVHARMONY-4619
p2064
aVHARMONY-4618
p2065
aVHARMONY-4617
p2066
aVHARMONY-4616
p2067
aVHARMONY-4615
p2068
aVHARMONY-4614
p2069
aVHARMONY-4613
p2070
aVHARMONY-4612
p2071
aVHARMONY-4611
p2072
aVHARMONY-4610
p2073
aVHARMONY-4609
p2074
aVHARMONY-4608
p2075
aVHARMONY-4607
p2076
aVHARMONY-4606
p2077
aVHARMONY-4605
p2078
aVHARMONY-4604
p2079
aVHARMONY-4603
p2080
aVHARMONY-4602
p2081
aVHARMONY-4601
p2082
aVHARMONY-4600
p2083
aVHARMONY-4599
p2084
aVHARMONY-4598
p2085
aVHARMONY-4597
p2086
aVHARMONY-4596
p2087
aVHARMONY-4595
p2088
aVHARMONY-4594
p2089
aVHARMONY-4593
p2090
aVHARMONY-4592
p2091
aVHARMONY-4591
p2092
aVHARMONY-4590
p2093
aVHARMONY-4589
p2094
aVHARMONY-4588
p2095
aVHARMONY-4587
p2096
aVHARMONY-4586
p2097
aVHARMONY-4585
p2098
aVHARMONY-4584
p2099
aVHARMONY-4583
p2100
aVHARMONY-4582
p2101
aVHARMONY-4581
p2102
aVHARMONY-4580
p2103
aVHARMONY-4579
p2104
aVHARMONY-4578
p2105
aVHARMONY-4577
p2106
aVHARMONY-4576
p2107
aVHARMONY-4575
p2108
aVHARMONY-4574
p2109
aVHARMONY-4573
p2110
aVHARMONY-4572
p2111
aVHARMONY-4571
p2112
aVHARMONY-4570
p2113
aVHARMONY-4569
p2114
aVHARMONY-4568
p2115
aVHARMONY-4567
p2116
aVHARMONY-4566
p2117
aVHARMONY-4565
p2118
aVHARMONY-4564
p2119
aVHARMONY-4563
p2120
aVHARMONY-4562
p2121
aVHARMONY-4561
p2122
aVHARMONY-4560
p2123
aVHARMONY-4559
p2124
aVHARMONY-4558
p2125
aVHARMONY-4557
p2126
aVHARMONY-4556
p2127
aVHARMONY-4555
p2128
aVHARMONY-4554
p2129
aVHARMONY-4553
p2130
aVHARMONY-4552
p2131
aVHARMONY-4551
p2132
aVHARMONY-4550
p2133
aVHARMONY-4549
p2134
aVHARMONY-4548
p2135
aVHARMONY-4547
p2136
aVHARMONY-4546
p2137
aVHARMONY-4545
p2138
aVHARMONY-4544
p2139
aVHARMONY-4543
p2140
aVHARMONY-4542
p2141
aVHARMONY-4541
p2142
aVHARMONY-4540
p2143
aVHARMONY-4539
p2144
aVHARMONY-4538
p2145
aVHARMONY-4537
p2146
aVHARMONY-4536
p2147
aVHARMONY-4535
p2148
aVHARMONY-4534
p2149
aVHARMONY-4533
p2150
aVHARMONY-4532
p2151
aVHARMONY-4531
p2152
aVHARMONY-4530
p2153
aVHARMONY-4529
p2154
aVHARMONY-4528
p2155
aVHARMONY-4527
p2156
aVHARMONY-4526
p2157
aVHARMONY-4525
p2158
aVHARMONY-4524
p2159
aVHARMONY-4523
p2160
aVHARMONY-4522
p2161
aVHARMONY-4521
p2162
aVHARMONY-4520
p2163
aVHARMONY-4519
p2164
aVHARMONY-4518
p2165
aVHARMONY-4517
p2166
aVHARMONY-4516
p2167
aVHARMONY-4515
p2168
aVHARMONY-4514
p2169
aVHARMONY-4513
p2170
aVHARMONY-4512
p2171
aVHARMONY-4511
p2172
aVHARMONY-4510
p2173
aVHARMONY-4509
p2174
aVHARMONY-4508
p2175
aVHARMONY-4507
p2176
aVHARMONY-4506
p2177
aVHARMONY-4505
p2178
aVHARMONY-4504
p2179
aVHARMONY-4503
p2180
aVHARMONY-4502
p2181
aVHARMONY-4501
p2182
aVHARMONY-4500
p2183
aVHARMONY-4499
p2184
aVHARMONY-4498
p2185
aVHARMONY-4497
p2186
aVHARMONY-4496
p2187
aVHARMONY-4495
p2188
aVHARMONY-4494
p2189
aVHARMONY-4493
p2190
aVHARMONY-4492
p2191
aVHARMONY-4491
p2192
aVHARMONY-4490
p2193
aVHARMONY-4489
p2194
aVHARMONY-4488
p2195
aVHARMONY-4487
p2196
aVHARMONY-4486
p2197
aVHARMONY-4485
p2198
aVHARMONY-4484
p2199
aVHARMONY-4483
p2200
aVHARMONY-4482
p2201
aVHARMONY-4481
p2202
aVHARMONY-4480
p2203
aVHARMONY-4479
p2204
aVHARMONY-4478
p2205
aVHARMONY-4477
p2206
aVHARMONY-4476
p2207
aVHARMONY-4475
p2208
aVHARMONY-4474
p2209
aVHARMONY-4473
p2210
aVHARMONY-4472
p2211
aVHARMONY-4471
p2212
aVHARMONY-4470
p2213
aVHARMONY-4469
p2214
aVHARMONY-4468
p2215
aVHARMONY-4467
p2216
aVHARMONY-4466
p2217
aVHARMONY-4465
p2218
aVHARMONY-4464
p2219
aVHARMONY-4463
p2220
aVHARMONY-4462
p2221
aVHARMONY-4461
p2222
aVHARMONY-4460
p2223
aVHARMONY-4459
p2224
aVHARMONY-4458
p2225
aVHARMONY-4457
p2226
aVHARMONY-4456
p2227
aVHARMONY-4455
p2228
aVHARMONY-4454
p2229
aVHARMONY-4453
p2230
aVHARMONY-4452
p2231
aVHARMONY-4451
p2232
aVHARMONY-4450
p2233
aVHARMONY-4449
p2234
aVHARMONY-4448
p2235
aVHARMONY-4447
p2236
aVHARMONY-4446
p2237
aVHARMONY-4445
p2238
aVHARMONY-4444
p2239
aVHARMONY-4443
p2240
aVHARMONY-4442
p2241
aVHARMONY-4441
p2242
aVHARMONY-4440
p2243
aVHARMONY-4439
p2244
aVHARMONY-4438
p2245
aVHARMONY-4437
p2246
aVHARMONY-4436
p2247
aVHARMONY-4435
p2248
aVHARMONY-4434
p2249
aVHARMONY-4433
p2250
aVHARMONY-4432
p2251
aVHARMONY-4431
p2252
aVHARMONY-4430
p2253
aVHARMONY-4429
p2254
aVHARMONY-4428
p2255
aVHARMONY-4427
p2256
aVHARMONY-4426
p2257
aVHARMONY-4425
p2258
aVHARMONY-4424
p2259
aVHARMONY-4423
p2260
aVHARMONY-4422
p2261
aVHARMONY-4421
p2262
aVHARMONY-4420
p2263
aVHARMONY-4419
p2264
aVHARMONY-4418
p2265
aVHARMONY-4417
p2266
aVHARMONY-4416
p2267
aVHARMONY-4415
p2268
aVHARMONY-4414
p2269
aVHARMONY-4413
p2270
aVHARMONY-4412
p2271
aVHARMONY-4411
p2272
aVHARMONY-4410
p2273
aVHARMONY-4409
p2274
aVHARMONY-4408
p2275
aVHARMONY-4407
p2276
aVHARMONY-4406
p2277
aVHARMONY-4405
p2278
aVHARMONY-4404
p2279
aVHARMONY-4403
p2280
aVHARMONY-4402
p2281
aVHARMONY-4401
p2282
aVHARMONY-4400
p2283
aVHARMONY-4399
p2284
aVHARMONY-4398
p2285
aVHARMONY-4397
p2286
aVHARMONY-4396
p2287
aVHARMONY-4395
p2288
aVHARMONY-4394
p2289
aVHARMONY-4393
p2290
aVHARMONY-4392
p2291
aVHARMONY-4391
p2292
aVHARMONY-4390
p2293
aVHARMONY-4389
p2294
aVHARMONY-4388
p2295
aVHARMONY-4387
p2296
aVHARMONY-4386
p2297
aVHARMONY-4385
p2298
aVHARMONY-4384
p2299
aVHARMONY-4383
p2300
aVHARMONY-4382
p2301
aVHARMONY-4381
p2302
aVHARMONY-4380
p2303
aVHARMONY-4379
p2304
aVHARMONY-4378
p2305
aVHARMONY-4377
p2306
aVHARMONY-4376
p2307
aVHARMONY-4375
p2308
aVHARMONY-4374
p2309
aVHARMONY-4373
p2310
aVHARMONY-4372
p2311
aVHARMONY-4371
p2312
aVHARMONY-4370
p2313
aVHARMONY-4369
p2314
aVHARMONY-4368
p2315
aVHARMONY-4367
p2316
aVHARMONY-4366
p2317
aVHARMONY-4365
p2318
aVHARMONY-4364
p2319
aVHARMONY-4363
p2320
aVHARMONY-4362
p2321
aVHARMONY-4361
p2322
aVHARMONY-4360
p2323
aVHARMONY-4359
p2324
aVHARMONY-4358
p2325
aVHARMONY-4357
p2326
aVHARMONY-4356
p2327
aVHARMONY-4355
p2328
aVHARMONY-4354
p2329
aVHARMONY-4353
p2330
aVHARMONY-4352
p2331
aVHARMONY-4351
p2332
aVHARMONY-4350
p2333
aVHARMONY-4349
p2334
aVHARMONY-4348
p2335
aVHARMONY-4347
p2336
aVHARMONY-4346
p2337
aVHARMONY-4345
p2338
aVHARMONY-4344
p2339
aVHARMONY-4343
p2340
aVHARMONY-4342
p2341
aVHARMONY-4341
p2342
aVHARMONY-4340
p2343
aVHARMONY-4339
p2344
aVHARMONY-4338
p2345
aVHARMONY-4337
p2346
aVHARMONY-4336
p2347
aVHARMONY-4335
p2348
aVHARMONY-4334
p2349
aVHARMONY-4333
p2350
aVHARMONY-4332
p2351
aVHARMONY-4331
p2352
aVHARMONY-4330
p2353
aVHARMONY-4329
p2354
aVHARMONY-4328
p2355
aVHARMONY-4327
p2356
aVHARMONY-4326
p2357
aVHARMONY-4325
p2358
aVHARMONY-4324
p2359
aVHARMONY-4323
p2360
aVHARMONY-4322
p2361
aVHARMONY-4321
p2362
aVHARMONY-4320
p2363
aVHARMONY-4319
p2364
aVHARMONY-4318
p2365
aVHARMONY-4317
p2366
aVHARMONY-4316
p2367
aVHARMONY-4315
p2368
aVHARMONY-4314
p2369
aVHARMONY-4313
p2370
aVHARMONY-4312
p2371
aVHARMONY-4311
p2372
aVHARMONY-4310
p2373
aVHARMONY-4309
p2374
aVHARMONY-4308
p2375
aVHARMONY-4307
p2376
aVHARMONY-4306
p2377
aVHARMONY-4305
p2378
aVHARMONY-4304
p2379
aVHARMONY-4303
p2380
aVHARMONY-4302
p2381
aVHARMONY-4301
p2382
aVHARMONY-4300
p2383
aVHARMONY-4299
p2384
aVHARMONY-4298
p2385
aVHARMONY-4297
p2386
aVHARMONY-4296
p2387
aVHARMONY-4295
p2388
aVHARMONY-4294
p2389
aVHARMONY-4293
p2390
aVHARMONY-4292
p2391
aVHARMONY-4291
p2392
aVHARMONY-4290
p2393
aVHARMONY-4289
p2394
aVHARMONY-4288
p2395
aVHARMONY-4287
p2396
aVHARMONY-4286
p2397
aVHARMONY-4285
p2398
aVHARMONY-4284
p2399
aVHARMONY-4283
p2400
aVHARMONY-4282
p2401
aVHARMONY-4281
p2402
aVHARMONY-4280
p2403
aVHARMONY-4279
p2404
aVHARMONY-4278
p2405
aVHARMONY-4277
p2406
aVHARMONY-4276
p2407
aVHARMONY-4275
p2408
aVHARMONY-4274
p2409
aVHARMONY-4273
p2410
aVHARMONY-4272
p2411
aVHARMONY-4271
p2412
aVHARMONY-4270
p2413
aVHARMONY-4269
p2414
aVHARMONY-4268
p2415
aVHARMONY-4267
p2416
aVHARMONY-4266
p2417
aVHARMONY-4265
p2418
aVHARMONY-4264
p2419
aVHARMONY-4263
p2420
aVHARMONY-4262
p2421
aVHARMONY-4261
p2422
aVHARMONY-4260
p2423
aVHARMONY-4259
p2424
aVHARMONY-4258
p2425
aVHARMONY-4257
p2426
aVHARMONY-4256
p2427
aVHARMONY-4255
p2428
aVHARMONY-4254
p2429
aVHARMONY-4253
p2430
aVHARMONY-4252
p2431
aVHARMONY-4251
p2432
aVHARMONY-4250
p2433
aVHARMONY-4249
p2434
aVHARMONY-4248
p2435
aVHARMONY-4247
p2436
aVHARMONY-4246
p2437
aVHARMONY-4245
p2438
aVHARMONY-4244
p2439
aVHARMONY-4243
p2440
aVHARMONY-4242
p2441
aVHARMONY-4241
p2442
aVHARMONY-4240
p2443
aVHARMONY-4239
p2444
aVHARMONY-4238
p2445
aVHARMONY-4237
p2446
aVHARMONY-4236
p2447
aVHARMONY-4235
p2448
aVHARMONY-4234
p2449
aVHARMONY-4233
p2450
aVHARMONY-4232
p2451
aVHARMONY-4231
p2452
aVHARMONY-4230
p2453
aVHARMONY-4229
p2454
aVHARMONY-4228
p2455
aVHARMONY-4227
p2456
aVHARMONY-4226
p2457
aVHARMONY-4225
p2458
aVHARMONY-4224
p2459
aVHARMONY-4223
p2460
aVHARMONY-4222
p2461
aVHARMONY-4221
p2462
aVHARMONY-4220
p2463
aVHARMONY-4219
p2464
aVHARMONY-4218
p2465
aVHARMONY-4217
p2466
aVHARMONY-4216
p2467
aVHARMONY-4215
p2468
aVHARMONY-4214
p2469
aVHARMONY-4213
p2470
aVHARMONY-4212
p2471
aVHARMONY-4211
p2472
aVHARMONY-4210
p2473
aVHARMONY-4209
p2474
aVHARMONY-4208
p2475
aVHARMONY-4207
p2476
aVHARMONY-4206
p2477
aVHARMONY-4205
p2478
aVHARMONY-4204
p2479
aVHARMONY-4203
p2480
aVHARMONY-4202
p2481
aVHARMONY-4201
p2482
aVHARMONY-4200
p2483
aVHARMONY-4199
p2484
aVHARMONY-4198
p2485
aVHARMONY-4197
p2486
aVHARMONY-4196
p2487
aVHARMONY-4195
p2488
aVHARMONY-4194
p2489
aVHARMONY-4193
p2490
aVHARMONY-4191
p2491
aVHARMONY-4190
p2492
aVHARMONY-4189
p2493
aVHARMONY-4188
p2494
aVHARMONY-4187
p2495
aVHARMONY-4186
p2496
aVHARMONY-4185
p2497
aVHARMONY-4184
p2498
aVHARMONY-4183
p2499
aVHARMONY-4182
p2500
aVHARMONY-4181
p2501
aVHARMONY-4180
p2502
aVHARMONY-4179
p2503
aVHARMONY-4178
p2504
aVHARMONY-4177
p2505
aVHARMONY-4176
p2506
aVHARMONY-4175
p2507
aVHARMONY-4174
p2508
aVHARMONY-4173
p2509
aVHARMONY-4172
p2510
aVHARMONY-4171
p2511
aVHARMONY-4170
p2512
aVHARMONY-4169
p2513
aVHARMONY-4168
p2514
aVHARMONY-4167
p2515
aVHARMONY-4166
p2516
aVHARMONY-4165
p2517
aVHARMONY-4164
p2518
aVHARMONY-4163
p2519
aVHARMONY-4162
p2520
aVHARMONY-4161
p2521
aVHARMONY-4160
p2522
aVHARMONY-4159
p2523
aVHARMONY-4158
p2524
aVHARMONY-4157
p2525
aVHARMONY-4156
p2526
aVHARMONY-4155
p2527
aVHARMONY-4154
p2528
aVHARMONY-4153
p2529
aVHARMONY-4152
p2530
aVHARMONY-4151
p2531
aVHARMONY-4150
p2532
aVHARMONY-4149
p2533
aVHARMONY-4148
p2534
aVHARMONY-4147
p2535
aVHARMONY-4146
p2536
aVHARMONY-4145
p2537
aVHARMONY-4144
p2538
aVHARMONY-4143
p2539
aVHARMONY-4142
p2540
aVHARMONY-4141
p2541
aVHARMONY-4140
p2542
aVHARMONY-4139
p2543
aVHARMONY-4138
p2544
aVHARMONY-4137
p2545
aVHARMONY-4136
p2546
aVHARMONY-4135
p2547
aVHARMONY-4134
p2548
aVHARMONY-4133
p2549
aVHARMONY-4132
p2550
aVHARMONY-4131
p2551
aVHARMONY-4130
p2552
aVHARMONY-4129
p2553
aVHARMONY-4128
p2554
aVHARMONY-4127
p2555
aVHARMONY-4125
p2556
aVHARMONY-4124
p2557
aVHARMONY-4123
p2558
aVHARMONY-4122
p2559
aVHARMONY-4121
p2560
aVHARMONY-4120
p2561
aVHARMONY-4119
p2562
aVHARMONY-4118
p2563
aVHARMONY-4117
p2564
aVHARMONY-4116
p2565
aVHARMONY-4115
p2566
aVHARMONY-4114
p2567
aVHARMONY-4113
p2568
aVHARMONY-4112
p2569
aVHARMONY-4111
p2570
aVHARMONY-4110
p2571
aVHARMONY-4109
p2572
aVHARMONY-4108
p2573
aVHARMONY-4107
p2574
aVHARMONY-4106
p2575
aVHARMONY-4105
p2576
aVHARMONY-4104
p2577
aVHARMONY-4103
p2578
aVHARMONY-4102
p2579
aVHARMONY-4101
p2580
aVHARMONY-4100
p2581
aVHARMONY-4099
p2582
aVHARMONY-4098
p2583
aVHARMONY-4097
p2584
aVHARMONY-4096
p2585
aVHARMONY-4095
p2586
aVHARMONY-4094
p2587
aVHARMONY-4093
p2588
aVHARMONY-4092
p2589
aVHARMONY-4091
p2590
aVHARMONY-4090
p2591
aVHARMONY-4089
p2592
aVHARMONY-4088
p2593
aVHARMONY-4087
p2594
aVHARMONY-4086
p2595
aVHARMONY-4085
p2596
aVHARMONY-4084
p2597
aVHARMONY-4083
p2598
aVHARMONY-4082
p2599
aVHARMONY-4081
p2600
aVHARMONY-4080
p2601
aVHARMONY-4079
p2602
aVHARMONY-4078
p2603
aVHARMONY-4077
p2604
aVHARMONY-4076
p2605
aVHARMONY-4075
p2606
aVHARMONY-4074
p2607
aVHARMONY-4073
p2608
aVHARMONY-4072
p2609
aVHARMONY-4071
p2610
aVHARMONY-4070
p2611
aVHARMONY-4069
p2612
aVHARMONY-4068
p2613
aVHARMONY-4067
p2614
aVHARMONY-4066
p2615
aVHARMONY-4065
p2616
aVHARMONY-4064
p2617
aVHARMONY-4063
p2618
aVHARMONY-4062
p2619
aVHARMONY-4061
p2620
aVHARMONY-4060
p2621
aVHARMONY-4059
p2622
aVHARMONY-4058
p2623
aVHARMONY-4057
p2624
aVHARMONY-4056
p2625
aVHARMONY-4055
p2626
aVHARMONY-4054
p2627
aVHARMONY-4053
p2628
aVHARMONY-4052
p2629
aVHARMONY-4051
p2630
aVHARMONY-4050
p2631
aVHARMONY-4049
p2632
aVHARMONY-4048
p2633
aVHARMONY-4047
p2634
aVHARMONY-4046
p2635
aVHARMONY-4045
p2636
aVHARMONY-4044
p2637
aVHARMONY-4043
p2638
aVHARMONY-4042
p2639
aVHARMONY-4041
p2640
aVHARMONY-4040
p2641
aVHARMONY-4039
p2642
aVHARMONY-4038
p2643
aVHARMONY-4037
p2644
aVHARMONY-4036
p2645
aVHARMONY-4035
p2646
aVHARMONY-4034
p2647
aVHARMONY-4033
p2648
aVHARMONY-4032
p2649
aVHARMONY-4031
p2650
aVHARMONY-4030
p2651
aVHARMONY-4029
p2652
aVHARMONY-4028
p2653
aVHARMONY-4027
p2654
aVHARMONY-4026
p2655
aVHARMONY-4025
p2656
aVHARMONY-4024
p2657
aVHARMONY-4023
p2658
aVHARMONY-4022
p2659
aVHARMONY-4021
p2660
aVHARMONY-4020
p2661
aVHARMONY-4019
p2662
aVHARMONY-4018
p2663
aVHARMONY-4017
p2664
aVHARMONY-4016
p2665
aVHARMONY-4015
p2666
aVHARMONY-4014
p2667
aVHARMONY-4013
p2668
aVHARMONY-4012
p2669
aVHARMONY-4011
p2670
aVHARMONY-4010
p2671
aVHARMONY-4009
p2672
aVHARMONY-4008
p2673
aVHARMONY-4007
p2674
aVHARMONY-4006
p2675
aVHARMONY-4005
p2676
aVHARMONY-4004
p2677
aVHARMONY-4003
p2678
aVHARMONY-4002
p2679
aVHARMONY-4001
p2680
aVHARMONY-4000
p2681
aVHARMONY-3999
p2682
aVHARMONY-3998
p2683
aVHARMONY-3997
p2684
aVHARMONY-3996
p2685
aVHARMONY-3995
p2686
aVHARMONY-3994
p2687
aVHARMONY-3993
p2688
aVHARMONY-3992
p2689
aVHARMONY-3991
p2690
aVHARMONY-3990
p2691
aVHARMONY-3989
p2692
aVHARMONY-3988
p2693
aVHARMONY-3987
p2694
aVHARMONY-3986
p2695
aVHARMONY-3985
p2696
aVHARMONY-3984
p2697
aVHARMONY-3983
p2698
aVHARMONY-3982
p2699
aVHARMONY-3981
p2700
aVHARMONY-3980
p2701
aVHARMONY-3979
p2702
aVHARMONY-3978
p2703
aVHARMONY-3977
p2704
aVHARMONY-3976
p2705
aVHARMONY-3975
p2706
aVHARMONY-3974
p2707
aVHARMONY-3973
p2708
aVHARMONY-3972
p2709
aVHARMONY-3971
p2710
aVHARMONY-3970
p2711
aVHARMONY-3969
p2712
aVHARMONY-3968
p2713
aVHARMONY-3967
p2714
aVHARMONY-3966
p2715
aVHARMONY-3965
p2716
aVHARMONY-3964
p2717
aVHARMONY-3963
p2718
aVHARMONY-3962
p2719
aVHARMONY-3961
p2720
aVHARMONY-3960
p2721
aVHARMONY-3959
p2722
aVHARMONY-3958
p2723
aVHARMONY-3957
p2724
aVHARMONY-3956
p2725
aVHARMONY-3955
p2726
aVHARMONY-3954
p2727
aVHARMONY-3953
p2728
aVHARMONY-3952
p2729
aVHARMONY-3951
p2730
aVHARMONY-3950
p2731
aVHARMONY-3949
p2732
aVHARMONY-3948
p2733
aVHARMONY-3947
p2734
aVHARMONY-3946
p2735
aVHARMONY-3945
p2736
aVHARMONY-3944
p2737
aVHARMONY-3943
p2738
aVHARMONY-3942
p2739
aVHARMONY-3941
p2740
aVHARMONY-3940
p2741
aVHARMONY-3939
p2742
aVHARMONY-3938
p2743
aVHARMONY-3937
p2744
aVHARMONY-3936
p2745
aVHARMONY-3935
p2746
aVHARMONY-3934
p2747
aVHARMONY-3933
p2748
aVHARMONY-3932
p2749
aVHARMONY-3931
p2750
aVHARMONY-3930
p2751
aVHARMONY-3929
p2752
aVHARMONY-3928
p2753
aVHARMONY-3927
p2754
aVHARMONY-3926
p2755
aVHARMONY-3925
p2756
aVHARMONY-3924
p2757
aVHARMONY-3923
p2758
aVHARMONY-3922
p2759
aVHARMONY-3921
p2760
aVHARMONY-3920
p2761
aVHARMONY-3919
p2762
aVHARMONY-3918
p2763
aVHARMONY-3917
p2764
aVHARMONY-3916
p2765
aVHARMONY-3915
p2766
aVHARMONY-3914
p2767
aVHARMONY-3913
p2768
aVHARMONY-3912
p2769
aVHARMONY-3911
p2770
aVHARMONY-3910
p2771
aVHARMONY-3909
p2772
aVHARMONY-3908
p2773
aVHARMONY-3907
p2774
aVHARMONY-3906
p2775
aVHARMONY-3905
p2776
aVHARMONY-3904
p2777
aVHARMONY-3903
p2778
aVHARMONY-3902
p2779
aVHARMONY-3901
p2780
aVHARMONY-3900
p2781
aVHARMONY-3899
p2782
aVHARMONY-3898
p2783
aVHARMONY-3897
p2784
aVHARMONY-3896
p2785
aVHARMONY-3895
p2786
aVHARMONY-3894
p2787
aVHARMONY-3893
p2788
aVHARMONY-3892
p2789
aVHARMONY-3891
p2790
aVHARMONY-3890
p2791
aVHARMONY-3889
p2792
aVHARMONY-3888
p2793
aVHARMONY-3887
p2794
aVHARMONY-3886
p2795
aVHARMONY-3885
p2796
aVHARMONY-3884
p2797
aVHARMONY-3883
p2798
aVHARMONY-3882
p2799
aVHARMONY-3881
p2800
aVHARMONY-3880
p2801
aVHARMONY-3879
p2802
aVHARMONY-3878
p2803
aVHARMONY-3877
p2804
aVHARMONY-3876
p2805
aVHARMONY-3875
p2806
aVHARMONY-3874
p2807
aVHARMONY-3873
p2808
aVHARMONY-3872
p2809
aVHARMONY-3871
p2810
aVHARMONY-3870
p2811
aVHARMONY-3869
p2812
aVHARMONY-3868
p2813
aVHARMONY-3867
p2814
aVHARMONY-3866
p2815
aVHARMONY-3865
p2816
aVHARMONY-3864
p2817
aVHARMONY-3863
p2818
aVHARMONY-3862
p2819
aVHARMONY-3861
p2820
aVHARMONY-3860
p2821
aVHARMONY-3859
p2822
aVHARMONY-3858
p2823
aVHARMONY-3857
p2824
aVHARMONY-3856
p2825
aVHARMONY-3855
p2826
aVHARMONY-3854
p2827
aVHARMONY-3853
p2828
aVHARMONY-3852
p2829
aVHARMONY-3851
p2830
aVHARMONY-3850
p2831
aVHARMONY-3849
p2832
aVHARMONY-3848
p2833
aVHARMONY-3847
p2834
aVHARMONY-3846
p2835
aVHARMONY-3845
p2836
aVHARMONY-3844
p2837
aVHARMONY-3843
p2838
aVHARMONY-3842
p2839
aVHARMONY-3841
p2840
aVHARMONY-3840
p2841
aVHARMONY-3839
p2842
aVHARMONY-3838
p2843
aVHARMONY-3837
p2844
aVHARMONY-3836
p2845
aVHARMONY-3835
p2846
aVHARMONY-3834
p2847
aVHARMONY-3833
p2848
aVHARMONY-3832
p2849
aVHARMONY-3831
p2850
aVHARMONY-3830
p2851
aVHARMONY-3829
p2852
aVHARMONY-3828
p2853
aVHARMONY-3827
p2854
aVHARMONY-3826
p2855
aVHARMONY-3825
p2856
aVHARMONY-3824
p2857
aVHARMONY-3823
p2858
aVHARMONY-3822
p2859
aVHARMONY-3821
p2860
aVHARMONY-3820
p2861
aVHARMONY-3819
p2862
aVHARMONY-3818
p2863
aVHARMONY-3817
p2864
aVHARMONY-3816
p2865
aVHARMONY-3815
p2866
aVHARMONY-3814
p2867
aVHARMONY-3813
p2868
aVHARMONY-3812
p2869
aVHARMONY-3811
p2870
aVHARMONY-3810
p2871
aVHARMONY-3809
p2872
aVHARMONY-3808
p2873
aVHARMONY-3807
p2874
aVHARMONY-3806
p2875
aVHARMONY-3805
p2876
aVHARMONY-3804
p2877
aVHARMONY-3803
p2878
aVHARMONY-3802
p2879
aVHARMONY-3801
p2880
aVHARMONY-3800
p2881
aVHARMONY-3799
p2882
aVHARMONY-3798
p2883
aVHARMONY-3797
p2884
aVHARMONY-3796
p2885
aVHARMONY-3795
p2886
aVHARMONY-3794
p2887
aVHARMONY-3793
p2888
aVHARMONY-3792
p2889
aVHARMONY-3791
p2890
aVHARMONY-3790
p2891
aVHARMONY-3789
p2892
aVHARMONY-3788
p2893
aVHARMONY-3787
p2894
aVHARMONY-3786
p2895
aVHARMONY-3785
p2896
aVHARMONY-3784
p2897
aVHARMONY-3783
p2898
aVHARMONY-3782
p2899
aVHARMONY-3781
p2900
aVHARMONY-3780
p2901
aVHARMONY-3779
p2902
aVHARMONY-3778
p2903
aVHARMONY-3777
p2904
aVHARMONY-3776
p2905
aVHARMONY-3775
p2906
aVHARMONY-3774
p2907
aVHARMONY-3773
p2908
aVHARMONY-3772
p2909
aVHARMONY-3771
p2910
aVHARMONY-3770
p2911
aVHARMONY-3769
p2912
aVHARMONY-3768
p2913
aVHARMONY-3767
p2914
aVHARMONY-3766
p2915
aVHARMONY-3765
p2916
aVHARMONY-3764
p2917
aVHARMONY-3763
p2918
aVHARMONY-3762
p2919
aVHARMONY-3761
p2920
aVHARMONY-3760
p2921
aVHARMONY-3759
p2922
aVHARMONY-3758
p2923
aVHARMONY-3757
p2924
aVHARMONY-3756
p2925
aVHARMONY-3755
p2926
aVHARMONY-3754
p2927
aVHARMONY-3753
p2928
aVHARMONY-3752
p2929
aVHARMONY-3751
p2930
aVHARMONY-3750
p2931
aVHARMONY-3749
p2932
aVHARMONY-3748
p2933
aVHARMONY-3747
p2934
aVHARMONY-3746
p2935
aVHARMONY-3745
p2936
aVHARMONY-3744
p2937
aVHARMONY-3743
p2938
aVHARMONY-3742
p2939
aVHARMONY-3741
p2940
aVHARMONY-3740
p2941
aVHARMONY-3739
p2942
aVHARMONY-3738
p2943
aVHARMONY-3737
p2944
aVHARMONY-3736
p2945
aVHARMONY-3735
p2946
aVHARMONY-3734
p2947
aVHARMONY-3733
p2948
aVHARMONY-3732
p2949
aVHARMONY-3731
p2950
aVHARMONY-3730
p2951
aVHARMONY-3729
p2952
aVHARMONY-3728
p2953
aVHARMONY-3727
p2954
aVHARMONY-3726
p2955
aVHARMONY-3725
p2956
aVHARMONY-3724
p2957
aVHARMONY-3723
p2958
aVHARMONY-3722
p2959
aVHARMONY-3721
p2960
aVHARMONY-3720
p2961
aVHARMONY-3719
p2962
aVHARMONY-3718
p2963
aVHARMONY-3717
p2964
aVHARMONY-3716
p2965
aVHARMONY-3715
p2966
aVHARMONY-3714
p2967
aVHARMONY-3713
p2968
aVHARMONY-3712
p2969
aVHARMONY-3711
p2970
aVHARMONY-3710
p2971
aVHARMONY-3709
p2972
aVHARMONY-3708
p2973
aVHARMONY-3707
p2974
aVHARMONY-3706
p2975
aVHARMONY-3705
p2976
aVHARMONY-3704
p2977
aVHARMONY-3703
p2978
aVHARMONY-3702
p2979
aVHARMONY-3701
p2980
aVHARMONY-3700
p2981
aVHARMONY-3699
p2982
aVHARMONY-3698
p2983
aVHARMONY-3697
p2984
aVHARMONY-3696
p2985
aVHARMONY-3695
p2986
aVHARMONY-3694
p2987
aVHARMONY-3693
p2988
aVHARMONY-3692
p2989
aVHARMONY-3691
p2990
aVHARMONY-3690
p2991
aVHARMONY-3689
p2992
aVHARMONY-3688
p2993
aVHARMONY-3687
p2994
aVHARMONY-3686
p2995
aVHARMONY-3685
p2996
aVHARMONY-3684
p2997
aVHARMONY-3683
p2998
aVHARMONY-3682
p2999
aVHARMONY-3681
p3000
aVHARMONY-3680
p3001
aVHARMONY-3679
p3002
aVHARMONY-3678
p3003
aVHARMONY-3677
p3004
aVHARMONY-3676
p3005
aVHARMONY-3675
p3006
aVHARMONY-3674
p3007
aVHARMONY-3673
p3008
aVHARMONY-3672
p3009
aVHARMONY-3671
p3010
aVHARMONY-3670
p3011
aVHARMONY-3669
p3012
aVHARMONY-3668
p3013
aVHARMONY-3667
p3014
aVHARMONY-3666
p3015
aVHARMONY-3665
p3016
aVHARMONY-3664
p3017
aVHARMONY-3663
p3018
aVHARMONY-3662
p3019
aVHARMONY-3661
p3020
aVHARMONY-3660
p3021
aVHARMONY-3659
p3022
aVHARMONY-3658
p3023
aVHARMONY-3657
p3024
aVHARMONY-3656
p3025
aVHARMONY-3655
p3026
aVHARMONY-3654
p3027
aVHARMONY-3653
p3028
aVHARMONY-3652
p3029
aVHARMONY-3651
p3030
aVHARMONY-3650
p3031
aVHARMONY-3649
p3032
aVHARMONY-3648
p3033
aVHARMONY-3647
p3034
aVHARMONY-3646
p3035
aVHARMONY-3645
p3036
aVHARMONY-3644
p3037
aVHARMONY-3643
p3038
aVHARMONY-3642
p3039
aVHARMONY-3641
p3040
aVHARMONY-3640
p3041
aVHARMONY-3639
p3042
aVHARMONY-3638
p3043
aVHARMONY-3637
p3044
aVHARMONY-3636
p3045
aVHARMONY-3635
p3046
aVHARMONY-3634
p3047
aVHARMONY-3633
p3048
aVHARMONY-3632
p3049
aVHARMONY-3631
p3050
aVHARMONY-3630
p3051
aVHARMONY-3629
p3052
aVHARMONY-3628
p3053
aVHARMONY-3627
p3054
aVHARMONY-3626
p3055
aVHARMONY-3625
p3056
aVHARMONY-3624
p3057
aVHARMONY-3623
p3058
aVHARMONY-3622
p3059
aVHARMONY-3621
p3060
aVHARMONY-3620
p3061
aVHARMONY-3619
p3062
aVHARMONY-3618
p3063
aVHARMONY-3617
p3064
aVHARMONY-3616
p3065
aVHARMONY-3615
p3066
aVHARMONY-3614
p3067
aVHARMONY-3613
p3068
aVHARMONY-3612
p3069
aVHARMONY-3611
p3070
aVHARMONY-3610
p3071
aVHARMONY-3609
p3072
aVHARMONY-3608
p3073
aVHARMONY-3607
p3074
aVHARMONY-3606
p3075
aVHARMONY-3605
p3076
aVHARMONY-3604
p3077
aVHARMONY-3603
p3078
aVHARMONY-3602
p3079
aVHARMONY-3601
p3080
aVHARMONY-3600
p3081
aVHARMONY-3599
p3082
aVHARMONY-3598
p3083
aVHARMONY-3597
p3084
aVHARMONY-3596
p3085
aVHARMONY-3595
p3086
aVHARMONY-3594
p3087
aVHARMONY-3593
p3088
aVHARMONY-3592
p3089
aVHARMONY-3591
p3090
aVHARMONY-3590
p3091
aVHARMONY-3589
p3092
aVHARMONY-3588
p3093
aVHARMONY-3587
p3094
aVHARMONY-3586
p3095
aVHARMONY-3585
p3096
aVHARMONY-3584
p3097
aVHARMONY-3583
p3098
aVHARMONY-3582
p3099
aVHARMONY-3581
p3100
aVHARMONY-3580
p3101
aVHARMONY-3579
p3102
aVHARMONY-3578
p3103
aVHARMONY-3577
p3104
aVHARMONY-3576
p3105
aVHARMONY-3575
p3106
aVHARMONY-3574
p3107
aVHARMONY-3573
p3108
aVHARMONY-3572
p3109
aVHARMONY-3571
p3110
aVHARMONY-3570
p3111
aVHARMONY-3569
p3112
aVHARMONY-3568
p3113
aVHARMONY-3567
p3114
aVHARMONY-3566
p3115
aVHARMONY-3565
p3116
aVHARMONY-3564
p3117
aVHARMONY-3563
p3118
aVHARMONY-3562
p3119
aVHARMONY-3561
p3120
aVHARMONY-3560
p3121
aVHARMONY-3559
p3122
aVHARMONY-3558
p3123
aVHARMONY-3557
p3124
aVHARMONY-3556
p3125
aVHARMONY-3555
p3126
aVHARMONY-3554
p3127
aVHARMONY-3553
p3128
aVHARMONY-3552
p3129
aVHARMONY-3551
p3130
aVHARMONY-3550
p3131
aVHARMONY-3549
p3132
aVHARMONY-3548
p3133
aVHARMONY-3547
p3134
aVHARMONY-3546
p3135
aVHARMONY-3545
p3136
aVHARMONY-3544
p3137
aVHARMONY-3543
p3138
aVHARMONY-3542
p3139
aVHARMONY-3541
p3140
aVHARMONY-3540
p3141
aVHARMONY-3539
p3142
aVHARMONY-3538
p3143
aVHARMONY-3537
p3144
aVHARMONY-3536
p3145
aVHARMONY-3535
p3146
aVHARMONY-3534
p3147
aVHARMONY-3533
p3148
aVHARMONY-3532
p3149
aVHARMONY-3531
p3150
aVHARMONY-3530
p3151
aVHARMONY-3529
p3152
aVHARMONY-3528
p3153
aVHARMONY-3527
p3154
aVHARMONY-3526
p3155
aVHARMONY-3525
p3156
aVHARMONY-3524
p3157
aVHARMONY-3523
p3158
aVHARMONY-3522
p3159
aVHARMONY-3521
p3160
aVHARMONY-3520
p3161
aVHARMONY-3519
p3162
aVHARMONY-3518
p3163
aVHARMONY-3517
p3164
aVHARMONY-3516
p3165
aVHARMONY-3515
p3166
aVHARMONY-3514
p3167
aVHARMONY-3513
p3168
aVHARMONY-3512
p3169
aVHARMONY-3511
p3170
aVHARMONY-3510
p3171
aVHARMONY-3509
p3172
aVHARMONY-3508
p3173
aVHARMONY-3507
p3174
aVHARMONY-3506
p3175
aVHARMONY-3505
p3176
aVHARMONY-3504
p3177
aVHARMONY-3503
p3178
aVHARMONY-3502
p3179
aVHARMONY-3501
p3180
aVHARMONY-3500
p3181
aVHARMONY-3499
p3182
aVHARMONY-3498
p3183
aVHARMONY-3497
p3184
aVHARMONY-3496
p3185
aVHARMONY-3495
p3186
aVHARMONY-3494
p3187
aVHARMONY-3493
p3188
aVHARMONY-3492
p3189
aVHARMONY-3491
p3190
aVHARMONY-3490
p3191
aVHARMONY-3489
p3192
aVHARMONY-3488
p3193
aVHARMONY-3487
p3194
aVHARMONY-3486
p3195
aVHARMONY-3485
p3196
aVHARMONY-3484
p3197
aVHARMONY-3483
p3198
aVHARMONY-3482
p3199
aVHARMONY-3481
p3200
aVHARMONY-3480
p3201
aVHARMONY-3479
p3202
aVHARMONY-3478
p3203
aVHARMONY-3477
p3204
aVHARMONY-3476
p3205
aVHARMONY-3475
p3206
aVHARMONY-3474
p3207
aVHARMONY-3473
p3208
aVHARMONY-3472
p3209
aVHARMONY-3471
p3210
aVHARMONY-3470
p3211
aVHARMONY-3469
p3212
aVHARMONY-3468
p3213
aVHARMONY-3467
p3214
aVHARMONY-3466
p3215
aVHARMONY-3465
p3216
aVHARMONY-3464
p3217
aVHARMONY-3463
p3218
aVHARMONY-3462
p3219
aVHARMONY-3461
p3220
aVHARMONY-3460
p3221
aVHARMONY-3459
p3222
aVHARMONY-3458
p3223
aVHARMONY-3457
p3224
aVHARMONY-3456
p3225
aVHARMONY-3455
p3226
aVHARMONY-3454
p3227
aVHARMONY-3453
p3228
aVHARMONY-3452
p3229
aVHARMONY-3451
p3230
aVHARMONY-3450
p3231
aVHARMONY-3449
p3232
aVHARMONY-3448
p3233
aVHARMONY-3447
p3234
aVHARMONY-3446
p3235
aVHARMONY-3445
p3236
aVHARMONY-3444
p3237
aVHARMONY-3443
p3238
aVHARMONY-3442
p3239
aVHARMONY-3441
p3240
aVHARMONY-3440
p3241
aVHARMONY-3439
p3242
aVHARMONY-3438
p3243
aVHARMONY-3437
p3244
aVHARMONY-3436
p3245
aVHARMONY-3435
p3246
aVHARMONY-3434
p3247
aVHARMONY-3433
p3248
aVHARMONY-3432
p3249
aVHARMONY-3431
p3250
aVHARMONY-3430
p3251
aVHARMONY-3429
p3252
aVHARMONY-3428
p3253
aVHARMONY-3427
p3254
aVHARMONY-3426
p3255
aVHARMONY-3425
p3256
aVHARMONY-3424
p3257
aVHARMONY-3423
p3258
aVHARMONY-3422
p3259
aVHARMONY-3421
p3260
aVHARMONY-3420
p3261
aVHARMONY-3419
p3262
aVHARMONY-3418
p3263
aVHARMONY-3417
p3264
aVHARMONY-3416
p3265
aVHARMONY-3415
p3266
aVHARMONY-3414
p3267
aVHARMONY-3413
p3268
aVHARMONY-3412
p3269
aVHARMONY-3411
p3270
aVHARMONY-3410
p3271
aVHARMONY-3409
p3272
aVHARMONY-3408
p3273
aVHARMONY-3407
p3274
aVHARMONY-3406
p3275
aVHARMONY-3405
p3276
aVHARMONY-3404
p3277
aVHARMONY-3403
p3278
aVHARMONY-3402
p3279
aVHARMONY-3401
p3280
aVHARMONY-3400
p3281
aVHARMONY-3399
p3282
aVHARMONY-3398
p3283
aVHARMONY-3397
p3284
aVHARMONY-3396
p3285
aVHARMONY-3395
p3286
aVHARMONY-3394
p3287
aVHARMONY-3393
p3288
aVHARMONY-3392
p3289
aVHARMONY-3391
p3290
aVHARMONY-3390
p3291
aVHARMONY-3389
p3292
aVHARMONY-3388
p3293
aVHARMONY-3387
p3294
aVHARMONY-3386
p3295
aVHARMONY-3385
p3296
aVHARMONY-3384
p3297
aVHARMONY-3383
p3298
aVHARMONY-3382
p3299
aVHARMONY-3381
p3300
aVHARMONY-3380
p3301
aVHARMONY-3379
p3302
aVHARMONY-3378
p3303
aVHARMONY-3377
p3304
aVHARMONY-3376
p3305
aVHARMONY-3375
p3306
aVHARMONY-3374
p3307
aVHARMONY-3373
p3308
aVHARMONY-3372
p3309
aVHARMONY-3371
p3310
aVHARMONY-3370
p3311
aVHARMONY-3369
p3312
aVHARMONY-3368
p3313
aVHARMONY-3367
p3314
aVHARMONY-3366
p3315
aVHARMONY-3365
p3316
aVHARMONY-3364
p3317
aVHARMONY-3363
p3318
aVHARMONY-3362
p3319
aVHARMONY-3361
p3320
aVHARMONY-3360
p3321
aVHARMONY-3359
p3322
aVHARMONY-3358
p3323
aVHARMONY-3357
p3324
aVHARMONY-3356
p3325
aVHARMONY-3355
p3326
aVHARMONY-3354
p3327
aVHARMONY-3353
p3328
aVHARMONY-3352
p3329
aVHARMONY-3351
p3330
aVHARMONY-3350
p3331
aVHARMONY-3349
p3332
aVHARMONY-3348
p3333
aVHARMONY-3347
p3334
aVHARMONY-3346
p3335
aVHARMONY-3345
p3336
aVHARMONY-3344
p3337
aVHARMONY-3343
p3338
aVHARMONY-3342
p3339
aVHARMONY-3341
p3340
aVHARMONY-3340
p3341
aVHARMONY-3339
p3342
aVHARMONY-3338
p3343
aVHARMONY-3337
p3344
aVHARMONY-3336
p3345
aVHARMONY-3335
p3346
aVHARMONY-3334
p3347
aVHARMONY-3333
p3348
aVHARMONY-3332
p3349
aVHARMONY-3331
p3350
aVHARMONY-3330
p3351
aVHARMONY-3329
p3352
aVHARMONY-3328
p3353
aVHARMONY-3327
p3354
aVHARMONY-3326
p3355
aVHARMONY-3325
p3356
aVHARMONY-3324
p3357
aVHARMONY-3323
p3358
aVHARMONY-3322
p3359
aVHARMONY-3321
p3360
aVHARMONY-3320
p3361
aVHARMONY-3319
p3362
aVHARMONY-3318
p3363
aVHARMONY-3317
p3364
aVHARMONY-3316
p3365
aVHARMONY-3315
p3366
aVHARMONY-3314
p3367
aVHARMONY-3313
p3368
aVHARMONY-3312
p3369
aVHARMONY-3311
p3370
aVHARMONY-3310
p3371
aVHARMONY-3309
p3372
aVHARMONY-3308
p3373
aVHARMONY-3307
p3374
aVHARMONY-3306
p3375
aVHARMONY-3305
p3376
aVHARMONY-3304
p3377
aVHARMONY-3303
p3378
aVHARMONY-3302
p3379
aVHARMONY-3301
p3380
aVHARMONY-3300
p3381
aVHARMONY-3299
p3382
aVHARMONY-3298
p3383
aVHARMONY-3297
p3384
aVHARMONY-3296
p3385
aVHARMONY-3295
p3386
aVHARMONY-3294
p3387
aVHARMONY-3293
p3388
aVHARMONY-3292
p3389
aVHARMONY-3291
p3390
aVHARMONY-3290
p3391
aVHARMONY-3289
p3392
aVHARMONY-3288
p3393
aVHARMONY-3287
p3394
aVHARMONY-3286
p3395
aVHARMONY-3285
p3396
aVHARMONY-3284
p3397
aVHARMONY-3283
p3398
aVHARMONY-3282
p3399
aVHARMONY-3281
p3400
aVHARMONY-3280
p3401
aVHARMONY-3279
p3402
aVHARMONY-3278
p3403
aVHARMONY-3277
p3404
aVHARMONY-3276
p3405
aVHARMONY-3275
p3406
aVHARMONY-3274
p3407
aVHARMONY-3273
p3408
aVHARMONY-3272
p3409
aVHARMONY-3271
p3410
aVHARMONY-3270
p3411
aVHARMONY-3269
p3412
aVHARMONY-3268
p3413
aVHARMONY-3267
p3414
aVHARMONY-3266
p3415
aVHARMONY-3265
p3416
aVHARMONY-3264
p3417
aVHARMONY-3263
p3418
aVHARMONY-3262
p3419
aVHARMONY-3261
p3420
aVHARMONY-3260
p3421
aVHARMONY-3259
p3422
aVHARMONY-3258
p3423
aVHARMONY-3257
p3424
aVHARMONY-3256
p3425
aVHARMONY-3255
p3426
aVHARMONY-3254
p3427
aVHARMONY-3253
p3428
aVHARMONY-3252
p3429
aVHARMONY-3251
p3430
aVHARMONY-3250
p3431
aVHARMONY-3249
p3432
aVHARMONY-3248
p3433
aVHARMONY-3247
p3434
aVHARMONY-3246
p3435
aVHARMONY-3245
p3436
aVHARMONY-3244
p3437
aVHARMONY-3243
p3438
aVHARMONY-3242
p3439
aVHARMONY-3241
p3440
aVHARMONY-3240
p3441
aVHARMONY-3239
p3442
aVHARMONY-3238
p3443
aVHARMONY-3237
p3444
aVHARMONY-3236
p3445
aVHARMONY-3235
p3446
aVHARMONY-3234
p3447
aVHARMONY-3233
p3448
aVHARMONY-3232
p3449
aVHARMONY-3231
p3450
aVHARMONY-3230
p3451
aVHARMONY-3229
p3452
aVHARMONY-3228
p3453
aVHARMONY-3227
p3454
aVHARMONY-3226
p3455
aVHARMONY-3225
p3456
aVHARMONY-3224
p3457
aVHARMONY-3223
p3458
aVHARMONY-3222
p3459
aVHARMONY-3221
p3460
aVHARMONY-3220
p3461
aVHARMONY-3219
p3462
aVHARMONY-3218
p3463
aVHARMONY-3217
p3464
aVHARMONY-3216
p3465
aVHARMONY-3215
p3466
aVHARMONY-3214
p3467
aVHARMONY-3213
p3468
aVHARMONY-3212
p3469
aVHARMONY-3211
p3470
aVHARMONY-3210
p3471
aVHARMONY-3209
p3472
aVHARMONY-3208
p3473
aVHARMONY-3207
p3474
aVHARMONY-3206
p3475
aVHARMONY-3205
p3476
aVHARMONY-3204
p3477
aVHARMONY-3203
p3478
aVHARMONY-3202
p3479
aVHARMONY-3201
p3480
aVHARMONY-3200
p3481
aVHARMONY-3199
p3482
aVHARMONY-3198
p3483
aVHARMONY-3197
p3484
aVHARMONY-3196
p3485
aVHARMONY-3195
p3486
aVHARMONY-3194
p3487
aVHARMONY-3193
p3488
aVHARMONY-3192
p3489
aVHARMONY-3191
p3490
aVHARMONY-3190
p3491
aVHARMONY-3189
p3492
aVHARMONY-3188
p3493
aVHARMONY-3187
p3494
aVHARMONY-3186
p3495
aVHARMONY-3185
p3496
aVHARMONY-3184
p3497
aVHARMONY-3183
p3498
aVHARMONY-3182
p3499
aVHARMONY-3181
p3500
aVHARMONY-3180
p3501
aVHARMONY-3179
p3502
aVHARMONY-3178
p3503
aVHARMONY-3177
p3504
aVHARMONY-3176
p3505
aVHARMONY-3175
p3506
aVHARMONY-3174
p3507
aVHARMONY-3173
p3508
aVHARMONY-3172
p3509
aVHARMONY-3171
p3510
aVHARMONY-3170
p3511
aVHARMONY-3169
p3512
aVHARMONY-3168
p3513
aVHARMONY-3167
p3514
aVHARMONY-3166
p3515
aVHARMONY-3165
p3516
aVHARMONY-3164
p3517
aVHARMONY-3163
p3518
aVHARMONY-3162
p3519
aVHARMONY-3161
p3520
aVHARMONY-3160
p3521
aVHARMONY-3159
p3522
aVHARMONY-3158
p3523
aVHARMONY-3157
p3524
aVHARMONY-3156
p3525
aVHARMONY-3155
p3526
aVHARMONY-3154
p3527
aVHARMONY-3153
p3528
aVHARMONY-3152
p3529
aVHARMONY-3151
p3530
aVHARMONY-3150
p3531
aVHARMONY-3149
p3532
aVHARMONY-3148
p3533
aVHARMONY-3147
p3534
aVHARMONY-3146
p3535
aVHARMONY-3145
p3536
aVHARMONY-3144
p3537
aVHARMONY-3143
p3538
aVHARMONY-3142
p3539
aVHARMONY-3141
p3540
aVHARMONY-3140
p3541
aVHARMONY-3139
p3542
aVHARMONY-3138
p3543
aVHARMONY-3137
p3544
aVHARMONY-3136
p3545
aVHARMONY-3135
p3546
aVHARMONY-3134
p3547
aVHARMONY-3133
p3548
aVHARMONY-3132
p3549
aVHARMONY-3131
p3550
aVHARMONY-3130
p3551
aVHARMONY-3129
p3552
aVHARMONY-3128
p3553
aVHARMONY-3127
p3554
aVHARMONY-3126
p3555
aVHARMONY-3125
p3556
aVHARMONY-3124
p3557
aVHARMONY-3123
p3558
aVHARMONY-3122
p3559
aVHARMONY-3121
p3560
aVHARMONY-3120
p3561
aVHARMONY-3119
p3562
aVHARMONY-3118
p3563
aVHARMONY-3117
p3564
aVHARMONY-3116
p3565
aVHARMONY-3115
p3566
aVHARMONY-3114
p3567
aVHARMONY-3113
p3568
aVHARMONY-3112
p3569
aVHARMONY-3111
p3570
aVHARMONY-3110
p3571
aVHARMONY-3109
p3572
aVHARMONY-3108
p3573
aVHARMONY-3107
p3574
aVHARMONY-3106
p3575
aVHARMONY-3105
p3576
aVHARMONY-3104
p3577
aVHARMONY-3103
p3578
aVHARMONY-3102
p3579
aVHARMONY-3101
p3580
aVHARMONY-3100
p3581
aVHARMONY-3099
p3582
aVHARMONY-3098
p3583
aVHARMONY-3097
p3584
aVHARMONY-3096
p3585
aVHARMONY-3095
p3586
aVHARMONY-3094
p3587
aVHARMONY-3093
p3588
aVHARMONY-3092
p3589
aVHARMONY-3091
p3590
aVHARMONY-3090
p3591
aVHARMONY-3089
p3592
aVHARMONY-3088
p3593
aVHARMONY-3087
p3594
aVHARMONY-3086
p3595
aVHARMONY-3085
p3596
aVHARMONY-3084
p3597
aVHARMONY-3083
p3598
aVHARMONY-3082
p3599
aVHARMONY-3081
p3600
aVHARMONY-3080
p3601
aVHARMONY-3079
p3602
aVHARMONY-3078
p3603
aVHARMONY-3077
p3604
aVHARMONY-3076
p3605
aVHARMONY-3075
p3606
aVHARMONY-3074
p3607
aVHARMONY-3073
p3608
aVHARMONY-3072
p3609
aVHARMONY-3071
p3610
aVHARMONY-3070
p3611
aVHARMONY-3069
p3612
aVHARMONY-3068
p3613
aVHARMONY-3067
p3614
aVHARMONY-3066
p3615
aVHARMONY-3065
p3616
aVHARMONY-3064
p3617
aVHARMONY-3063
p3618
aVHARMONY-3062
p3619
aVHARMONY-3061
p3620
aVHARMONY-3060
p3621
aVHARMONY-3059
p3622
aVHARMONY-3058
p3623
aVHARMONY-3057
p3624
aVHARMONY-3056
p3625
aVHARMONY-3055
p3626
aVHARMONY-3054
p3627
aVHARMONY-3053
p3628
aVHARMONY-3052
p3629
aVHARMONY-3051
p3630
aVHARMONY-3050
p3631
aVHARMONY-3049
p3632
aVHARMONY-3048
p3633
aVHARMONY-3047
p3634
aVHARMONY-3046
p3635
aVHARMONY-3045
p3636
aVHARMONY-3044
p3637
aVHARMONY-3043
p3638
aVHARMONY-3042
p3639
aVHARMONY-3041
p3640
aVHARMONY-3040
p3641
aVHARMONY-3039
p3642
aVHARMONY-3038
p3643
aVHARMONY-3037
p3644
aVHARMONY-3036
p3645
aVHARMONY-3035
p3646
aVHARMONY-3034
p3647
aVHARMONY-3033
p3648
aVHARMONY-3032
p3649
aVHARMONY-3027
p3650
aVHARMONY-3026
p3651
aVHARMONY-3025
p3652
aVHARMONY-3024
p3653
aVHARMONY-3023
p3654
aVHARMONY-3022
p3655
aVHARMONY-3021
p3656
aVHARMONY-3020
p3657
aVHARMONY-3019
p3658
aVHARMONY-3018
p3659
aVHARMONY-3017
p3660
aVHARMONY-3016
p3661
aVHARMONY-3015
p3662
aVHARMONY-3014
p3663
aVHARMONY-3013
p3664
aVHARMONY-3012
p3665
aVHARMONY-3011
p3666
aVHARMONY-3010
p3667
aVHARMONY-3009
p3668
aVHARMONY-3008
p3669
aVHARMONY-3007
p3670
aVHARMONY-3006
p3671
aVHARMONY-3005
p3672
aVHARMONY-3004
p3673
aVHARMONY-3003
p3674
aVHARMONY-3002
p3675
aVHARMONY-3001
p3676
aVHARMONY-3000
p3677
aVHARMONY-2999
p3678
aVHARMONY-2998
p3679
aVHARMONY-2997
p3680
aVHARMONY-2996
p3681
aVHARMONY-2995
p3682
aVHARMONY-2994
p3683
aVHARMONY-2993
p3684
aVHARMONY-2992
p3685
aVHARMONY-2991
p3686
aVHARMONY-2990
p3687
aVHARMONY-2989
p3688
aVHARMONY-2988
p3689
aVHARMONY-2987
p3690
aVHARMONY-2986
p3691
aVHARMONY-2985
p3692
aVHARMONY-2984
p3693
aVHARMONY-2983
p3694
aVHARMONY-2982
p3695
aVHARMONY-2981
p3696
aVHARMONY-2980
p3697
aVHARMONY-2979
p3698
aVHARMONY-2978
p3699
aVHARMONY-2977
p3700
aVHARMONY-2976
p3701
aVHARMONY-2975
p3702
aVHARMONY-2974
p3703
aVHARMONY-2973
p3704
aVHARMONY-2972
p3705
aVHARMONY-2971
p3706
aVHARMONY-2970
p3707
aVHARMONY-2969
p3708
aVHARMONY-2968
p3709
aVHARMONY-2967
p3710
aVHARMONY-2966
p3711
aVHARMONY-2965
p3712
aVHARMONY-2964
p3713
aVHARMONY-2963
p3714
aVHARMONY-2962
p3715
aVHARMONY-2961
p3716
aVHARMONY-2960
p3717
aVHARMONY-2959
p3718
aVHARMONY-2958
p3719
aVHARMONY-2957
p3720
aVHARMONY-2956
p3721
aVHARMONY-2955
p3722
aVHARMONY-2954
p3723
aVHARMONY-2953
p3724
aVHARMONY-2952
p3725
aVHARMONY-2951
p3726
aVHARMONY-2950
p3727
aVHARMONY-2949
p3728
aVHARMONY-2948
p3729
aVHARMONY-2947
p3730
aVHARMONY-2946
p3731
aVHARMONY-2945
p3732
aVHARMONY-2944
p3733
aVHARMONY-2943
p3734
aVHARMONY-2942
p3735
aVHARMONY-2941
p3736
aVHARMONY-2940
p3737
aVHARMONY-2939
p3738
aVHARMONY-2938
p3739
aVHARMONY-2937
p3740
aVHARMONY-2936
p3741
aVHARMONY-2935
p3742
aVHARMONY-2934
p3743
aVHARMONY-2933
p3744
aVHARMONY-2932
p3745
aVHARMONY-2931
p3746
aVHARMONY-2930
p3747
aVHARMONY-2929
p3748
aVHARMONY-2928
p3749
aVHARMONY-2927
p3750
aVHARMONY-2926
p3751
aVHARMONY-2925
p3752
aVHARMONY-2924
p3753
aVHARMONY-2923
p3754
aVHARMONY-2922
p3755
aVHARMONY-2921
p3756
aVHARMONY-2920
p3757
aVHARMONY-2919
p3758
aVHARMONY-2918
p3759
aVHARMONY-2917
p3760
aVHARMONY-2916
p3761
aVHARMONY-2915
p3762
aVHARMONY-2914
p3763
aVHARMONY-2913
p3764
aVHARMONY-2912
p3765
aVHARMONY-2911
p3766
aVHARMONY-2910
p3767
aVHARMONY-2909
p3768
aVHARMONY-2908
p3769
aVHARMONY-2907
p3770
aVHARMONY-2906
p3771
aVHARMONY-2905
p3772
aVHARMONY-2904
p3773
aVHARMONY-2903
p3774
aVHARMONY-2902
p3775
aVHARMONY-2901
p3776
aVHARMONY-2900
p3777
aVHARMONY-2899
p3778
aVHARMONY-2898
p3779
aVHARMONY-2897
p3780
aVHARMONY-2896
p3781
aVHARMONY-2895
p3782
aVHARMONY-2894
p3783
aVHARMONY-2893
p3784
aVHARMONY-2892
p3785
aVHARMONY-2891
p3786
aVHARMONY-2890
p3787
aVHARMONY-2889
p3788
aVHARMONY-2888
p3789
aVHARMONY-2887
p3790
aVHARMONY-2886
p3791
aVHARMONY-2885
p3792
aVHARMONY-2884
p3793
aVHARMONY-2883
p3794
aVHARMONY-2882
p3795
aVHARMONY-2881
p3796
aVHARMONY-2880
p3797
aVHARMONY-2879
p3798
aVHARMONY-2878
p3799
aVHARMONY-2877
p3800
aVHARMONY-2876
p3801
aVHARMONY-2875
p3802
aVHARMONY-2874
p3803
aVHARMONY-2873
p3804
aVHARMONY-2872
p3805
aVHARMONY-2871
p3806
aVHARMONY-2870
p3807
aVHARMONY-2869
p3808
aVHARMONY-2868
p3809
aVHARMONY-2867
p3810
aVHARMONY-2866
p3811
aVHARMONY-2865
p3812
aVHARMONY-2864
p3813
aVHARMONY-2863
p3814
aVHARMONY-2862
p3815
aVHARMONY-2861
p3816
aVHARMONY-2860
p3817
aVHARMONY-2859
p3818
aVHARMONY-2858
p3819
aVHARMONY-2857
p3820
aVHARMONY-2856
p3821
aVHARMONY-2855
p3822
aVHARMONY-2854
p3823
aVHARMONY-2853
p3824
aVHARMONY-2852
p3825
aVHARMONY-2851
p3826
aVHARMONY-2850
p3827
aVHARMONY-2849
p3828
aVHARMONY-2848
p3829
aVHARMONY-2847
p3830
aVHARMONY-2846
p3831
aVHARMONY-2845
p3832
aVHARMONY-2844
p3833
aVHARMONY-2843
p3834
aVHARMONY-2842
p3835
aVHARMONY-2841
p3836
aVHARMONY-2840
p3837
aVHARMONY-2839
p3838
aVHARMONY-2838
p3839
aVHARMONY-2837
p3840
aVHARMONY-2836
p3841
aVHARMONY-2835
p3842
aVHARMONY-2834
p3843
aVHARMONY-2833
p3844
aVHARMONY-2832
p3845
aVHARMONY-2831
p3846
aVHARMONY-2830
p3847
aVHARMONY-2829
p3848
aVHARMONY-2828
p3849
aVHARMONY-2827
p3850
aVHARMONY-2826
p3851
aVHARMONY-2825
p3852
aVHARMONY-2824
p3853
aVHARMONY-2823
p3854
aVHARMONY-2822
p3855
aVHARMONY-2821
p3856
aVHARMONY-2820
p3857
aVHARMONY-2819
p3858
aVHARMONY-2818
p3859
aVHARMONY-2817
p3860
aVHARMONY-2816
p3861
aVHARMONY-2815
p3862
aVHARMONY-2814
p3863
aVHARMONY-2813
p3864
aVHARMONY-2812
p3865
aVHARMONY-2811
p3866
aVHARMONY-2810
p3867
aVHARMONY-2809
p3868
aVHARMONY-2808
p3869
aVHARMONY-2807
p3870
aVHARMONY-2806
p3871
aVHARMONY-2805
p3872
aVHARMONY-2804
p3873
aVHARMONY-2803
p3874
aVHARMONY-2802
p3875
aVHARMONY-2801
p3876
aVHARMONY-2800
p3877
aVHARMONY-2799
p3878
aVHARMONY-2798
p3879
aVHARMONY-2797
p3880
aVHARMONY-2796
p3881
aVHARMONY-2795
p3882
aVHARMONY-2794
p3883
aVHARMONY-2793
p3884
aVHARMONY-2792
p3885
aVHARMONY-2791
p3886
aVHARMONY-2790
p3887
aVHARMONY-2789
p3888
aVHARMONY-2788
p3889
aVHARMONY-2787
p3890
aVHARMONY-2786
p3891
aVHARMONY-2785
p3892
aVHARMONY-2784
p3893
aVHARMONY-2783
p3894
aVHARMONY-2782
p3895
aVHARMONY-2781
p3896
aVHARMONY-2780
p3897
aVHARMONY-2779
p3898
aVHARMONY-2778
p3899
aVHARMONY-2777
p3900
aVHARMONY-2776
p3901
aVHARMONY-2775
p3902
aVHARMONY-2774
p3903
aVHARMONY-2773
p3904
aVHARMONY-2772
p3905
aVHARMONY-2771
p3906
aVHARMONY-2770
p3907
aVHARMONY-2769
p3908
aVHARMONY-2768
p3909
aVHARMONY-2767
p3910
aVHARMONY-2766
p3911
aVHARMONY-2765
p3912
aVHARMONY-2764
p3913
aVHARMONY-2763
p3914
aVHARMONY-2762
p3915
aVHARMONY-2761
p3916
aVHARMONY-2760
p3917
aVHARMONY-2759
p3918
aVHARMONY-2758
p3919
aVHARMONY-2757
p3920
aVHARMONY-2756
p3921
aVHARMONY-2755
p3922
aVHARMONY-2754
p3923
aVHARMONY-2753
p3924
aVHARMONY-2752
p3925
aVHARMONY-2751
p3926
aVHARMONY-2750
p3927
aVHARMONY-2749
p3928
aVHARMONY-2748
p3929
aVHARMONY-2747
p3930
aVHARMONY-2746
p3931
aVHARMONY-2745
p3932
aVHARMONY-2744
p3933
aVHARMONY-2743
p3934
aVHARMONY-2742
p3935
aVHARMONY-2741
p3936
aVHARMONY-2740
p3937
aVHARMONY-2739
p3938
aVHARMONY-2738
p3939
aVHARMONY-2737
p3940
aVHARMONY-2736
p3941
aVHARMONY-2735
p3942
aVHARMONY-2734
p3943
aVHARMONY-2733
p3944
aVHARMONY-2732
p3945
aVHARMONY-2731
p3946
aVHARMONY-2730
p3947
aVHARMONY-2729
p3948
aVHARMONY-2728
p3949
aVHARMONY-2727
p3950
aVHARMONY-2726
p3951
aVHARMONY-2725
p3952
aVHARMONY-2724
p3953
aVHARMONY-2723
p3954
aVHARMONY-2722
p3955
aVHARMONY-2721
p3956
aVHARMONY-2720
p3957
aVHARMONY-2719
p3958
aVHARMONY-2718
p3959
aVHARMONY-2717
p3960
aVHARMONY-2716
p3961
aVHARMONY-2715
p3962
aVHARMONY-2714
p3963
aVHARMONY-2713
p3964
aVHARMONY-2712
p3965
aVHARMONY-2711
p3966
aVHARMONY-2710
p3967
aVHARMONY-2709
p3968
aVHARMONY-2708
p3969
aVHARMONY-2707
p3970
aVHARMONY-2706
p3971
aVHARMONY-2705
p3972
aVHARMONY-2704
p3973
aVHARMONY-2703
p3974
aVHARMONY-2702
p3975
aVHARMONY-2701
p3976
aVHARMONY-2700
p3977
aVHARMONY-2699
p3978
aVHARMONY-2698
p3979
aVHARMONY-2697
p3980
aVHARMONY-2696
p3981
aVHARMONY-2695
p3982
aVHARMONY-2694
p3983
aVHARMONY-2693
p3984
aVHARMONY-2692
p3985
aVHARMONY-2691
p3986
aVHARMONY-2690
p3987
aVHARMONY-2689
p3988
aVHARMONY-2688
p3989
aVHARMONY-2687
p3990
aVHARMONY-2686
p3991
aVHARMONY-2685
p3992
aVHARMONY-2684
p3993
aVHARMONY-2683
p3994
aVHARMONY-2682
p3995
aVHARMONY-2681
p3996
aVHARMONY-2680
p3997
aVHARMONY-2679
p3998
aVHARMONY-2678
p3999
aVHARMONY-2677
p4000
aVHARMONY-2676
p4001
aVHARMONY-2675
p4002
aVHARMONY-2674
p4003
aVHARMONY-2673
p4004
aVHARMONY-2672
p4005
aVHARMONY-2671
p4006
aVHARMONY-2670
p4007
aVHARMONY-2669
p4008
aVHARMONY-2668
p4009
aVHARMONY-2667
p4010
aVHARMONY-2666
p4011
aVHARMONY-2665
p4012
aVHARMONY-2664
p4013
aVHARMONY-2663
p4014
aVHARMONY-2662
p4015
aVHARMONY-2661
p4016
aVHARMONY-2660
p4017
aVHARMONY-2659
p4018
aVHARMONY-2658
p4019
aVHARMONY-2657
p4020
aVHARMONY-2656
p4021
aVHARMONY-2655
p4022
aVHARMONY-2654
p4023
aVHARMONY-2653
p4024
aVHARMONY-2652
p4025
aVHARMONY-2651
p4026
aVHARMONY-2650
p4027
aVHARMONY-2649
p4028
aVHARMONY-2648
p4029
aVHARMONY-2647
p4030
aVHARMONY-2646
p4031
aVHARMONY-2645
p4032
aVHARMONY-2644
p4033
aVHARMONY-2643
p4034
aVHARMONY-2642
p4035
aVHARMONY-2641
p4036
aVHARMONY-2640
p4037
aVHARMONY-2639
p4038
aVHARMONY-2638
p4039
aVHARMONY-2637
p4040
aVHARMONY-2636
p4041
aVHARMONY-2635
p4042
aVHARMONY-2634
p4043
aVHARMONY-2633
p4044
aVHARMONY-2632
p4045
aVHARMONY-2631
p4046
aVHARMONY-2630
p4047
aVHARMONY-2629
p4048
aVHARMONY-2628
p4049
aVHARMONY-2627
p4050
aVHARMONY-2626
p4051
aVHARMONY-2625
p4052
aVHARMONY-2624
p4053
aVHARMONY-2623
p4054
aVHARMONY-2622
p4055
aVHARMONY-2621
p4056
aVHARMONY-2620
p4057
aVHARMONY-2619
p4058
aVHARMONY-2618
p4059
aVHARMONY-2617
p4060
aVHARMONY-2616
p4061
aVHARMONY-2615
p4062
aVHARMONY-2614
p4063
aVHARMONY-2613
p4064
aVHARMONY-2612
p4065
aVHARMONY-2611
p4066
aVHARMONY-2610
p4067
aVHARMONY-2609
p4068
aVHARMONY-2608
p4069
aVHARMONY-2607
p4070
aVHARMONY-2606
p4071
aVHARMONY-2605
p4072
aVHARMONY-2604
p4073
aVHARMONY-2603
p4074
aVHARMONY-2602
p4075
aVHARMONY-2601
p4076
aVHARMONY-2600
p4077
aVHARMONY-2599
p4078
aVHARMONY-2598
p4079
aVHARMONY-2597
p4080
aVHARMONY-2596
p4081
aVHARMONY-2595
p4082
aVHARMONY-2594
p4083
aVHARMONY-2593
p4084
aVHARMONY-2592
p4085
aVHARMONY-2591
p4086
aVHARMONY-2590
p4087
aVHARMONY-2589
p4088
aVHARMONY-2588
p4089
aVHARMONY-2587
p4090
aVHARMONY-2586
p4091
aVHARMONY-2585
p4092
aVHARMONY-2584
p4093
aVHARMONY-2583
p4094
aVHARMONY-2582
p4095
aVHARMONY-2581
p4096
aVHARMONY-2580
p4097
aVHARMONY-2579
p4098
aVHARMONY-2578
p4099
aVHARMONY-2577
p4100
aVHARMONY-2576
p4101
aVHARMONY-2575
p4102
aVHARMONY-2574
p4103
aVHARMONY-2573
p4104
aVHARMONY-2572
p4105
aVHARMONY-2571
p4106
aVHARMONY-2570
p4107
aVHARMONY-2569
p4108
aVHARMONY-2568
p4109
aVHARMONY-2567
p4110
aVHARMONY-2566
p4111
aVHARMONY-2565
p4112
aVHARMONY-2564
p4113
aVHARMONY-2563
p4114
aVHARMONY-2562
p4115
aVHARMONY-2561
p4116
aVHARMONY-2560
p4117
aVHARMONY-2559
p4118
aVHARMONY-2558
p4119
aVHARMONY-2557
p4120
aVHARMONY-2556
p4121
aVHARMONY-2555
p4122
aVHARMONY-2554
p4123
aVHARMONY-2553
p4124
aVHARMONY-2552
p4125
aVHARMONY-2551
p4126
aVHARMONY-2550
p4127
aVHARMONY-2549
p4128
aVHARMONY-2548
p4129
aVHARMONY-2547
p4130
aVHARMONY-2546
p4131
aVHARMONY-2545
p4132
aVHARMONY-2544
p4133
aVHARMONY-2543
p4134
aVHARMONY-2542
p4135
aVHARMONY-2541
p4136
aVHARMONY-2540
p4137
aVHARMONY-2539
p4138
aVHARMONY-2538
p4139
aVHARMONY-2537
p4140
aVHARMONY-2536
p4141
aVHARMONY-2535
p4142
aVHARMONY-2534
p4143
aVHARMONY-2533
p4144
aVHARMONY-2532
p4145
aVHARMONY-2531
p4146
aVHARMONY-2530
p4147
aVHARMONY-2529
p4148
aVHARMONY-2528
p4149
aVHARMONY-2527
p4150
aVHARMONY-2526
p4151
aVHARMONY-2525
p4152
aVHARMONY-2524
p4153
aVHARMONY-2523
p4154
aVHARMONY-2522
p4155
aVHARMONY-2521
p4156
aVHARMONY-2520
p4157
aVHARMONY-2519
p4158
aVHARMONY-2518
p4159
aVHARMONY-2517
p4160
aVHARMONY-2516
p4161
aVHARMONY-2515
p4162
aVHARMONY-2514
p4163
aVHARMONY-2513
p4164
aVHARMONY-2512
p4165
aVHARMONY-2511
p4166
aVHARMONY-2510
p4167
aVHARMONY-2509
p4168
aVHARMONY-2508
p4169
aVHARMONY-2507
p4170
aVHARMONY-2506
p4171
aVHARMONY-2505
p4172
aVHARMONY-2504
p4173
aVHARMONY-2503
p4174
aVHARMONY-2502
p4175
aVHARMONY-2501
p4176
aVHARMONY-2500
p4177
aVHARMONY-2499
p4178
aVHARMONY-2498
p4179
aVHARMONY-2497
p4180
aVHARMONY-2496
p4181
aVHARMONY-2495
p4182
aVHARMONY-2494
p4183
aVHARMONY-2493
p4184
aVHARMONY-2492
p4185
aVHARMONY-2491
p4186
aVHARMONY-2490
p4187
aVHARMONY-2489
p4188
aVHARMONY-2488
p4189
aVHARMONY-2487
p4190
aVHARMONY-2486
p4191
aVHARMONY-2485
p4192
aVHARMONY-2484
p4193
aVHARMONY-2483
p4194
aVHARMONY-2482
p4195
aVHARMONY-2481
p4196
aVHARMONY-2480
p4197
aVHARMONY-2479
p4198
aVHARMONY-2478
p4199
aVHARMONY-2477
p4200
aVHARMONY-2476
p4201
aVHARMONY-2475
p4202
aVHARMONY-2474
p4203
aVHARMONY-2473
p4204
aVHARMONY-2472
p4205
aVHARMONY-2471
p4206
aVHARMONY-2470
p4207
aVHARMONY-2469
p4208
aVHARMONY-2468
p4209
aVHARMONY-2467
p4210
aVHARMONY-2466
p4211
aVHARMONY-2465
p4212
aVHARMONY-2464
p4213
aVHARMONY-2463
p4214
aVHARMONY-2462
p4215
aVHARMONY-2461
p4216
aVHARMONY-2460
p4217
aVHARMONY-2459
p4218
aVHARMONY-2458
p4219
aVHARMONY-2457
p4220
aVHARMONY-2456
p4221
aVHARMONY-2455
p4222
aVHARMONY-2454
p4223
aVHARMONY-2453
p4224
aVHARMONY-2452
p4225
aVHARMONY-2451
p4226
aVHARMONY-2450
p4227
aVHARMONY-2449
p4228
aVHARMONY-2448
p4229
aVHARMONY-2447
p4230
aVHARMONY-2446
p4231
aVHARMONY-2445
p4232
aVHARMONY-2444
p4233
aVHARMONY-2443
p4234
aVHARMONY-2442
p4235
aVHARMONY-2441
p4236
aVHARMONY-2440
p4237
aVHARMONY-2439
p4238
aVHARMONY-2438
p4239
aVHARMONY-2437
p4240
aVHARMONY-2436
p4241
aVHARMONY-2435
p4242
aVHARMONY-2434
p4243
aVHARMONY-2433
p4244
aVHARMONY-2432
p4245
aVHARMONY-2431
p4246
aVHARMONY-2430
p4247
aVHARMONY-2429
p4248
aVHARMONY-2428
p4249
aVHARMONY-2427
p4250
aVHARMONY-2426
p4251
aVHARMONY-2425
p4252
aVHARMONY-2424
p4253
aVHARMONY-2423
p4254
aVHARMONY-2422
p4255
aVHARMONY-2421
p4256
aVHARMONY-2420
p4257
aVHARMONY-2419
p4258
aVHARMONY-2418
p4259
aVHARMONY-2417
p4260
aVHARMONY-2416
p4261
aVHARMONY-2415
p4262
aVHARMONY-2414
p4263
aVHARMONY-2413
p4264
aVHARMONY-2412
p4265
aVHARMONY-2411
p4266
aVHARMONY-2410
p4267
aVHARMONY-2409
p4268
aVHARMONY-2408
p4269
aVHARMONY-2407
p4270
aVHARMONY-2406
p4271
aVHARMONY-2405
p4272
aVHARMONY-2404
p4273
aVHARMONY-2403
p4274
aVHARMONY-2402
p4275
aVHARMONY-2401
p4276
aVHARMONY-2400
p4277
aVHARMONY-2399
p4278
aVHARMONY-2398
p4279
aVHARMONY-2397
p4280
aVHARMONY-2396
p4281
aVHARMONY-2395
p4282
aVHARMONY-2394
p4283
aVHARMONY-2393
p4284
aVHARMONY-2392
p4285
aVHARMONY-2391
p4286
aVHARMONY-2390
p4287
aVHARMONY-2389
p4288
aVHARMONY-2388
p4289
aVHARMONY-2387
p4290
aVHARMONY-2386
p4291
aVHARMONY-2385
p4292
aVHARMONY-2384
p4293
aVHARMONY-2383
p4294
aVHARMONY-2382
p4295
aVHARMONY-2381
p4296
aVHARMONY-2380
p4297
aVHARMONY-2379
p4298
aVHARMONY-2378
p4299
aVHARMONY-2377
p4300
aVHARMONY-2376
p4301
aVHARMONY-2375
p4302
aVHARMONY-2374
p4303
aVHARMONY-2373
p4304
aVHARMONY-2372
p4305
aVHARMONY-2371
p4306
aVHARMONY-2370
p4307
aVHARMONY-2369
p4308
aVHARMONY-2368
p4309
aVHARMONY-2367
p4310
aVHARMONY-2366
p4311
aVHARMONY-2365
p4312
aVHARMONY-2364
p4313
aVHARMONY-2363
p4314
aVHARMONY-2362
p4315
aVHARMONY-2361
p4316
aVHARMONY-2360
p4317
aVHARMONY-2359
p4318
aVHARMONY-2358
p4319
aVHARMONY-2357
p4320
aVHARMONY-2356
p4321
aVHARMONY-2355
p4322
aVHARMONY-2354
p4323
aVHARMONY-2353
p4324
aVHARMONY-2352
p4325
aVHARMONY-2351
p4326
aVHARMONY-2350
p4327
aVHARMONY-2349
p4328
aVHARMONY-2348
p4329
aVHARMONY-2347
p4330
aVHARMONY-2346
p4331
aVHARMONY-2345
p4332
aVHARMONY-2344
p4333
aVHARMONY-2343
p4334
aVHARMONY-2342
p4335
aVHARMONY-2341
p4336
aVHARMONY-2340
p4337
aVHARMONY-2339
p4338
aVHARMONY-2338
p4339
aVHARMONY-2337
p4340
aVHARMONY-2336
p4341
aVHARMONY-2335
p4342
aVHARMONY-2334
p4343
aVHARMONY-2333
p4344
aVHARMONY-2332
p4345
aVHARMONY-2331
p4346
aVHARMONY-2330
p4347
aVHARMONY-2329
p4348
aVHARMONY-2328
p4349
aVHARMONY-2327
p4350
aVHARMONY-2326
p4351
aVHARMONY-2325
p4352
aVHARMONY-2324
p4353
aVHARMONY-2323
p4354
aVHARMONY-2322
p4355
aVHARMONY-2321
p4356
aVHARMONY-2320
p4357
aVHARMONY-2319
p4358
aVHARMONY-2318
p4359
aVHARMONY-2317
p4360
aVHARMONY-2316
p4361
aVHARMONY-2315
p4362
aVHARMONY-2314
p4363
aVHARMONY-2313
p4364
aVHARMONY-2312
p4365
aVHARMONY-2311
p4366
aVHARMONY-2310
p4367
aVHARMONY-2309
p4368
aVHARMONY-2308
p4369
aVHARMONY-2307
p4370
aVHARMONY-2306
p4371
aVHARMONY-2305
p4372
aVHARMONY-2304
p4373
aVHARMONY-2303
p4374
aVHARMONY-2302
p4375
aVHARMONY-2301
p4376
aVHARMONY-2300
p4377
aVHARMONY-2299
p4378
aVHARMONY-2298
p4379
aVHARMONY-2297
p4380
aVHARMONY-2296
p4381
aVHARMONY-2295
p4382
aVHARMONY-2294
p4383
aVHARMONY-2293
p4384
aVHARMONY-2292
p4385
aVHARMONY-2291
p4386
aVHARMONY-2290
p4387
aVHARMONY-2289
p4388
aVHARMONY-2288
p4389
aVHARMONY-2287
p4390
aVHARMONY-2286
p4391
aVHARMONY-2285
p4392
aVHARMONY-2284
p4393
aVHARMONY-2283
p4394
aVHARMONY-2282
p4395
aVHARMONY-2281
p4396
aVHARMONY-2280
p4397
aVHARMONY-2279
p4398
aVHARMONY-2278
p4399
aVHARMONY-2277
p4400
aVHARMONY-2276
p4401
aVHARMONY-2275
p4402
aVHARMONY-2274
p4403
aVHARMONY-2273
p4404
aVHARMONY-2272
p4405
aVHARMONY-2271
p4406
aVHARMONY-2270
p4407
aVHARMONY-2269
p4408
aVHARMONY-2268
p4409
aVHARMONY-2267
p4410
aVHARMONY-2266
p4411
aVHARMONY-2265
p4412
aVHARMONY-2264
p4413
aVHARMONY-2263
p4414
aVHARMONY-2262
p4415
aVHARMONY-2261
p4416
aVHARMONY-2260
p4417
aVHARMONY-2259
p4418
aVHARMONY-2258
p4419
aVHARMONY-2257
p4420
aVHARMONY-2256
p4421
aVHARMONY-2255
p4422
aVHARMONY-2254
p4423
aVHARMONY-2253
p4424
aVHARMONY-2252
p4425
aVHARMONY-2251
p4426
aVHARMONY-2250
p4427
aVHARMONY-2249
p4428
aVHARMONY-2248
p4429
aVHARMONY-2247
p4430
aVHARMONY-2246
p4431
aVHARMONY-2245
p4432
aVHARMONY-2244
p4433
aVHARMONY-2243
p4434
aVHARMONY-2242
p4435
aVHARMONY-2241
p4436
aVHARMONY-2240
p4437
aVHARMONY-2239
p4438
aVHARMONY-2238
p4439
aVHARMONY-2237
p4440
aVHARMONY-2236
p4441
aVHARMONY-2235
p4442
aVHARMONY-2234
p4443
aVHARMONY-2233
p4444
aVHARMONY-2232
p4445
aVHARMONY-2231
p4446
aVHARMONY-2230
p4447
aVHARMONY-2229
p4448
aVHARMONY-2228
p4449
aVHARMONY-2227
p4450
aVHARMONY-2226
p4451
aVHARMONY-2225
p4452
aVHARMONY-2224
p4453
aVHARMONY-2223
p4454
aVHARMONY-2222
p4455
aVHARMONY-2221
p4456
aVHARMONY-2220
p4457
aVHARMONY-2219
p4458
aVHARMONY-2218
p4459
aVHARMONY-2217
p4460
aVHARMONY-2216
p4461
aVHARMONY-2215
p4462
aVHARMONY-2214
p4463
aVHARMONY-2213
p4464
aVHARMONY-2212
p4465
aVHARMONY-2211
p4466
aVHARMONY-2210
p4467
aVHARMONY-2209
p4468
aVHARMONY-2208
p4469
aVHARMONY-2207
p4470
aVHARMONY-2206
p4471
aVHARMONY-2205
p4472
aVHARMONY-2204
p4473
aVHARMONY-2203
p4474
aVHARMONY-2202
p4475
aVHARMONY-2201
p4476
aVHARMONY-2200
p4477
aVHARMONY-2199
p4478
aVHARMONY-2198
p4479
aVHARMONY-2197
p4480
aVHARMONY-2196
p4481
aVHARMONY-2195
p4482
aVHARMONY-2194
p4483
aVHARMONY-2193
p4484
aVHARMONY-2192
p4485
aVHARMONY-2191
p4486
aVHARMONY-2190
p4487
aVHARMONY-2189
p4488
aVHARMONY-2188
p4489
aVHARMONY-2187
p4490
aVHARMONY-2186
p4491
aVHARMONY-2185
p4492
aVHARMONY-2184
p4493
aVHARMONY-2183
p4494
aVHARMONY-2182
p4495
aVHARMONY-2181
p4496
aVHARMONY-2180
p4497
aVHARMONY-2179
p4498
aVHARMONY-2178
p4499
aVHARMONY-2177
p4500
aVHARMONY-2176
p4501
aVHARMONY-2175
p4502
aVHARMONY-2174
p4503
aVHARMONY-2173
p4504
aVHARMONY-2172
p4505
aVHARMONY-2171
p4506
aVHARMONY-2170
p4507
aVHARMONY-2169
p4508
aVHARMONY-2168
p4509
aVHARMONY-2167
p4510
aVHARMONY-2166
p4511
aVHARMONY-2165
p4512
aVHARMONY-2164
p4513
aVHARMONY-2163
p4514
aVHARMONY-2162
p4515
aVHARMONY-2161
p4516
aVHARMONY-2160
p4517
aVHARMONY-2159
p4518
aVHARMONY-2158
p4519
aVHARMONY-2157
p4520
aVHARMONY-2156
p4521
aVHARMONY-2155
p4522
aVHARMONY-2154
p4523
aVHARMONY-2153
p4524
aVHARMONY-2152
p4525
aVHARMONY-2151
p4526
aVHARMONY-2150
p4527
aVHARMONY-2149
p4528
aVHARMONY-2148
p4529
aVHARMONY-2147
p4530
aVHARMONY-2146
p4531
aVHARMONY-2145
p4532
aVHARMONY-2144
p4533
aVHARMONY-2143
p4534
aVHARMONY-2142
p4535
aVHARMONY-2141
p4536
aVHARMONY-2140
p4537
aVHARMONY-2139
p4538
aVHARMONY-2138
p4539
aVHARMONY-2137
p4540
aVHARMONY-2136
p4541
aVHARMONY-2135
p4542
aVHARMONY-2134
p4543
aVHARMONY-2133
p4544
aVHARMONY-2132
p4545
aVHARMONY-2131
p4546
aVHARMONY-2130
p4547
aVHARMONY-2129
p4548
aVHARMONY-2128
p4549
aVHARMONY-2127
p4550
aVHARMONY-2126
p4551
aVHARMONY-2125
p4552
aVHARMONY-2124
p4553
aVHARMONY-2123
p4554
aVHARMONY-2122
p4555
aVHARMONY-2121
p4556
aVHARMONY-2120
p4557
aVHARMONY-2119
p4558
aVHARMONY-2118
p4559
aVHARMONY-2117
p4560
aVHARMONY-2116
p4561
aVHARMONY-2115
p4562
aVHARMONY-2114
p4563
aVHARMONY-2113
p4564
aVHARMONY-2112
p4565
aVHARMONY-2111
p4566
aVHARMONY-2110
p4567
aVHARMONY-2109
p4568
aVHARMONY-2108
p4569
aVHARMONY-2107
p4570
aVHARMONY-2106
p4571
aVHARMONY-2105
p4572
aVHARMONY-2104
p4573
aVHARMONY-2103
p4574
aVHARMONY-2102
p4575
aVHARMONY-2101
p4576
aVHARMONY-2100
p4577
aVHARMONY-2099
p4578
aVHARMONY-2098
p4579
aVHARMONY-2097
p4580
aVHARMONY-2096
p4581
aVHARMONY-2095
p4582
aVHARMONY-2094
p4583
aVHARMONY-2093
p4584
aVHARMONY-2092
p4585
aVHARMONY-2091
p4586
aVHARMONY-2090
p4587
aVHARMONY-2089
p4588
aVHARMONY-2088
p4589
aVHARMONY-2087
p4590
aVHARMONY-2086
p4591
aVHARMONY-2085
p4592
aVHARMONY-2084
p4593
aVHARMONY-2083
p4594
aVHARMONY-2082
p4595
aVHARMONY-2081
p4596
aVHARMONY-2080
p4597
aVHARMONY-2079
p4598
aVHARMONY-2078
p4599
aVHARMONY-2077
p4600
aVHARMONY-2076
p4601
aVHARMONY-2075
p4602
aVHARMONY-2074
p4603
aVHARMONY-2073
p4604
aVHARMONY-2072
p4605
aVHARMONY-2071
p4606
aVHARMONY-2070
p4607
aVHARMONY-2069
p4608
aVHARMONY-2068
p4609
aVHARMONY-2067
p4610
aVHARMONY-2066
p4611
aVHARMONY-2065
p4612
aVHARMONY-2064
p4613
aVHARMONY-2063
p4614
aVHARMONY-2062
p4615
aVHARMONY-2061
p4616
aVHARMONY-2060
p4617
aVHARMONY-2059
p4618
aVHARMONY-2058
p4619
aVHARMONY-2057
p4620
aVHARMONY-2056
p4621
aVHARMONY-2055
p4622
aVHARMONY-2054
p4623
aVHARMONY-2053
p4624
aVHARMONY-2052
p4625
aVHARMONY-2051
p4626
aVHARMONY-2050
p4627
aVHARMONY-2049
p4628
aVHARMONY-2048
p4629
aVHARMONY-2047
p4630
aVHARMONY-2046
p4631
aVHARMONY-2045
p4632
aVHARMONY-2044
p4633
aVHARMONY-2043
p4634
aVHARMONY-2042
p4635
aVHARMONY-2041
p4636
aVHARMONY-2040
p4637
aVHARMONY-2039
p4638
aVHARMONY-2038
p4639
aVHARMONY-2037
p4640
aVHARMONY-2036
p4641
aVHARMONY-2035
p4642
aVHARMONY-2034
p4643
aVHARMONY-2033
p4644
aVHARMONY-2032
p4645
aVHARMONY-2031
p4646
aVHARMONY-2030
p4647
aVHARMONY-2029
p4648
aVHARMONY-2028
p4649
aVHARMONY-2027
p4650
aVHARMONY-2026
p4651
aVHARMONY-2025
p4652
aVHARMONY-2024
p4653
aVHARMONY-2023
p4654
aVHARMONY-2022
p4655
aVHARMONY-2021
p4656
aVHARMONY-2020
p4657
aVHARMONY-2019
p4658
aVHARMONY-2018
p4659
aVHARMONY-2017
p4660
aVHARMONY-2016
p4661
aVHARMONY-2015
p4662
aVHARMONY-2014
p4663
aVHARMONY-2013
p4664
aVHARMONY-2012
p4665
aVHARMONY-2011
p4666
aVHARMONY-2010
p4667
aVHARMONY-2009
p4668
aVHARMONY-2008
p4669
aVHARMONY-2007
p4670
aVHARMONY-2006
p4671
aVHARMONY-2005
p4672
aVHARMONY-2004
p4673
aVHARMONY-2003
p4674
aVHARMONY-2002
p4675
aVHARMONY-2001
p4676
aVHARMONY-2000
p4677
aVHARMONY-1999
p4678
aVHARMONY-1998
p4679
aVHARMONY-1997
p4680
aVHARMONY-1996
p4681
aVHARMONY-1995
p4682
aVHARMONY-1994
p4683
aVHARMONY-1993
p4684
aVHARMONY-1992
p4685
aVHARMONY-1991
p4686
aVHARMONY-1990
p4687
aVHARMONY-1989
p4688
aVHARMONY-1988
p4689
aVHARMONY-1987
p4690
aVHARMONY-1986
p4691
aVHARMONY-1985
p4692
aVHARMONY-1984
p4693
aVHARMONY-1983
p4694
aVHARMONY-1982
p4695
aVHARMONY-1981
p4696
aVHARMONY-1980
p4697
aVHARMONY-1979
p4698
aVHARMONY-1978
p4699
aVHARMONY-1977
p4700
aVHARMONY-1976
p4701
aVHARMONY-1975
p4702
aVHARMONY-1974
p4703
aVHARMONY-1973
p4704
aVHARMONY-1972
p4705
aVHARMONY-1971
p4706
aVHARMONY-1970
p4707
aVHARMONY-1969
p4708
aVHARMONY-1968
p4709
aVHARMONY-1967
p4710
aVHARMONY-1966
p4711
aVHARMONY-1965
p4712
aVHARMONY-1964
p4713
aVHARMONY-1963
p4714
aVHARMONY-1962
p4715
aVHARMONY-1961
p4716
aVHARMONY-1960
p4717
aVHARMONY-1959
p4718
aVHARMONY-1958
p4719
aVHARMONY-1957
p4720
aVHARMONY-1956
p4721
aVHARMONY-1955
p4722
aVHARMONY-1954
p4723
aVHARMONY-1953
p4724
aVHARMONY-1952
p4725
aVHARMONY-1951
p4726
aVHARMONY-1950
p4727
aVHARMONY-1949
p4728
aVHARMONY-1948
p4729
aVHARMONY-1947
p4730
aVHARMONY-1946
p4731
aVHARMONY-1945
p4732
aVHARMONY-1944
p4733
aVHARMONY-1943
p4734
aVHARMONY-1942
p4735
aVHARMONY-1941
p4736
aVHARMONY-1940
p4737
aVHARMONY-1939
p4738
aVHARMONY-1938
p4739
aVHARMONY-1937
p4740
aVHARMONY-1936
p4741
aVHARMONY-1935
p4742
aVHARMONY-1934
p4743
aVHARMONY-1933
p4744
aVHARMONY-1932
p4745
aVHARMONY-1931
p4746
aVHARMONY-1930
p4747
aVHARMONY-1929
p4748
aVHARMONY-1928
p4749
aVHARMONY-1927
p4750
aVHARMONY-1926
p4751
aVHARMONY-1925
p4752
aVHARMONY-1924
p4753
aVHARMONY-1923
p4754
aVHARMONY-1922
p4755
aVHARMONY-1921
p4756
aVHARMONY-1920
p4757
aVHARMONY-1919
p4758
aVHARMONY-1918
p4759
aVHARMONY-1917
p4760
aVHARMONY-1916
p4761
aVHARMONY-1915
p4762
aVHARMONY-1914
p4763
aVHARMONY-1913
p4764
aVHARMONY-1912
p4765
aVHARMONY-1911
p4766
aVHARMONY-1910
p4767
aVHARMONY-1909
p4768
aVHARMONY-1908
p4769
aVHARMONY-1907
p4770
aVHARMONY-1906
p4771
aVHARMONY-1905
p4772
aVHARMONY-1904
p4773
aVHARMONY-1903
p4774
aVHARMONY-1902
p4775
aVHARMONY-1901
p4776
aVHARMONY-1900
p4777
aVHARMONY-1899
p4778
aVHARMONY-1898
p4779
aVHARMONY-1897
p4780
aVHARMONY-1896
p4781
aVHARMONY-1895
p4782
aVHARMONY-1894
p4783
aVHARMONY-1893
p4784
aVHARMONY-1892
p4785
aVHARMONY-1891
p4786
aVHARMONY-1890
p4787
aVHARMONY-1889
p4788
aVHARMONY-1888
p4789
aVHARMONY-1887
p4790
aVHARMONY-1886
p4791
aVHARMONY-1885
p4792
aVHARMONY-1884
p4793
aVHARMONY-1883
p4794
aVHARMONY-1882
p4795
aVHARMONY-1881
p4796
aVHARMONY-1880
p4797
aVHARMONY-1879
p4798
aVHARMONY-1878
p4799
aVHARMONY-1877
p4800
aVHARMONY-1876
p4801
aVHARMONY-1875
p4802
aVHARMONY-1874
p4803
aVHARMONY-1873
p4804
aVHARMONY-1872
p4805
aVHARMONY-1871
p4806
aVHARMONY-1870
p4807
aVHARMONY-1869
p4808
aVHARMONY-1868
p4809
aVHARMONY-1867
p4810
aVHARMONY-1866
p4811
aVHARMONY-1865
p4812
aVHARMONY-1864
p4813
aVHARMONY-1863
p4814
aVHARMONY-1862
p4815
aVHARMONY-1861
p4816
aVHARMONY-1860
p4817
aVHARMONY-1859
p4818
aVHARMONY-1858
p4819
aVHARMONY-1857
p4820
aVHARMONY-1856
p4821
aVHARMONY-1855
p4822
aVHARMONY-1854
p4823
aVHARMONY-1853
p4824
aVHARMONY-1852
p4825
aVHARMONY-1851
p4826
aVHARMONY-1850
p4827
aVHARMONY-1849
p4828
aVHARMONY-1848
p4829
aVHARMONY-1847
p4830
aVHARMONY-1846
p4831
aVHARMONY-1845
p4832
aVHARMONY-1844
p4833
aVHARMONY-1843
p4834
aVHARMONY-1842
p4835
aVHARMONY-1841
p4836
aVHARMONY-1840
p4837
aVHARMONY-1839
p4838
aVHARMONY-1838
p4839
aVHARMONY-1837
p4840
aVHARMONY-1836
p4841
aVHARMONY-1835
p4842
aVHARMONY-1834
p4843
aVHARMONY-1833
p4844
aVHARMONY-1832
p4845
aVHARMONY-1831
p4846
aVHARMONY-1830
p4847
aVHARMONY-1829
p4848
aVHARMONY-1828
p4849
aVHARMONY-1827
p4850
aVHARMONY-1826
p4851
aVHARMONY-1825
p4852
aVHARMONY-1824
p4853
aVHARMONY-1823
p4854
aVHARMONY-1822
p4855
aVHARMONY-1821
p4856
aVHARMONY-1820
p4857
aVHARMONY-1819
p4858
aVHARMONY-1818
p4859
aVHARMONY-1817
p4860
aVHARMONY-1816
p4861
aVHARMONY-1815
p4862
aVHARMONY-1814
p4863
aVHARMONY-1813
p4864
aVHARMONY-1812
p4865
aVHARMONY-1811
p4866
aVHARMONY-1810
p4867
aVHARMONY-1809
p4868
aVHARMONY-1808
p4869
aVHARMONY-1807
p4870
aVHARMONY-1806
p4871
aVHARMONY-1805
p4872
aVHARMONY-1804
p4873
aVHARMONY-1803
p4874
aVHARMONY-1802
p4875
aVHARMONY-1801
p4876
aVHARMONY-1800
p4877
aVHARMONY-1799
p4878
aVHARMONY-1798
p4879
aVHARMONY-1797
p4880
aVHARMONY-1796
p4881
aVHARMONY-1795
p4882
aVHARMONY-1794
p4883
aVHARMONY-1793
p4884
aVHARMONY-1792
p4885
aVHARMONY-1791
p4886
aVHARMONY-1790
p4887
aVHARMONY-1789
p4888
aVHARMONY-1788
p4889
aVHARMONY-1787
p4890
aVHARMONY-1786
p4891
aVHARMONY-1785
p4892
aVHARMONY-1784
p4893
aVHARMONY-1783
p4894
aVHARMONY-1782
p4895
aVHARMONY-1781
p4896
aVHARMONY-1780
p4897
aVHARMONY-1779
p4898
aVHARMONY-1778
p4899
aVHARMONY-1777
p4900
aVHARMONY-1776
p4901
aVHARMONY-1775
p4902
aVHARMONY-1774
p4903
aVHARMONY-1773
p4904
aVHARMONY-1772
p4905
aVHARMONY-1771
p4906
aVHARMONY-1770
p4907
aVHARMONY-1769
p4908
aVHARMONY-1768
p4909
aVHARMONY-1767
p4910
aVHARMONY-1766
p4911
aVHARMONY-1765
p4912
aVHARMONY-1764
p4913
aVHARMONY-1763
p4914
aVHARMONY-1762
p4915
aVHARMONY-1761
p4916
aVHARMONY-1760
p4917
aVHARMONY-1759
p4918
aVHARMONY-1758
p4919
aVHARMONY-1757
p4920
aVHARMONY-1756
p4921
aVHARMONY-1755
p4922
aVHARMONY-1754
p4923
aVHARMONY-1753
p4924
aVHARMONY-1752
p4925
aVHARMONY-1751
p4926
aVHARMONY-1750
p4927
aVHARMONY-1749
p4928
aVHARMONY-1748
p4929
aVHARMONY-1747
p4930
aVHARMONY-1746
p4931
aVHARMONY-1745
p4932
aVHARMONY-1744
p4933
aVHARMONY-1743
p4934
aVHARMONY-1742
p4935
aVHARMONY-1741
p4936
aVHARMONY-1740
p4937
aVHARMONY-1739
p4938
aVHARMONY-1738
p4939
aVHARMONY-1737
p4940
aVHARMONY-1736
p4941
aVHARMONY-1735
p4942
aVHARMONY-1734
p4943
aVHARMONY-1733
p4944
aVHARMONY-1732
p4945
aVHARMONY-1731
p4946
aVHARMONY-1730
p4947
aVHARMONY-1729
p4948
aVHARMONY-1728
p4949
aVHARMONY-1727
p4950
aVHARMONY-1726
p4951
aVHARMONY-1725
p4952
aVHARMONY-1724
p4953
aVHARMONY-1723
p4954
aVHARMONY-1722
p4955
aVHARMONY-1721
p4956
aVHARMONY-1720
p4957
aVHARMONY-1719
p4958
aVHARMONY-1718
p4959
aVHARMONY-1717
p4960
aVHARMONY-1716
p4961
aVHARMONY-1715
p4962
aVHARMONY-1714
p4963
aVHARMONY-1713
p4964
aVHARMONY-1712
p4965
aVHARMONY-1711
p4966
aVHARMONY-1710
p4967
aVHARMONY-1709
p4968
aVHARMONY-1708
p4969
aVHARMONY-1707
p4970
aVHARMONY-1706
p4971
aVHARMONY-1705
p4972
aVHARMONY-1704
p4973
aVHARMONY-1703
p4974
aVHARMONY-1702
p4975
aVHARMONY-1701
p4976
aVHARMONY-1700
p4977
aVHARMONY-1699
p4978
aVHARMONY-1698
p4979
aVHARMONY-1697
p4980
aVHARMONY-1696
p4981
aVHARMONY-1695
p4982
aVHARMONY-1694
p4983
aVHARMONY-1693
p4984
aVHARMONY-1692
p4985
aVHARMONY-1691
p4986
aVHARMONY-1690
p4987
aVHARMONY-1689
p4988
aVHARMONY-1688
p4989
aVHARMONY-1687
p4990
aVHARMONY-1686
p4991
aVHARMONY-1685
p4992
aVHARMONY-1684
p4993
aVHARMONY-1683
p4994
aVHARMONY-1682
p4995
aVHARMONY-1681
p4996
aVHARMONY-1680
p4997
aVHARMONY-1679
p4998
aVHARMONY-1678
p4999
aVHARMONY-1677
p5000
aVHARMONY-1676
p5001
aVHARMONY-1675
p5002
aVHARMONY-1674
p5003
aVHARMONY-1673
p5004
aVHARMONY-1672
p5005
aVHARMONY-1671
p5006
aVHARMONY-1670
p5007
aVHARMONY-1669
p5008
aVHARMONY-1668
p5009
aVHARMONY-1667
p5010
aVHARMONY-1666
p5011
aVHARMONY-1665
p5012
aVHARMONY-1664
p5013
aVHARMONY-1663
p5014
aVHARMONY-1662
p5015
aVHARMONY-1661
p5016
aVHARMONY-1660
p5017
aVHARMONY-1659
p5018
aVHARMONY-1658
p5019
aVHARMONY-1657
p5020
aVHARMONY-1656
p5021
aVHARMONY-1655
p5022
aVHARMONY-1654
p5023
aVHARMONY-1653
p5024
aVHARMONY-1652
p5025
aVHARMONY-1651
p5026
aVHARMONY-1650
p5027
aVHARMONY-1649
p5028
aVHARMONY-1648
p5029
aVHARMONY-1647
p5030
aVHARMONY-1646
p5031
aVHARMONY-1645
p5032
aVHARMONY-1644
p5033
aVHARMONY-1643
p5034
aVHARMONY-1642
p5035
aVHARMONY-1641
p5036
aVHARMONY-1640
p5037
aVHARMONY-1639
p5038
aVHARMONY-1638
p5039
aVHARMONY-1637
p5040
aVHARMONY-1636
p5041
aVHARMONY-1635
p5042
aVHARMONY-1634
p5043
aVHARMONY-1633
p5044
aVHARMONY-1632
p5045
aVHARMONY-1631
p5046
aVHARMONY-1630
p5047
aVHARMONY-1629
p5048
aVHARMONY-1628
p5049
aVHARMONY-1627
p5050
aVHARMONY-1626
p5051
aVHARMONY-1625
p5052
aVHARMONY-1624
p5053
aVHARMONY-1623
p5054
aVHARMONY-1622
p5055
aVHARMONY-1621
p5056
aVHARMONY-1620
p5057
aVHARMONY-1619
p5058
aVHARMONY-1618
p5059
aVHARMONY-1617
p5060
aVHARMONY-1616
p5061
aVHARMONY-1615
p5062
aVHARMONY-1614
p5063
aVHARMONY-1613
p5064
aVHARMONY-1612
p5065
aVHARMONY-1611
p5066
aVHARMONY-1610
p5067
aVHARMONY-1609
p5068
aVHARMONY-1608
p5069
aVHARMONY-1607
p5070
aVHARMONY-1606
p5071
aVHARMONY-1605
p5072
aVHARMONY-1604
p5073
aVHARMONY-1603
p5074
aVHARMONY-1602
p5075
aVHARMONY-1601
p5076
aVHARMONY-1600
p5077
aVHARMONY-1599
p5078
aVHARMONY-1598
p5079
aVHARMONY-1597
p5080
aVHARMONY-1596
p5081
aVHARMONY-1595
p5082
aVHARMONY-1594
p5083
aVHARMONY-1593
p5084
aVHARMONY-1592
p5085
aVHARMONY-1591
p5086
aVHARMONY-1590
p5087
aVHARMONY-1589
p5088
aVHARMONY-1588
p5089
aVHARMONY-1587
p5090
aVHARMONY-1586
p5091
aVHARMONY-1585
p5092
aVHARMONY-1584
p5093
aVHARMONY-1583
p5094
aVHARMONY-1582
p5095
aVHARMONY-1581
p5096
aVHARMONY-1580
p5097
aVHARMONY-1579
p5098
aVHARMONY-1578
p5099
aVHARMONY-1577
p5100
aVHARMONY-1576
p5101
aVHARMONY-1575
p5102
aVHARMONY-1574
p5103
aVHARMONY-1573
p5104
aVHARMONY-1572
p5105
aVHARMONY-1571
p5106
aVHARMONY-1570
p5107
aVHARMONY-1569
p5108
aVHARMONY-1568
p5109
aVHARMONY-1567
p5110
aVHARMONY-1566
p5111
aVHARMONY-1565
p5112
aVHARMONY-1564
p5113
aVHARMONY-1563
p5114
aVHARMONY-1562
p5115
aVHARMONY-1561
p5116
aVHARMONY-1560
p5117
aVHARMONY-1559
p5118
aVHARMONY-1558
p5119
aVHARMONY-1557
p5120
aVHARMONY-1556
p5121
aVHARMONY-1555
p5122
aVHARMONY-1554
p5123
aVHARMONY-1553
p5124
aVHARMONY-1552
p5125
aVHARMONY-1551
p5126
aVHARMONY-1550
p5127
aVHARMONY-1549
p5128
aVHARMONY-1548
p5129
aVHARMONY-1547
p5130
aVHARMONY-1546
p5131
aVHARMONY-1545
p5132
aVHARMONY-1544
p5133
aVHARMONY-1543
p5134
aVHARMONY-1542
p5135
aVHARMONY-1541
p5136
aVHARMONY-1540
p5137
aVHARMONY-1539
p5138
aVHARMONY-1538
p5139
aVHARMONY-1537
p5140
aVHARMONY-1536
p5141
aVHARMONY-1535
p5142
aVHARMONY-1534
p5143
aVHARMONY-1533
p5144
aVHARMONY-1532
p5145
aVHARMONY-1531
p5146
aVHARMONY-1530
p5147
aVHARMONY-1529
p5148
aVHARMONY-1528
p5149
aVHARMONY-1527
p5150
aVHARMONY-1526
p5151
aVHARMONY-1525
p5152
aVHARMONY-1524
p5153
aVHARMONY-1523
p5154
aVHARMONY-1522
p5155
aVHARMONY-1521
p5156
aVHARMONY-1520
p5157
aVHARMONY-1519
p5158
aVHARMONY-1518
p5159
aVHARMONY-1517
p5160
aVHARMONY-1516
p5161
aVHARMONY-1515
p5162
aVHARMONY-1514
p5163
aVHARMONY-1513
p5164
aVHARMONY-1512
p5165
aVHARMONY-1511
p5166
aVHARMONY-1510
p5167
aVHARMONY-1509
p5168
aVHARMONY-1508
p5169
aVHARMONY-1507
p5170
aVHARMONY-1506
p5171
aVHARMONY-1505
p5172
aVHARMONY-1504
p5173
aVHARMONY-1503
p5174
aVHARMONY-1502
p5175
aVHARMONY-1501
p5176
aVHARMONY-1500
p5177
aVHARMONY-1499
p5178
aVHARMONY-1498
p5179
aVHARMONY-1497
p5180
aVHARMONY-1496
p5181
aVHARMONY-1495
p5182
aVHARMONY-1494
p5183
aVHARMONY-1493
p5184
aVHARMONY-1492
p5185
aVHARMONY-1491
p5186
aVHARMONY-1490
p5187
aVHARMONY-1489
p5188
aVHARMONY-1488
p5189
aVHARMONY-1487
p5190
aVHARMONY-1486
p5191
aVHARMONY-1485
p5192
aVHARMONY-1484
p5193
aVHARMONY-1483
p5194
aVHARMONY-1482
p5195
aVHARMONY-1481
p5196
aVHARMONY-1480
p5197
aVHARMONY-1479
p5198
aVHARMONY-1478
p5199
aVHARMONY-1477
p5200
aVHARMONY-1476
p5201
aVHARMONY-1475
p5202
aVHARMONY-1474
p5203
aVHARMONY-1473
p5204
aVHARMONY-1472
p5205
aVHARMONY-1471
p5206
aVHARMONY-1470
p5207
aVHARMONY-1469
p5208
aVHARMONY-1468
p5209
aVHARMONY-1467
p5210
aVHARMONY-1466
p5211
aVHARMONY-1465
p5212
aVHARMONY-1464
p5213
aVHARMONY-1463
p5214
aVHARMONY-1462
p5215
aVHARMONY-1461
p5216
aVHARMONY-1460
p5217
aVHARMONY-1459
p5218
aVHARMONY-1458
p5219
aVHARMONY-1457
p5220
aVHARMONY-1456
p5221
aVHARMONY-1455
p5222
aVHARMONY-1454
p5223
aVHARMONY-1453
p5224
aVHARMONY-1452
p5225
aVHARMONY-1451
p5226
aVHARMONY-1450
p5227
aVHARMONY-1449
p5228
aVHARMONY-1448
p5229
aVHARMONY-1447
p5230
aVHARMONY-1446
p5231
aVHARMONY-1445
p5232
aVHARMONY-1444
p5233
aVHARMONY-1443
p5234
aVHARMONY-1442
p5235
aVHARMONY-1441
p5236
aVHARMONY-1440
p5237
aVHARMONY-1439
p5238
aVHARMONY-1438
p5239
aVHARMONY-1437
p5240
aVHARMONY-1436
p5241
aVHARMONY-1435
p5242
aVHARMONY-1434
p5243
aVHARMONY-1433
p5244
aVHARMONY-1432
p5245
aVHARMONY-1431
p5246
aVHARMONY-1430
p5247
aVHARMONY-1429
p5248
aVHARMONY-1428
p5249
aVHARMONY-1427
p5250
aVHARMONY-1426
p5251
aVHARMONY-1425
p5252
aVHARMONY-1424
p5253
aVHARMONY-1423
p5254
aVHARMONY-1422
p5255
aVHARMONY-1421
p5256
aVHARMONY-1420
p5257
aVHARMONY-1419
p5258
aVHARMONY-1418
p5259
aVHARMONY-1417
p5260
aVHARMONY-1416
p5261
aVHARMONY-1415
p5262
aVHARMONY-1414
p5263
aVHARMONY-1413
p5264
aVHARMONY-1412
p5265
aVHARMONY-1411
p5266
aVHARMONY-1410
p5267
aVHARMONY-1409
p5268
aVHARMONY-1408
p5269
aVHARMONY-1407
p5270
aVHARMONY-1406
p5271
aVHARMONY-1405
p5272
aVHARMONY-1404
p5273
aVHARMONY-1403
p5274
aVHARMONY-1402
p5275
aVHARMONY-1401
p5276
aVHARMONY-1400
p5277
aVHARMONY-1399
p5278
aVHARMONY-1398
p5279
aVHARMONY-1397
p5280
aVHARMONY-1396
p5281
aVHARMONY-1395
p5282
aVHARMONY-1394
p5283
aVHARMONY-1393
p5284
aVHARMONY-1392
p5285
aVHARMONY-1391
p5286
aVHARMONY-1390
p5287
aVHARMONY-1389
p5288
aVHARMONY-1388
p5289
aVHARMONY-1387
p5290
aVHARMONY-1386
p5291
aVHARMONY-1385
p5292
aVHARMONY-1384
p5293
aVHARMONY-1383
p5294
aVHARMONY-1382
p5295
aVHARMONY-1381
p5296
aVHARMONY-1380
p5297
aVHARMONY-1379
p5298
aVHARMONY-1378
p5299
aVHARMONY-1377
p5300
aVHARMONY-1376
p5301
aVHARMONY-1375
p5302
aVHARMONY-1374
p5303
aVHARMONY-1373
p5304
aVHARMONY-1372
p5305
aVHARMONY-1371
p5306
aVHARMONY-1370
p5307
aVHARMONY-1369
p5308
aVHARMONY-1368
p5309
aVHARMONY-1367
p5310
aVHARMONY-1366
p5311
aVHARMONY-1365
p5312
aVHARMONY-1364
p5313
aVHARMONY-1363
p5314
aVHARMONY-1362
p5315
aVHARMONY-1361
p5316
aVHARMONY-1360
p5317
aVHARMONY-1359
p5318
aVHARMONY-1358
p5319
aVHARMONY-1357
p5320
aVHARMONY-1356
p5321
aVHARMONY-1355
p5322
aVHARMONY-1354
p5323
aVHARMONY-1353
p5324
aVHARMONY-1352
p5325
aVHARMONY-1351
p5326
aVHARMONY-1350
p5327
aVHARMONY-1349
p5328
aVHARMONY-1348
p5329
aVHARMONY-1347
p5330
aVHARMONY-1346
p5331
aVHARMONY-1345
p5332
aVHARMONY-1344
p5333
aVHARMONY-1343
p5334
aVHARMONY-1342
p5335
aVHARMONY-1341
p5336
aVHARMONY-1340
p5337
aVHARMONY-1339
p5338
aVHARMONY-1338
p5339
aVHARMONY-1337
p5340
aVHARMONY-1336
p5341
aVHARMONY-1335
p5342
aVHARMONY-1334
p5343
aVHARMONY-1333
p5344
aVHARMONY-1332
p5345
aVHARMONY-1331
p5346
aVHARMONY-1330
p5347
aVHARMONY-1329
p5348
aVHARMONY-1328
p5349
aVHARMONY-1327
p5350
aVHARMONY-1326
p5351
aVHARMONY-1325
p5352
aVHARMONY-1324
p5353
aVHARMONY-1323
p5354
aVHARMONY-1322
p5355
aVHARMONY-1321
p5356
aVHARMONY-1320
p5357
aVHARMONY-1319
p5358
aVHARMONY-1318
p5359
aVHARMONY-1317
p5360
aVHARMONY-1316
p5361
aVHARMONY-1315
p5362
aVHARMONY-1314
p5363
aVHARMONY-1313
p5364
aVHARMONY-1312
p5365
aVHARMONY-1311
p5366
aVHARMONY-1310
p5367
aVHARMONY-1309
p5368
aVHARMONY-1308
p5369
aVHARMONY-1307
p5370
aVHARMONY-1306
p5371
aVHARMONY-1305
p5372
aVHARMONY-1304
p5373
aVHARMONY-1303
p5374
aVHARMONY-1302
p5375
aVHARMONY-1301
p5376
aVHARMONY-1300
p5377
aVHARMONY-1299
p5378
aVHARMONY-1298
p5379
aVHARMONY-1297
p5380
aVHARMONY-1296
p5381
aVHARMONY-1295
p5382
aVHARMONY-1294
p5383
aVHARMONY-1293
p5384
aVHARMONY-1292
p5385
aVHARMONY-1291
p5386
aVHARMONY-1290
p5387
aVHARMONY-1289
p5388
aVHARMONY-1288
p5389
aVHARMONY-1287
p5390
aVHARMONY-1286
p5391
aVHARMONY-1285
p5392
aVHARMONY-1284
p5393
aVHARMONY-1283
p5394
aVHARMONY-1282
p5395
aVHARMONY-1281
p5396
aVHARMONY-1280
p5397
aVHARMONY-1279
p5398
aVHARMONY-1278
p5399
aVHARMONY-1277
p5400
aVHARMONY-1276
p5401
aVHARMONY-1275
p5402
aVHARMONY-1274
p5403
aVHARMONY-1273
p5404
aVHARMONY-1272
p5405
aVHARMONY-1271
p5406
aVHARMONY-1270
p5407
aVHARMONY-1269
p5408
aVHARMONY-1268
p5409
aVHARMONY-1267
p5410
aVHARMONY-1266
p5411
aVHARMONY-1265
p5412
aVHARMONY-1264
p5413
aVHARMONY-1263
p5414
aVHARMONY-1262
p5415
aVHARMONY-1261
p5416
aVHARMONY-1260
p5417
aVHARMONY-1259
p5418
aVHARMONY-1258
p5419
aVHARMONY-1257
p5420
aVHARMONY-1256
p5421
aVHARMONY-1255
p5422
aVHARMONY-1254
p5423
aVHARMONY-1253
p5424
aVHARMONY-1252
p5425
aVHARMONY-1251
p5426
aVHARMONY-1250
p5427
aVHARMONY-1249
p5428
aVHARMONY-1248
p5429
aVHARMONY-1247
p5430
aVHARMONY-1246
p5431
aVHARMONY-1245
p5432
aVHARMONY-1244
p5433
aVHARMONY-1243
p5434
aVHARMONY-1242
p5435
aVHARMONY-1241
p5436
aVHARMONY-1240
p5437
aVHARMONY-1239
p5438
aVHARMONY-1238
p5439
aVHARMONY-1237
p5440
aVHARMONY-1236
p5441
aVHARMONY-1235
p5442
aVHARMONY-1234
p5443
aVHARMONY-1233
p5444
aVHARMONY-1232
p5445
aVHARMONY-1231
p5446
aVHARMONY-1230
p5447
aVHARMONY-1229
p5448
aVHARMONY-1228
p5449
aVHARMONY-1227
p5450
aVHARMONY-1226
p5451
aVHARMONY-1225
p5452
aVHARMONY-1224
p5453
aVHARMONY-1223
p5454
aVHARMONY-1222
p5455
aVHARMONY-1221
p5456
aVHARMONY-1220
p5457
aVHARMONY-1219
p5458
aVHARMONY-1218
p5459
aVHARMONY-1217
p5460
aVHARMONY-1216
p5461
aVHARMONY-1215
p5462
aVHARMONY-1214
p5463
aVHARMONY-1213
p5464
aVHARMONY-1212
p5465
aVHARMONY-1211
p5466
aVHARMONY-1210
p5467
aVHARMONY-1209
p5468
aVHARMONY-1208
p5469
aVHARMONY-1207
p5470
aVHARMONY-1206
p5471
aVHARMONY-1205
p5472
aVHARMONY-1204
p5473
aVHARMONY-1203
p5474
aVHARMONY-1202
p5475
aVHARMONY-1201
p5476
aVHARMONY-1200
p5477
aVHARMONY-1199
p5478
aVHARMONY-1198
p5479
aVHARMONY-1197
p5480
aVHARMONY-1196
p5481
aVHARMONY-1195
p5482
aVHARMONY-1194
p5483
aVHARMONY-1193
p5484
aVHARMONY-1192
p5485
aVHARMONY-1191
p5486
aVHARMONY-1190
p5487
aVHARMONY-1189
p5488
aVHARMONY-1188
p5489
aVHARMONY-1187
p5490
aVHARMONY-1186
p5491
aVHARMONY-1185
p5492
aVHARMONY-1184
p5493
aVHARMONY-1183
p5494
aVHARMONY-1182
p5495
aVHARMONY-1181
p5496
aVHARMONY-1180
p5497
aVHARMONY-1179
p5498
aVHARMONY-1178
p5499
aVHARMONY-1177
p5500
aVHARMONY-1176
p5501
aVHARMONY-1175
p5502
aVHARMONY-1174
p5503
aVHARMONY-1173
p5504
aVHARMONY-1172
p5505
aVHARMONY-1171
p5506
aVHARMONY-1170
p5507
aVHARMONY-1169
p5508
aVHARMONY-1168
p5509
aVHARMONY-1167
p5510
aVHARMONY-1166
p5511
aVHARMONY-1165
p5512
aVHARMONY-1164
p5513
aVHARMONY-1163
p5514
aVHARMONY-1162
p5515
aVHARMONY-1161
p5516
aVHARMONY-1160
p5517
aVHARMONY-1159
p5518
aVHARMONY-1158
p5519
aVHARMONY-1157
p5520
aVHARMONY-1156
p5521
aVHARMONY-1155
p5522
aVHARMONY-1154
p5523
aVHARMONY-1153
p5524
aVHARMONY-1152
p5525
aVHARMONY-1151
p5526
aVHARMONY-1150
p5527
aVHARMONY-1149
p5528
aVHARMONY-1148
p5529
aVHARMONY-1147
p5530
aVHARMONY-1146
p5531
aVHARMONY-1145
p5532
aVHARMONY-1144
p5533
aVHARMONY-1143
p5534
aVHARMONY-1142
p5535
aVHARMONY-1141
p5536
aVHARMONY-1140
p5537
aVHARMONY-1139
p5538
aVHARMONY-1138
p5539
aVHARMONY-1137
p5540
aVHARMONY-1136
p5541
aVHARMONY-1135
p5542
aVHARMONY-1134
p5543
aVHARMONY-1133
p5544
aVHARMONY-1132
p5545
aVHARMONY-1131
p5546
aVHARMONY-1130
p5547
aVHARMONY-1129
p5548
aVHARMONY-1128
p5549
aVHARMONY-1127
p5550
aVHARMONY-1126
p5551
aVHARMONY-1125
p5552
aVHARMONY-1124
p5553
aVHARMONY-1123
p5554
aVHARMONY-1122
p5555
aVHARMONY-1121
p5556
aVHARMONY-1120
p5557
aVHARMONY-1119
p5558
aVHARMONY-1118
p5559
aVHARMONY-1117
p5560
aVHARMONY-1116
p5561
aVHARMONY-1115
p5562
aVHARMONY-1114
p5563
aVHARMONY-1113
p5564
aVHARMONY-1112
p5565
aVHARMONY-1111
p5566
aVHARMONY-1110
p5567
aVHARMONY-1109
p5568
aVHARMONY-1108
p5569
aVHARMONY-1107
p5570
aVHARMONY-1106
p5571
aVHARMONY-1105
p5572
aVHARMONY-1104
p5573
aVHARMONY-1103
p5574
aVHARMONY-1102
p5575
aVHARMONY-1101
p5576
aVHARMONY-1100
p5577
aVHARMONY-1099
p5578
aVHARMONY-1098
p5579
aVHARMONY-1097
p5580
aVHARMONY-1096
p5581
aVHARMONY-1095
p5582
aVHARMONY-1094
p5583
aVHARMONY-1093
p5584
aVHARMONY-1092
p5585
aVHARMONY-1091
p5586
aVHARMONY-1090
p5587
aVHARMONY-1089
p5588
aVHARMONY-1088
p5589
aVHARMONY-1087
p5590
aVHARMONY-1086
p5591
aVHARMONY-1085
p5592
aVHARMONY-1084
p5593
aVHARMONY-1083
p5594
aVHARMONY-1082
p5595
aVHARMONY-1081
p5596
aVHARMONY-1080
p5597
aVHARMONY-1079
p5598
aVHARMONY-1078
p5599
aVHARMONY-1077
p5600
aVHARMONY-1076
p5601
aVHARMONY-1075
p5602
aVHARMONY-1074
p5603
aVHARMONY-1073
p5604
aVHARMONY-1072
p5605
aVHARMONY-1071
p5606
aVHARMONY-1070
p5607
aVHARMONY-1069
p5608
aVHARMONY-1068
p5609
aVHARMONY-1067
p5610
aVHARMONY-1066
p5611
aVHARMONY-1065
p5612
aVHARMONY-1064
p5613
aVHARMONY-1063
p5614
aVHARMONY-1062
p5615
aVHARMONY-1061
p5616
aVHARMONY-1060
p5617
aVHARMONY-1059
p5618
aVHARMONY-1058
p5619
aVHARMONY-1057
p5620
aVHARMONY-1056
p5621
aVHARMONY-1055
p5622
aVHARMONY-1054
p5623
aVHARMONY-1053
p5624
aVHARMONY-1052
p5625
aVHARMONY-1051
p5626
aVHARMONY-1050
p5627
aVHARMONY-1049
p5628
aVHARMONY-1048
p5629
aVHARMONY-1047
p5630
aVHARMONY-1046
p5631
aVHARMONY-1045
p5632
aVHARMONY-1044
p5633
aVHARMONY-1043
p5634
aVHARMONY-1042
p5635
aVHARMONY-1041
p5636
aVHARMONY-1040
p5637
aVHARMONY-1039
p5638
aVHARMONY-1038
p5639
aVHARMONY-1037
p5640
aVHARMONY-1036
p5641
aVHARMONY-1035
p5642
aVHARMONY-1034
p5643
aVHARMONY-1033
p5644
aVHARMONY-1032
p5645
aVHARMONY-1031
p5646
aVHARMONY-1030
p5647
aVHARMONY-1029
p5648
aVHARMONY-1028
p5649
aVHARMONY-1027
p5650
aVHARMONY-1026
p5651
aVHARMONY-1025
p5652
aVHARMONY-1024
p5653
aVHARMONY-1023
p5654
aVHARMONY-1022
p5655
aVHARMONY-1021
p5656
aVHARMONY-1020
p5657
aVHARMONY-1019
p5658
aVHARMONY-1018
p5659
aVHARMONY-1017
p5660
aVHARMONY-1016
p5661
aVHARMONY-1015
p5662
aVHARMONY-1014
p5663
aVHARMONY-1013
p5664
aVHARMONY-1012
p5665
aVHARMONY-1011
p5666
aVHARMONY-1010
p5667
aVHARMONY-1009
p5668
aVHARMONY-1008
p5669
aVHARMONY-1007
p5670
aVHARMONY-1006
p5671
aVHARMONY-1005
p5672
aVHARMONY-1004
p5673
aVHARMONY-1003
p5674
aVHARMONY-1002
p5675
aVHARMONY-1001
p5676
aVHARMONY-1000
p5677
aVHARMONY-999
p5678
aVHARMONY-998
p5679
aVHARMONY-997
p5680
aVHARMONY-996
p5681
aVHARMONY-995
p5682
aVHARMONY-994
p5683
aVHARMONY-993
p5684
aVHARMONY-992
p5685
aVHARMONY-991
p5686
aVHARMONY-990
p5687
aVHARMONY-989
p5688
aVHARMONY-988
p5689
aVHARMONY-987
p5690
aVHARMONY-986
p5691
aVHARMONY-985
p5692
aVHARMONY-984
p5693
aVHARMONY-983
p5694
aVHARMONY-982
p5695
aVHARMONY-981
p5696
aVHARMONY-980
p5697
aVHARMONY-979
p5698
aVHARMONY-978
p5699
aVHARMONY-977
p5700
aVHARMONY-976
p5701
aVHARMONY-975
p5702
aVHARMONY-974
p5703
aVHARMONY-973
p5704
aVHARMONY-972
p5705
aVHARMONY-971
p5706
aVHARMONY-970
p5707
aVHARMONY-969
p5708
aVHARMONY-968
p5709
aVHARMONY-967
p5710
aVHARMONY-966
p5711
aVHARMONY-965
p5712
aVHARMONY-964
p5713
aVHARMONY-963
p5714
aVHARMONY-962
p5715
aVHARMONY-961
p5716
aVHARMONY-960
p5717
aVHARMONY-959
p5718
aVHARMONY-958
p5719
aVHARMONY-957
p5720
aVHARMONY-956
p5721
aVHARMONY-955
p5722
aVHARMONY-954
p5723
aVHARMONY-953
p5724
aVHARMONY-952
p5725
aVHARMONY-951
p5726
aVHARMONY-950
p5727
aVHARMONY-949
p5728
aVHARMONY-948
p5729
aVHARMONY-947
p5730
aVHARMONY-946
p5731
aVHARMONY-945
p5732
aVHARMONY-944
p5733
aVHARMONY-943
p5734
aVHARMONY-942
p5735
aVHARMONY-941
p5736
aVHARMONY-940
p5737
aVHARMONY-939
p5738
aVHARMONY-938
p5739
aVHARMONY-937
p5740
aVHARMONY-936
p5741
aVHARMONY-935
p5742
aVHARMONY-934
p5743
aVHARMONY-933
p5744
aVHARMONY-932
p5745
aVHARMONY-931
p5746
aVHARMONY-930
p5747
aVHARMONY-929
p5748
aVHARMONY-928
p5749
aVHARMONY-927
p5750
aVHARMONY-926
p5751
aVHARMONY-925
p5752
aVHARMONY-924
p5753
aVHARMONY-923
p5754
aVHARMONY-922
p5755
aVHARMONY-921
p5756
aVHARMONY-920
p5757
aVHARMONY-919
p5758
aVHARMONY-918
p5759
aVHARMONY-917
p5760
aVHARMONY-916
p5761
aVHARMONY-915
p5762
aVHARMONY-914
p5763
aVHARMONY-913
p5764
aVHARMONY-912
p5765
aVHARMONY-911
p5766
aVHARMONY-910
p5767
aVHARMONY-909
p5768
aVHARMONY-908
p5769
aVHARMONY-907
p5770
aVHARMONY-906
p5771
aVHARMONY-905
p5772
aVHARMONY-904
p5773
aVHARMONY-903
p5774
aVHARMONY-902
p5775
aVHARMONY-901
p5776
aVHARMONY-900
p5777
aVHARMONY-899
p5778
aVHARMONY-898
p5779
aVHARMONY-897
p5780
aVHARMONY-896
p5781
aVHARMONY-895
p5782
aVHARMONY-894
p5783
aVHARMONY-893
p5784
aVHARMONY-892
p5785
aVHARMONY-891
p5786
aVHARMONY-890
p5787
aVHARMONY-889
p5788
aVHARMONY-888
p5789
aVHARMONY-887
p5790
aVHARMONY-886
p5791
aVHARMONY-885
p5792
aVHARMONY-884
p5793
aVHARMONY-883
p5794
aVHARMONY-882
p5795
aVHARMONY-881
p5796
aVHARMONY-880
p5797
aVHARMONY-879
p5798
aVHARMONY-878
p5799
aVHARMONY-877
p5800
aVHARMONY-876
p5801
aVHARMONY-875
p5802
aVHARMONY-874
p5803
aVHARMONY-873
p5804
aVHARMONY-872
p5805
aVHARMONY-871
p5806
aVHARMONY-870
p5807
aVHARMONY-869
p5808
aVHARMONY-868
p5809
aVHARMONY-867
p5810
aVHARMONY-866
p5811
aVHARMONY-865
p5812
aVHARMONY-864
p5813
aVHARMONY-863
p5814
aVHARMONY-862
p5815
aVHARMONY-861
p5816
aVHARMONY-860
p5817
aVHARMONY-859
p5818
aVHARMONY-858
p5819
aVHARMONY-857
p5820
aVHARMONY-856
p5821
aVHARMONY-855
p5822
aVHARMONY-854
p5823
aVHARMONY-853
p5824
aVHARMONY-852
p5825
aVHARMONY-851
p5826
aVHARMONY-850
p5827
aVHARMONY-849
p5828
aVHARMONY-848
p5829
aVHARMONY-847
p5830
aVHARMONY-846
p5831
aVHARMONY-845
p5832
aVHARMONY-844
p5833
aVHARMONY-843
p5834
aVHARMONY-842
p5835
aVHARMONY-841
p5836
aVHARMONY-840
p5837
aVHARMONY-839
p5838
aVHARMONY-838
p5839
aVHARMONY-837
p5840
aVHARMONY-836
p5841
aVHARMONY-835
p5842
aVHARMONY-834
p5843
aVHARMONY-833
p5844
aVHARMONY-832
p5845
aVHARMONY-831
p5846
aVHARMONY-830
p5847
aVHARMONY-829
p5848
aVHARMONY-828
p5849
aVHARMONY-827
p5850
aVHARMONY-826
p5851
aVHARMONY-825
p5852
aVHARMONY-824
p5853
aVHARMONY-823
p5854
aVHARMONY-822
p5855
aVHARMONY-821
p5856
aVHARMONY-820
p5857
aVHARMONY-819
p5858
aVHARMONY-818
p5859
aVHARMONY-817
p5860
aVHARMONY-816
p5861
aVHARMONY-815
p5862
aVHARMONY-814
p5863
aVHARMONY-813
p5864
aVHARMONY-812
p5865
aVHARMONY-811
p5866
aVHARMONY-810
p5867
aVHARMONY-809
p5868
aVHARMONY-808
p5869
aVHARMONY-807
p5870
aVHARMONY-806
p5871
aVHARMONY-805
p5872
aVHARMONY-804
p5873
aVHARMONY-803
p5874
aVHARMONY-802
p5875
aVHARMONY-801
p5876
aVHARMONY-800
p5877
aVHARMONY-799
p5878
aVHARMONY-798
p5879
aVHARMONY-797
p5880
aVHARMONY-796
p5881
aVHARMONY-795
p5882
aVHARMONY-794
p5883
aVHARMONY-793
p5884
aVHARMONY-792
p5885
aVHARMONY-791
p5886
aVHARMONY-790
p5887
aVHARMONY-789
p5888
aVHARMONY-788
p5889
aVHARMONY-787
p5890
aVHARMONY-786
p5891
aVHARMONY-785
p5892
aVHARMONY-784
p5893
aVHARMONY-783
p5894
aVHARMONY-782
p5895
aVHARMONY-781
p5896
aVHARMONY-780
p5897
aVHARMONY-779
p5898
aVHARMONY-778
p5899
aVHARMONY-777
p5900
aVHARMONY-776
p5901
aVHARMONY-775
p5902
aVHARMONY-774
p5903
aVHARMONY-773
p5904
aVHARMONY-772
p5905
aVHARMONY-771
p5906
aVHARMONY-770
p5907
aVHARMONY-769
p5908
aVHARMONY-768
p5909
aVHARMONY-767
p5910
aVHARMONY-766
p5911
aVHARMONY-765
p5912
aVHARMONY-764
p5913
aVHARMONY-763
p5914
aVHARMONY-762
p5915
aVHARMONY-761
p5916
aVHARMONY-760
p5917
aVHARMONY-759
p5918
aVHARMONY-758
p5919
aVHARMONY-757
p5920
aVHARMONY-756
p5921
aVHARMONY-755
p5922
aVHARMONY-754
p5923
aVHARMONY-753
p5924
aVHARMONY-752
p5925
aVHARMONY-751
p5926
aVHARMONY-750
p5927
aVHARMONY-749
p5928
aVHARMONY-748
p5929
aVHARMONY-747
p5930
aVHARMONY-746
p5931
aVHARMONY-745
p5932
aVHARMONY-744
p5933
aVHARMONY-743
p5934
aVHARMONY-742
p5935
aVHARMONY-741
p5936
aVHARMONY-740
p5937
aVHARMONY-739
p5938
aVHARMONY-738
p5939
aVHARMONY-737
p5940
aVHARMONY-736
p5941
aVHARMONY-735
p5942
aVHARMONY-734
p5943
aVHARMONY-733
p5944
aVHARMONY-732
p5945
aVHARMONY-731
p5946
aVHARMONY-730
p5947
aVHARMONY-729
p5948
aVHARMONY-728
p5949
aVHARMONY-727
p5950
aVHARMONY-726
p5951
aVHARMONY-725
p5952
aVHARMONY-724
p5953
aVHARMONY-723
p5954
aVHARMONY-722
p5955
aVHARMONY-721
p5956
aVHARMONY-720
p5957
aVHARMONY-719
p5958
aVHARMONY-718
p5959
aVHARMONY-717
p5960
aVHARMONY-716
p5961
aVHARMONY-715
p5962
aVHARMONY-714
p5963
aVHARMONY-713
p5964
aVHARMONY-712
p5965
aVHARMONY-711
p5966
aVHARMONY-710
p5967
aVHARMONY-709
p5968
aVHARMONY-708
p5969
aVHARMONY-707
p5970
aVHARMONY-706
p5971
aVHARMONY-705
p5972
aVHARMONY-704
p5973
aVHARMONY-703
p5974
aVHARMONY-702
p5975
aVHARMONY-701
p5976
aVHARMONY-700
p5977
aVHARMONY-699
p5978
aVHARMONY-698
p5979
aVHARMONY-697
p5980
aVHARMONY-696
p5981
aVHARMONY-695
p5982
aVHARMONY-694
p5983
aVHARMONY-693
p5984
aVHARMONY-692
p5985
aVHARMONY-691
p5986
aVHARMONY-690
p5987
aVHARMONY-689
p5988
aVHARMONY-688
p5989
aVHARMONY-687
p5990
aVHARMONY-686
p5991
aVHARMONY-685
p5992
aVHARMONY-684
p5993
aVHARMONY-683
p5994
aVHARMONY-682
p5995
aVHARMONY-681
p5996
aVHARMONY-680
p5997
aVHARMONY-679
p5998
aVHARMONY-678
p5999
aVHARMONY-677
p6000
aVHARMONY-676
p6001
aVHARMONY-675
p6002
aVHARMONY-674
p6003
aVHARMONY-673
p6004
aVHARMONY-672
p6005
aVHARMONY-671
p6006
aVHARMONY-670
p6007
aVHARMONY-669
p6008
aVHARMONY-668
p6009
aVHARMONY-667
p6010
aVHARMONY-666
p6011
aVHARMONY-665
p6012
aVHARMONY-664
p6013
aVHARMONY-663
p6014
aVHARMONY-662
p6015
aVHARMONY-661
p6016
aVHARMONY-660
p6017
aVHARMONY-659
p6018
aVHARMONY-658
p6019
aVHARMONY-657
p6020
aVHARMONY-656
p6021
aVHARMONY-655
p6022
aVHARMONY-654
p6023
aVHARMONY-653
p6024
aVHARMONY-652
p6025
aVHARMONY-651
p6026
aVHARMONY-650
p6027
aVHARMONY-649
p6028
aVHARMONY-648
p6029
aVHARMONY-647
p6030
aVHARMONY-646
p6031
aVHARMONY-645
p6032
aVHARMONY-644
p6033
aVHARMONY-643
p6034
aVHARMONY-642
p6035
aVHARMONY-641
p6036
aVHARMONY-640
p6037
aVHARMONY-639
p6038
aVHARMONY-638
p6039
aVHARMONY-637
p6040
aVHARMONY-636
p6041
aVHARMONY-635
p6042
aVHARMONY-634
p6043
aVHARMONY-633
p6044
aVHARMONY-632
p6045
aVHARMONY-631
p6046
aVHARMONY-630
p6047
aVHARMONY-629
p6048
aVHARMONY-628
p6049
aVHARMONY-627
p6050
aVHARMONY-626
p6051
aVHARMONY-625
p6052
aVHARMONY-624
p6053
aVHARMONY-623
p6054
aVHARMONY-622
p6055
aVHARMONY-621
p6056
aVHARMONY-620
p6057
aVHARMONY-619
p6058
aVHARMONY-618
p6059
aVHARMONY-617
p6060
aVHARMONY-616
p6061
aVHARMONY-615
p6062
aVHARMONY-614
p6063
aVHARMONY-613
p6064
aVHARMONY-612
p6065
aVHARMONY-611
p6066
aVHARMONY-610
p6067
aVHARMONY-609
p6068
aVHARMONY-608
p6069
aVHARMONY-607
p6070
aVHARMONY-606
p6071
aVHARMONY-605
p6072
aVHARMONY-604
p6073
aVHARMONY-603
p6074
aVHARMONY-602
p6075
aVHARMONY-601
p6076
aVHARMONY-600
p6077
aVHARMONY-599
p6078
aVHARMONY-598
p6079
aVHARMONY-597
p6080
aVHARMONY-596
p6081
aVHARMONY-595
p6082
aVHARMONY-594
p6083
aVHARMONY-593
p6084
aVHARMONY-592
p6085
aVHARMONY-591
p6086
aVHARMONY-590
p6087
aVHARMONY-589
p6088
aVHARMONY-588
p6089
aVHARMONY-587
p6090
aVHARMONY-586
p6091
aVHARMONY-585
p6092
aVHARMONY-584
p6093
aVHARMONY-583
p6094
aVHARMONY-582
p6095
aVHARMONY-581
p6096
aVHARMONY-580
p6097
aVHARMONY-579
p6098
aVHARMONY-578
p6099
aVHARMONY-577
p6100
aVHARMONY-576
p6101
aVHARMONY-575
p6102
aVHARMONY-574
p6103
aVHARMONY-573
p6104
aVHARMONY-572
p6105
aVHARMONY-571
p6106
aVHARMONY-570
p6107
aVHARMONY-569
p6108
aVHARMONY-568
p6109
aVHARMONY-567
p6110
aVHARMONY-566
p6111
aVHARMONY-565
p6112
aVHARMONY-564
p6113
aVHARMONY-563
p6114
aVHARMONY-562
p6115
aVHARMONY-561
p6116
aVHARMONY-560
p6117
aVHARMONY-559
p6118
aVHARMONY-558
p6119
aVHARMONY-557
p6120
aVHARMONY-556
p6121
aVHARMONY-555
p6122
aVHARMONY-554
p6123
aVHARMONY-553
p6124
aVHARMONY-552
p6125
aVHARMONY-551
p6126
aVHARMONY-550
p6127
aVHARMONY-549
p6128
aVHARMONY-548
p6129
aVHARMONY-547
p6130
aVHARMONY-546
p6131
aVHARMONY-545
p6132
aVHARMONY-544
p6133
aVHARMONY-543
p6134
aVHARMONY-542
p6135
aVHARMONY-541
p6136
aVHARMONY-540
p6137
aVHARMONY-539
p6138
aVHARMONY-538
p6139
aVHARMONY-537
p6140
aVHARMONY-536
p6141
aVHARMONY-535
p6142
aVHARMONY-534
p6143
aVHARMONY-533
p6144
aVHARMONY-532
p6145
aVHARMONY-531
p6146
aVHARMONY-530
p6147
aVHARMONY-529
p6148
aVHARMONY-528
p6149
aVHARMONY-527
p6150
aVHARMONY-526
p6151
aVHARMONY-525
p6152
aVHARMONY-524
p6153
aVHARMONY-523
p6154
aVHARMONY-522
p6155
aVHARMONY-521
p6156
aVHARMONY-520
p6157
aVHARMONY-519
p6158
aVHARMONY-518
p6159
aVHARMONY-517
p6160
aVHARMONY-516
p6161
aVHARMONY-515
p6162
aVHARMONY-514
p6163
aVHARMONY-513
p6164
aVHARMONY-512
p6165
aVHARMONY-511
p6166
aVHARMONY-510
p6167
aVHARMONY-509
p6168
aVHARMONY-508
p6169
aVHARMONY-507
p6170
aVHARMONY-506
p6171
aVHARMONY-505
p6172
aVHARMONY-504
p6173
aVHARMONY-503
p6174
aVHARMONY-502
p6175
aVHARMONY-501
p6176
aVHARMONY-500
p6177
aVHARMONY-499
p6178
aVHARMONY-498
p6179
aVHARMONY-497
p6180
aVHARMONY-496
p6181
aVHARMONY-495
p6182
aVHARMONY-494
p6183
aVHARMONY-493
p6184
aVHARMONY-492
p6185
aVHARMONY-491
p6186
aVHARMONY-490
p6187
aVHARMONY-489
p6188
aVHARMONY-488
p6189
aVHARMONY-487
p6190
aVHARMONY-486
p6191
aVHARMONY-485
p6192
aVHARMONY-484
p6193
aVHARMONY-483
p6194
aVHARMONY-482
p6195
aVHARMONY-481
p6196
aVHARMONY-480
p6197
aVHARMONY-479
p6198
aVHARMONY-478
p6199
aVHARMONY-477
p6200
aVHARMONY-476
p6201
aVHARMONY-475
p6202
aVHARMONY-474
p6203
aVHARMONY-473
p6204
aVHARMONY-472
p6205
aVHARMONY-471
p6206
aVHARMONY-470
p6207
aVHARMONY-469
p6208
aVHARMONY-468
p6209
aVHARMONY-467
p6210
aVHARMONY-466
p6211
aVHARMONY-465
p6212
aVHARMONY-464
p6213
aVHARMONY-463
p6214
aVHARMONY-462
p6215
aVHARMONY-461
p6216
aVHARMONY-460
p6217
aVHARMONY-459
p6218
aVHARMONY-458
p6219
aVHARMONY-457
p6220
aVHARMONY-456
p6221
aVHARMONY-455
p6222
aVHARMONY-454
p6223
aVHARMONY-453
p6224
aVHARMONY-452
p6225
aVHARMONY-451
p6226
aVHARMONY-450
p6227
aVHARMONY-449
p6228
aVHARMONY-448
p6229
aVHARMONY-447
p6230
aVHARMONY-446
p6231
aVHARMONY-445
p6232
aVHARMONY-444
p6233
aVHARMONY-443
p6234
aVHARMONY-442
p6235
aVHARMONY-441
p6236
aVHARMONY-440
p6237
aVHARMONY-439
p6238
aVHARMONY-438
p6239
aVHARMONY-437
p6240
aVHARMONY-436
p6241
aVHARMONY-435
p6242
aVHARMONY-434
p6243
aVHARMONY-433
p6244
aVHARMONY-432
p6245
aVHARMONY-431
p6246
aVHARMONY-430
p6247
aVHARMONY-429
p6248
aVHARMONY-428
p6249
aVHARMONY-427
p6250
aVHARMONY-426
p6251
aVHARMONY-425
p6252
aVHARMONY-424
p6253
aVHARMONY-423
p6254
aVHARMONY-422
p6255
aVHARMONY-421
p6256
aVHARMONY-420
p6257
aVHARMONY-419
p6258
aVHARMONY-418
p6259
aVHARMONY-417
p6260
aVHARMONY-416
p6261
aVHARMONY-415
p6262
aVHARMONY-414
p6263
aVHARMONY-413
p6264
aVHARMONY-412
p6265
aVHARMONY-411
p6266
aVHARMONY-410
p6267
aVHARMONY-409
p6268
aVHARMONY-408
p6269
aVHARMONY-407
p6270
aVHARMONY-406
p6271
aVHARMONY-405
p6272
aVHARMONY-404
p6273
aVHARMONY-403
p6274
aVHARMONY-402
p6275
aVHARMONY-401
p6276
aVHARMONY-400
p6277
aVHARMONY-399
p6278
aVHARMONY-398
p6279
aVHARMONY-397
p6280
aVHARMONY-396
p6281
aVHARMONY-395
p6282
aVHARMONY-394
p6283
aVHARMONY-393
p6284
aVHARMONY-392
p6285
aVHARMONY-391
p6286
aVHARMONY-390
p6287
aVHARMONY-389
p6288
aVHARMONY-388
p6289
aVHARMONY-387
p6290
aVHARMONY-386
p6291
aVHARMONY-385
p6292
aVHARMONY-384
p6293
aVHARMONY-383
p6294
aVHARMONY-382
p6295
aVHARMONY-381
p6296
aVHARMONY-380
p6297
aVHARMONY-379
p6298
aVHARMONY-378
p6299
aVHARMONY-377
p6300
aVHARMONY-376
p6301
aVHARMONY-375
p6302
aVHARMONY-374
p6303
aVHARMONY-373
p6304
aVHARMONY-372
p6305
aVHARMONY-371
p6306
aVHARMONY-370
p6307
aVHARMONY-369
p6308
aVHARMONY-368
p6309
aVHARMONY-367
p6310
aVHARMONY-366
p6311
aVHARMONY-365
p6312
aVHARMONY-364
p6313
aVHARMONY-363
p6314
aVHARMONY-362
p6315
aVHARMONY-361
p6316
aVHARMONY-360
p6317
aVHARMONY-359
p6318
aVHARMONY-358
p6319
aVHARMONY-357
p6320
aVHARMONY-356
p6321
aVHARMONY-355
p6322
aVHARMONY-354
p6323
aVHARMONY-353
p6324
aVHARMONY-352
p6325
aVHARMONY-351
p6326
aVHARMONY-350
p6327
aVHARMONY-349
p6328
aVHARMONY-348
p6329
aVHARMONY-347
p6330
aVHARMONY-346
p6331
aVHARMONY-345
p6332
aVHARMONY-344
p6333
aVHARMONY-343
p6334
aVHARMONY-342
p6335
aVHARMONY-341
p6336
aVHARMONY-340
p6337
aVHARMONY-339
p6338
aVHARMONY-338
p6339
aVHARMONY-337
p6340
aVHARMONY-336
p6341
aVHARMONY-335
p6342
aVHARMONY-334
p6343
aVHARMONY-333
p6344
aVHARMONY-332
p6345
aVHARMONY-331
p6346
aVHARMONY-330
p6347
aVHARMONY-329
p6348
aVHARMONY-328
p6349
aVHARMONY-327
p6350
aVHARMONY-326
p6351
aVHARMONY-325
p6352
aVHARMONY-324
p6353
aVHARMONY-323
p6354
aVHARMONY-322
p6355
aVHARMONY-321
p6356
aVHARMONY-320
p6357
aVHARMONY-319
p6358
aVHARMONY-318
p6359
aVHARMONY-317
p6360
aVHARMONY-316
p6361
aVHARMONY-315
p6362
aVHARMONY-314
p6363
aVHARMONY-313
p6364
aVHARMONY-312
p6365
aVHARMONY-311
p6366
aVHARMONY-310
p6367
aVHARMONY-309
p6368
aVHARMONY-308
p6369
aVHARMONY-307
p6370
aVHARMONY-306
p6371
aVHARMONY-305
p6372
aVHARMONY-304
p6373
aVHARMONY-303
p6374
aVHARMONY-302
p6375
aVHARMONY-301
p6376
aVHARMONY-300
p6377
aVHARMONY-299
p6378
aVHARMONY-298
p6379
aVHARMONY-297
p6380
aVHARMONY-296
p6381
aVHARMONY-295
p6382
aVHARMONY-294
p6383
aVHARMONY-293
p6384
aVHARMONY-292
p6385
aVHARMONY-291
p6386
aVHARMONY-290
p6387
aVHARMONY-289
p6388
aVHARMONY-288
p6389
aVHARMONY-287
p6390
aVHARMONY-286
p6391
aVHARMONY-285
p6392
aVHARMONY-284
p6393
aVHARMONY-283
p6394
aVHARMONY-282
p6395
aVHARMONY-281
p6396
aVHARMONY-280
p6397
aVHARMONY-279
p6398
aVHARMONY-278
p6399
aVHARMONY-277
p6400
aVHARMONY-276
p6401
aVHARMONY-275
p6402
aVHARMONY-274
p6403
aVHARMONY-273
p6404
aVHARMONY-272
p6405
aVHARMONY-271
p6406
aVHARMONY-270
p6407
aVHARMONY-269
p6408
aVHARMONY-268
p6409
aVHARMONY-267
p6410
aVHARMONY-266
p6411
aVHARMONY-265
p6412
aVHARMONY-264
p6413
aVHARMONY-263
p6414
aVHARMONY-262
p6415
aVHARMONY-261
p6416
aVHARMONY-260
p6417
aVHARMONY-259
p6418
aVHARMONY-258
p6419
aVHARMONY-257
p6420
aVHARMONY-256
p6421
aVHARMONY-255
p6422
aVHARMONY-254
p6423
aVHARMONY-253
p6424
aVHARMONY-252
p6425
aVHARMONY-251
p6426
aVHARMONY-250
p6427
aVHARMONY-249
p6428
aVHARMONY-248
p6429
aVHARMONY-247
p6430
aVHARMONY-246
p6431
aVHARMONY-245
p6432
aVHARMONY-244
p6433
aVHARMONY-243
p6434
aVHARMONY-242
p6435
aVHARMONY-241
p6436
aVHARMONY-240
p6437
aVHARMONY-239
p6438
aVHARMONY-238
p6439
aVHARMONY-237
p6440
aVHARMONY-236
p6441
aVHARMONY-235
p6442
aVHARMONY-234
p6443
aVHARMONY-233
p6444
aVHARMONY-232
p6445
aVHARMONY-231
p6446
aVHARMONY-230
p6447
aVHARMONY-229
p6448
aVHARMONY-228
p6449
aVHARMONY-227
p6450
aVHARMONY-226
p6451
aVHARMONY-225
p6452
aVHARMONY-224
p6453
aVHARMONY-223
p6454
aVHARMONY-222
p6455
aVHARMONY-221
p6456
aVHARMONY-220
p6457
aVHARMONY-219
p6458
aVHARMONY-218
p6459
aVHARMONY-217
p6460
aVHARMONY-216
p6461
aVHARMONY-215
p6462
aVHARMONY-214
p6463
aVHARMONY-213
p6464
aVHARMONY-212
p6465
aVHARMONY-211
p6466
aVHARMONY-210
p6467
aVHARMONY-209
p6468
aVHARMONY-208
p6469
aVHARMONY-207
p6470
aVHARMONY-206
p6471
aVHARMONY-205
p6472
aVHARMONY-204
p6473
aVHARMONY-203
p6474
aVHARMONY-202
p6475
aVHARMONY-201
p6476
aVHARMONY-200
p6477
aVHARMONY-199
p6478
aVHARMONY-198
p6479
aVHARMONY-197
p6480
aVHARMONY-196
p6481
aVHARMONY-195
p6482
aVHARMONY-194
p6483
aVHARMONY-193
p6484
aVHARMONY-192
p6485
aVHARMONY-191
p6486
aVHARMONY-190
p6487
aVHARMONY-189
p6488
aVHARMONY-188
p6489
aVHARMONY-187
p6490
aVHARMONY-186
p6491
aVHARMONY-185
p6492
aVHARMONY-184
p6493
aVHARMONY-183
p6494
aVHARMONY-182
p6495
aVHARMONY-181
p6496
aVHARMONY-180
p6497
aVHARMONY-179
p6498
aVHARMONY-178
p6499
aVHARMONY-177
p6500
aVHARMONY-176
p6501
aVHARMONY-175
p6502
aVHARMONY-174
p6503
aVHARMONY-173
p6504
aVHARMONY-172
p6505
aVHARMONY-171
p6506
aVHARMONY-170
p6507
aVHARMONY-169
p6508
aVHARMONY-168
p6509
aVHARMONY-167
p6510
aVHARMONY-166
p6511
aVHARMONY-165
p6512
aVHARMONY-164
p6513
aVHARMONY-163
p6514
aVHARMONY-162
p6515
aVHARMONY-161
p6516
aVHARMONY-160
p6517
aVHARMONY-159
p6518
aVHARMONY-158
p6519
aVHARMONY-157
p6520
aVHARMONY-156
p6521
aVHARMONY-155
p6522
aVHARMONY-154
p6523
aVHARMONY-153
p6524
aVHARMONY-152
p6525
aVHARMONY-151
p6526
aVHARMONY-150
p6527
aVHARMONY-149
p6528
aVHARMONY-148
p6529
aVHARMONY-147
p6530
aVHARMONY-146
p6531
aVHARMONY-145
p6532
aVHARMONY-144
p6533
aVHARMONY-143
p6534
aVHARMONY-142
p6535
aVHARMONY-141
p6536
aVHARMONY-140
p6537
aVHARMONY-139
p6538
aVHARMONY-138
p6539
aVHARMONY-137
p6540
aVHARMONY-136
p6541
aVHARMONY-135
p6542
aVHARMONY-134
p6543
aVHARMONY-133
p6544
aVHARMONY-132
p6545
aVHARMONY-131
p6546
aVHARMONY-130
p6547
aVHARMONY-129
p6548
aVHARMONY-128
p6549
aVHARMONY-127
p6550
aVHARMONY-126
p6551
aVHARMONY-125
p6552
aVHARMONY-124
p6553
aVHARMONY-123
p6554
aVHARMONY-122
p6555
aVHARMONY-121
p6556
aVHARMONY-120
p6557
aVHARMONY-119
p6558
aVHARMONY-118
p6559
aVHARMONY-117
p6560
aVHARMONY-116
p6561
aVHARMONY-115
p6562
aVHARMONY-114
p6563
aVHARMONY-113
p6564
aVHARMONY-112
p6565
aVHARMONY-111
p6566
aVHARMONY-110
p6567
aVHARMONY-109
p6568
aVHARMONY-108
p6569
aVHARMONY-107
p6570
aVHARMONY-106
p6571
aVHARMONY-105
p6572
aVHARMONY-104
p6573
aVHARMONY-103
p6574
aVHARMONY-102
p6575
aVHARMONY-101
p6576
aVHARMONY-100
p6577
aVHARMONY-99
p6578
aVHARMONY-98
p6579
aVHARMONY-97
p6580
aVHARMONY-96
p6581
aVHARMONY-95
p6582
aVHARMONY-94
p6583
aVHARMONY-93
p6584
aVHARMONY-92
p6585
aVHARMONY-91
p6586
aVHARMONY-90
p6587
aVHARMONY-89
p6588
aVHARMONY-88
p6589
aVHARMONY-87
p6590
aVHARMONY-86
p6591
aVHARMONY-85
p6592
aVHARMONY-84
p6593
aVHARMONY-83
p6594
aVHARMONY-82
p6595
aVHARMONY-81
p6596
aVHARMONY-80
p6597
aVHARMONY-79
p6598
aVHARMONY-78
p6599
aVHARMONY-77
p6600
aVHARMONY-76
p6601
aVHARMONY-75
p6602
aVHARMONY-74
p6603
aVHARMONY-73
p6604
aVHARMONY-72
p6605
aVHARMONY-71
p6606
aVHARMONY-70
p6607
aVHARMONY-69
p6608
aVHARMONY-68
p6609
aVHARMONY-67
p6610
aVHARMONY-66
p6611
aVHARMONY-65
p6612
aVHARMONY-64
p6613
aVHARMONY-63
p6614
aVHARMONY-62
p6615
aVHARMONY-61
p6616
aVHARMONY-60
p6617
aVHARMONY-59
p6618
aVHARMONY-58
p6619
aVHARMONY-57
p6620
aVHARMONY-56
p6621
aVHARMONY-55
p6622
aVHARMONY-54
p6623
aVHARMONY-53
p6624
aVHARMONY-52
p6625
aVHARMONY-51
p6626
aVHARMONY-50
p6627
aVHARMONY-49
p6628
aVHARMONY-48
p6629
aVHARMONY-47
p6630
aVHARMONY-46
p6631
aVHARMONY-45
p6632
aVHARMONY-44
p6633
aVHARMONY-43
p6634
aVHARMONY-42
p6635
aVHARMONY-41
p6636
aVHARMONY-40
p6637
aVHARMONY-39
p6638
aVHARMONY-38
p6639
aVHARMONY-37
p6640
aVHARMONY-36
p6641
aVHARMONY-35
p6642
aVHARMONY-34
p6643
aVHARMONY-33
p6644
aVHARMONY-32
p6645
aVHARMONY-31
p6646
aVHARMONY-30
p6647
aVHARMONY-29
p6648
aVHARMONY-28
p6649
aVHARMONY-27
p6650
aVHARMONY-26
p6651
aVHARMONY-25
p6652
aVHARMONY-24
p6653
aVHARMONY-23
p6654
aVHARMONY-22
p6655
aVHARMONY-21
p6656
aVHARMONY-20
p6657
aVHARMONY-19
p6658
aVHARMONY-18
p6659
aVHARMONY-17
p6660
aVHARMONY-16
p6661
aVHARMONY-15
p6662
aVHARMONY-14
p6663
aVHARMONY-13
p6664
aVHARMONY-12
p6665
aVHARMONY-11
p6666
aVHARMONY-10
p6667
aVHARMONY-9
p6668
aVHARMONY-8
p6669
aVHARMONY-7
p6670
aVHARMONY-6
p6671
aVHARMONY-5
p6672
aVHARMONY-4
p6673
aVHARMONY-3
p6674
aVHARMONY-2
p6675
aVHARMONY-1
p6676
a.