(lp0
VHCATALOG-650
p1
aVHCATALOG-649
p2
aVHCATALOG-648
p3
aVHCATALOG-647
p4
aVHCATALOG-646
p5
aVHCATALOG-645
p6
aVHCATALOG-644
p7
aVHCATALOG-643
p8
aVHCATALOG-642
p9
aVHCATALOG-641
p10
aVHCATALOG-640
p11
aVHCATALOG-639
p12
aVHCATALOG-638
p13
aVHCATALOG-637
p14
aVHCATALOG-636
p15
aVHCATALOG-635
p16
aVHCATALOG-634
p17
aVHCATALOG-633
p18
aVHCATALOG-632
p19
aVHCATALOG-631
p20
aVHCATALOG-630
p21
aVHCATALOG-629
p22
aVHCATALOG-628
p23
aVHCATALOG-627
p24
aVHCATALOG-626
p25
aVHCATALOG-625
p26
aVHCATALOG-624
p27
aVHCATALOG-623
p28
aVHCATALOG-622
p29
aVHCATALOG-621
p30
aVHCATALOG-620
p31
aVHCATALOG-619
p32
aVHCATALOG-618
p33
aVHCATALOG-616
p34
aVHCATALOG-615
p35
aVHCATALOG-614
p36
aVHCATALOG-613
p37
aVHCATALOG-612
p38
aVHCATALOG-611
p39
aVHCATALOG-610
p40
aVHCATALOG-609
p41
aVHCATALOG-608
p42
aVHCATALOG-607
p43
aVHCATALOG-606
p44
aVHCATALOG-605
p45
aVHCATALOG-604
p46
aVHCATALOG-603
p47
aVHCATALOG-602
p48
aVHCATALOG-601
p49
aVHCATALOG-600
p50
aVHCATALOG-599
p51
aVHCATALOG-598
p52
aVHCATALOG-597
p53
aVHCATALOG-596
p54
aVHCATALOG-595
p55
aVHCATALOG-594
p56
aVHCATALOG-593
p57
aVHCATALOG-592
p58
aVHCATALOG-591
p59
aVHCATALOG-590
p60
aVHCATALOG-589
p61
aVHCATALOG-588
p62
aVHCATALOG-587
p63
aVHCATALOG-586
p64
aVHCATALOG-585
p65
aVHCATALOG-584
p66
aVHCATALOG-583
p67
aVHCATALOG-582
p68
aVHCATALOG-581
p69
aVHCATALOG-580
p70
aVHCATALOG-579
p71
aVHCATALOG-578
p72
aVHCATALOG-577
p73
aVHCATALOG-576
p74
aVHCATALOG-575
p75
aVHCATALOG-574
p76
aVHCATALOG-573
p77
aVHCATALOG-572
p78
aVHCATALOG-571
p79
aVHCATALOG-570
p80
aVHCATALOG-569
p81
aVHCATALOG-568
p82
aVHCATALOG-567
p83
aVHCATALOG-566
p84
aVHCATALOG-565
p85
aVHCATALOG-564
p86
aVHCATALOG-563
p87
aVHCATALOG-562
p88
aVHCATALOG-561
p89
aVHCATALOG-560
p90
aVHCATALOG-559
p91
aVHCATALOG-558
p92
aVHCATALOG-557
p93
aVHCATALOG-556
p94
aVHCATALOG-555
p95
aVHCATALOG-554
p96
aVHCATALOG-553
p97
aVHCATALOG-552
p98
aVHCATALOG-551
p99
aVHCATALOG-550
p100
aVHCATALOG-549
p101
aVHCATALOG-548
p102
aVHCATALOG-547
p103
aVHCATALOG-546
p104
aVHCATALOG-545
p105
aVHCATALOG-544
p106
aVHCATALOG-543
p107
aVHCATALOG-542
p108
aVHCATALOG-541
p109
aVHCATALOG-540
p110
aVHCATALOG-539
p111
aVHCATALOG-538
p112
aVHCATALOG-537
p113
aVHCATALOG-536
p114
aVHCATALOG-535
p115
aVHCATALOG-534
p116
aVHCATALOG-533
p117
aVHCATALOG-532
p118
aVHCATALOG-531
p119
aVHCATALOG-530
p120
aVHCATALOG-529
p121
aVHCATALOG-528
p122
aVHCATALOG-527
p123
aVHCATALOG-526
p124
aVHCATALOG-525
p125
aVHCATALOG-524
p126
aVHCATALOG-523
p127
aVHCATALOG-522
p128
aVHCATALOG-521
p129
aVHCATALOG-520
p130
aVHCATALOG-519
p131
aVHCATALOG-518
p132
aVHCATALOG-517
p133
aVHCATALOG-516
p134
aVHCATALOG-515
p135
aVHCATALOG-514
p136
aVHCATALOG-513
p137
aVHCATALOG-512
p138
aVHCATALOG-511
p139
aVHCATALOG-510
p140
aVHCATALOG-509
p141
aVHCATALOG-508
p142
aVHCATALOG-507
p143
aVHCATALOG-506
p144
aVHCATALOG-505
p145
aVHCATALOG-504
p146
aVHCATALOG-503
p147
aVHCATALOG-502
p148
aVHCATALOG-501
p149
aVHCATALOG-500
p150
aVHCATALOG-499
p151
aVHCATALOG-498
p152
aVHCATALOG-497
p153
aVHCATALOG-496
p154
aVHCATALOG-495
p155
aVHCATALOG-494
p156
aVHCATALOG-493
p157
aVHCATALOG-492
p158
aVHCATALOG-491
p159
aVHCATALOG-490
p160
aVHCATALOG-489
p161
aVHCATALOG-488
p162
aVHCATALOG-487
p163
aVHCATALOG-486
p164
aVHCATALOG-485
p165
aVHCATALOG-484
p166
aVHCATALOG-483
p167
aVHCATALOG-482
p168
aVHCATALOG-481
p169
aVHCATALOG-480
p170
aVHCATALOG-479
p171
aVHCATALOG-478
p172
aVHCATALOG-477
p173
aVHCATALOG-476
p174
aVHCATALOG-475
p175
aVHCATALOG-474
p176
aVHCATALOG-473
p177
aVHCATALOG-472
p178
aVHCATALOG-471
p179
aVHCATALOG-470
p180
aVHCATALOG-469
p181
aVHCATALOG-468
p182
aVHCATALOG-467
p183
aVHCATALOG-466
p184
aVHCATALOG-465
p185
aVHCATALOG-464
p186
aVHCATALOG-463
p187
aVHCATALOG-462
p188
aVHCATALOG-461
p189
aVHCATALOG-460
p190
aVHCATALOG-459
p191
aVHCATALOG-458
p192
aVHCATALOG-457
p193
aVHCATALOG-456
p194
aVHCATALOG-455
p195
aVHCATALOG-454
p196
aVHCATALOG-453
p197
aVHCATALOG-452
p198
aVHCATALOG-451
p199
aVHCATALOG-450
p200
aVHCATALOG-449
p201
aVHCATALOG-448
p202
aVHCATALOG-447
p203
aVHCATALOG-446
p204
aVHCATALOG-445
p205
aVHCATALOG-444
p206
aVHCATALOG-443
p207
aVHCATALOG-442
p208
aVHCATALOG-441
p209
aVHCATALOG-440
p210
aVHCATALOG-439
p211
aVHCATALOG-438
p212
aVHCATALOG-437
p213
aVHCATALOG-436
p214
aVHCATALOG-435
p215
aVHCATALOG-434
p216
aVHCATALOG-433
p217
aVHCATALOG-432
p218
aVHCATALOG-431
p219
aVHCATALOG-430
p220
aVHCATALOG-429
p221
aVHCATALOG-428
p222
aVHCATALOG-427
p223
aVHCATALOG-426
p224
aVHCATALOG-425
p225
aVHCATALOG-424
p226
aVHCATALOG-423
p227
aVHCATALOG-422
p228
aVHCATALOG-421
p229
aVHCATALOG-420
p230
aVHCATALOG-419
p231
aVHCATALOG-418
p232
aVHCATALOG-417
p233
aVHCATALOG-416
p234
aVHCATALOG-415
p235
aVHCATALOG-414
p236
aVHCATALOG-413
p237
aVHCATALOG-412
p238
aVHCATALOG-411
p239
aVHCATALOG-410
p240
aVHCATALOG-409
p241
aVHCATALOG-408
p242
aVHCATALOG-407
p243
aVHCATALOG-406
p244
aVHCATALOG-405
p245
aVHCATALOG-404
p246
aVHCATALOG-403
p247
aVHCATALOG-402
p248
aVHCATALOG-401
p249
aVHCATALOG-400
p250
aVHCATALOG-399
p251
aVHCATALOG-398
p252
aVHCATALOG-397
p253
aVHCATALOG-396
p254
aVHCATALOG-395
p255
aVHCATALOG-394
p256
aVHCATALOG-393
p257
aVHCATALOG-392
p258
aVHCATALOG-391
p259
aVHCATALOG-390
p260
aVHCATALOG-389
p261
aVHCATALOG-388
p262
aVHCATALOG-387
p263
aVHCATALOG-386
p264
aVHCATALOG-385
p265
aVHCATALOG-384
p266
aVHCATALOG-383
p267
aVHCATALOG-382
p268
aVHCATALOG-381
p269
aVHCATALOG-380
p270
aVHCATALOG-379
p271
aVHCATALOG-378
p272
aVHCATALOG-377
p273
aVHCATALOG-376
p274
aVHCATALOG-375
p275
aVHCATALOG-374
p276
aVHCATALOG-373
p277
aVHCATALOG-372
p278
aVHCATALOG-371
p279
aVHCATALOG-370
p280
aVHCATALOG-369
p281
aVHCATALOG-368
p282
aVHCATALOG-367
p283
aVHCATALOG-366
p284
aVHCATALOG-365
p285
aVHCATALOG-364
p286
aVHCATALOG-363
p287
aVHCATALOG-362
p288
aVHCATALOG-361
p289
aVHCATALOG-360
p290
aVHCATALOG-359
p291
aVHCATALOG-358
p292
aVHCATALOG-357
p293
aVHCATALOG-356
p294
aVHCATALOG-355
p295
aVHCATALOG-354
p296
aVHCATALOG-353
p297
aVHCATALOG-352
p298
aVHCATALOG-351
p299
aVHCATALOG-350
p300
aVHCATALOG-349
p301
aVHCATALOG-348
p302
aVHCATALOG-347
p303
aVHCATALOG-346
p304
aVHCATALOG-345
p305
aVHCATALOG-344
p306
aVHCATALOG-343
p307
aVHCATALOG-342
p308
aVHCATALOG-341
p309
aVHCATALOG-340
p310
aVHCATALOG-339
p311
aVHCATALOG-338
p312
aVHCATALOG-337
p313
aVHCATALOG-336
p314
aVHCATALOG-335
p315
aVHCATALOG-334
p316
aVHCATALOG-333
p317
aVHCATALOG-332
p318
aVHCATALOG-331
p319
aVHCATALOG-330
p320
aVHCATALOG-329
p321
aVHCATALOG-328
p322
aVHCATALOG-327
p323
aVHCATALOG-326
p324
aVHCATALOG-325
p325
aVHCATALOG-324
p326
aVHCATALOG-323
p327
aVHCATALOG-322
p328
aVHCATALOG-321
p329
aVHCATALOG-320
p330
aVHCATALOG-319
p331
aVHCATALOG-318
p332
aVHCATALOG-317
p333
aVHCATALOG-316
p334
aVHCATALOG-315
p335
aVHCATALOG-314
p336
aVHCATALOG-313
p337
aVHCATALOG-312
p338
aVHCATALOG-311
p339
aVHCATALOG-310
p340
aVHCATALOG-309
p341
aVHCATALOG-308
p342
aVHCATALOG-307
p343
aVHCATALOG-306
p344
aVHCATALOG-305
p345
aVHCATALOG-304
p346
aVHCATALOG-303
p347
aVHCATALOG-302
p348
aVHCATALOG-301
p349
aVHCATALOG-300
p350
aVHCATALOG-299
p351
aVHCATALOG-298
p352
aVHCATALOG-297
p353
aVHCATALOG-296
p354
aVHCATALOG-295
p355
aVHCATALOG-294
p356
aVHCATALOG-293
p357
aVHCATALOG-292
p358
aVHCATALOG-291
p359
aVHCATALOG-290
p360
aVHCATALOG-289
p361
aVHCATALOG-288
p362
aVHCATALOG-287
p363
aVHCATALOG-286
p364
aVHCATALOG-285
p365
aVHCATALOG-284
p366
aVHCATALOG-283
p367
aVHCATALOG-282
p368
aVHCATALOG-281
p369
aVHCATALOG-280
p370
aVHCATALOG-279
p371
aVHCATALOG-278
p372
aVHCATALOG-277
p373
aVHCATALOG-276
p374
aVHCATALOG-275
p375
aVHCATALOG-274
p376
aVHCATALOG-273
p377
aVHCATALOG-272
p378
aVHCATALOG-271
p379
aVHCATALOG-270
p380
aVHCATALOG-269
p381
aVHCATALOG-268
p382
aVHCATALOG-267
p383
aVHCATALOG-266
p384
aVHCATALOG-265
p385
aVHCATALOG-264
p386
aVHCATALOG-263
p387
aVHCATALOG-262
p388
aVHCATALOG-261
p389
aVHCATALOG-260
p390
aVHCATALOG-259
p391
aVHCATALOG-258
p392
aVHCATALOG-257
p393
aVHCATALOG-256
p394
aVHCATALOG-255
p395
aVHCATALOG-254
p396
aVHCATALOG-253
p397
aVHCATALOG-252
p398
aVHCATALOG-251
p399
aVHCATALOG-250
p400
aVHCATALOG-249
p401
aVHCATALOG-248
p402
aVHCATALOG-247
p403
aVHCATALOG-246
p404
aVHCATALOG-245
p405
aVHCATALOG-244
p406
aVHCATALOG-243
p407
aVHCATALOG-242
p408
aVHCATALOG-241
p409
aVHCATALOG-240
p410
aVHCATALOG-239
p411
aVHCATALOG-238
p412
aVHCATALOG-237
p413
aVHCATALOG-236
p414
aVHCATALOG-235
p415
aVHCATALOG-234
p416
aVHCATALOG-233
p417
aVHCATALOG-232
p418
aVHCATALOG-231
p419
aVHCATALOG-230
p420
aVHCATALOG-229
p421
aVHCATALOG-228
p422
aVHCATALOG-227
p423
aVHCATALOG-226
p424
aVHCATALOG-225
p425
aVHCATALOG-224
p426
aVHCATALOG-223
p427
aVHCATALOG-222
p428
aVHCATALOG-221
p429
aVHCATALOG-220
p430
aVHCATALOG-219
p431
aVHCATALOG-218
p432
aVHCATALOG-217
p433
aVHCATALOG-216
p434
aVHCATALOG-215
p435
aVHCATALOG-214
p436
aVHCATALOG-213
p437
aVHCATALOG-212
p438
aVHCATALOG-211
p439
aVHCATALOG-210
p440
aVHCATALOG-209
p441
aVHCATALOG-208
p442
aVHCATALOG-207
p443
aVHCATALOG-206
p444
aVHCATALOG-205
p445
aVHCATALOG-204
p446
aVHCATALOG-203
p447
aVHCATALOG-202
p448
aVHCATALOG-201
p449
aVHCATALOG-200
p450
aVHCATALOG-199
p451
aVHCATALOG-198
p452
aVHCATALOG-197
p453
aVHCATALOG-196
p454
aVHCATALOG-195
p455
aVHCATALOG-194
p456
aVHCATALOG-193
p457
aVHCATALOG-192
p458
aVHCATALOG-191
p459
aVHCATALOG-190
p460
aVHCATALOG-189
p461
aVHCATALOG-188
p462
aVHCATALOG-187
p463
aVHCATALOG-186
p464
aVHCATALOG-185
p465
aVHCATALOG-184
p466
aVHCATALOG-183
p467
aVHCATALOG-182
p468
aVHCATALOG-181
p469
aVHCATALOG-180
p470
aVHCATALOG-179
p471
aVHCATALOG-178
p472
aVHCATALOG-177
p473
aVHCATALOG-176
p474
aVHCATALOG-175
p475
aVHCATALOG-174
p476
aVHCATALOG-173
p477
aVHCATALOG-172
p478
aVHCATALOG-171
p479
aVHCATALOG-170
p480
aVHCATALOG-169
p481
aVHCATALOG-168
p482
aVHCATALOG-167
p483
aVHCATALOG-166
p484
aVHCATALOG-165
p485
aVHCATALOG-164
p486
aVHCATALOG-163
p487
aVHCATALOG-162
p488
aVHCATALOG-161
p489
aVHCATALOG-160
p490
aVHCATALOG-159
p491
aVHCATALOG-158
p492
aVHCATALOG-157
p493
aVHCATALOG-156
p494
aVHCATALOG-155
p495
aVHCATALOG-154
p496
aVHCATALOG-153
p497
aVHCATALOG-152
p498
aVHCATALOG-151
p499
aVHCATALOG-150
p500
aVHCATALOG-149
p501
aVHCATALOG-148
p502
aVHCATALOG-147
p503
aVHCATALOG-146
p504
aVHCATALOG-145
p505
aVHCATALOG-144
p506
aVHCATALOG-143
p507
aVHCATALOG-142
p508
aVHCATALOG-141
p509
aVHCATALOG-140
p510
aVHCATALOG-139
p511
aVHCATALOG-138
p512
aVHCATALOG-137
p513
aVHCATALOG-136
p514
aVHCATALOG-135
p515
aVHCATALOG-134
p516
aVHCATALOG-133
p517
aVHCATALOG-132
p518
aVHCATALOG-131
p519
aVHCATALOG-130
p520
aVHCATALOG-129
p521
aVHCATALOG-128
p522
aVHCATALOG-127
p523
aVHCATALOG-126
p524
aVHCATALOG-125
p525
aVHCATALOG-124
p526
aVHCATALOG-123
p527
aVHCATALOG-122
p528
aVHCATALOG-121
p529
aVHCATALOG-120
p530
aVHCATALOG-119
p531
aVHCATALOG-118
p532
aVHCATALOG-117
p533
aVHCATALOG-116
p534
aVHCATALOG-115
p535
aVHCATALOG-114
p536
aVHCATALOG-113
p537
aVHCATALOG-112
p538
aVHCATALOG-111
p539
aVHCATALOG-110
p540
aVHCATALOG-109
p541
aVHCATALOG-108
p542
aVHCATALOG-107
p543
aVHCATALOG-106
p544
aVHCATALOG-105
p545
aVHCATALOG-104
p546
aVHCATALOG-103
p547
aVHCATALOG-102
p548
aVHCATALOG-101
p549
aVHCATALOG-100
p550
aVHCATALOG-99
p551
aVHCATALOG-98
p552
aVHCATALOG-97
p553
aVHCATALOG-96
p554
aVHCATALOG-95
p555
aVHCATALOG-94
p556
aVHCATALOG-93
p557
aVHCATALOG-92
p558
aVHCATALOG-91
p559
aVHCATALOG-90
p560
aVHCATALOG-89
p561
aVHCATALOG-88
p562
aVHCATALOG-87
p563
aVHCATALOG-86
p564
aVHCATALOG-85
p565
aVHCATALOG-84
p566
aVHCATALOG-83
p567
aVHCATALOG-82
p568
aVHCATALOG-81
p569
aVHCATALOG-80
p570
aVHCATALOG-79
p571
aVHCATALOG-78
p572
aVHCATALOG-77
p573
aVHCATALOG-76
p574
aVHCATALOG-75
p575
aVHCATALOG-74
p576
aVHCATALOG-73
p577
aVHCATALOG-72
p578
aVHCATALOG-71
p579
aVHCATALOG-70
p580
aVHCATALOG-69
p581
aVHCATALOG-68
p582
aVHCATALOG-67
p583
aVHCATALOG-66
p584
aVHCATALOG-65
p585
aVHCATALOG-64
p586
aVHCATALOG-63
p587
aVHCATALOG-62
p588
aVHCATALOG-61
p589
aVHCATALOG-60
p590
aVHCATALOG-59
p591
aVHCATALOG-58
p592
aVHCATALOG-57
p593
aVHCATALOG-56
p594
aVHCATALOG-55
p595
aVHCATALOG-54
p596
aVHCATALOG-53
p597
aVHCATALOG-52
p598
aVHCATALOG-51
p599
aVHCATALOG-50
p600
aVHCATALOG-49
p601
aVHCATALOG-48
p602
aVHCATALOG-47
p603
aVHCATALOG-46
p604
aVHCATALOG-45
p605
aVHCATALOG-44
p606
aVHCATALOG-43
p607
aVHCATALOG-42
p608
aVHCATALOG-41
p609
aVHCATALOG-40
p610
aVHCATALOG-39
p611
aVHCATALOG-38
p612
aVHCATALOG-37
p613
aVHCATALOG-36
p614
aVHCATALOG-35
p615
aVHCATALOG-34
p616
aVHCATALOG-33
p617
aVHCATALOG-32
p618
aVHCATALOG-31
p619
aVHCATALOG-30
p620
aVHCATALOG-29
p621
aVHCATALOG-28
p622
aVHCATALOG-27
p623
aVHCATALOG-26
p624
aVHCATALOG-25
p625
aVHCATALOG-24
p626
aVHCATALOG-23
p627
aVHCATALOG-22
p628
aVHCATALOG-21
p629
aVHCATALOG-20
p630
aVHCATALOG-19
p631
aVHCATALOG-18
p632
aVHCATALOG-17
p633
aVHCATALOG-16
p634
aVHCATALOG-15
p635
aVHCATALOG-14
p636
aVHCATALOG-13
p637
aVHCATALOG-12
p638
aVHCATALOG-11
p639
aVHCATALOG-10
p640
aVHCATALOG-9
p641
aVHCATALOG-8
p642
aVHCATALOG-7
p643
aVHCATALOG-6
p644
aVHCATALOG-5
p645
aVHCATALOG-4
p646
aVHCATALOG-3
p647
aVHCATALOG-2
p648
aVHCATALOG-1
p649
a.