(lp0
VHELIX-749
p1
aVHELIX-748
p2
aVHELIX-747
p3
aVHELIX-746
p4
aVHELIX-745
p5
aVHELIX-744
p6
aVHELIX-743
p7
aVHELIX-742
p8
aVHELIX-741
p9
aVHELIX-740
p10
aVHELIX-739
p11
aVHELIX-738
p12
aVHELIX-737
p13
aVHELIX-736
p14
aVHELIX-735
p15
aVHELIX-734
p16
aVHELIX-733
p17
aVHELIX-732
p18
aVHELIX-731
p19
aVHELIX-730
p20
aVHELIX-729
p21
aVHELIX-728
p22
aVHELIX-727
p23
aVHELIX-726
p24
aVHELIX-725
p25
aVHELIX-724
p26
aVHELIX-723
p27
aVHELIX-722
p28
aVHELIX-721
p29
aVHELIX-720
p30
aVHELIX-719
p31
aVHELIX-718
p32
aVHELIX-717
p33
aVHELIX-716
p34
aVHELIX-715
p35
aVHELIX-714
p36
aVHELIX-713
p37
aVHELIX-712
p38
aVHELIX-711
p39
aVHELIX-710
p40
aVHELIX-709
p41
aVHELIX-708
p42
aVHELIX-707
p43
aVHELIX-706
p44
aVHELIX-705
p45
aVHELIX-704
p46
aVHELIX-703
p47
aVHELIX-702
p48
aVHELIX-701
p49
aVHELIX-700
p50
aVHELIX-699
p51
aVHELIX-698
p52
aVHELIX-697
p53
aVHELIX-696
p54
aVHELIX-695
p55
aVHELIX-694
p56
aVHELIX-693
p57
aVHELIX-692
p58
aVHELIX-691
p59
aVHELIX-690
p60
aVHELIX-689
p61
aVHELIX-688
p62
aVHELIX-687
p63
aVHELIX-686
p64
aVHELIX-685
p65
aVHELIX-684
p66
aVHELIX-683
p67
aVHELIX-682
p68
aVHELIX-681
p69
aVHELIX-680
p70
aVHELIX-679
p71
aVHELIX-678
p72
aVHELIX-677
p73
aVHELIX-676
p74
aVHELIX-675
p75
aVHELIX-674
p76
aVHELIX-673
p77
aVHELIX-672
p78
aVHELIX-671
p79
aVHELIX-670
p80
aVHELIX-669
p81
aVHELIX-668
p82
aVHELIX-667
p83
aVHELIX-666
p84
aVHELIX-665
p85
aVHELIX-664
p86
aVHELIX-663
p87
aVHELIX-662
p88
aVHELIX-661
p89
aVHELIX-660
p90
aVHELIX-659
p91
aVHELIX-658
p92
aVHELIX-657
p93
aVHELIX-656
p94
aVHELIX-655
p95
aVHELIX-654
p96
aVHELIX-653
p97
aVHELIX-652
p98
aVHELIX-651
p99
aVHELIX-650
p100
aVHELIX-649
p101
aVHELIX-648
p102
aVHELIX-647
p103
aVHELIX-646
p104
aVHELIX-645
p105
aVHELIX-644
p106
aVHELIX-643
p107
aVHELIX-642
p108
aVHELIX-641
p109
aVHELIX-640
p110
aVHELIX-639
p111
aVHELIX-638
p112
aVHELIX-637
p113
aVHELIX-636
p114
aVHELIX-635
p115
aVHELIX-634
p116
aVHELIX-633
p117
aVHELIX-632
p118
aVHELIX-631
p119
aVHELIX-630
p120
aVHELIX-629
p121
aVHELIX-628
p122
aVHELIX-627
p123
aVHELIX-626
p124
aVHELIX-625
p125
aVHELIX-624
p126
aVHELIX-623
p127
aVHELIX-622
p128
aVHELIX-621
p129
aVHELIX-620
p130
aVHELIX-619
p131
aVHELIX-618
p132
aVHELIX-617
p133
aVHELIX-616
p134
aVHELIX-615
p135
aVHELIX-614
p136
aVHELIX-613
p137
aVHELIX-612
p138
aVHELIX-611
p139
aVHELIX-610
p140
aVHELIX-609
p141
aVHELIX-608
p142
aVHELIX-607
p143
aVHELIX-606
p144
aVHELIX-605
p145
aVHELIX-604
p146
aVHELIX-603
p147
aVHELIX-602
p148
aVHELIX-601
p149
aVHELIX-600
p150
aVHELIX-599
p151
aVHELIX-598
p152
aVHELIX-597
p153
aVHELIX-596
p154
aVHELIX-595
p155
aVHELIX-594
p156
aVHELIX-593
p157
aVHELIX-592
p158
aVHELIX-591
p159
aVHELIX-590
p160
aVHELIX-589
p161
aVHELIX-588
p162
aVHELIX-587
p163
aVHELIX-586
p164
aVHELIX-585
p165
aVHELIX-584
p166
aVHELIX-583
p167
aVHELIX-582
p168
aVHELIX-581
p169
aVHELIX-580
p170
aVHELIX-579
p171
aVHELIX-578
p172
aVHELIX-577
p173
aVHELIX-576
p174
aVHELIX-575
p175
aVHELIX-574
p176
aVHELIX-573
p177
aVHELIX-572
p178
aVHELIX-571
p179
aVHELIX-570
p180
aVHELIX-569
p181
aVHELIX-568
p182
aVHELIX-567
p183
aVHELIX-566
p184
aVHELIX-565
p185
aVHELIX-564
p186
aVHELIX-563
p187
aVHELIX-562
p188
aVHELIX-561
p189
aVHELIX-560
p190
aVHELIX-559
p191
aVHELIX-558
p192
aVHELIX-557
p193
aVHELIX-556
p194
aVHELIX-555
p195
aVHELIX-554
p196
aVHELIX-553
p197
aVHELIX-552
p198
aVHELIX-551
p199
aVHELIX-550
p200
aVHELIX-549
p201
aVHELIX-548
p202
aVHELIX-547
p203
aVHELIX-546
p204
aVHELIX-545
p205
aVHELIX-544
p206
aVHELIX-543
p207
aVHELIX-542
p208
aVHELIX-541
p209
aVHELIX-540
p210
aVHELIX-539
p211
aVHELIX-538
p212
aVHELIX-537
p213
aVHELIX-536
p214
aVHELIX-535
p215
aVHELIX-534
p216
aVHELIX-533
p217
aVHELIX-532
p218
aVHELIX-531
p219
aVHELIX-530
p220
aVHELIX-529
p221
aVHELIX-528
p222
aVHELIX-527
p223
aVHELIX-526
p224
aVHELIX-525
p225
aVHELIX-524
p226
aVHELIX-523
p227
aVHELIX-522
p228
aVHELIX-521
p229
aVHELIX-520
p230
aVHELIX-519
p231
aVHELIX-518
p232
aVHELIX-517
p233
aVHELIX-516
p234
aVHELIX-515
p235
aVHELIX-514
p236
aVHELIX-513
p237
aVHELIX-512
p238
aVHELIX-511
p239
aVHELIX-510
p240
aVHELIX-509
p241
aVHELIX-508
p242
aVHELIX-507
p243
aVHELIX-506
p244
aVHELIX-505
p245
aVHELIX-504
p246
aVHELIX-503
p247
aVHELIX-502
p248
aVHELIX-501
p249
aVHELIX-500
p250
aVHELIX-499
p251
aVHELIX-498
p252
aVHELIX-497
p253
aVHELIX-496
p254
aVHELIX-495
p255
aVHELIX-494
p256
aVHELIX-493
p257
aVHELIX-492
p258
aVHELIX-491
p259
aVHELIX-490
p260
aVHELIX-489
p261
aVHELIX-488
p262
aVHELIX-487
p263
aVHELIX-486
p264
aVHELIX-485
p265
aVHELIX-484
p266
aVHELIX-483
p267
aVHELIX-482
p268
aVHELIX-481
p269
aVHELIX-480
p270
aVHELIX-479
p271
aVHELIX-478
p272
aVHELIX-477
p273
aVHELIX-476
p274
aVHELIX-475
p275
aVHELIX-474
p276
aVHELIX-473
p277
aVHELIX-472
p278
aVHELIX-471
p279
aVHELIX-470
p280
aVHELIX-469
p281
aVHELIX-468
p282
aVHELIX-467
p283
aVHELIX-466
p284
aVHELIX-465
p285
aVHELIX-464
p286
aVHELIX-463
p287
aVHELIX-462
p288
aVHELIX-461
p289
aVHELIX-460
p290
aVHELIX-459
p291
aVHELIX-458
p292
aVHELIX-457
p293
aVHELIX-456
p294
aVHELIX-455
p295
aVHELIX-454
p296
aVHELIX-453
p297
aVHELIX-452
p298
aVHELIX-451
p299
aVHELIX-450
p300
aVHELIX-449
p301
aVHELIX-448
p302
aVHELIX-447
p303
aVHELIX-446
p304
aVHELIX-445
p305
aVHELIX-444
p306
aVHELIX-443
p307
aVHELIX-442
p308
aVHELIX-441
p309
aVHELIX-440
p310
aVHELIX-439
p311
aVHELIX-438
p312
aVHELIX-437
p313
aVHELIX-436
p314
aVHELIX-435
p315
aVHELIX-434
p316
aVHELIX-433
p317
aVHELIX-432
p318
aVHELIX-431
p319
aVHELIX-430
p320
aVHELIX-429
p321
aVHELIX-428
p322
aVHELIX-427
p323
aVHELIX-426
p324
aVHELIX-425
p325
aVHELIX-424
p326
aVHELIX-423
p327
aVHELIX-422
p328
aVHELIX-421
p329
aVHELIX-420
p330
aVHELIX-419
p331
aVHELIX-418
p332
aVHELIX-417
p333
aVHELIX-416
p334
aVHELIX-415
p335
aVHELIX-414
p336
aVHELIX-413
p337
aVHELIX-412
p338
aVHELIX-411
p339
aVHELIX-410
p340
aVHELIX-409
p341
aVHELIX-408
p342
aVHELIX-407
p343
aVHELIX-406
p344
aVHELIX-405
p345
aVHELIX-404
p346
aVHELIX-403
p347
aVHELIX-402
p348
aVHELIX-401
p349
aVHELIX-400
p350
aVHELIX-399
p351
aVHELIX-398
p352
aVHELIX-397
p353
aVHELIX-396
p354
aVHELIX-395
p355
aVHELIX-394
p356
aVHELIX-393
p357
aVHELIX-392
p358
aVHELIX-391
p359
aVHELIX-390
p360
aVHELIX-389
p361
aVHELIX-388
p362
aVHELIX-387
p363
aVHELIX-386
p364
aVHELIX-385
p365
aVHELIX-384
p366
aVHELIX-383
p367
aVHELIX-382
p368
aVHELIX-381
p369
aVHELIX-380
p370
aVHELIX-379
p371
aVHELIX-378
p372
aVHELIX-377
p373
aVHELIX-376
p374
aVHELIX-375
p375
aVHELIX-374
p376
aVHELIX-373
p377
aVHELIX-372
p378
aVHELIX-371
p379
aVHELIX-370
p380
aVHELIX-369
p381
aVHELIX-368
p382
aVHELIX-367
p383
aVHELIX-366
p384
aVHELIX-365
p385
aVHELIX-364
p386
aVHELIX-363
p387
aVHELIX-362
p388
aVHELIX-361
p389
aVHELIX-360
p390
aVHELIX-359
p391
aVHELIX-358
p392
aVHELIX-357
p393
aVHELIX-356
p394
aVHELIX-355
p395
aVHELIX-354
p396
aVHELIX-353
p397
aVHELIX-352
p398
aVHELIX-351
p399
aVHELIX-350
p400
aVHELIX-349
p401
aVHELIX-348
p402
aVHELIX-347
p403
aVHELIX-346
p404
aVHELIX-345
p405
aVHELIX-344
p406
aVHELIX-343
p407
aVHELIX-342
p408
aVHELIX-341
p409
aVHELIX-340
p410
aVHELIX-339
p411
aVHELIX-338
p412
aVHELIX-337
p413
aVHELIX-336
p414
aVHELIX-335
p415
aVHELIX-334
p416
aVHELIX-333
p417
aVHELIX-332
p418
aVHELIX-331
p419
aVHELIX-330
p420
aVHELIX-329
p421
aVHELIX-328
p422
aVHELIX-327
p423
aVHELIX-326
p424
aVHELIX-325
p425
aVHELIX-324
p426
aVHELIX-323
p427
aVHELIX-322
p428
aVHELIX-321
p429
aVHELIX-320
p430
aVHELIX-319
p431
aVHELIX-318
p432
aVHELIX-317
p433
aVHELIX-316
p434
aVHELIX-315
p435
aVHELIX-314
p436
aVHELIX-313
p437
aVHELIX-312
p438
aVHELIX-311
p439
aVHELIX-310
p440
aVHELIX-309
p441
aVHELIX-308
p442
aVHELIX-307
p443
aVHELIX-306
p444
aVHELIX-305
p445
aVHELIX-304
p446
aVHELIX-303
p447
aVHELIX-302
p448
aVHELIX-301
p449
aVHELIX-300
p450
aVHELIX-299
p451
aVHELIX-298
p452
aVHELIX-297
p453
aVHELIX-296
p454
aVHELIX-295
p455
aVHELIX-294
p456
aVHELIX-293
p457
aVHELIX-292
p458
aVHELIX-291
p459
aVHELIX-290
p460
aVHELIX-289
p461
aVHELIX-288
p462
aVHELIX-287
p463
aVHELIX-286
p464
aVHELIX-285
p465
aVHELIX-284
p466
aVHELIX-283
p467
aVHELIX-282
p468
aVHELIX-281
p469
aVHELIX-280
p470
aVHELIX-279
p471
aVHELIX-278
p472
aVHELIX-277
p473
aVHELIX-276
p474
aVHELIX-275
p475
aVHELIX-274
p476
aVHELIX-273
p477
aVHELIX-272
p478
aVHELIX-271
p479
aVHELIX-270
p480
aVHELIX-269
p481
aVHELIX-268
p482
aVHELIX-267
p483
aVHELIX-266
p484
aVHELIX-265
p485
aVHELIX-264
p486
aVHELIX-263
p487
aVHELIX-262
p488
aVHELIX-261
p489
aVHELIX-260
p490
aVHELIX-259
p491
aVHELIX-258
p492
aVHELIX-257
p493
aVHELIX-256
p494
aVHELIX-255
p495
aVHELIX-254
p496
aVHELIX-253
p497
aVHELIX-252
p498
aVHELIX-251
p499
aVHELIX-250
p500
aVHELIX-249
p501
aVHELIX-248
p502
aVHELIX-247
p503
aVHELIX-246
p504
aVHELIX-245
p505
aVHELIX-244
p506
aVHELIX-243
p507
aVHELIX-242
p508
aVHELIX-241
p509
aVHELIX-240
p510
aVHELIX-239
p511
aVHELIX-238
p512
aVHELIX-237
p513
aVHELIX-236
p514
aVHELIX-235
p515
aVHELIX-234
p516
aVHELIX-233
p517
aVHELIX-232
p518
aVHELIX-231
p519
aVHELIX-230
p520
aVHELIX-229
p521
aVHELIX-228
p522
aVHELIX-227
p523
aVHELIX-226
p524
aVHELIX-225
p525
aVHELIX-224
p526
aVHELIX-223
p527
aVHELIX-222
p528
aVHELIX-221
p529
aVHELIX-220
p530
aVHELIX-219
p531
aVHELIX-218
p532
aVHELIX-217
p533
aVHELIX-216
p534
aVHELIX-215
p535
aVHELIX-214
p536
aVHELIX-213
p537
aVHELIX-212
p538
aVHELIX-211
p539
aVHELIX-210
p540
aVHELIX-209
p541
aVHELIX-208
p542
aVHELIX-207
p543
aVHELIX-206
p544
aVHELIX-205
p545
aVHELIX-204
p546
aVHELIX-203
p547
aVHELIX-202
p548
aVHELIX-201
p549
aVHELIX-200
p550
aVHELIX-199
p551
aVHELIX-198
p552
aVHELIX-197
p553
aVHELIX-196
p554
aVHELIX-195
p555
aVHELIX-194
p556
aVHELIX-193
p557
aVHELIX-192
p558
aVHELIX-191
p559
aVHELIX-190
p560
aVHELIX-189
p561
aVHELIX-188
p562
aVHELIX-187
p563
aVHELIX-186
p564
aVHELIX-185
p565
aVHELIX-184
p566
aVHELIX-183
p567
aVHELIX-182
p568
aVHELIX-181
p569
aVHELIX-180
p570
aVHELIX-179
p571
aVHELIX-178
p572
aVHELIX-177
p573
aVHELIX-176
p574
aVHELIX-175
p575
aVHELIX-174
p576
aVHELIX-173
p577
aVHELIX-172
p578
aVHELIX-171
p579
aVHELIX-170
p580
aVHELIX-169
p581
aVHELIX-168
p582
aVHELIX-167
p583
aVHELIX-166
p584
aVHELIX-165
p585
aVHELIX-164
p586
aVHELIX-163
p587
aVHELIX-162
p588
aVHELIX-161
p589
aVHELIX-160
p590
aVHELIX-159
p591
aVHELIX-158
p592
aVHELIX-157
p593
aVHELIX-156
p594
aVHELIX-155
p595
aVHELIX-154
p596
aVHELIX-153
p597
aVHELIX-152
p598
aVHELIX-151
p599
aVHELIX-150
p600
aVHELIX-149
p601
aVHELIX-148
p602
aVHELIX-147
p603
aVHELIX-146
p604
aVHELIX-145
p605
aVHELIX-144
p606
aVHELIX-143
p607
aVHELIX-142
p608
aVHELIX-141
p609
aVHELIX-140
p610
aVHELIX-139
p611
aVHELIX-138
p612
aVHELIX-137
p613
aVHELIX-136
p614
aVHELIX-135
p615
aVHELIX-134
p616
aVHELIX-133
p617
aVHELIX-132
p618
aVHELIX-131
p619
aVHELIX-130
p620
aVHELIX-129
p621
aVHELIX-128
p622
aVHELIX-127
p623
aVHELIX-126
p624
aVHELIX-125
p625
aVHELIX-124
p626
aVHELIX-123
p627
aVHELIX-122
p628
aVHELIX-121
p629
aVHELIX-120
p630
aVHELIX-119
p631
aVHELIX-118
p632
aVHELIX-117
p633
aVHELIX-116
p634
aVHELIX-115
p635
aVHELIX-114
p636
aVHELIX-113
p637
aVHELIX-112
p638
aVHELIX-111
p639
aVHELIX-110
p640
aVHELIX-109
p641
aVHELIX-108
p642
aVHELIX-107
p643
aVHELIX-106
p644
aVHELIX-105
p645
aVHELIX-104
p646
aVHELIX-103
p647
aVHELIX-102
p648
aVHELIX-101
p649
aVHELIX-100
p650
aVHELIX-99
p651
aVHELIX-98
p652
aVHELIX-97
p653
aVHELIX-96
p654
aVHELIX-95
p655
aVHELIX-94
p656
aVHELIX-93
p657
aVHELIX-92
p658
aVHELIX-91
p659
aVHELIX-90
p660
aVHELIX-89
p661
aVHELIX-88
p662
aVHELIX-87
p663
aVHELIX-86
p664
aVHELIX-85
p665
aVHELIX-84
p666
aVHELIX-83
p667
aVHELIX-82
p668
aVHELIX-81
p669
aVHELIX-80
p670
aVHELIX-79
p671
aVHELIX-78
p672
aVHELIX-77
p673
aVHELIX-76
p674
aVHELIX-75
p675
aVHELIX-74
p676
aVHELIX-73
p677
aVHELIX-72
p678
aVHELIX-71
p679
aVHELIX-70
p680
aVHELIX-69
p681
aVHELIX-68
p682
aVHELIX-67
p683
aVHELIX-66
p684
aVHELIX-65
p685
aVHELIX-64
p686
aVHELIX-63
p687
aVHELIX-62
p688
aVHELIX-61
p689
aVHELIX-60
p690
aVHELIX-59
p691
aVHELIX-58
p692
aVHELIX-57
p693
aVHELIX-56
p694
aVHELIX-55
p695
aVHELIX-54
p696
aVHELIX-53
p697
aVHELIX-52
p698
aVHELIX-51
p699
aVHELIX-50
p700
aVHELIX-49
p701
aVHELIX-48
p702
aVHELIX-47
p703
aVHELIX-46
p704
aVHELIX-45
p705
aVHELIX-44
p706
aVHELIX-43
p707
aVHELIX-42
p708
aVHELIX-41
p709
aVHELIX-40
p710
aVHELIX-39
p711
aVHELIX-38
p712
aVHELIX-37
p713
aVHELIX-36
p714
aVHELIX-35
p715
aVHELIX-34
p716
aVHELIX-33
p717
aVHELIX-32
p718
aVHELIX-31
p719
aVHELIX-30
p720
aVHELIX-29
p721
aVHELIX-28
p722
aVHELIX-27
p723
aVHELIX-26
p724
aVHELIX-25
p725
aVHELIX-24
p726
aVHELIX-23
p727
aVHELIX-22
p728
aVHELIX-21
p729
aVHELIX-20
p730
aVHELIX-19
p731
aVHELIX-18
p732
aVHELIX-17
p733
aVHELIX-16
p734
aVHELIX-15
p735
aVHELIX-14
p736
aVHELIX-13
p737
aVHELIX-12
p738
aVHELIX-11
p739
aVHELIX-10
p740
aVHELIX-9
p741
aVHELIX-8
p742
aVHELIX-7
p743
aVHELIX-6
p744
aVHELIX-5
p745
aVHELIX-4
p746
aVHELIX-3
p747
aVHELIX-2
p748
aVHELIX-1
p749
a.