(lp0
VHUPA-117
p1
aVHUPA-116
p2
aVHUPA-115
p3
aVHUPA-114
p4
aVHUPA-113
p5
aVHUPA-112
p6
aVHUPA-111
p7
aVHUPA-110
p8
aVHUPA-109
p9
aVHUPA-108
p10
aVHUPA-107
p11
aVHUPA-106
p12
aVHUPA-105
p13
aVHUPA-104
p14
aVHUPA-103
p15
aVHUPA-102
p16
aVHUPA-101
p17
aVHUPA-100
p18
aVHUPA-99
p19
aVHUPA-98
p20
aVHUPA-97
p21
aVHUPA-96
p22
aVHUPA-95
p23
aVHUPA-94
p24
aVHUPA-93
p25
aVHUPA-92
p26
aVHUPA-91
p27
aVHUPA-90
p28
aVHUPA-89
p29
aVHUPA-88
p30
aVHUPA-87
p31
aVHUPA-86
p32
aVHUPA-85
p33
aVHUPA-84
p34
aVHUPA-83
p35
aVHUPA-82
p36
aVHUPA-81
p37
aVHUPA-80
p38
aVHUPA-79
p39
aVHUPA-78
p40
aVHUPA-77
p41
aVHUPA-76
p42
aVHUPA-75
p43
aVHUPA-74
p44
aVHUPA-73
p45
aVHUPA-72
p46
aVHUPA-71
p47
aVHUPA-70
p48
aVHUPA-69
p49
aVHUPA-68
p50
aVHUPA-67
p51
aVHUPA-66
p52
aVHUPA-65
p53
aVHUPA-64
p54
aVHUPA-63
p55
aVHUPA-62
p56
aVHUPA-61
p57
aVHUPA-60
p58
aVHUPA-59
p59
aVHUPA-58
p60
aVHUPA-57
p61
aVHUPA-56
p62
aVHUPA-55
p63
aVHUPA-54
p64
aVHUPA-53
p65
aVHUPA-52
p66
aVHUPA-51
p67
aVHUPA-50
p68
aVHUPA-49
p69
aVHUPA-48
p70
aVHUPA-47
p71
aVHUPA-46
p72
aVHUPA-45
p73
aVHUPA-44
p74
aVHUPA-43
p75
aVHUPA-42
p76
aVHUPA-41
p77
aVHUPA-40
p78
aVHUPA-39
p79
aVHUPA-38
p80
aVHUPA-37
p81
aVHUPA-36
p82
aVHUPA-35
p83
aVHUPA-34
p84
aVHUPA-33
p85
aVHUPA-32
p86
aVHUPA-31
p87
aVHUPA-30
p88
aVHUPA-29
p89
aVHUPA-28
p90
aVHUPA-27
p91
aVHUPA-26
p92
aVHUPA-25
p93
aVHUPA-24
p94
aVHUPA-23
p95
aVHUPA-22
p96
aVHUPA-21
p97
aVHUPA-20
p98
aVHUPA-19
p99
aVHUPA-18
p100
aVHUPA-17
p101
aVHUPA-16
p102
aVHUPA-15
p103
aVHUPA-14
p104
aVHUPA-13
p105
aVHUPA-12
p106
aVHUPA-11
p107
aVHUPA-10
p108
aVHUPA-9
p109
aVHUPA-8
p110
aVHUPA-7
p111
aVHUPA-6
p112
aVHUPA-5
p113
aVHUPA-4
p114
aVHUPA-3
p115
aVHUPA-2
p116
aVHUPA-1
p117
a.