(lp0
VIGNITE-9186
p1
aVIGNITE-9185
p2
aVIGNITE-9184
p3
aVIGNITE-9183
p4
aVIGNITE-9182
p5
aVIGNITE-9181
p6
aVIGNITE-9180
p7
aVIGNITE-9179
p8
aVIGNITE-9178
p9
aVIGNITE-9177
p10
aVIGNITE-9176
p11
aVIGNITE-9175
p12
aVIGNITE-9174
p13
aVIGNITE-9173
p14
aVIGNITE-9172
p15
aVIGNITE-9171
p16
aVIGNITE-9170
p17
aVIGNITE-9169
p18
aVIGNITE-9168
p19
aVIGNITE-9167
p20
aVIGNITE-9166
p21
aVIGNITE-9165
p22
aVIGNITE-9164
p23
aVIGNITE-9163
p24
aVIGNITE-9162
p25
aVIGNITE-9161
p26
aVIGNITE-9160
p27
aVIGNITE-9159
p28
aVIGNITE-9158
p29
aVIGNITE-9157
p30
aVIGNITE-9156
p31
aVIGNITE-9155
p32
aVIGNITE-9154
p33
aVIGNITE-9153
p34
aVIGNITE-9152
p35
aVIGNITE-9151
p36
aVIGNITE-9150
p37
aVIGNITE-9149
p38
aVIGNITE-9148
p39
aVIGNITE-9147
p40
aVIGNITE-9146
p41
aVIGNITE-9145
p42
aVIGNITE-9144
p43
aVIGNITE-9143
p44
aVIGNITE-9142
p45
aVIGNITE-9141
p46
aVIGNITE-9140
p47
aVIGNITE-9139
p48
aVIGNITE-9138
p49
aVIGNITE-9137
p50
aVIGNITE-9136
p51
aVIGNITE-9135
p52
aVIGNITE-9134
p53
aVIGNITE-9133
p54
aVIGNITE-9132
p55
aVIGNITE-9131
p56
aVIGNITE-9130
p57
aVIGNITE-9129
p58
aVIGNITE-9128
p59
aVIGNITE-9127
p60
aVIGNITE-9126
p61
aVIGNITE-9125
p62
aVIGNITE-9124
p63
aVIGNITE-9123
p64
aVIGNITE-9122
p65
aVIGNITE-9121
p66
aVIGNITE-9120
p67
aVIGNITE-9119
p68
aVIGNITE-9118
p69
aVIGNITE-9117
p70
aVIGNITE-9116
p71
aVIGNITE-9115
p72
aVIGNITE-9114
p73
aVIGNITE-9113
p74
aVIGNITE-9112
p75
aVIGNITE-9111
p76
aVIGNITE-9110
p77
aVIGNITE-9109
p78
aVIGNITE-9108
p79
aVIGNITE-9107
p80
aVIGNITE-9106
p81
aVIGNITE-9105
p82
aVIGNITE-9104
p83
aVIGNITE-9103
p84
aVIGNITE-9102
p85
aVIGNITE-9101
p86
aVIGNITE-9100
p87
aVIGNITE-9099
p88
aVIGNITE-9098
p89
aVIGNITE-9097
p90
aVIGNITE-9096
p91
aVIGNITE-9095
p92
aVIGNITE-9094
p93
aVIGNITE-9093
p94
aVIGNITE-9092
p95
aVIGNITE-9091
p96
aVIGNITE-9090
p97
aVIGNITE-9089
p98
aVIGNITE-9088
p99
aVIGNITE-9087
p100
aVIGNITE-9086
p101
aVIGNITE-9085
p102
aVIGNITE-9084
p103
aVIGNITE-9083
p104
aVIGNITE-9082
p105
aVIGNITE-9081
p106
aVIGNITE-9080
p107
aVIGNITE-9079
p108
aVIGNITE-9078
p109
aVIGNITE-9077
p110
aVIGNITE-9076
p111
aVIGNITE-9075
p112
aVIGNITE-9074
p113
aVIGNITE-9073
p114
aVIGNITE-9072
p115
aVIGNITE-9071
p116
aVIGNITE-9070
p117
aVIGNITE-9069
p118
aVIGNITE-9068
p119
aVIGNITE-9067
p120
aVIGNITE-9066
p121
aVIGNITE-9065
p122
aVIGNITE-9064
p123
aVIGNITE-9063
p124
aVIGNITE-9062
p125
aVIGNITE-9061
p126
aVIGNITE-9060
p127
aVIGNITE-9059
p128
aVIGNITE-9058
p129
aVIGNITE-9057
p130
aVIGNITE-9056
p131
aVIGNITE-9055
p132
aVIGNITE-9054
p133
aVIGNITE-9053
p134
aVIGNITE-9052
p135
aVIGNITE-9051
p136
aVIGNITE-9050
p137
aVIGNITE-9049
p138
aVIGNITE-9048
p139
aVIGNITE-9047
p140
aVIGNITE-9046
p141
aVIGNITE-9045
p142
aVIGNITE-9044
p143
aVIGNITE-9043
p144
aVIGNITE-9042
p145
aVIGNITE-9041
p146
aVIGNITE-9040
p147
aVIGNITE-9039
p148
aVIGNITE-9038
p149
aVIGNITE-9037
p150
aVIGNITE-9036
p151
aVIGNITE-9035
p152
aVIGNITE-9034
p153
aVIGNITE-9033
p154
aVIGNITE-9032
p155
aVIGNITE-9031
p156
aVIGNITE-9030
p157
aVIGNITE-9029
p158
aVIGNITE-9028
p159
aVIGNITE-9027
p160
aVIGNITE-9026
p161
aVIGNITE-9025
p162
aVIGNITE-9024
p163
aVIGNITE-9023
p164
aVIGNITE-9022
p165
aVIGNITE-9021
p166
aVIGNITE-9020
p167
aVIGNITE-9019
p168
aVIGNITE-9018
p169
aVIGNITE-9017
p170
aVIGNITE-9016
p171
aVIGNITE-9015
p172
aVIGNITE-9014
p173
aVIGNITE-9013
p174
aVIGNITE-9012
p175
aVIGNITE-9011
p176
aVIGNITE-9010
p177
aVIGNITE-9009
p178
aVIGNITE-9008
p179
aVIGNITE-9007
p180
aVIGNITE-9006
p181
aVIGNITE-9005
p182
aVIGNITE-9004
p183
aVIGNITE-9003
p184
aVIGNITE-9002
p185
aVIGNITE-9001
p186
aVIGNITE-9000
p187
aVIGNITE-8999
p188
aVIGNITE-8998
p189
aVIGNITE-8997
p190
aVIGNITE-8996
p191
aVIGNITE-8995
p192
aVIGNITE-8994
p193
aVIGNITE-8993
p194
aVIGNITE-8992
p195
aVIGNITE-8991
p196
aVIGNITE-8990
p197
aVIGNITE-8989
p198
aVIGNITE-8988
p199
aVIGNITE-8987
p200
aVIGNITE-8986
p201
aVIGNITE-8985
p202
aVIGNITE-8983
p203
aVIGNITE-8982
p204
aVIGNITE-8981
p205
aVIGNITE-8980
p206
aVIGNITE-8979
p207
aVIGNITE-8978
p208
aVIGNITE-8977
p209
aVIGNITE-8976
p210
aVIGNITE-8975
p211
aVIGNITE-8974
p212
aVIGNITE-8973
p213
aVIGNITE-8972
p214
aVIGNITE-8971
p215
aVIGNITE-8970
p216
aVIGNITE-8969
p217
aVIGNITE-8968
p218
aVIGNITE-8967
p219
aVIGNITE-8966
p220
aVIGNITE-8965
p221
aVIGNITE-8964
p222
aVIGNITE-8963
p223
aVIGNITE-8962
p224
aVIGNITE-8961
p225
aVIGNITE-8960
p226
aVIGNITE-8959
p227
aVIGNITE-8958
p228
aVIGNITE-8957
p229
aVIGNITE-8956
p230
aVIGNITE-8955
p231
aVIGNITE-8954
p232
aVIGNITE-8953
p233
aVIGNITE-8952
p234
aVIGNITE-8951
p235
aVIGNITE-8950
p236
aVIGNITE-8949
p237
aVIGNITE-8948
p238
aVIGNITE-8947
p239
aVIGNITE-8946
p240
aVIGNITE-8945
p241
aVIGNITE-8944
p242
aVIGNITE-8943
p243
aVIGNITE-8942
p244
aVIGNITE-8941
p245
aVIGNITE-8940
p246
aVIGNITE-8939
p247
aVIGNITE-8938
p248
aVIGNITE-8937
p249
aVIGNITE-8936
p250
aVIGNITE-8935
p251
aVIGNITE-8934
p252
aVIGNITE-8933
p253
aVIGNITE-8932
p254
aVIGNITE-8930
p255
aVIGNITE-8929
p256
aVIGNITE-8928
p257
aVIGNITE-8927
p258
aVIGNITE-8926
p259
aVIGNITE-8925
p260
aVIGNITE-8924
p261
aVIGNITE-8923
p262
aVIGNITE-8922
p263
aVIGNITE-8921
p264
aVIGNITE-8920
p265
aVIGNITE-8919
p266
aVIGNITE-8918
p267
aVIGNITE-8917
p268
aVIGNITE-8916
p269
aVIGNITE-8915
p270
aVIGNITE-8914
p271
aVIGNITE-8913
p272
aVIGNITE-8912
p273
aVIGNITE-8911
p274
aVIGNITE-8910
p275
aVIGNITE-8909
p276
aVIGNITE-8908
p277
aVIGNITE-8907
p278
aVIGNITE-8906
p279
aVIGNITE-8905
p280
aVIGNITE-8904
p281
aVIGNITE-8903
p282
aVIGNITE-8902
p283
aVIGNITE-8901
p284
aVIGNITE-8900
p285
aVIGNITE-8899
p286
aVIGNITE-8898
p287
aVIGNITE-8897
p288
aVIGNITE-8896
p289
aVIGNITE-8895
p290
aVIGNITE-8894
p291
aVIGNITE-8893
p292
aVIGNITE-8892
p293
aVIGNITE-8891
p294
aVIGNITE-8890
p295
aVIGNITE-8889
p296
aVIGNITE-8888
p297
aVIGNITE-8887
p298
aVIGNITE-8886
p299
aVIGNITE-8885
p300
aVIGNITE-8884
p301
aVIGNITE-8883
p302
aVIGNITE-8882
p303
aVIGNITE-8881
p304
aVIGNITE-8880
p305
aVIGNITE-8879
p306
aVIGNITE-8878
p307
aVIGNITE-8877
p308
aVIGNITE-8876
p309
aVIGNITE-8875
p310
aVIGNITE-8874
p311
aVIGNITE-8873
p312
aVIGNITE-8872
p313
aVIGNITE-8871
p314
aVIGNITE-8870
p315
aVIGNITE-8869
p316
aVIGNITE-8868
p317
aVIGNITE-8867
p318
aVIGNITE-8866
p319
aVIGNITE-8865
p320
aVIGNITE-8864
p321
aVIGNITE-8863
p322
aVIGNITE-8862
p323
aVIGNITE-8861
p324
aVIGNITE-8860
p325
aVIGNITE-8859
p326
aVIGNITE-8858
p327
aVIGNITE-8857
p328
aVIGNITE-8856
p329
aVIGNITE-8855
p330
aVIGNITE-8854
p331
aVIGNITE-8853
p332
aVIGNITE-8852
p333
aVIGNITE-8851
p334
aVIGNITE-8850
p335
aVIGNITE-8849
p336
aVIGNITE-8848
p337
aVIGNITE-8847
p338
aVIGNITE-8846
p339
aVIGNITE-8845
p340
aVIGNITE-8844
p341
aVIGNITE-8843
p342
aVIGNITE-8842
p343
aVIGNITE-8841
p344
aVIGNITE-8840
p345
aVIGNITE-8839
p346
aVIGNITE-8838
p347
aVIGNITE-8837
p348
aVIGNITE-8836
p349
aVIGNITE-8835
p350
aVIGNITE-8834
p351
aVIGNITE-8833
p352
aVIGNITE-8832
p353
aVIGNITE-8831
p354
aVIGNITE-8830
p355
aVIGNITE-8829
p356
aVIGNITE-8828
p357
aVIGNITE-8827
p358
aVIGNITE-8826
p359
aVIGNITE-8824
p360
aVIGNITE-8823
p361
aVIGNITE-8822
p362
aVIGNITE-8821
p363
aVIGNITE-8820
p364
aVIGNITE-8819
p365
aVIGNITE-8818
p366
aVIGNITE-8817
p367
aVIGNITE-8816
p368
aVIGNITE-8815
p369
aVIGNITE-8814
p370
aVIGNITE-8813
p371
aVIGNITE-8812
p372
aVIGNITE-8811
p373
aVIGNITE-8810
p374
aVIGNITE-8809
p375
aVIGNITE-8808
p376
aVIGNITE-8807
p377
aVIGNITE-8806
p378
aVIGNITE-8805
p379
aVIGNITE-8804
p380
aVIGNITE-8803
p381
aVIGNITE-8802
p382
aVIGNITE-8801
p383
aVIGNITE-8800
p384
aVIGNITE-8799
p385
aVIGNITE-8798
p386
aVIGNITE-8797
p387
aVIGNITE-8796
p388
aVIGNITE-8795
p389
aVIGNITE-8794
p390
aVIGNITE-8793
p391
aVIGNITE-8792
p392
aVIGNITE-8791
p393
aVIGNITE-8790
p394
aVIGNITE-8789
p395
aVIGNITE-8788
p396
aVIGNITE-8787
p397
aVIGNITE-8786
p398
aVIGNITE-8785
p399
aVIGNITE-8784
p400
aVIGNITE-8783
p401
aVIGNITE-8782
p402
aVIGNITE-8781
p403
aVIGNITE-8780
p404
aVIGNITE-8779
p405
aVIGNITE-8778
p406
aVIGNITE-8777
p407
aVIGNITE-8776
p408
aVIGNITE-8775
p409
aVIGNITE-8774
p410
aVIGNITE-8773
p411
aVIGNITE-8772
p412
aVIGNITE-8771
p413
aVIGNITE-8770
p414
aVIGNITE-8769
p415
aVIGNITE-8768
p416
aVIGNITE-8767
p417
aVIGNITE-8766
p418
aVIGNITE-8765
p419
aVIGNITE-8764
p420
aVIGNITE-8763
p421
aVIGNITE-8762
p422
aVIGNITE-8761
p423
aVIGNITE-8760
p424
aVIGNITE-8759
p425
aVIGNITE-8758
p426
aVIGNITE-8757
p427
aVIGNITE-8756
p428
aVIGNITE-8755
p429
aVIGNITE-8754
p430
aVIGNITE-8753
p431
aVIGNITE-8752
p432
aVIGNITE-8751
p433
aVIGNITE-8750
p434
aVIGNITE-8749
p435
aVIGNITE-8748
p436
aVIGNITE-8747
p437
aVIGNITE-8746
p438
aVIGNITE-8745
p439
aVIGNITE-8744
p440
aVIGNITE-8743
p441
aVIGNITE-8742
p442
aVIGNITE-8741
p443
aVIGNITE-8740
p444
aVIGNITE-8739
p445
aVIGNITE-8738
p446
aVIGNITE-8737
p447
aVIGNITE-8736
p448
aVIGNITE-8735
p449
aVIGNITE-8734
p450
aVIGNITE-8733
p451
aVIGNITE-8732
p452
aVIGNITE-8731
p453
aVIGNITE-8730
p454
aVIGNITE-8729
p455
aVIGNITE-8728
p456
aVIGNITE-8727
p457
aVIGNITE-8726
p458
aVIGNITE-8725
p459
aVIGNITE-8724
p460
aVIGNITE-8723
p461
aVIGNITE-8722
p462
aVIGNITE-8721
p463
aVIGNITE-8720
p464
aVIGNITE-8719
p465
aVIGNITE-8718
p466
aVIGNITE-8717
p467
aVIGNITE-8716
p468
aVIGNITE-8715
p469
aVIGNITE-8714
p470
aVIGNITE-8712
p471
aVIGNITE-8711
p472
aVIGNITE-8710
p473
aVIGNITE-8709
p474
aVIGNITE-8708
p475
aVIGNITE-8707
p476
aVIGNITE-8706
p477
aVIGNITE-8705
p478
aVIGNITE-8704
p479
aVIGNITE-8703
p480
aVIGNITE-8702
p481
aVIGNITE-8701
p482
aVIGNITE-8700
p483
aVIGNITE-8699
p484
aVIGNITE-8698
p485
aVIGNITE-8697
p486
aVIGNITE-8696
p487
aVIGNITE-8695
p488
aVIGNITE-8694
p489
aVIGNITE-8693
p490
aVIGNITE-8692
p491
aVIGNITE-8691
p492
aVIGNITE-8690
p493
aVIGNITE-8689
p494
aVIGNITE-8688
p495
aVIGNITE-8687
p496
aVIGNITE-8686
p497
aVIGNITE-8685
p498
aVIGNITE-8684
p499
aVIGNITE-8683
p500
aVIGNITE-8682
p501
aVIGNITE-8681
p502
aVIGNITE-8680
p503
aVIGNITE-8679
p504
aVIGNITE-8678
p505
aVIGNITE-8677
p506
aVIGNITE-8676
p507
aVIGNITE-8675
p508
aVIGNITE-8674
p509
aVIGNITE-8673
p510
aVIGNITE-8672
p511
aVIGNITE-8671
p512
aVIGNITE-8670
p513
aVIGNITE-8669
p514
aVIGNITE-8668
p515
aVIGNITE-8667
p516
aVIGNITE-8666
p517
aVIGNITE-8665
p518
aVIGNITE-8664
p519
aVIGNITE-8663
p520
aVIGNITE-8662
p521
aVIGNITE-8661
p522
aVIGNITE-8660
p523
aVIGNITE-8659
p524
aVIGNITE-8658
p525
aVIGNITE-8657
p526
aVIGNITE-8656
p527
aVIGNITE-8655
p528
aVIGNITE-8654
p529
aVIGNITE-8653
p530
aVIGNITE-8652
p531
aVIGNITE-8651
p532
aVIGNITE-8650
p533
aVIGNITE-8649
p534
aVIGNITE-8648
p535
aVIGNITE-8647
p536
aVIGNITE-8646
p537
aVIGNITE-8645
p538
aVIGNITE-8644
p539
aVIGNITE-8643
p540
aVIGNITE-8642
p541
aVIGNITE-8641
p542
aVIGNITE-8640
p543
aVIGNITE-8639
p544
aVIGNITE-8638
p545
aVIGNITE-8637
p546
aVIGNITE-8636
p547
aVIGNITE-8635
p548
aVIGNITE-8634
p549
aVIGNITE-8633
p550
aVIGNITE-8632
p551
aVIGNITE-8631
p552
aVIGNITE-8630
p553
aVIGNITE-8629
p554
aVIGNITE-8628
p555
aVIGNITE-8627
p556
aVIGNITE-8626
p557
aVIGNITE-8625
p558
aVIGNITE-8624
p559
aVIGNITE-8623
p560
aVIGNITE-8622
p561
aVIGNITE-8621
p562
aVIGNITE-8620
p563
aVIGNITE-8619
p564
aVIGNITE-8618
p565
aVIGNITE-8617
p566
aVIGNITE-8616
p567
aVIGNITE-8615
p568
aVIGNITE-8614
p569
aVIGNITE-8613
p570
aVIGNITE-8612
p571
aVIGNITE-8611
p572
aVIGNITE-8610
p573
aVIGNITE-8609
p574
aVIGNITE-8608
p575
aVIGNITE-8607
p576
aVIGNITE-8606
p577
aVIGNITE-8605
p578
aVIGNITE-8604
p579
aVIGNITE-8603
p580
aVIGNITE-8602
p581
aVIGNITE-8601
p582
aVIGNITE-8600
p583
aVIGNITE-8599
p584
aVIGNITE-8598
p585
aVIGNITE-8597
p586
aVIGNITE-8596
p587
aVIGNITE-8595
p588
aVIGNITE-8594
p589
aVIGNITE-8593
p590
aVIGNITE-8592
p591
aVIGNITE-8591
p592
aVIGNITE-8589
p593
aVIGNITE-8588
p594
aVIGNITE-8587
p595
aVIGNITE-8586
p596
aVIGNITE-8585
p597
aVIGNITE-8584
p598
aVIGNITE-8583
p599
aVIGNITE-8582
p600
aVIGNITE-8581
p601
aVIGNITE-8580
p602
aVIGNITE-8579
p603
aVIGNITE-8578
p604
aVIGNITE-8577
p605
aVIGNITE-8576
p606
aVIGNITE-8575
p607
aVIGNITE-8574
p608
aVIGNITE-8573
p609
aVIGNITE-8572
p610
aVIGNITE-8571
p611
aVIGNITE-8570
p612
aVIGNITE-8569
p613
aVIGNITE-8568
p614
aVIGNITE-8567
p615
aVIGNITE-8566
p616
aVIGNITE-8564
p617
aVIGNITE-8563
p618
aVIGNITE-8562
p619
aVIGNITE-8561
p620
aVIGNITE-8560
p621
aVIGNITE-8559
p622
aVIGNITE-8558
p623
aVIGNITE-8557
p624
aVIGNITE-8556
p625
aVIGNITE-8555
p626
aVIGNITE-8554
p627
aVIGNITE-8553
p628
aVIGNITE-8552
p629
aVIGNITE-8551
p630
aVIGNITE-8550
p631
aVIGNITE-8549
p632
aVIGNITE-8548
p633
aVIGNITE-8547
p634
aVIGNITE-8546
p635
aVIGNITE-8545
p636
aVIGNITE-8544
p637
aVIGNITE-8543
p638
aVIGNITE-8542
p639
aVIGNITE-8541
p640
aVIGNITE-8540
p641
aVIGNITE-8539
p642
aVIGNITE-8538
p643
aVIGNITE-8537
p644
aVIGNITE-8536
p645
aVIGNITE-8535
p646
aVIGNITE-8534
p647
aVIGNITE-8533
p648
aVIGNITE-8532
p649
aVIGNITE-8531
p650
aVIGNITE-8530
p651
aVIGNITE-8529
p652
aVIGNITE-8528
p653
aVIGNITE-8527
p654
aVIGNITE-8526
p655
aVIGNITE-8525
p656
aVIGNITE-8524
p657
aVIGNITE-8523
p658
aVIGNITE-8522
p659
aVIGNITE-8521
p660
aVIGNITE-8520
p661
aVIGNITE-8519
p662
aVIGNITE-8518
p663
aVIGNITE-8517
p664
aVIGNITE-8516
p665
aVIGNITE-8515
p666
aVIGNITE-8514
p667
aVIGNITE-8513
p668
aVIGNITE-8512
p669
aVIGNITE-8511
p670
aVIGNITE-8510
p671
aVIGNITE-8509
p672
aVIGNITE-8508
p673
aVIGNITE-8507
p674
aVIGNITE-8506
p675
aVIGNITE-8505
p676
aVIGNITE-8504
p677
aVIGNITE-8503
p678
aVIGNITE-8502
p679
aVIGNITE-8501
p680
aVIGNITE-8500
p681
aVIGNITE-8499
p682
aVIGNITE-8498
p683
aVIGNITE-8497
p684
aVIGNITE-8496
p685
aVIGNITE-8495
p686
aVIGNITE-8494
p687
aVIGNITE-8493
p688
aVIGNITE-8492
p689
aVIGNITE-8491
p690
aVIGNITE-8490
p691
aVIGNITE-8489
p692
aVIGNITE-8488
p693
aVIGNITE-8487
p694
aVIGNITE-8486
p695
aVIGNITE-8485
p696
aVIGNITE-8484
p697
aVIGNITE-8483
p698
aVIGNITE-8482
p699
aVIGNITE-8481
p700
aVIGNITE-8480
p701
aVIGNITE-8479
p702
aVIGNITE-8478
p703
aVIGNITE-8477
p704
aVIGNITE-8476
p705
aVIGNITE-8475
p706
aVIGNITE-8474
p707
aVIGNITE-8473
p708
aVIGNITE-8470
p709
aVIGNITE-8469
p710
aVIGNITE-8468
p711
aVIGNITE-8467
p712
aVIGNITE-8466
p713
aVIGNITE-8465
p714
aVIGNITE-8464
p715
aVIGNITE-8463
p716
aVIGNITE-8462
p717
aVIGNITE-8461
p718
aVIGNITE-8460
p719
aVIGNITE-8459
p720
aVIGNITE-8458
p721
aVIGNITE-8457
p722
aVIGNITE-8456
p723
aVIGNITE-8455
p724
aVIGNITE-8454
p725
aVIGNITE-8453
p726
aVIGNITE-8452
p727
aVIGNITE-8451
p728
aVIGNITE-8450
p729
aVIGNITE-8449
p730
aVIGNITE-8448
p731
aVIGNITE-8447
p732
aVIGNITE-8446
p733
aVIGNITE-8445
p734
aVIGNITE-8444
p735
aVIGNITE-8443
p736
aVIGNITE-8442
p737
aVIGNITE-8441
p738
aVIGNITE-8440
p739
aVIGNITE-8439
p740
aVIGNITE-8438
p741
aVIGNITE-8437
p742
aVIGNITE-8436
p743
aVIGNITE-8435
p744
aVIGNITE-8434
p745
aVIGNITE-8433
p746
aVIGNITE-8432
p747
aVIGNITE-8431
p748
aVIGNITE-8430
p749
aVIGNITE-8429
p750
aVIGNITE-8428
p751
aVIGNITE-8427
p752
aVIGNITE-8426
p753
aVIGNITE-8425
p754
aVIGNITE-8424
p755
aVIGNITE-8423
p756
aVIGNITE-8422
p757
aVIGNITE-8421
p758
aVIGNITE-8420
p759
aVIGNITE-8419
p760
aVIGNITE-8418
p761
aVIGNITE-8417
p762
aVIGNITE-8416
p763
aVIGNITE-8415
p764
aVIGNITE-8414
p765
aVIGNITE-8413
p766
aVIGNITE-8412
p767
aVIGNITE-8411
p768
aVIGNITE-8410
p769
aVIGNITE-8409
p770
aVIGNITE-8408
p771
aVIGNITE-8407
p772
aVIGNITE-8406
p773
aVIGNITE-8405
p774
aVIGNITE-8404
p775
aVIGNITE-8403
p776
aVIGNITE-8402
p777
aVIGNITE-8401
p778
aVIGNITE-8400
p779
aVIGNITE-8399
p780
aVIGNITE-8398
p781
aVIGNITE-8397
p782
aVIGNITE-8396
p783
aVIGNITE-8395
p784
aVIGNITE-8394
p785
aVIGNITE-8393
p786
aVIGNITE-8392
p787
aVIGNITE-8391
p788
aVIGNITE-8390
p789
aVIGNITE-8389
p790
aVIGNITE-8388
p791
aVIGNITE-8387
p792
aVIGNITE-8386
p793
aVIGNITE-8385
p794
aVIGNITE-8384
p795
aVIGNITE-8383
p796
aVIGNITE-8382
p797
aVIGNITE-8381
p798
aVIGNITE-8380
p799
aVIGNITE-8379
p800
aVIGNITE-8378
p801
aVIGNITE-8377
p802
aVIGNITE-8376
p803
aVIGNITE-8375
p804
aVIGNITE-8374
p805
aVIGNITE-8373
p806
aVIGNITE-8372
p807
aVIGNITE-8371
p808
aVIGNITE-8370
p809
aVIGNITE-8369
p810
aVIGNITE-8368
p811
aVIGNITE-8367
p812
aVIGNITE-8366
p813
aVIGNITE-8365
p814
aVIGNITE-8364
p815
aVIGNITE-8363
p816
aVIGNITE-8362
p817
aVIGNITE-8361
p818
aVIGNITE-8360
p819
aVIGNITE-8359
p820
aVIGNITE-8358
p821
aVIGNITE-8357
p822
aVIGNITE-8356
p823
aVIGNITE-8355
p824
aVIGNITE-8354
p825
aVIGNITE-8353
p826
aVIGNITE-8352
p827
aVIGNITE-8351
p828
aVIGNITE-8350
p829
aVIGNITE-8349
p830
aVIGNITE-8348
p831
aVIGNITE-8347
p832
aVIGNITE-8346
p833
aVIGNITE-8345
p834
aVIGNITE-8344
p835
aVIGNITE-8343
p836
aVIGNITE-8342
p837
aVIGNITE-8341
p838
aVIGNITE-8340
p839
aVIGNITE-8339
p840
aVIGNITE-8338
p841
aVIGNITE-8337
p842
aVIGNITE-8336
p843
aVIGNITE-8335
p844
aVIGNITE-8334
p845
aVIGNITE-8333
p846
aVIGNITE-8332
p847
aVIGNITE-8331
p848
aVIGNITE-8330
p849
aVIGNITE-8329
p850
aVIGNITE-8328
p851
aVIGNITE-8327
p852
aVIGNITE-8326
p853
aVIGNITE-8325
p854
aVIGNITE-8324
p855
aVIGNITE-8323
p856
aVIGNITE-8322
p857
aVIGNITE-8321
p858
aVIGNITE-8320
p859
aVIGNITE-8319
p860
aVIGNITE-8318
p861
aVIGNITE-8317
p862
aVIGNITE-8316
p863
aVIGNITE-8315
p864
aVIGNITE-8314
p865
aVIGNITE-8313
p866
aVIGNITE-8312
p867
aVIGNITE-8311
p868
aVIGNITE-8310
p869
aVIGNITE-8309
p870
aVIGNITE-8308
p871
aVIGNITE-8307
p872
aVIGNITE-8306
p873
aVIGNITE-8305
p874
aVIGNITE-8304
p875
aVIGNITE-8303
p876
aVIGNITE-8302
p877
aVIGNITE-8301
p878
aVIGNITE-8300
p879
aVIGNITE-8299
p880
aVIGNITE-8298
p881
aVIGNITE-8297
p882
aVIGNITE-8296
p883
aVIGNITE-8295
p884
aVIGNITE-8294
p885
aVIGNITE-8293
p886
aVIGNITE-8292
p887
aVIGNITE-8291
p888
aVIGNITE-8290
p889
aVIGNITE-8289
p890
aVIGNITE-8288
p891
aVIGNITE-8287
p892
aVIGNITE-8286
p893
aVIGNITE-8285
p894
aVIGNITE-8284
p895
aVIGNITE-8283
p896
aVIGNITE-8282
p897
aVIGNITE-8281
p898
aVIGNITE-8280
p899
aVIGNITE-8279
p900
aVIGNITE-8278
p901
aVIGNITE-8277
p902
aVIGNITE-8276
p903
aVIGNITE-8275
p904
aVIGNITE-8274
p905
aVIGNITE-8273
p906
aVIGNITE-8272
p907
aVIGNITE-8271
p908
aVIGNITE-8270
p909
aVIGNITE-8269
p910
aVIGNITE-8268
p911
aVIGNITE-8267
p912
aVIGNITE-8266
p913
aVIGNITE-8265
p914
aVIGNITE-8264
p915
aVIGNITE-8263
p916
aVIGNITE-8262
p917
aVIGNITE-8261
p918
aVIGNITE-8260
p919
aVIGNITE-8259
p920
aVIGNITE-8258
p921
aVIGNITE-8257
p922
aVIGNITE-8256
p923
aVIGNITE-8255
p924
aVIGNITE-8254
p925
aVIGNITE-8253
p926
aVIGNITE-8252
p927
aVIGNITE-8251
p928
aVIGNITE-8250
p929
aVIGNITE-8249
p930
aVIGNITE-8248
p931
aVIGNITE-8247
p932
aVIGNITE-8246
p933
aVIGNITE-8245
p934
aVIGNITE-8244
p935
aVIGNITE-8243
p936
aVIGNITE-8242
p937
aVIGNITE-8241
p938
aVIGNITE-8240
p939
aVIGNITE-8239
p940
aVIGNITE-8238
p941
aVIGNITE-8237
p942
aVIGNITE-8236
p943
aVIGNITE-8235
p944
aVIGNITE-8234
p945
aVIGNITE-8233
p946
aVIGNITE-8232
p947
aVIGNITE-8231
p948
aVIGNITE-8230
p949
aVIGNITE-8229
p950
aVIGNITE-8228
p951
aVIGNITE-8227
p952
aVIGNITE-8226
p953
aVIGNITE-8225
p954
aVIGNITE-8224
p955
aVIGNITE-8223
p956
aVIGNITE-8222
p957
aVIGNITE-8221
p958
aVIGNITE-8220
p959
aVIGNITE-8219
p960
aVIGNITE-8218
p961
aVIGNITE-8217
p962
aVIGNITE-8216
p963
aVIGNITE-8215
p964
aVIGNITE-8214
p965
aVIGNITE-8213
p966
aVIGNITE-8212
p967
aVIGNITE-8211
p968
aVIGNITE-8210
p969
aVIGNITE-8209
p970
aVIGNITE-8208
p971
aVIGNITE-8207
p972
aVIGNITE-8206
p973
aVIGNITE-8205
p974
aVIGNITE-8204
p975
aVIGNITE-8203
p976
aVIGNITE-8202
p977
aVIGNITE-8201
p978
aVIGNITE-8200
p979
aVIGNITE-8199
p980
aVIGNITE-8198
p981
aVIGNITE-8197
p982
aVIGNITE-8196
p983
aVIGNITE-8195
p984
aVIGNITE-8194
p985
aVIGNITE-8193
p986
aVIGNITE-8192
p987
aVIGNITE-8191
p988
aVIGNITE-8190
p989
aVIGNITE-8189
p990
aVIGNITE-8188
p991
aVIGNITE-8187
p992
aVIGNITE-8186
p993
aVIGNITE-8185
p994
aVIGNITE-8184
p995
aVIGNITE-8183
p996
aVIGNITE-8182
p997
aVIGNITE-8181
p998
aVIGNITE-8180
p999
aVIGNITE-8179
p1000
aVIGNITE-8178
p1001
aVIGNITE-8177
p1002
aVIGNITE-8176
p1003
aVIGNITE-8175
p1004
aVIGNITE-8174
p1005
aVIGNITE-8173
p1006
aVIGNITE-8172
p1007
aVIGNITE-8171
p1008
aVIGNITE-8170
p1009
aVIGNITE-8169
p1010
aVIGNITE-8168
p1011
aVIGNITE-8167
p1012
aVIGNITE-8166
p1013
aVIGNITE-8165
p1014
aVIGNITE-8164
p1015
aVIGNITE-8163
p1016
aVIGNITE-8162
p1017
aVIGNITE-8161
p1018
aVIGNITE-8160
p1019
aVIGNITE-8159
p1020
aVIGNITE-8158
p1021
aVIGNITE-8157
p1022
aVIGNITE-8156
p1023
aVIGNITE-8155
p1024
aVIGNITE-8154
p1025
aVIGNITE-8153
p1026
aVIGNITE-8152
p1027
aVIGNITE-8151
p1028
aVIGNITE-8150
p1029
aVIGNITE-8149
p1030
aVIGNITE-8148
p1031
aVIGNITE-8147
p1032
aVIGNITE-8146
p1033
aVIGNITE-8145
p1034
aVIGNITE-8144
p1035
aVIGNITE-8143
p1036
aVIGNITE-8142
p1037
aVIGNITE-8141
p1038
aVIGNITE-8140
p1039
aVIGNITE-8139
p1040
aVIGNITE-8138
p1041
aVIGNITE-8137
p1042
aVIGNITE-8136
p1043
aVIGNITE-8135
p1044
aVIGNITE-8134
p1045
aVIGNITE-8133
p1046
aVIGNITE-8132
p1047
aVIGNITE-8131
p1048
aVIGNITE-8130
p1049
aVIGNITE-8129
p1050
aVIGNITE-8128
p1051
aVIGNITE-8127
p1052
aVIGNITE-8126
p1053
aVIGNITE-8125
p1054
aVIGNITE-8124
p1055
aVIGNITE-8123
p1056
aVIGNITE-8122
p1057
aVIGNITE-8121
p1058
aVIGNITE-8120
p1059
aVIGNITE-8119
p1060
aVIGNITE-8118
p1061
aVIGNITE-8117
p1062
aVIGNITE-8116
p1063
aVIGNITE-8115
p1064
aVIGNITE-8114
p1065
aVIGNITE-8113
p1066
aVIGNITE-8112
p1067
aVIGNITE-8111
p1068
aVIGNITE-8110
p1069
aVIGNITE-8109
p1070
aVIGNITE-8108
p1071
aVIGNITE-8107
p1072
aVIGNITE-8106
p1073
aVIGNITE-8105
p1074
aVIGNITE-8104
p1075
aVIGNITE-8103
p1076
aVIGNITE-8102
p1077
aVIGNITE-8101
p1078
aVIGNITE-8100
p1079
aVIGNITE-8099
p1080
aVIGNITE-8098
p1081
aVIGNITE-8097
p1082
aVIGNITE-8096
p1083
aVIGNITE-8095
p1084
aVIGNITE-8094
p1085
aVIGNITE-8093
p1086
aVIGNITE-8092
p1087
aVIGNITE-8091
p1088
aVIGNITE-8090
p1089
aVIGNITE-8089
p1090
aVIGNITE-8088
p1091
aVIGNITE-8087
p1092
aVIGNITE-8086
p1093
aVIGNITE-8085
p1094
aVIGNITE-8084
p1095
aVIGNITE-8083
p1096
aVIGNITE-8082
p1097
aVIGNITE-8081
p1098
aVIGNITE-8080
p1099
aVIGNITE-8079
p1100
aVIGNITE-8078
p1101
aVIGNITE-8077
p1102
aVIGNITE-8076
p1103
aVIGNITE-8075
p1104
aVIGNITE-8074
p1105
aVIGNITE-8073
p1106
aVIGNITE-8072
p1107
aVIGNITE-8071
p1108
aVIGNITE-8070
p1109
aVIGNITE-8069
p1110
aVIGNITE-8068
p1111
aVIGNITE-8067
p1112
aVIGNITE-8066
p1113
aVIGNITE-8065
p1114
aVIGNITE-8064
p1115
aVIGNITE-8063
p1116
aVIGNITE-8062
p1117
aVIGNITE-8061
p1118
aVIGNITE-8060
p1119
aVIGNITE-8059
p1120
aVIGNITE-8058
p1121
aVIGNITE-8057
p1122
aVIGNITE-8056
p1123
aVIGNITE-8055
p1124
aVIGNITE-8054
p1125
aVIGNITE-8053
p1126
aVIGNITE-8052
p1127
aVIGNITE-8051
p1128
aVIGNITE-8050
p1129
aVIGNITE-8049
p1130
aVIGNITE-8048
p1131
aVIGNITE-8047
p1132
aVIGNITE-8046
p1133
aVIGNITE-8045
p1134
aVIGNITE-8044
p1135
aVIGNITE-8043
p1136
aVIGNITE-8042
p1137
aVIGNITE-8041
p1138
aVIGNITE-8040
p1139
aVIGNITE-8039
p1140
aVIGNITE-8038
p1141
aVIGNITE-8037
p1142
aVIGNITE-8036
p1143
aVIGNITE-8035
p1144
aVIGNITE-8034
p1145
aVIGNITE-8033
p1146
aVIGNITE-8032
p1147
aVIGNITE-8031
p1148
aVIGNITE-8030
p1149
aVIGNITE-8029
p1150
aVIGNITE-8028
p1151
aVIGNITE-8027
p1152
aVIGNITE-8026
p1153
aVIGNITE-8025
p1154
aVIGNITE-8024
p1155
aVIGNITE-8023
p1156
aVIGNITE-8022
p1157
aVIGNITE-8021
p1158
aVIGNITE-8020
p1159
aVIGNITE-8019
p1160
aVIGNITE-8018
p1161
aVIGNITE-8017
p1162
aVIGNITE-8016
p1163
aVIGNITE-8015
p1164
aVIGNITE-8014
p1165
aVIGNITE-8013
p1166
aVIGNITE-8012
p1167
aVIGNITE-8011
p1168
aVIGNITE-8010
p1169
aVIGNITE-8009
p1170
aVIGNITE-8008
p1171
aVIGNITE-8007
p1172
aVIGNITE-8006
p1173
aVIGNITE-8005
p1174
aVIGNITE-8004
p1175
aVIGNITE-8003
p1176
aVIGNITE-8002
p1177
aVIGNITE-8001
p1178
aVIGNITE-8000
p1179
aVIGNITE-7999
p1180
aVIGNITE-7998
p1181
aVIGNITE-7997
p1182
aVIGNITE-7996
p1183
aVIGNITE-7995
p1184
aVIGNITE-7994
p1185
aVIGNITE-7993
p1186
aVIGNITE-7992
p1187
aVIGNITE-7991
p1188
aVIGNITE-7990
p1189
aVIGNITE-7989
p1190
aVIGNITE-7988
p1191
aVIGNITE-7987
p1192
aVIGNITE-7986
p1193
aVIGNITE-7985
p1194
aVIGNITE-7984
p1195
aVIGNITE-7983
p1196
aVIGNITE-7982
p1197
aVIGNITE-7981
p1198
aVIGNITE-7980
p1199
aVIGNITE-7979
p1200
aVIGNITE-7978
p1201
aVIGNITE-7977
p1202
aVIGNITE-7976
p1203
aVIGNITE-7975
p1204
aVIGNITE-7974
p1205
aVIGNITE-7973
p1206
aVIGNITE-7972
p1207
aVIGNITE-7971
p1208
aVIGNITE-7970
p1209
aVIGNITE-7969
p1210
aVIGNITE-7968
p1211
aVIGNITE-7967
p1212
aVIGNITE-7966
p1213
aVIGNITE-7965
p1214
aVIGNITE-7964
p1215
aVIGNITE-7963
p1216
aVIGNITE-7962
p1217
aVIGNITE-7961
p1218
aVIGNITE-7960
p1219
aVIGNITE-7959
p1220
aVIGNITE-7958
p1221
aVIGNITE-7957
p1222
aVIGNITE-7956
p1223
aVIGNITE-7955
p1224
aVIGNITE-7954
p1225
aVIGNITE-7953
p1226
aVIGNITE-7952
p1227
aVIGNITE-7951
p1228
aVIGNITE-7950
p1229
aVIGNITE-7949
p1230
aVIGNITE-7948
p1231
aVIGNITE-7947
p1232
aVIGNITE-7946
p1233
aVIGNITE-7945
p1234
aVIGNITE-7944
p1235
aVIGNITE-7943
p1236
aVIGNITE-7942
p1237
aVIGNITE-7941
p1238
aVIGNITE-7940
p1239
aVIGNITE-7939
p1240
aVIGNITE-7938
p1241
aVIGNITE-7937
p1242
aVIGNITE-7936
p1243
aVIGNITE-7935
p1244
aVIGNITE-7934
p1245
aVIGNITE-7933
p1246
aVIGNITE-7932
p1247
aVIGNITE-7931
p1248
aVIGNITE-7930
p1249
aVIGNITE-7929
p1250
aVIGNITE-7928
p1251
aVIGNITE-7927
p1252
aVIGNITE-7926
p1253
aVIGNITE-7925
p1254
aVIGNITE-7924
p1255
aVIGNITE-7923
p1256
aVIGNITE-7922
p1257
aVIGNITE-7921
p1258
aVIGNITE-7920
p1259
aVIGNITE-7919
p1260
aVIGNITE-7918
p1261
aVIGNITE-7917
p1262
aVIGNITE-7916
p1263
aVIGNITE-7915
p1264
aVIGNITE-7914
p1265
aVIGNITE-7913
p1266
aVIGNITE-7912
p1267
aVIGNITE-7911
p1268
aVIGNITE-7910
p1269
aVIGNITE-7909
p1270
aVIGNITE-7908
p1271
aVIGNITE-7907
p1272
aVIGNITE-7906
p1273
aVIGNITE-7905
p1274
aVIGNITE-7904
p1275
aVIGNITE-7903
p1276
aVIGNITE-7902
p1277
aVIGNITE-7901
p1278
aVIGNITE-7900
p1279
aVIGNITE-7899
p1280
aVIGNITE-7898
p1281
aVIGNITE-7897
p1282
aVIGNITE-7896
p1283
aVIGNITE-7895
p1284
aVIGNITE-7894
p1285
aVIGNITE-7893
p1286
aVIGNITE-7892
p1287
aVIGNITE-7891
p1288
aVIGNITE-7890
p1289
aVIGNITE-7889
p1290
aVIGNITE-7888
p1291
aVIGNITE-7887
p1292
aVIGNITE-7886
p1293
aVIGNITE-7885
p1294
aVIGNITE-7884
p1295
aVIGNITE-7883
p1296
aVIGNITE-7882
p1297
aVIGNITE-7881
p1298
aVIGNITE-7880
p1299
aVIGNITE-7879
p1300
aVIGNITE-7878
p1301
aVIGNITE-7877
p1302
aVIGNITE-7876
p1303
aVIGNITE-7875
p1304
aVIGNITE-7874
p1305
aVIGNITE-7873
p1306
aVIGNITE-7872
p1307
aVIGNITE-7871
p1308
aVIGNITE-7870
p1309
aVIGNITE-7869
p1310
aVIGNITE-7868
p1311
aVIGNITE-7867
p1312
aVIGNITE-7866
p1313
aVIGNITE-7865
p1314
aVIGNITE-7864
p1315
aVIGNITE-7863
p1316
aVIGNITE-7862
p1317
aVIGNITE-7861
p1318
aVIGNITE-7860
p1319
aVIGNITE-7859
p1320
aVIGNITE-7858
p1321
aVIGNITE-7857
p1322
aVIGNITE-7856
p1323
aVIGNITE-7855
p1324
aVIGNITE-7854
p1325
aVIGNITE-7853
p1326
aVIGNITE-7852
p1327
aVIGNITE-7851
p1328
aVIGNITE-7850
p1329
aVIGNITE-7849
p1330
aVIGNITE-7848
p1331
aVIGNITE-7847
p1332
aVIGNITE-7846
p1333
aVIGNITE-7845
p1334
aVIGNITE-7844
p1335
aVIGNITE-7843
p1336
aVIGNITE-7842
p1337
aVIGNITE-7841
p1338
aVIGNITE-7840
p1339
aVIGNITE-7839
p1340
aVIGNITE-7838
p1341
aVIGNITE-7837
p1342
aVIGNITE-7836
p1343
aVIGNITE-7835
p1344
aVIGNITE-7834
p1345
aVIGNITE-7833
p1346
aVIGNITE-7832
p1347
aVIGNITE-7831
p1348
aVIGNITE-7830
p1349
aVIGNITE-7829
p1350
aVIGNITE-7828
p1351
aVIGNITE-7827
p1352
aVIGNITE-7826
p1353
aVIGNITE-7825
p1354
aVIGNITE-7824
p1355
aVIGNITE-7823
p1356
aVIGNITE-7822
p1357
aVIGNITE-7821
p1358
aVIGNITE-7820
p1359
aVIGNITE-7819
p1360
aVIGNITE-7818
p1361
aVIGNITE-7817
p1362
aVIGNITE-7816
p1363
aVIGNITE-7815
p1364
aVIGNITE-7814
p1365
aVIGNITE-7813
p1366
aVIGNITE-7812
p1367
aVIGNITE-7811
p1368
aVIGNITE-7810
p1369
aVIGNITE-7809
p1370
aVIGNITE-7808
p1371
aVIGNITE-7807
p1372
aVIGNITE-7806
p1373
aVIGNITE-7805
p1374
aVIGNITE-7804
p1375
aVIGNITE-7803
p1376
aVIGNITE-7802
p1377
aVIGNITE-7801
p1378
aVIGNITE-7800
p1379
aVIGNITE-7799
p1380
aVIGNITE-7798
p1381
aVIGNITE-7797
p1382
aVIGNITE-7796
p1383
aVIGNITE-7795
p1384
aVIGNITE-7794
p1385
aVIGNITE-7793
p1386
aVIGNITE-7792
p1387
aVIGNITE-7791
p1388
aVIGNITE-7790
p1389
aVIGNITE-7789
p1390
aVIGNITE-7788
p1391
aVIGNITE-7787
p1392
aVIGNITE-7786
p1393
aVIGNITE-7785
p1394
aVIGNITE-7784
p1395
aVIGNITE-7783
p1396
aVIGNITE-7782
p1397
aVIGNITE-7781
p1398
aVIGNITE-7780
p1399
aVIGNITE-7779
p1400
aVIGNITE-7778
p1401
aVIGNITE-7777
p1402
aVIGNITE-7776
p1403
aVIGNITE-7775
p1404
aVIGNITE-7774
p1405
aVIGNITE-7773
p1406
aVIGNITE-7772
p1407
aVIGNITE-7771
p1408
aVIGNITE-7770
p1409
aVIGNITE-7769
p1410
aVIGNITE-7768
p1411
aVIGNITE-7767
p1412
aVIGNITE-7766
p1413
aVIGNITE-7765
p1414
aVIGNITE-7764
p1415
aVIGNITE-7763
p1416
aVIGNITE-7762
p1417
aVIGNITE-7761
p1418
aVIGNITE-7760
p1419
aVIGNITE-7759
p1420
aVIGNITE-7758
p1421
aVIGNITE-7757
p1422
aVIGNITE-7756
p1423
aVIGNITE-7755
p1424
aVIGNITE-7754
p1425
aVIGNITE-7753
p1426
aVIGNITE-7752
p1427
aVIGNITE-7751
p1428
aVIGNITE-7750
p1429
aVIGNITE-7749
p1430
aVIGNITE-7748
p1431
aVIGNITE-7747
p1432
aVIGNITE-7746
p1433
aVIGNITE-7745
p1434
aVIGNITE-7744
p1435
aVIGNITE-7743
p1436
aVIGNITE-7742
p1437
aVIGNITE-7741
p1438
aVIGNITE-7740
p1439
aVIGNITE-7739
p1440
aVIGNITE-7738
p1441
aVIGNITE-7737
p1442
aVIGNITE-7736
p1443
aVIGNITE-7735
p1444
aVIGNITE-7734
p1445
aVIGNITE-7733
p1446
aVIGNITE-7732
p1447
aVIGNITE-7731
p1448
aVIGNITE-7730
p1449
aVIGNITE-7729
p1450
aVIGNITE-7728
p1451
aVIGNITE-7727
p1452
aVIGNITE-7726
p1453
aVIGNITE-7725
p1454
aVIGNITE-7724
p1455
aVIGNITE-7723
p1456
aVIGNITE-7722
p1457
aVIGNITE-7721
p1458
aVIGNITE-7720
p1459
aVIGNITE-7719
p1460
aVIGNITE-7718
p1461
aVIGNITE-7717
p1462
aVIGNITE-7716
p1463
aVIGNITE-7715
p1464
aVIGNITE-7714
p1465
aVIGNITE-7713
p1466
aVIGNITE-7712
p1467
aVIGNITE-7711
p1468
aVIGNITE-7710
p1469
aVIGNITE-7709
p1470
aVIGNITE-7708
p1471
aVIGNITE-7707
p1472
aVIGNITE-7706
p1473
aVIGNITE-7705
p1474
aVIGNITE-7704
p1475
aVIGNITE-7703
p1476
aVIGNITE-7702
p1477
aVIGNITE-7701
p1478
aVIGNITE-7700
p1479
aVIGNITE-7699
p1480
aVIGNITE-7698
p1481
aVIGNITE-7697
p1482
aVIGNITE-7696
p1483
aVIGNITE-7695
p1484
aVIGNITE-7694
p1485
aVIGNITE-7693
p1486
aVIGNITE-7692
p1487
aVIGNITE-7691
p1488
aVIGNITE-7690
p1489
aVIGNITE-7689
p1490
aVIGNITE-7688
p1491
aVIGNITE-7687
p1492
aVIGNITE-7686
p1493
aVIGNITE-7685
p1494
aVIGNITE-7684
p1495
aVIGNITE-7683
p1496
aVIGNITE-7682
p1497
aVIGNITE-7681
p1498
aVIGNITE-7680
p1499
aVIGNITE-7679
p1500
aVIGNITE-7678
p1501
aVIGNITE-7677
p1502
aVIGNITE-7676
p1503
aVIGNITE-7675
p1504
aVIGNITE-7674
p1505
aVIGNITE-7673
p1506
aVIGNITE-7672
p1507
aVIGNITE-7671
p1508
aVIGNITE-7670
p1509
aVIGNITE-7669
p1510
aVIGNITE-7668
p1511
aVIGNITE-7667
p1512
aVIGNITE-7666
p1513
aVIGNITE-7665
p1514
aVIGNITE-7664
p1515
aVIGNITE-7663
p1516
aVIGNITE-7662
p1517
aVIGNITE-7661
p1518
aVIGNITE-7660
p1519
aVIGNITE-7659
p1520
aVIGNITE-7658
p1521
aVIGNITE-7657
p1522
aVIGNITE-7656
p1523
aVIGNITE-7655
p1524
aVIGNITE-7654
p1525
aVIGNITE-7653
p1526
aVIGNITE-7652
p1527
aVIGNITE-7651
p1528
aVIGNITE-7650
p1529
aVIGNITE-7649
p1530
aVIGNITE-7648
p1531
aVIGNITE-7647
p1532
aVIGNITE-7646
p1533
aVIGNITE-7645
p1534
aVIGNITE-7644
p1535
aVIGNITE-7643
p1536
aVIGNITE-7642
p1537
aVIGNITE-7641
p1538
aVIGNITE-7640
p1539
aVIGNITE-7639
p1540
aVIGNITE-7638
p1541
aVIGNITE-7637
p1542
aVIGNITE-7636
p1543
aVIGNITE-7635
p1544
aVIGNITE-7634
p1545
aVIGNITE-7633
p1546
aVIGNITE-7632
p1547
aVIGNITE-7631
p1548
aVIGNITE-7630
p1549
aVIGNITE-7629
p1550
aVIGNITE-7628
p1551
aVIGNITE-7627
p1552
aVIGNITE-7626
p1553
aVIGNITE-7625
p1554
aVIGNITE-7624
p1555
aVIGNITE-7623
p1556
aVIGNITE-7622
p1557
aVIGNITE-7621
p1558
aVIGNITE-7620
p1559
aVIGNITE-7619
p1560
aVIGNITE-7618
p1561
aVIGNITE-7617
p1562
aVIGNITE-7616
p1563
aVIGNITE-7615
p1564
aVIGNITE-7614
p1565
aVIGNITE-7613
p1566
aVIGNITE-7612
p1567
aVIGNITE-7611
p1568
aVIGNITE-7610
p1569
aVIGNITE-7609
p1570
aVIGNITE-7608
p1571
aVIGNITE-7607
p1572
aVIGNITE-7606
p1573
aVIGNITE-7605
p1574
aVIGNITE-7604
p1575
aVIGNITE-7603
p1576
aVIGNITE-7602
p1577
aVIGNITE-7601
p1578
aVIGNITE-7600
p1579
aVIGNITE-7599
p1580
aVIGNITE-7598
p1581
aVIGNITE-7597
p1582
aVIGNITE-7596
p1583
aVIGNITE-7595
p1584
aVIGNITE-7594
p1585
aVIGNITE-7593
p1586
aVIGNITE-7592
p1587
aVIGNITE-7591
p1588
aVIGNITE-7590
p1589
aVIGNITE-7589
p1590
aVIGNITE-7588
p1591
aVIGNITE-7587
p1592
aVIGNITE-7586
p1593
aVIGNITE-7585
p1594
aVIGNITE-7584
p1595
aVIGNITE-7583
p1596
aVIGNITE-7582
p1597
aVIGNITE-7581
p1598
aVIGNITE-7580
p1599
aVIGNITE-7579
p1600
aVIGNITE-7578
p1601
aVIGNITE-7577
p1602
aVIGNITE-7576
p1603
aVIGNITE-7575
p1604
aVIGNITE-7574
p1605
aVIGNITE-7573
p1606
aVIGNITE-7572
p1607
aVIGNITE-7571
p1608
aVIGNITE-7570
p1609
aVIGNITE-7569
p1610
aVIGNITE-7568
p1611
aVIGNITE-7567
p1612
aVIGNITE-7566
p1613
aVIGNITE-7565
p1614
aVIGNITE-7564
p1615
aVIGNITE-7563
p1616
aVIGNITE-7562
p1617
aVIGNITE-7561
p1618
aVIGNITE-7560
p1619
aVIGNITE-7559
p1620
aVIGNITE-7558
p1621
aVIGNITE-7557
p1622
aVIGNITE-7556
p1623
aVIGNITE-7555
p1624
aVIGNITE-7554
p1625
aVIGNITE-7553
p1626
aVIGNITE-7552
p1627
aVIGNITE-7551
p1628
aVIGNITE-7550
p1629
aVIGNITE-7549
p1630
aVIGNITE-7548
p1631
aVIGNITE-7547
p1632
aVIGNITE-7546
p1633
aVIGNITE-7545
p1634
aVIGNITE-7544
p1635
aVIGNITE-7543
p1636
aVIGNITE-7542
p1637
aVIGNITE-7541
p1638
aVIGNITE-7540
p1639
aVIGNITE-7539
p1640
aVIGNITE-7538
p1641
aVIGNITE-7537
p1642
aVIGNITE-7536
p1643
aVIGNITE-7535
p1644
aVIGNITE-7534
p1645
aVIGNITE-7533
p1646
aVIGNITE-7532
p1647
aVIGNITE-7531
p1648
aVIGNITE-7530
p1649
aVIGNITE-7529
p1650
aVIGNITE-7528
p1651
aVIGNITE-7527
p1652
aVIGNITE-7526
p1653
aVIGNITE-7525
p1654
aVIGNITE-7524
p1655
aVIGNITE-7523
p1656
aVIGNITE-7522
p1657
aVIGNITE-7521
p1658
aVIGNITE-7520
p1659
aVIGNITE-7519
p1660
aVIGNITE-7518
p1661
aVIGNITE-7517
p1662
aVIGNITE-7516
p1663
aVIGNITE-7515
p1664
aVIGNITE-7514
p1665
aVIGNITE-7513
p1666
aVIGNITE-7512
p1667
aVIGNITE-7511
p1668
aVIGNITE-7510
p1669
aVIGNITE-7509
p1670
aVIGNITE-7508
p1671
aVIGNITE-7507
p1672
aVIGNITE-7506
p1673
aVIGNITE-7505
p1674
aVIGNITE-7504
p1675
aVIGNITE-7503
p1676
aVIGNITE-7502
p1677
aVIGNITE-7501
p1678
aVIGNITE-7500
p1679
aVIGNITE-7499
p1680
aVIGNITE-7498
p1681
aVIGNITE-7497
p1682
aVIGNITE-7496
p1683
aVIGNITE-7495
p1684
aVIGNITE-7494
p1685
aVIGNITE-7493
p1686
aVIGNITE-7492
p1687
aVIGNITE-7491
p1688
aVIGNITE-7490
p1689
aVIGNITE-7489
p1690
aVIGNITE-7488
p1691
aVIGNITE-7486
p1692
aVIGNITE-7485
p1693
aVIGNITE-7484
p1694
aVIGNITE-7483
p1695
aVIGNITE-7482
p1696
aVIGNITE-7481
p1697
aVIGNITE-7480
p1698
aVIGNITE-7479
p1699
aVIGNITE-7478
p1700
aVIGNITE-7477
p1701
aVIGNITE-7476
p1702
aVIGNITE-7475
p1703
aVIGNITE-7474
p1704
aVIGNITE-7473
p1705
aVIGNITE-7472
p1706
aVIGNITE-7471
p1707
aVIGNITE-7470
p1708
aVIGNITE-7469
p1709
aVIGNITE-7468
p1710
aVIGNITE-7467
p1711
aVIGNITE-7466
p1712
aVIGNITE-7465
p1713
aVIGNITE-7464
p1714
aVIGNITE-7463
p1715
aVIGNITE-7462
p1716
aVIGNITE-7461
p1717
aVIGNITE-7460
p1718
aVIGNITE-7459
p1719
aVIGNITE-7458
p1720
aVIGNITE-7457
p1721
aVIGNITE-7456
p1722
aVIGNITE-7455
p1723
aVIGNITE-7454
p1724
aVIGNITE-7453
p1725
aVIGNITE-7452
p1726
aVIGNITE-7451
p1727
aVIGNITE-7450
p1728
aVIGNITE-7449
p1729
aVIGNITE-7448
p1730
aVIGNITE-7447
p1731
aVIGNITE-7446
p1732
aVIGNITE-7445
p1733
aVIGNITE-7444
p1734
aVIGNITE-7443
p1735
aVIGNITE-7442
p1736
aVIGNITE-7441
p1737
aVIGNITE-7440
p1738
aVIGNITE-7439
p1739
aVIGNITE-7438
p1740
aVIGNITE-7437
p1741
aVIGNITE-7436
p1742
aVIGNITE-7435
p1743
aVIGNITE-7434
p1744
aVIGNITE-7433
p1745
aVIGNITE-7432
p1746
aVIGNITE-7431
p1747
aVIGNITE-7430
p1748
aVIGNITE-7429
p1749
aVIGNITE-7428
p1750
aVIGNITE-7427
p1751
aVIGNITE-7426
p1752
aVIGNITE-7425
p1753
aVIGNITE-7424
p1754
aVIGNITE-7423
p1755
aVIGNITE-7422
p1756
aVIGNITE-7421
p1757
aVIGNITE-7420
p1758
aVIGNITE-7419
p1759
aVIGNITE-7418
p1760
aVIGNITE-7417
p1761
aVIGNITE-7416
p1762
aVIGNITE-7415
p1763
aVIGNITE-7414
p1764
aVIGNITE-7413
p1765
aVIGNITE-7412
p1766
aVIGNITE-7411
p1767
aVIGNITE-7410
p1768
aVIGNITE-7409
p1769
aVIGNITE-7408
p1770
aVIGNITE-7407
p1771
aVIGNITE-7406
p1772
aVIGNITE-7405
p1773
aVIGNITE-7404
p1774
aVIGNITE-7403
p1775
aVIGNITE-7402
p1776
aVIGNITE-7401
p1777
aVIGNITE-7400
p1778
aVIGNITE-7399
p1779
aVIGNITE-7398
p1780
aVIGNITE-7397
p1781
aVIGNITE-7396
p1782
aVIGNITE-7395
p1783
aVIGNITE-7394
p1784
aVIGNITE-7393
p1785
aVIGNITE-7392
p1786
aVIGNITE-7391
p1787
aVIGNITE-7390
p1788
aVIGNITE-7389
p1789
aVIGNITE-7388
p1790
aVIGNITE-7387
p1791
aVIGNITE-7386
p1792
aVIGNITE-7385
p1793
aVIGNITE-7384
p1794
aVIGNITE-7383
p1795
aVIGNITE-7382
p1796
aVIGNITE-7381
p1797
aVIGNITE-7380
p1798
aVIGNITE-7379
p1799
aVIGNITE-7378
p1800
aVIGNITE-7377
p1801
aVIGNITE-7376
p1802
aVIGNITE-7375
p1803
aVIGNITE-7374
p1804
aVIGNITE-7373
p1805
aVIGNITE-7372
p1806
aVIGNITE-7371
p1807
aVIGNITE-7370
p1808
aVIGNITE-7369
p1809
aVIGNITE-7368
p1810
aVIGNITE-7367
p1811
aVIGNITE-7366
p1812
aVIGNITE-7365
p1813
aVIGNITE-7364
p1814
aVIGNITE-7363
p1815
aVIGNITE-7362
p1816
aVIGNITE-7361
p1817
aVIGNITE-7360
p1818
aVIGNITE-7359
p1819
aVIGNITE-7358
p1820
aVIGNITE-7357
p1821
aVIGNITE-7356
p1822
aVIGNITE-7355
p1823
aVIGNITE-7354
p1824
aVIGNITE-7353
p1825
aVIGNITE-7352
p1826
aVIGNITE-7351
p1827
aVIGNITE-7350
p1828
aVIGNITE-7349
p1829
aVIGNITE-7348
p1830
aVIGNITE-7347
p1831
aVIGNITE-7346
p1832
aVIGNITE-7345
p1833
aVIGNITE-7344
p1834
aVIGNITE-7343
p1835
aVIGNITE-7342
p1836
aVIGNITE-7341
p1837
aVIGNITE-7340
p1838
aVIGNITE-7339
p1839
aVIGNITE-7338
p1840
aVIGNITE-7337
p1841
aVIGNITE-7336
p1842
aVIGNITE-7335
p1843
aVIGNITE-7334
p1844
aVIGNITE-7333
p1845
aVIGNITE-7332
p1846
aVIGNITE-7331
p1847
aVIGNITE-7330
p1848
aVIGNITE-7329
p1849
aVIGNITE-7328
p1850
aVIGNITE-7327
p1851
aVIGNITE-7326
p1852
aVIGNITE-7325
p1853
aVIGNITE-7324
p1854
aVIGNITE-7323
p1855
aVIGNITE-7322
p1856
aVIGNITE-7321
p1857
aVIGNITE-7320
p1858
aVIGNITE-7319
p1859
aVIGNITE-7318
p1860
aVIGNITE-7317
p1861
aVIGNITE-7316
p1862
aVIGNITE-7315
p1863
aVIGNITE-7314
p1864
aVIGNITE-7313
p1865
aVIGNITE-7312
p1866
aVIGNITE-7311
p1867
aVIGNITE-7310
p1868
aVIGNITE-7309
p1869
aVIGNITE-7308
p1870
aVIGNITE-7307
p1871
aVIGNITE-7306
p1872
aVIGNITE-7305
p1873
aVIGNITE-7304
p1874
aVIGNITE-7303
p1875
aVIGNITE-7302
p1876
aVIGNITE-7301
p1877
aVIGNITE-7300
p1878
aVIGNITE-7299
p1879
aVIGNITE-7298
p1880
aVIGNITE-7297
p1881
aVIGNITE-7296
p1882
aVIGNITE-7295
p1883
aVIGNITE-7294
p1884
aVIGNITE-7293
p1885
aVIGNITE-7292
p1886
aVIGNITE-7291
p1887
aVIGNITE-7290
p1888
aVIGNITE-7289
p1889
aVIGNITE-7288
p1890
aVIGNITE-7287
p1891
aVIGNITE-7286
p1892
aVIGNITE-7285
p1893
aVIGNITE-7284
p1894
aVIGNITE-7283
p1895
aVIGNITE-7282
p1896
aVIGNITE-7281
p1897
aVIGNITE-7280
p1898
aVIGNITE-7279
p1899
aVIGNITE-7278
p1900
aVIGNITE-7277
p1901
aVIGNITE-7276
p1902
aVIGNITE-7275
p1903
aVIGNITE-7274
p1904
aVIGNITE-7273
p1905
aVIGNITE-7272
p1906
aVIGNITE-7271
p1907
aVIGNITE-7270
p1908
aVIGNITE-7269
p1909
aVIGNITE-7268
p1910
aVIGNITE-7267
p1911
aVIGNITE-7266
p1912
aVIGNITE-7265
p1913
aVIGNITE-7264
p1914
aVIGNITE-7263
p1915
aVIGNITE-7262
p1916
aVIGNITE-7261
p1917
aVIGNITE-7260
p1918
aVIGNITE-7259
p1919
aVIGNITE-7258
p1920
aVIGNITE-7257
p1921
aVIGNITE-7256
p1922
aVIGNITE-7255
p1923
aVIGNITE-7254
p1924
aVIGNITE-7253
p1925
aVIGNITE-7252
p1926
aVIGNITE-7251
p1927
aVIGNITE-7250
p1928
aVIGNITE-7249
p1929
aVIGNITE-7248
p1930
aVIGNITE-7247
p1931
aVIGNITE-7246
p1932
aVIGNITE-7245
p1933
aVIGNITE-7244
p1934
aVIGNITE-7243
p1935
aVIGNITE-7242
p1936
aVIGNITE-7241
p1937
aVIGNITE-7240
p1938
aVIGNITE-7239
p1939
aVIGNITE-7238
p1940
aVIGNITE-7237
p1941
aVIGNITE-7236
p1942
aVIGNITE-7235
p1943
aVIGNITE-7234
p1944
aVIGNITE-7233
p1945
aVIGNITE-7232
p1946
aVIGNITE-7231
p1947
aVIGNITE-7230
p1948
aVIGNITE-7229
p1949
aVIGNITE-7228
p1950
aVIGNITE-7227
p1951
aVIGNITE-7226
p1952
aVIGNITE-7225
p1953
aVIGNITE-7224
p1954
aVIGNITE-7223
p1955
aVIGNITE-7222
p1956
aVIGNITE-7221
p1957
aVIGNITE-7220
p1958
aVIGNITE-7219
p1959
aVIGNITE-7218
p1960
aVIGNITE-7217
p1961
aVIGNITE-7216
p1962
aVIGNITE-7215
p1963
aVIGNITE-7214
p1964
aVIGNITE-7213
p1965
aVIGNITE-7212
p1966
aVIGNITE-7211
p1967
aVIGNITE-7210
p1968
aVIGNITE-7209
p1969
aVIGNITE-7208
p1970
aVIGNITE-7207
p1971
aVIGNITE-7206
p1972
aVIGNITE-7205
p1973
aVIGNITE-7204
p1974
aVIGNITE-7203
p1975
aVIGNITE-7202
p1976
aVIGNITE-7201
p1977
aVIGNITE-7200
p1978
aVIGNITE-7199
p1979
aVIGNITE-7198
p1980
aVIGNITE-7197
p1981
aVIGNITE-7196
p1982
aVIGNITE-7195
p1983
aVIGNITE-7194
p1984
aVIGNITE-7193
p1985
aVIGNITE-7192
p1986
aVIGNITE-7191
p1987
aVIGNITE-7190
p1988
aVIGNITE-7189
p1989
aVIGNITE-7188
p1990
aVIGNITE-7187
p1991
aVIGNITE-7186
p1992
aVIGNITE-7185
p1993
aVIGNITE-7184
p1994
aVIGNITE-7183
p1995
aVIGNITE-7182
p1996
aVIGNITE-7181
p1997
aVIGNITE-7180
p1998
aVIGNITE-7179
p1999
aVIGNITE-7178
p2000
aVIGNITE-7177
p2001
aVIGNITE-7176
p2002
aVIGNITE-7175
p2003
aVIGNITE-7174
p2004
aVIGNITE-7173
p2005
aVIGNITE-7172
p2006
aVIGNITE-7171
p2007
aVIGNITE-7170
p2008
aVIGNITE-7169
p2009
aVIGNITE-7168
p2010
aVIGNITE-7167
p2011
aVIGNITE-7166
p2012
aVIGNITE-7165
p2013
aVIGNITE-7164
p2014
aVIGNITE-7163
p2015
aVIGNITE-7162
p2016
aVIGNITE-7161
p2017
aVIGNITE-7160
p2018
aVIGNITE-7159
p2019
aVIGNITE-7158
p2020
aVIGNITE-7157
p2021
aVIGNITE-7156
p2022
aVIGNITE-7155
p2023
aVIGNITE-7154
p2024
aVIGNITE-7153
p2025
aVIGNITE-7152
p2026
aVIGNITE-7151
p2027
aVIGNITE-7150
p2028
aVIGNITE-7149
p2029
aVIGNITE-7148
p2030
aVIGNITE-7147
p2031
aVIGNITE-7146
p2032
aVIGNITE-7145
p2033
aVIGNITE-7144
p2034
aVIGNITE-7143
p2035
aVIGNITE-7142
p2036
aVIGNITE-7141
p2037
aVIGNITE-7140
p2038
aVIGNITE-7139
p2039
aVIGNITE-7138
p2040
aVIGNITE-7137
p2041
aVIGNITE-7136
p2042
aVIGNITE-7135
p2043
aVIGNITE-7134
p2044
aVIGNITE-7133
p2045
aVIGNITE-7132
p2046
aVIGNITE-7131
p2047
aVIGNITE-7130
p2048
aVIGNITE-7129
p2049
aVIGNITE-7128
p2050
aVIGNITE-7127
p2051
aVIGNITE-7126
p2052
aVIGNITE-7125
p2053
aVIGNITE-7124
p2054
aVIGNITE-7123
p2055
aVIGNITE-7122
p2056
aVIGNITE-7121
p2057
aVIGNITE-7120
p2058
aVIGNITE-7119
p2059
aVIGNITE-7118
p2060
aVIGNITE-7117
p2061
aVIGNITE-7116
p2062
aVIGNITE-7115
p2063
aVIGNITE-7114
p2064
aVIGNITE-7113
p2065
aVIGNITE-7112
p2066
aVIGNITE-7111
p2067
aVIGNITE-7110
p2068
aVIGNITE-7109
p2069
aVIGNITE-7108
p2070
aVIGNITE-7107
p2071
aVIGNITE-7106
p2072
aVIGNITE-7105
p2073
aVIGNITE-7104
p2074
aVIGNITE-7103
p2075
aVIGNITE-7102
p2076
aVIGNITE-7101
p2077
aVIGNITE-7100
p2078
aVIGNITE-7099
p2079
aVIGNITE-7098
p2080
aVIGNITE-7097
p2081
aVIGNITE-7096
p2082
aVIGNITE-7095
p2083
aVIGNITE-7094
p2084
aVIGNITE-7093
p2085
aVIGNITE-7092
p2086
aVIGNITE-7091
p2087
aVIGNITE-7090
p2088
aVIGNITE-7089
p2089
aVIGNITE-7088
p2090
aVIGNITE-7087
p2091
aVIGNITE-7086
p2092
aVIGNITE-7085
p2093
aVIGNITE-7084
p2094
aVIGNITE-7083
p2095
aVIGNITE-7082
p2096
aVIGNITE-7081
p2097
aVIGNITE-7080
p2098
aVIGNITE-7079
p2099
aVIGNITE-7078
p2100
aVIGNITE-7077
p2101
aVIGNITE-7076
p2102
aVIGNITE-7075
p2103
aVIGNITE-7074
p2104
aVIGNITE-7073
p2105
aVIGNITE-7072
p2106
aVIGNITE-7071
p2107
aVIGNITE-7070
p2108
aVIGNITE-7069
p2109
aVIGNITE-7068
p2110
aVIGNITE-7067
p2111
aVIGNITE-7066
p2112
aVIGNITE-7065
p2113
aVIGNITE-7064
p2114
aVIGNITE-7063
p2115
aVIGNITE-7062
p2116
aVIGNITE-7061
p2117
aVIGNITE-7060
p2118
aVIGNITE-7059
p2119
aVIGNITE-7058
p2120
aVIGNITE-7057
p2121
aVIGNITE-7056
p2122
aVIGNITE-7055
p2123
aVIGNITE-7054
p2124
aVIGNITE-7053
p2125
aVIGNITE-7052
p2126
aVIGNITE-7051
p2127
aVIGNITE-7050
p2128
aVIGNITE-7049
p2129
aVIGNITE-7048
p2130
aVIGNITE-7047
p2131
aVIGNITE-7046
p2132
aVIGNITE-7045
p2133
aVIGNITE-7044
p2134
aVIGNITE-7043
p2135
aVIGNITE-7042
p2136
aVIGNITE-7041
p2137
aVIGNITE-7040
p2138
aVIGNITE-7039
p2139
aVIGNITE-7038
p2140
aVIGNITE-7037
p2141
aVIGNITE-7036
p2142
aVIGNITE-7035
p2143
aVIGNITE-7034
p2144
aVIGNITE-7033
p2145
aVIGNITE-7032
p2146
aVIGNITE-7031
p2147
aVIGNITE-7030
p2148
aVIGNITE-7029
p2149
aVIGNITE-7028
p2150
aVIGNITE-7027
p2151
aVIGNITE-7026
p2152
aVIGNITE-7025
p2153
aVIGNITE-7024
p2154
aVIGNITE-7023
p2155
aVIGNITE-7022
p2156
aVIGNITE-7021
p2157
aVIGNITE-7020
p2158
aVIGNITE-7019
p2159
aVIGNITE-7018
p2160
aVIGNITE-7017
p2161
aVIGNITE-7016
p2162
aVIGNITE-7015
p2163
aVIGNITE-7014
p2164
aVIGNITE-7013
p2165
aVIGNITE-7012
p2166
aVIGNITE-7011
p2167
aVIGNITE-7010
p2168
aVIGNITE-7009
p2169
aVIGNITE-7008
p2170
aVIGNITE-7007
p2171
aVIGNITE-7006
p2172
aVIGNITE-7005
p2173
aVIGNITE-7004
p2174
aVIGNITE-7003
p2175
aVIGNITE-7002
p2176
aVIGNITE-7001
p2177
aVIGNITE-7000
p2178
aVIGNITE-6999
p2179
aVIGNITE-6998
p2180
aVIGNITE-6997
p2181
aVIGNITE-6996
p2182
aVIGNITE-6995
p2183
aVIGNITE-6994
p2184
aVIGNITE-6993
p2185
aVIGNITE-6992
p2186
aVIGNITE-6991
p2187
aVIGNITE-6990
p2188
aVIGNITE-6989
p2189
aVIGNITE-6988
p2190
aVIGNITE-6987
p2191
aVIGNITE-6986
p2192
aVIGNITE-6985
p2193
aVIGNITE-6984
p2194
aVIGNITE-6983
p2195
aVIGNITE-6982
p2196
aVIGNITE-6981
p2197
aVIGNITE-6980
p2198
aVIGNITE-6979
p2199
aVIGNITE-6978
p2200
aVIGNITE-6977
p2201
aVIGNITE-6976
p2202
aVIGNITE-6975
p2203
aVIGNITE-6974
p2204
aVIGNITE-6973
p2205
aVIGNITE-6972
p2206
aVIGNITE-6971
p2207
aVIGNITE-6970
p2208
aVIGNITE-6969
p2209
aVIGNITE-6968
p2210
aVIGNITE-6967
p2211
aVIGNITE-6966
p2212
aVIGNITE-6965
p2213
aVIGNITE-6964
p2214
aVIGNITE-6963
p2215
aVIGNITE-6962
p2216
aVIGNITE-6961
p2217
aVIGNITE-6960
p2218
aVIGNITE-6959
p2219
aVIGNITE-6958
p2220
aVIGNITE-6957
p2221
aVIGNITE-6956
p2222
aVIGNITE-6955
p2223
aVIGNITE-6954
p2224
aVIGNITE-6953
p2225
aVIGNITE-6952
p2226
aVIGNITE-6951
p2227
aVIGNITE-6950
p2228
aVIGNITE-6949
p2229
aVIGNITE-6948
p2230
aVIGNITE-6947
p2231
aVIGNITE-6946
p2232
aVIGNITE-6945
p2233
aVIGNITE-6944
p2234
aVIGNITE-6943
p2235
aVIGNITE-6942
p2236
aVIGNITE-6941
p2237
aVIGNITE-6940
p2238
aVIGNITE-6939
p2239
aVIGNITE-6938
p2240
aVIGNITE-6937
p2241
aVIGNITE-6936
p2242
aVIGNITE-6935
p2243
aVIGNITE-6934
p2244
aVIGNITE-6933
p2245
aVIGNITE-6932
p2246
aVIGNITE-6931
p2247
aVIGNITE-6930
p2248
aVIGNITE-6929
p2249
aVIGNITE-6928
p2250
aVIGNITE-6927
p2251
aVIGNITE-6926
p2252
aVIGNITE-6925
p2253
aVIGNITE-6924
p2254
aVIGNITE-6923
p2255
aVIGNITE-6922
p2256
aVIGNITE-6921
p2257
aVIGNITE-6920
p2258
aVIGNITE-6919
p2259
aVIGNITE-6918
p2260
aVIGNITE-6917
p2261
aVIGNITE-6916
p2262
aVIGNITE-6915
p2263
aVIGNITE-6914
p2264
aVIGNITE-6913
p2265
aVIGNITE-6912
p2266
aVIGNITE-6911
p2267
aVIGNITE-6910
p2268
aVIGNITE-6909
p2269
aVIGNITE-6908
p2270
aVIGNITE-6907
p2271
aVIGNITE-6906
p2272
aVIGNITE-6905
p2273
aVIGNITE-6904
p2274
aVIGNITE-6903
p2275
aVIGNITE-6902
p2276
aVIGNITE-6901
p2277
aVIGNITE-6900
p2278
aVIGNITE-6899
p2279
aVIGNITE-6898
p2280
aVIGNITE-6897
p2281
aVIGNITE-6896
p2282
aVIGNITE-6895
p2283
aVIGNITE-6894
p2284
aVIGNITE-6893
p2285
aVIGNITE-6892
p2286
aVIGNITE-6891
p2287
aVIGNITE-6890
p2288
aVIGNITE-6889
p2289
aVIGNITE-6888
p2290
aVIGNITE-6887
p2291
aVIGNITE-6886
p2292
aVIGNITE-6885
p2293
aVIGNITE-6884
p2294
aVIGNITE-6883
p2295
aVIGNITE-6882
p2296
aVIGNITE-6881
p2297
aVIGNITE-6880
p2298
aVIGNITE-6879
p2299
aVIGNITE-6878
p2300
aVIGNITE-6877
p2301
aVIGNITE-6876
p2302
aVIGNITE-6875
p2303
aVIGNITE-6874
p2304
aVIGNITE-6873
p2305
aVIGNITE-6872
p2306
aVIGNITE-6871
p2307
aVIGNITE-6870
p2308
aVIGNITE-6869
p2309
aVIGNITE-6868
p2310
aVIGNITE-6867
p2311
aVIGNITE-6866
p2312
aVIGNITE-6865
p2313
aVIGNITE-6864
p2314
aVIGNITE-6863
p2315
aVIGNITE-6862
p2316
aVIGNITE-6861
p2317
aVIGNITE-6860
p2318
aVIGNITE-6859
p2319
aVIGNITE-6858
p2320
aVIGNITE-6857
p2321
aVIGNITE-6856
p2322
aVIGNITE-6855
p2323
aVIGNITE-6854
p2324
aVIGNITE-6853
p2325
aVIGNITE-6852
p2326
aVIGNITE-6851
p2327
aVIGNITE-6850
p2328
aVIGNITE-6849
p2329
aVIGNITE-6848
p2330
aVIGNITE-6847
p2331
aVIGNITE-6846
p2332
aVIGNITE-6845
p2333
aVIGNITE-6844
p2334
aVIGNITE-6843
p2335
aVIGNITE-6842
p2336
aVIGNITE-6841
p2337
aVIGNITE-6840
p2338
aVIGNITE-6839
p2339
aVIGNITE-6838
p2340
aVIGNITE-6837
p2341
aVIGNITE-6836
p2342
aVIGNITE-6835
p2343
aVIGNITE-6834
p2344
aVIGNITE-6833
p2345
aVIGNITE-6832
p2346
aVIGNITE-6831
p2347
aVIGNITE-6830
p2348
aVIGNITE-6829
p2349
aVIGNITE-6828
p2350
aVIGNITE-6827
p2351
aVIGNITE-6826
p2352
aVIGNITE-6825
p2353
aVIGNITE-6824
p2354
aVIGNITE-6823
p2355
aVIGNITE-6822
p2356
aVIGNITE-6821
p2357
aVIGNITE-6820
p2358
aVIGNITE-6819
p2359
aVIGNITE-6818
p2360
aVIGNITE-6817
p2361
aVIGNITE-6816
p2362
aVIGNITE-6815
p2363
aVIGNITE-6814
p2364
aVIGNITE-6813
p2365
aVIGNITE-6812
p2366
aVIGNITE-6811
p2367
aVIGNITE-6810
p2368
aVIGNITE-6809
p2369
aVIGNITE-6808
p2370
aVIGNITE-6807
p2371
aVIGNITE-6806
p2372
aVIGNITE-6805
p2373
aVIGNITE-6804
p2374
aVIGNITE-6803
p2375
aVIGNITE-6802
p2376
aVIGNITE-6801
p2377
aVIGNITE-6800
p2378
aVIGNITE-6799
p2379
aVIGNITE-6798
p2380
aVIGNITE-6797
p2381
aVIGNITE-6796
p2382
aVIGNITE-6795
p2383
aVIGNITE-6794
p2384
aVIGNITE-6793
p2385
aVIGNITE-6792
p2386
aVIGNITE-6791
p2387
aVIGNITE-6790
p2388
aVIGNITE-6789
p2389
aVIGNITE-6788
p2390
aVIGNITE-6787
p2391
aVIGNITE-6786
p2392
aVIGNITE-6785
p2393
aVIGNITE-6784
p2394
aVIGNITE-6783
p2395
aVIGNITE-6782
p2396
aVIGNITE-6781
p2397
aVIGNITE-6780
p2398
aVIGNITE-6779
p2399
aVIGNITE-6778
p2400
aVIGNITE-6777
p2401
aVIGNITE-6776
p2402
aVIGNITE-6775
p2403
aVIGNITE-6774
p2404
aVIGNITE-6773
p2405
aVIGNITE-6772
p2406
aVIGNITE-6771
p2407
aVIGNITE-6770
p2408
aVIGNITE-6769
p2409
aVIGNITE-6768
p2410
aVIGNITE-6767
p2411
aVIGNITE-6766
p2412
aVIGNITE-6765
p2413
aVIGNITE-6764
p2414
aVIGNITE-6763
p2415
aVIGNITE-6762
p2416
aVIGNITE-6761
p2417
aVIGNITE-6760
p2418
aVIGNITE-6759
p2419
aVIGNITE-6758
p2420
aVIGNITE-6757
p2421
aVIGNITE-6756
p2422
aVIGNITE-6755
p2423
aVIGNITE-6754
p2424
aVIGNITE-6753
p2425
aVIGNITE-6752
p2426
aVIGNITE-6751
p2427
aVIGNITE-6750
p2428
aVIGNITE-6749
p2429
aVIGNITE-6748
p2430
aVIGNITE-6747
p2431
aVIGNITE-6746
p2432
aVIGNITE-6745
p2433
aVIGNITE-6744
p2434
aVIGNITE-6743
p2435
aVIGNITE-6742
p2436
aVIGNITE-6741
p2437
aVIGNITE-6740
p2438
aVIGNITE-6739
p2439
aVIGNITE-6738
p2440
aVIGNITE-6737
p2441
aVIGNITE-6736
p2442
aVIGNITE-6735
p2443
aVIGNITE-6734
p2444
aVIGNITE-6733
p2445
aVIGNITE-6732
p2446
aVIGNITE-6731
p2447
aVIGNITE-6730
p2448
aVIGNITE-6729
p2449
aVIGNITE-6728
p2450
aVIGNITE-6727
p2451
aVIGNITE-6726
p2452
aVIGNITE-6725
p2453
aVIGNITE-6724
p2454
aVIGNITE-6723
p2455
aVIGNITE-6722
p2456
aVIGNITE-6721
p2457
aVIGNITE-6720
p2458
aVIGNITE-6719
p2459
aVIGNITE-6718
p2460
aVIGNITE-6717
p2461
aVIGNITE-6716
p2462
aVIGNITE-6715
p2463
aVIGNITE-6714
p2464
aVIGNITE-6713
p2465
aVIGNITE-6712
p2466
aVIGNITE-6711
p2467
aVIGNITE-6710
p2468
aVIGNITE-6709
p2469
aVIGNITE-6708
p2470
aVIGNITE-6707
p2471
aVIGNITE-6706
p2472
aVIGNITE-6705
p2473
aVIGNITE-6704
p2474
aVIGNITE-6703
p2475
aVIGNITE-6702
p2476
aVIGNITE-6701
p2477
aVIGNITE-6700
p2478
aVIGNITE-6699
p2479
aVIGNITE-6698
p2480
aVIGNITE-6697
p2481
aVIGNITE-6696
p2482
aVIGNITE-6695
p2483
aVIGNITE-6694
p2484
aVIGNITE-6693
p2485
aVIGNITE-6692
p2486
aVIGNITE-6691
p2487
aVIGNITE-6690
p2488
aVIGNITE-6689
p2489
aVIGNITE-6688
p2490
aVIGNITE-6687
p2491
aVIGNITE-6686
p2492
aVIGNITE-6685
p2493
aVIGNITE-6684
p2494
aVIGNITE-6683
p2495
aVIGNITE-6682
p2496
aVIGNITE-6681
p2497
aVIGNITE-6680
p2498
aVIGNITE-6679
p2499
aVIGNITE-6678
p2500
aVIGNITE-6677
p2501
aVIGNITE-6676
p2502
aVIGNITE-6675
p2503
aVIGNITE-6674
p2504
aVIGNITE-6673
p2505
aVIGNITE-6672
p2506
aVIGNITE-6671
p2507
aVIGNITE-6670
p2508
aVIGNITE-6669
p2509
aVIGNITE-6668
p2510
aVIGNITE-6667
p2511
aVIGNITE-6666
p2512
aVIGNITE-6665
p2513
aVIGNITE-6664
p2514
aVIGNITE-6663
p2515
aVIGNITE-6662
p2516
aVIGNITE-6661
p2517
aVIGNITE-6660
p2518
aVIGNITE-6659
p2519
aVIGNITE-6658
p2520
aVIGNITE-6657
p2521
aVIGNITE-6656
p2522
aVIGNITE-6655
p2523
aVIGNITE-6654
p2524
aVIGNITE-6653
p2525
aVIGNITE-6652
p2526
aVIGNITE-6651
p2527
aVIGNITE-6650
p2528
aVIGNITE-6649
p2529
aVIGNITE-6648
p2530
aVIGNITE-6647
p2531
aVIGNITE-6642
p2532
aVIGNITE-6641
p2533
aVIGNITE-6640
p2534
aVIGNITE-6639
p2535
aVIGNITE-6638
p2536
aVIGNITE-6637
p2537
aVIGNITE-6636
p2538
aVIGNITE-6635
p2539
aVIGNITE-6634
p2540
aVIGNITE-6633
p2541
aVIGNITE-6632
p2542
aVIGNITE-6631
p2543
aVIGNITE-6630
p2544
aVIGNITE-6629
p2545
aVIGNITE-6628
p2546
aVIGNITE-6627
p2547
aVIGNITE-6626
p2548
aVIGNITE-6625
p2549
aVIGNITE-6624
p2550
aVIGNITE-6623
p2551
aVIGNITE-6622
p2552
aVIGNITE-6621
p2553
aVIGNITE-6620
p2554
aVIGNITE-6619
p2555
aVIGNITE-6618
p2556
aVIGNITE-6617
p2557
aVIGNITE-6616
p2558
aVIGNITE-6615
p2559
aVIGNITE-6614
p2560
aVIGNITE-6613
p2561
aVIGNITE-6612
p2562
aVIGNITE-6611
p2563
aVIGNITE-6610
p2564
aVIGNITE-6609
p2565
aVIGNITE-6608
p2566
aVIGNITE-6607
p2567
aVIGNITE-6606
p2568
aVIGNITE-6605
p2569
aVIGNITE-6604
p2570
aVIGNITE-6603
p2571
aVIGNITE-6602
p2572
aVIGNITE-6601
p2573
aVIGNITE-6600
p2574
aVIGNITE-6599
p2575
aVIGNITE-6598
p2576
aVIGNITE-6597
p2577
aVIGNITE-6596
p2578
aVIGNITE-6595
p2579
aVIGNITE-6594
p2580
aVIGNITE-6593
p2581
aVIGNITE-6592
p2582
aVIGNITE-6591
p2583
aVIGNITE-6590
p2584
aVIGNITE-6589
p2585
aVIGNITE-6588
p2586
aVIGNITE-6587
p2587
aVIGNITE-6586
p2588
aVIGNITE-6585
p2589
aVIGNITE-6584
p2590
aVIGNITE-6583
p2591
aVIGNITE-6582
p2592
aVIGNITE-6581
p2593
aVIGNITE-6580
p2594
aVIGNITE-6579
p2595
aVIGNITE-6578
p2596
aVIGNITE-6577
p2597
aVIGNITE-6576
p2598
aVIGNITE-6575
p2599
aVIGNITE-6574
p2600
aVIGNITE-6573
p2601
aVIGNITE-6572
p2602
aVIGNITE-6571
p2603
aVIGNITE-6570
p2604
aVIGNITE-6569
p2605
aVIGNITE-6568
p2606
aVIGNITE-6567
p2607
aVIGNITE-6566
p2608
aVIGNITE-6565
p2609
aVIGNITE-6564
p2610
aVIGNITE-6563
p2611
aVIGNITE-6562
p2612
aVIGNITE-6561
p2613
aVIGNITE-6560
p2614
aVIGNITE-6559
p2615
aVIGNITE-6558
p2616
aVIGNITE-6557
p2617
aVIGNITE-6556
p2618
aVIGNITE-6555
p2619
aVIGNITE-6554
p2620
aVIGNITE-6553
p2621
aVIGNITE-6552
p2622
aVIGNITE-6551
p2623
aVIGNITE-6550
p2624
aVIGNITE-6549
p2625
aVIGNITE-6548
p2626
aVIGNITE-6547
p2627
aVIGNITE-6546
p2628
aVIGNITE-6545
p2629
aVIGNITE-6544
p2630
aVIGNITE-6543
p2631
aVIGNITE-6542
p2632
aVIGNITE-6541
p2633
aVIGNITE-6540
p2634
aVIGNITE-6539
p2635
aVIGNITE-6538
p2636
aVIGNITE-6537
p2637
aVIGNITE-6536
p2638
aVIGNITE-6535
p2639
aVIGNITE-6534
p2640
aVIGNITE-6533
p2641
aVIGNITE-6532
p2642
aVIGNITE-6531
p2643
aVIGNITE-6530
p2644
aVIGNITE-6529
p2645
aVIGNITE-6528
p2646
aVIGNITE-6527
p2647
aVIGNITE-6526
p2648
aVIGNITE-6525
p2649
aVIGNITE-6524
p2650
aVIGNITE-6523
p2651
aVIGNITE-6522
p2652
aVIGNITE-6521
p2653
aVIGNITE-6520
p2654
aVIGNITE-6519
p2655
aVIGNITE-6518
p2656
aVIGNITE-6517
p2657
aVIGNITE-6516
p2658
aVIGNITE-6515
p2659
aVIGNITE-6514
p2660
aVIGNITE-6513
p2661
aVIGNITE-6512
p2662
aVIGNITE-6511
p2663
aVIGNITE-6510
p2664
aVIGNITE-6509
p2665
aVIGNITE-6508
p2666
aVIGNITE-6507
p2667
aVIGNITE-6506
p2668
aVIGNITE-6505
p2669
aVIGNITE-6504
p2670
aVIGNITE-6503
p2671
aVIGNITE-6502
p2672
aVIGNITE-6501
p2673
aVIGNITE-6500
p2674
aVIGNITE-6499
p2675
aVIGNITE-6498
p2676
aVIGNITE-6497
p2677
aVIGNITE-6496
p2678
aVIGNITE-6495
p2679
aVIGNITE-6494
p2680
aVIGNITE-6493
p2681
aVIGNITE-6492
p2682
aVIGNITE-6491
p2683
aVIGNITE-6490
p2684
aVIGNITE-6489
p2685
aVIGNITE-6488
p2686
aVIGNITE-6487
p2687
aVIGNITE-6486
p2688
aVIGNITE-6485
p2689
aVIGNITE-6484
p2690
aVIGNITE-6483
p2691
aVIGNITE-6482
p2692
aVIGNITE-6481
p2693
aVIGNITE-6480
p2694
aVIGNITE-6478
p2695
aVIGNITE-6477
p2696
aVIGNITE-6476
p2697
aVIGNITE-6475
p2698
aVIGNITE-6474
p2699
aVIGNITE-6473
p2700
aVIGNITE-6472
p2701
aVIGNITE-6471
p2702
aVIGNITE-6470
p2703
aVIGNITE-6469
p2704
aVIGNITE-6468
p2705
aVIGNITE-6467
p2706
aVIGNITE-6466
p2707
aVIGNITE-6465
p2708
aVIGNITE-6464
p2709
aVIGNITE-6463
p2710
aVIGNITE-6462
p2711
aVIGNITE-6461
p2712
aVIGNITE-6460
p2713
aVIGNITE-6459
p2714
aVIGNITE-6458
p2715
aVIGNITE-6457
p2716
aVIGNITE-6456
p2717
aVIGNITE-6455
p2718
aVIGNITE-6454
p2719
aVIGNITE-6452
p2720
aVIGNITE-6451
p2721
aVIGNITE-6450
p2722
aVIGNITE-6449
p2723
aVIGNITE-6448
p2724
aVIGNITE-6447
p2725
aVIGNITE-6446
p2726
aVIGNITE-6445
p2727
aVIGNITE-6444
p2728
aVIGNITE-6443
p2729
aVIGNITE-6442
p2730
aVIGNITE-6441
p2731
aVIGNITE-6440
p2732
aVIGNITE-6439
p2733
aVIGNITE-6438
p2734
aVIGNITE-6437
p2735
aVIGNITE-6436
p2736
aVIGNITE-6435
p2737
aVIGNITE-6434
p2738
aVIGNITE-6433
p2739
aVIGNITE-6432
p2740
aVIGNITE-6431
p2741
aVIGNITE-6430
p2742
aVIGNITE-6429
p2743
aVIGNITE-6428
p2744
aVIGNITE-6427
p2745
aVIGNITE-6426
p2746
aVIGNITE-6425
p2747
aVIGNITE-6424
p2748
aVIGNITE-6423
p2749
aVIGNITE-6422
p2750
aVIGNITE-6421
p2751
aVIGNITE-6420
p2752
aVIGNITE-6419
p2753
aVIGNITE-6418
p2754
aVIGNITE-6417
p2755
aVIGNITE-6416
p2756
aVIGNITE-6415
p2757
aVIGNITE-6414
p2758
aVIGNITE-6413
p2759
aVIGNITE-6412
p2760
aVIGNITE-6411
p2761
aVIGNITE-6410
p2762
aVIGNITE-6409
p2763
aVIGNITE-6408
p2764
aVIGNITE-6407
p2765
aVIGNITE-6406
p2766
aVIGNITE-6405
p2767
aVIGNITE-6404
p2768
aVIGNITE-6403
p2769
aVIGNITE-6402
p2770
aVIGNITE-6401
p2771
aVIGNITE-6400
p2772
aVIGNITE-6399
p2773
aVIGNITE-6398
p2774
aVIGNITE-6397
p2775
aVIGNITE-6396
p2776
aVIGNITE-6395
p2777
aVIGNITE-6394
p2778
aVIGNITE-6393
p2779
aVIGNITE-6392
p2780
aVIGNITE-6391
p2781
aVIGNITE-6390
p2782
aVIGNITE-6389
p2783
aVIGNITE-6388
p2784
aVIGNITE-6387
p2785
aVIGNITE-6386
p2786
aVIGNITE-6385
p2787
aVIGNITE-6384
p2788
aVIGNITE-6383
p2789
aVIGNITE-6382
p2790
aVIGNITE-6381
p2791
aVIGNITE-6380
p2792
aVIGNITE-6379
p2793
aVIGNITE-6378
p2794
aVIGNITE-6377
p2795
aVIGNITE-6376
p2796
aVIGNITE-6375
p2797
aVIGNITE-6374
p2798
aVIGNITE-6373
p2799
aVIGNITE-6372
p2800
aVIGNITE-6371
p2801
aVIGNITE-6370
p2802
aVIGNITE-6369
p2803
aVIGNITE-6368
p2804
aVIGNITE-6367
p2805
aVIGNITE-6366
p2806
aVIGNITE-6365
p2807
aVIGNITE-6364
p2808
aVIGNITE-6363
p2809
aVIGNITE-6362
p2810
aVIGNITE-6361
p2811
aVIGNITE-6360
p2812
aVIGNITE-6359
p2813
aVIGNITE-6358
p2814
aVIGNITE-6357
p2815
aVIGNITE-6356
p2816
aVIGNITE-6355
p2817
aVIGNITE-6354
p2818
aVIGNITE-6353
p2819
aVIGNITE-6352
p2820
aVIGNITE-6351
p2821
aVIGNITE-6350
p2822
aVIGNITE-6349
p2823
aVIGNITE-6348
p2824
aVIGNITE-6347
p2825
aVIGNITE-6346
p2826
aVIGNITE-6345
p2827
aVIGNITE-6344
p2828
aVIGNITE-6343
p2829
aVIGNITE-6342
p2830
aVIGNITE-6341
p2831
aVIGNITE-6340
p2832
aVIGNITE-6339
p2833
aVIGNITE-6338
p2834
aVIGNITE-6337
p2835
aVIGNITE-6336
p2836
aVIGNITE-6335
p2837
aVIGNITE-6334
p2838
aVIGNITE-6333
p2839
aVIGNITE-6332
p2840
aVIGNITE-6331
p2841
aVIGNITE-6330
p2842
aVIGNITE-6329
p2843
aVIGNITE-6328
p2844
aVIGNITE-6327
p2845
aVIGNITE-6326
p2846
aVIGNITE-6325
p2847
aVIGNITE-6324
p2848
aVIGNITE-6323
p2849
aVIGNITE-6322
p2850
aVIGNITE-6321
p2851
aVIGNITE-6320
p2852
aVIGNITE-6319
p2853
aVIGNITE-6318
p2854
aVIGNITE-6317
p2855
aVIGNITE-6316
p2856
aVIGNITE-6315
p2857
aVIGNITE-6314
p2858
aVIGNITE-6313
p2859
aVIGNITE-6312
p2860
aVIGNITE-6311
p2861
aVIGNITE-6310
p2862
aVIGNITE-6309
p2863
aVIGNITE-6308
p2864
aVIGNITE-6307
p2865
aVIGNITE-6306
p2866
aVIGNITE-6305
p2867
aVIGNITE-6304
p2868
aVIGNITE-6303
p2869
aVIGNITE-6302
p2870
aVIGNITE-6301
p2871
aVIGNITE-6300
p2872
aVIGNITE-6299
p2873
aVIGNITE-6298
p2874
aVIGNITE-6297
p2875
aVIGNITE-6296
p2876
aVIGNITE-6295
p2877
aVIGNITE-6294
p2878
aVIGNITE-6293
p2879
aVIGNITE-6292
p2880
aVIGNITE-6291
p2881
aVIGNITE-6290
p2882
aVIGNITE-6289
p2883
aVIGNITE-6288
p2884
aVIGNITE-6287
p2885
aVIGNITE-6286
p2886
aVIGNITE-6285
p2887
aVIGNITE-6284
p2888
aVIGNITE-6283
p2889
aVIGNITE-6282
p2890
aVIGNITE-6281
p2891
aVIGNITE-6280
p2892
aVIGNITE-6279
p2893
aVIGNITE-6278
p2894
aVIGNITE-6277
p2895
aVIGNITE-6276
p2896
aVIGNITE-6275
p2897
aVIGNITE-6274
p2898
aVIGNITE-6273
p2899
aVIGNITE-6272
p2900
aVIGNITE-6271
p2901
aVIGNITE-6270
p2902
aVIGNITE-6269
p2903
aVIGNITE-6268
p2904
aVIGNITE-6267
p2905
aVIGNITE-6266
p2906
aVIGNITE-6265
p2907
aVIGNITE-6264
p2908
aVIGNITE-6263
p2909
aVIGNITE-6262
p2910
aVIGNITE-6261
p2911
aVIGNITE-6260
p2912
aVIGNITE-6259
p2913
aVIGNITE-6258
p2914
aVIGNITE-6257
p2915
aVIGNITE-6256
p2916
aVIGNITE-6255
p2917
aVIGNITE-6254
p2918
aVIGNITE-6253
p2919
aVIGNITE-6252
p2920
aVIGNITE-6251
p2921
aVIGNITE-6250
p2922
aVIGNITE-6249
p2923
aVIGNITE-6248
p2924
aVIGNITE-6247
p2925
aVIGNITE-6246
p2926
aVIGNITE-6245
p2927
aVIGNITE-6244
p2928
aVIGNITE-6243
p2929
aVIGNITE-6242
p2930
aVIGNITE-6241
p2931
aVIGNITE-6240
p2932
aVIGNITE-6239
p2933
aVIGNITE-6238
p2934
aVIGNITE-6237
p2935
aVIGNITE-6236
p2936
aVIGNITE-6235
p2937
aVIGNITE-6234
p2938
aVIGNITE-6233
p2939
aVIGNITE-6232
p2940
aVIGNITE-6231
p2941
aVIGNITE-6230
p2942
aVIGNITE-6229
p2943
aVIGNITE-6228
p2944
aVIGNITE-6227
p2945
aVIGNITE-6226
p2946
aVIGNITE-6225
p2947
aVIGNITE-6224
p2948
aVIGNITE-6223
p2949
aVIGNITE-6222
p2950
aVIGNITE-6221
p2951
aVIGNITE-6220
p2952
aVIGNITE-6219
p2953
aVIGNITE-6218
p2954
aVIGNITE-6217
p2955
aVIGNITE-6216
p2956
aVIGNITE-6215
p2957
aVIGNITE-6214
p2958
aVIGNITE-6213
p2959
aVIGNITE-6212
p2960
aVIGNITE-6211
p2961
aVIGNITE-6210
p2962
aVIGNITE-6209
p2963
aVIGNITE-6208
p2964
aVIGNITE-6207
p2965
aVIGNITE-6206
p2966
aVIGNITE-6205
p2967
aVIGNITE-6204
p2968
aVIGNITE-6203
p2969
aVIGNITE-6202
p2970
aVIGNITE-6201
p2971
aVIGNITE-6200
p2972
aVIGNITE-6199
p2973
aVIGNITE-6198
p2974
aVIGNITE-6197
p2975
aVIGNITE-6196
p2976
aVIGNITE-6195
p2977
aVIGNITE-6194
p2978
aVIGNITE-6193
p2979
aVIGNITE-6192
p2980
aVIGNITE-6191
p2981
aVIGNITE-6190
p2982
aVIGNITE-6189
p2983
aVIGNITE-6188
p2984
aVIGNITE-6187
p2985
aVIGNITE-6186
p2986
aVIGNITE-6185
p2987
aVIGNITE-6184
p2988
aVIGNITE-6183
p2989
aVIGNITE-6182
p2990
aVIGNITE-6181
p2991
aVIGNITE-6180
p2992
aVIGNITE-6179
p2993
aVIGNITE-6178
p2994
aVIGNITE-6177
p2995
aVIGNITE-6176
p2996
aVIGNITE-6175
p2997
aVIGNITE-6174
p2998
aVIGNITE-6173
p2999
aVIGNITE-6172
p3000
aVIGNITE-6171
p3001
aVIGNITE-6170
p3002
aVIGNITE-6169
p3003
aVIGNITE-6168
p3004
aVIGNITE-6167
p3005
aVIGNITE-6166
p3006
aVIGNITE-6165
p3007
aVIGNITE-6164
p3008
aVIGNITE-6163
p3009
aVIGNITE-6162
p3010
aVIGNITE-6161
p3011
aVIGNITE-6160
p3012
aVIGNITE-6159
p3013
aVIGNITE-6158
p3014
aVIGNITE-6157
p3015
aVIGNITE-6156
p3016
aVIGNITE-6155
p3017
aVIGNITE-6154
p3018
aVIGNITE-6153
p3019
aVIGNITE-6152
p3020
aVIGNITE-6151
p3021
aVIGNITE-6150
p3022
aVIGNITE-6149
p3023
aVIGNITE-6148
p3024
aVIGNITE-6147
p3025
aVIGNITE-6146
p3026
aVIGNITE-6145
p3027
aVIGNITE-6144
p3028
aVIGNITE-6143
p3029
aVIGNITE-6142
p3030
aVIGNITE-6141
p3031
aVIGNITE-6140
p3032
aVIGNITE-6139
p3033
aVIGNITE-6138
p3034
aVIGNITE-6137
p3035
aVIGNITE-6136
p3036
aVIGNITE-6135
p3037
aVIGNITE-6134
p3038
aVIGNITE-6133
p3039
aVIGNITE-6132
p3040
aVIGNITE-6131
p3041
aVIGNITE-6130
p3042
aVIGNITE-6129
p3043
aVIGNITE-6128
p3044
aVIGNITE-6127
p3045
aVIGNITE-6126
p3046
aVIGNITE-6125
p3047
aVIGNITE-6124
p3048
aVIGNITE-6123
p3049
aVIGNITE-6122
p3050
aVIGNITE-6121
p3051
aVIGNITE-6120
p3052
aVIGNITE-6119
p3053
aVIGNITE-6118
p3054
aVIGNITE-6117
p3055
aVIGNITE-6116
p3056
aVIGNITE-6115
p3057
aVIGNITE-6114
p3058
aVIGNITE-6113
p3059
aVIGNITE-6112
p3060
aVIGNITE-6111
p3061
aVIGNITE-6110
p3062
aVIGNITE-6109
p3063
aVIGNITE-6108
p3064
aVIGNITE-6107
p3065
aVIGNITE-6106
p3066
aVIGNITE-6105
p3067
aVIGNITE-6104
p3068
aVIGNITE-6103
p3069
aVIGNITE-6102
p3070
aVIGNITE-6101
p3071
aVIGNITE-6100
p3072
aVIGNITE-6099
p3073
aVIGNITE-6098
p3074
aVIGNITE-6097
p3075
aVIGNITE-6096
p3076
aVIGNITE-6095
p3077
aVIGNITE-6094
p3078
aVIGNITE-6093
p3079
aVIGNITE-6092
p3080
aVIGNITE-6091
p3081
aVIGNITE-6090
p3082
aVIGNITE-6089
p3083
aVIGNITE-6088
p3084
aVIGNITE-6087
p3085
aVIGNITE-6086
p3086
aVIGNITE-6085
p3087
aVIGNITE-6084
p3088
aVIGNITE-6083
p3089
aVIGNITE-6082
p3090
aVIGNITE-6081
p3091
aVIGNITE-6080
p3092
aVIGNITE-6079
p3093
aVIGNITE-6078
p3094
aVIGNITE-6077
p3095
aVIGNITE-6076
p3096
aVIGNITE-6075
p3097
aVIGNITE-6074
p3098
aVIGNITE-6073
p3099
aVIGNITE-6072
p3100
aVIGNITE-6071
p3101
aVIGNITE-6070
p3102
aVIGNITE-6069
p3103
aVIGNITE-6068
p3104
aVIGNITE-6067
p3105
aVIGNITE-6066
p3106
aVIGNITE-6065
p3107
aVIGNITE-6064
p3108
aVIGNITE-6063
p3109
aVIGNITE-6062
p3110
aVIGNITE-6061
p3111
aVIGNITE-6060
p3112
aVIGNITE-6059
p3113
aVIGNITE-6058
p3114
aVIGNITE-6057
p3115
aVIGNITE-6056
p3116
aVIGNITE-6055
p3117
aVIGNITE-6054
p3118
aVIGNITE-6053
p3119
aVIGNITE-6052
p3120
aVIGNITE-6051
p3121
aVIGNITE-6050
p3122
aVIGNITE-6049
p3123
aVIGNITE-6048
p3124
aVIGNITE-6047
p3125
aVIGNITE-6046
p3126
aVIGNITE-6045
p3127
aVIGNITE-6044
p3128
aVIGNITE-6043
p3129
aVIGNITE-6042
p3130
aVIGNITE-6041
p3131
aVIGNITE-6040
p3132
aVIGNITE-6039
p3133
aVIGNITE-6038
p3134
aVIGNITE-6037
p3135
aVIGNITE-6036
p3136
aVIGNITE-6035
p3137
aVIGNITE-6034
p3138
aVIGNITE-6033
p3139
aVIGNITE-6032
p3140
aVIGNITE-6031
p3141
aVIGNITE-6030
p3142
aVIGNITE-6029
p3143
aVIGNITE-6028
p3144
aVIGNITE-6027
p3145
aVIGNITE-6026
p3146
aVIGNITE-6025
p3147
aVIGNITE-6024
p3148
aVIGNITE-6023
p3149
aVIGNITE-6022
p3150
aVIGNITE-6021
p3151
aVIGNITE-6020
p3152
aVIGNITE-6019
p3153
aVIGNITE-6018
p3154
aVIGNITE-6017
p3155
aVIGNITE-6016
p3156
aVIGNITE-6015
p3157
aVIGNITE-6014
p3158
aVIGNITE-6013
p3159
aVIGNITE-6012
p3160
aVIGNITE-6011
p3161
aVIGNITE-6010
p3162
aVIGNITE-6009
p3163
aVIGNITE-6008
p3164
aVIGNITE-6007
p3165
aVIGNITE-6006
p3166
aVIGNITE-6005
p3167
aVIGNITE-6004
p3168
aVIGNITE-6003
p3169
aVIGNITE-6002
p3170
aVIGNITE-6001
p3171
aVIGNITE-6000
p3172
aVIGNITE-5999
p3173
aVIGNITE-5998
p3174
aVIGNITE-5997
p3175
aVIGNITE-5996
p3176
aVIGNITE-5995
p3177
aVIGNITE-5994
p3178
aVIGNITE-5993
p3179
aVIGNITE-5992
p3180
aVIGNITE-5991
p3181
aVIGNITE-5990
p3182
aVIGNITE-5989
p3183
aVIGNITE-5988
p3184
aVIGNITE-5987
p3185
aVIGNITE-5986
p3186
aVIGNITE-5985
p3187
aVIGNITE-5984
p3188
aVIGNITE-5983
p3189
aVIGNITE-5982
p3190
aVIGNITE-5981
p3191
aVIGNITE-5980
p3192
aVIGNITE-5979
p3193
aVIGNITE-5978
p3194
aVIGNITE-5977
p3195
aVIGNITE-5976
p3196
aVIGNITE-5975
p3197
aVIGNITE-5974
p3198
aVIGNITE-5973
p3199
aVIGNITE-5972
p3200
aVIGNITE-5971
p3201
aVIGNITE-5970
p3202
aVIGNITE-5969
p3203
aVIGNITE-5968
p3204
aVIGNITE-5967
p3205
aVIGNITE-5966
p3206
aVIGNITE-5965
p3207
aVIGNITE-5964
p3208
aVIGNITE-5963
p3209
aVIGNITE-5962
p3210
aVIGNITE-5961
p3211
aVIGNITE-5960
p3212
aVIGNITE-5959
p3213
aVIGNITE-5958
p3214
aVIGNITE-5957
p3215
aVIGNITE-5956
p3216
aVIGNITE-5955
p3217
aVIGNITE-5954
p3218
aVIGNITE-5953
p3219
aVIGNITE-5952
p3220
aVIGNITE-5951
p3221
aVIGNITE-5950
p3222
aVIGNITE-5949
p3223
aVIGNITE-5948
p3224
aVIGNITE-5947
p3225
aVIGNITE-5946
p3226
aVIGNITE-5945
p3227
aVIGNITE-5944
p3228
aVIGNITE-5943
p3229
aVIGNITE-5942
p3230
aVIGNITE-5941
p3231
aVIGNITE-5940
p3232
aVIGNITE-5939
p3233
aVIGNITE-5938
p3234
aVIGNITE-5937
p3235
aVIGNITE-5936
p3236
aVIGNITE-5935
p3237
aVIGNITE-5934
p3238
aVIGNITE-5933
p3239
aVIGNITE-5932
p3240
aVIGNITE-5931
p3241
aVIGNITE-5930
p3242
aVIGNITE-5929
p3243
aVIGNITE-5928
p3244
aVIGNITE-5927
p3245
aVIGNITE-5926
p3246
aVIGNITE-5925
p3247
aVIGNITE-5924
p3248
aVIGNITE-5923
p3249
aVIGNITE-5922
p3250
aVIGNITE-5921
p3251
aVIGNITE-5920
p3252
aVIGNITE-5919
p3253
aVIGNITE-5918
p3254
aVIGNITE-5917
p3255
aVIGNITE-5916
p3256
aVIGNITE-5915
p3257
aVIGNITE-5914
p3258
aVIGNITE-5913
p3259
aVIGNITE-5912
p3260
aVIGNITE-5911
p3261
aVIGNITE-5910
p3262
aVIGNITE-5909
p3263
aVIGNITE-5908
p3264
aVIGNITE-5907
p3265
aVIGNITE-5906
p3266
aVIGNITE-5905
p3267
aVIGNITE-5904
p3268
aVIGNITE-5903
p3269
aVIGNITE-5902
p3270
aVIGNITE-5901
p3271
aVIGNITE-5900
p3272
aVIGNITE-5899
p3273
aVIGNITE-5898
p3274
aVIGNITE-5897
p3275
aVIGNITE-5896
p3276
aVIGNITE-5895
p3277
aVIGNITE-5894
p3278
aVIGNITE-5893
p3279
aVIGNITE-5892
p3280
aVIGNITE-5891
p3281
aVIGNITE-5890
p3282
aVIGNITE-5889
p3283
aVIGNITE-5888
p3284
aVIGNITE-5887
p3285
aVIGNITE-5886
p3286
aVIGNITE-5885
p3287
aVIGNITE-5884
p3288
aVIGNITE-5883
p3289
aVIGNITE-5882
p3290
aVIGNITE-5881
p3291
aVIGNITE-5880
p3292
aVIGNITE-5879
p3293
aVIGNITE-5878
p3294
aVIGNITE-5877
p3295
aVIGNITE-5876
p3296
aVIGNITE-5875
p3297
aVIGNITE-5874
p3298
aVIGNITE-5873
p3299
aVIGNITE-5872
p3300
aVIGNITE-5871
p3301
aVIGNITE-5870
p3302
aVIGNITE-5869
p3303
aVIGNITE-5868
p3304
aVIGNITE-5867
p3305
aVIGNITE-5866
p3306
aVIGNITE-5865
p3307
aVIGNITE-5864
p3308
aVIGNITE-5863
p3309
aVIGNITE-5862
p3310
aVIGNITE-5861
p3311
aVIGNITE-5860
p3312
aVIGNITE-5859
p3313
aVIGNITE-5858
p3314
aVIGNITE-5857
p3315
aVIGNITE-5856
p3316
aVIGNITE-5855
p3317
aVIGNITE-5854
p3318
aVIGNITE-5853
p3319
aVIGNITE-5852
p3320
aVIGNITE-5851
p3321
aVIGNITE-5850
p3322
aVIGNITE-5849
p3323
aVIGNITE-5848
p3324
aVIGNITE-5847
p3325
aVIGNITE-5846
p3326
aVIGNITE-5845
p3327
aVIGNITE-5844
p3328
aVIGNITE-5843
p3329
aVIGNITE-5842
p3330
aVIGNITE-5841
p3331
aVIGNITE-5840
p3332
aVIGNITE-5839
p3333
aVIGNITE-5838
p3334
aVIGNITE-5837
p3335
aVIGNITE-5836
p3336
aVIGNITE-5835
p3337
aVIGNITE-5834
p3338
aVIGNITE-5833
p3339
aVIGNITE-5832
p3340
aVIGNITE-5831
p3341
aVIGNITE-5830
p3342
aVIGNITE-5829
p3343
aVIGNITE-5828
p3344
aVIGNITE-5827
p3345
aVIGNITE-5826
p3346
aVIGNITE-5825
p3347
aVIGNITE-5824
p3348
aVIGNITE-5823
p3349
aVIGNITE-5822
p3350
aVIGNITE-5821
p3351
aVIGNITE-5820
p3352
aVIGNITE-5819
p3353
aVIGNITE-5818
p3354
aVIGNITE-5817
p3355
aVIGNITE-5816
p3356
aVIGNITE-5815
p3357
aVIGNITE-5814
p3358
aVIGNITE-5813
p3359
aVIGNITE-5812
p3360
aVIGNITE-5811
p3361
aVIGNITE-5810
p3362
aVIGNITE-5809
p3363
aVIGNITE-5808
p3364
aVIGNITE-5807
p3365
aVIGNITE-5806
p3366
aVIGNITE-5805
p3367
aVIGNITE-5804
p3368
aVIGNITE-5803
p3369
aVIGNITE-5802
p3370
aVIGNITE-5801
p3371
aVIGNITE-5800
p3372
aVIGNITE-5799
p3373
aVIGNITE-5798
p3374
aVIGNITE-5797
p3375
aVIGNITE-5796
p3376
aVIGNITE-5795
p3377
aVIGNITE-5794
p3378
aVIGNITE-5793
p3379
aVIGNITE-5792
p3380
aVIGNITE-5791
p3381
aVIGNITE-5790
p3382
aVIGNITE-5789
p3383
aVIGNITE-5788
p3384
aVIGNITE-5787
p3385
aVIGNITE-5786
p3386
aVIGNITE-5785
p3387
aVIGNITE-5784
p3388
aVIGNITE-5783
p3389
aVIGNITE-5782
p3390
aVIGNITE-5781
p3391
aVIGNITE-5780
p3392
aVIGNITE-5779
p3393
aVIGNITE-5778
p3394
aVIGNITE-5777
p3395
aVIGNITE-5776
p3396
aVIGNITE-5775
p3397
aVIGNITE-5774
p3398
aVIGNITE-5773
p3399
aVIGNITE-5772
p3400
aVIGNITE-5771
p3401
aVIGNITE-5770
p3402
aVIGNITE-5769
p3403
aVIGNITE-5768
p3404
aVIGNITE-5767
p3405
aVIGNITE-5766
p3406
aVIGNITE-5765
p3407
aVIGNITE-5764
p3408
aVIGNITE-5763
p3409
aVIGNITE-5762
p3410
aVIGNITE-5761
p3411
aVIGNITE-5760
p3412
aVIGNITE-5759
p3413
aVIGNITE-5758
p3414
aVIGNITE-5757
p3415
aVIGNITE-5756
p3416
aVIGNITE-5755
p3417
aVIGNITE-5754
p3418
aVIGNITE-5753
p3419
aVIGNITE-5752
p3420
aVIGNITE-5751
p3421
aVIGNITE-5750
p3422
aVIGNITE-5749
p3423
aVIGNITE-5748
p3424
aVIGNITE-5747
p3425
aVIGNITE-5746
p3426
aVIGNITE-5745
p3427
aVIGNITE-5744
p3428
aVIGNITE-5743
p3429
aVIGNITE-5742
p3430
aVIGNITE-5741
p3431
aVIGNITE-5740
p3432
aVIGNITE-5739
p3433
aVIGNITE-5738
p3434
aVIGNITE-5737
p3435
aVIGNITE-5736
p3436
aVIGNITE-5735
p3437
aVIGNITE-5734
p3438
aVIGNITE-5733
p3439
aVIGNITE-5732
p3440
aVIGNITE-5731
p3441
aVIGNITE-5730
p3442
aVIGNITE-5729
p3443
aVIGNITE-5728
p3444
aVIGNITE-5727
p3445
aVIGNITE-5726
p3446
aVIGNITE-5725
p3447
aVIGNITE-5724
p3448
aVIGNITE-5723
p3449
aVIGNITE-5722
p3450
aVIGNITE-5721
p3451
aVIGNITE-5720
p3452
aVIGNITE-5719
p3453
aVIGNITE-5718
p3454
aVIGNITE-5717
p3455
aVIGNITE-5716
p3456
aVIGNITE-5715
p3457
aVIGNITE-5714
p3458
aVIGNITE-5713
p3459
aVIGNITE-5712
p3460
aVIGNITE-5711
p3461
aVIGNITE-5710
p3462
aVIGNITE-5709
p3463
aVIGNITE-5708
p3464
aVIGNITE-5707
p3465
aVIGNITE-5706
p3466
aVIGNITE-5705
p3467
aVIGNITE-5704
p3468
aVIGNITE-5703
p3469
aVIGNITE-5702
p3470
aVIGNITE-5701
p3471
aVIGNITE-5700
p3472
aVIGNITE-5699
p3473
aVIGNITE-5698
p3474
aVIGNITE-5697
p3475
aVIGNITE-5696
p3476
aVIGNITE-5695
p3477
aVIGNITE-5694
p3478
aVIGNITE-5693
p3479
aVIGNITE-5692
p3480
aVIGNITE-5691
p3481
aVIGNITE-5690
p3482
aVIGNITE-5689
p3483
aVIGNITE-5688
p3484
aVIGNITE-5687
p3485
aVIGNITE-5686
p3486
aVIGNITE-5685
p3487
aVIGNITE-5684
p3488
aVIGNITE-5683
p3489
aVIGNITE-5682
p3490
aVIGNITE-5681
p3491
aVIGNITE-5680
p3492
aVIGNITE-5679
p3493
aVIGNITE-5678
p3494
aVIGNITE-5677
p3495
aVIGNITE-5676
p3496
aVIGNITE-5675
p3497
aVIGNITE-5674
p3498
aVIGNITE-5673
p3499
aVIGNITE-5672
p3500
aVIGNITE-5671
p3501
aVIGNITE-5670
p3502
aVIGNITE-5669
p3503
aVIGNITE-5668
p3504
aVIGNITE-5667
p3505
aVIGNITE-5666
p3506
aVIGNITE-5665
p3507
aVIGNITE-5664
p3508
aVIGNITE-5663
p3509
aVIGNITE-5662
p3510
aVIGNITE-5661
p3511
aVIGNITE-5659
p3512
aVIGNITE-5658
p3513
aVIGNITE-5657
p3514
aVIGNITE-5656
p3515
aVIGNITE-5655
p3516
aVIGNITE-5654
p3517
aVIGNITE-5653
p3518
aVIGNITE-5652
p3519
aVIGNITE-5651
p3520
aVIGNITE-5650
p3521
aVIGNITE-5649
p3522
aVIGNITE-5648
p3523
aVIGNITE-5647
p3524
aVIGNITE-5646
p3525
aVIGNITE-5645
p3526
aVIGNITE-5644
p3527
aVIGNITE-5643
p3528
aVIGNITE-5642
p3529
aVIGNITE-5641
p3530
aVIGNITE-5640
p3531
aVIGNITE-5639
p3532
aVIGNITE-5638
p3533
aVIGNITE-5637
p3534
aVIGNITE-5636
p3535
aVIGNITE-5635
p3536
aVIGNITE-5634
p3537
aVIGNITE-5633
p3538
aVIGNITE-5632
p3539
aVIGNITE-5631
p3540
aVIGNITE-5630
p3541
aVIGNITE-5629
p3542
aVIGNITE-5628
p3543
aVIGNITE-5627
p3544
aVIGNITE-5626
p3545
aVIGNITE-5625
p3546
aVIGNITE-5624
p3547
aVIGNITE-5623
p3548
aVIGNITE-5622
p3549
aVIGNITE-5621
p3550
aVIGNITE-5620
p3551
aVIGNITE-5619
p3552
aVIGNITE-5618
p3553
aVIGNITE-5617
p3554
aVIGNITE-5616
p3555
aVIGNITE-5615
p3556
aVIGNITE-5614
p3557
aVIGNITE-5613
p3558
aVIGNITE-5612
p3559
aVIGNITE-5611
p3560
aVIGNITE-5610
p3561
aVIGNITE-5609
p3562
aVIGNITE-5608
p3563
aVIGNITE-5607
p3564
aVIGNITE-5606
p3565
aVIGNITE-5605
p3566
aVIGNITE-5604
p3567
aVIGNITE-5603
p3568
aVIGNITE-5602
p3569
aVIGNITE-5601
p3570
aVIGNITE-5600
p3571
aVIGNITE-5599
p3572
aVIGNITE-5598
p3573
aVIGNITE-5597
p3574
aVIGNITE-5596
p3575
aVIGNITE-5595
p3576
aVIGNITE-5594
p3577
aVIGNITE-5593
p3578
aVIGNITE-5592
p3579
aVIGNITE-5591
p3580
aVIGNITE-5590
p3581
aVIGNITE-5589
p3582
aVIGNITE-5588
p3583
aVIGNITE-5587
p3584
aVIGNITE-5586
p3585
aVIGNITE-5585
p3586
aVIGNITE-5584
p3587
aVIGNITE-5583
p3588
aVIGNITE-5582
p3589
aVIGNITE-5581
p3590
aVIGNITE-5580
p3591
aVIGNITE-5579
p3592
aVIGNITE-5578
p3593
aVIGNITE-5577
p3594
aVIGNITE-5576
p3595
aVIGNITE-5575
p3596
aVIGNITE-5574
p3597
aVIGNITE-5573
p3598
aVIGNITE-5572
p3599
aVIGNITE-5571
p3600
aVIGNITE-5570
p3601
aVIGNITE-5569
p3602
aVIGNITE-5568
p3603
aVIGNITE-5567
p3604
aVIGNITE-5566
p3605
aVIGNITE-5565
p3606
aVIGNITE-5564
p3607
aVIGNITE-5563
p3608
aVIGNITE-5562
p3609
aVIGNITE-5561
p3610
aVIGNITE-5560
p3611
aVIGNITE-5559
p3612
aVIGNITE-5558
p3613
aVIGNITE-5557
p3614
aVIGNITE-5556
p3615
aVIGNITE-5555
p3616
aVIGNITE-5554
p3617
aVIGNITE-5553
p3618
aVIGNITE-5552
p3619
aVIGNITE-5551
p3620
aVIGNITE-5550
p3621
aVIGNITE-5549
p3622
aVIGNITE-5548
p3623
aVIGNITE-5547
p3624
aVIGNITE-5546
p3625
aVIGNITE-5545
p3626
aVIGNITE-5544
p3627
aVIGNITE-5543
p3628
aVIGNITE-5542
p3629
aVIGNITE-5541
p3630
aVIGNITE-5540
p3631
aVIGNITE-5539
p3632
aVIGNITE-5538
p3633
aVIGNITE-5537
p3634
aVIGNITE-5536
p3635
aVIGNITE-5535
p3636
aVIGNITE-5534
p3637
aVIGNITE-5533
p3638
aVIGNITE-5532
p3639
aVIGNITE-5531
p3640
aVIGNITE-5530
p3641
aVIGNITE-5529
p3642
aVIGNITE-5528
p3643
aVIGNITE-5527
p3644
aVIGNITE-5526
p3645
aVIGNITE-5525
p3646
aVIGNITE-5524
p3647
aVIGNITE-5523
p3648
aVIGNITE-5522
p3649
aVIGNITE-5521
p3650
aVIGNITE-5520
p3651
aVIGNITE-5519
p3652
aVIGNITE-5518
p3653
aVIGNITE-5517
p3654
aVIGNITE-5516
p3655
aVIGNITE-5515
p3656
aVIGNITE-5514
p3657
aVIGNITE-5513
p3658
aVIGNITE-5512
p3659
aVIGNITE-5511
p3660
aVIGNITE-5510
p3661
aVIGNITE-5509
p3662
aVIGNITE-5508
p3663
aVIGNITE-5507
p3664
aVIGNITE-5506
p3665
aVIGNITE-5505
p3666
aVIGNITE-5504
p3667
aVIGNITE-5503
p3668
aVIGNITE-5502
p3669
aVIGNITE-5501
p3670
aVIGNITE-5500
p3671
aVIGNITE-5499
p3672
aVIGNITE-5498
p3673
aVIGNITE-5497
p3674
aVIGNITE-5496
p3675
aVIGNITE-5495
p3676
aVIGNITE-5494
p3677
aVIGNITE-5493
p3678
aVIGNITE-5492
p3679
aVIGNITE-5491
p3680
aVIGNITE-5490
p3681
aVIGNITE-5489
p3682
aVIGNITE-5488
p3683
aVIGNITE-5487
p3684
aVIGNITE-5486
p3685
aVIGNITE-5485
p3686
aVIGNITE-5484
p3687
aVIGNITE-5483
p3688
aVIGNITE-5482
p3689
aVIGNITE-5481
p3690
aVIGNITE-5480
p3691
aVIGNITE-5479
p3692
aVIGNITE-5478
p3693
aVIGNITE-5477
p3694
aVIGNITE-5476
p3695
aVIGNITE-5475
p3696
aVIGNITE-5474
p3697
aVIGNITE-5473
p3698
aVIGNITE-5472
p3699
aVIGNITE-5471
p3700
aVIGNITE-5470
p3701
aVIGNITE-5469
p3702
aVIGNITE-5468
p3703
aVIGNITE-5467
p3704
aVIGNITE-5466
p3705
aVIGNITE-5465
p3706
aVIGNITE-5464
p3707
aVIGNITE-5463
p3708
aVIGNITE-5462
p3709
aVIGNITE-5461
p3710
aVIGNITE-5460
p3711
aVIGNITE-5459
p3712
aVIGNITE-5458
p3713
aVIGNITE-5457
p3714
aVIGNITE-5456
p3715
aVIGNITE-5455
p3716
aVIGNITE-5454
p3717
aVIGNITE-5453
p3718
aVIGNITE-5452
p3719
aVIGNITE-5451
p3720
aVIGNITE-5450
p3721
aVIGNITE-5449
p3722
aVIGNITE-5448
p3723
aVIGNITE-5447
p3724
aVIGNITE-5446
p3725
aVIGNITE-5445
p3726
aVIGNITE-5444
p3727
aVIGNITE-5443
p3728
aVIGNITE-5442
p3729
aVIGNITE-5441
p3730
aVIGNITE-5440
p3731
aVIGNITE-5439
p3732
aVIGNITE-5438
p3733
aVIGNITE-5437
p3734
aVIGNITE-5436
p3735
aVIGNITE-5435
p3736
aVIGNITE-5434
p3737
aVIGNITE-5433
p3738
aVIGNITE-5432
p3739
aVIGNITE-5431
p3740
aVIGNITE-5430
p3741
aVIGNITE-5429
p3742
aVIGNITE-5428
p3743
aVIGNITE-5427
p3744
aVIGNITE-5426
p3745
aVIGNITE-5425
p3746
aVIGNITE-5424
p3747
aVIGNITE-5423
p3748
aVIGNITE-5422
p3749
aVIGNITE-5421
p3750
aVIGNITE-5420
p3751
aVIGNITE-5419
p3752
aVIGNITE-5418
p3753
aVIGNITE-5417
p3754
aVIGNITE-5416
p3755
aVIGNITE-5415
p3756
aVIGNITE-5414
p3757
aVIGNITE-5413
p3758
aVIGNITE-5412
p3759
aVIGNITE-5411
p3760
aVIGNITE-5410
p3761
aVIGNITE-5409
p3762
aVIGNITE-5408
p3763
aVIGNITE-5407
p3764
aVIGNITE-5406
p3765
aVIGNITE-5405
p3766
aVIGNITE-5404
p3767
aVIGNITE-5403
p3768
aVIGNITE-5402
p3769
aVIGNITE-5401
p3770
aVIGNITE-5400
p3771
aVIGNITE-5399
p3772
aVIGNITE-5398
p3773
aVIGNITE-5397
p3774
aVIGNITE-5396
p3775
aVIGNITE-5395
p3776
aVIGNITE-5394
p3777
aVIGNITE-5393
p3778
aVIGNITE-5392
p3779
aVIGNITE-5391
p3780
aVIGNITE-5390
p3781
aVIGNITE-5389
p3782
aVIGNITE-5388
p3783
aVIGNITE-5387
p3784
aVIGNITE-5386
p3785
aVIGNITE-5385
p3786
aVIGNITE-5384
p3787
aVIGNITE-5383
p3788
aVIGNITE-5382
p3789
aVIGNITE-5381
p3790
aVIGNITE-5380
p3791
aVIGNITE-5379
p3792
aVIGNITE-5378
p3793
aVIGNITE-5377
p3794
aVIGNITE-5376
p3795
aVIGNITE-5375
p3796
aVIGNITE-5374
p3797
aVIGNITE-5373
p3798
aVIGNITE-5372
p3799
aVIGNITE-5371
p3800
aVIGNITE-5370
p3801
aVIGNITE-5369
p3802
aVIGNITE-5368
p3803
aVIGNITE-5367
p3804
aVIGNITE-5366
p3805
aVIGNITE-5365
p3806
aVIGNITE-5364
p3807
aVIGNITE-5363
p3808
aVIGNITE-5362
p3809
aVIGNITE-5361
p3810
aVIGNITE-5360
p3811
aVIGNITE-5359
p3812
aVIGNITE-5358
p3813
aVIGNITE-5357
p3814
aVIGNITE-5356
p3815
aVIGNITE-5355
p3816
aVIGNITE-5354
p3817
aVIGNITE-5353
p3818
aVIGNITE-5352
p3819
aVIGNITE-5351
p3820
aVIGNITE-5350
p3821
aVIGNITE-5349
p3822
aVIGNITE-5348
p3823
aVIGNITE-5347
p3824
aVIGNITE-5346
p3825
aVIGNITE-5345
p3826
aVIGNITE-5344
p3827
aVIGNITE-5343
p3828
aVIGNITE-5342
p3829
aVIGNITE-5341
p3830
aVIGNITE-5340
p3831
aVIGNITE-5339
p3832
aVIGNITE-5338
p3833
aVIGNITE-5337
p3834
aVIGNITE-5336
p3835
aVIGNITE-5335
p3836
aVIGNITE-5334
p3837
aVIGNITE-5333
p3838
aVIGNITE-5332
p3839
aVIGNITE-5331
p3840
aVIGNITE-5330
p3841
aVIGNITE-5329
p3842
aVIGNITE-5328
p3843
aVIGNITE-5327
p3844
aVIGNITE-5326
p3845
aVIGNITE-5325
p3846
aVIGNITE-5324
p3847
aVIGNITE-5323
p3848
aVIGNITE-5322
p3849
aVIGNITE-5321
p3850
aVIGNITE-5320
p3851
aVIGNITE-5319
p3852
aVIGNITE-5318
p3853
aVIGNITE-5317
p3854
aVIGNITE-5316
p3855
aVIGNITE-5315
p3856
aVIGNITE-5314
p3857
aVIGNITE-5313
p3858
aVIGNITE-5312
p3859
aVIGNITE-5311
p3860
aVIGNITE-5310
p3861
aVIGNITE-5309
p3862
aVIGNITE-5308
p3863
aVIGNITE-5307
p3864
aVIGNITE-5306
p3865
aVIGNITE-5305
p3866
aVIGNITE-5304
p3867
aVIGNITE-5303
p3868
aVIGNITE-5302
p3869
aVIGNITE-5301
p3870
aVIGNITE-5300
p3871
aVIGNITE-5299
p3872
aVIGNITE-5298
p3873
aVIGNITE-5296
p3874
aVIGNITE-5295
p3875
aVIGNITE-5294
p3876
aVIGNITE-5293
p3877
aVIGNITE-5292
p3878
aVIGNITE-5291
p3879
aVIGNITE-5290
p3880
aVIGNITE-5289
p3881
aVIGNITE-5288
p3882
aVIGNITE-5287
p3883
aVIGNITE-5286
p3884
aVIGNITE-5285
p3885
aVIGNITE-5284
p3886
aVIGNITE-5283
p3887
aVIGNITE-5282
p3888
aVIGNITE-5281
p3889
aVIGNITE-5280
p3890
aVIGNITE-5279
p3891
aVIGNITE-5278
p3892
aVIGNITE-5277
p3893
aVIGNITE-5276
p3894
aVIGNITE-5275
p3895
aVIGNITE-5274
p3896
aVIGNITE-5273
p3897
aVIGNITE-5272
p3898
aVIGNITE-5271
p3899
aVIGNITE-5270
p3900
aVIGNITE-5269
p3901
aVIGNITE-5268
p3902
aVIGNITE-5267
p3903
aVIGNITE-5266
p3904
aVIGNITE-5265
p3905
aVIGNITE-5264
p3906
aVIGNITE-5263
p3907
aVIGNITE-5262
p3908
aVIGNITE-5261
p3909
aVIGNITE-5260
p3910
aVIGNITE-5259
p3911
aVIGNITE-5258
p3912
aVIGNITE-5257
p3913
aVIGNITE-5256
p3914
aVIGNITE-5255
p3915
aVIGNITE-5254
p3916
aVIGNITE-5253
p3917
aVIGNITE-5252
p3918
aVIGNITE-5251
p3919
aVIGNITE-5250
p3920
aVIGNITE-5249
p3921
aVIGNITE-5248
p3922
aVIGNITE-5247
p3923
aVIGNITE-5246
p3924
aVIGNITE-5245
p3925
aVIGNITE-5244
p3926
aVIGNITE-5243
p3927
aVIGNITE-5242
p3928
aVIGNITE-5241
p3929
aVIGNITE-5240
p3930
aVIGNITE-5239
p3931
aVIGNITE-5238
p3932
aVIGNITE-5237
p3933
aVIGNITE-5236
p3934
aVIGNITE-5235
p3935
aVIGNITE-5234
p3936
aVIGNITE-5233
p3937
aVIGNITE-5232
p3938
aVIGNITE-5231
p3939
aVIGNITE-5230
p3940
aVIGNITE-5229
p3941
aVIGNITE-5228
p3942
aVIGNITE-5227
p3943
aVIGNITE-5226
p3944
aVIGNITE-5225
p3945
aVIGNITE-5224
p3946
aVIGNITE-5223
p3947
aVIGNITE-5222
p3948
aVIGNITE-5221
p3949
aVIGNITE-5220
p3950
aVIGNITE-5219
p3951
aVIGNITE-5218
p3952
aVIGNITE-5217
p3953
aVIGNITE-5216
p3954
aVIGNITE-5215
p3955
aVIGNITE-5214
p3956
aVIGNITE-5213
p3957
aVIGNITE-5212
p3958
aVIGNITE-5211
p3959
aVIGNITE-5210
p3960
aVIGNITE-5209
p3961
aVIGNITE-5208
p3962
aVIGNITE-5207
p3963
aVIGNITE-5206
p3964
aVIGNITE-5205
p3965
aVIGNITE-5204
p3966
aVIGNITE-5203
p3967
aVIGNITE-5202
p3968
aVIGNITE-5201
p3969
aVIGNITE-5200
p3970
aVIGNITE-5199
p3971
aVIGNITE-5198
p3972
aVIGNITE-5197
p3973
aVIGNITE-5196
p3974
aVIGNITE-5195
p3975
aVIGNITE-5194
p3976
aVIGNITE-5193
p3977
aVIGNITE-5192
p3978
aVIGNITE-5191
p3979
aVIGNITE-5190
p3980
aVIGNITE-5189
p3981
aVIGNITE-5188
p3982
aVIGNITE-5187
p3983
aVIGNITE-5186
p3984
aVIGNITE-5185
p3985
aVIGNITE-5184
p3986
aVIGNITE-5183
p3987
aVIGNITE-5182
p3988
aVIGNITE-5181
p3989
aVIGNITE-5180
p3990
aVIGNITE-5179
p3991
aVIGNITE-5178
p3992
aVIGNITE-5177
p3993
aVIGNITE-5176
p3994
aVIGNITE-5175
p3995
aVIGNITE-5174
p3996
aVIGNITE-5173
p3997
aVIGNITE-5172
p3998
aVIGNITE-5171
p3999
aVIGNITE-5170
p4000
aVIGNITE-5169
p4001
aVIGNITE-5168
p4002
aVIGNITE-5167
p4003
aVIGNITE-5166
p4004
aVIGNITE-5165
p4005
aVIGNITE-5164
p4006
aVIGNITE-5163
p4007
aVIGNITE-5162
p4008
aVIGNITE-5161
p4009
aVIGNITE-5160
p4010
aVIGNITE-5159
p4011
aVIGNITE-5158
p4012
aVIGNITE-5157
p4013
aVIGNITE-5156
p4014
aVIGNITE-5155
p4015
aVIGNITE-5154
p4016
aVIGNITE-5153
p4017
aVIGNITE-5152
p4018
aVIGNITE-5151
p4019
aVIGNITE-5150
p4020
aVIGNITE-5149
p4021
aVIGNITE-5148
p4022
aVIGNITE-5147
p4023
aVIGNITE-5146
p4024
aVIGNITE-5145
p4025
aVIGNITE-5144
p4026
aVIGNITE-5143
p4027
aVIGNITE-5142
p4028
aVIGNITE-5141
p4029
aVIGNITE-5140
p4030
aVIGNITE-5139
p4031
aVIGNITE-5138
p4032
aVIGNITE-5137
p4033
aVIGNITE-5136
p4034
aVIGNITE-5135
p4035
aVIGNITE-5134
p4036
aVIGNITE-5133
p4037
aVIGNITE-5132
p4038
aVIGNITE-5131
p4039
aVIGNITE-5130
p4040
aVIGNITE-5129
p4041
aVIGNITE-5128
p4042
aVIGNITE-5127
p4043
aVIGNITE-5126
p4044
aVIGNITE-5125
p4045
aVIGNITE-5124
p4046
aVIGNITE-5123
p4047
aVIGNITE-5122
p4048
aVIGNITE-5121
p4049
aVIGNITE-5120
p4050
aVIGNITE-5119
p4051
aVIGNITE-5118
p4052
aVIGNITE-5117
p4053
aVIGNITE-5116
p4054
aVIGNITE-5115
p4055
aVIGNITE-5114
p4056
aVIGNITE-5113
p4057
aVIGNITE-5112
p4058
aVIGNITE-5111
p4059
aVIGNITE-5110
p4060
aVIGNITE-5109
p4061
aVIGNITE-5108
p4062
aVIGNITE-5107
p4063
aVIGNITE-5106
p4064
aVIGNITE-5105
p4065
aVIGNITE-5104
p4066
aVIGNITE-5103
p4067
aVIGNITE-5102
p4068
aVIGNITE-5101
p4069
aVIGNITE-5100
p4070
aVIGNITE-5099
p4071
aVIGNITE-5098
p4072
aVIGNITE-5097
p4073
aVIGNITE-5096
p4074
aVIGNITE-5095
p4075
aVIGNITE-5094
p4076
aVIGNITE-5093
p4077
aVIGNITE-5092
p4078
aVIGNITE-5091
p4079
aVIGNITE-5090
p4080
aVIGNITE-5089
p4081
aVIGNITE-5088
p4082
aVIGNITE-5087
p4083
aVIGNITE-5086
p4084
aVIGNITE-5084
p4085
aVIGNITE-5083
p4086
aVIGNITE-5082
p4087
aVIGNITE-5081
p4088
aVIGNITE-5080
p4089
aVIGNITE-5079
p4090
aVIGNITE-5078
p4091
aVIGNITE-5077
p4092
aVIGNITE-5076
p4093
aVIGNITE-5075
p4094
aVIGNITE-5074
p4095
aVIGNITE-5073
p4096
aVIGNITE-5072
p4097
aVIGNITE-5071
p4098
aVIGNITE-5070
p4099
aVIGNITE-5069
p4100
aVIGNITE-5068
p4101
aVIGNITE-5067
p4102
aVIGNITE-5066
p4103
aVIGNITE-5065
p4104
aVIGNITE-5064
p4105
aVIGNITE-5063
p4106
aVIGNITE-5062
p4107
aVIGNITE-5061
p4108
aVIGNITE-5060
p4109
aVIGNITE-5059
p4110
aVIGNITE-5058
p4111
aVIGNITE-5057
p4112
aVIGNITE-5056
p4113
aVIGNITE-5055
p4114
aVIGNITE-5054
p4115
aVIGNITE-5053
p4116
aVIGNITE-5052
p4117
aVIGNITE-5051
p4118
aVIGNITE-5050
p4119
aVIGNITE-5049
p4120
aVIGNITE-5048
p4121
aVIGNITE-5047
p4122
aVIGNITE-5046
p4123
aVIGNITE-5045
p4124
aVIGNITE-5044
p4125
aVIGNITE-5043
p4126
aVIGNITE-5042
p4127
aVIGNITE-5041
p4128
aVIGNITE-5040
p4129
aVIGNITE-5039
p4130
aVIGNITE-5038
p4131
aVIGNITE-5037
p4132
aVIGNITE-5036
p4133
aVIGNITE-5035
p4134
aVIGNITE-5034
p4135
aVIGNITE-5033
p4136
aVIGNITE-5032
p4137
aVIGNITE-5031
p4138
aVIGNITE-5030
p4139
aVIGNITE-5029
p4140
aVIGNITE-5028
p4141
aVIGNITE-5027
p4142
aVIGNITE-5026
p4143
aVIGNITE-5025
p4144
aVIGNITE-5024
p4145
aVIGNITE-5023
p4146
aVIGNITE-5022
p4147
aVIGNITE-5021
p4148
aVIGNITE-5020
p4149
aVIGNITE-5019
p4150
aVIGNITE-5018
p4151
aVIGNITE-5017
p4152
aVIGNITE-5016
p4153
aVIGNITE-5015
p4154
aVIGNITE-5014
p4155
aVIGNITE-5013
p4156
aVIGNITE-5012
p4157
aVIGNITE-5011
p4158
aVIGNITE-5010
p4159
aVIGNITE-5009
p4160
aVIGNITE-5008
p4161
aVIGNITE-5007
p4162
aVIGNITE-5006
p4163
aVIGNITE-5005
p4164
aVIGNITE-5004
p4165
aVIGNITE-5003
p4166
aVIGNITE-5002
p4167
aVIGNITE-5001
p4168
aVIGNITE-5000
p4169
aVIGNITE-4999
p4170
aVIGNITE-4998
p4171
aVIGNITE-4997
p4172
aVIGNITE-4996
p4173
aVIGNITE-4995
p4174
aVIGNITE-4994
p4175
aVIGNITE-4993
p4176
aVIGNITE-4992
p4177
aVIGNITE-4991
p4178
aVIGNITE-4990
p4179
aVIGNITE-4989
p4180
aVIGNITE-4988
p4181
aVIGNITE-4987
p4182
aVIGNITE-4986
p4183
aVIGNITE-4985
p4184
aVIGNITE-4984
p4185
aVIGNITE-4983
p4186
aVIGNITE-4982
p4187
aVIGNITE-4981
p4188
aVIGNITE-4980
p4189
aVIGNITE-4979
p4190
aVIGNITE-4978
p4191
aVIGNITE-4977
p4192
aVIGNITE-4976
p4193
aVIGNITE-4975
p4194
aVIGNITE-4974
p4195
aVIGNITE-4973
p4196
aVIGNITE-4972
p4197
aVIGNITE-4971
p4198
aVIGNITE-4970
p4199
aVIGNITE-4969
p4200
aVIGNITE-4968
p4201
aVIGNITE-4967
p4202
aVIGNITE-4966
p4203
aVIGNITE-4965
p4204
aVIGNITE-4964
p4205
aVIGNITE-4963
p4206
aVIGNITE-4962
p4207
aVIGNITE-4961
p4208
aVIGNITE-4960
p4209
aVIGNITE-4959
p4210
aVIGNITE-4958
p4211
aVIGNITE-4957
p4212
aVIGNITE-4956
p4213
aVIGNITE-4955
p4214
aVIGNITE-4954
p4215
aVIGNITE-4953
p4216
aVIGNITE-4952
p4217
aVIGNITE-4951
p4218
aVIGNITE-4950
p4219
aVIGNITE-4949
p4220
aVIGNITE-4948
p4221
aVIGNITE-4947
p4222
aVIGNITE-4946
p4223
aVIGNITE-4945
p4224
aVIGNITE-4944
p4225
aVIGNITE-4943
p4226
aVIGNITE-4942
p4227
aVIGNITE-4941
p4228
aVIGNITE-4940
p4229
aVIGNITE-4939
p4230
aVIGNITE-4938
p4231
aVIGNITE-4937
p4232
aVIGNITE-4936
p4233
aVIGNITE-4935
p4234
aVIGNITE-4934
p4235
aVIGNITE-4933
p4236
aVIGNITE-4932
p4237
aVIGNITE-4931
p4238
aVIGNITE-4930
p4239
aVIGNITE-4929
p4240
aVIGNITE-4928
p4241
aVIGNITE-4927
p4242
aVIGNITE-4926
p4243
aVIGNITE-4925
p4244
aVIGNITE-4924
p4245
aVIGNITE-4922
p4246
aVIGNITE-4921
p4247
aVIGNITE-4920
p4248
aVIGNITE-4919
p4249
aVIGNITE-4918
p4250
aVIGNITE-4917
p4251
aVIGNITE-4916
p4252
aVIGNITE-4915
p4253
aVIGNITE-4914
p4254
aVIGNITE-4913
p4255
aVIGNITE-4912
p4256
aVIGNITE-4911
p4257
aVIGNITE-4910
p4258
aVIGNITE-4909
p4259
aVIGNITE-4908
p4260
aVIGNITE-4907
p4261
aVIGNITE-4906
p4262
aVIGNITE-4905
p4263
aVIGNITE-4904
p4264
aVIGNITE-4903
p4265
aVIGNITE-4902
p4266
aVIGNITE-4901
p4267
aVIGNITE-4900
p4268
aVIGNITE-4899
p4269
aVIGNITE-4898
p4270
aVIGNITE-4897
p4271
aVIGNITE-4896
p4272
aVIGNITE-4895
p4273
aVIGNITE-4894
p4274
aVIGNITE-4893
p4275
aVIGNITE-4892
p4276
aVIGNITE-4891
p4277
aVIGNITE-4890
p4278
aVIGNITE-4889
p4279
aVIGNITE-4888
p4280
aVIGNITE-4887
p4281
aVIGNITE-4886
p4282
aVIGNITE-4885
p4283
aVIGNITE-4884
p4284
aVIGNITE-4883
p4285
aVIGNITE-4882
p4286
aVIGNITE-4881
p4287
aVIGNITE-4880
p4288
aVIGNITE-4879
p4289
aVIGNITE-4878
p4290
aVIGNITE-4877
p4291
aVIGNITE-4876
p4292
aVIGNITE-4875
p4293
aVIGNITE-4874
p4294
aVIGNITE-4873
p4295
aVIGNITE-4872
p4296
aVIGNITE-4871
p4297
aVIGNITE-4870
p4298
aVIGNITE-4869
p4299
aVIGNITE-4868
p4300
aVIGNITE-4867
p4301
aVIGNITE-4866
p4302
aVIGNITE-4865
p4303
aVIGNITE-4864
p4304
aVIGNITE-4863
p4305
aVIGNITE-4862
p4306
aVIGNITE-4861
p4307
aVIGNITE-4860
p4308
aVIGNITE-4859
p4309
aVIGNITE-4858
p4310
aVIGNITE-4857
p4311
aVIGNITE-4856
p4312
aVIGNITE-4855
p4313
aVIGNITE-4854
p4314
aVIGNITE-4853
p4315
aVIGNITE-4852
p4316
aVIGNITE-4851
p4317
aVIGNITE-4850
p4318
aVIGNITE-4849
p4319
aVIGNITE-4848
p4320
aVIGNITE-4847
p4321
aVIGNITE-4846
p4322
aVIGNITE-4845
p4323
aVIGNITE-4844
p4324
aVIGNITE-4843
p4325
aVIGNITE-4842
p4326
aVIGNITE-4841
p4327
aVIGNITE-4840
p4328
aVIGNITE-4839
p4329
aVIGNITE-4838
p4330
aVIGNITE-4837
p4331
aVIGNITE-4836
p4332
aVIGNITE-4835
p4333
aVIGNITE-4834
p4334
aVIGNITE-4833
p4335
aVIGNITE-4832
p4336
aVIGNITE-4831
p4337
aVIGNITE-4830
p4338
aVIGNITE-4829
p4339
aVIGNITE-4828
p4340
aVIGNITE-4827
p4341
aVIGNITE-4826
p4342
aVIGNITE-4825
p4343
aVIGNITE-4824
p4344
aVIGNITE-4823
p4345
aVIGNITE-4822
p4346
aVIGNITE-4821
p4347
aVIGNITE-4820
p4348
aVIGNITE-4819
p4349
aVIGNITE-4818
p4350
aVIGNITE-4817
p4351
aVIGNITE-4816
p4352
aVIGNITE-4815
p4353
aVIGNITE-4814
p4354
aVIGNITE-4813
p4355
aVIGNITE-4812
p4356
aVIGNITE-4811
p4357
aVIGNITE-4810
p4358
aVIGNITE-4809
p4359
aVIGNITE-4808
p4360
aVIGNITE-4807
p4361
aVIGNITE-4806
p4362
aVIGNITE-4805
p4363
aVIGNITE-4804
p4364
aVIGNITE-4803
p4365
aVIGNITE-4802
p4366
aVIGNITE-4801
p4367
aVIGNITE-4800
p4368
aVIGNITE-4799
p4369
aVIGNITE-4798
p4370
aVIGNITE-4797
p4371
aVIGNITE-4796
p4372
aVIGNITE-4795
p4373
aVIGNITE-4794
p4374
aVIGNITE-4793
p4375
aVIGNITE-4792
p4376
aVIGNITE-4788
p4377
aVIGNITE-4787
p4378
aVIGNITE-4786
p4379
aVIGNITE-4785
p4380
aVIGNITE-4784
p4381
aVIGNITE-4783
p4382
aVIGNITE-4782
p4383
aVIGNITE-4781
p4384
aVIGNITE-4780
p4385
aVIGNITE-4779
p4386
aVIGNITE-4777
p4387
aVIGNITE-4776
p4388
aVIGNITE-4775
p4389
aVIGNITE-4774
p4390
aVIGNITE-4773
p4391
aVIGNITE-4772
p4392
aVIGNITE-4771
p4393
aVIGNITE-4770
p4394
aVIGNITE-4769
p4395
aVIGNITE-4768
p4396
aVIGNITE-4767
p4397
aVIGNITE-4766
p4398
aVIGNITE-4765
p4399
aVIGNITE-4764
p4400
aVIGNITE-4763
p4401
aVIGNITE-4762
p4402
aVIGNITE-4761
p4403
aVIGNITE-4760
p4404
aVIGNITE-4759
p4405
aVIGNITE-4758
p4406
aVIGNITE-4757
p4407
aVIGNITE-4756
p4408
aVIGNITE-4755
p4409
aVIGNITE-4754
p4410
aVIGNITE-4753
p4411
aVIGNITE-4752
p4412
aVIGNITE-4751
p4413
aVIGNITE-4750
p4414
aVIGNITE-4749
p4415
aVIGNITE-4748
p4416
aVIGNITE-4747
p4417
aVIGNITE-4746
p4418
aVIGNITE-4745
p4419
aVIGNITE-4744
p4420
aVIGNITE-4743
p4421
aVIGNITE-4742
p4422
aVIGNITE-4741
p4423
aVIGNITE-4740
p4424
aVIGNITE-4739
p4425
aVIGNITE-4738
p4426
aVIGNITE-4737
p4427
aVIGNITE-4736
p4428
aVIGNITE-4735
p4429
aVIGNITE-4734
p4430
aVIGNITE-4733
p4431
aVIGNITE-4732
p4432
aVIGNITE-4731
p4433
aVIGNITE-4730
p4434
aVIGNITE-4729
p4435
aVIGNITE-4728
p4436
aVIGNITE-4727
p4437
aVIGNITE-4726
p4438
aVIGNITE-4725
p4439
aVIGNITE-4724
p4440
aVIGNITE-4723
p4441
aVIGNITE-4722
p4442
aVIGNITE-4721
p4443
aVIGNITE-4720
p4444
aVIGNITE-4719
p4445
aVIGNITE-4718
p4446
aVIGNITE-4717
p4447
aVIGNITE-4716
p4448
aVIGNITE-4715
p4449
aVIGNITE-4714
p4450
aVIGNITE-4713
p4451
aVIGNITE-4712
p4452
aVIGNITE-4711
p4453
aVIGNITE-4710
p4454
aVIGNITE-4709
p4455
aVIGNITE-4708
p4456
aVIGNITE-4707
p4457
aVIGNITE-4706
p4458
aVIGNITE-4705
p4459
aVIGNITE-4704
p4460
aVIGNITE-4703
p4461
aVIGNITE-4702
p4462
aVIGNITE-4701
p4463
aVIGNITE-4700
p4464
aVIGNITE-4699
p4465
aVIGNITE-4698
p4466
aVIGNITE-4697
p4467
aVIGNITE-4696
p4468
aVIGNITE-4695
p4469
aVIGNITE-4694
p4470
aVIGNITE-4693
p4471
aVIGNITE-4692
p4472
aVIGNITE-4691
p4473
aVIGNITE-4690
p4474
aVIGNITE-4689
p4475
aVIGNITE-4688
p4476
aVIGNITE-4687
p4477
aVIGNITE-4686
p4478
aVIGNITE-4685
p4479
aVIGNITE-4684
p4480
aVIGNITE-4683
p4481
aVIGNITE-4682
p4482
aVIGNITE-4681
p4483
aVIGNITE-4680
p4484
aVIGNITE-4679
p4485
aVIGNITE-4678
p4486
aVIGNITE-4677
p4487
aVIGNITE-4676
p4488
aVIGNITE-4675
p4489
aVIGNITE-4674
p4490
aVIGNITE-4673
p4491
aVIGNITE-4672
p4492
aVIGNITE-4671
p4493
aVIGNITE-4670
p4494
aVIGNITE-4669
p4495
aVIGNITE-4668
p4496
aVIGNITE-4667
p4497
aVIGNITE-4666
p4498
aVIGNITE-4665
p4499
aVIGNITE-4664
p4500
aVIGNITE-4663
p4501
aVIGNITE-4662
p4502
aVIGNITE-4661
p4503
aVIGNITE-4660
p4504
aVIGNITE-4659
p4505
aVIGNITE-4658
p4506
aVIGNITE-4657
p4507
aVIGNITE-4656
p4508
aVIGNITE-4655
p4509
aVIGNITE-4654
p4510
aVIGNITE-4653
p4511
aVIGNITE-4652
p4512
aVIGNITE-4651
p4513
aVIGNITE-4650
p4514
aVIGNITE-4649
p4515
aVIGNITE-4648
p4516
aVIGNITE-4647
p4517
aVIGNITE-4646
p4518
aVIGNITE-4645
p4519
aVIGNITE-4644
p4520
aVIGNITE-4643
p4521
aVIGNITE-4642
p4522
aVIGNITE-4641
p4523
aVIGNITE-4640
p4524
aVIGNITE-4639
p4525
aVIGNITE-4638
p4526
aVIGNITE-4637
p4527
aVIGNITE-4636
p4528
aVIGNITE-4635
p4529
aVIGNITE-4634
p4530
aVIGNITE-4633
p4531
aVIGNITE-4632
p4532
aVIGNITE-4631
p4533
aVIGNITE-4630
p4534
aVIGNITE-4629
p4535
aVIGNITE-4628
p4536
aVIGNITE-4627
p4537
aVIGNITE-4626
p4538
aVIGNITE-4625
p4539
aVIGNITE-4624
p4540
aVIGNITE-4623
p4541
aVIGNITE-4622
p4542
aVIGNITE-4621
p4543
aVIGNITE-4620
p4544
aVIGNITE-4619
p4545
aVIGNITE-4618
p4546
aVIGNITE-4617
p4547
aVIGNITE-4616
p4548
aVIGNITE-4615
p4549
aVIGNITE-4614
p4550
aVIGNITE-4613
p4551
aVIGNITE-4612
p4552
aVIGNITE-4611
p4553
aVIGNITE-4610
p4554
aVIGNITE-4609
p4555
aVIGNITE-4608
p4556
aVIGNITE-4607
p4557
aVIGNITE-4606
p4558
aVIGNITE-4605
p4559
aVIGNITE-4604
p4560
aVIGNITE-4603
p4561
aVIGNITE-4602
p4562
aVIGNITE-4601
p4563
aVIGNITE-4600
p4564
aVIGNITE-4599
p4565
aVIGNITE-4598
p4566
aVIGNITE-4597
p4567
aVIGNITE-4596
p4568
aVIGNITE-4595
p4569
aVIGNITE-4594
p4570
aVIGNITE-4593
p4571
aVIGNITE-4592
p4572
aVIGNITE-4591
p4573
aVIGNITE-4590
p4574
aVIGNITE-4589
p4575
aVIGNITE-4588
p4576
aVIGNITE-4587
p4577
aVIGNITE-4586
p4578
aVIGNITE-4585
p4579
aVIGNITE-4584
p4580
aVIGNITE-4583
p4581
aVIGNITE-4582
p4582
aVIGNITE-4581
p4583
aVIGNITE-4580
p4584
aVIGNITE-4579
p4585
aVIGNITE-4578
p4586
aVIGNITE-4577
p4587
aVIGNITE-4576
p4588
aVIGNITE-4575
p4589
aVIGNITE-4574
p4590
aVIGNITE-4573
p4591
aVIGNITE-4572
p4592
aVIGNITE-4571
p4593
aVIGNITE-4570
p4594
aVIGNITE-4569
p4595
aVIGNITE-4568
p4596
aVIGNITE-4567
p4597
aVIGNITE-4566
p4598
aVIGNITE-4565
p4599
aVIGNITE-4564
p4600
aVIGNITE-4563
p4601
aVIGNITE-4562
p4602
aVIGNITE-4561
p4603
aVIGNITE-4558
p4604
aVIGNITE-4557
p4605
aVIGNITE-4556
p4606
aVIGNITE-4555
p4607
aVIGNITE-4554
p4608
aVIGNITE-4553
p4609
aVIGNITE-4552
p4610
aVIGNITE-4551
p4611
aVIGNITE-4550
p4612
aVIGNITE-4549
p4613
aVIGNITE-4548
p4614
aVIGNITE-4547
p4615
aVIGNITE-4546
p4616
aVIGNITE-4545
p4617
aVIGNITE-4543
p4618
aVIGNITE-4541
p4619
aVIGNITE-4540
p4620
aVIGNITE-4539
p4621
aVIGNITE-4538
p4622
aVIGNITE-4537
p4623
aVIGNITE-4536
p4624
aVIGNITE-4535
p4625
aVIGNITE-4534
p4626
aVIGNITE-4533
p4627
aVIGNITE-4532
p4628
aVIGNITE-4531
p4629
aVIGNITE-4530
p4630
aVIGNITE-4529
p4631
aVIGNITE-4528
p4632
aVIGNITE-4527
p4633
aVIGNITE-4526
p4634
aVIGNITE-4525
p4635
aVIGNITE-4524
p4636
aVIGNITE-4523
p4637
aVIGNITE-4522
p4638
aVIGNITE-4521
p4639
aVIGNITE-4520
p4640
aVIGNITE-4519
p4641
aVIGNITE-4518
p4642
aVIGNITE-4517
p4643
aVIGNITE-4516
p4644
aVIGNITE-4515
p4645
aVIGNITE-4514
p4646
aVIGNITE-4513
p4647
aVIGNITE-4512
p4648
aVIGNITE-4511
p4649
aVIGNITE-4510
p4650
aVIGNITE-4509
p4651
aVIGNITE-4508
p4652
aVIGNITE-4507
p4653
aVIGNITE-4506
p4654
aVIGNITE-4505
p4655
aVIGNITE-4504
p4656
aVIGNITE-4503
p4657
aVIGNITE-4502
p4658
aVIGNITE-4501
p4659
aVIGNITE-4500
p4660
aVIGNITE-4499
p4661
aVIGNITE-4498
p4662
aVIGNITE-4497
p4663
aVIGNITE-4496
p4664
aVIGNITE-4495
p4665
aVIGNITE-4494
p4666
aVIGNITE-4493
p4667
aVIGNITE-4492
p4668
aVIGNITE-4491
p4669
aVIGNITE-4490
p4670
aVIGNITE-4489
p4671
aVIGNITE-4488
p4672
aVIGNITE-4487
p4673
aVIGNITE-4486
p4674
aVIGNITE-4485
p4675
aVIGNITE-4484
p4676
aVIGNITE-4483
p4677
aVIGNITE-4482
p4678
aVIGNITE-4481
p4679
aVIGNITE-4480
p4680
aVIGNITE-4479
p4681
aVIGNITE-4478
p4682
aVIGNITE-4477
p4683
aVIGNITE-4476
p4684
aVIGNITE-4475
p4685
aVIGNITE-4474
p4686
aVIGNITE-4473
p4687
aVIGNITE-4472
p4688
aVIGNITE-4471
p4689
aVIGNITE-4470
p4690
aVIGNITE-4469
p4691
aVIGNITE-4468
p4692
aVIGNITE-4467
p4693
aVIGNITE-4466
p4694
aVIGNITE-4465
p4695
aVIGNITE-4464
p4696
aVIGNITE-4463
p4697
aVIGNITE-4462
p4698
aVIGNITE-4461
p4699
aVIGNITE-4460
p4700
aVIGNITE-4459
p4701
aVIGNITE-4458
p4702
aVIGNITE-4457
p4703
aVIGNITE-4456
p4704
aVIGNITE-4455
p4705
aVIGNITE-4454
p4706
aVIGNITE-4453
p4707
aVIGNITE-4452
p4708
aVIGNITE-4451
p4709
aVIGNITE-4450
p4710
aVIGNITE-4449
p4711
aVIGNITE-4448
p4712
aVIGNITE-4447
p4713
aVIGNITE-4446
p4714
aVIGNITE-4445
p4715
aVIGNITE-4444
p4716
aVIGNITE-4443
p4717
aVIGNITE-4442
p4718
aVIGNITE-4441
p4719
aVIGNITE-4440
p4720
aVIGNITE-4439
p4721
aVIGNITE-4438
p4722
aVIGNITE-4437
p4723
aVIGNITE-4436
p4724
aVIGNITE-4435
p4725
aVIGNITE-4434
p4726
aVIGNITE-4433
p4727
aVIGNITE-4432
p4728
aVIGNITE-4431
p4729
aVIGNITE-4430
p4730
aVIGNITE-4429
p4731
aVIGNITE-4428
p4732
aVIGNITE-4427
p4733
aVIGNITE-4426
p4734
aVIGNITE-4425
p4735
aVIGNITE-4424
p4736
aVIGNITE-4423
p4737
aVIGNITE-4422
p4738
aVIGNITE-4421
p4739
aVIGNITE-4420
p4740
aVIGNITE-4419
p4741
aVIGNITE-4418
p4742
aVIGNITE-4417
p4743
aVIGNITE-4416
p4744
aVIGNITE-4415
p4745
aVIGNITE-4414
p4746
aVIGNITE-4413
p4747
aVIGNITE-4412
p4748
aVIGNITE-4411
p4749
aVIGNITE-4410
p4750
aVIGNITE-4409
p4751
aVIGNITE-4408
p4752
aVIGNITE-4407
p4753
aVIGNITE-4406
p4754
aVIGNITE-4405
p4755
aVIGNITE-4404
p4756
aVIGNITE-4403
p4757
aVIGNITE-4402
p4758
aVIGNITE-4401
p4759
aVIGNITE-4400
p4760
aVIGNITE-4399
p4761
aVIGNITE-4398
p4762
aVIGNITE-4397
p4763
aVIGNITE-4396
p4764
aVIGNITE-4395
p4765
aVIGNITE-4394
p4766
aVIGNITE-4393
p4767
aVIGNITE-4392
p4768
aVIGNITE-4391
p4769
aVIGNITE-4388
p4770
aVIGNITE-4387
p4771
aVIGNITE-4386
p4772
aVIGNITE-4385
p4773
aVIGNITE-4384
p4774
aVIGNITE-4383
p4775
aVIGNITE-4382
p4776
aVIGNITE-4381
p4777
aVIGNITE-4380
p4778
aVIGNITE-4379
p4779
aVIGNITE-4378
p4780
aVIGNITE-4377
p4781
aVIGNITE-4376
p4782
aVIGNITE-4375
p4783
aVIGNITE-4374
p4784
aVIGNITE-4373
p4785
aVIGNITE-4372
p4786
aVIGNITE-4371
p4787
aVIGNITE-4370
p4788
aVIGNITE-4369
p4789
aVIGNITE-4368
p4790
aVIGNITE-4367
p4791
aVIGNITE-4366
p4792
aVIGNITE-4365
p4793
aVIGNITE-4364
p4794
aVIGNITE-4363
p4795
aVIGNITE-4362
p4796
aVIGNITE-4361
p4797
aVIGNITE-4360
p4798
aVIGNITE-4359
p4799
aVIGNITE-4358
p4800
aVIGNITE-4357
p4801
aVIGNITE-4356
p4802
aVIGNITE-4355
p4803
aVIGNITE-4354
p4804
aVIGNITE-4353
p4805
aVIGNITE-4352
p4806
aVIGNITE-4351
p4807
aVIGNITE-4350
p4808
aVIGNITE-4349
p4809
aVIGNITE-4348
p4810
aVIGNITE-4347
p4811
aVIGNITE-4346
p4812
aVIGNITE-4345
p4813
aVIGNITE-4344
p4814
aVIGNITE-4343
p4815
aVIGNITE-4342
p4816
aVIGNITE-4341
p4817
aVIGNITE-4340
p4818
aVIGNITE-4339
p4819
aVIGNITE-4338
p4820
aVIGNITE-4337
p4821
aVIGNITE-4336
p4822
aVIGNITE-4335
p4823
aVIGNITE-4334
p4824
aVIGNITE-4333
p4825
aVIGNITE-4332
p4826
aVIGNITE-4331
p4827
aVIGNITE-4330
p4828
aVIGNITE-4329
p4829
aVIGNITE-4328
p4830
aVIGNITE-4327
p4831
aVIGNITE-4326
p4832
aVIGNITE-4325
p4833
aVIGNITE-4324
p4834
aVIGNITE-4323
p4835
aVIGNITE-4322
p4836
aVIGNITE-4321
p4837
aVIGNITE-4320
p4838
aVIGNITE-4319
p4839
aVIGNITE-4318
p4840
aVIGNITE-4317
p4841
aVIGNITE-4316
p4842
aVIGNITE-4315
p4843
aVIGNITE-4314
p4844
aVIGNITE-4313
p4845
aVIGNITE-4312
p4846
aVIGNITE-4311
p4847
aVIGNITE-4310
p4848
aVIGNITE-4309
p4849
aVIGNITE-4308
p4850
aVIGNITE-4307
p4851
aVIGNITE-4306
p4852
aVIGNITE-4305
p4853
aVIGNITE-4304
p4854
aVIGNITE-4303
p4855
aVIGNITE-4302
p4856
aVIGNITE-4301
p4857
aVIGNITE-4300
p4858
aVIGNITE-4299
p4859
aVIGNITE-4298
p4860
aVIGNITE-4297
p4861
aVIGNITE-4296
p4862
aVIGNITE-4295
p4863
aVIGNITE-4294
p4864
aVIGNITE-4293
p4865
aVIGNITE-4292
p4866
aVIGNITE-4291
p4867
aVIGNITE-4290
p4868
aVIGNITE-4289
p4869
aVIGNITE-4288
p4870
aVIGNITE-4287
p4871
aVIGNITE-4286
p4872
aVIGNITE-4285
p4873
aVIGNITE-4284
p4874
aVIGNITE-4283
p4875
aVIGNITE-4282
p4876
aVIGNITE-4281
p4877
aVIGNITE-4280
p4878
aVIGNITE-4279
p4879
aVIGNITE-4278
p4880
aVIGNITE-4277
p4881
aVIGNITE-4276
p4882
aVIGNITE-4275
p4883
aVIGNITE-4274
p4884
aVIGNITE-4273
p4885
aVIGNITE-4272
p4886
aVIGNITE-4271
p4887
aVIGNITE-4270
p4888
aVIGNITE-4269
p4889
aVIGNITE-4268
p4890
aVIGNITE-4267
p4891
aVIGNITE-4266
p4892
aVIGNITE-4265
p4893
aVIGNITE-4264
p4894
aVIGNITE-4263
p4895
aVIGNITE-4262
p4896
aVIGNITE-4261
p4897
aVIGNITE-4260
p4898
aVIGNITE-4259
p4899
aVIGNITE-4258
p4900
aVIGNITE-4257
p4901
aVIGNITE-4256
p4902
aVIGNITE-4255
p4903
aVIGNITE-4254
p4904
aVIGNITE-4253
p4905
aVIGNITE-4252
p4906
aVIGNITE-4251
p4907
aVIGNITE-4250
p4908
aVIGNITE-4249
p4909
aVIGNITE-4248
p4910
aVIGNITE-4247
p4911
aVIGNITE-4246
p4912
aVIGNITE-4245
p4913
aVIGNITE-4244
p4914
aVIGNITE-4243
p4915
aVIGNITE-4242
p4916
aVIGNITE-4241
p4917
aVIGNITE-4240
p4918
aVIGNITE-4239
p4919
aVIGNITE-4238
p4920
aVIGNITE-4237
p4921
aVIGNITE-4236
p4922
aVIGNITE-4235
p4923
aVIGNITE-4234
p4924
aVIGNITE-4233
p4925
aVIGNITE-4232
p4926
aVIGNITE-4231
p4927
aVIGNITE-4230
p4928
aVIGNITE-4229
p4929
aVIGNITE-4228
p4930
aVIGNITE-4227
p4931
aVIGNITE-4226
p4932
aVIGNITE-4225
p4933
aVIGNITE-4224
p4934
aVIGNITE-4223
p4935
aVIGNITE-4222
p4936
aVIGNITE-4221
p4937
aVIGNITE-4220
p4938
aVIGNITE-4219
p4939
aVIGNITE-4218
p4940
aVIGNITE-4217
p4941
aVIGNITE-4216
p4942
aVIGNITE-4215
p4943
aVIGNITE-4214
p4944
aVIGNITE-4213
p4945
aVIGNITE-4212
p4946
aVIGNITE-4211
p4947
aVIGNITE-4210
p4948
aVIGNITE-4209
p4949
aVIGNITE-4208
p4950
aVIGNITE-4207
p4951
aVIGNITE-4206
p4952
aVIGNITE-4205
p4953
aVIGNITE-4204
p4954
aVIGNITE-4203
p4955
aVIGNITE-4202
p4956
aVIGNITE-4201
p4957
aVIGNITE-4200
p4958
aVIGNITE-4199
p4959
aVIGNITE-4198
p4960
aVIGNITE-4197
p4961
aVIGNITE-4196
p4962
aVIGNITE-4195
p4963
aVIGNITE-4194
p4964
aVIGNITE-4193
p4965
aVIGNITE-4192
p4966
aVIGNITE-4191
p4967
aVIGNITE-4190
p4968
aVIGNITE-4189
p4969
aVIGNITE-4188
p4970
aVIGNITE-4187
p4971
aVIGNITE-4186
p4972
aVIGNITE-4185
p4973
aVIGNITE-4184
p4974
aVIGNITE-4183
p4975
aVIGNITE-4182
p4976
aVIGNITE-4181
p4977
aVIGNITE-4180
p4978
aVIGNITE-4179
p4979
aVIGNITE-4178
p4980
aVIGNITE-4177
p4981
aVIGNITE-4176
p4982
aVIGNITE-4175
p4983
aVIGNITE-4174
p4984
aVIGNITE-4173
p4985
aVIGNITE-4172
p4986
aVIGNITE-4171
p4987
aVIGNITE-4170
p4988
aVIGNITE-4169
p4989
aVIGNITE-4168
p4990
aVIGNITE-4167
p4991
aVIGNITE-4166
p4992
aVIGNITE-4165
p4993
aVIGNITE-4164
p4994
aVIGNITE-4163
p4995
aVIGNITE-4162
p4996
aVIGNITE-4161
p4997
aVIGNITE-4160
p4998
aVIGNITE-4159
p4999
aVIGNITE-4158
p5000
aVIGNITE-4157
p5001
aVIGNITE-4156
p5002
aVIGNITE-4155
p5003
aVIGNITE-4154
p5004
aVIGNITE-4153
p5005
aVIGNITE-4152
p5006
aVIGNITE-4151
p5007
aVIGNITE-4150
p5008
aVIGNITE-4149
p5009
aVIGNITE-4148
p5010
aVIGNITE-4147
p5011
aVIGNITE-4146
p5012
aVIGNITE-4145
p5013
aVIGNITE-4144
p5014
aVIGNITE-4143
p5015
aVIGNITE-4142
p5016
aVIGNITE-4141
p5017
aVIGNITE-4140
p5018
aVIGNITE-4139
p5019
aVIGNITE-4138
p5020
aVIGNITE-4137
p5021
aVIGNITE-4136
p5022
aVIGNITE-4135
p5023
aVIGNITE-4134
p5024
aVIGNITE-4133
p5025
aVIGNITE-4132
p5026
aVIGNITE-4131
p5027
aVIGNITE-4130
p5028
aVIGNITE-4129
p5029
aVIGNITE-4128
p5030
aVIGNITE-4127
p5031
aVIGNITE-4126
p5032
aVIGNITE-4125
p5033
aVIGNITE-4124
p5034
aVIGNITE-4123
p5035
aVIGNITE-4122
p5036
aVIGNITE-4121
p5037
aVIGNITE-4120
p5038
aVIGNITE-4119
p5039
aVIGNITE-4118
p5040
aVIGNITE-4117
p5041
aVIGNITE-4116
p5042
aVIGNITE-4115
p5043
aVIGNITE-4114
p5044
aVIGNITE-4113
p5045
aVIGNITE-4112
p5046
aVIGNITE-4111
p5047
aVIGNITE-4110
p5048
aVIGNITE-4109
p5049
aVIGNITE-4108
p5050
aVIGNITE-4107
p5051
aVIGNITE-4106
p5052
aVIGNITE-4105
p5053
aVIGNITE-4104
p5054
aVIGNITE-4103
p5055
aVIGNITE-4102
p5056
aVIGNITE-4101
p5057
aVIGNITE-4100
p5058
aVIGNITE-4099
p5059
aVIGNITE-4098
p5060
aVIGNITE-4097
p5061
aVIGNITE-4096
p5062
aVIGNITE-4095
p5063
aVIGNITE-4094
p5064
aVIGNITE-4093
p5065
aVIGNITE-4092
p5066
aVIGNITE-4091
p5067
aVIGNITE-4090
p5068
aVIGNITE-4089
p5069
aVIGNITE-4088
p5070
aVIGNITE-4087
p5071
aVIGNITE-4086
p5072
aVIGNITE-4085
p5073
aVIGNITE-4084
p5074
aVIGNITE-4083
p5075
aVIGNITE-4082
p5076
aVIGNITE-4081
p5077
aVIGNITE-4080
p5078
aVIGNITE-4079
p5079
aVIGNITE-4078
p5080
aVIGNITE-4077
p5081
aVIGNITE-4076
p5082
aVIGNITE-4075
p5083
aVIGNITE-4074
p5084
aVIGNITE-4073
p5085
aVIGNITE-4072
p5086
aVIGNITE-4071
p5087
aVIGNITE-4070
p5088
aVIGNITE-4069
p5089
aVIGNITE-4068
p5090
aVIGNITE-4067
p5091
aVIGNITE-4066
p5092
aVIGNITE-4065
p5093
aVIGNITE-4064
p5094
aVIGNITE-4063
p5095
aVIGNITE-4062
p5096
aVIGNITE-4061
p5097
aVIGNITE-4060
p5098
aVIGNITE-4059
p5099
aVIGNITE-4058
p5100
aVIGNITE-4057
p5101
aVIGNITE-4056
p5102
aVIGNITE-4055
p5103
aVIGNITE-4054
p5104
aVIGNITE-4053
p5105
aVIGNITE-4052
p5106
aVIGNITE-4051
p5107
aVIGNITE-4050
p5108
aVIGNITE-4049
p5109
aVIGNITE-4048
p5110
aVIGNITE-4047
p5111
aVIGNITE-4046
p5112
aVIGNITE-4045
p5113
aVIGNITE-4044
p5114
aVIGNITE-4043
p5115
aVIGNITE-4042
p5116
aVIGNITE-4041
p5117
aVIGNITE-4040
p5118
aVIGNITE-4039
p5119
aVIGNITE-4038
p5120
aVIGNITE-4037
p5121
aVIGNITE-4036
p5122
aVIGNITE-4035
p5123
aVIGNITE-4034
p5124
aVIGNITE-4033
p5125
aVIGNITE-4032
p5126
aVIGNITE-4031
p5127
aVIGNITE-4030
p5128
aVIGNITE-4029
p5129
aVIGNITE-4028
p5130
aVIGNITE-4027
p5131
aVIGNITE-4026
p5132
aVIGNITE-4025
p5133
aVIGNITE-4024
p5134
aVIGNITE-4023
p5135
aVIGNITE-4022
p5136
aVIGNITE-4021
p5137
aVIGNITE-4020
p5138
aVIGNITE-4019
p5139
aVIGNITE-4018
p5140
aVIGNITE-4017
p5141
aVIGNITE-4016
p5142
aVIGNITE-4015
p5143
aVIGNITE-4014
p5144
aVIGNITE-4013
p5145
aVIGNITE-4012
p5146
aVIGNITE-4011
p5147
aVIGNITE-4010
p5148
aVIGNITE-4009
p5149
aVIGNITE-4008
p5150
aVIGNITE-4007
p5151
aVIGNITE-4006
p5152
aVIGNITE-4005
p5153
aVIGNITE-4004
p5154
aVIGNITE-4003
p5155
aVIGNITE-4002
p5156
aVIGNITE-4001
p5157
aVIGNITE-4000
p5158
aVIGNITE-3999
p5159
aVIGNITE-3998
p5160
aVIGNITE-3997
p5161
aVIGNITE-3996
p5162
aVIGNITE-3995
p5163
aVIGNITE-3994
p5164
aVIGNITE-3993
p5165
aVIGNITE-3992
p5166
aVIGNITE-3991
p5167
aVIGNITE-3990
p5168
aVIGNITE-3989
p5169
aVIGNITE-3988
p5170
aVIGNITE-3987
p5171
aVIGNITE-3986
p5172
aVIGNITE-3985
p5173
aVIGNITE-3984
p5174
aVIGNITE-3983
p5175
aVIGNITE-3982
p5176
aVIGNITE-3981
p5177
aVIGNITE-3980
p5178
aVIGNITE-3979
p5179
aVIGNITE-3978
p5180
aVIGNITE-3977
p5181
aVIGNITE-3976
p5182
aVIGNITE-3975
p5183
aVIGNITE-3974
p5184
aVIGNITE-3973
p5185
aVIGNITE-3972
p5186
aVIGNITE-3971
p5187
aVIGNITE-3970
p5188
aVIGNITE-3969
p5189
aVIGNITE-3968
p5190
aVIGNITE-3967
p5191
aVIGNITE-3966
p5192
aVIGNITE-3965
p5193
aVIGNITE-3964
p5194
aVIGNITE-3963
p5195
aVIGNITE-3962
p5196
aVIGNITE-3961
p5197
aVIGNITE-3960
p5198
aVIGNITE-3959
p5199
aVIGNITE-3958
p5200
aVIGNITE-3957
p5201
aVIGNITE-3956
p5202
aVIGNITE-3955
p5203
aVIGNITE-3954
p5204
aVIGNITE-3953
p5205
aVIGNITE-3952
p5206
aVIGNITE-3951
p5207
aVIGNITE-3950
p5208
aVIGNITE-3949
p5209
aVIGNITE-3948
p5210
aVIGNITE-3947
p5211
aVIGNITE-3946
p5212
aVIGNITE-3945
p5213
aVIGNITE-3944
p5214
aVIGNITE-3943
p5215
aVIGNITE-3942
p5216
aVIGNITE-3941
p5217
aVIGNITE-3940
p5218
aVIGNITE-3939
p5219
aVIGNITE-3938
p5220
aVIGNITE-3937
p5221
aVIGNITE-3936
p5222
aVIGNITE-3935
p5223
aVIGNITE-3934
p5224
aVIGNITE-3933
p5225
aVIGNITE-3932
p5226
aVIGNITE-3931
p5227
aVIGNITE-3930
p5228
aVIGNITE-3929
p5229
aVIGNITE-3928
p5230
aVIGNITE-3927
p5231
aVIGNITE-3926
p5232
aVIGNITE-3925
p5233
aVIGNITE-3924
p5234
aVIGNITE-3923
p5235
aVIGNITE-3922
p5236
aVIGNITE-3921
p5237
aVIGNITE-3920
p5238
aVIGNITE-3919
p5239
aVIGNITE-3918
p5240
aVIGNITE-3917
p5241
aVIGNITE-3916
p5242
aVIGNITE-3915
p5243
aVIGNITE-3914
p5244
aVIGNITE-3913
p5245
aVIGNITE-3912
p5246
aVIGNITE-3911
p5247
aVIGNITE-3910
p5248
aVIGNITE-3909
p5249
aVIGNITE-3908
p5250
aVIGNITE-3907
p5251
aVIGNITE-3906
p5252
aVIGNITE-3905
p5253
aVIGNITE-3904
p5254
aVIGNITE-3903
p5255
aVIGNITE-3902
p5256
aVIGNITE-3901
p5257
aVIGNITE-3900
p5258
aVIGNITE-3899
p5259
aVIGNITE-3898
p5260
aVIGNITE-3897
p5261
aVIGNITE-3896
p5262
aVIGNITE-3895
p5263
aVIGNITE-3894
p5264
aVIGNITE-3893
p5265
aVIGNITE-3892
p5266
aVIGNITE-3891
p5267
aVIGNITE-3890
p5268
aVIGNITE-3889
p5269
aVIGNITE-3888
p5270
aVIGNITE-3887
p5271
aVIGNITE-3886
p5272
aVIGNITE-3885
p5273
aVIGNITE-3883
p5274
aVIGNITE-3882
p5275
aVIGNITE-3881
p5276
aVIGNITE-3880
p5277
aVIGNITE-3879
p5278
aVIGNITE-3878
p5279
aVIGNITE-3877
p5280
aVIGNITE-3876
p5281
aVIGNITE-3875
p5282
aVIGNITE-3874
p5283
aVIGNITE-3873
p5284
aVIGNITE-3872
p5285
aVIGNITE-3871
p5286
aVIGNITE-3870
p5287
aVIGNITE-3869
p5288
aVIGNITE-3868
p5289
aVIGNITE-3867
p5290
aVIGNITE-3865
p5291
aVIGNITE-3864
p5292
aVIGNITE-3863
p5293
aVIGNITE-3862
p5294
aVIGNITE-3861
p5295
aVIGNITE-3860
p5296
aVIGNITE-3859
p5297
aVIGNITE-3858
p5298
aVIGNITE-3857
p5299
aVIGNITE-3856
p5300
aVIGNITE-3855
p5301
aVIGNITE-3854
p5302
aVIGNITE-3853
p5303
aVIGNITE-3852
p5304
aVIGNITE-3851
p5305
aVIGNITE-3850
p5306
aVIGNITE-3849
p5307
aVIGNITE-3848
p5308
aVIGNITE-3847
p5309
aVIGNITE-3846
p5310
aVIGNITE-3845
p5311
aVIGNITE-3844
p5312
aVIGNITE-3843
p5313
aVIGNITE-3842
p5314
aVIGNITE-3841
p5315
aVIGNITE-3840
p5316
aVIGNITE-3839
p5317
aVIGNITE-3838
p5318
aVIGNITE-3837
p5319
aVIGNITE-3836
p5320
aVIGNITE-3835
p5321
aVIGNITE-3834
p5322
aVIGNITE-3833
p5323
aVIGNITE-3832
p5324
aVIGNITE-3831
p5325
aVIGNITE-3830
p5326
aVIGNITE-3829
p5327
aVIGNITE-3828
p5328
aVIGNITE-3827
p5329
aVIGNITE-3826
p5330
aVIGNITE-3825
p5331
aVIGNITE-3824
p5332
aVIGNITE-3823
p5333
aVIGNITE-3822
p5334
aVIGNITE-3821
p5335
aVIGNITE-3820
p5336
aVIGNITE-3819
p5337
aVIGNITE-3818
p5338
aVIGNITE-3817
p5339
aVIGNITE-3816
p5340
aVIGNITE-3815
p5341
aVIGNITE-3814
p5342
aVIGNITE-3813
p5343
aVIGNITE-3812
p5344
aVIGNITE-3811
p5345
aVIGNITE-3810
p5346
aVIGNITE-3809
p5347
aVIGNITE-3808
p5348
aVIGNITE-3807
p5349
aVIGNITE-3806
p5350
aVIGNITE-3805
p5351
aVIGNITE-3804
p5352
aVIGNITE-3803
p5353
aVIGNITE-3802
p5354
aVIGNITE-3801
p5355
aVIGNITE-3800
p5356
aVIGNITE-3799
p5357
aVIGNITE-3798
p5358
aVIGNITE-3797
p5359
aVIGNITE-3796
p5360
aVIGNITE-3795
p5361
aVIGNITE-3794
p5362
aVIGNITE-3793
p5363
aVIGNITE-3792
p5364
aVIGNITE-3791
p5365
aVIGNITE-3790
p5366
aVIGNITE-3789
p5367
aVIGNITE-3788
p5368
aVIGNITE-3776
p5369
aVIGNITE-3775
p5370
aVIGNITE-3774
p5371
aVIGNITE-3773
p5372
aVIGNITE-3772
p5373
aVIGNITE-3771
p5374
aVIGNITE-3770
p5375
aVIGNITE-3769
p5376
aVIGNITE-3768
p5377
aVIGNITE-3767
p5378
aVIGNITE-3766
p5379
aVIGNITE-3765
p5380
aVIGNITE-3764
p5381
aVIGNITE-3762
p5382
aVIGNITE-3761
p5383
aVIGNITE-3760
p5384
aVIGNITE-3759
p5385
aVIGNITE-3758
p5386
aVIGNITE-3757
p5387
aVIGNITE-3756
p5388
aVIGNITE-3755
p5389
aVIGNITE-3754
p5390
aVIGNITE-3753
p5391
aVIGNITE-3752
p5392
aVIGNITE-3751
p5393
aVIGNITE-3750
p5394
aVIGNITE-3749
p5395
aVIGNITE-3748
p5396
aVIGNITE-3747
p5397
aVIGNITE-3746
p5398
aVIGNITE-3745
p5399
aVIGNITE-3744
p5400
aVIGNITE-3743
p5401
aVIGNITE-3742
p5402
aVIGNITE-3741
p5403
aVIGNITE-3740
p5404
aVIGNITE-3739
p5405
aVIGNITE-3738
p5406
aVIGNITE-3737
p5407
aVIGNITE-3736
p5408
aVIGNITE-3735
p5409
aVIGNITE-3734
p5410
aVIGNITE-3733
p5411
aVIGNITE-3732
p5412
aVIGNITE-3731
p5413
aVIGNITE-3730
p5414
aVIGNITE-3729
p5415
aVIGNITE-3728
p5416
aVIGNITE-3727
p5417
aVIGNITE-3726
p5418
aVIGNITE-3725
p5419
aVIGNITE-3724
p5420
aVIGNITE-3723
p5421
aVIGNITE-3722
p5422
aVIGNITE-3721
p5423
aVIGNITE-3720
p5424
aVIGNITE-3719
p5425
aVIGNITE-3718
p5426
aVIGNITE-3717
p5427
aVIGNITE-3716
p5428
aVIGNITE-3715
p5429
aVIGNITE-3714
p5430
aVIGNITE-3713
p5431
aVIGNITE-3711
p5432
aVIGNITE-3710
p5433
aVIGNITE-3709
p5434
aVIGNITE-3708
p5435
aVIGNITE-3707
p5436
aVIGNITE-3706
p5437
aVIGNITE-3705
p5438
aVIGNITE-3704
p5439
aVIGNITE-3703
p5440
aVIGNITE-3702
p5441
aVIGNITE-3701
p5442
aVIGNITE-3700
p5443
aVIGNITE-3699
p5444
aVIGNITE-3698
p5445
aVIGNITE-3697
p5446
aVIGNITE-3696
p5447
aVIGNITE-3695
p5448
aVIGNITE-3694
p5449
aVIGNITE-3693
p5450
aVIGNITE-3692
p5451
aVIGNITE-3691
p5452
aVIGNITE-3690
p5453
aVIGNITE-3689
p5454
aVIGNITE-3688
p5455
aVIGNITE-3687
p5456
aVIGNITE-3686
p5457
aVIGNITE-3685
p5458
aVIGNITE-3684
p5459
aVIGNITE-3683
p5460
aVIGNITE-3682
p5461
aVIGNITE-3681
p5462
aVIGNITE-3680
p5463
aVIGNITE-3679
p5464
aVIGNITE-3678
p5465
aVIGNITE-3677
p5466
aVIGNITE-3676
p5467
aVIGNITE-3675
p5468
aVIGNITE-3674
p5469
aVIGNITE-3673
p5470
aVIGNITE-3672
p5471
aVIGNITE-3671
p5472
aVIGNITE-3670
p5473
aVIGNITE-3669
p5474
aVIGNITE-3668
p5475
aVIGNITE-3667
p5476
aVIGNITE-3666
p5477
aVIGNITE-3665
p5478
aVIGNITE-3664
p5479
aVIGNITE-3663
p5480
aVIGNITE-3662
p5481
aVIGNITE-3661
p5482
aVIGNITE-3660
p5483
aVIGNITE-3659
p5484
aVIGNITE-3658
p5485
aVIGNITE-3657
p5486
aVIGNITE-3656
p5487
aVIGNITE-3655
p5488
aVIGNITE-3654
p5489
aVIGNITE-3653
p5490
aVIGNITE-3652
p5491
aVIGNITE-3651
p5492
aVIGNITE-3650
p5493
aVIGNITE-3649
p5494
aVIGNITE-3648
p5495
aVIGNITE-3647
p5496
aVIGNITE-3646
p5497
aVIGNITE-3645
p5498
aVIGNITE-3644
p5499
aVIGNITE-3643
p5500
aVIGNITE-3642
p5501
aVIGNITE-3641
p5502
aVIGNITE-3640
p5503
aVIGNITE-3639
p5504
aVIGNITE-3638
p5505
aVIGNITE-3637
p5506
aVIGNITE-3636
p5507
aVIGNITE-3635
p5508
aVIGNITE-3634
p5509
aVIGNITE-3633
p5510
aVIGNITE-3632
p5511
aVIGNITE-3631
p5512
aVIGNITE-3630
p5513
aVIGNITE-3629
p5514
aVIGNITE-3628
p5515
aVIGNITE-3627
p5516
aVIGNITE-3626
p5517
aVIGNITE-3625
p5518
aVIGNITE-3624
p5519
aVIGNITE-3623
p5520
aVIGNITE-3622
p5521
aVIGNITE-3621
p5522
aVIGNITE-3620
p5523
aVIGNITE-3619
p5524
aVIGNITE-3618
p5525
aVIGNITE-3617
p5526
aVIGNITE-3616
p5527
aVIGNITE-3615
p5528
aVIGNITE-3614
p5529
aVIGNITE-3613
p5530
aVIGNITE-3612
p5531
aVIGNITE-3611
p5532
aVIGNITE-3610
p5533
aVIGNITE-3609
p5534
aVIGNITE-3608
p5535
aVIGNITE-3607
p5536
aVIGNITE-3606
p5537
aVIGNITE-3605
p5538
aVIGNITE-3604
p5539
aVIGNITE-3603
p5540
aVIGNITE-3602
p5541
aVIGNITE-3601
p5542
aVIGNITE-3600
p5543
aVIGNITE-3599
p5544
aVIGNITE-3598
p5545
aVIGNITE-3597
p5546
aVIGNITE-3596
p5547
aVIGNITE-3595
p5548
aVIGNITE-3594
p5549
aVIGNITE-3593
p5550
aVIGNITE-3592
p5551
aVIGNITE-3591
p5552
aVIGNITE-3590
p5553
aVIGNITE-3589
p5554
aVIGNITE-3588
p5555
aVIGNITE-3587
p5556
aVIGNITE-3586
p5557
aVIGNITE-3585
p5558
aVIGNITE-3584
p5559
aVIGNITE-3583
p5560
aVIGNITE-3582
p5561
aVIGNITE-3581
p5562
aVIGNITE-3580
p5563
aVIGNITE-3579
p5564
aVIGNITE-3578
p5565
aVIGNITE-3577
p5566
aVIGNITE-3576
p5567
aVIGNITE-3575
p5568
aVIGNITE-3574
p5569
aVIGNITE-3573
p5570
aVIGNITE-3572
p5571
aVIGNITE-3571
p5572
aVIGNITE-3570
p5573
aVIGNITE-3569
p5574
aVIGNITE-3568
p5575
aVIGNITE-3567
p5576
aVIGNITE-3566
p5577
aVIGNITE-3565
p5578
aVIGNITE-3564
p5579
aVIGNITE-3563
p5580
aVIGNITE-3562
p5581
aVIGNITE-3561
p5582
aVIGNITE-3560
p5583
aVIGNITE-3559
p5584
aVIGNITE-3558
p5585
aVIGNITE-3557
p5586
aVIGNITE-3556
p5587
aVIGNITE-3555
p5588
aVIGNITE-3554
p5589
aVIGNITE-3553
p5590
aVIGNITE-3552
p5591
aVIGNITE-3551
p5592
aVIGNITE-3550
p5593
aVIGNITE-3549
p5594
aVIGNITE-3548
p5595
aVIGNITE-3547
p5596
aVIGNITE-3546
p5597
aVIGNITE-3545
p5598
aVIGNITE-3544
p5599
aVIGNITE-3543
p5600
aVIGNITE-3542
p5601
aVIGNITE-3541
p5602
aVIGNITE-3540
p5603
aVIGNITE-3539
p5604
aVIGNITE-3538
p5605
aVIGNITE-3537
p5606
aVIGNITE-3536
p5607
aVIGNITE-3535
p5608
aVIGNITE-3534
p5609
aVIGNITE-3533
p5610
aVIGNITE-3532
p5611
aVIGNITE-3531
p5612
aVIGNITE-3530
p5613
aVIGNITE-3529
p5614
aVIGNITE-3528
p5615
aVIGNITE-3527
p5616
aVIGNITE-3526
p5617
aVIGNITE-3525
p5618
aVIGNITE-3524
p5619
aVIGNITE-3523
p5620
aVIGNITE-3522
p5621
aVIGNITE-3521
p5622
aVIGNITE-3520
p5623
aVIGNITE-3519
p5624
aVIGNITE-3518
p5625
aVIGNITE-3517
p5626
aVIGNITE-3516
p5627
aVIGNITE-3515
p5628
aVIGNITE-3514
p5629
aVIGNITE-3513
p5630
aVIGNITE-3512
p5631
aVIGNITE-3511
p5632
aVIGNITE-3510
p5633
aVIGNITE-3509
p5634
aVIGNITE-3508
p5635
aVIGNITE-3507
p5636
aVIGNITE-3506
p5637
aVIGNITE-3505
p5638
aVIGNITE-3504
p5639
aVIGNITE-3503
p5640
aVIGNITE-3502
p5641
aVIGNITE-3501
p5642
aVIGNITE-3500
p5643
aVIGNITE-3499
p5644
aVIGNITE-3498
p5645
aVIGNITE-3497
p5646
aVIGNITE-3496
p5647
aVIGNITE-3495
p5648
aVIGNITE-3494
p5649
aVIGNITE-3493
p5650
aVIGNITE-3492
p5651
aVIGNITE-3491
p5652
aVIGNITE-3490
p5653
aVIGNITE-3489
p5654
aVIGNITE-3488
p5655
aVIGNITE-3487
p5656
aVIGNITE-3486
p5657
aVIGNITE-3485
p5658
aVIGNITE-3484
p5659
aVIGNITE-3483
p5660
aVIGNITE-3482
p5661
aVIGNITE-3481
p5662
aVIGNITE-3480
p5663
aVIGNITE-3479
p5664
aVIGNITE-3478
p5665
aVIGNITE-3477
p5666
aVIGNITE-3476
p5667
aVIGNITE-3475
p5668
aVIGNITE-3474
p5669
aVIGNITE-3473
p5670
aVIGNITE-3472
p5671
aVIGNITE-3471
p5672
aVIGNITE-3470
p5673
aVIGNITE-3469
p5674
aVIGNITE-3468
p5675
aVIGNITE-3467
p5676
aVIGNITE-3466
p5677
aVIGNITE-3465
p5678
aVIGNITE-3464
p5679
aVIGNITE-3463
p5680
aVIGNITE-3462
p5681
aVIGNITE-3461
p5682
aVIGNITE-3460
p5683
aVIGNITE-3459
p5684
aVIGNITE-3458
p5685
aVIGNITE-3457
p5686
aVIGNITE-3456
p5687
aVIGNITE-3455
p5688
aVIGNITE-3454
p5689
aVIGNITE-3453
p5690
aVIGNITE-3452
p5691
aVIGNITE-3451
p5692
aVIGNITE-3450
p5693
aVIGNITE-3449
p5694
aVIGNITE-3448
p5695
aVIGNITE-3447
p5696
aVIGNITE-3446
p5697
aVIGNITE-3445
p5698
aVIGNITE-3444
p5699
aVIGNITE-3443
p5700
aVIGNITE-3442
p5701
aVIGNITE-3441
p5702
aVIGNITE-3440
p5703
aVIGNITE-3439
p5704
aVIGNITE-3438
p5705
aVIGNITE-3437
p5706
aVIGNITE-3436
p5707
aVIGNITE-3435
p5708
aVIGNITE-3434
p5709
aVIGNITE-3433
p5710
aVIGNITE-3432
p5711
aVIGNITE-3431
p5712
aVIGNITE-3430
p5713
aVIGNITE-3429
p5714
aVIGNITE-3428
p5715
aVIGNITE-3427
p5716
aVIGNITE-3426
p5717
aVIGNITE-3425
p5718
aVIGNITE-3424
p5719
aVIGNITE-3423
p5720
aVIGNITE-3422
p5721
aVIGNITE-3421
p5722
aVIGNITE-3420
p5723
aVIGNITE-3419
p5724
aVIGNITE-3418
p5725
aVIGNITE-3417
p5726
aVIGNITE-3416
p5727
aVIGNITE-3415
p5728
aVIGNITE-3414
p5729
aVIGNITE-3413
p5730
aVIGNITE-3412
p5731
aVIGNITE-3411
p5732
aVIGNITE-3410
p5733
aVIGNITE-3409
p5734
aVIGNITE-3408
p5735
aVIGNITE-3407
p5736
aVIGNITE-3406
p5737
aVIGNITE-3405
p5738
aVIGNITE-3404
p5739
aVIGNITE-3403
p5740
aVIGNITE-3402
p5741
aVIGNITE-3401
p5742
aVIGNITE-3400
p5743
aVIGNITE-3399
p5744
aVIGNITE-3398
p5745
aVIGNITE-3397
p5746
aVIGNITE-3396
p5747
aVIGNITE-3395
p5748
aVIGNITE-3394
p5749
aVIGNITE-3393
p5750
aVIGNITE-3392
p5751
aVIGNITE-3391
p5752
aVIGNITE-3390
p5753
aVIGNITE-3389
p5754
aVIGNITE-3388
p5755
aVIGNITE-3387
p5756
aVIGNITE-3386
p5757
aVIGNITE-3385
p5758
aVIGNITE-3384
p5759
aVIGNITE-3383
p5760
aVIGNITE-3382
p5761
aVIGNITE-3381
p5762
aVIGNITE-3380
p5763
aVIGNITE-3379
p5764
aVIGNITE-3378
p5765
aVIGNITE-3377
p5766
aVIGNITE-3376
p5767
aVIGNITE-3375
p5768
aVIGNITE-3374
p5769
aVIGNITE-3373
p5770
aVIGNITE-3372
p5771
aVIGNITE-3371
p5772
aVIGNITE-3370
p5773
aVIGNITE-3369
p5774
aVIGNITE-3368
p5775
aVIGNITE-3367
p5776
aVIGNITE-3366
p5777
aVIGNITE-3365
p5778
aVIGNITE-3364
p5779
aVIGNITE-3363
p5780
aVIGNITE-3362
p5781
aVIGNITE-3361
p5782
aVIGNITE-3360
p5783
aVIGNITE-3359
p5784
aVIGNITE-3358
p5785
aVIGNITE-3357
p5786
aVIGNITE-3356
p5787
aVIGNITE-3355
p5788
aVIGNITE-3354
p5789
aVIGNITE-3353
p5790
aVIGNITE-3352
p5791
aVIGNITE-3351
p5792
aVIGNITE-3350
p5793
aVIGNITE-3349
p5794
aVIGNITE-3348
p5795
aVIGNITE-3347
p5796
aVIGNITE-3346
p5797
aVIGNITE-3345
p5798
aVIGNITE-3344
p5799
aVIGNITE-3343
p5800
aVIGNITE-3342
p5801
aVIGNITE-3341
p5802
aVIGNITE-3340
p5803
aVIGNITE-3339
p5804
aVIGNITE-3338
p5805
aVIGNITE-3337
p5806
aVIGNITE-3336
p5807
aVIGNITE-3335
p5808
aVIGNITE-3334
p5809
aVIGNITE-3333
p5810
aVIGNITE-3332
p5811
aVIGNITE-3331
p5812
aVIGNITE-3330
p5813
aVIGNITE-3329
p5814
aVIGNITE-3328
p5815
aVIGNITE-3327
p5816
aVIGNITE-3326
p5817
aVIGNITE-3325
p5818
aVIGNITE-3324
p5819
aVIGNITE-3323
p5820
aVIGNITE-3322
p5821
aVIGNITE-3321
p5822
aVIGNITE-3320
p5823
aVIGNITE-3319
p5824
aVIGNITE-3318
p5825
aVIGNITE-3317
p5826
aVIGNITE-3316
p5827
aVIGNITE-3315
p5828
aVIGNITE-3314
p5829
aVIGNITE-3313
p5830
aVIGNITE-3312
p5831
aVIGNITE-3311
p5832
aVIGNITE-3310
p5833
aVIGNITE-3309
p5834
aVIGNITE-3308
p5835
aVIGNITE-3307
p5836
aVIGNITE-3306
p5837
aVIGNITE-3305
p5838
aVIGNITE-3304
p5839
aVIGNITE-3303
p5840
aVIGNITE-3302
p5841
aVIGNITE-3301
p5842
aVIGNITE-3300
p5843
aVIGNITE-3299
p5844
aVIGNITE-3298
p5845
aVIGNITE-3297
p5846
aVIGNITE-3296
p5847
aVIGNITE-3295
p5848
aVIGNITE-3294
p5849
aVIGNITE-3293
p5850
aVIGNITE-3292
p5851
aVIGNITE-3291
p5852
aVIGNITE-3290
p5853
aVIGNITE-3289
p5854
aVIGNITE-3288
p5855
aVIGNITE-3287
p5856
aVIGNITE-3286
p5857
aVIGNITE-3285
p5858
aVIGNITE-3284
p5859
aVIGNITE-3283
p5860
aVIGNITE-3282
p5861
aVIGNITE-3281
p5862
aVIGNITE-3280
p5863
aVIGNITE-3279
p5864
aVIGNITE-3278
p5865
aVIGNITE-3277
p5866
aVIGNITE-3276
p5867
aVIGNITE-3275
p5868
aVIGNITE-3274
p5869
aVIGNITE-3273
p5870
aVIGNITE-3272
p5871
aVIGNITE-3271
p5872
aVIGNITE-3270
p5873
aVIGNITE-3269
p5874
aVIGNITE-3268
p5875
aVIGNITE-3267
p5876
aVIGNITE-3266
p5877
aVIGNITE-3265
p5878
aVIGNITE-3264
p5879
aVIGNITE-3263
p5880
aVIGNITE-3262
p5881
aVIGNITE-3261
p5882
aVIGNITE-3260
p5883
aVIGNITE-3259
p5884
aVIGNITE-3258
p5885
aVIGNITE-3257
p5886
aVIGNITE-3256
p5887
aVIGNITE-3255
p5888
aVIGNITE-3254
p5889
aVIGNITE-3253
p5890
aVIGNITE-3252
p5891
aVIGNITE-3251
p5892
aVIGNITE-3250
p5893
aVIGNITE-3249
p5894
aVIGNITE-3248
p5895
aVIGNITE-3247
p5896
aVIGNITE-3246
p5897
aVIGNITE-3245
p5898
aVIGNITE-3244
p5899
aVIGNITE-3243
p5900
aVIGNITE-3242
p5901
aVIGNITE-3241
p5902
aVIGNITE-3240
p5903
aVIGNITE-3239
p5904
aVIGNITE-3238
p5905
aVIGNITE-3237
p5906
aVIGNITE-3236
p5907
aVIGNITE-3235
p5908
aVIGNITE-3234
p5909
aVIGNITE-3233
p5910
aVIGNITE-3232
p5911
aVIGNITE-3231
p5912
aVIGNITE-3230
p5913
aVIGNITE-3229
p5914
aVIGNITE-3228
p5915
aVIGNITE-3227
p5916
aVIGNITE-3226
p5917
aVIGNITE-3225
p5918
aVIGNITE-3224
p5919
aVIGNITE-3223
p5920
aVIGNITE-3222
p5921
aVIGNITE-3221
p5922
aVIGNITE-3220
p5923
aVIGNITE-3219
p5924
aVIGNITE-3218
p5925
aVIGNITE-3217
p5926
aVIGNITE-3216
p5927
aVIGNITE-3215
p5928
aVIGNITE-3214
p5929
aVIGNITE-3213
p5930
aVIGNITE-3212
p5931
aVIGNITE-3211
p5932
aVIGNITE-3210
p5933
aVIGNITE-3209
p5934
aVIGNITE-3208
p5935
aVIGNITE-3207
p5936
aVIGNITE-3206
p5937
aVIGNITE-3205
p5938
aVIGNITE-3204
p5939
aVIGNITE-3203
p5940
aVIGNITE-3202
p5941
aVIGNITE-3201
p5942
aVIGNITE-3200
p5943
aVIGNITE-3199
p5944
aVIGNITE-3198
p5945
aVIGNITE-3197
p5946
aVIGNITE-3196
p5947
aVIGNITE-3195
p5948
aVIGNITE-3194
p5949
aVIGNITE-3193
p5950
aVIGNITE-3192
p5951
aVIGNITE-3191
p5952
aVIGNITE-3190
p5953
aVIGNITE-3189
p5954
aVIGNITE-3188
p5955
aVIGNITE-3187
p5956
aVIGNITE-3186
p5957
aVIGNITE-3185
p5958
aVIGNITE-3184
p5959
aVIGNITE-3183
p5960
aVIGNITE-3182
p5961
aVIGNITE-3181
p5962
aVIGNITE-3180
p5963
aVIGNITE-3179
p5964
aVIGNITE-3178
p5965
aVIGNITE-3177
p5966
aVIGNITE-3176
p5967
aVIGNITE-3175
p5968
aVIGNITE-3174
p5969
aVIGNITE-3173
p5970
aVIGNITE-3172
p5971
aVIGNITE-3171
p5972
aVIGNITE-3170
p5973
aVIGNITE-3169
p5974
aVIGNITE-3168
p5975
aVIGNITE-3167
p5976
aVIGNITE-3166
p5977
aVIGNITE-3165
p5978
aVIGNITE-3164
p5979
aVIGNITE-3163
p5980
aVIGNITE-3162
p5981
aVIGNITE-3161
p5982
aVIGNITE-3160
p5983
aVIGNITE-3159
p5984
aVIGNITE-3158
p5985
aVIGNITE-3157
p5986
aVIGNITE-3156
p5987
aVIGNITE-3155
p5988
aVIGNITE-3154
p5989
aVIGNITE-3153
p5990
aVIGNITE-3152
p5991
aVIGNITE-3151
p5992
aVIGNITE-3150
p5993
aVIGNITE-3149
p5994
aVIGNITE-3148
p5995
aVIGNITE-3147
p5996
aVIGNITE-3146
p5997
aVIGNITE-3145
p5998
aVIGNITE-3144
p5999
aVIGNITE-3143
p6000
aVIGNITE-3142
p6001
aVIGNITE-3141
p6002
aVIGNITE-3140
p6003
aVIGNITE-3139
p6004
aVIGNITE-3138
p6005
aVIGNITE-3137
p6006
aVIGNITE-3136
p6007
aVIGNITE-3135
p6008
aVIGNITE-3134
p6009
aVIGNITE-3133
p6010
aVIGNITE-3132
p6011
aVIGNITE-3131
p6012
aVIGNITE-3130
p6013
aVIGNITE-3129
p6014
aVIGNITE-3128
p6015
aVIGNITE-3127
p6016
aVIGNITE-3126
p6017
aVIGNITE-3125
p6018
aVIGNITE-3124
p6019
aVIGNITE-3123
p6020
aVIGNITE-3122
p6021
aVIGNITE-3121
p6022
aVIGNITE-3120
p6023
aVIGNITE-3119
p6024
aVIGNITE-3118
p6025
aVIGNITE-3117
p6026
aVIGNITE-3116
p6027
aVIGNITE-3115
p6028
aVIGNITE-3114
p6029
aVIGNITE-3113
p6030
aVIGNITE-3112
p6031
aVIGNITE-3111
p6032
aVIGNITE-3110
p6033
aVIGNITE-3109
p6034
aVIGNITE-3108
p6035
aVIGNITE-3107
p6036
aVIGNITE-3106
p6037
aVIGNITE-3105
p6038
aVIGNITE-3104
p6039
aVIGNITE-3103
p6040
aVIGNITE-3102
p6041
aVIGNITE-3101
p6042
aVIGNITE-3100
p6043
aVIGNITE-3099
p6044
aVIGNITE-3098
p6045
aVIGNITE-3097
p6046
aVIGNITE-3096
p6047
aVIGNITE-3095
p6048
aVIGNITE-3094
p6049
aVIGNITE-3093
p6050
aVIGNITE-3092
p6051
aVIGNITE-3091
p6052
aVIGNITE-3090
p6053
aVIGNITE-3089
p6054
aVIGNITE-3088
p6055
aVIGNITE-3087
p6056
aVIGNITE-3086
p6057
aVIGNITE-3085
p6058
aVIGNITE-3084
p6059
aVIGNITE-3083
p6060
aVIGNITE-3082
p6061
aVIGNITE-3081
p6062
aVIGNITE-3080
p6063
aVIGNITE-3079
p6064
aVIGNITE-3078
p6065
aVIGNITE-3077
p6066
aVIGNITE-3076
p6067
aVIGNITE-3075
p6068
aVIGNITE-3074
p6069
aVIGNITE-3073
p6070
aVIGNITE-3072
p6071
aVIGNITE-3071
p6072
aVIGNITE-3070
p6073
aVIGNITE-3069
p6074
aVIGNITE-3068
p6075
aVIGNITE-3067
p6076
aVIGNITE-3066
p6077
aVIGNITE-3065
p6078
aVIGNITE-3064
p6079
aVIGNITE-3063
p6080
aVIGNITE-3062
p6081
aVIGNITE-3061
p6082
aVIGNITE-3060
p6083
aVIGNITE-3059
p6084
aVIGNITE-3058
p6085
aVIGNITE-3057
p6086
aVIGNITE-3056
p6087
aVIGNITE-3055
p6088
aVIGNITE-3054
p6089
aVIGNITE-3053
p6090
aVIGNITE-3052
p6091
aVIGNITE-3051
p6092
aVIGNITE-3050
p6093
aVIGNITE-3049
p6094
aVIGNITE-3048
p6095
aVIGNITE-3047
p6096
aVIGNITE-3046
p6097
aVIGNITE-3045
p6098
aVIGNITE-3044
p6099
aVIGNITE-3043
p6100
aVIGNITE-3042
p6101
aVIGNITE-3041
p6102
aVIGNITE-3040
p6103
aVIGNITE-3039
p6104
aVIGNITE-3038
p6105
aVIGNITE-3037
p6106
aVIGNITE-3036
p6107
aVIGNITE-3035
p6108
aVIGNITE-3034
p6109
aVIGNITE-3033
p6110
aVIGNITE-3032
p6111
aVIGNITE-3031
p6112
aVIGNITE-3030
p6113
aVIGNITE-3029
p6114
aVIGNITE-3028
p6115
aVIGNITE-3027
p6116
aVIGNITE-3026
p6117
aVIGNITE-3025
p6118
aVIGNITE-3024
p6119
aVIGNITE-3023
p6120
aVIGNITE-3022
p6121
aVIGNITE-3021
p6122
aVIGNITE-3020
p6123
aVIGNITE-3019
p6124
aVIGNITE-3018
p6125
aVIGNITE-3017
p6126
aVIGNITE-3016
p6127
aVIGNITE-3015
p6128
aVIGNITE-3014
p6129
aVIGNITE-3013
p6130
aVIGNITE-3012
p6131
aVIGNITE-3011
p6132
aVIGNITE-3010
p6133
aVIGNITE-3009
p6134
aVIGNITE-3008
p6135
aVIGNITE-3007
p6136
aVIGNITE-3006
p6137
aVIGNITE-3005
p6138
aVIGNITE-3004
p6139
aVIGNITE-3003
p6140
aVIGNITE-3002
p6141
aVIGNITE-3001
p6142
aVIGNITE-3000
p6143
aVIGNITE-2999
p6144
aVIGNITE-2998
p6145
aVIGNITE-2997
p6146
aVIGNITE-2996
p6147
aVIGNITE-2995
p6148
aVIGNITE-2994
p6149
aVIGNITE-2993
p6150
aVIGNITE-2992
p6151
aVIGNITE-2991
p6152
aVIGNITE-2990
p6153
aVIGNITE-2989
p6154
aVIGNITE-2988
p6155
aVIGNITE-2987
p6156
aVIGNITE-2986
p6157
aVIGNITE-2985
p6158
aVIGNITE-2984
p6159
aVIGNITE-2983
p6160
aVIGNITE-2982
p6161
aVIGNITE-2981
p6162
aVIGNITE-2980
p6163
aVIGNITE-2979
p6164
aVIGNITE-2978
p6165
aVIGNITE-2977
p6166
aVIGNITE-2976
p6167
aVIGNITE-2975
p6168
aVIGNITE-2974
p6169
aVIGNITE-2973
p6170
aVIGNITE-2972
p6171
aVIGNITE-2971
p6172
aVIGNITE-2970
p6173
aVIGNITE-2969
p6174
aVIGNITE-2968
p6175
aVIGNITE-2967
p6176
aVIGNITE-2966
p6177
aVIGNITE-2965
p6178
aVIGNITE-2964
p6179
aVIGNITE-2963
p6180
aVIGNITE-2962
p6181
aVIGNITE-2961
p6182
aVIGNITE-2960
p6183
aVIGNITE-2959
p6184
aVIGNITE-2958
p6185
aVIGNITE-2957
p6186
aVIGNITE-2956
p6187
aVIGNITE-2955
p6188
aVIGNITE-2954
p6189
aVIGNITE-2953
p6190
aVIGNITE-2952
p6191
aVIGNITE-2951
p6192
aVIGNITE-2950
p6193
aVIGNITE-2949
p6194
aVIGNITE-2948
p6195
aVIGNITE-2947
p6196
aVIGNITE-2946
p6197
aVIGNITE-2945
p6198
aVIGNITE-2944
p6199
aVIGNITE-2943
p6200
aVIGNITE-2942
p6201
aVIGNITE-2941
p6202
aVIGNITE-2940
p6203
aVIGNITE-2939
p6204
aVIGNITE-2938
p6205
aVIGNITE-2937
p6206
aVIGNITE-2936
p6207
aVIGNITE-2935
p6208
aVIGNITE-2934
p6209
aVIGNITE-2933
p6210
aVIGNITE-2932
p6211
aVIGNITE-2931
p6212
aVIGNITE-2930
p6213
aVIGNITE-2929
p6214
aVIGNITE-2928
p6215
aVIGNITE-2927
p6216
aVIGNITE-2926
p6217
aVIGNITE-2925
p6218
aVIGNITE-2924
p6219
aVIGNITE-2923
p6220
aVIGNITE-2922
p6221
aVIGNITE-2921
p6222
aVIGNITE-2920
p6223
aVIGNITE-2919
p6224
aVIGNITE-2918
p6225
aVIGNITE-2917
p6226
aVIGNITE-2916
p6227
aVIGNITE-2915
p6228
aVIGNITE-2914
p6229
aVIGNITE-2913
p6230
aVIGNITE-2912
p6231
aVIGNITE-2911
p6232
aVIGNITE-2910
p6233
aVIGNITE-2909
p6234
aVIGNITE-2908
p6235
aVIGNITE-2907
p6236
aVIGNITE-2906
p6237
aVIGNITE-2905
p6238
aVIGNITE-2904
p6239
aVIGNITE-2903
p6240
aVIGNITE-2902
p6241
aVIGNITE-2901
p6242
aVIGNITE-2900
p6243
aVIGNITE-2899
p6244
aVIGNITE-2898
p6245
aVIGNITE-2897
p6246
aVIGNITE-2896
p6247
aVIGNITE-2895
p6248
aVIGNITE-2894
p6249
aVIGNITE-2893
p6250
aVIGNITE-2892
p6251
aVIGNITE-2891
p6252
aVIGNITE-2890
p6253
aVIGNITE-2889
p6254
aVIGNITE-2888
p6255
aVIGNITE-2887
p6256
aVIGNITE-2886
p6257
aVIGNITE-2885
p6258
aVIGNITE-2884
p6259
aVIGNITE-2883
p6260
aVIGNITE-2882
p6261
aVIGNITE-2881
p6262
aVIGNITE-2880
p6263
aVIGNITE-2879
p6264
aVIGNITE-2878
p6265
aVIGNITE-2877
p6266
aVIGNITE-2876
p6267
aVIGNITE-2875
p6268
aVIGNITE-2874
p6269
aVIGNITE-2873
p6270
aVIGNITE-2872
p6271
aVIGNITE-2871
p6272
aVIGNITE-2870
p6273
aVIGNITE-2869
p6274
aVIGNITE-2868
p6275
aVIGNITE-2867
p6276
aVIGNITE-2866
p6277
aVIGNITE-2865
p6278
aVIGNITE-2864
p6279
aVIGNITE-2863
p6280
aVIGNITE-2862
p6281
aVIGNITE-2861
p6282
aVIGNITE-2860
p6283
aVIGNITE-2859
p6284
aVIGNITE-2858
p6285
aVIGNITE-2857
p6286
aVIGNITE-2856
p6287
aVIGNITE-2855
p6288
aVIGNITE-2854
p6289
aVIGNITE-2853
p6290
aVIGNITE-2852
p6291
aVIGNITE-2851
p6292
aVIGNITE-2850
p6293
aVIGNITE-2849
p6294
aVIGNITE-2848
p6295
aVIGNITE-2847
p6296
aVIGNITE-2846
p6297
aVIGNITE-2845
p6298
aVIGNITE-2844
p6299
aVIGNITE-2843
p6300
aVIGNITE-2842
p6301
aVIGNITE-2841
p6302
aVIGNITE-2840
p6303
aVIGNITE-2839
p6304
aVIGNITE-2838
p6305
aVIGNITE-2837
p6306
aVIGNITE-2836
p6307
aVIGNITE-2835
p6308
aVIGNITE-2834
p6309
aVIGNITE-2833
p6310
aVIGNITE-2832
p6311
aVIGNITE-2831
p6312
aVIGNITE-2830
p6313
aVIGNITE-2829
p6314
aVIGNITE-2828
p6315
aVIGNITE-2827
p6316
aVIGNITE-2826
p6317
aVIGNITE-2825
p6318
aVIGNITE-2824
p6319
aVIGNITE-2823
p6320
aVIGNITE-2822
p6321
aVIGNITE-2821
p6322
aVIGNITE-2820
p6323
aVIGNITE-2819
p6324
aVIGNITE-2818
p6325
aVIGNITE-2817
p6326
aVIGNITE-2816
p6327
aVIGNITE-2815
p6328
aVIGNITE-2814
p6329
aVIGNITE-2813
p6330
aVIGNITE-2812
p6331
aVIGNITE-2811
p6332
aVIGNITE-2810
p6333
aVIGNITE-2809
p6334
aVIGNITE-2808
p6335
aVIGNITE-2807
p6336
aVIGNITE-2806
p6337
aVIGNITE-2805
p6338
aVIGNITE-2804
p6339
aVIGNITE-2803
p6340
aVIGNITE-2802
p6341
aVIGNITE-2801
p6342
aVIGNITE-2800
p6343
aVIGNITE-2799
p6344
aVIGNITE-2798
p6345
aVIGNITE-2797
p6346
aVIGNITE-2796
p6347
aVIGNITE-2795
p6348
aVIGNITE-2794
p6349
aVIGNITE-2793
p6350
aVIGNITE-2792
p6351
aVIGNITE-2791
p6352
aVIGNITE-2790
p6353
aVIGNITE-2789
p6354
aVIGNITE-2788
p6355
aVIGNITE-2787
p6356
aVIGNITE-2786
p6357
aVIGNITE-2785
p6358
aVIGNITE-2784
p6359
aVIGNITE-2783
p6360
aVIGNITE-2782
p6361
aVIGNITE-2781
p6362
aVIGNITE-2780
p6363
aVIGNITE-2779
p6364
aVIGNITE-2778
p6365
aVIGNITE-2777
p6366
aVIGNITE-2776
p6367
aVIGNITE-2775
p6368
aVIGNITE-2774
p6369
aVIGNITE-2773
p6370
aVIGNITE-2772
p6371
aVIGNITE-2771
p6372
aVIGNITE-2770
p6373
aVIGNITE-2769
p6374
aVIGNITE-2768
p6375
aVIGNITE-2767
p6376
aVIGNITE-2766
p6377
aVIGNITE-2765
p6378
aVIGNITE-2764
p6379
aVIGNITE-2763
p6380
aVIGNITE-2762
p6381
aVIGNITE-2761
p6382
aVIGNITE-2760
p6383
aVIGNITE-2759
p6384
aVIGNITE-2758
p6385
aVIGNITE-2757
p6386
aVIGNITE-2756
p6387
aVIGNITE-2755
p6388
aVIGNITE-2754
p6389
aVIGNITE-2753
p6390
aVIGNITE-2752
p6391
aVIGNITE-2751
p6392
aVIGNITE-2750
p6393
aVIGNITE-2749
p6394
aVIGNITE-2748
p6395
aVIGNITE-2747
p6396
aVIGNITE-2746
p6397
aVIGNITE-2745
p6398
aVIGNITE-2744
p6399
aVIGNITE-2743
p6400
aVIGNITE-2742
p6401
aVIGNITE-2741
p6402
aVIGNITE-2740
p6403
aVIGNITE-2739
p6404
aVIGNITE-2738
p6405
aVIGNITE-2737
p6406
aVIGNITE-2736
p6407
aVIGNITE-2735
p6408
aVIGNITE-2734
p6409
aVIGNITE-2733
p6410
aVIGNITE-2732
p6411
aVIGNITE-2731
p6412
aVIGNITE-2730
p6413
aVIGNITE-2729
p6414
aVIGNITE-2728
p6415
aVIGNITE-2727
p6416
aVIGNITE-2726
p6417
aVIGNITE-2725
p6418
aVIGNITE-2724
p6419
aVIGNITE-2723
p6420
aVIGNITE-2722
p6421
aVIGNITE-2721
p6422
aVIGNITE-2720
p6423
aVIGNITE-2719
p6424
aVIGNITE-2718
p6425
aVIGNITE-2717
p6426
aVIGNITE-2716
p6427
aVIGNITE-2715
p6428
aVIGNITE-2714
p6429
aVIGNITE-2713
p6430
aVIGNITE-2712
p6431
aVIGNITE-2711
p6432
aVIGNITE-2710
p6433
aVIGNITE-2709
p6434
aVIGNITE-2708
p6435
aVIGNITE-2707
p6436
aVIGNITE-2706
p6437
aVIGNITE-2705
p6438
aVIGNITE-2704
p6439
aVIGNITE-2703
p6440
aVIGNITE-2702
p6441
aVIGNITE-2701
p6442
aVIGNITE-2700
p6443
aVIGNITE-2699
p6444
aVIGNITE-2698
p6445
aVIGNITE-2697
p6446
aVIGNITE-2696
p6447
aVIGNITE-2695
p6448
aVIGNITE-2694
p6449
aVIGNITE-2693
p6450
aVIGNITE-2692
p6451
aVIGNITE-2691
p6452
aVIGNITE-2690
p6453
aVIGNITE-2689
p6454
aVIGNITE-2688
p6455
aVIGNITE-2687
p6456
aVIGNITE-2686
p6457
aVIGNITE-2685
p6458
aVIGNITE-2684
p6459
aVIGNITE-2683
p6460
aVIGNITE-2682
p6461
aVIGNITE-2681
p6462
aVIGNITE-2680
p6463
aVIGNITE-2679
p6464
aVIGNITE-2678
p6465
aVIGNITE-2677
p6466
aVIGNITE-2676
p6467
aVIGNITE-2675
p6468
aVIGNITE-2674
p6469
aVIGNITE-2673
p6470
aVIGNITE-2672
p6471
aVIGNITE-2671
p6472
aVIGNITE-2670
p6473
aVIGNITE-2669
p6474
aVIGNITE-2668
p6475
aVIGNITE-2667
p6476
aVIGNITE-2666
p6477
aVIGNITE-2665
p6478
aVIGNITE-2664
p6479
aVIGNITE-2663
p6480
aVIGNITE-2662
p6481
aVIGNITE-2661
p6482
aVIGNITE-2660
p6483
aVIGNITE-2659
p6484
aVIGNITE-2658
p6485
aVIGNITE-2657
p6486
aVIGNITE-2656
p6487
aVIGNITE-2655
p6488
aVIGNITE-2654
p6489
aVIGNITE-2653
p6490
aVIGNITE-2652
p6491
aVIGNITE-2651
p6492
aVIGNITE-2650
p6493
aVIGNITE-2649
p6494
aVIGNITE-2648
p6495
aVIGNITE-2647
p6496
aVIGNITE-2646
p6497
aVIGNITE-2645
p6498
aVIGNITE-2644
p6499
aVIGNITE-2643
p6500
aVIGNITE-2642
p6501
aVIGNITE-2641
p6502
aVIGNITE-2640
p6503
aVIGNITE-2639
p6504
aVIGNITE-2638
p6505
aVIGNITE-2637
p6506
aVIGNITE-2636
p6507
aVIGNITE-2635
p6508
aVIGNITE-2634
p6509
aVIGNITE-2633
p6510
aVIGNITE-2632
p6511
aVIGNITE-2631
p6512
aVIGNITE-2630
p6513
aVIGNITE-2629
p6514
aVIGNITE-2628
p6515
aVIGNITE-2627
p6516
aVIGNITE-2626
p6517
aVIGNITE-2625
p6518
aVIGNITE-2624
p6519
aVIGNITE-2623
p6520
aVIGNITE-2622
p6521
aVIGNITE-2621
p6522
aVIGNITE-2620
p6523
aVIGNITE-2619
p6524
aVIGNITE-2618
p6525
aVIGNITE-2617
p6526
aVIGNITE-2616
p6527
aVIGNITE-2615
p6528
aVIGNITE-2614
p6529
aVIGNITE-2613
p6530
aVIGNITE-2612
p6531
aVIGNITE-2611
p6532
aVIGNITE-2610
p6533
aVIGNITE-2609
p6534
aVIGNITE-2608
p6535
aVIGNITE-2607
p6536
aVIGNITE-2606
p6537
aVIGNITE-2605
p6538
aVIGNITE-2604
p6539
aVIGNITE-2603
p6540
aVIGNITE-2602
p6541
aVIGNITE-2601
p6542
aVIGNITE-2600
p6543
aVIGNITE-2599
p6544
aVIGNITE-2598
p6545
aVIGNITE-2597
p6546
aVIGNITE-2596
p6547
aVIGNITE-2595
p6548
aVIGNITE-2594
p6549
aVIGNITE-2593
p6550
aVIGNITE-2592
p6551
aVIGNITE-2591
p6552
aVIGNITE-2590
p6553
aVIGNITE-2589
p6554
aVIGNITE-2588
p6555
aVIGNITE-2587
p6556
aVIGNITE-2586
p6557
aVIGNITE-2585
p6558
aVIGNITE-2584
p6559
aVIGNITE-2583
p6560
aVIGNITE-2582
p6561
aVIGNITE-2581
p6562
aVIGNITE-2580
p6563
aVIGNITE-2579
p6564
aVIGNITE-2578
p6565
aVIGNITE-2577
p6566
aVIGNITE-2576
p6567
aVIGNITE-2575
p6568
aVIGNITE-2574
p6569
aVIGNITE-2573
p6570
aVIGNITE-2572
p6571
aVIGNITE-2571
p6572
aVIGNITE-2570
p6573
aVIGNITE-2569
p6574
aVIGNITE-2568
p6575
aVIGNITE-2567
p6576
aVIGNITE-2566
p6577
aVIGNITE-2565
p6578
aVIGNITE-2564
p6579
aVIGNITE-2563
p6580
aVIGNITE-2562
p6581
aVIGNITE-2561
p6582
aVIGNITE-2560
p6583
aVIGNITE-2559
p6584
aVIGNITE-2558
p6585
aVIGNITE-2557
p6586
aVIGNITE-2556
p6587
aVIGNITE-2555
p6588
aVIGNITE-2554
p6589
aVIGNITE-2553
p6590
aVIGNITE-2552
p6591
aVIGNITE-2551
p6592
aVIGNITE-2550
p6593
aVIGNITE-2549
p6594
aVIGNITE-2548
p6595
aVIGNITE-2547
p6596
aVIGNITE-2546
p6597
aVIGNITE-2545
p6598
aVIGNITE-2544
p6599
aVIGNITE-2543
p6600
aVIGNITE-2542
p6601
aVIGNITE-2541
p6602
aVIGNITE-2540
p6603
aVIGNITE-2539
p6604
aVIGNITE-2538
p6605
aVIGNITE-2537
p6606
aVIGNITE-2536
p6607
aVIGNITE-2535
p6608
aVIGNITE-2534
p6609
aVIGNITE-2533
p6610
aVIGNITE-2532
p6611
aVIGNITE-2531
p6612
aVIGNITE-2530
p6613
aVIGNITE-2529
p6614
aVIGNITE-2528
p6615
aVIGNITE-2527
p6616
aVIGNITE-2526
p6617
aVIGNITE-2525
p6618
aVIGNITE-2524
p6619
aVIGNITE-2523
p6620
aVIGNITE-2522
p6621
aVIGNITE-2521
p6622
aVIGNITE-2520
p6623
aVIGNITE-2519
p6624
aVIGNITE-2518
p6625
aVIGNITE-2517
p6626
aVIGNITE-2516
p6627
aVIGNITE-2515
p6628
aVIGNITE-2514
p6629
aVIGNITE-2513
p6630
aVIGNITE-2512
p6631
aVIGNITE-2511
p6632
aVIGNITE-2510
p6633
aVIGNITE-2509
p6634
aVIGNITE-2508
p6635
aVIGNITE-2507
p6636
aVIGNITE-2506
p6637
aVIGNITE-2505
p6638
aVIGNITE-2504
p6639
aVIGNITE-2503
p6640
aVIGNITE-2502
p6641
aVIGNITE-2501
p6642
aVIGNITE-2500
p6643
aVIGNITE-2499
p6644
aVIGNITE-2498
p6645
aVIGNITE-2497
p6646
aVIGNITE-2496
p6647
aVIGNITE-2495
p6648
aVIGNITE-2494
p6649
aVIGNITE-2493
p6650
aVIGNITE-2492
p6651
aVIGNITE-2491
p6652
aVIGNITE-2490
p6653
aVIGNITE-2489
p6654
aVIGNITE-2488
p6655
aVIGNITE-2487
p6656
aVIGNITE-2486
p6657
aVIGNITE-2485
p6658
aVIGNITE-2484
p6659
aVIGNITE-2483
p6660
aVIGNITE-2482
p6661
aVIGNITE-2481
p6662
aVIGNITE-2480
p6663
aVIGNITE-2479
p6664
aVIGNITE-2478
p6665
aVIGNITE-2477
p6666
aVIGNITE-2476
p6667
aVIGNITE-2475
p6668
aVIGNITE-2474
p6669
aVIGNITE-2473
p6670
aVIGNITE-2472
p6671
aVIGNITE-2471
p6672
aVIGNITE-2470
p6673
aVIGNITE-2469
p6674
aVIGNITE-2468
p6675
aVIGNITE-2467
p6676
aVIGNITE-2466
p6677
aVIGNITE-2465
p6678
aVIGNITE-2464
p6679
aVIGNITE-2463
p6680
aVIGNITE-2462
p6681
aVIGNITE-2461
p6682
aVIGNITE-2460
p6683
aVIGNITE-2459
p6684
aVIGNITE-2458
p6685
aVIGNITE-2457
p6686
aVIGNITE-2456
p6687
aVIGNITE-2455
p6688
aVIGNITE-2454
p6689
aVIGNITE-2453
p6690
aVIGNITE-2452
p6691
aVIGNITE-2451
p6692
aVIGNITE-2450
p6693
aVIGNITE-2449
p6694
aVIGNITE-2448
p6695
aVIGNITE-2447
p6696
aVIGNITE-2446
p6697
aVIGNITE-2445
p6698
aVIGNITE-2444
p6699
aVIGNITE-2443
p6700
aVIGNITE-2442
p6701
aVIGNITE-2441
p6702
aVIGNITE-2440
p6703
aVIGNITE-2439
p6704
aVIGNITE-2438
p6705
aVIGNITE-2437
p6706
aVIGNITE-2436
p6707
aVIGNITE-2435
p6708
aVIGNITE-2434
p6709
aVIGNITE-2433
p6710
aVIGNITE-2432
p6711
aVIGNITE-2431
p6712
aVIGNITE-2430
p6713
aVIGNITE-2429
p6714
aVIGNITE-2428
p6715
aVIGNITE-2427
p6716
aVIGNITE-2426
p6717
aVIGNITE-2425
p6718
aVIGNITE-2424
p6719
aVIGNITE-2423
p6720
aVIGNITE-2422
p6721
aVIGNITE-2421
p6722
aVIGNITE-2420
p6723
aVIGNITE-2419
p6724
aVIGNITE-2418
p6725
aVIGNITE-2417
p6726
aVIGNITE-2416
p6727
aVIGNITE-2415
p6728
aVIGNITE-2414
p6729
aVIGNITE-2413
p6730
aVIGNITE-2412
p6731
aVIGNITE-2411
p6732
aVIGNITE-2410
p6733
aVIGNITE-2409
p6734
aVIGNITE-2408
p6735
aVIGNITE-2407
p6736
aVIGNITE-2406
p6737
aVIGNITE-2405
p6738
aVIGNITE-2404
p6739
aVIGNITE-2403
p6740
aVIGNITE-2402
p6741
aVIGNITE-2401
p6742
aVIGNITE-2400
p6743
aVIGNITE-2399
p6744
aVIGNITE-2398
p6745
aVIGNITE-2397
p6746
aVIGNITE-2396
p6747
aVIGNITE-2395
p6748
aVIGNITE-2394
p6749
aVIGNITE-2393
p6750
aVIGNITE-2392
p6751
aVIGNITE-2391
p6752
aVIGNITE-2390
p6753
aVIGNITE-2389
p6754
aVIGNITE-2388
p6755
aVIGNITE-2387
p6756
aVIGNITE-2386
p6757
aVIGNITE-2385
p6758
aVIGNITE-2384
p6759
aVIGNITE-2383
p6760
aVIGNITE-2382
p6761
aVIGNITE-2381
p6762
aVIGNITE-2380
p6763
aVIGNITE-2379
p6764
aVIGNITE-2378
p6765
aVIGNITE-2377
p6766
aVIGNITE-2376
p6767
aVIGNITE-2375
p6768
aVIGNITE-2374
p6769
aVIGNITE-2373
p6770
aVIGNITE-2372
p6771
aVIGNITE-2371
p6772
aVIGNITE-2370
p6773
aVIGNITE-2369
p6774
aVIGNITE-2368
p6775
aVIGNITE-2367
p6776
aVIGNITE-2366
p6777
aVIGNITE-2365
p6778
aVIGNITE-2364
p6779
aVIGNITE-2363
p6780
aVIGNITE-2362
p6781
aVIGNITE-2361
p6782
aVIGNITE-2360
p6783
aVIGNITE-2359
p6784
aVIGNITE-2358
p6785
aVIGNITE-2357
p6786
aVIGNITE-2356
p6787
aVIGNITE-2355
p6788
aVIGNITE-2354
p6789
aVIGNITE-2353
p6790
aVIGNITE-2352
p6791
aVIGNITE-2351
p6792
aVIGNITE-2350
p6793
aVIGNITE-2349
p6794
aVIGNITE-2348
p6795
aVIGNITE-2347
p6796
aVIGNITE-2346
p6797
aVIGNITE-2345
p6798
aVIGNITE-2344
p6799
aVIGNITE-2343
p6800
aVIGNITE-2342
p6801
aVIGNITE-2341
p6802
aVIGNITE-2340
p6803
aVIGNITE-2339
p6804
aVIGNITE-2338
p6805
aVIGNITE-2337
p6806
aVIGNITE-2336
p6807
aVIGNITE-2335
p6808
aVIGNITE-2334
p6809
aVIGNITE-2333
p6810
aVIGNITE-2332
p6811
aVIGNITE-2331
p6812
aVIGNITE-2330
p6813
aVIGNITE-2329
p6814
aVIGNITE-2328
p6815
aVIGNITE-2327
p6816
aVIGNITE-2326
p6817
aVIGNITE-2325
p6818
aVIGNITE-2324
p6819
aVIGNITE-2323
p6820
aVIGNITE-2322
p6821
aVIGNITE-2321
p6822
aVIGNITE-2320
p6823
aVIGNITE-2319
p6824
aVIGNITE-2318
p6825
aVIGNITE-2317
p6826
aVIGNITE-2316
p6827
aVIGNITE-2315
p6828
aVIGNITE-2314
p6829
aVIGNITE-2313
p6830
aVIGNITE-2312
p6831
aVIGNITE-2311
p6832
aVIGNITE-2310
p6833
aVIGNITE-2309
p6834
aVIGNITE-2308
p6835
aVIGNITE-2307
p6836
aVIGNITE-2306
p6837
aVIGNITE-2305
p6838
aVIGNITE-2304
p6839
aVIGNITE-2303
p6840
aVIGNITE-2302
p6841
aVIGNITE-2301
p6842
aVIGNITE-2300
p6843
aVIGNITE-2299
p6844
aVIGNITE-2298
p6845
aVIGNITE-2297
p6846
aVIGNITE-2296
p6847
aVIGNITE-2295
p6848
aVIGNITE-2294
p6849
aVIGNITE-2293
p6850
aVIGNITE-2292
p6851
aVIGNITE-2291
p6852
aVIGNITE-2290
p6853
aVIGNITE-2289
p6854
aVIGNITE-2288
p6855
aVIGNITE-2287
p6856
aVIGNITE-2286
p6857
aVIGNITE-2285
p6858
aVIGNITE-2284
p6859
aVIGNITE-2283
p6860
aVIGNITE-2282
p6861
aVIGNITE-2281
p6862
aVIGNITE-2280
p6863
aVIGNITE-2279
p6864
aVIGNITE-2278
p6865
aVIGNITE-2277
p6866
aVIGNITE-2276
p6867
aVIGNITE-2275
p6868
aVIGNITE-2274
p6869
aVIGNITE-2273
p6870
aVIGNITE-2272
p6871
aVIGNITE-2271
p6872
aVIGNITE-2270
p6873
aVIGNITE-2269
p6874
aVIGNITE-2268
p6875
aVIGNITE-2267
p6876
aVIGNITE-2266
p6877
aVIGNITE-2265
p6878
aVIGNITE-2264
p6879
aVIGNITE-2263
p6880
aVIGNITE-2262
p6881
aVIGNITE-2261
p6882
aVIGNITE-2260
p6883
aVIGNITE-2259
p6884
aVIGNITE-2258
p6885
aVIGNITE-2257
p6886
aVIGNITE-2256
p6887
aVIGNITE-2255
p6888
aVIGNITE-2254
p6889
aVIGNITE-2253
p6890
aVIGNITE-2252
p6891
aVIGNITE-2251
p6892
aVIGNITE-2250
p6893
aVIGNITE-2249
p6894
aVIGNITE-2248
p6895
aVIGNITE-2247
p6896
aVIGNITE-2246
p6897
aVIGNITE-2245
p6898
aVIGNITE-2244
p6899
aVIGNITE-2243
p6900
aVIGNITE-2242
p6901
aVIGNITE-2241
p6902
aVIGNITE-2240
p6903
aVIGNITE-2239
p6904
aVIGNITE-2238
p6905
aVIGNITE-2237
p6906
aVIGNITE-2236
p6907
aVIGNITE-2235
p6908
aVIGNITE-2234
p6909
aVIGNITE-2233
p6910
aVIGNITE-2232
p6911
aVIGNITE-2231
p6912
aVIGNITE-2230
p6913
aVIGNITE-2229
p6914
aVIGNITE-2228
p6915
aVIGNITE-2227
p6916
aVIGNITE-2226
p6917
aVIGNITE-2225
p6918
aVIGNITE-2224
p6919
aVIGNITE-2223
p6920
aVIGNITE-2222
p6921
aVIGNITE-2221
p6922
aVIGNITE-2220
p6923
aVIGNITE-2219
p6924
aVIGNITE-2218
p6925
aVIGNITE-2217
p6926
aVIGNITE-2216
p6927
aVIGNITE-2215
p6928
aVIGNITE-2214
p6929
aVIGNITE-2213
p6930
aVIGNITE-2212
p6931
aVIGNITE-2211
p6932
aVIGNITE-2210
p6933
aVIGNITE-2209
p6934
aVIGNITE-2208
p6935
aVIGNITE-2207
p6936
aVIGNITE-2206
p6937
aVIGNITE-2205
p6938
aVIGNITE-2204
p6939
aVIGNITE-2203
p6940
aVIGNITE-2202
p6941
aVIGNITE-2201
p6942
aVIGNITE-2200
p6943
aVIGNITE-2199
p6944
aVIGNITE-2198
p6945
aVIGNITE-2197
p6946
aVIGNITE-2196
p6947
aVIGNITE-2195
p6948
aVIGNITE-2194
p6949
aVIGNITE-2193
p6950
aVIGNITE-2192
p6951
aVIGNITE-2191
p6952
aVIGNITE-2190
p6953
aVIGNITE-2189
p6954
aVIGNITE-2188
p6955
aVIGNITE-2187
p6956
aVIGNITE-2186
p6957
aVIGNITE-2185
p6958
aVIGNITE-2184
p6959
aVIGNITE-2183
p6960
aVIGNITE-2182
p6961
aVIGNITE-2181
p6962
aVIGNITE-2180
p6963
aVIGNITE-2179
p6964
aVIGNITE-2178
p6965
aVIGNITE-2177
p6966
aVIGNITE-2176
p6967
aVIGNITE-2175
p6968
aVIGNITE-2174
p6969
aVIGNITE-2173
p6970
aVIGNITE-2172
p6971
aVIGNITE-2171
p6972
aVIGNITE-2170
p6973
aVIGNITE-2169
p6974
aVIGNITE-2168
p6975
aVIGNITE-2167
p6976
aVIGNITE-2166
p6977
aVIGNITE-2165
p6978
aVIGNITE-2164
p6979
aVIGNITE-2163
p6980
aVIGNITE-2162
p6981
aVIGNITE-2161
p6982
aVIGNITE-2160
p6983
aVIGNITE-2159
p6984
aVIGNITE-2158
p6985
aVIGNITE-2157
p6986
aVIGNITE-2156
p6987
aVIGNITE-2155
p6988
aVIGNITE-2154
p6989
aVIGNITE-2153
p6990
aVIGNITE-2152
p6991
aVIGNITE-2151
p6992
aVIGNITE-2150
p6993
aVIGNITE-2149
p6994
aVIGNITE-2148
p6995
aVIGNITE-2147
p6996
aVIGNITE-2146
p6997
aVIGNITE-2145
p6998
aVIGNITE-2144
p6999
aVIGNITE-2143
p7000
aVIGNITE-2142
p7001
aVIGNITE-2141
p7002
aVIGNITE-2140
p7003
aVIGNITE-2139
p7004
aVIGNITE-2138
p7005
aVIGNITE-2137
p7006
aVIGNITE-2136
p7007
aVIGNITE-2135
p7008
aVIGNITE-2134
p7009
aVIGNITE-2133
p7010
aVIGNITE-2132
p7011
aVIGNITE-2131
p7012
aVIGNITE-2130
p7013
aVIGNITE-2129
p7014
aVIGNITE-2128
p7015
aVIGNITE-2127
p7016
aVIGNITE-2126
p7017
aVIGNITE-2125
p7018
aVIGNITE-2124
p7019
aVIGNITE-2123
p7020
aVIGNITE-2122
p7021
aVIGNITE-2121
p7022
aVIGNITE-2120
p7023
aVIGNITE-2119
p7024
aVIGNITE-2118
p7025
aVIGNITE-2117
p7026
aVIGNITE-2116
p7027
aVIGNITE-2115
p7028
aVIGNITE-2114
p7029
aVIGNITE-2113
p7030
aVIGNITE-2112
p7031
aVIGNITE-2111
p7032
aVIGNITE-2110
p7033
aVIGNITE-2109
p7034
aVIGNITE-2108
p7035
aVIGNITE-2107
p7036
aVIGNITE-2106
p7037
aVIGNITE-2105
p7038
aVIGNITE-2104
p7039
aVIGNITE-2103
p7040
aVIGNITE-2102
p7041
aVIGNITE-2101
p7042
aVIGNITE-2100
p7043
aVIGNITE-2099
p7044
aVIGNITE-2098
p7045
aVIGNITE-2097
p7046
aVIGNITE-2096
p7047
aVIGNITE-2095
p7048
aVIGNITE-2094
p7049
aVIGNITE-2093
p7050
aVIGNITE-2092
p7051
aVIGNITE-2091
p7052
aVIGNITE-2090
p7053
aVIGNITE-2089
p7054
aVIGNITE-2088
p7055
aVIGNITE-2087
p7056
aVIGNITE-2086
p7057
aVIGNITE-2085
p7058
aVIGNITE-2084
p7059
aVIGNITE-2083
p7060
aVIGNITE-2082
p7061
aVIGNITE-2081
p7062
aVIGNITE-2080
p7063
aVIGNITE-2079
p7064
aVIGNITE-2078
p7065
aVIGNITE-2077
p7066
aVIGNITE-2076
p7067
aVIGNITE-2075
p7068
aVIGNITE-2074
p7069
aVIGNITE-2073
p7070
aVIGNITE-2072
p7071
aVIGNITE-2071
p7072
aVIGNITE-2070
p7073
aVIGNITE-2069
p7074
aVIGNITE-2068
p7075
aVIGNITE-2067
p7076
aVIGNITE-2066
p7077
aVIGNITE-2065
p7078
aVIGNITE-2064
p7079
aVIGNITE-2063
p7080
aVIGNITE-2062
p7081
aVIGNITE-2061
p7082
aVIGNITE-2060
p7083
aVIGNITE-2059
p7084
aVIGNITE-2058
p7085
aVIGNITE-2057
p7086
aVIGNITE-2056
p7087
aVIGNITE-2055
p7088
aVIGNITE-2054
p7089
aVIGNITE-2053
p7090
aVIGNITE-2052
p7091
aVIGNITE-2051
p7092
aVIGNITE-2050
p7093
aVIGNITE-2049
p7094
aVIGNITE-2048
p7095
aVIGNITE-2047
p7096
aVIGNITE-2046
p7097
aVIGNITE-2045
p7098
aVIGNITE-2044
p7099
aVIGNITE-2043
p7100
aVIGNITE-2042
p7101
aVIGNITE-2041
p7102
aVIGNITE-2040
p7103
aVIGNITE-2039
p7104
aVIGNITE-2038
p7105
aVIGNITE-2037
p7106
aVIGNITE-2036
p7107
aVIGNITE-2035
p7108
aVIGNITE-2034
p7109
aVIGNITE-2033
p7110
aVIGNITE-2032
p7111
aVIGNITE-2031
p7112
aVIGNITE-2030
p7113
aVIGNITE-2029
p7114
aVIGNITE-2028
p7115
aVIGNITE-2027
p7116
aVIGNITE-2026
p7117
aVIGNITE-2025
p7118
aVIGNITE-2024
p7119
aVIGNITE-2023
p7120
aVIGNITE-2022
p7121
aVIGNITE-2021
p7122
aVIGNITE-2020
p7123
aVIGNITE-2019
p7124
aVIGNITE-2018
p7125
aVIGNITE-2017
p7126
aVIGNITE-2016
p7127
aVIGNITE-2015
p7128
aVIGNITE-2014
p7129
aVIGNITE-2013
p7130
aVIGNITE-2012
p7131
aVIGNITE-2011
p7132
aVIGNITE-2010
p7133
aVIGNITE-2009
p7134
aVIGNITE-2008
p7135
aVIGNITE-2007
p7136
aVIGNITE-2006
p7137
aVIGNITE-2005
p7138
aVIGNITE-2004
p7139
aVIGNITE-2003
p7140
aVIGNITE-2002
p7141
aVIGNITE-2001
p7142
aVIGNITE-2000
p7143
aVIGNITE-1999
p7144
aVIGNITE-1998
p7145
aVIGNITE-1997
p7146
aVIGNITE-1996
p7147
aVIGNITE-1995
p7148
aVIGNITE-1994
p7149
aVIGNITE-1993
p7150
aVIGNITE-1992
p7151
aVIGNITE-1991
p7152
aVIGNITE-1990
p7153
aVIGNITE-1989
p7154
aVIGNITE-1988
p7155
aVIGNITE-1987
p7156
aVIGNITE-1986
p7157
aVIGNITE-1985
p7158
aVIGNITE-1984
p7159
aVIGNITE-1983
p7160
aVIGNITE-1982
p7161
aVIGNITE-1981
p7162
aVIGNITE-1980
p7163
aVIGNITE-1979
p7164
aVIGNITE-1978
p7165
aVIGNITE-1977
p7166
aVIGNITE-1976
p7167
aVIGNITE-1975
p7168
aVIGNITE-1974
p7169
aVIGNITE-1973
p7170
aVIGNITE-1972
p7171
aVIGNITE-1971
p7172
aVIGNITE-1970
p7173
aVIGNITE-1969
p7174
aVIGNITE-1968
p7175
aVIGNITE-1967
p7176
aVIGNITE-1966
p7177
aVIGNITE-1965
p7178
aVIGNITE-1964
p7179
aVIGNITE-1963
p7180
aVIGNITE-1962
p7181
aVIGNITE-1961
p7182
aVIGNITE-1960
p7183
aVIGNITE-1959
p7184
aVIGNITE-1958
p7185
aVIGNITE-1957
p7186
aVIGNITE-1956
p7187
aVIGNITE-1955
p7188
aVIGNITE-1954
p7189
aVIGNITE-1953
p7190
aVIGNITE-1952
p7191
aVIGNITE-1951
p7192
aVIGNITE-1950
p7193
aVIGNITE-1949
p7194
aVIGNITE-1948
p7195
aVIGNITE-1947
p7196
aVIGNITE-1946
p7197
aVIGNITE-1945
p7198
aVIGNITE-1944
p7199
aVIGNITE-1943
p7200
aVIGNITE-1942
p7201
aVIGNITE-1941
p7202
aVIGNITE-1940
p7203
aVIGNITE-1939
p7204
aVIGNITE-1938
p7205
aVIGNITE-1937
p7206
aVIGNITE-1936
p7207
aVIGNITE-1935
p7208
aVIGNITE-1934
p7209
aVIGNITE-1933
p7210
aVIGNITE-1932
p7211
aVIGNITE-1931
p7212
aVIGNITE-1930
p7213
aVIGNITE-1929
p7214
aVIGNITE-1928
p7215
aVIGNITE-1927
p7216
aVIGNITE-1926
p7217
aVIGNITE-1925
p7218
aVIGNITE-1924
p7219
aVIGNITE-1923
p7220
aVIGNITE-1922
p7221
aVIGNITE-1921
p7222
aVIGNITE-1920
p7223
aVIGNITE-1919
p7224
aVIGNITE-1918
p7225
aVIGNITE-1917
p7226
aVIGNITE-1916
p7227
aVIGNITE-1915
p7228
aVIGNITE-1914
p7229
aVIGNITE-1913
p7230
aVIGNITE-1912
p7231
aVIGNITE-1911
p7232
aVIGNITE-1910
p7233
aVIGNITE-1909
p7234
aVIGNITE-1908
p7235
aVIGNITE-1907
p7236
aVIGNITE-1906
p7237
aVIGNITE-1905
p7238
aVIGNITE-1904
p7239
aVIGNITE-1903
p7240
aVIGNITE-1902
p7241
aVIGNITE-1901
p7242
aVIGNITE-1900
p7243
aVIGNITE-1899
p7244
aVIGNITE-1898
p7245
aVIGNITE-1897
p7246
aVIGNITE-1896
p7247
aVIGNITE-1895
p7248
aVIGNITE-1894
p7249
aVIGNITE-1893
p7250
aVIGNITE-1892
p7251
aVIGNITE-1891
p7252
aVIGNITE-1890
p7253
aVIGNITE-1889
p7254
aVIGNITE-1888
p7255
aVIGNITE-1887
p7256
aVIGNITE-1886
p7257
aVIGNITE-1885
p7258
aVIGNITE-1884
p7259
aVIGNITE-1883
p7260
aVIGNITE-1882
p7261
aVIGNITE-1881
p7262
aVIGNITE-1880
p7263
aVIGNITE-1879
p7264
aVIGNITE-1878
p7265
aVIGNITE-1877
p7266
aVIGNITE-1876
p7267
aVIGNITE-1875
p7268
aVIGNITE-1874
p7269
aVIGNITE-1873
p7270
aVIGNITE-1872
p7271
aVIGNITE-1871
p7272
aVIGNITE-1870
p7273
aVIGNITE-1869
p7274
aVIGNITE-1868
p7275
aVIGNITE-1867
p7276
aVIGNITE-1866
p7277
aVIGNITE-1865
p7278
aVIGNITE-1864
p7279
aVIGNITE-1863
p7280
aVIGNITE-1862
p7281
aVIGNITE-1861
p7282
aVIGNITE-1860
p7283
aVIGNITE-1859
p7284
aVIGNITE-1858
p7285
aVIGNITE-1857
p7286
aVIGNITE-1856
p7287
aVIGNITE-1855
p7288
aVIGNITE-1854
p7289
aVIGNITE-1853
p7290
aVIGNITE-1852
p7291
aVIGNITE-1851
p7292
aVIGNITE-1850
p7293
aVIGNITE-1849
p7294
aVIGNITE-1848
p7295
aVIGNITE-1847
p7296
aVIGNITE-1846
p7297
aVIGNITE-1845
p7298
aVIGNITE-1844
p7299
aVIGNITE-1843
p7300
aVIGNITE-1842
p7301
aVIGNITE-1841
p7302
aVIGNITE-1840
p7303
aVIGNITE-1839
p7304
aVIGNITE-1838
p7305
aVIGNITE-1837
p7306
aVIGNITE-1836
p7307
aVIGNITE-1835
p7308
aVIGNITE-1834
p7309
aVIGNITE-1833
p7310
aVIGNITE-1832
p7311
aVIGNITE-1831
p7312
aVIGNITE-1830
p7313
aVIGNITE-1829
p7314
aVIGNITE-1828
p7315
aVIGNITE-1827
p7316
aVIGNITE-1826
p7317
aVIGNITE-1825
p7318
aVIGNITE-1824
p7319
aVIGNITE-1823
p7320
aVIGNITE-1822
p7321
aVIGNITE-1821
p7322
aVIGNITE-1820
p7323
aVIGNITE-1819
p7324
aVIGNITE-1818
p7325
aVIGNITE-1817
p7326
aVIGNITE-1816
p7327
aVIGNITE-1815
p7328
aVIGNITE-1814
p7329
aVIGNITE-1813
p7330
aVIGNITE-1812
p7331
aVIGNITE-1811
p7332
aVIGNITE-1810
p7333
aVIGNITE-1809
p7334
aVIGNITE-1808
p7335
aVIGNITE-1807
p7336
aVIGNITE-1806
p7337
aVIGNITE-1805
p7338
aVIGNITE-1804
p7339
aVIGNITE-1803
p7340
aVIGNITE-1802
p7341
aVIGNITE-1801
p7342
aVIGNITE-1800
p7343
aVIGNITE-1799
p7344
aVIGNITE-1798
p7345
aVIGNITE-1797
p7346
aVIGNITE-1796
p7347
aVIGNITE-1795
p7348
aVIGNITE-1794
p7349
aVIGNITE-1793
p7350
aVIGNITE-1792
p7351
aVIGNITE-1791
p7352
aVIGNITE-1790
p7353
aVIGNITE-1789
p7354
aVIGNITE-1788
p7355
aVIGNITE-1787
p7356
aVIGNITE-1786
p7357
aVIGNITE-1785
p7358
aVIGNITE-1784
p7359
aVIGNITE-1783
p7360
aVIGNITE-1782
p7361
aVIGNITE-1781
p7362
aVIGNITE-1780
p7363
aVIGNITE-1779
p7364
aVIGNITE-1778
p7365
aVIGNITE-1777
p7366
aVIGNITE-1776
p7367
aVIGNITE-1775
p7368
aVIGNITE-1774
p7369
aVIGNITE-1773
p7370
aVIGNITE-1772
p7371
aVIGNITE-1771
p7372
aVIGNITE-1770
p7373
aVIGNITE-1769
p7374
aVIGNITE-1768
p7375
aVIGNITE-1767
p7376
aVIGNITE-1766
p7377
aVIGNITE-1765
p7378
aVIGNITE-1764
p7379
aVIGNITE-1763
p7380
aVIGNITE-1762
p7381
aVIGNITE-1761
p7382
aVIGNITE-1760
p7383
aVIGNITE-1759
p7384
aVIGNITE-1758
p7385
aVIGNITE-1757
p7386
aVIGNITE-1756
p7387
aVIGNITE-1755
p7388
aVIGNITE-1754
p7389
aVIGNITE-1753
p7390
aVIGNITE-1752
p7391
aVIGNITE-1751
p7392
aVIGNITE-1750
p7393
aVIGNITE-1749
p7394
aVIGNITE-1748
p7395
aVIGNITE-1747
p7396
aVIGNITE-1746
p7397
aVIGNITE-1745
p7398
aVIGNITE-1744
p7399
aVIGNITE-1743
p7400
aVIGNITE-1742
p7401
aVIGNITE-1741
p7402
aVIGNITE-1740
p7403
aVIGNITE-1739
p7404
aVIGNITE-1738
p7405
aVIGNITE-1737
p7406
aVIGNITE-1736
p7407
aVIGNITE-1735
p7408
aVIGNITE-1734
p7409
aVIGNITE-1733
p7410
aVIGNITE-1732
p7411
aVIGNITE-1731
p7412
aVIGNITE-1730
p7413
aVIGNITE-1729
p7414
aVIGNITE-1728
p7415
aVIGNITE-1727
p7416
aVIGNITE-1726
p7417
aVIGNITE-1725
p7418
aVIGNITE-1724
p7419
aVIGNITE-1723
p7420
aVIGNITE-1722
p7421
aVIGNITE-1721
p7422
aVIGNITE-1720
p7423
aVIGNITE-1719
p7424
aVIGNITE-1718
p7425
aVIGNITE-1717
p7426
aVIGNITE-1716
p7427
aVIGNITE-1715
p7428
aVIGNITE-1714
p7429
aVIGNITE-1713
p7430
aVIGNITE-1712
p7431
aVIGNITE-1711
p7432
aVIGNITE-1710
p7433
aVIGNITE-1709
p7434
aVIGNITE-1708
p7435
aVIGNITE-1707
p7436
aVIGNITE-1706
p7437
aVIGNITE-1705
p7438
aVIGNITE-1704
p7439
aVIGNITE-1703
p7440
aVIGNITE-1702
p7441
aVIGNITE-1701
p7442
aVIGNITE-1700
p7443
aVIGNITE-1699
p7444
aVIGNITE-1698
p7445
aVIGNITE-1697
p7446
aVIGNITE-1696
p7447
aVIGNITE-1695
p7448
aVIGNITE-1694
p7449
aVIGNITE-1693
p7450
aVIGNITE-1692
p7451
aVIGNITE-1691
p7452
aVIGNITE-1690
p7453
aVIGNITE-1689
p7454
aVIGNITE-1688
p7455
aVIGNITE-1687
p7456
aVIGNITE-1686
p7457
aVIGNITE-1685
p7458
aVIGNITE-1684
p7459
aVIGNITE-1683
p7460
aVIGNITE-1682
p7461
aVIGNITE-1681
p7462
aVIGNITE-1680
p7463
aVIGNITE-1679
p7464
aVIGNITE-1678
p7465
aVIGNITE-1677
p7466
aVIGNITE-1676
p7467
aVIGNITE-1675
p7468
aVIGNITE-1674
p7469
aVIGNITE-1673
p7470
aVIGNITE-1672
p7471
aVIGNITE-1671
p7472
aVIGNITE-1670
p7473
aVIGNITE-1669
p7474
aVIGNITE-1668
p7475
aVIGNITE-1667
p7476
aVIGNITE-1666
p7477
aVIGNITE-1665
p7478
aVIGNITE-1664
p7479
aVIGNITE-1663
p7480
aVIGNITE-1662
p7481
aVIGNITE-1661
p7482
aVIGNITE-1660
p7483
aVIGNITE-1659
p7484
aVIGNITE-1658
p7485
aVIGNITE-1657
p7486
aVIGNITE-1656
p7487
aVIGNITE-1655
p7488
aVIGNITE-1654
p7489
aVIGNITE-1653
p7490
aVIGNITE-1652
p7491
aVIGNITE-1651
p7492
aVIGNITE-1650
p7493
aVIGNITE-1649
p7494
aVIGNITE-1648
p7495
aVIGNITE-1647
p7496
aVIGNITE-1646
p7497
aVIGNITE-1645
p7498
aVIGNITE-1644
p7499
aVIGNITE-1643
p7500
aVIGNITE-1642
p7501
aVIGNITE-1641
p7502
aVIGNITE-1640
p7503
aVIGNITE-1639
p7504
aVIGNITE-1638
p7505
aVIGNITE-1637
p7506
aVIGNITE-1636
p7507
aVIGNITE-1635
p7508
aVIGNITE-1634
p7509
aVIGNITE-1633
p7510
aVIGNITE-1632
p7511
aVIGNITE-1631
p7512
aVIGNITE-1630
p7513
aVIGNITE-1629
p7514
aVIGNITE-1628
p7515
aVIGNITE-1627
p7516
aVIGNITE-1626
p7517
aVIGNITE-1625
p7518
aVIGNITE-1624
p7519
aVIGNITE-1623
p7520
aVIGNITE-1622
p7521
aVIGNITE-1621
p7522
aVIGNITE-1620
p7523
aVIGNITE-1619
p7524
aVIGNITE-1618
p7525
aVIGNITE-1617
p7526
aVIGNITE-1616
p7527
aVIGNITE-1615
p7528
aVIGNITE-1614
p7529
aVIGNITE-1613
p7530
aVIGNITE-1612
p7531
aVIGNITE-1611
p7532
aVIGNITE-1610
p7533
aVIGNITE-1609
p7534
aVIGNITE-1608
p7535
aVIGNITE-1607
p7536
aVIGNITE-1606
p7537
aVIGNITE-1605
p7538
aVIGNITE-1604
p7539
aVIGNITE-1603
p7540
aVIGNITE-1602
p7541
aVIGNITE-1601
p7542
aVIGNITE-1600
p7543
aVIGNITE-1599
p7544
aVIGNITE-1598
p7545
aVIGNITE-1597
p7546
aVIGNITE-1596
p7547
aVIGNITE-1595
p7548
aVIGNITE-1594
p7549
aVIGNITE-1593
p7550
aVIGNITE-1592
p7551
aVIGNITE-1591
p7552
aVIGNITE-1590
p7553
aVIGNITE-1589
p7554
aVIGNITE-1588
p7555
aVIGNITE-1587
p7556
aVIGNITE-1586
p7557
aVIGNITE-1585
p7558
aVIGNITE-1584
p7559
aVIGNITE-1583
p7560
aVIGNITE-1582
p7561
aVIGNITE-1581
p7562
aVIGNITE-1580
p7563
aVIGNITE-1579
p7564
aVIGNITE-1578
p7565
aVIGNITE-1577
p7566
aVIGNITE-1576
p7567
aVIGNITE-1575
p7568
aVIGNITE-1574
p7569
aVIGNITE-1573
p7570
aVIGNITE-1572
p7571
aVIGNITE-1571
p7572
aVIGNITE-1570
p7573
aVIGNITE-1569
p7574
aVIGNITE-1568
p7575
aVIGNITE-1567
p7576
aVIGNITE-1566
p7577
aVIGNITE-1565
p7578
aVIGNITE-1564
p7579
aVIGNITE-1563
p7580
aVIGNITE-1562
p7581
aVIGNITE-1561
p7582
aVIGNITE-1560
p7583
aVIGNITE-1559
p7584
aVIGNITE-1558
p7585
aVIGNITE-1557
p7586
aVIGNITE-1556
p7587
aVIGNITE-1555
p7588
aVIGNITE-1554
p7589
aVIGNITE-1553
p7590
aVIGNITE-1552
p7591
aVIGNITE-1551
p7592
aVIGNITE-1550
p7593
aVIGNITE-1549
p7594
aVIGNITE-1548
p7595
aVIGNITE-1547
p7596
aVIGNITE-1546
p7597
aVIGNITE-1545
p7598
aVIGNITE-1544
p7599
aVIGNITE-1543
p7600
aVIGNITE-1542
p7601
aVIGNITE-1541
p7602
aVIGNITE-1540
p7603
aVIGNITE-1539
p7604
aVIGNITE-1538
p7605
aVIGNITE-1537
p7606
aVIGNITE-1536
p7607
aVIGNITE-1535
p7608
aVIGNITE-1534
p7609
aVIGNITE-1533
p7610
aVIGNITE-1532
p7611
aVIGNITE-1531
p7612
aVIGNITE-1530
p7613
aVIGNITE-1529
p7614
aVIGNITE-1528
p7615
aVIGNITE-1527
p7616
aVIGNITE-1526
p7617
aVIGNITE-1525
p7618
aVIGNITE-1524
p7619
aVIGNITE-1523
p7620
aVIGNITE-1522
p7621
aVIGNITE-1521
p7622
aVIGNITE-1520
p7623
aVIGNITE-1519
p7624
aVIGNITE-1518
p7625
aVIGNITE-1517
p7626
aVIGNITE-1516
p7627
aVIGNITE-1515
p7628
aVIGNITE-1514
p7629
aVIGNITE-1513
p7630
aVIGNITE-1512
p7631
aVIGNITE-1511
p7632
aVIGNITE-1510
p7633
aVIGNITE-1509
p7634
aVIGNITE-1508
p7635
aVIGNITE-1507
p7636
aVIGNITE-1506
p7637
aVIGNITE-1505
p7638
aVIGNITE-1504
p7639
aVIGNITE-1503
p7640
aVIGNITE-1502
p7641
aVIGNITE-1501
p7642
aVIGNITE-1500
p7643
aVIGNITE-1499
p7644
aVIGNITE-1498
p7645
aVIGNITE-1497
p7646
aVIGNITE-1496
p7647
aVIGNITE-1495
p7648
aVIGNITE-1494
p7649
aVIGNITE-1493
p7650
aVIGNITE-1492
p7651
aVIGNITE-1491
p7652
aVIGNITE-1490
p7653
aVIGNITE-1489
p7654
aVIGNITE-1488
p7655
aVIGNITE-1487
p7656
aVIGNITE-1486
p7657
aVIGNITE-1485
p7658
aVIGNITE-1484
p7659
aVIGNITE-1483
p7660
aVIGNITE-1482
p7661
aVIGNITE-1481
p7662
aVIGNITE-1480
p7663
aVIGNITE-1479
p7664
aVIGNITE-1478
p7665
aVIGNITE-1477
p7666
aVIGNITE-1476
p7667
aVIGNITE-1475
p7668
aVIGNITE-1474
p7669
aVIGNITE-1473
p7670
aVIGNITE-1472
p7671
aVIGNITE-1471
p7672
aVIGNITE-1470
p7673
aVIGNITE-1469
p7674
aVIGNITE-1468
p7675
aVIGNITE-1467
p7676
aVIGNITE-1466
p7677
aVIGNITE-1465
p7678
aVIGNITE-1464
p7679
aVIGNITE-1463
p7680
aVIGNITE-1462
p7681
aVIGNITE-1461
p7682
aVIGNITE-1460
p7683
aVIGNITE-1459
p7684
aVIGNITE-1458
p7685
aVIGNITE-1457
p7686
aVIGNITE-1456
p7687
aVIGNITE-1455
p7688
aVIGNITE-1454
p7689
aVIGNITE-1453
p7690
aVIGNITE-1452
p7691
aVIGNITE-1451
p7692
aVIGNITE-1450
p7693
aVIGNITE-1449
p7694
aVIGNITE-1448
p7695
aVIGNITE-1447
p7696
aVIGNITE-1446
p7697
aVIGNITE-1445
p7698
aVIGNITE-1444
p7699
aVIGNITE-1443
p7700
aVIGNITE-1442
p7701
aVIGNITE-1441
p7702
aVIGNITE-1440
p7703
aVIGNITE-1439
p7704
aVIGNITE-1438
p7705
aVIGNITE-1437
p7706
aVIGNITE-1436
p7707
aVIGNITE-1435
p7708
aVIGNITE-1434
p7709
aVIGNITE-1433
p7710
aVIGNITE-1432
p7711
aVIGNITE-1431
p7712
aVIGNITE-1430
p7713
aVIGNITE-1429
p7714
aVIGNITE-1428
p7715
aVIGNITE-1427
p7716
aVIGNITE-1426
p7717
aVIGNITE-1425
p7718
aVIGNITE-1424
p7719
aVIGNITE-1423
p7720
aVIGNITE-1422
p7721
aVIGNITE-1421
p7722
aVIGNITE-1420
p7723
aVIGNITE-1419
p7724
aVIGNITE-1418
p7725
aVIGNITE-1417
p7726
aVIGNITE-1416
p7727
aVIGNITE-1415
p7728
aVIGNITE-1414
p7729
aVIGNITE-1413
p7730
aVIGNITE-1412
p7731
aVIGNITE-1411
p7732
aVIGNITE-1410
p7733
aVIGNITE-1409
p7734
aVIGNITE-1408
p7735
aVIGNITE-1407
p7736
aVIGNITE-1406
p7737
aVIGNITE-1405
p7738
aVIGNITE-1404
p7739
aVIGNITE-1403
p7740
aVIGNITE-1402
p7741
aVIGNITE-1401
p7742
aVIGNITE-1400
p7743
aVIGNITE-1399
p7744
aVIGNITE-1398
p7745
aVIGNITE-1397
p7746
aVIGNITE-1396
p7747
aVIGNITE-1395
p7748
aVIGNITE-1394
p7749
aVIGNITE-1393
p7750
aVIGNITE-1392
p7751
aVIGNITE-1391
p7752
aVIGNITE-1390
p7753
aVIGNITE-1389
p7754
aVIGNITE-1388
p7755
aVIGNITE-1387
p7756
aVIGNITE-1386
p7757
aVIGNITE-1385
p7758
aVIGNITE-1384
p7759
aVIGNITE-1383
p7760
aVIGNITE-1382
p7761
aVIGNITE-1381
p7762
aVIGNITE-1380
p7763
aVIGNITE-1379
p7764
aVIGNITE-1378
p7765
aVIGNITE-1377
p7766
aVIGNITE-1376
p7767
aVIGNITE-1375
p7768
aVIGNITE-1374
p7769
aVIGNITE-1373
p7770
aVIGNITE-1372
p7771
aVIGNITE-1371
p7772
aVIGNITE-1370
p7773
aVIGNITE-1369
p7774
aVIGNITE-1368
p7775
aVIGNITE-1367
p7776
aVIGNITE-1366
p7777
aVIGNITE-1365
p7778
aVIGNITE-1364
p7779
aVIGNITE-1363
p7780
aVIGNITE-1362
p7781
aVIGNITE-1361
p7782
aVIGNITE-1360
p7783
aVIGNITE-1359
p7784
aVIGNITE-1358
p7785
aVIGNITE-1357
p7786
aVIGNITE-1356
p7787
aVIGNITE-1355
p7788
aVIGNITE-1354
p7789
aVIGNITE-1353
p7790
aVIGNITE-1352
p7791
aVIGNITE-1351
p7792
aVIGNITE-1350
p7793
aVIGNITE-1349
p7794
aVIGNITE-1348
p7795
aVIGNITE-1347
p7796
aVIGNITE-1346
p7797
aVIGNITE-1345
p7798
aVIGNITE-1344
p7799
aVIGNITE-1343
p7800
aVIGNITE-1342
p7801
aVIGNITE-1341
p7802
aVIGNITE-1340
p7803
aVIGNITE-1339
p7804
aVIGNITE-1338
p7805
aVIGNITE-1337
p7806
aVIGNITE-1336
p7807
aVIGNITE-1335
p7808
aVIGNITE-1334
p7809
aVIGNITE-1333
p7810
aVIGNITE-1332
p7811
aVIGNITE-1331
p7812
aVIGNITE-1330
p7813
aVIGNITE-1329
p7814
aVIGNITE-1328
p7815
aVIGNITE-1327
p7816
aVIGNITE-1326
p7817
aVIGNITE-1325
p7818
aVIGNITE-1324
p7819
aVIGNITE-1323
p7820
aVIGNITE-1322
p7821
aVIGNITE-1321
p7822
aVIGNITE-1320
p7823
aVIGNITE-1319
p7824
aVIGNITE-1318
p7825
aVIGNITE-1317
p7826
aVIGNITE-1316
p7827
aVIGNITE-1315
p7828
aVIGNITE-1314
p7829
aVIGNITE-1313
p7830
aVIGNITE-1312
p7831
aVIGNITE-1311
p7832
aVIGNITE-1310
p7833
aVIGNITE-1309
p7834
aVIGNITE-1308
p7835
aVIGNITE-1307
p7836
aVIGNITE-1306
p7837
aVIGNITE-1305
p7838
aVIGNITE-1304
p7839
aVIGNITE-1303
p7840
aVIGNITE-1302
p7841
aVIGNITE-1301
p7842
aVIGNITE-1300
p7843
aVIGNITE-1299
p7844
aVIGNITE-1298
p7845
aVIGNITE-1297
p7846
aVIGNITE-1296
p7847
aVIGNITE-1295
p7848
aVIGNITE-1294
p7849
aVIGNITE-1293
p7850
aVIGNITE-1292
p7851
aVIGNITE-1291
p7852
aVIGNITE-1290
p7853
aVIGNITE-1289
p7854
aVIGNITE-1288
p7855
aVIGNITE-1287
p7856
aVIGNITE-1286
p7857
aVIGNITE-1285
p7858
aVIGNITE-1284
p7859
aVIGNITE-1283
p7860
aVIGNITE-1282
p7861
aVIGNITE-1281
p7862
aVIGNITE-1280
p7863
aVIGNITE-1279
p7864
aVIGNITE-1278
p7865
aVIGNITE-1277
p7866
aVIGNITE-1276
p7867
aVIGNITE-1275
p7868
aVIGNITE-1274
p7869
aVIGNITE-1273
p7870
aVIGNITE-1272
p7871
aVIGNITE-1271
p7872
aVIGNITE-1270
p7873
aVIGNITE-1269
p7874
aVIGNITE-1268
p7875
aVIGNITE-1267
p7876
aVIGNITE-1266
p7877
aVIGNITE-1265
p7878
aVIGNITE-1264
p7879
aVIGNITE-1263
p7880
aVIGNITE-1262
p7881
aVIGNITE-1261
p7882
aVIGNITE-1260
p7883
aVIGNITE-1259
p7884
aVIGNITE-1258
p7885
aVIGNITE-1257
p7886
aVIGNITE-1256
p7887
aVIGNITE-1255
p7888
aVIGNITE-1254
p7889
aVIGNITE-1253
p7890
aVIGNITE-1252
p7891
aVIGNITE-1251
p7892
aVIGNITE-1250
p7893
aVIGNITE-1249
p7894
aVIGNITE-1248
p7895
aVIGNITE-1247
p7896
aVIGNITE-1246
p7897
aVIGNITE-1245
p7898
aVIGNITE-1244
p7899
aVIGNITE-1243
p7900
aVIGNITE-1242
p7901
aVIGNITE-1241
p7902
aVIGNITE-1240
p7903
aVIGNITE-1239
p7904
aVIGNITE-1238
p7905
aVIGNITE-1237
p7906
aVIGNITE-1236
p7907
aVIGNITE-1235
p7908
aVIGNITE-1234
p7909
aVIGNITE-1233
p7910
aVIGNITE-1232
p7911
aVIGNITE-1231
p7912
aVIGNITE-1230
p7913
aVIGNITE-1229
p7914
aVIGNITE-1228
p7915
aVIGNITE-1227
p7916
aVIGNITE-1226
p7917
aVIGNITE-1225
p7918
aVIGNITE-1224
p7919
aVIGNITE-1223
p7920
aVIGNITE-1222
p7921
aVIGNITE-1221
p7922
aVIGNITE-1220
p7923
aVIGNITE-1219
p7924
aVIGNITE-1218
p7925
aVIGNITE-1217
p7926
aVIGNITE-1216
p7927
aVIGNITE-1215
p7928
aVIGNITE-1214
p7929
aVIGNITE-1213
p7930
aVIGNITE-1212
p7931
aVIGNITE-1211
p7932
aVIGNITE-1210
p7933
aVIGNITE-1209
p7934
aVIGNITE-1208
p7935
aVIGNITE-1207
p7936
aVIGNITE-1206
p7937
aVIGNITE-1205
p7938
aVIGNITE-1204
p7939
aVIGNITE-1203
p7940
aVIGNITE-1202
p7941
aVIGNITE-1201
p7942
aVIGNITE-1200
p7943
aVIGNITE-1199
p7944
aVIGNITE-1198
p7945
aVIGNITE-1197
p7946
aVIGNITE-1196
p7947
aVIGNITE-1195
p7948
aVIGNITE-1194
p7949
aVIGNITE-1193
p7950
aVIGNITE-1192
p7951
aVIGNITE-1191
p7952
aVIGNITE-1190
p7953
aVIGNITE-1189
p7954
aVIGNITE-1188
p7955
aVIGNITE-1187
p7956
aVIGNITE-1186
p7957
aVIGNITE-1185
p7958
aVIGNITE-1184
p7959
aVIGNITE-1183
p7960
aVIGNITE-1182
p7961
aVIGNITE-1181
p7962
aVIGNITE-1180
p7963
aVIGNITE-1179
p7964
aVIGNITE-1178
p7965
aVIGNITE-1177
p7966
aVIGNITE-1176
p7967
aVIGNITE-1175
p7968
aVIGNITE-1174
p7969
aVIGNITE-1173
p7970
aVIGNITE-1172
p7971
aVIGNITE-1171
p7972
aVIGNITE-1170
p7973
aVIGNITE-1169
p7974
aVIGNITE-1168
p7975
aVIGNITE-1167
p7976
aVIGNITE-1166
p7977
aVIGNITE-1165
p7978
aVIGNITE-1164
p7979
aVIGNITE-1163
p7980
aVIGNITE-1162
p7981
aVIGNITE-1161
p7982
aVIGNITE-1160
p7983
aVIGNITE-1159
p7984
aVIGNITE-1158
p7985
aVIGNITE-1157
p7986
aVIGNITE-1156
p7987
aVIGNITE-1155
p7988
aVIGNITE-1154
p7989
aVIGNITE-1153
p7990
aVIGNITE-1152
p7991
aVIGNITE-1151
p7992
aVIGNITE-1150
p7993
aVIGNITE-1149
p7994
aVIGNITE-1148
p7995
aVIGNITE-1147
p7996
aVIGNITE-1146
p7997
aVIGNITE-1145
p7998
aVIGNITE-1144
p7999
aVIGNITE-1143
p8000
aVIGNITE-1142
p8001
aVIGNITE-1141
p8002
aVIGNITE-1140
p8003
aVIGNITE-1139
p8004
aVIGNITE-1138
p8005
aVIGNITE-1137
p8006
aVIGNITE-1136
p8007
aVIGNITE-1135
p8008
aVIGNITE-1134
p8009
aVIGNITE-1133
p8010
aVIGNITE-1132
p8011
aVIGNITE-1131
p8012
aVIGNITE-1130
p8013
aVIGNITE-1129
p8014
aVIGNITE-1128
p8015
aVIGNITE-1127
p8016
aVIGNITE-1126
p8017
aVIGNITE-1125
p8018
aVIGNITE-1124
p8019
aVIGNITE-1123
p8020
aVIGNITE-1122
p8021
aVIGNITE-1121
p8022
aVIGNITE-1120
p8023
aVIGNITE-1119
p8024
aVIGNITE-1118
p8025
aVIGNITE-1117
p8026
aVIGNITE-1116
p8027
aVIGNITE-1115
p8028
aVIGNITE-1114
p8029
aVIGNITE-1113
p8030
aVIGNITE-1112
p8031
aVIGNITE-1111
p8032
aVIGNITE-1110
p8033
aVIGNITE-1109
p8034
aVIGNITE-1108
p8035
aVIGNITE-1107
p8036
aVIGNITE-1106
p8037
aVIGNITE-1105
p8038
aVIGNITE-1104
p8039
aVIGNITE-1103
p8040
aVIGNITE-1102
p8041
aVIGNITE-1101
p8042
aVIGNITE-1100
p8043
aVIGNITE-1099
p8044
aVIGNITE-1098
p8045
aVIGNITE-1097
p8046
aVIGNITE-1096
p8047
aVIGNITE-1095
p8048
aVIGNITE-1094
p8049
aVIGNITE-1093
p8050
aVIGNITE-1092
p8051
aVIGNITE-1091
p8052
aVIGNITE-1090
p8053
aVIGNITE-1089
p8054
aVIGNITE-1088
p8055
aVIGNITE-1087
p8056
aVIGNITE-1086
p8057
aVIGNITE-1085
p8058
aVIGNITE-1084
p8059
aVIGNITE-1083
p8060
aVIGNITE-1082
p8061
aVIGNITE-1081
p8062
aVIGNITE-1080
p8063
aVIGNITE-1079
p8064
aVIGNITE-1078
p8065
aVIGNITE-1077
p8066
aVIGNITE-1076
p8067
aVIGNITE-1075
p8068
aVIGNITE-1074
p8069
aVIGNITE-1073
p8070
aVIGNITE-1072
p8071
aVIGNITE-1071
p8072
aVIGNITE-1070
p8073
aVIGNITE-1069
p8074
aVIGNITE-1068
p8075
aVIGNITE-1067
p8076
aVIGNITE-1066
p8077
aVIGNITE-1065
p8078
aVIGNITE-1064
p8079
aVIGNITE-1063
p8080
aVIGNITE-1062
p8081
aVIGNITE-1061
p8082
aVIGNITE-1060
p8083
aVIGNITE-1059
p8084
aVIGNITE-1058
p8085
aVIGNITE-1057
p8086
aVIGNITE-1056
p8087
aVIGNITE-1055
p8088
aVIGNITE-1054
p8089
aVIGNITE-1053
p8090
aVIGNITE-1052
p8091
aVIGNITE-1051
p8092
aVIGNITE-1050
p8093
aVIGNITE-1049
p8094
aVIGNITE-1048
p8095
aVIGNITE-1047
p8096
aVIGNITE-1046
p8097
aVIGNITE-1045
p8098
aVIGNITE-1044
p8099
aVIGNITE-1043
p8100
aVIGNITE-1042
p8101
aVIGNITE-1041
p8102
aVIGNITE-1040
p8103
aVIGNITE-1039
p8104
aVIGNITE-1038
p8105
aVIGNITE-1037
p8106
aVIGNITE-1036
p8107
aVIGNITE-1035
p8108
aVIGNITE-1034
p8109
aVIGNITE-1033
p8110
aVIGNITE-1032
p8111
aVIGNITE-1031
p8112
aVIGNITE-1030
p8113
aVIGNITE-1029
p8114
aVIGNITE-1028
p8115
aVIGNITE-1027
p8116
aVIGNITE-1026
p8117
aVIGNITE-1025
p8118
aVIGNITE-1024
p8119
aVIGNITE-1023
p8120
aVIGNITE-1022
p8121
aVIGNITE-1021
p8122
aVIGNITE-1020
p8123
aVIGNITE-1019
p8124
aVIGNITE-1018
p8125
aVIGNITE-1017
p8126
aVIGNITE-1016
p8127
aVIGNITE-1015
p8128
aVIGNITE-1014
p8129
aVIGNITE-1013
p8130
aVIGNITE-1012
p8131
aVIGNITE-1011
p8132
aVIGNITE-1010
p8133
aVIGNITE-1009
p8134
aVIGNITE-1008
p8135
aVIGNITE-1007
p8136
aVIGNITE-1006
p8137
aVIGNITE-1005
p8138
aVIGNITE-1004
p8139
aVIGNITE-1003
p8140
aVIGNITE-1002
p8141
aVIGNITE-1001
p8142
aVIGNITE-1000
p8143
aVIGNITE-999
p8144
aVIGNITE-998
p8145
aVIGNITE-997
p8146
aVIGNITE-996
p8147
aVIGNITE-995
p8148
aVIGNITE-994
p8149
aVIGNITE-993
p8150
aVIGNITE-992
p8151
aVIGNITE-991
p8152
aVIGNITE-990
p8153
aVIGNITE-989
p8154
aVIGNITE-988
p8155
aVIGNITE-987
p8156
aVIGNITE-986
p8157
aVIGNITE-985
p8158
aVIGNITE-984
p8159
aVIGNITE-983
p8160
aVIGNITE-982
p8161
aVIGNITE-981
p8162
aVIGNITE-980
p8163
aVIGNITE-979
p8164
aVIGNITE-978
p8165
aVIGNITE-977
p8166
aVIGNITE-976
p8167
aVIGNITE-975
p8168
aVIGNITE-974
p8169
aVIGNITE-973
p8170
aVIGNITE-972
p8171
aVIGNITE-971
p8172
aVIGNITE-970
p8173
aVIGNITE-969
p8174
aVIGNITE-968
p8175
aVIGNITE-967
p8176
aVIGNITE-966
p8177
aVIGNITE-965
p8178
aVIGNITE-964
p8179
aVIGNITE-963
p8180
aVIGNITE-962
p8181
aVIGNITE-961
p8182
aVIGNITE-960
p8183
aVIGNITE-959
p8184
aVIGNITE-958
p8185
aVIGNITE-957
p8186
aVIGNITE-956
p8187
aVIGNITE-955
p8188
aVIGNITE-954
p8189
aVIGNITE-953
p8190
aVIGNITE-952
p8191
aVIGNITE-951
p8192
aVIGNITE-950
p8193
aVIGNITE-949
p8194
aVIGNITE-948
p8195
aVIGNITE-947
p8196
aVIGNITE-946
p8197
aVIGNITE-945
p8198
aVIGNITE-944
p8199
aVIGNITE-943
p8200
aVIGNITE-942
p8201
aVIGNITE-941
p8202
aVIGNITE-940
p8203
aVIGNITE-939
p8204
aVIGNITE-938
p8205
aVIGNITE-937
p8206
aVIGNITE-936
p8207
aVIGNITE-935
p8208
aVIGNITE-934
p8209
aVIGNITE-933
p8210
aVIGNITE-932
p8211
aVIGNITE-931
p8212
aVIGNITE-930
p8213
aVIGNITE-929
p8214
aVIGNITE-928
p8215
aVIGNITE-927
p8216
aVIGNITE-926
p8217
aVIGNITE-925
p8218
aVIGNITE-924
p8219
aVIGNITE-923
p8220
aVIGNITE-922
p8221
aVIGNITE-921
p8222
aVIGNITE-920
p8223
aVIGNITE-919
p8224
aVIGNITE-918
p8225
aVIGNITE-917
p8226
aVIGNITE-916
p8227
aVIGNITE-915
p8228
aVIGNITE-914
p8229
aVIGNITE-913
p8230
aVIGNITE-912
p8231
aVIGNITE-911
p8232
aVIGNITE-910
p8233
aVIGNITE-909
p8234
aVIGNITE-908
p8235
aVIGNITE-907
p8236
aVIGNITE-906
p8237
aVIGNITE-905
p8238
aVIGNITE-904
p8239
aVIGNITE-903
p8240
aVIGNITE-902
p8241
aVIGNITE-901
p8242
aVIGNITE-900
p8243
aVIGNITE-899
p8244
aVIGNITE-898
p8245
aVIGNITE-897
p8246
aVIGNITE-896
p8247
aVIGNITE-895
p8248
aVIGNITE-894
p8249
aVIGNITE-893
p8250
aVIGNITE-892
p8251
aVIGNITE-891
p8252
aVIGNITE-890
p8253
aVIGNITE-889
p8254
aVIGNITE-888
p8255
aVIGNITE-887
p8256
aVIGNITE-886
p8257
aVIGNITE-885
p8258
aVIGNITE-884
p8259
aVIGNITE-883
p8260
aVIGNITE-882
p8261
aVIGNITE-881
p8262
aVIGNITE-880
p8263
aVIGNITE-879
p8264
aVIGNITE-878
p8265
aVIGNITE-877
p8266
aVIGNITE-876
p8267
aVIGNITE-875
p8268
aVIGNITE-874
p8269
aVIGNITE-873
p8270
aVIGNITE-872
p8271
aVIGNITE-871
p8272
aVIGNITE-870
p8273
aVIGNITE-869
p8274
aVIGNITE-868
p8275
aVIGNITE-867
p8276
aVIGNITE-866
p8277
aVIGNITE-865
p8278
aVIGNITE-864
p8279
aVIGNITE-863
p8280
aVIGNITE-862
p8281
aVIGNITE-861
p8282
aVIGNITE-860
p8283
aVIGNITE-859
p8284
aVIGNITE-858
p8285
aVIGNITE-857
p8286
aVIGNITE-856
p8287
aVIGNITE-855
p8288
aVIGNITE-854
p8289
aVIGNITE-853
p8290
aVIGNITE-852
p8291
aVIGNITE-851
p8292
aVIGNITE-850
p8293
aVIGNITE-849
p8294
aVIGNITE-848
p8295
aVIGNITE-847
p8296
aVIGNITE-846
p8297
aVIGNITE-845
p8298
aVIGNITE-844
p8299
aVIGNITE-843
p8300
aVIGNITE-842
p8301
aVIGNITE-841
p8302
aVIGNITE-840
p8303
aVIGNITE-839
p8304
aVIGNITE-838
p8305
aVIGNITE-837
p8306
aVIGNITE-836
p8307
aVIGNITE-835
p8308
aVIGNITE-834
p8309
aVIGNITE-833
p8310
aVIGNITE-832
p8311
aVIGNITE-831
p8312
aVIGNITE-830
p8313
aVIGNITE-829
p8314
aVIGNITE-828
p8315
aVIGNITE-827
p8316
aVIGNITE-826
p8317
aVIGNITE-825
p8318
aVIGNITE-824
p8319
aVIGNITE-823
p8320
aVIGNITE-822
p8321
aVIGNITE-821
p8322
aVIGNITE-820
p8323
aVIGNITE-819
p8324
aVIGNITE-818
p8325
aVIGNITE-817
p8326
aVIGNITE-816
p8327
aVIGNITE-815
p8328
aVIGNITE-814
p8329
aVIGNITE-813
p8330
aVIGNITE-812
p8331
aVIGNITE-811
p8332
aVIGNITE-810
p8333
aVIGNITE-809
p8334
aVIGNITE-808
p8335
aVIGNITE-807
p8336
aVIGNITE-806
p8337
aVIGNITE-805
p8338
aVIGNITE-804
p8339
aVIGNITE-803
p8340
aVIGNITE-802
p8341
aVIGNITE-801
p8342
aVIGNITE-800
p8343
aVIGNITE-799
p8344
aVIGNITE-798
p8345
aVIGNITE-797
p8346
aVIGNITE-796
p8347
aVIGNITE-795
p8348
aVIGNITE-794
p8349
aVIGNITE-793
p8350
aVIGNITE-792
p8351
aVIGNITE-791
p8352
aVIGNITE-790
p8353
aVIGNITE-789
p8354
aVIGNITE-788
p8355
aVIGNITE-787
p8356
aVIGNITE-786
p8357
aVIGNITE-785
p8358
aVIGNITE-784
p8359
aVIGNITE-783
p8360
aVIGNITE-782
p8361
aVIGNITE-781
p8362
aVIGNITE-780
p8363
aVIGNITE-779
p8364
aVIGNITE-778
p8365
aVIGNITE-777
p8366
aVIGNITE-776
p8367
aVIGNITE-775
p8368
aVIGNITE-774
p8369
aVIGNITE-773
p8370
aVIGNITE-772
p8371
aVIGNITE-771
p8372
aVIGNITE-770
p8373
aVIGNITE-769
p8374
aVIGNITE-768
p8375
aVIGNITE-767
p8376
aVIGNITE-766
p8377
aVIGNITE-765
p8378
aVIGNITE-764
p8379
aVIGNITE-763
p8380
aVIGNITE-762
p8381
aVIGNITE-761
p8382
aVIGNITE-760
p8383
aVIGNITE-759
p8384
aVIGNITE-758
p8385
aVIGNITE-757
p8386
aVIGNITE-756
p8387
aVIGNITE-755
p8388
aVIGNITE-754
p8389
aVIGNITE-753
p8390
aVIGNITE-752
p8391
aVIGNITE-751
p8392
aVIGNITE-750
p8393
aVIGNITE-749
p8394
aVIGNITE-748
p8395
aVIGNITE-747
p8396
aVIGNITE-746
p8397
aVIGNITE-745
p8398
aVIGNITE-744
p8399
aVIGNITE-743
p8400
aVIGNITE-742
p8401
aVIGNITE-741
p8402
aVIGNITE-740
p8403
aVIGNITE-739
p8404
aVIGNITE-738
p8405
aVIGNITE-737
p8406
aVIGNITE-736
p8407
aVIGNITE-735
p8408
aVIGNITE-734
p8409
aVIGNITE-733
p8410
aVIGNITE-732
p8411
aVIGNITE-731
p8412
aVIGNITE-730
p8413
aVIGNITE-729
p8414
aVIGNITE-728
p8415
aVIGNITE-727
p8416
aVIGNITE-726
p8417
aVIGNITE-725
p8418
aVIGNITE-724
p8419
aVIGNITE-723
p8420
aVIGNITE-722
p8421
aVIGNITE-721
p8422
aVIGNITE-720
p8423
aVIGNITE-719
p8424
aVIGNITE-718
p8425
aVIGNITE-717
p8426
aVIGNITE-716
p8427
aVIGNITE-715
p8428
aVIGNITE-714
p8429
aVIGNITE-713
p8430
aVIGNITE-712
p8431
aVIGNITE-711
p8432
aVIGNITE-710
p8433
aVIGNITE-709
p8434
aVIGNITE-708
p8435
aVIGNITE-707
p8436
aVIGNITE-706
p8437
aVIGNITE-705
p8438
aVIGNITE-704
p8439
aVIGNITE-703
p8440
aVIGNITE-702
p8441
aVIGNITE-701
p8442
aVIGNITE-700
p8443
aVIGNITE-699
p8444
aVIGNITE-698
p8445
aVIGNITE-697
p8446
aVIGNITE-696
p8447
aVIGNITE-695
p8448
aVIGNITE-694
p8449
aVIGNITE-693
p8450
aVIGNITE-692
p8451
aVIGNITE-691
p8452
aVIGNITE-690
p8453
aVIGNITE-689
p8454
aVIGNITE-688
p8455
aVIGNITE-687
p8456
aVIGNITE-686
p8457
aVIGNITE-685
p8458
aVIGNITE-684
p8459
aVIGNITE-683
p8460
aVIGNITE-682
p8461
aVIGNITE-681
p8462
aVIGNITE-680
p8463
aVIGNITE-679
p8464
aVIGNITE-678
p8465
aVIGNITE-677
p8466
aVIGNITE-676
p8467
aVIGNITE-675
p8468
aVIGNITE-674
p8469
aVIGNITE-673
p8470
aVIGNITE-672
p8471
aVIGNITE-671
p8472
aVIGNITE-670
p8473
aVIGNITE-669
p8474
aVIGNITE-668
p8475
aVIGNITE-667
p8476
aVIGNITE-666
p8477
aVIGNITE-665
p8478
aVIGNITE-664
p8479
aVIGNITE-663
p8480
aVIGNITE-662
p8481
aVIGNITE-661
p8482
aVIGNITE-660
p8483
aVIGNITE-659
p8484
aVIGNITE-658
p8485
aVIGNITE-657
p8486
aVIGNITE-656
p8487
aVIGNITE-655
p8488
aVIGNITE-654
p8489
aVIGNITE-653
p8490
aVIGNITE-652
p8491
aVIGNITE-651
p8492
aVIGNITE-650
p8493
aVIGNITE-649
p8494
aVIGNITE-648
p8495
aVIGNITE-647
p8496
aVIGNITE-646
p8497
aVIGNITE-645
p8498
aVIGNITE-644
p8499
aVIGNITE-643
p8500
aVIGNITE-642
p8501
aVIGNITE-641
p8502
aVIGNITE-640
p8503
aVIGNITE-639
p8504
aVIGNITE-638
p8505
aVIGNITE-637
p8506
aVIGNITE-636
p8507
aVIGNITE-635
p8508
aVIGNITE-634
p8509
aVIGNITE-633
p8510
aVIGNITE-632
p8511
aVIGNITE-631
p8512
aVIGNITE-630
p8513
aVIGNITE-629
p8514
aVIGNITE-628
p8515
aVIGNITE-627
p8516
aVIGNITE-626
p8517
aVIGNITE-625
p8518
aVIGNITE-624
p8519
aVIGNITE-623
p8520
aVIGNITE-622
p8521
aVIGNITE-621
p8522
aVIGNITE-620
p8523
aVIGNITE-619
p8524
aVIGNITE-618
p8525
aVIGNITE-617
p8526
aVIGNITE-616
p8527
aVIGNITE-615
p8528
aVIGNITE-614
p8529
aVIGNITE-613
p8530
aVIGNITE-612
p8531
aVIGNITE-611
p8532
aVIGNITE-610
p8533
aVIGNITE-609
p8534
aVIGNITE-608
p8535
aVIGNITE-607
p8536
aVIGNITE-606
p8537
aVIGNITE-605
p8538
aVIGNITE-604
p8539
aVIGNITE-603
p8540
aVIGNITE-602
p8541
aVIGNITE-601
p8542
aVIGNITE-600
p8543
aVIGNITE-599
p8544
aVIGNITE-598
p8545
aVIGNITE-597
p8546
aVIGNITE-596
p8547
aVIGNITE-595
p8548
aVIGNITE-594
p8549
aVIGNITE-593
p8550
aVIGNITE-592
p8551
aVIGNITE-591
p8552
aVIGNITE-590
p8553
aVIGNITE-589
p8554
aVIGNITE-588
p8555
aVIGNITE-587
p8556
aVIGNITE-586
p8557
aVIGNITE-585
p8558
aVIGNITE-584
p8559
aVIGNITE-583
p8560
aVIGNITE-582
p8561
aVIGNITE-581
p8562
aVIGNITE-580
p8563
aVIGNITE-579
p8564
aVIGNITE-578
p8565
aVIGNITE-577
p8566
aVIGNITE-576
p8567
aVIGNITE-575
p8568
aVIGNITE-574
p8569
aVIGNITE-573
p8570
aVIGNITE-572
p8571
aVIGNITE-571
p8572
aVIGNITE-570
p8573
aVIGNITE-569
p8574
aVIGNITE-568
p8575
aVIGNITE-567
p8576
aVIGNITE-566
p8577
aVIGNITE-565
p8578
aVIGNITE-564
p8579
aVIGNITE-563
p8580
aVIGNITE-562
p8581
aVIGNITE-561
p8582
aVIGNITE-560
p8583
aVIGNITE-559
p8584
aVIGNITE-558
p8585
aVIGNITE-557
p8586
aVIGNITE-556
p8587
aVIGNITE-555
p8588
aVIGNITE-554
p8589
aVIGNITE-553
p8590
aVIGNITE-552
p8591
aVIGNITE-551
p8592
aVIGNITE-550
p8593
aVIGNITE-549
p8594
aVIGNITE-548
p8595
aVIGNITE-547
p8596
aVIGNITE-546
p8597
aVIGNITE-545
p8598
aVIGNITE-544
p8599
aVIGNITE-543
p8600
aVIGNITE-542
p8601
aVIGNITE-541
p8602
aVIGNITE-540
p8603
aVIGNITE-539
p8604
aVIGNITE-538
p8605
aVIGNITE-537
p8606
aVIGNITE-536
p8607
aVIGNITE-535
p8608
aVIGNITE-534
p8609
aVIGNITE-533
p8610
aVIGNITE-532
p8611
aVIGNITE-531
p8612
aVIGNITE-530
p8613
aVIGNITE-529
p8614
aVIGNITE-528
p8615
aVIGNITE-527
p8616
aVIGNITE-526
p8617
aVIGNITE-525
p8618
aVIGNITE-524
p8619
aVIGNITE-523
p8620
aVIGNITE-522
p8621
aVIGNITE-521
p8622
aVIGNITE-520
p8623
aVIGNITE-519
p8624
aVIGNITE-518
p8625
aVIGNITE-517
p8626
aVIGNITE-516
p8627
aVIGNITE-515
p8628
aVIGNITE-514
p8629
aVIGNITE-513
p8630
aVIGNITE-512
p8631
aVIGNITE-511
p8632
aVIGNITE-510
p8633
aVIGNITE-509
p8634
aVIGNITE-508
p8635
aVIGNITE-507
p8636
aVIGNITE-506
p8637
aVIGNITE-505
p8638
aVIGNITE-504
p8639
aVIGNITE-502
p8640
aVIGNITE-501
p8641
aVIGNITE-500
p8642
aVIGNITE-499
p8643
aVIGNITE-498
p8644
aVIGNITE-497
p8645
aVIGNITE-496
p8646
aVIGNITE-495
p8647
aVIGNITE-494
p8648
aVIGNITE-493
p8649
aVIGNITE-492
p8650
aVIGNITE-491
p8651
aVIGNITE-490
p8652
aVIGNITE-489
p8653
aVIGNITE-488
p8654
aVIGNITE-487
p8655
aVIGNITE-486
p8656
aVIGNITE-485
p8657
aVIGNITE-484
p8658
aVIGNITE-483
p8659
aVIGNITE-482
p8660
aVIGNITE-481
p8661
aVIGNITE-480
p8662
aVIGNITE-479
p8663
aVIGNITE-478
p8664
aVIGNITE-477
p8665
aVIGNITE-476
p8666
aVIGNITE-475
p8667
aVIGNITE-474
p8668
aVIGNITE-473
p8669
aVIGNITE-472
p8670
aVIGNITE-471
p8671
aVIGNITE-470
p8672
aVIGNITE-469
p8673
aVIGNITE-468
p8674
aVIGNITE-467
p8675
aVIGNITE-466
p8676
aVIGNITE-465
p8677
aVIGNITE-464
p8678
aVIGNITE-463
p8679
aVIGNITE-462
p8680
aVIGNITE-461
p8681
aVIGNITE-460
p8682
aVIGNITE-459
p8683
aVIGNITE-458
p8684
aVIGNITE-457
p8685
aVIGNITE-456
p8686
aVIGNITE-455
p8687
aVIGNITE-454
p8688
aVIGNITE-453
p8689
aVIGNITE-452
p8690
aVIGNITE-451
p8691
aVIGNITE-450
p8692
aVIGNITE-449
p8693
aVIGNITE-448
p8694
aVIGNITE-447
p8695
aVIGNITE-446
p8696
aVIGNITE-445
p8697
aVIGNITE-444
p8698
aVIGNITE-443
p8699
aVIGNITE-442
p8700
aVIGNITE-441
p8701
aVIGNITE-440
p8702
aVIGNITE-439
p8703
aVIGNITE-438
p8704
aVIGNITE-437
p8705
aVIGNITE-436
p8706
aVIGNITE-435
p8707
aVIGNITE-434
p8708
aVIGNITE-433
p8709
aVIGNITE-432
p8710
aVIGNITE-431
p8711
aVIGNITE-430
p8712
aVIGNITE-429
p8713
aVIGNITE-428
p8714
aVIGNITE-427
p8715
aVIGNITE-426
p8716
aVIGNITE-425
p8717
aVIGNITE-424
p8718
aVIGNITE-423
p8719
aVIGNITE-422
p8720
aVIGNITE-421
p8721
aVIGNITE-420
p8722
aVIGNITE-419
p8723
aVIGNITE-418
p8724
aVIGNITE-417
p8725
aVIGNITE-416
p8726
aVIGNITE-415
p8727
aVIGNITE-414
p8728
aVIGNITE-413
p8729
aVIGNITE-412
p8730
aVIGNITE-411
p8731
aVIGNITE-410
p8732
aVIGNITE-409
p8733
aVIGNITE-408
p8734
aVIGNITE-407
p8735
aVIGNITE-406
p8736
aVIGNITE-405
p8737
aVIGNITE-404
p8738
aVIGNITE-403
p8739
aVIGNITE-402
p8740
aVIGNITE-401
p8741
aVIGNITE-400
p8742
aVIGNITE-399
p8743
aVIGNITE-398
p8744
aVIGNITE-397
p8745
aVIGNITE-396
p8746
aVIGNITE-395
p8747
aVIGNITE-394
p8748
aVIGNITE-393
p8749
aVIGNITE-392
p8750
aVIGNITE-391
p8751
aVIGNITE-390
p8752
aVIGNITE-389
p8753
aVIGNITE-388
p8754
aVIGNITE-387
p8755
aVIGNITE-386
p8756
aVIGNITE-385
p8757
aVIGNITE-384
p8758
aVIGNITE-383
p8759
aVIGNITE-382
p8760
aVIGNITE-381
p8761
aVIGNITE-380
p8762
aVIGNITE-379
p8763
aVIGNITE-378
p8764
aVIGNITE-377
p8765
aVIGNITE-376
p8766
aVIGNITE-375
p8767
aVIGNITE-374
p8768
aVIGNITE-373
p8769
aVIGNITE-372
p8770
aVIGNITE-371
p8771
aVIGNITE-370
p8772
aVIGNITE-369
p8773
aVIGNITE-368
p8774
aVIGNITE-367
p8775
aVIGNITE-366
p8776
aVIGNITE-365
p8777
aVIGNITE-364
p8778
aVIGNITE-363
p8779
aVIGNITE-362
p8780
aVIGNITE-361
p8781
aVIGNITE-360
p8782
aVIGNITE-359
p8783
aVIGNITE-358
p8784
aVIGNITE-357
p8785
aVIGNITE-356
p8786
aVIGNITE-355
p8787
aVIGNITE-354
p8788
aVIGNITE-353
p8789
aVIGNITE-352
p8790
aVIGNITE-351
p8791
aVIGNITE-350
p8792
aVIGNITE-349
p8793
aVIGNITE-348
p8794
aVIGNITE-347
p8795
aVIGNITE-346
p8796
aVIGNITE-345
p8797
aVIGNITE-344
p8798
aVIGNITE-343
p8799
aVIGNITE-342
p8800
aVIGNITE-341
p8801
aVIGNITE-340
p8802
aVIGNITE-339
p8803
aVIGNITE-338
p8804
aVIGNITE-337
p8805
aVIGNITE-336
p8806
aVIGNITE-335
p8807
aVIGNITE-334
p8808
aVIGNITE-333
p8809
aVIGNITE-332
p8810
aVIGNITE-331
p8811
aVIGNITE-330
p8812
aVIGNITE-329
p8813
aVIGNITE-328
p8814
aVIGNITE-327
p8815
aVIGNITE-326
p8816
aVIGNITE-325
p8817
aVIGNITE-324
p8818
aVIGNITE-323
p8819
aVIGNITE-322
p8820
aVIGNITE-321
p8821
aVIGNITE-320
p8822
aVIGNITE-319
p8823
aVIGNITE-318
p8824
aVIGNITE-317
p8825
aVIGNITE-316
p8826
aVIGNITE-315
p8827
aVIGNITE-314
p8828
aVIGNITE-313
p8829
aVIGNITE-312
p8830
aVIGNITE-311
p8831
aVIGNITE-310
p8832
aVIGNITE-309
p8833
aVIGNITE-308
p8834
aVIGNITE-307
p8835
aVIGNITE-306
p8836
aVIGNITE-305
p8837
aVIGNITE-304
p8838
aVIGNITE-303
p8839
aVIGNITE-302
p8840
aVIGNITE-301
p8841
aVIGNITE-300
p8842
aVIGNITE-299
p8843
aVIGNITE-298
p8844
aVIGNITE-297
p8845
aVIGNITE-296
p8846
aVIGNITE-295
p8847
aVIGNITE-294
p8848
aVIGNITE-293
p8849
aVIGNITE-292
p8850
aVIGNITE-291
p8851
aVIGNITE-290
p8852
aVIGNITE-289
p8853
aVIGNITE-288
p8854
aVIGNITE-287
p8855
aVIGNITE-286
p8856
aVIGNITE-285
p8857
aVIGNITE-284
p8858
aVIGNITE-283
p8859
aVIGNITE-282
p8860
aVIGNITE-281
p8861
aVIGNITE-280
p8862
aVIGNITE-279
p8863
aVIGNITE-278
p8864
aVIGNITE-277
p8865
aVIGNITE-276
p8866
aVIGNITE-275
p8867
aVIGNITE-274
p8868
aVIGNITE-273
p8869
aVIGNITE-272
p8870
aVIGNITE-271
p8871
aVIGNITE-270
p8872
aVIGNITE-269
p8873
aVIGNITE-268
p8874
aVIGNITE-267
p8875
aVIGNITE-266
p8876
aVIGNITE-265
p8877
aVIGNITE-264
p8878
aVIGNITE-263
p8879
aVIGNITE-262
p8880
aVIGNITE-261
p8881
aVIGNITE-260
p8882
aVIGNITE-259
p8883
aVIGNITE-258
p8884
aVIGNITE-257
p8885
aVIGNITE-256
p8886
aVIGNITE-255
p8887
aVIGNITE-254
p8888
aVIGNITE-253
p8889
aVIGNITE-252
p8890
aVIGNITE-251
p8891
aVIGNITE-250
p8892
aVIGNITE-249
p8893
aVIGNITE-248
p8894
aVIGNITE-247
p8895
aVIGNITE-246
p8896
aVIGNITE-245
p8897
aVIGNITE-244
p8898
aVIGNITE-243
p8899
aVIGNITE-242
p8900
aVIGNITE-241
p8901
aVIGNITE-240
p8902
aVIGNITE-239
p8903
aVIGNITE-238
p8904
aVIGNITE-237
p8905
aVIGNITE-236
p8906
aVIGNITE-235
p8907
aVIGNITE-234
p8908
aVIGNITE-233
p8909
aVIGNITE-232
p8910
aVIGNITE-231
p8911
aVIGNITE-230
p8912
aVIGNITE-229
p8913
aVIGNITE-228
p8914
aVIGNITE-227
p8915
aVIGNITE-226
p8916
aVIGNITE-225
p8917
aVIGNITE-224
p8918
aVIGNITE-223
p8919
aVIGNITE-222
p8920
aVIGNITE-221
p8921
aVIGNITE-220
p8922
aVIGNITE-219
p8923
aVIGNITE-218
p8924
aVIGNITE-217
p8925
aVIGNITE-216
p8926
aVIGNITE-215
p8927
aVIGNITE-214
p8928
aVIGNITE-213
p8929
aVIGNITE-212
p8930
aVIGNITE-211
p8931
aVIGNITE-210
p8932
aVIGNITE-209
p8933
aVIGNITE-208
p8934
aVIGNITE-207
p8935
aVIGNITE-206
p8936
aVIGNITE-205
p8937
aVIGNITE-204
p8938
aVIGNITE-203
p8939
aVIGNITE-202
p8940
aVIGNITE-201
p8941
aVIGNITE-200
p8942
aVIGNITE-199
p8943
aVIGNITE-198
p8944
aVIGNITE-197
p8945
aVIGNITE-196
p8946
aVIGNITE-195
p8947
aVIGNITE-194
p8948
aVIGNITE-193
p8949
aVIGNITE-192
p8950
aVIGNITE-191
p8951
aVIGNITE-190
p8952
aVIGNITE-189
p8953
aVIGNITE-188
p8954
aVIGNITE-187
p8955
aVIGNITE-186
p8956
aVIGNITE-185
p8957
aVIGNITE-184
p8958
aVIGNITE-183
p8959
aVIGNITE-182
p8960
aVIGNITE-181
p8961
aVIGNITE-180
p8962
aVIGNITE-179
p8963
aVIGNITE-178
p8964
aVIGNITE-177
p8965
aVIGNITE-176
p8966
aVIGNITE-175
p8967
aVIGNITE-174
p8968
aVIGNITE-173
p8969
aVIGNITE-172
p8970
aVIGNITE-171
p8971
aVIGNITE-170
p8972
aVIGNITE-169
p8973
aVIGNITE-168
p8974
aVIGNITE-167
p8975
aVIGNITE-166
p8976
aVIGNITE-165
p8977
aVIGNITE-164
p8978
aVIGNITE-163
p8979
aVIGNITE-162
p8980
aVIGNITE-161
p8981
aVIGNITE-160
p8982
aVIGNITE-159
p8983
aVIGNITE-158
p8984
aVIGNITE-157
p8985
aVIGNITE-156
p8986
aVIGNITE-155
p8987
aVIGNITE-154
p8988
aVIGNITE-153
p8989
aVIGNITE-152
p8990
aVIGNITE-151
p8991
aVIGNITE-150
p8992
aVIGNITE-149
p8993
aVIGNITE-148
p8994
aVIGNITE-147
p8995
aVIGNITE-146
p8996
aVIGNITE-145
p8997
aVIGNITE-144
p8998
aVIGNITE-143
p8999
aVIGNITE-142
p9000
aVIGNITE-141
p9001
aVIGNITE-140
p9002
aVIGNITE-139
p9003
aVIGNITE-138
p9004
aVIGNITE-137
p9005
aVIGNITE-136
p9006
aVIGNITE-135
p9007
aVIGNITE-134
p9008
aVIGNITE-133
p9009
aVIGNITE-132
p9010
aVIGNITE-131
p9011
aVIGNITE-130
p9012
aVIGNITE-129
p9013
aVIGNITE-128
p9014
aVIGNITE-127
p9015
aVIGNITE-126
p9016
aVIGNITE-125
p9017
aVIGNITE-124
p9018
aVIGNITE-123
p9019
aVIGNITE-122
p9020
aVIGNITE-121
p9021
aVIGNITE-120
p9022
aVIGNITE-119
p9023
aVIGNITE-118
p9024
aVIGNITE-117
p9025
aVIGNITE-116
p9026
aVIGNITE-115
p9027
aVIGNITE-114
p9028
aVIGNITE-113
p9029
aVIGNITE-112
p9030
aVIGNITE-111
p9031
aVIGNITE-110
p9032
aVIGNITE-109
p9033
aVIGNITE-108
p9034
aVIGNITE-107
p9035
aVIGNITE-106
p9036
aVIGNITE-105
p9037
aVIGNITE-104
p9038
aVIGNITE-103
p9039
aVIGNITE-102
p9040
aVIGNITE-101
p9041
aVIGNITE-100
p9042
aVIGNITE-99
p9043
aVIGNITE-98
p9044
aVIGNITE-97
p9045
aVIGNITE-96
p9046
aVIGNITE-95
p9047
aVIGNITE-94
p9048
aVIGNITE-93
p9049
aVIGNITE-92
p9050
aVIGNITE-91
p9051
aVIGNITE-90
p9052
aVIGNITE-89
p9053
aVIGNITE-88
p9054
aVIGNITE-87
p9055
aVIGNITE-86
p9056
aVIGNITE-85
p9057
aVIGNITE-84
p9058
aVIGNITE-83
p9059
aVIGNITE-82
p9060
aVIGNITE-81
p9061
aVIGNITE-80
p9062
aVIGNITE-79
p9063
aVIGNITE-78
p9064
aVIGNITE-77
p9065
aVIGNITE-76
p9066
aVIGNITE-75
p9067
aVIGNITE-74
p9068
aVIGNITE-73
p9069
aVIGNITE-72
p9070
aVIGNITE-71
p9071
aVIGNITE-70
p9072
aVIGNITE-69
p9073
aVIGNITE-68
p9074
aVIGNITE-67
p9075
aVIGNITE-66
p9076
aVIGNITE-65
p9077
aVIGNITE-64
p9078
aVIGNITE-63
p9079
aVIGNITE-62
p9080
aVIGNITE-61
p9081
aVIGNITE-60
p9082
aVIGNITE-59
p9083
aVIGNITE-58
p9084
aVIGNITE-57
p9085
aVIGNITE-56
p9086
aVIGNITE-55
p9087
aVIGNITE-54
p9088
aVIGNITE-53
p9089
aVIGNITE-52
p9090
aVIGNITE-51
p9091
aVIGNITE-50
p9092
aVIGNITE-49
p9093
aVIGNITE-48
p9094
aVIGNITE-47
p9095
aVIGNITE-46
p9096
aVIGNITE-45
p9097
aVIGNITE-44
p9098
aVIGNITE-43
p9099
aVIGNITE-42
p9100
aVIGNITE-41
p9101
aVIGNITE-40
p9102
aVIGNITE-39
p9103
aVIGNITE-38
p9104
aVIGNITE-37
p9105
aVIGNITE-36
p9106
aVIGNITE-35
p9107
aVIGNITE-34
p9108
aVIGNITE-33
p9109
aVIGNITE-32
p9110
aVIGNITE-31
p9111
aVIGNITE-30
p9112
aVIGNITE-29
p9113
aVIGNITE-28
p9114
aVIGNITE-27
p9115
aVIGNITE-26
p9116
aVIGNITE-25
p9117
aVIGNITE-24
p9118
aVIGNITE-23
p9119
aVIGNITE-22
p9120
aVIGNITE-21
p9121
aVIGNITE-20
p9122
aVIGNITE-19
p9123
aVIGNITE-18
p9124
aVIGNITE-17
p9125
aVIGNITE-16
p9126
aVIGNITE-15
p9127
aVIGNITE-14
p9128
aVIGNITE-13
p9129
aVIGNITE-12
p9130
aVIGNITE-11
p9131
aVIGNITE-10
p9132
aVIGNITE-9
p9133
aVIGNITE-8
p9134
aVIGNITE-7
p9135
aVIGNITE-6
p9136
aVIGNITE-5
p9137
aVIGNITE-4
p9138
aVIGNITE-3
p9139
aVIGNITE-2
p9140
aVIGNITE-1
p9141
a.