(lp0
VIMAGING-217
p1
aVIMAGING-216
p2
aVIMAGING-215
p3
aVIMAGING-214
p4
aVIMAGING-213
p5
aVIMAGING-212
p6
aVIMAGING-211
p7
aVIMAGING-210
p8
aVIMAGING-209
p9
aVIMAGING-208
p10
aVIMAGING-207
p11
aVIMAGING-206
p12
aVIMAGING-205
p13
aVIMAGING-204
p14
aVIMAGING-203
p15
aVIMAGING-202
p16
aVIMAGING-201
p17
aVIMAGING-200
p18
aVIMAGING-199
p19
aVIMAGING-198
p20
aVIMAGING-197
p21
aVIMAGING-196
p22
aVIMAGING-195
p23
aVIMAGING-194
p24
aVIMAGING-193
p25
aVIMAGING-192
p26
aVIMAGING-191
p27
aVIMAGING-190
p28
aVIMAGING-189
p29
aVIMAGING-188
p30
aVIMAGING-187
p31
aVIMAGING-186
p32
aVIMAGING-185
p33
aVIMAGING-184
p34
aVIMAGING-183
p35
aVIMAGING-182
p36
aVIMAGING-181
p37
aVIMAGING-180
p38
aVIMAGING-179
p39
aVIMAGING-178
p40
aVIMAGING-177
p41
aVIMAGING-176
p42
aVIMAGING-175
p43
aVIMAGING-174
p44
aVIMAGING-173
p45
aVIMAGING-172
p46
aVIMAGING-171
p47
aVIMAGING-170
p48
aVIMAGING-169
p49
aVIMAGING-168
p50
aVIMAGING-167
p51
aVIMAGING-166
p52
aVIMAGING-165
p53
aVIMAGING-164
p54
aVIMAGING-163
p55
aVIMAGING-162
p56
aVIMAGING-161
p57
aVIMAGING-160
p58
aVIMAGING-159
p59
aVIMAGING-158
p60
aVIMAGING-157
p61
aVIMAGING-156
p62
aVIMAGING-155
p63
aVIMAGING-154
p64
aVIMAGING-153
p65
aVIMAGING-152
p66
aVIMAGING-151
p67
aVIMAGING-150
p68
aVIMAGING-149
p69
aVIMAGING-148
p70
aVIMAGING-147
p71
aVIMAGING-146
p72
aVIMAGING-145
p73
aVIMAGING-144
p74
aVIMAGING-143
p75
aVIMAGING-142
p76
aVIMAGING-141
p77
aVIMAGING-140
p78
aVIMAGING-139
p79
aVIMAGING-138
p80
aVIMAGING-137
p81
aVIMAGING-136
p82
aVIMAGING-135
p83
aVIMAGING-134
p84
aVIMAGING-133
p85
aVIMAGING-132
p86
aVIMAGING-131
p87
aVIMAGING-130
p88
aVIMAGING-129
p89
aVIMAGING-128
p90
aVIMAGING-127
p91
aVIMAGING-126
p92
aVIMAGING-125
p93
aVIMAGING-124
p94
aVIMAGING-123
p95
aVIMAGING-122
p96
aVIMAGING-121
p97
aVIMAGING-120
p98
aVIMAGING-119
p99
aVIMAGING-118
p100
aVIMAGING-117
p101
aVIMAGING-116
p102
aVIMAGING-115
p103
aVIMAGING-114
p104
aVIMAGING-113
p105
aVIMAGING-112
p106
aVIMAGING-111
p107
aVIMAGING-110
p108
aVIMAGING-109
p109
aVIMAGING-108
p110
aVIMAGING-107
p111
aVIMAGING-106
p112
aVIMAGING-105
p113
aVIMAGING-104
p114
aVIMAGING-103
p115
aVIMAGING-102
p116
aVIMAGING-101
p117
aVIMAGING-100
p118
aVIMAGING-99
p119
aVIMAGING-98
p120
aVIMAGING-97
p121
aVIMAGING-96
p122
aVIMAGING-95
p123
aVIMAGING-94
p124
aVIMAGING-93
p125
aVIMAGING-92
p126
aVIMAGING-91
p127
aVIMAGING-90
p128
aVIMAGING-89
p129
aVIMAGING-88
p130
aVIMAGING-87
p131
aVIMAGING-86
p132
aVIMAGING-85
p133
aVIMAGING-84
p134
aVIMAGING-83
p135
aVIMAGING-82
p136
aVIMAGING-81
p137
aVIMAGING-80
p138
aVIMAGING-79
p139
aVIMAGING-78
p140
aVIMAGING-77
p141
aVIMAGING-76
p142
aVIMAGING-75
p143
aVIMAGING-74
p144
aVIMAGING-73
p145
aVIMAGING-72
p146
aVIMAGING-71
p147
aVIMAGING-70
p148
aVIMAGING-69
p149
aVIMAGING-68
p150
aVIMAGING-67
p151
aVIMAGING-66
p152
aVIMAGING-65
p153
aVIMAGING-64
p154
aVIMAGING-63
p155
aVIMAGING-62
p156
aVIMAGING-61
p157
aVIMAGING-60
p158
aVIMAGING-59
p159
aVIMAGING-58
p160
aVIMAGING-57
p161
aVIMAGING-56
p162
aVIMAGING-55
p163
aVIMAGING-54
p164
aVIMAGING-53
p165
aVIMAGING-52
p166
aVIMAGING-51
p167
aVIMAGING-50
p168
aVIMAGING-49
p169
aVIMAGING-48
p170
aVIMAGING-47
p171
aVIMAGING-46
p172
aVIMAGING-45
p173
aVIMAGING-44
p174
aVIMAGING-43
p175
aVIMAGING-42
p176
aVIMAGING-41
p177
aVIMAGING-40
p178
aVIMAGING-39
p179
aVIMAGING-38
p180
aVIMAGING-37
p181
aVIMAGING-36
p182
aVIMAGING-35
p183
aVIMAGING-34
p184
aVIMAGING-33
p185
aVIMAGING-32
p186
aVIMAGING-31
p187
aVIMAGING-30
p188
aVIMAGING-29
p189
aVIMAGING-28
p190
aVIMAGING-27
p191
aVIMAGING-26
p192
aVIMAGING-25
p193
aVIMAGING-24
p194
aVIMAGING-23
p195
aVIMAGING-22
p196
aVIMAGING-21
p197
aVIMAGING-20
p198
aVIMAGING-19
p199
aVIMAGING-18
p200
aVIMAGING-17
p201
aVIMAGING-16
p202
aVIMAGING-15
p203
aVIMAGING-14
p204
aVIMAGING-13
p205
aVIMAGING-12
p206
aVIMAGING-11
p207
aVIMAGING-10
p208
aVIMAGING-9
p209
aVIMAGING-8
p210
aVIMAGING-7
p211
aVIMAGING-6
p212
aVIMAGING-5
p213
aVIMAGING-4
p214
aVIMAGING-3
p215
aVIMAGING-2
p216
aVIMAGING-1
p217
a.