(lp0
VIO-583
p1
aVIO-582
p2
aVIO-581
p3
aVIO-580
p4
aVIO-579
p5
aVIO-578
p6
aVIO-577
p7
aVIO-576
p8
aVIO-575
p9
aVIO-574
p10
aVIO-573
p11
aVIO-572
p12
aVIO-571
p13
aVIO-570
p14
aVIO-569
p15
aVIO-568
p16
aVIO-567
p17
aVIO-566
p18
aVIO-565
p19
aVIO-564
p20
aVIO-563
p21
aVIO-562
p22
aVIO-561
p23
aVIO-560
p24
aVIO-559
p25
aVIO-558
p26
aVIO-557
p27
aVIO-556
p28
aVIO-555
p29
aVIO-554
p30
aVIO-553
p31
aVIO-552
p32
aVIO-551
p33
aVIO-550
p34
aVIO-549
p35
aVIO-548
p36
aVIO-547
p37
aVIO-546
p38
aVIO-545
p39
aVIO-544
p40
aVIO-543
p41
aVIO-542
p42
aVIO-541
p43
aVIO-540
p44
aVIO-539
p45
aVIO-538
p46
aVIO-537
p47
aVIO-536
p48
aVIO-535
p49
aVIO-534
p50
aVIO-533
p51
aVIO-532
p52
aVIO-531
p53
aVIO-530
p54
aVIO-529
p55
aVIO-528
p56
aVIO-527
p57
aVIO-526
p58
aVIO-525
p59
aVIO-524
p60
aVIO-523
p61
aVIO-522
p62
aVIO-521
p63
aVIO-520
p64
aVIO-519
p65
aVIO-518
p66
aVIO-517
p67
aVIO-516
p68
aVIO-515
p69
aVIO-514
p70
aVIO-513
p71
aVIO-512
p72
aVIO-511
p73
aVIO-510
p74
aVIO-509
p75
aVIO-508
p76
aVIO-507
p77
aVIO-506
p78
aVIO-505
p79
aVIO-504
p80
aVIO-503
p81
aVIO-502
p82
aVIO-501
p83
aVIO-500
p84
aVIO-499
p85
aVIO-498
p86
aVIO-497
p87
aVIO-496
p88
aVIO-495
p89
aVIO-494
p90
aVIO-493
p91
aVIO-492
p92
aVIO-491
p93
aVIO-490
p94
aVIO-489
p95
aVIO-488
p96
aVIO-487
p97
aVIO-486
p98
aVIO-485
p99
aVIO-484
p100
aVIO-483
p101
aVIO-482
p102
aVIO-481
p103
aVIO-480
p104
aVIO-479
p105
aVIO-478
p106
aVIO-477
p107
aVIO-476
p108
aVIO-475
p109
aVIO-474
p110
aVIO-473
p111
aVIO-472
p112
aVIO-471
p113
aVIO-470
p114
aVIO-469
p115
aVIO-468
p116
aVIO-467
p117
aVIO-466
p118
aVIO-465
p119
aVIO-464
p120
aVIO-463
p121
aVIO-462
p122
aVIO-461
p123
aVIO-460
p124
aVIO-459
p125
aVIO-458
p126
aVIO-457
p127
aVIO-456
p128
aVIO-455
p129
aVIO-454
p130
aVIO-453
p131
aVIO-452
p132
aVIO-451
p133
aVIO-450
p134
aVIO-449
p135
aVIO-448
p136
aVIO-447
p137
aVIO-446
p138
aVIO-445
p139
aVIO-444
p140
aVIO-443
p141
aVIO-442
p142
aVIO-441
p143
aVIO-440
p144
aVIO-439
p145
aVIO-438
p146
aVIO-437
p147
aVIO-436
p148
aVIO-435
p149
aVIO-434
p150
aVIO-433
p151
aVIO-432
p152
aVIO-431
p153
aVIO-430
p154
aVIO-429
p155
aVIO-428
p156
aVIO-427
p157
aVIO-426
p158
aVIO-425
p159
aVIO-424
p160
aVIO-423
p161
aVIO-422
p162
aVIO-421
p163
aVIO-420
p164
aVIO-419
p165
aVIO-418
p166
aVIO-417
p167
aVIO-416
p168
aVIO-415
p169
aVIO-414
p170
aVIO-413
p171
aVIO-412
p172
aVIO-411
p173
aVIO-410
p174
aVIO-406
p175
aVIO-405
p176
aVIO-404
p177
aVIO-403
p178
aVIO-402
p179
aVIO-401
p180
aVIO-400
p181
aVIO-399
p182
aVIO-398
p183
aVIO-397
p184
aVIO-396
p185
aVIO-395
p186
aVIO-394
p187
aVIO-393
p188
aVIO-392
p189
aVIO-391
p190
aVIO-390
p191
aVIO-389
p192
aVIO-388
p193
aVIO-387
p194
aVIO-386
p195
aVIO-385
p196
aVIO-384
p197
aVIO-383
p198
aVIO-382
p199
aVIO-381
p200
aVIO-380
p201
aVIO-379
p202
aVIO-378
p203
aVIO-377
p204
aVIO-376
p205
aVIO-375
p206
aVIO-374
p207
aVIO-373
p208
aVIO-372
p209
aVIO-371
p210
aVIO-370
p211
aVIO-369
p212
aVIO-368
p213
aVIO-367
p214
aVIO-366
p215
aVIO-365
p216
aVIO-364
p217
aVIO-363
p218
aVIO-362
p219
aVIO-361
p220
aVIO-360
p221
aVIO-359
p222
aVIO-358
p223
aVIO-357
p224
aVIO-356
p225
aVIO-355
p226
aVIO-354
p227
aVIO-353
p228
aVIO-352
p229
aVIO-351
p230
aVIO-350
p231
aVIO-349
p232
aVIO-348
p233
aVIO-347
p234
aVIO-346
p235
aVIO-345
p236
aVIO-344
p237
aVIO-343
p238
aVIO-342
p239
aVIO-341
p240
aVIO-340
p241
aVIO-339
p242
aVIO-338
p243
aVIO-337
p244
aVIO-336
p245
aVIO-335
p246
aVIO-334
p247
aVIO-333
p248
aVIO-332
p249
aVIO-331
p250
aVIO-330
p251
aVIO-329
p252
aVIO-328
p253
aVIO-327
p254
aVIO-326
p255
aVIO-325
p256
aVIO-324
p257
aVIO-323
p258
aVIO-322
p259
aVIO-321
p260
aVIO-320
p261
aVIO-319
p262
aVIO-318
p263
aVIO-316
p264
aVIO-315
p265
aVIO-314
p266
aVIO-313
p267
aVIO-312
p268
aVIO-311
p269
aVIO-310
p270
aVIO-309
p271
aVIO-308
p272
aVIO-307
p273
aVIO-306
p274
aVIO-305
p275
aVIO-304
p276
aVIO-303
p277
aVIO-302
p278
aVIO-301
p279
aVIO-300
p280
aVIO-299
p281
aVIO-298
p282
aVIO-297
p283
aVIO-296
p284
aVIO-295
p285
aVIO-294
p286
aVIO-293
p287
aVIO-292
p288
aVIO-291
p289
aVIO-290
p290
aVIO-289
p291
aVIO-288
p292
aVIO-287
p293
aVIO-286
p294
aVIO-285
p295
aVIO-284
p296
aVIO-283
p297
aVIO-282
p298
aVIO-281
p299
aVIO-280
p300
aVIO-279
p301
aVIO-278
p302
aVIO-277
p303
aVIO-276
p304
aVIO-275
p305
aVIO-274
p306
aVIO-273
p307
aVIO-272
p308
aVIO-271
p309
aVIO-270
p310
aVIO-269
p311
aVIO-268
p312
aVIO-267
p313
aVIO-266
p314
aVIO-265
p315
aVIO-264
p316
aVIO-263
p317
aVIO-262
p318
aVIO-261
p319
aVIO-260
p320
aVIO-259
p321
aVIO-258
p322
aVIO-257
p323
aVIO-256
p324
aVIO-255
p325
aVIO-254
p326
aVIO-253
p327
aVIO-252
p328
aVIO-251
p329
aVIO-250
p330
aVIO-249
p331
aVIO-248
p332
aVIO-247
p333
aVIO-246
p334
aVIO-245
p335
aVIO-244
p336
aVIO-243
p337
aVIO-242
p338
aVIO-241
p339
aVIO-240
p340
aVIO-239
p341
aVIO-238
p342
aVIO-237
p343
aVIO-236
p344
aVIO-235
p345
aVIO-234
p346
aVIO-233
p347
aVIO-232
p348
aVIO-231
p349
aVIO-230
p350
aVIO-229
p351
aVIO-227
p352
aVIO-226
p353
aVIO-225
p354
aVIO-224
p355
aVIO-223
p356
aVIO-222
p357
aVIO-221
p358
aVIO-220
p359
aVIO-219
p360
aVIO-218
p361
aVIO-217
p362
aVIO-216
p363
aVIO-215
p364
aVIO-214
p365
aVIO-213
p366
aVIO-212
p367
aVIO-211
p368
aVIO-210
p369
aVIO-209
p370
aVIO-208
p371
aVIO-207
p372
aVIO-206
p373
aVIO-205
p374
aVIO-204
p375
aVIO-203
p376
aVIO-202
p377
aVIO-201
p378
aVIO-200
p379
aVIO-199
p380
aVIO-198
p381
aVIO-197
p382
aVIO-196
p383
aVIO-195
p384
aVIO-194
p385
aVIO-193
p386
aVIO-192
p387
aVIO-191
p388
aVIO-190
p389
aVIO-189
p390
aVIO-187
p391
aVIO-186
p392
aVIO-185
p393
aVIO-184
p394
aVIO-183
p395
aVIO-182
p396
aVIO-181
p397
aVIO-180
p398
aVIO-179
p399
aVIO-178
p400
aVIO-177
p401
aVIO-176
p402
aVIO-175
p403
aVIO-174
p404
aVIO-173
p405
aVIO-172
p406
aVIO-171
p407
aVIO-170
p408
aVIO-169
p409
aVIO-168
p410
aVIO-167
p411
aVIO-166
p412
aVIO-165
p413
aVIO-164
p414
aVIO-163
p415
aVIO-162
p416
aVIO-161
p417
aVIO-160
p418
aVIO-159
p419
aVIO-158
p420
aVIO-157
p421
aVIO-156
p422
aVIO-155
p423
aVIO-154
p424
aVIO-153
p425
aVIO-152
p426
aVIO-151
p427
aVIO-150
p428
aVIO-149
p429
aVIO-148
p430
aVIO-147
p431
aVIO-146
p432
aVIO-145
p433
aVIO-144
p434
aVIO-143
p435
aVIO-142
p436
aVIO-141
p437
aVIO-140
p438
aVIO-139
p439
aVIO-138
p440
aVIO-137
p441
aVIO-136
p442
aVIO-135
p443
aVIO-134
p444
aVIO-133
p445
aVIO-132
p446
aVIO-131
p447
aVIO-130
p448
aVIO-129
p449
aVIO-128
p450
aVIO-127
p451
aVIO-126
p452
aVIO-125
p453
aVIO-124
p454
aVIO-123
p455
aVIO-122
p456
aVIO-121
p457
aVIO-120
p458
aVIO-119
p459
aVIO-118
p460
aVIO-117
p461
aVIO-116
p462
aVIO-115
p463
aVIO-113
p464
aVIO-112
p465
aVIO-111
p466
aVIO-110
p467
aVIO-109
p468
aVIO-108
p469
aVIO-107
p470
aVIO-106
p471
aVIO-105
p472
aVIO-104
p473
aVIO-103
p474
aVIO-102
p475
aVIO-101
p476
aVIO-100
p477
aVIO-99
p478
aVIO-97
p479
aVIO-96
p480
aVIO-95
p481
aVIO-94
p482
aVIO-93
p483
aVIO-92
p484
aVIO-91
p485
aVIO-90
p486
aVIO-89
p487
aVIO-88
p488
aVIO-87
p489
aVIO-86
p490
aVIO-85
p491
aVIO-84
p492
aVIO-83
p493
aVIO-82
p494
aVIO-81
p495
aVIO-80
p496
aVIO-79
p497
aVIO-77
p498
aVIO-76
p499
aVIO-75
p500
aVIO-74
p501
aVIO-73
p502
aVIO-72
p503
aVIO-71
p504
aVIO-70
p505
aVIO-69
p506
aVIO-68
p507
aVIO-67
p508
aVIO-66
p509
aVIO-65
p510
aVIO-64
p511
aVIO-63
p512
aVIO-62
p513
aVIO-61
p514
aVIO-59
p515
aVIO-58
p516
aVIO-56
p517
aVIO-55
p518
aVIO-54
p519
aVIO-53
p520
aVIO-52
p521
aVIO-51
p522
aVIO-50
p523
aVIO-49
p524
aVIO-48
p525
aVIO-47
p526
aVIO-46
p527
aVIO-45
p528
aVIO-44
p529
aVIO-43
p530
aVIO-42
p531
aVIO-41
p532
aVIO-40
p533
aVIO-39
p534
aVIO-38
p535
aVIO-37
p536
aVIO-36
p537
aVIO-35
p538
aVIO-34
p539
aVIO-33
p540
aVIO-32
p541
aVIO-31
p542
aVIO-30
p543
aVIO-29
p544
aVIO-28
p545
aVIO-27
p546
aVIO-26
p547
aVIO-25
p548
aVIO-24
p549
aVIO-23
p550
aVIO-22
p551
aVIO-21
p552
aVIO-20
p553
aVIO-19
p554
aVIO-18
p555
aVIO-17
p556
aVIO-16
p557
aVIO-15
p558
aVIO-14
p559
aVIO-13
p560
aVIO-12
p561
aVIO-11
p562
aVIO-10
p563
aVIO-9
p564
aVIO-8
p565
aVIO-6
p566
aVIO-5
p567
aVIO-4
p568
aVIO-3
p569
aVIO-2
p570
aVIO-1
p571
a.