(lp0
VISIS-1973
p1
aVISIS-1972
p2
aVISIS-1971
p3
aVISIS-1970
p4
aVISIS-1969
p5
aVISIS-1968
p6
aVISIS-1967
p7
aVISIS-1966
p8
aVISIS-1965
p9
aVISIS-1964
p10
aVISIS-1963
p11
aVISIS-1962
p12
aVISIS-1961
p13
aVISIS-1960
p14
aVISIS-1959
p15
aVISIS-1958
p16
aVISIS-1957
p17
aVISIS-1956
p18
aVISIS-1955
p19
aVISIS-1954
p20
aVISIS-1953
p21
aVISIS-1952
p22
aVISIS-1951
p23
aVISIS-1950
p24
aVISIS-1949
p25
aVISIS-1948
p26
aVISIS-1947
p27
aVISIS-1946
p28
aVISIS-1945
p29
aVISIS-1944
p30
aVISIS-1943
p31
aVISIS-1942
p32
aVISIS-1941
p33
aVISIS-1940
p34
aVISIS-1939
p35
aVISIS-1938
p36
aVISIS-1937
p37
aVISIS-1936
p38
aVISIS-1935
p39
aVISIS-1934
p40
aVISIS-1933
p41
aVISIS-1932
p42
aVISIS-1931
p43
aVISIS-1930
p44
aVISIS-1929
p45
aVISIS-1928
p46
aVISIS-1927
p47
aVISIS-1926
p48
aVISIS-1925
p49
aVISIS-1924
p50
aVISIS-1923
p51
aVISIS-1922
p52
aVISIS-1921
p53
aVISIS-1920
p54
aVISIS-1919
p55
aVISIS-1918
p56
aVISIS-1917
p57
aVISIS-1916
p58
aVISIS-1915
p59
aVISIS-1914
p60
aVISIS-1913
p61
aVISIS-1912
p62
aVISIS-1911
p63
aVISIS-1910
p64
aVISIS-1909
p65
aVISIS-1908
p66
aVISIS-1907
p67
aVISIS-1906
p68
aVISIS-1905
p69
aVISIS-1904
p70
aVISIS-1903
p71
aVISIS-1902
p72
aVISIS-1901
p73
aVISIS-1900
p74
aVISIS-1899
p75
aVISIS-1898
p76
aVISIS-1897
p77
aVISIS-1896
p78
aVISIS-1895
p79
aVISIS-1894
p80
aVISIS-1893
p81
aVISIS-1892
p82
aVISIS-1891
p83
aVISIS-1890
p84
aVISIS-1889
p85
aVISIS-1888
p86
aVISIS-1887
p87
aVISIS-1886
p88
aVISIS-1885
p89
aVISIS-1884
p90
aVISIS-1883
p91
aVISIS-1882
p92
aVISIS-1881
p93
aVISIS-1880
p94
aVISIS-1879
p95
aVISIS-1878
p96
aVISIS-1877
p97
aVISIS-1876
p98
aVISIS-1875
p99
aVISIS-1874
p100
aVISIS-1873
p101
aVISIS-1872
p102
aVISIS-1871
p103
aVISIS-1870
p104
aVISIS-1869
p105
aVISIS-1868
p106
aVISIS-1867
p107
aVISIS-1866
p108
aVISIS-1865
p109
aVISIS-1864
p110
aVISIS-1863
p111
aVISIS-1862
p112
aVISIS-1861
p113
aVISIS-1860
p114
aVISIS-1859
p115
aVISIS-1858
p116
aVISIS-1857
p117
aVISIS-1856
p118
aVISIS-1855
p119
aVISIS-1854
p120
aVISIS-1853
p121
aVISIS-1852
p122
aVISIS-1851
p123
aVISIS-1850
p124
aVISIS-1849
p125
aVISIS-1848
p126
aVISIS-1847
p127
aVISIS-1846
p128
aVISIS-1845
p129
aVISIS-1844
p130
aVISIS-1843
p131
aVISIS-1842
p132
aVISIS-1841
p133
aVISIS-1840
p134
aVISIS-1839
p135
aVISIS-1838
p136
aVISIS-1837
p137
aVISIS-1836
p138
aVISIS-1835
p139
aVISIS-1834
p140
aVISIS-1833
p141
aVISIS-1832
p142
aVISIS-1831
p143
aVISIS-1830
p144
aVISIS-1829
p145
aVISIS-1828
p146
aVISIS-1827
p147
aVISIS-1826
p148
aVISIS-1825
p149
aVISIS-1824
p150
aVISIS-1823
p151
aVISIS-1822
p152
aVISIS-1821
p153
aVISIS-1820
p154
aVISIS-1819
p155
aVISIS-1818
p156
aVISIS-1817
p157
aVISIS-1816
p158
aVISIS-1815
p159
aVISIS-1814
p160
aVISIS-1813
p161
aVISIS-1812
p162
aVISIS-1811
p163
aVISIS-1810
p164
aVISIS-1809
p165
aVISIS-1808
p166
aVISIS-1807
p167
aVISIS-1806
p168
aVISIS-1805
p169
aVISIS-1804
p170
aVISIS-1803
p171
aVISIS-1802
p172
aVISIS-1801
p173
aVISIS-1800
p174
aVISIS-1799
p175
aVISIS-1798
p176
aVISIS-1797
p177
aVISIS-1796
p178
aVISIS-1795
p179
aVISIS-1794
p180
aVISIS-1793
p181
aVISIS-1792
p182
aVISIS-1791
p183
aVISIS-1790
p184
aVISIS-1789
p185
aVISIS-1788
p186
aVISIS-1787
p187
aVISIS-1786
p188
aVISIS-1785
p189
aVISIS-1784
p190
aVISIS-1783
p191
aVISIS-1782
p192
aVISIS-1781
p193
aVISIS-1780
p194
aVISIS-1779
p195
aVISIS-1778
p196
aVISIS-1777
p197
aVISIS-1776
p198
aVISIS-1775
p199
aVISIS-1774
p200
aVISIS-1773
p201
aVISIS-1772
p202
aVISIS-1771
p203
aVISIS-1770
p204
aVISIS-1769
p205
aVISIS-1768
p206
aVISIS-1767
p207
aVISIS-1766
p208
aVISIS-1765
p209
aVISIS-1764
p210
aVISIS-1763
p211
aVISIS-1762
p212
aVISIS-1761
p213
aVISIS-1760
p214
aVISIS-1759
p215
aVISIS-1758
p216
aVISIS-1757
p217
aVISIS-1756
p218
aVISIS-1755
p219
aVISIS-1754
p220
aVISIS-1753
p221
aVISIS-1752
p222
aVISIS-1751
p223
aVISIS-1750
p224
aVISIS-1749
p225
aVISIS-1748
p226
aVISIS-1747
p227
aVISIS-1746
p228
aVISIS-1745
p229
aVISIS-1744
p230
aVISIS-1743
p231
aVISIS-1742
p232
aVISIS-1741
p233
aVISIS-1740
p234
aVISIS-1739
p235
aVISIS-1738
p236
aVISIS-1737
p237
aVISIS-1736
p238
aVISIS-1735
p239
aVISIS-1734
p240
aVISIS-1733
p241
aVISIS-1732
p242
aVISIS-1731
p243
aVISIS-1730
p244
aVISIS-1729
p245
aVISIS-1728
p246
aVISIS-1727
p247
aVISIS-1726
p248
aVISIS-1725
p249
aVISIS-1724
p250
aVISIS-1723
p251
aVISIS-1722
p252
aVISIS-1721
p253
aVISIS-1720
p254
aVISIS-1719
p255
aVISIS-1718
p256
aVISIS-1717
p257
aVISIS-1716
p258
aVISIS-1715
p259
aVISIS-1714
p260
aVISIS-1713
p261
aVISIS-1712
p262
aVISIS-1711
p263
aVISIS-1710
p264
aVISIS-1709
p265
aVISIS-1708
p266
aVISIS-1707
p267
aVISIS-1706
p268
aVISIS-1705
p269
aVISIS-1704
p270
aVISIS-1703
p271
aVISIS-1702
p272
aVISIS-1701
p273
aVISIS-1700
p274
aVISIS-1699
p275
aVISIS-1698
p276
aVISIS-1697
p277
aVISIS-1696
p278
aVISIS-1695
p279
aVISIS-1694
p280
aVISIS-1693
p281
aVISIS-1692
p282
aVISIS-1691
p283
aVISIS-1690
p284
aVISIS-1689
p285
aVISIS-1688
p286
aVISIS-1687
p287
aVISIS-1686
p288
aVISIS-1685
p289
aVISIS-1684
p290
aVISIS-1683
p291
aVISIS-1682
p292
aVISIS-1681
p293
aVISIS-1680
p294
aVISIS-1679
p295
aVISIS-1678
p296
aVISIS-1677
p297
aVISIS-1676
p298
aVISIS-1675
p299
aVISIS-1674
p300
aVISIS-1673
p301
aVISIS-1672
p302
aVISIS-1671
p303
aVISIS-1670
p304
aVISIS-1669
p305
aVISIS-1668
p306
aVISIS-1667
p307
aVISIS-1666
p308
aVISIS-1665
p309
aVISIS-1664
p310
aVISIS-1663
p311
aVISIS-1662
p312
aVISIS-1661
p313
aVISIS-1660
p314
aVISIS-1659
p315
aVISIS-1658
p316
aVISIS-1657
p317
aVISIS-1656
p318
aVISIS-1655
p319
aVISIS-1654
p320
aVISIS-1653
p321
aVISIS-1652
p322
aVISIS-1651
p323
aVISIS-1650
p324
aVISIS-1649
p325
aVISIS-1648
p326
aVISIS-1647
p327
aVISIS-1646
p328
aVISIS-1645
p329
aVISIS-1644
p330
aVISIS-1643
p331
aVISIS-1642
p332
aVISIS-1641
p333
aVISIS-1640
p334
aVISIS-1639
p335
aVISIS-1638
p336
aVISIS-1637
p337
aVISIS-1636
p338
aVISIS-1635
p339
aVISIS-1634
p340
aVISIS-1633
p341
aVISIS-1632
p342
aVISIS-1631
p343
aVISIS-1630
p344
aVISIS-1629
p345
aVISIS-1628
p346
aVISIS-1627
p347
aVISIS-1626
p348
aVISIS-1625
p349
aVISIS-1624
p350
aVISIS-1623
p351
aVISIS-1622
p352
aVISIS-1621
p353
aVISIS-1620
p354
aVISIS-1619
p355
aVISIS-1618
p356
aVISIS-1617
p357
aVISIS-1616
p358
aVISIS-1615
p359
aVISIS-1614
p360
aVISIS-1613
p361
aVISIS-1612
p362
aVISIS-1611
p363
aVISIS-1610
p364
aVISIS-1609
p365
aVISIS-1608
p366
aVISIS-1607
p367
aVISIS-1606
p368
aVISIS-1605
p369
aVISIS-1604
p370
aVISIS-1603
p371
aVISIS-1602
p372
aVISIS-1601
p373
aVISIS-1600
p374
aVISIS-1599
p375
aVISIS-1598
p376
aVISIS-1597
p377
aVISIS-1596
p378
aVISIS-1595
p379
aVISIS-1594
p380
aVISIS-1593
p381
aVISIS-1592
p382
aVISIS-1591
p383
aVISIS-1590
p384
aVISIS-1589
p385
aVISIS-1588
p386
aVISIS-1587
p387
aVISIS-1586
p388
aVISIS-1585
p389
aVISIS-1584
p390
aVISIS-1583
p391
aVISIS-1582
p392
aVISIS-1581
p393
aVISIS-1580
p394
aVISIS-1579
p395
aVISIS-1578
p396
aVISIS-1577
p397
aVISIS-1576
p398
aVISIS-1575
p399
aVISIS-1574
p400
aVISIS-1573
p401
aVISIS-1572
p402
aVISIS-1571
p403
aVISIS-1570
p404
aVISIS-1569
p405
aVISIS-1568
p406
aVISIS-1567
p407
aVISIS-1566
p408
aVISIS-1565
p409
aVISIS-1564
p410
aVISIS-1563
p411
aVISIS-1562
p412
aVISIS-1561
p413
aVISIS-1560
p414
aVISIS-1559
p415
aVISIS-1558
p416
aVISIS-1557
p417
aVISIS-1556
p418
aVISIS-1555
p419
aVISIS-1554
p420
aVISIS-1553
p421
aVISIS-1552
p422
aVISIS-1551
p423
aVISIS-1550
p424
aVISIS-1549
p425
aVISIS-1548
p426
aVISIS-1547
p427
aVISIS-1546
p428
aVISIS-1545
p429
aVISIS-1544
p430
aVISIS-1543
p431
aVISIS-1542
p432
aVISIS-1541
p433
aVISIS-1540
p434
aVISIS-1539
p435
aVISIS-1538
p436
aVISIS-1537
p437
aVISIS-1536
p438
aVISIS-1535
p439
aVISIS-1534
p440
aVISIS-1533
p441
aVISIS-1532
p442
aVISIS-1531
p443
aVISIS-1530
p444
aVISIS-1529
p445
aVISIS-1528
p446
aVISIS-1527
p447
aVISIS-1526
p448
aVISIS-1525
p449
aVISIS-1524
p450
aVISIS-1523
p451
aVISIS-1522
p452
aVISIS-1521
p453
aVISIS-1520
p454
aVISIS-1519
p455
aVISIS-1518
p456
aVISIS-1517
p457
aVISIS-1516
p458
aVISIS-1515
p459
aVISIS-1514
p460
aVISIS-1513
p461
aVISIS-1512
p462
aVISIS-1511
p463
aVISIS-1510
p464
aVISIS-1509
p465
aVISIS-1508
p466
aVISIS-1507
p467
aVISIS-1506
p468
aVISIS-1505
p469
aVISIS-1504
p470
aVISIS-1503
p471
aVISIS-1502
p472
aVISIS-1501
p473
aVISIS-1500
p474
aVISIS-1499
p475
aVISIS-1498
p476
aVISIS-1497
p477
aVISIS-1496
p478
aVISIS-1495
p479
aVISIS-1494
p480
aVISIS-1493
p481
aVISIS-1492
p482
aVISIS-1491
p483
aVISIS-1490
p484
aVISIS-1489
p485
aVISIS-1488
p486
aVISIS-1487
p487
aVISIS-1486
p488
aVISIS-1485
p489
aVISIS-1484
p490
aVISIS-1483
p491
aVISIS-1482
p492
aVISIS-1481
p493
aVISIS-1480
p494
aVISIS-1479
p495
aVISIS-1478
p496
aVISIS-1477
p497
aVISIS-1476
p498
aVISIS-1475
p499
aVISIS-1474
p500
aVISIS-1473
p501
aVISIS-1472
p502
aVISIS-1471
p503
aVISIS-1470
p504
aVISIS-1469
p505
aVISIS-1468
p506
aVISIS-1467
p507
aVISIS-1466
p508
aVISIS-1465
p509
aVISIS-1464
p510
aVISIS-1463
p511
aVISIS-1462
p512
aVISIS-1461
p513
aVISIS-1460
p514
aVISIS-1459
p515
aVISIS-1458
p516
aVISIS-1457
p517
aVISIS-1456
p518
aVISIS-1455
p519
aVISIS-1454
p520
aVISIS-1453
p521
aVISIS-1452
p522
aVISIS-1451
p523
aVISIS-1450
p524
aVISIS-1449
p525
aVISIS-1448
p526
aVISIS-1447
p527
aVISIS-1446
p528
aVISIS-1445
p529
aVISIS-1444
p530
aVISIS-1443
p531
aVISIS-1442
p532
aVISIS-1441
p533
aVISIS-1440
p534
aVISIS-1439
p535
aVISIS-1438
p536
aVISIS-1437
p537
aVISIS-1436
p538
aVISIS-1435
p539
aVISIS-1434
p540
aVISIS-1433
p541
aVISIS-1432
p542
aVISIS-1431
p543
aVISIS-1430
p544
aVISIS-1429
p545
aVISIS-1428
p546
aVISIS-1427
p547
aVISIS-1426
p548
aVISIS-1425
p549
aVISIS-1424
p550
aVISIS-1423
p551
aVISIS-1422
p552
aVISIS-1421
p553
aVISIS-1420
p554
aVISIS-1419
p555
aVISIS-1418
p556
aVISIS-1417
p557
aVISIS-1416
p558
aVISIS-1415
p559
aVISIS-1414
p560
aVISIS-1413
p561
aVISIS-1412
p562
aVISIS-1411
p563
aVISIS-1410
p564
aVISIS-1409
p565
aVISIS-1408
p566
aVISIS-1407
p567
aVISIS-1406
p568
aVISIS-1405
p569
aVISIS-1404
p570
aVISIS-1403
p571
aVISIS-1402
p572
aVISIS-1401
p573
aVISIS-1400
p574
aVISIS-1399
p575
aVISIS-1398
p576
aVISIS-1397
p577
aVISIS-1396
p578
aVISIS-1395
p579
aVISIS-1394
p580
aVISIS-1393
p581
aVISIS-1392
p582
aVISIS-1391
p583
aVISIS-1390
p584
aVISIS-1389
p585
aVISIS-1388
p586
aVISIS-1387
p587
aVISIS-1386
p588
aVISIS-1385
p589
aVISIS-1384
p590
aVISIS-1383
p591
aVISIS-1382
p592
aVISIS-1381
p593
aVISIS-1380
p594
aVISIS-1379
p595
aVISIS-1378
p596
aVISIS-1377
p597
aVISIS-1376
p598
aVISIS-1375
p599
aVISIS-1374
p600
aVISIS-1373
p601
aVISIS-1372
p602
aVISIS-1371
p603
aVISIS-1370
p604
aVISIS-1369
p605
aVISIS-1368
p606
aVISIS-1367
p607
aVISIS-1366
p608
aVISIS-1365
p609
aVISIS-1364
p610
aVISIS-1363
p611
aVISIS-1362
p612
aVISIS-1361
p613
aVISIS-1360
p614
aVISIS-1359
p615
aVISIS-1358
p616
aVISIS-1357
p617
aVISIS-1356
p618
aVISIS-1355
p619
aVISIS-1354
p620
aVISIS-1353
p621
aVISIS-1352
p622
aVISIS-1351
p623
aVISIS-1350
p624
aVISIS-1349
p625
aVISIS-1348
p626
aVISIS-1347
p627
aVISIS-1346
p628
aVISIS-1345
p629
aVISIS-1344
p630
aVISIS-1343
p631
aVISIS-1342
p632
aVISIS-1341
p633
aVISIS-1340
p634
aVISIS-1339
p635
aVISIS-1338
p636
aVISIS-1337
p637
aVISIS-1336
p638
aVISIS-1335
p639
aVISIS-1334
p640
aVISIS-1333
p641
aVISIS-1332
p642
aVISIS-1331
p643
aVISIS-1330
p644
aVISIS-1329
p645
aVISIS-1328
p646
aVISIS-1327
p647
aVISIS-1326
p648
aVISIS-1325
p649
aVISIS-1324
p650
aVISIS-1323
p651
aVISIS-1322
p652
aVISIS-1321
p653
aVISIS-1320
p654
aVISIS-1319
p655
aVISIS-1318
p656
aVISIS-1317
p657
aVISIS-1316
p658
aVISIS-1315
p659
aVISIS-1314
p660
aVISIS-1313
p661
aVISIS-1312
p662
aVISIS-1311
p663
aVISIS-1310
p664
aVISIS-1309
p665
aVISIS-1308
p666
aVISIS-1307
p667
aVISIS-1306
p668
aVISIS-1305
p669
aVISIS-1304
p670
aVISIS-1303
p671
aVISIS-1302
p672
aVISIS-1301
p673
aVISIS-1300
p674
aVISIS-1299
p675
aVISIS-1298
p676
aVISIS-1297
p677
aVISIS-1296
p678
aVISIS-1295
p679
aVISIS-1294
p680
aVISIS-1293
p681
aVISIS-1292
p682
aVISIS-1291
p683
aVISIS-1290
p684
aVISIS-1289
p685
aVISIS-1288
p686
aVISIS-1287
p687
aVISIS-1286
p688
aVISIS-1285
p689
aVISIS-1284
p690
aVISIS-1283
p691
aVISIS-1282
p692
aVISIS-1281
p693
aVISIS-1280
p694
aVISIS-1279
p695
aVISIS-1278
p696
aVISIS-1277
p697
aVISIS-1276
p698
aVISIS-1275
p699
aVISIS-1274
p700
aVISIS-1273
p701
aVISIS-1272
p702
aVISIS-1271
p703
aVISIS-1270
p704
aVISIS-1269
p705
aVISIS-1268
p706
aVISIS-1267
p707
aVISIS-1266
p708
aVISIS-1265
p709
aVISIS-1264
p710
aVISIS-1263
p711
aVISIS-1262
p712
aVISIS-1261
p713
aVISIS-1260
p714
aVISIS-1259
p715
aVISIS-1258
p716
aVISIS-1257
p717
aVISIS-1256
p718
aVISIS-1255
p719
aVISIS-1254
p720
aVISIS-1253
p721
aVISIS-1252
p722
aVISIS-1251
p723
aVISIS-1250
p724
aVISIS-1249
p725
aVISIS-1248
p726
aVISIS-1247
p727
aVISIS-1246
p728
aVISIS-1245
p729
aVISIS-1244
p730
aVISIS-1243
p731
aVISIS-1242
p732
aVISIS-1241
p733
aVISIS-1240
p734
aVISIS-1239
p735
aVISIS-1238
p736
aVISIS-1237
p737
aVISIS-1236
p738
aVISIS-1235
p739
aVISIS-1234
p740
aVISIS-1233
p741
aVISIS-1232
p742
aVISIS-1231
p743
aVISIS-1230
p744
aVISIS-1229
p745
aVISIS-1228
p746
aVISIS-1227
p747
aVISIS-1226
p748
aVISIS-1225
p749
aVISIS-1224
p750
aVISIS-1223
p751
aVISIS-1222
p752
aVISIS-1221
p753
aVISIS-1220
p754
aVISIS-1219
p755
aVISIS-1218
p756
aVISIS-1217
p757
aVISIS-1216
p758
aVISIS-1215
p759
aVISIS-1214
p760
aVISIS-1213
p761
aVISIS-1211
p762
aVISIS-1210
p763
aVISIS-1209
p764
aVISIS-1208
p765
aVISIS-1207
p766
aVISIS-1206
p767
aVISIS-1205
p768
aVISIS-1204
p769
aVISIS-1203
p770
aVISIS-1202
p771
aVISIS-1201
p772
aVISIS-1200
p773
aVISIS-1199
p774
aVISIS-1198
p775
aVISIS-1197
p776
aVISIS-1196
p777
aVISIS-1195
p778
aVISIS-1194
p779
aVISIS-1193
p780
aVISIS-1192
p781
aVISIS-1191
p782
aVISIS-1190
p783
aVISIS-1189
p784
aVISIS-1188
p785
aVISIS-1187
p786
aVISIS-1186
p787
aVISIS-1185
p788
aVISIS-1184
p789
aVISIS-1183
p790
aVISIS-1182
p791
aVISIS-1181
p792
aVISIS-1180
p793
aVISIS-1179
p794
aVISIS-1178
p795
aVISIS-1177
p796
aVISIS-1176
p797
aVISIS-1175
p798
aVISIS-1174
p799
aVISIS-1173
p800
aVISIS-1172
p801
aVISIS-1171
p802
aVISIS-1170
p803
aVISIS-1169
p804
aVISIS-1168
p805
aVISIS-1167
p806
aVISIS-1166
p807
aVISIS-1165
p808
aVISIS-1164
p809
aVISIS-1163
p810
aVISIS-1162
p811
aVISIS-1161
p812
aVISIS-1160
p813
aVISIS-1159
p814
aVISIS-1158
p815
aVISIS-1157
p816
aVISIS-1156
p817
aVISIS-1155
p818
aVISIS-1154
p819
aVISIS-1153
p820
aVISIS-1152
p821
aVISIS-1151
p822
aVISIS-1150
p823
aVISIS-1149
p824
aVISIS-1148
p825
aVISIS-1147
p826
aVISIS-1146
p827
aVISIS-1145
p828
aVISIS-1144
p829
aVISIS-1143
p830
aVISIS-1142
p831
aVISIS-1141
p832
aVISIS-1140
p833
aVISIS-1139
p834
aVISIS-1138
p835
aVISIS-1137
p836
aVISIS-1136
p837
aVISIS-1135
p838
aVISIS-1134
p839
aVISIS-1133
p840
aVISIS-1132
p841
aVISIS-1131
p842
aVISIS-1130
p843
aVISIS-1129
p844
aVISIS-1128
p845
aVISIS-1127
p846
aVISIS-1126
p847
aVISIS-1125
p848
aVISIS-1124
p849
aVISIS-1123
p850
aVISIS-1122
p851
aVISIS-1121
p852
aVISIS-1120
p853
aVISIS-1119
p854
aVISIS-1118
p855
aVISIS-1117
p856
aVISIS-1116
p857
aVISIS-1115
p858
aVISIS-1114
p859
aVISIS-1113
p860
aVISIS-1112
p861
aVISIS-1111
p862
aVISIS-1110
p863
aVISIS-1109
p864
aVISIS-1108
p865
aVISIS-1107
p866
aVISIS-1106
p867
aVISIS-1105
p868
aVISIS-1104
p869
aVISIS-1103
p870
aVISIS-1102
p871
aVISIS-1101
p872
aVISIS-1100
p873
aVISIS-1099
p874
aVISIS-1098
p875
aVISIS-1097
p876
aVISIS-1096
p877
aVISIS-1095
p878
aVISIS-1094
p879
aVISIS-1093
p880
aVISIS-1092
p881
aVISIS-1091
p882
aVISIS-1090
p883
aVISIS-1089
p884
aVISIS-1088
p885
aVISIS-1087
p886
aVISIS-1086
p887
aVISIS-1085
p888
aVISIS-1084
p889
aVISIS-1083
p890
aVISIS-1082
p891
aVISIS-1081
p892
aVISIS-1080
p893
aVISIS-1079
p894
aVISIS-1078
p895
aVISIS-1077
p896
aVISIS-1076
p897
aVISIS-1075
p898
aVISIS-1074
p899
aVISIS-1073
p900
aVISIS-1072
p901
aVISIS-1071
p902
aVISIS-1070
p903
aVISIS-1069
p904
aVISIS-1068
p905
aVISIS-1067
p906
aVISIS-1066
p907
aVISIS-1065
p908
aVISIS-1064
p909
aVISIS-1063
p910
aVISIS-1062
p911
aVISIS-1061
p912
aVISIS-1060
p913
aVISIS-1059
p914
aVISIS-1058
p915
aVISIS-1057
p916
aVISIS-1056
p917
aVISIS-1055
p918
aVISIS-1054
p919
aVISIS-1053
p920
aVISIS-1052
p921
aVISIS-1051
p922
aVISIS-1050
p923
aVISIS-1049
p924
aVISIS-1048
p925
aVISIS-1047
p926
aVISIS-1046
p927
aVISIS-1045
p928
aVISIS-1044
p929
aVISIS-1043
p930
aVISIS-1042
p931
aVISIS-1041
p932
aVISIS-1040
p933
aVISIS-1039
p934
aVISIS-1038
p935
aVISIS-1037
p936
aVISIS-1036
p937
aVISIS-1035
p938
aVISIS-1034
p939
aVISIS-1033
p940
aVISIS-1032
p941
aVISIS-1031
p942
aVISIS-1030
p943
aVISIS-1029
p944
aVISIS-1028
p945
aVISIS-1027
p946
aVISIS-1026
p947
aVISIS-1025
p948
aVISIS-1024
p949
aVISIS-1023
p950
aVISIS-1022
p951
aVISIS-1021
p952
aVISIS-1020
p953
aVISIS-1019
p954
aVISIS-1018
p955
aVISIS-1017
p956
aVISIS-1016
p957
aVISIS-1015
p958
aVISIS-1014
p959
aVISIS-1013
p960
aVISIS-1012
p961
aVISIS-1011
p962
aVISIS-1010
p963
aVISIS-1009
p964
aVISIS-1008
p965
aVISIS-1007
p966
aVISIS-1006
p967
aVISIS-1005
p968
aVISIS-1004
p969
aVISIS-1003
p970
aVISIS-1002
p971
aVISIS-1001
p972
aVISIS-1000
p973
aVISIS-999
p974
aVISIS-998
p975
aVISIS-997
p976
aVISIS-996
p977
aVISIS-995
p978
aVISIS-994
p979
aVISIS-993
p980
aVISIS-992
p981
aVISIS-991
p982
aVISIS-990
p983
aVISIS-989
p984
aVISIS-988
p985
aVISIS-987
p986
aVISIS-986
p987
aVISIS-985
p988
aVISIS-984
p989
aVISIS-983
p990
aVISIS-982
p991
aVISIS-981
p992
aVISIS-980
p993
aVISIS-979
p994
aVISIS-978
p995
aVISIS-977
p996
aVISIS-976
p997
aVISIS-975
p998
aVISIS-974
p999
aVISIS-973
p1000
aVISIS-972
p1001
aVISIS-971
p1002
aVISIS-970
p1003
aVISIS-969
p1004
aVISIS-968
p1005
aVISIS-967
p1006
aVISIS-966
p1007
aVISIS-965
p1008
aVISIS-964
p1009
aVISIS-963
p1010
aVISIS-962
p1011
aVISIS-961
p1012
aVISIS-960
p1013
aVISIS-959
p1014
aVISIS-958
p1015
aVISIS-957
p1016
aVISIS-956
p1017
aVISIS-955
p1018
aVISIS-954
p1019
aVISIS-953
p1020
aVISIS-952
p1021
aVISIS-951
p1022
aVISIS-950
p1023
aVISIS-949
p1024
aVISIS-948
p1025
aVISIS-947
p1026
aVISIS-946
p1027
aVISIS-945
p1028
aVISIS-944
p1029
aVISIS-943
p1030
aVISIS-942
p1031
aVISIS-941
p1032
aVISIS-940
p1033
aVISIS-939
p1034
aVISIS-938
p1035
aVISIS-937
p1036
aVISIS-936
p1037
aVISIS-935
p1038
aVISIS-934
p1039
aVISIS-933
p1040
aVISIS-932
p1041
aVISIS-931
p1042
aVISIS-930
p1043
aVISIS-929
p1044
aVISIS-928
p1045
aVISIS-927
p1046
aVISIS-926
p1047
aVISIS-925
p1048
aVISIS-924
p1049
aVISIS-923
p1050
aVISIS-922
p1051
aVISIS-921
p1052
aVISIS-920
p1053
aVISIS-919
p1054
aVISIS-918
p1055
aVISIS-917
p1056
aVISIS-916
p1057
aVISIS-915
p1058
aVISIS-914
p1059
aVISIS-913
p1060
aVISIS-912
p1061
aVISIS-911
p1062
aVISIS-910
p1063
aVISIS-909
p1064
aVISIS-908
p1065
aVISIS-907
p1066
aVISIS-906
p1067
aVISIS-905
p1068
aVISIS-904
p1069
aVISIS-903
p1070
aVISIS-902
p1071
aVISIS-901
p1072
aVISIS-900
p1073
aVISIS-899
p1074
aVISIS-898
p1075
aVISIS-897
p1076
aVISIS-896
p1077
aVISIS-895
p1078
aVISIS-894
p1079
aVISIS-893
p1080
aVISIS-892
p1081
aVISIS-891
p1082
aVISIS-890
p1083
aVISIS-889
p1084
aVISIS-888
p1085
aVISIS-887
p1086
aVISIS-886
p1087
aVISIS-885
p1088
aVISIS-884
p1089
aVISIS-883
p1090
aVISIS-882
p1091
aVISIS-881
p1092
aVISIS-880
p1093
aVISIS-879
p1094
aVISIS-878
p1095
aVISIS-877
p1096
aVISIS-876
p1097
aVISIS-875
p1098
aVISIS-874
p1099
aVISIS-873
p1100
aVISIS-872
p1101
aVISIS-871
p1102
aVISIS-870
p1103
aVISIS-869
p1104
aVISIS-868
p1105
aVISIS-867
p1106
aVISIS-866
p1107
aVISIS-865
p1108
aVISIS-864
p1109
aVISIS-863
p1110
aVISIS-862
p1111
aVISIS-861
p1112
aVISIS-860
p1113
aVISIS-859
p1114
aVISIS-858
p1115
aVISIS-857
p1116
aVISIS-856
p1117
aVISIS-855
p1118
aVISIS-854
p1119
aVISIS-853
p1120
aVISIS-852
p1121
aVISIS-851
p1122
aVISIS-850
p1123
aVISIS-849
p1124
aVISIS-848
p1125
aVISIS-847
p1126
aVISIS-846
p1127
aVISIS-845
p1128
aVISIS-844
p1129
aVISIS-843
p1130
aVISIS-842
p1131
aVISIS-841
p1132
aVISIS-840
p1133
aVISIS-839
p1134
aVISIS-838
p1135
aVISIS-837
p1136
aVISIS-836
p1137
aVISIS-835
p1138
aVISIS-834
p1139
aVISIS-833
p1140
aVISIS-832
p1141
aVISIS-831
p1142
aVISIS-830
p1143
aVISIS-829
p1144
aVISIS-828
p1145
aVISIS-827
p1146
aVISIS-826
p1147
aVISIS-825
p1148
aVISIS-824
p1149
aVISIS-823
p1150
aVISIS-822
p1151
aVISIS-821
p1152
aVISIS-820
p1153
aVISIS-819
p1154
aVISIS-818
p1155
aVISIS-817
p1156
aVISIS-816
p1157
aVISIS-815
p1158
aVISIS-814
p1159
aVISIS-813
p1160
aVISIS-812
p1161
aVISIS-811
p1162
aVISIS-810
p1163
aVISIS-809
p1164
aVISIS-808
p1165
aVISIS-807
p1166
aVISIS-806
p1167
aVISIS-805
p1168
aVISIS-804
p1169
aVISIS-803
p1170
aVISIS-802
p1171
aVISIS-801
p1172
aVISIS-800
p1173
aVISIS-799
p1174
aVISIS-798
p1175
aVISIS-797
p1176
aVISIS-796
p1177
aVISIS-795
p1178
aVISIS-794
p1179
aVISIS-793
p1180
aVISIS-792
p1181
aVISIS-791
p1182
aVISIS-790
p1183
aVISIS-789
p1184
aVISIS-788
p1185
aVISIS-787
p1186
aVISIS-786
p1187
aVISIS-785
p1188
aVISIS-784
p1189
aVISIS-783
p1190
aVISIS-782
p1191
aVISIS-781
p1192
aVISIS-780
p1193
aVISIS-779
p1194
aVISIS-778
p1195
aVISIS-777
p1196
aVISIS-776
p1197
aVISIS-775
p1198
aVISIS-774
p1199
aVISIS-773
p1200
aVISIS-772
p1201
aVISIS-771
p1202
aVISIS-770
p1203
aVISIS-769
p1204
aVISIS-768
p1205
aVISIS-767
p1206
aVISIS-766
p1207
aVISIS-765
p1208
aVISIS-764
p1209
aVISIS-763
p1210
aVISIS-762
p1211
aVISIS-761
p1212
aVISIS-760
p1213
aVISIS-759
p1214
aVISIS-758
p1215
aVISIS-757
p1216
aVISIS-756
p1217
aVISIS-755
p1218
aVISIS-754
p1219
aVISIS-753
p1220
aVISIS-752
p1221
aVISIS-751
p1222
aVISIS-750
p1223
aVISIS-749
p1224
aVISIS-748
p1225
aVISIS-747
p1226
aVISIS-746
p1227
aVISIS-745
p1228
aVISIS-744
p1229
aVISIS-743
p1230
aVISIS-742
p1231
aVISIS-741
p1232
aVISIS-740
p1233
aVISIS-739
p1234
aVISIS-738
p1235
aVISIS-737
p1236
aVISIS-736
p1237
aVISIS-735
p1238
aVISIS-734
p1239
aVISIS-733
p1240
aVISIS-732
p1241
aVISIS-731
p1242
aVISIS-730
p1243
aVISIS-729
p1244
aVISIS-728
p1245
aVISIS-727
p1246
aVISIS-726
p1247
aVISIS-725
p1248
aVISIS-724
p1249
aVISIS-723
p1250
aVISIS-722
p1251
aVISIS-721
p1252
aVISIS-720
p1253
aVISIS-719
p1254
aVISIS-718
p1255
aVISIS-717
p1256
aVISIS-716
p1257
aVISIS-715
p1258
aVISIS-714
p1259
aVISIS-713
p1260
aVISIS-712
p1261
aVISIS-711
p1262
aVISIS-710
p1263
aVISIS-709
p1264
aVISIS-708
p1265
aVISIS-707
p1266
aVISIS-706
p1267
aVISIS-705
p1268
aVISIS-704
p1269
aVISIS-703
p1270
aVISIS-702
p1271
aVISIS-701
p1272
aVISIS-700
p1273
aVISIS-699
p1274
aVISIS-698
p1275
aVISIS-697
p1276
aVISIS-696
p1277
aVISIS-695
p1278
aVISIS-694
p1279
aVISIS-693
p1280
aVISIS-692
p1281
aVISIS-691
p1282
aVISIS-690
p1283
aVISIS-689
p1284
aVISIS-688
p1285
aVISIS-687
p1286
aVISIS-686
p1287
aVISIS-685
p1288
aVISIS-684
p1289
aVISIS-683
p1290
aVISIS-682
p1291
aVISIS-681
p1292
aVISIS-680
p1293
aVISIS-679
p1294
aVISIS-678
p1295
aVISIS-677
p1296
aVISIS-676
p1297
aVISIS-675
p1298
aVISIS-674
p1299
aVISIS-673
p1300
aVISIS-672
p1301
aVISIS-671
p1302
aVISIS-670
p1303
aVISIS-669
p1304
aVISIS-668
p1305
aVISIS-667
p1306
aVISIS-666
p1307
aVISIS-665
p1308
aVISIS-664
p1309
aVISIS-663
p1310
aVISIS-662
p1311
aVISIS-661
p1312
aVISIS-660
p1313
aVISIS-659
p1314
aVISIS-658
p1315
aVISIS-657
p1316
aVISIS-656
p1317
aVISIS-655
p1318
aVISIS-654
p1319
aVISIS-653
p1320
aVISIS-652
p1321
aVISIS-651
p1322
aVISIS-650
p1323
aVISIS-649
p1324
aVISIS-648
p1325
aVISIS-647
p1326
aVISIS-646
p1327
aVISIS-645
p1328
aVISIS-644
p1329
aVISIS-643
p1330
aVISIS-642
p1331
aVISIS-641
p1332
aVISIS-640
p1333
aVISIS-639
p1334
aVISIS-638
p1335
aVISIS-637
p1336
aVISIS-636
p1337
aVISIS-635
p1338
aVISIS-634
p1339
aVISIS-633
p1340
aVISIS-632
p1341
aVISIS-631
p1342
aVISIS-630
p1343
aVISIS-629
p1344
aVISIS-628
p1345
aVISIS-627
p1346
aVISIS-626
p1347
aVISIS-625
p1348
aVISIS-624
p1349
aVISIS-623
p1350
aVISIS-622
p1351
aVISIS-621
p1352
aVISIS-620
p1353
aVISIS-619
p1354
aVISIS-618
p1355
aVISIS-617
p1356
aVISIS-616
p1357
aVISIS-615
p1358
aVISIS-614
p1359
aVISIS-613
p1360
aVISIS-612
p1361
aVISIS-611
p1362
aVISIS-610
p1363
aVISIS-609
p1364
aVISIS-608
p1365
aVISIS-607
p1366
aVISIS-606
p1367
aVISIS-605
p1368
aVISIS-604
p1369
aVISIS-603
p1370
aVISIS-602
p1371
aVISIS-601
p1372
aVISIS-600
p1373
aVISIS-599
p1374
aVISIS-598
p1375
aVISIS-597
p1376
aVISIS-596
p1377
aVISIS-595
p1378
aVISIS-594
p1379
aVISIS-593
p1380
aVISIS-592
p1381
aVISIS-591
p1382
aVISIS-590
p1383
aVISIS-589
p1384
aVISIS-588
p1385
aVISIS-587
p1386
aVISIS-586
p1387
aVISIS-585
p1388
aVISIS-584
p1389
aVISIS-583
p1390
aVISIS-582
p1391
aVISIS-581
p1392
aVISIS-580
p1393
aVISIS-579
p1394
aVISIS-578
p1395
aVISIS-577
p1396
aVISIS-576
p1397
aVISIS-575
p1398
aVISIS-574
p1399
aVISIS-573
p1400
aVISIS-572
p1401
aVISIS-571
p1402
aVISIS-570
p1403
aVISIS-569
p1404
aVISIS-568
p1405
aVISIS-567
p1406
aVISIS-566
p1407
aVISIS-565
p1408
aVISIS-564
p1409
aVISIS-563
p1410
aVISIS-562
p1411
aVISIS-561
p1412
aVISIS-560
p1413
aVISIS-559
p1414
aVISIS-558
p1415
aVISIS-557
p1416
aVISIS-556
p1417
aVISIS-555
p1418
aVISIS-554
p1419
aVISIS-553
p1420
aVISIS-552
p1421
aVISIS-551
p1422
aVISIS-550
p1423
aVISIS-549
p1424
aVISIS-548
p1425
aVISIS-547
p1426
aVISIS-546
p1427
aVISIS-545
p1428
aVISIS-544
p1429
aVISIS-543
p1430
aVISIS-542
p1431
aVISIS-541
p1432
aVISIS-540
p1433
aVISIS-539
p1434
aVISIS-538
p1435
aVISIS-537
p1436
aVISIS-536
p1437
aVISIS-535
p1438
aVISIS-534
p1439
aVISIS-533
p1440
aVISIS-532
p1441
aVISIS-531
p1442
aVISIS-530
p1443
aVISIS-529
p1444
aVISIS-528
p1445
aVISIS-527
p1446
aVISIS-526
p1447
aVISIS-525
p1448
aVISIS-524
p1449
aVISIS-523
p1450
aVISIS-522
p1451
aVISIS-521
p1452
aVISIS-520
p1453
aVISIS-519
p1454
aVISIS-518
p1455
aVISIS-517
p1456
aVISIS-516
p1457
aVISIS-515
p1458
aVISIS-514
p1459
aVISIS-513
p1460
aVISIS-512
p1461
aVISIS-511
p1462
aVISIS-510
p1463
aVISIS-509
p1464
aVISIS-508
p1465
aVISIS-507
p1466
aVISIS-506
p1467
aVISIS-505
p1468
aVISIS-504
p1469
aVISIS-503
p1470
aVISIS-502
p1471
aVISIS-501
p1472
aVISIS-500
p1473
aVISIS-499
p1474
aVISIS-498
p1475
aVISIS-497
p1476
aVISIS-496
p1477
aVISIS-495
p1478
aVISIS-494
p1479
aVISIS-493
p1480
aVISIS-492
p1481
aVISIS-491
p1482
aVISIS-490
p1483
aVISIS-489
p1484
aVISIS-488
p1485
aVISIS-487
p1486
aVISIS-486
p1487
aVISIS-485
p1488
aVISIS-484
p1489
aVISIS-483
p1490
aVISIS-482
p1491
aVISIS-481
p1492
aVISIS-480
p1493
aVISIS-479
p1494
aVISIS-478
p1495
aVISIS-477
p1496
aVISIS-476
p1497
aVISIS-475
p1498
aVISIS-474
p1499
aVISIS-473
p1500
aVISIS-472
p1501
aVISIS-471
p1502
aVISIS-470
p1503
aVISIS-469
p1504
aVISIS-468
p1505
aVISIS-467
p1506
aVISIS-466
p1507
aVISIS-465
p1508
aVISIS-464
p1509
aVISIS-463
p1510
aVISIS-462
p1511
aVISIS-461
p1512
aVISIS-460
p1513
aVISIS-459
p1514
aVISIS-458
p1515
aVISIS-457
p1516
aVISIS-456
p1517
aVISIS-455
p1518
aVISIS-454
p1519
aVISIS-453
p1520
aVISIS-452
p1521
aVISIS-451
p1522
aVISIS-450
p1523
aVISIS-449
p1524
aVISIS-448
p1525
aVISIS-447
p1526
aVISIS-446
p1527
aVISIS-445
p1528
aVISIS-444
p1529
aVISIS-443
p1530
aVISIS-442
p1531
aVISIS-441
p1532
aVISIS-440
p1533
aVISIS-439
p1534
aVISIS-438
p1535
aVISIS-437
p1536
aVISIS-436
p1537
aVISIS-435
p1538
aVISIS-434
p1539
aVISIS-433
p1540
aVISIS-432
p1541
aVISIS-431
p1542
aVISIS-430
p1543
aVISIS-429
p1544
aVISIS-428
p1545
aVISIS-427
p1546
aVISIS-426
p1547
aVISIS-425
p1548
aVISIS-424
p1549
aVISIS-423
p1550
aVISIS-422
p1551
aVISIS-421
p1552
aVISIS-420
p1553
aVISIS-419
p1554
aVISIS-418
p1555
aVISIS-417
p1556
aVISIS-416
p1557
aVISIS-415
p1558
aVISIS-414
p1559
aVISIS-413
p1560
aVISIS-412
p1561
aVISIS-411
p1562
aVISIS-410
p1563
aVISIS-409
p1564
aVISIS-408
p1565
aVISIS-407
p1566
aVISIS-406
p1567
aVISIS-405
p1568
aVISIS-404
p1569
aVISIS-403
p1570
aVISIS-402
p1571
aVISIS-401
p1572
aVISIS-400
p1573
aVISIS-399
p1574
aVISIS-398
p1575
aVISIS-397
p1576
aVISIS-396
p1577
aVISIS-395
p1578
aVISIS-394
p1579
aVISIS-393
p1580
aVISIS-392
p1581
aVISIS-391
p1582
aVISIS-390
p1583
aVISIS-389
p1584
aVISIS-388
p1585
aVISIS-387
p1586
aVISIS-386
p1587
aVISIS-385
p1588
aVISIS-384
p1589
aVISIS-383
p1590
aVISIS-382
p1591
aVISIS-381
p1592
aVISIS-380
p1593
aVISIS-379
p1594
aVISIS-378
p1595
aVISIS-377
p1596
aVISIS-376
p1597
aVISIS-375
p1598
aVISIS-374
p1599
aVISIS-373
p1600
aVISIS-372
p1601
aVISIS-371
p1602
aVISIS-370
p1603
aVISIS-369
p1604
aVISIS-368
p1605
aVISIS-367
p1606
aVISIS-366
p1607
aVISIS-365
p1608
aVISIS-364
p1609
aVISIS-363
p1610
aVISIS-362
p1611
aVISIS-361
p1612
aVISIS-360
p1613
aVISIS-359
p1614
aVISIS-358
p1615
aVISIS-357
p1616
aVISIS-356
p1617
aVISIS-355
p1618
aVISIS-354
p1619
aVISIS-353
p1620
aVISIS-352
p1621
aVISIS-351
p1622
aVISIS-350
p1623
aVISIS-349
p1624
aVISIS-348
p1625
aVISIS-347
p1626
aVISIS-346
p1627
aVISIS-345
p1628
aVISIS-344
p1629
aVISIS-343
p1630
aVISIS-342
p1631
aVISIS-341
p1632
aVISIS-340
p1633
aVISIS-339
p1634
aVISIS-338
p1635
aVISIS-337
p1636
aVISIS-336
p1637
aVISIS-335
p1638
aVISIS-334
p1639
aVISIS-333
p1640
aVISIS-332
p1641
aVISIS-331
p1642
aVISIS-330
p1643
aVISIS-329
p1644
aVISIS-328
p1645
aVISIS-327
p1646
aVISIS-326
p1647
aVISIS-325
p1648
aVISIS-324
p1649
aVISIS-323
p1650
aVISIS-322
p1651
aVISIS-321
p1652
aVISIS-320
p1653
aVISIS-319
p1654
aVISIS-318
p1655
aVISIS-317
p1656
aVISIS-316
p1657
aVISIS-315
p1658
aVISIS-314
p1659
aVISIS-313
p1660
aVISIS-312
p1661
aVISIS-311
p1662
aVISIS-310
p1663
aVISIS-309
p1664
aVISIS-308
p1665
aVISIS-307
p1666
aVISIS-306
p1667
aVISIS-305
p1668
aVISIS-304
p1669
aVISIS-303
p1670
aVISIS-302
p1671
aVISIS-301
p1672
aVISIS-300
p1673
aVISIS-299
p1674
aVISIS-298
p1675
aVISIS-297
p1676
aVISIS-296
p1677
aVISIS-295
p1678
aVISIS-294
p1679
aVISIS-293
p1680
aVISIS-292
p1681
aVISIS-291
p1682
aVISIS-290
p1683
aVISIS-289
p1684
aVISIS-288
p1685
aVISIS-287
p1686
aVISIS-286
p1687
aVISIS-285
p1688
aVISIS-284
p1689
aVISIS-283
p1690
aVISIS-282
p1691
aVISIS-281
p1692
aVISIS-280
p1693
aVISIS-279
p1694
aVISIS-278
p1695
aVISIS-277
p1696
aVISIS-276
p1697
aVISIS-275
p1698
aVISIS-274
p1699
aVISIS-273
p1700
aVISIS-272
p1701
aVISIS-271
p1702
aVISIS-270
p1703
aVISIS-269
p1704
aVISIS-268
p1705
aVISIS-267
p1706
aVISIS-266
p1707
aVISIS-265
p1708
aVISIS-264
p1709
aVISIS-263
p1710
aVISIS-262
p1711
aVISIS-261
p1712
aVISIS-260
p1713
aVISIS-259
p1714
aVISIS-258
p1715
aVISIS-257
p1716
aVISIS-256
p1717
aVISIS-255
p1718
aVISIS-254
p1719
aVISIS-253
p1720
aVISIS-252
p1721
aVISIS-251
p1722
aVISIS-250
p1723
aVISIS-249
p1724
aVISIS-248
p1725
aVISIS-247
p1726
aVISIS-246
p1727
aVISIS-245
p1728
aVISIS-244
p1729
aVISIS-243
p1730
aVISIS-242
p1731
aVISIS-241
p1732
aVISIS-240
p1733
aVISIS-239
p1734
aVISIS-238
p1735
aVISIS-237
p1736
aVISIS-236
p1737
aVISIS-235
p1738
aVISIS-234
p1739
aVISIS-233
p1740
aVISIS-232
p1741
aVISIS-231
p1742
aVISIS-230
p1743
aVISIS-229
p1744
aVISIS-228
p1745
aVISIS-227
p1746
aVISIS-226
p1747
aVISIS-225
p1748
aVISIS-224
p1749
aVISIS-223
p1750
aVISIS-222
p1751
aVISIS-221
p1752
aVISIS-220
p1753
aVISIS-219
p1754
aVISIS-218
p1755
aVISIS-217
p1756
aVISIS-216
p1757
aVISIS-215
p1758
aVISIS-214
p1759
aVISIS-213
p1760
aVISIS-212
p1761
aVISIS-211
p1762
aVISIS-210
p1763
aVISIS-209
p1764
aVISIS-208
p1765
aVISIS-207
p1766
aVISIS-206
p1767
aVISIS-205
p1768
aVISIS-204
p1769
aVISIS-203
p1770
aVISIS-202
p1771
aVISIS-201
p1772
aVISIS-200
p1773
aVISIS-199
p1774
aVISIS-198
p1775
aVISIS-197
p1776
aVISIS-196
p1777
aVISIS-195
p1778
aVISIS-194
p1779
aVISIS-193
p1780
aVISIS-192
p1781
aVISIS-191
p1782
aVISIS-190
p1783
aVISIS-189
p1784
aVISIS-188
p1785
aVISIS-187
p1786
aVISIS-186
p1787
aVISIS-185
p1788
aVISIS-184
p1789
aVISIS-183
p1790
aVISIS-182
p1791
aVISIS-181
p1792
aVISIS-180
p1793
aVISIS-179
p1794
aVISIS-178
p1795
aVISIS-177
p1796
aVISIS-176
p1797
aVISIS-175
p1798
aVISIS-174
p1799
aVISIS-173
p1800
aVISIS-172
p1801
aVISIS-171
p1802
aVISIS-170
p1803
aVISIS-169
p1804
aVISIS-168
p1805
aVISIS-167
p1806
aVISIS-166
p1807
aVISIS-165
p1808
aVISIS-164
p1809
aVISIS-163
p1810
aVISIS-162
p1811
aVISIS-161
p1812
aVISIS-160
p1813
aVISIS-159
p1814
aVISIS-158
p1815
aVISIS-157
p1816
aVISIS-156
p1817
aVISIS-155
p1818
aVISIS-154
p1819
aVISIS-153
p1820
aVISIS-152
p1821
aVISIS-151
p1822
aVISIS-150
p1823
aVISIS-149
p1824
aVISIS-148
p1825
aVISIS-147
p1826
aVISIS-146
p1827
aVISIS-145
p1828
aVISIS-144
p1829
aVISIS-143
p1830
aVISIS-142
p1831
aVISIS-141
p1832
aVISIS-140
p1833
aVISIS-139
p1834
aVISIS-138
p1835
aVISIS-137
p1836
aVISIS-136
p1837
aVISIS-135
p1838
aVISIS-134
p1839
aVISIS-133
p1840
aVISIS-132
p1841
aVISIS-131
p1842
aVISIS-130
p1843
aVISIS-129
p1844
aVISIS-128
p1845
aVISIS-127
p1846
aVISIS-126
p1847
aVISIS-125
p1848
aVISIS-124
p1849
aVISIS-123
p1850
aVISIS-122
p1851
aVISIS-121
p1852
aVISIS-120
p1853
aVISIS-119
p1854
aVISIS-118
p1855
aVISIS-117
p1856
aVISIS-116
p1857
aVISIS-115
p1858
aVISIS-114
p1859
aVISIS-113
p1860
aVISIS-112
p1861
aVISIS-111
p1862
aVISIS-110
p1863
aVISIS-109
p1864
aVISIS-108
p1865
aVISIS-107
p1866
aVISIS-106
p1867
aVISIS-105
p1868
aVISIS-104
p1869
aVISIS-103
p1870
aVISIS-102
p1871
aVISIS-101
p1872
aVISIS-100
p1873
aVISIS-99
p1874
aVISIS-98
p1875
aVISIS-97
p1876
aVISIS-96
p1877
aVISIS-95
p1878
aVISIS-94
p1879
aVISIS-93
p1880
aVISIS-92
p1881
aVISIS-91
p1882
aVISIS-90
p1883
aVISIS-89
p1884
aVISIS-88
p1885
aVISIS-87
p1886
aVISIS-86
p1887
aVISIS-85
p1888
aVISIS-84
p1889
aVISIS-83
p1890
aVISIS-82
p1891
aVISIS-81
p1892
aVISIS-80
p1893
aVISIS-79
p1894
aVISIS-78
p1895
aVISIS-77
p1896
aVISIS-76
p1897
aVISIS-75
p1898
aVISIS-74
p1899
aVISIS-73
p1900
aVISIS-72
p1901
aVISIS-71
p1902
aVISIS-70
p1903
aVISIS-69
p1904
aVISIS-68
p1905
aVISIS-67
p1906
aVISIS-66
p1907
aVISIS-65
p1908
aVISIS-64
p1909
aVISIS-63
p1910
aVISIS-62
p1911
aVISIS-61
p1912
aVISIS-60
p1913
aVISIS-59
p1914
aVISIS-58
p1915
aVISIS-57
p1916
aVISIS-56
p1917
aVISIS-55
p1918
aVISIS-54
p1919
aVISIS-53
p1920
aVISIS-52
p1921
aVISIS-51
p1922
aVISIS-50
p1923
aVISIS-49
p1924
aVISIS-48
p1925
aVISIS-47
p1926
aVISIS-46
p1927
aVISIS-45
p1928
aVISIS-44
p1929
aVISIS-43
p1930
aVISIS-42
p1931
aVISIS-41
p1932
aVISIS-40
p1933
aVISIS-39
p1934
aVISIS-38
p1935
aVISIS-37
p1936
aVISIS-36
p1937
aVISIS-35
p1938
aVISIS-34
p1939
aVISIS-33
p1940
aVISIS-32
p1941
aVISIS-31
p1942
aVISIS-30
p1943
aVISIS-29
p1944
aVISIS-28
p1945
aVISIS-27
p1946
aVISIS-26
p1947
aVISIS-25
p1948
aVISIS-24
p1949
aVISIS-23
p1950
aVISIS-22
p1951
aVISIS-21
p1952
aVISIS-20
p1953
aVISIS-19
p1954
aVISIS-18
p1955
aVISIS-17
p1956
aVISIS-16
p1957
aVISIS-15
p1958
aVISIS-14
p1959
aVISIS-13
p1960
aVISIS-12
p1961
aVISIS-11
p1962
aVISIS-10
p1963
aVISIS-9
p1964
aVISIS-8
p1965
aVISIS-7
p1966
aVISIS-6
p1967
aVISIS-5
p1968
aVISIS-4
p1969
aVISIS-3
p1970
aVISIS-2
p1971
aVISIS-1
p1972
a.