(lp0
VJCI-75
p1
aVJCI-74
p2
aVJCI-73
p3
aVJCI-72
p4
aVJCI-71
p5
aVJCI-70
p6
aVJCI-69
p7
aVJCI-68
p8
aVJCI-67
p9
aVJCI-66
p10
aVJCI-65
p11
aVJCI-64
p12
aVJCI-63
p13
aVJCI-62
p14
aVJCI-61
p15
aVJCI-60
p16
aVJCI-59
p17
aVJCI-58
p18
aVJCI-57
p19
aVJCI-56
p20
aVJCI-55
p21
aVJCI-54
p22
aVJCI-53
p23
aVJCI-52
p24
aVJCI-51
p25
aVJCI-50
p26
aVJCI-49
p27
aVJCI-48
p28
aVJCI-47
p29
aVJCI-46
p30
aVJCI-45
p31
aVJCI-44
p32
aVJCI-43
p33
aVJCI-42
p34
aVJCI-41
p35
aVJCI-40
p36
aVJCI-39
p37
aVJCI-38
p38
aVJCI-37
p39
aVJCI-36
p40
aVJCI-35
p41
aVJCI-34
p42
aVJCI-33
p43
aVJCI-32
p44
aVJCI-31
p45
aVJCI-30
p46
aVJCI-29
p47
aVJCI-28
p48
aVJCI-27
p49
aVJCI-26
p50
aVJCI-25
p51
aVJCI-24
p52
aVJCI-23
p53
aVJCI-22
p54
aVJCI-21
p55
aVJCI-20
p56
aVJCI-19
p57
aVJCI-18
p58
aVJCI-17
p59
aVJCI-16
p60
aVJCI-15
p61
aVJCI-14
p62
aVJCI-13
p63
aVJCI-12
p64
aVJCI-11
p65
aVJCI-10
p66
aVJCI-9
p67
aVJCI-8
p68
aVJCI-7
p69
aVJCI-6
p70
aVJCI-5
p71
aVJCI-4
p72
aVJCI-3
p73
aVJCI-2
p74
aVJCI-1
p75
a.