(lp0
VJCRVLT-314
p1
aVJCRVLT-313
p2
aVJCRVLT-312
p3
aVJCRVLT-311
p4
aVJCRVLT-310
p5
aVJCRVLT-309
p6
aVJCRVLT-308
p7
aVJCRVLT-307
p8
aVJCRVLT-306
p9
aVJCRVLT-305
p10
aVJCRVLT-304
p11
aVJCRVLT-303
p12
aVJCRVLT-302
p13
aVJCRVLT-301
p14
aVJCRVLT-300
p15
aVJCRVLT-299
p16
aVJCRVLT-298
p17
aVJCRVLT-297
p18
aVJCRVLT-296
p19
aVJCRVLT-295
p20
aVJCRVLT-294
p21
aVJCRVLT-293
p22
aVJCRVLT-292
p23
aVJCRVLT-291
p24
aVJCRVLT-290
p25
aVJCRVLT-289
p26
aVJCRVLT-288
p27
aVJCRVLT-287
p28
aVJCRVLT-286
p29
aVJCRVLT-285
p30
aVJCRVLT-284
p31
aVJCRVLT-283
p32
aVJCRVLT-282
p33
aVJCRVLT-281
p34
aVJCRVLT-280
p35
aVJCRVLT-279
p36
aVJCRVLT-278
p37
aVJCRVLT-277
p38
aVJCRVLT-276
p39
aVJCRVLT-275
p40
aVJCRVLT-274
p41
aVJCRVLT-273
p42
aVJCRVLT-272
p43
aVJCRVLT-271
p44
aVJCRVLT-270
p45
aVJCRVLT-269
p46
aVJCRVLT-268
p47
aVJCRVLT-267
p48
aVJCRVLT-266
p49
aVJCRVLT-265
p50
aVJCRVLT-264
p51
aVJCRVLT-262
p52
aVJCRVLT-261
p53
aVJCRVLT-260
p54
aVJCRVLT-259
p55
aVJCRVLT-258
p56
aVJCRVLT-257
p57
aVJCRVLT-256
p58
aVJCRVLT-255
p59
aVJCRVLT-254
p60
aVJCRVLT-253
p61
aVJCRVLT-252
p62
aVJCRVLT-251
p63
aVJCRVLT-250
p64
aVJCRVLT-249
p65
aVJCRVLT-248
p66
aVJCRVLT-247
p67
aVJCRVLT-246
p68
aVJCRVLT-245
p69
aVJCRVLT-244
p70
aVJCRVLT-243
p71
aVJCRVLT-242
p72
aVJCRVLT-241
p73
aVJCRVLT-240
p74
aVJCRVLT-239
p75
aVJCRVLT-238
p76
aVJCRVLT-237
p77
aVJCRVLT-236
p78
aVJCRVLT-235
p79
aVJCRVLT-234
p80
aVJCRVLT-233
p81
aVJCRVLT-232
p82
aVJCRVLT-231
p83
aVJCRVLT-230
p84
aVJCRVLT-229
p85
aVJCRVLT-228
p86
aVJCRVLT-227
p87
aVJCRVLT-226
p88
aVJCRVLT-225
p89
aVJCRVLT-224
p90
aVJCRVLT-222
p91
aVJCRVLT-221
p92
aVJCRVLT-220
p93
aVJCRVLT-219
p94
aVJCRVLT-218
p95
aVJCRVLT-217
p96
aVJCRVLT-216
p97
aVJCRVLT-215
p98
aVJCRVLT-214
p99
aVJCRVLT-213
p100
aVJCRVLT-212
p101
aVJCRVLT-211
p102
aVJCRVLT-210
p103
aVJCRVLT-209
p104
aVJCRVLT-208
p105
aVJCRVLT-207
p106
aVJCRVLT-206
p107
aVJCRVLT-205
p108
aVJCRVLT-204
p109
aVJCRVLT-203
p110
aVJCRVLT-202
p111
aVJCRVLT-201
p112
aVJCRVLT-200
p113
aVJCRVLT-199
p114
aVJCRVLT-198
p115
aVJCRVLT-197
p116
aVJCRVLT-196
p117
aVJCRVLT-195
p118
aVJCRVLT-194
p119
aVJCRVLT-193
p120
aVJCRVLT-192
p121
aVJCRVLT-191
p122
aVJCRVLT-190
p123
aVJCRVLT-189
p124
aVJCRVLT-188
p125
aVJCRVLT-187
p126
aVJCRVLT-186
p127
aVJCRVLT-185
p128
aVJCRVLT-184
p129
aVJCRVLT-183
p130
aVJCRVLT-182
p131
aVJCRVLT-181
p132
aVJCRVLT-180
p133
aVJCRVLT-179
p134
aVJCRVLT-178
p135
aVJCRVLT-177
p136
aVJCRVLT-176
p137
aVJCRVLT-175
p138
aVJCRVLT-174
p139
aVJCRVLT-173
p140
aVJCRVLT-172
p141
aVJCRVLT-171
p142
aVJCRVLT-170
p143
aVJCRVLT-169
p144
aVJCRVLT-168
p145
aVJCRVLT-167
p146
aVJCRVLT-166
p147
aVJCRVLT-165
p148
aVJCRVLT-164
p149
aVJCRVLT-163
p150
aVJCRVLT-162
p151
aVJCRVLT-161
p152
aVJCRVLT-160
p153
aVJCRVLT-159
p154
aVJCRVLT-158
p155
aVJCRVLT-157
p156
aVJCRVLT-156
p157
aVJCRVLT-155
p158
aVJCRVLT-154
p159
aVJCRVLT-153
p160
aVJCRVLT-152
p161
aVJCRVLT-151
p162
aVJCRVLT-150
p163
aVJCRVLT-149
p164
aVJCRVLT-148
p165
aVJCRVLT-147
p166
aVJCRVLT-146
p167
aVJCRVLT-145
p168
aVJCRVLT-144
p169
aVJCRVLT-143
p170
aVJCRVLT-142
p171
aVJCRVLT-141
p172
aVJCRVLT-140
p173
aVJCRVLT-139
p174
aVJCRVLT-138
p175
aVJCRVLT-137
p176
aVJCRVLT-136
p177
aVJCRVLT-135
p178
aVJCRVLT-134
p179
aVJCRVLT-133
p180
aVJCRVLT-132
p181
aVJCRVLT-131
p182
aVJCRVLT-130
p183
aVJCRVLT-129
p184
aVJCRVLT-128
p185
aVJCRVLT-127
p186
aVJCRVLT-126
p187
aVJCRVLT-125
p188
aVJCRVLT-124
p189
aVJCRVLT-123
p190
aVJCRVLT-122
p191
aVJCRVLT-121
p192
aVJCRVLT-120
p193
aVJCRVLT-119
p194
aVJCRVLT-118
p195
aVJCRVLT-117
p196
aVJCRVLT-116
p197
aVJCRVLT-115
p198
aVJCRVLT-114
p199
aVJCRVLT-113
p200
aVJCRVLT-112
p201
aVJCRVLT-111
p202
aVJCRVLT-110
p203
aVJCRVLT-109
p204
aVJCRVLT-108
p205
aVJCRVLT-107
p206
aVJCRVLT-106
p207
aVJCRVLT-105
p208
aVJCRVLT-104
p209
aVJCRVLT-103
p210
aVJCRVLT-102
p211
aVJCRVLT-101
p212
aVJCRVLT-100
p213
aVJCRVLT-99
p214
aVJCRVLT-98
p215
aVJCRVLT-97
p216
aVJCRVLT-96
p217
aVJCRVLT-95
p218
aVJCRVLT-94
p219
aVJCRVLT-93
p220
aVJCRVLT-92
p221
aVJCRVLT-91
p222
aVJCRVLT-90
p223
aVJCRVLT-89
p224
aVJCRVLT-88
p225
aVJCRVLT-87
p226
aVJCRVLT-86
p227
aVJCRVLT-85
p228
aVJCRVLT-84
p229
aVJCRVLT-83
p230
aVJCRVLT-82
p231
aVJCRVLT-81
p232
aVJCRVLT-80
p233
aVJCRVLT-79
p234
aVJCRVLT-78
p235
aVJCRVLT-77
p236
aVJCRVLT-76
p237
aVJCRVLT-75
p238
aVJCRVLT-74
p239
aVJCRVLT-73
p240
aVJCRVLT-72
p241
aVJCRVLT-71
p242
aVJCRVLT-70
p243
aVJCRVLT-69
p244
aVJCRVLT-68
p245
aVJCRVLT-67
p246
aVJCRVLT-66
p247
aVJCRVLT-65
p248
aVJCRVLT-64
p249
aVJCRVLT-63
p250
aVJCRVLT-62
p251
aVJCRVLT-61
p252
aVJCRVLT-60
p253
aVJCRVLT-59
p254
aVJCRVLT-58
p255
aVJCRVLT-57
p256
aVJCRVLT-56
p257
aVJCRVLT-55
p258
aVJCRVLT-54
p259
aVJCRVLT-53
p260
aVJCRVLT-52
p261
aVJCRVLT-51
p262
aVJCRVLT-50
p263
aVJCRVLT-49
p264
aVJCRVLT-48
p265
aVJCRVLT-47
p266
aVJCRVLT-46
p267
aVJCRVLT-45
p268
aVJCRVLT-44
p269
aVJCRVLT-43
p270
aVJCRVLT-42
p271
aVJCRVLT-41
p272
aVJCRVLT-39
p273
aVJCRVLT-38
p274
aVJCRVLT-37
p275
aVJCRVLT-36
p276
aVJCRVLT-35
p277
aVJCRVLT-34
p278
aVJCRVLT-33
p279
aVJCRVLT-32
p280
aVJCRVLT-31
p281
aVJCRVLT-30
p282
aVJCRVLT-29
p283
aVJCRVLT-28
p284
aVJCRVLT-27
p285
aVJCRVLT-26
p286
aVJCRVLT-25
p287
aVJCRVLT-24
p288
aVJCRVLT-23
p289
aVJCRVLT-22
p290
aVJCRVLT-21
p291
aVJCRVLT-20
p292
aVJCRVLT-19
p293
aVJCRVLT-18
p294
aVJCRVLT-17
p295
aVJCRVLT-16
p296
aVJCRVLT-15
p297
aVJCRVLT-14
p298
aVJCRVLT-13
p299
aVJCRVLT-12
p300
aVJCRVLT-11
p301
aVJCRVLT-10
p302
aVJCRVLT-9
p303
aVJCRVLT-8
p304
aVJCRVLT-7
p305
aVJCRVLT-6
p306
aVJCRVLT-5
p307
aVJCRVLT-4
p308
aVJCRVLT-3
p309
aVJCRVLT-2
p310
aVJCRVLT-1
p311
a.