(lp0
VJCS-194
p1
aVJCS-193
p2
aVJCS-192
p3
aVJCS-191
p4
aVJCS-190
p5
aVJCS-189
p6
aVJCS-188
p7
aVJCS-187
p8
aVJCS-186
p9
aVJCS-185
p10
aVJCS-184
p11
aVJCS-183
p12
aVJCS-182
p13
aVJCS-181
p14
aVJCS-180
p15
aVJCS-179
p16
aVJCS-178
p17
aVJCS-177
p18
aVJCS-176
p19
aVJCS-175
p20
aVJCS-174
p21
aVJCS-173
p22
aVJCS-172
p23
aVJCS-171
p24
aVJCS-170
p25
aVJCS-169
p26
aVJCS-168
p27
aVJCS-167
p28
aVJCS-166
p29
aVJCS-165
p30
aVJCS-164
p31
aVJCS-163
p32
aVJCS-162
p33
aVJCS-161
p34
aVJCS-160
p35
aVJCS-159
p36
aVJCS-158
p37
aVJCS-157
p38
aVJCS-156
p39
aVJCS-155
p40
aVJCS-154
p41
aVJCS-153
p42
aVJCS-152
p43
aVJCS-151
p44
aVJCS-150
p45
aVJCS-149
p46
aVJCS-148
p47
aVJCS-147
p48
aVJCS-146
p49
aVJCS-145
p50
aVJCS-144
p51
aVJCS-143
p52
aVJCS-142
p53
aVJCS-141
p54
aVJCS-140
p55
aVJCS-139
p56
aVJCS-138
p57
aVJCS-137
p58
aVJCS-136
p59
aVJCS-135
p60
aVJCS-134
p61
aVJCS-133
p62
aVJCS-132
p63
aVJCS-131
p64
aVJCS-130
p65
aVJCS-129
p66
aVJCS-128
p67
aVJCS-127
p68
aVJCS-126
p69
aVJCS-125
p70
aVJCS-124
p71
aVJCS-123
p72
aVJCS-122
p73
aVJCS-121
p74
aVJCS-120
p75
aVJCS-119
p76
aVJCS-118
p77
aVJCS-117
p78
aVJCS-116
p79
aVJCS-115
p80
aVJCS-114
p81
aVJCS-113
p82
aVJCS-112
p83
aVJCS-111
p84
aVJCS-110
p85
aVJCS-109
p86
aVJCS-108
p87
aVJCS-107
p88
aVJCS-106
p89
aVJCS-105
p90
aVJCS-104
p91
aVJCS-103
p92
aVJCS-102
p93
aVJCS-101
p94
aVJCS-100
p95
aVJCS-99
p96
aVJCS-98
p97
aVJCS-97
p98
aVJCS-96
p99
aVJCS-95
p100
aVJCS-94
p101
aVJCS-93
p102
aVJCS-92
p103
aVJCS-91
p104
aVJCS-90
p105
aVJCS-89
p106
aVJCS-88
p107
aVJCS-87
p108
aVJCS-86
p109
aVJCS-85
p110
aVJCS-84
p111
aVJCS-83
p112
aVJCS-82
p113
aVJCS-80
p114
aVJCS-79
p115
aVJCS-78
p116
aVJCS-77
p117
aVJCS-76
p118
aVJCS-75
p119
aVJCS-74
p120
aVJCS-73
p121
aVJCS-72
p122
aVJCS-71
p123
aVJCS-70
p124
aVJCS-69
p125
aVJCS-68
p126
aVJCS-67
p127
aVJCS-66
p128
aVJCS-65
p129
aVJCS-64
p130
aVJCS-63
p131
aVJCS-62
p132
aVJCS-61
p133
aVJCS-60
p134
aVJCS-59
p135
aVJCS-58
p136
aVJCS-57
p137
aVJCS-56
p138
aVJCS-55
p139
aVJCS-54
p140
aVJCS-53
p141
aVJCS-52
p142
aVJCS-51
p143
aVJCS-50
p144
aVJCS-49
p145
aVJCS-48
p146
aVJCS-47
p147
aVJCS-46
p148
aVJCS-45
p149
aVJCS-44
p150
aVJCS-43
p151
aVJCS-42
p152
aVJCS-41
p153
aVJCS-40
p154
aVJCS-39
p155
aVJCS-38
p156
aVJCS-37
p157
aVJCS-36
p158
aVJCS-35
p159
aVJCS-34
p160
aVJCS-33
p161
aVJCS-32
p162
aVJCS-31
p163
aVJCS-30
p164
aVJCS-29
p165
aVJCS-28
p166
aVJCS-27
p167
aVJCS-26
p168
aVJCS-25
p169
aVJCS-24
p170
aVJCS-23
p171
aVJCS-22
p172
aVJCS-21
p173
aVJCS-20
p174
aVJCS-19
p175
aVJCS-18
p176
aVJCS-17
p177
aVJCS-16
p178
aVJCS-15
p179
aVJCS-14
p180
aVJCS-13
p181
aVJCS-12
p182
aVJCS-11
p183
aVJCS-10
p184
aVJCS-9
p185
aVJCS-8
p186
aVJCS-7
p187
aVJCS-6
p188
aVJCS-5
p189
aVJCS-4
p190
aVJCS-3
p191
aVJCS-2
p192
aVJCS-1
p193
a.