(lp0
VJDKIM-41
p1
aVJDKIM-40
p2
aVJDKIM-39
p3
aVJDKIM-38
p4
aVJDKIM-37
p5
aVJDKIM-36
p6
aVJDKIM-35
p7
aVJDKIM-34
p8
aVJDKIM-33
p9
aVJDKIM-32
p10
aVJDKIM-31
p11
aVJDKIM-30
p12
aVJDKIM-29
p13
aVJDKIM-28
p14
aVJDKIM-27
p15
aVJDKIM-26
p16
aVJDKIM-25
p17
aVJDKIM-24
p18
aVJDKIM-23
p19
aVJDKIM-22
p20
aVJDKIM-21
p21
aVJDKIM-20
p22
aVJDKIM-19
p23
aVJDKIM-18
p24
aVJDKIM-17
p25
aVJDKIM-16
p26
aVJDKIM-15
p27
aVJDKIM-14
p28
aVJDKIM-13
p29
aVJDKIM-12
p30
aVJDKIM-11
p31
aVJDKIM-10
p32
aVJDKIM-9
p33
aVJDKIM-8
p34
aVJDKIM-7
p35
aVJDKIM-6
p36
aVJDKIM-5
p37
aVJDKIM-4
p38
aVJDKIM-3
p39
aVJDKIM-2
p40
aVJDKIM-1
p41
a.