(lp0
VJELLY-293
p1
aVJELLY-292
p2
aVJELLY-291
p3
aVJELLY-290
p4
aVJELLY-288
p5
aVJELLY-286
p6
aVJELLY-285
p7
aVJELLY-284
p8
aVJELLY-283
p9
aVJELLY-282
p10
aVJELLY-281
p11
aVJELLY-280
p12
aVJELLY-279
p13
aVJELLY-278
p14
aVJELLY-277
p15
aVJELLY-276
p16
aVJELLY-275
p17
aVJELLY-274
p18
aVJELLY-273
p19
aVJELLY-272
p20
aVJELLY-271
p21
aVJELLY-270
p22
aVJELLY-269
p23
aVJELLY-268
p24
aVJELLY-267
p25
aVJELLY-266
p26
aVJELLY-265
p27
aVJELLY-264
p28
aVJELLY-263
p29
aVJELLY-262
p30
aVJELLY-261
p31
aVJELLY-260
p32
aVJELLY-259
p33
aVJELLY-258
p34
aVJELLY-257
p35
aVJELLY-256
p36
aVJELLY-255
p37
aVJELLY-254
p38
aVJELLY-253
p39
aVJELLY-252
p40
aVJELLY-251
p41
aVJELLY-250
p42
aVJELLY-249
p43
aVJELLY-248
p44
aVJELLY-247
p45
aVJELLY-246
p46
aVJELLY-245
p47
aVJELLY-244
p48
aVJELLY-243
p49
aVJELLY-242
p50
aVJELLY-241
p51
aVJELLY-240
p52
aVJELLY-239
p53
aVJELLY-238
p54
aVJELLY-237
p55
aVJELLY-236
p56
aVJELLY-235
p57
aVJELLY-234
p58
aVJELLY-233
p59
aVJELLY-232
p60
aVJELLY-231
p61
aVJELLY-230
p62
aVJELLY-229
p63
aVJELLY-228
p64
aVJELLY-227
p65
aVJELLY-226
p66
aVJELLY-225
p67
aVJELLY-224
p68
aVJELLY-223
p69
aVJELLY-222
p70
aVJELLY-221
p71
aVJELLY-220
p72
aVJELLY-219
p73
aVJELLY-218
p74
aVJELLY-217
p75
aVJELLY-216
p76
aVJELLY-215
p77
aVJELLY-214
p78
aVJELLY-213
p79
aVJELLY-212
p80
aVJELLY-211
p81
aVJELLY-210
p82
aVJELLY-209
p83
aVJELLY-208
p84
aVJELLY-207
p85
aVJELLY-206
p86
aVJELLY-205
p87
aVJELLY-204
p88
aVJELLY-203
p89
aVJELLY-202
p90
aVJELLY-201
p91
aVJELLY-200
p92
aVJELLY-199
p93
aVJELLY-198
p94
aVJELLY-197
p95
aVJELLY-196
p96
aVJELLY-195
p97
aVJELLY-194
p98
aVJELLY-193
p99
aVJELLY-192
p100
aVJELLY-191
p101
aVJELLY-190
p102
aVJELLY-189
p103
aVJELLY-188
p104
aVJELLY-187
p105
aVJELLY-186
p106
aVJELLY-185
p107
aVJELLY-184
p108
aVJELLY-183
p109
aVJELLY-182
p110
aVJELLY-181
p111
aVJELLY-180
p112
aVJELLY-179
p113
aVJELLY-178
p114
aVJELLY-177
p115
aVJELLY-176
p116
aVJELLY-175
p117
aVJELLY-174
p118
aVJELLY-173
p119
aVJELLY-172
p120
aVJELLY-171
p121
aVJELLY-170
p122
aVJELLY-169
p123
aVJELLY-168
p124
aVJELLY-167
p125
aVJELLY-166
p126
aVJELLY-165
p127
aVJELLY-164
p128
aVJELLY-163
p129
aVJELLY-162
p130
aVJELLY-161
p131
aVJELLY-160
p132
aVJELLY-159
p133
aVJELLY-158
p134
aVJELLY-157
p135
aVJELLY-156
p136
aVJELLY-155
p137
aVJELLY-154
p138
aVJELLY-153
p139
aVJELLY-152
p140
aVJELLY-151
p141
aVJELLY-150
p142
aVJELLY-149
p143
aVJELLY-148
p144
aVJELLY-147
p145
aVJELLY-146
p146
aVJELLY-145
p147
aVJELLY-144
p148
aVJELLY-143
p149
aVJELLY-142
p150
aVJELLY-141
p151
aVJELLY-140
p152
aVJELLY-139
p153
aVJELLY-138
p154
aVJELLY-137
p155
aVJELLY-136
p156
aVJELLY-135
p157
aVJELLY-134
p158
aVJELLY-133
p159
aVJELLY-132
p160
aVJELLY-131
p161
aVJELLY-130
p162
aVJELLY-129
p163
aVJELLY-128
p164
aVJELLY-127
p165
aVJELLY-126
p166
aVJELLY-125
p167
aVJELLY-124
p168
aVJELLY-123
p169
aVJELLY-122
p170
aVJELLY-121
p171
aVJELLY-120
p172
aVJELLY-119
p173
aVJELLY-118
p174
aVJELLY-117
p175
aVJELLY-116
p176
aVJELLY-115
p177
aVJELLY-114
p178
aVJELLY-113
p179
aVJELLY-112
p180
aVJELLY-111
p181
aVJELLY-110
p182
aVJELLY-109
p183
aVJELLY-108
p184
aVJELLY-107
p185
aVJELLY-106
p186
aVJELLY-105
p187
aVJELLY-104
p188
aVJELLY-103
p189
aVJELLY-101
p190
aVJELLY-100
p191
aVJELLY-99
p192
aVJELLY-98
p193
aVJELLY-97
p194
aVJELLY-96
p195
aVJELLY-95
p196
aVJELLY-94
p197
aVJELLY-93
p198
aVJELLY-92
p199
aVJELLY-91
p200
aVJELLY-90
p201
aVJELLY-89
p202
aVJELLY-88
p203
aVJELLY-87
p204
aVJELLY-86
p205
aVJELLY-85
p206
aVJELLY-84
p207
aVJELLY-83
p208
aVJELLY-82
p209
aVJELLY-81
p210
aVJELLY-80
p211
aVJELLY-79
p212
aVJELLY-78
p213
aVJELLY-77
p214
aVJELLY-76
p215
aVJELLY-75
p216
aVJELLY-74
p217
aVJELLY-73
p218
aVJELLY-72
p219
aVJELLY-71
p220
aVJELLY-70
p221
aVJELLY-69
p222
aVJELLY-68
p223
aVJELLY-67
p224
aVJELLY-66
p225
aVJELLY-65
p226
aVJELLY-64
p227
aVJELLY-63
p228
aVJELLY-62
p229
aVJELLY-61
p230
aVJELLY-60
p231
aVJELLY-59
p232
aVJELLY-58
p233
aVJELLY-57
p234
aVJELLY-56
p235
aVJELLY-55
p236
aVJELLY-54
p237
aVJELLY-53
p238
aVJELLY-52
p239
aVJELLY-51
p240
aVJELLY-50
p241
aVJELLY-49
p242
aVJELLY-48
p243
aVJELLY-47
p244
aVJELLY-46
p245
aVJELLY-45
p246
aVJELLY-44
p247
aVJELLY-43
p248
aVJELLY-42
p249
aVJELLY-41
p250
aVJELLY-40
p251
aVJELLY-39
p252
aVJELLY-38
p253
aVJELLY-37
p254
aVJELLY-36
p255
aVJELLY-35
p256
aVJELLY-34
p257
aVJELLY-33
p258
aVJELLY-32
p259
aVJELLY-31
p260
aVJELLY-30
p261
aVJELLY-29
p262
aVJELLY-28
p263
aVJELLY-27
p264
aVJELLY-26
p265
aVJELLY-25
p266
aVJELLY-24
p267
aVJELLY-23
p268
aVJELLY-22
p269
aVJELLY-21
p270
aVJELLY-20
p271
aVJELLY-19
p272
aVJELLY-18
p273
aVJELLY-17
p274
aVJELLY-16
p275
aVJELLY-15
p276
aVJELLY-14
p277
aVJELLY-13
p278
aVJELLY-12
p279
aVJELLY-11
p280
aVJELLY-10
p281
aVJELLY-9
p282
aVJELLY-8
p283
aVJELLY-7
p284
aVJELLY-6
p285
aVJELLY-5
p286
aVJELLY-4
p287
aVJELLY-3
p288
aVJELLY-2
p289
aVJELLY-1
p290
a.