(lp0
VJENA-1583
p1
aVJENA-1582
p2
aVJENA-1581
p3
aVJENA-1580
p4
aVJENA-1579
p5
aVJENA-1578
p6
aVJENA-1577
p7
aVJENA-1576
p8
aVJENA-1575
p9
aVJENA-1574
p10
aVJENA-1573
p11
aVJENA-1572
p12
aVJENA-1571
p13
aVJENA-1570
p14
aVJENA-1569
p15
aVJENA-1568
p16
aVJENA-1567
p17
aVJENA-1566
p18
aVJENA-1565
p19
aVJENA-1564
p20
aVJENA-1563
p21
aVJENA-1562
p22
aVJENA-1561
p23
aVJENA-1560
p24
aVJENA-1559
p25
aVJENA-1558
p26
aVJENA-1557
p27
aVJENA-1556
p28
aVJENA-1555
p29
aVJENA-1554
p30
aVJENA-1553
p31
aVJENA-1552
p32
aVJENA-1551
p33
aVJENA-1550
p34
aVJENA-1549
p35
aVJENA-1548
p36
aVJENA-1547
p37
aVJENA-1546
p38
aVJENA-1545
p39
aVJENA-1544
p40
aVJENA-1543
p41
aVJENA-1542
p42
aVJENA-1541
p43
aVJENA-1540
p44
aVJENA-1539
p45
aVJENA-1538
p46
aVJENA-1537
p47
aVJENA-1536
p48
aVJENA-1535
p49
aVJENA-1534
p50
aVJENA-1533
p51
aVJENA-1532
p52
aVJENA-1531
p53
aVJENA-1530
p54
aVJENA-1529
p55
aVJENA-1528
p56
aVJENA-1527
p57
aVJENA-1526
p58
aVJENA-1525
p59
aVJENA-1524
p60
aVJENA-1523
p61
aVJENA-1522
p62
aVJENA-1521
p63
aVJENA-1520
p64
aVJENA-1519
p65
aVJENA-1518
p66
aVJENA-1517
p67
aVJENA-1516
p68
aVJENA-1515
p69
aVJENA-1514
p70
aVJENA-1513
p71
aVJENA-1512
p72
aVJENA-1511
p73
aVJENA-1510
p74
aVJENA-1509
p75
aVJENA-1508
p76
aVJENA-1507
p77
aVJENA-1506
p78
aVJENA-1505
p79
aVJENA-1504
p80
aVJENA-1503
p81
aVJENA-1502
p82
aVJENA-1501
p83
aVJENA-1500
p84
aVJENA-1499
p85
aVJENA-1498
p86
aVJENA-1497
p87
aVJENA-1496
p88
aVJENA-1495
p89
aVJENA-1494
p90
aVJENA-1493
p91
aVJENA-1492
p92
aVJENA-1491
p93
aVJENA-1490
p94
aVJENA-1489
p95
aVJENA-1488
p96
aVJENA-1487
p97
aVJENA-1486
p98
aVJENA-1485
p99
aVJENA-1484
p100
aVJENA-1483
p101
aVJENA-1482
p102
aVJENA-1481
p103
aVJENA-1480
p104
aVJENA-1479
p105
aVJENA-1478
p106
aVJENA-1477
p107
aVJENA-1476
p108
aVJENA-1475
p109
aVJENA-1474
p110
aVJENA-1473
p111
aVJENA-1472
p112
aVJENA-1471
p113
aVJENA-1470
p114
aVJENA-1469
p115
aVJENA-1468
p116
aVJENA-1467
p117
aVJENA-1466
p118
aVJENA-1465
p119
aVJENA-1464
p120
aVJENA-1463
p121
aVJENA-1462
p122
aVJENA-1461
p123
aVJENA-1460
p124
aVJENA-1459
p125
aVJENA-1458
p126
aVJENA-1457
p127
aVJENA-1456
p128
aVJENA-1455
p129
aVJENA-1454
p130
aVJENA-1453
p131
aVJENA-1452
p132
aVJENA-1451
p133
aVJENA-1450
p134
aVJENA-1449
p135
aVJENA-1448
p136
aVJENA-1447
p137
aVJENA-1446
p138
aVJENA-1445
p139
aVJENA-1444
p140
aVJENA-1443
p141
aVJENA-1442
p142
aVJENA-1441
p143
aVJENA-1440
p144
aVJENA-1439
p145
aVJENA-1438
p146
aVJENA-1437
p147
aVJENA-1436
p148
aVJENA-1435
p149
aVJENA-1434
p150
aVJENA-1433
p151
aVJENA-1432
p152
aVJENA-1431
p153
aVJENA-1430
p154
aVJENA-1429
p155
aVJENA-1428
p156
aVJENA-1427
p157
aVJENA-1426
p158
aVJENA-1425
p159
aVJENA-1424
p160
aVJENA-1423
p161
aVJENA-1422
p162
aVJENA-1421
p163
aVJENA-1420
p164
aVJENA-1419
p165
aVJENA-1418
p166
aVJENA-1417
p167
aVJENA-1416
p168
aVJENA-1415
p169
aVJENA-1414
p170
aVJENA-1413
p171
aVJENA-1412
p172
aVJENA-1411
p173
aVJENA-1410
p174
aVJENA-1409
p175
aVJENA-1408
p176
aVJENA-1407
p177
aVJENA-1406
p178
aVJENA-1405
p179
aVJENA-1404
p180
aVJENA-1403
p181
aVJENA-1402
p182
aVJENA-1401
p183
aVJENA-1400
p184
aVJENA-1399
p185
aVJENA-1398
p186
aVJENA-1397
p187
aVJENA-1396
p188
aVJENA-1395
p189
aVJENA-1394
p190
aVJENA-1393
p191
aVJENA-1392
p192
aVJENA-1391
p193
aVJENA-1390
p194
aVJENA-1389
p195
aVJENA-1388
p196
aVJENA-1387
p197
aVJENA-1386
p198
aVJENA-1385
p199
aVJENA-1384
p200
aVJENA-1383
p201
aVJENA-1382
p202
aVJENA-1381
p203
aVJENA-1380
p204
aVJENA-1379
p205
aVJENA-1378
p206
aVJENA-1377
p207
aVJENA-1376
p208
aVJENA-1375
p209
aVJENA-1374
p210
aVJENA-1373
p211
aVJENA-1372
p212
aVJENA-1371
p213
aVJENA-1370
p214
aVJENA-1369
p215
aVJENA-1368
p216
aVJENA-1367
p217
aVJENA-1366
p218
aVJENA-1365
p219
aVJENA-1364
p220
aVJENA-1363
p221
aVJENA-1362
p222
aVJENA-1361
p223
aVJENA-1360
p224
aVJENA-1359
p225
aVJENA-1358
p226
aVJENA-1357
p227
aVJENA-1356
p228
aVJENA-1355
p229
aVJENA-1354
p230
aVJENA-1353
p231
aVJENA-1352
p232
aVJENA-1351
p233
aVJENA-1350
p234
aVJENA-1349
p235
aVJENA-1348
p236
aVJENA-1347
p237
aVJENA-1346
p238
aVJENA-1345
p239
aVJENA-1344
p240
aVJENA-1343
p241
aVJENA-1342
p242
aVJENA-1341
p243
aVJENA-1340
p244
aVJENA-1339
p245
aVJENA-1338
p246
aVJENA-1337
p247
aVJENA-1336
p248
aVJENA-1335
p249
aVJENA-1334
p250
aVJENA-1333
p251
aVJENA-1332
p252
aVJENA-1331
p253
aVJENA-1330
p254
aVJENA-1329
p255
aVJENA-1328
p256
aVJENA-1327
p257
aVJENA-1326
p258
aVJENA-1325
p259
aVJENA-1324
p260
aVJENA-1323
p261
aVJENA-1322
p262
aVJENA-1321
p263
aVJENA-1320
p264
aVJENA-1319
p265
aVJENA-1318
p266
aVJENA-1317
p267
aVJENA-1316
p268
aVJENA-1315
p269
aVJENA-1314
p270
aVJENA-1313
p271
aVJENA-1312
p272
aVJENA-1311
p273
aVJENA-1310
p274
aVJENA-1309
p275
aVJENA-1308
p276
aVJENA-1307
p277
aVJENA-1306
p278
aVJENA-1305
p279
aVJENA-1304
p280
aVJENA-1303
p281
aVJENA-1302
p282
aVJENA-1301
p283
aVJENA-1300
p284
aVJENA-1299
p285
aVJENA-1298
p286
aVJENA-1297
p287
aVJENA-1296
p288
aVJENA-1295
p289
aVJENA-1294
p290
aVJENA-1293
p291
aVJENA-1292
p292
aVJENA-1291
p293
aVJENA-1290
p294
aVJENA-1289
p295
aVJENA-1288
p296
aVJENA-1287
p297
aVJENA-1286
p298
aVJENA-1285
p299
aVJENA-1284
p300
aVJENA-1283
p301
aVJENA-1282
p302
aVJENA-1281
p303
aVJENA-1280
p304
aVJENA-1279
p305
aVJENA-1278
p306
aVJENA-1277
p307
aVJENA-1276
p308
aVJENA-1275
p309
aVJENA-1274
p310
aVJENA-1273
p311
aVJENA-1272
p312
aVJENA-1271
p313
aVJENA-1270
p314
aVJENA-1269
p315
aVJENA-1268
p316
aVJENA-1267
p317
aVJENA-1266
p318
aVJENA-1265
p319
aVJENA-1264
p320
aVJENA-1263
p321
aVJENA-1262
p322
aVJENA-1261
p323
aVJENA-1260
p324
aVJENA-1259
p325
aVJENA-1258
p326
aVJENA-1257
p327
aVJENA-1256
p328
aVJENA-1255
p329
aVJENA-1254
p330
aVJENA-1253
p331
aVJENA-1252
p332
aVJENA-1251
p333
aVJENA-1250
p334
aVJENA-1249
p335
aVJENA-1248
p336
aVJENA-1247
p337
aVJENA-1246
p338
aVJENA-1245
p339
aVJENA-1244
p340
aVJENA-1243
p341
aVJENA-1242
p342
aVJENA-1241
p343
aVJENA-1240
p344
aVJENA-1239
p345
aVJENA-1238
p346
aVJENA-1237
p347
aVJENA-1236
p348
aVJENA-1235
p349
aVJENA-1234
p350
aVJENA-1233
p351
aVJENA-1232
p352
aVJENA-1231
p353
aVJENA-1230
p354
aVJENA-1229
p355
aVJENA-1228
p356
aVJENA-1227
p357
aVJENA-1226
p358
aVJENA-1225
p359
aVJENA-1224
p360
aVJENA-1223
p361
aVJENA-1222
p362
aVJENA-1221
p363
aVJENA-1220
p364
aVJENA-1219
p365
aVJENA-1218
p366
aVJENA-1217
p367
aVJENA-1216
p368
aVJENA-1215
p369
aVJENA-1214
p370
aVJENA-1213
p371
aVJENA-1212
p372
aVJENA-1211
p373
aVJENA-1210
p374
aVJENA-1209
p375
aVJENA-1208
p376
aVJENA-1207
p377
aVJENA-1206
p378
aVJENA-1205
p379
aVJENA-1204
p380
aVJENA-1203
p381
aVJENA-1202
p382
aVJENA-1201
p383
aVJENA-1200
p384
aVJENA-1199
p385
aVJENA-1198
p386
aVJENA-1197
p387
aVJENA-1196
p388
aVJENA-1195
p389
aVJENA-1194
p390
aVJENA-1193
p391
aVJENA-1192
p392
aVJENA-1191
p393
aVJENA-1190
p394
aVJENA-1189
p395
aVJENA-1188
p396
aVJENA-1187
p397
aVJENA-1186
p398
aVJENA-1185
p399
aVJENA-1184
p400
aVJENA-1183
p401
aVJENA-1182
p402
aVJENA-1181
p403
aVJENA-1180
p404
aVJENA-1179
p405
aVJENA-1178
p406
aVJENA-1177
p407
aVJENA-1176
p408
aVJENA-1175
p409
aVJENA-1174
p410
aVJENA-1173
p411
aVJENA-1172
p412
aVJENA-1171
p413
aVJENA-1170
p414
aVJENA-1169
p415
aVJENA-1168
p416
aVJENA-1167
p417
aVJENA-1166
p418
aVJENA-1165
p419
aVJENA-1164
p420
aVJENA-1163
p421
aVJENA-1162
p422
aVJENA-1161
p423
aVJENA-1160
p424
aVJENA-1159
p425
aVJENA-1158
p426
aVJENA-1157
p427
aVJENA-1156
p428
aVJENA-1155
p429
aVJENA-1154
p430
aVJENA-1153
p431
aVJENA-1152
p432
aVJENA-1151
p433
aVJENA-1150
p434
aVJENA-1149
p435
aVJENA-1148
p436
aVJENA-1147
p437
aVJENA-1146
p438
aVJENA-1145
p439
aVJENA-1144
p440
aVJENA-1143
p441
aVJENA-1142
p442
aVJENA-1141
p443
aVJENA-1140
p444
aVJENA-1139
p445
aVJENA-1138
p446
aVJENA-1137
p447
aVJENA-1136
p448
aVJENA-1135
p449
aVJENA-1134
p450
aVJENA-1133
p451
aVJENA-1132
p452
aVJENA-1131
p453
aVJENA-1130
p454
aVJENA-1129
p455
aVJENA-1128
p456
aVJENA-1127
p457
aVJENA-1126
p458
aVJENA-1125
p459
aVJENA-1124
p460
aVJENA-1123
p461
aVJENA-1122
p462
aVJENA-1121
p463
aVJENA-1120
p464
aVJENA-1119
p465
aVJENA-1118
p466
aVJENA-1117
p467
aVJENA-1116
p468
aVJENA-1115
p469
aVJENA-1114
p470
aVJENA-1113
p471
aVJENA-1112
p472
aVJENA-1111
p473
aVJENA-1110
p474
aVJENA-1109
p475
aVJENA-1108
p476
aVJENA-1107
p477
aVJENA-1106
p478
aVJENA-1105
p479
aVJENA-1104
p480
aVJENA-1103
p481
aVJENA-1102
p482
aVJENA-1101
p483
aVJENA-1100
p484
aVJENA-1099
p485
aVJENA-1098
p486
aVJENA-1097
p487
aVJENA-1096
p488
aVJENA-1095
p489
aVJENA-1094
p490
aVJENA-1093
p491
aVJENA-1092
p492
aVJENA-1091
p493
aVJENA-1090
p494
aVJENA-1089
p495
aVJENA-1088
p496
aVJENA-1087
p497
aVJENA-1086
p498
aVJENA-1085
p499
aVJENA-1084
p500
aVJENA-1083
p501
aVJENA-1082
p502
aVJENA-1081
p503
aVJENA-1080
p504
aVJENA-1079
p505
aVJENA-1078
p506
aVJENA-1077
p507
aVJENA-1076
p508
aVJENA-1075
p509
aVJENA-1074
p510
aVJENA-1073
p511
aVJENA-1072
p512
aVJENA-1071
p513
aVJENA-1070
p514
aVJENA-1069
p515
aVJENA-1068
p516
aVJENA-1067
p517
aVJENA-1066
p518
aVJENA-1065
p519
aVJENA-1064
p520
aVJENA-1063
p521
aVJENA-1062
p522
aVJENA-1061
p523
aVJENA-1060
p524
aVJENA-1059
p525
aVJENA-1058
p526
aVJENA-1057
p527
aVJENA-1056
p528
aVJENA-1055
p529
aVJENA-1054
p530
aVJENA-1053
p531
aVJENA-1052
p532
aVJENA-1051
p533
aVJENA-1050
p534
aVJENA-1049
p535
aVJENA-1048
p536
aVJENA-1047
p537
aVJENA-1046
p538
aVJENA-1045
p539
aVJENA-1044
p540
aVJENA-1043
p541
aVJENA-1042
p542
aVJENA-1041
p543
aVJENA-1040
p544
aVJENA-1039
p545
aVJENA-1038
p546
aVJENA-1037
p547
aVJENA-1036
p548
aVJENA-1035
p549
aVJENA-1034
p550
aVJENA-1033
p551
aVJENA-1032
p552
aVJENA-1031
p553
aVJENA-1030
p554
aVJENA-1029
p555
aVJENA-1028
p556
aVJENA-1027
p557
aVJENA-1026
p558
aVJENA-1025
p559
aVJENA-1024
p560
aVJENA-1023
p561
aVJENA-1022
p562
aVJENA-1021
p563
aVJENA-1020
p564
aVJENA-1019
p565
aVJENA-1018
p566
aVJENA-1017
p567
aVJENA-1016
p568
aVJENA-1015
p569
aVJENA-1014
p570
aVJENA-1013
p571
aVJENA-1012
p572
aVJENA-1011
p573
aVJENA-1010
p574
aVJENA-1009
p575
aVJENA-1008
p576
aVJENA-1007
p577
aVJENA-1006
p578
aVJENA-1005
p579
aVJENA-1004
p580
aVJENA-1003
p581
aVJENA-1002
p582
aVJENA-1001
p583
aVJENA-1000
p584
aVJENA-999
p585
aVJENA-998
p586
aVJENA-997
p587
aVJENA-996
p588
aVJENA-995
p589
aVJENA-994
p590
aVJENA-993
p591
aVJENA-992
p592
aVJENA-991
p593
aVJENA-990
p594
aVJENA-989
p595
aVJENA-988
p596
aVJENA-987
p597
aVJENA-986
p598
aVJENA-985
p599
aVJENA-984
p600
aVJENA-983
p601
aVJENA-982
p602
aVJENA-981
p603
aVJENA-980
p604
aVJENA-979
p605
aVJENA-978
p606
aVJENA-977
p607
aVJENA-976
p608
aVJENA-975
p609
aVJENA-974
p610
aVJENA-973
p611
aVJENA-972
p612
aVJENA-971
p613
aVJENA-970
p614
aVJENA-969
p615
aVJENA-968
p616
aVJENA-967
p617
aVJENA-966
p618
aVJENA-965
p619
aVJENA-964
p620
aVJENA-963
p621
aVJENA-962
p622
aVJENA-961
p623
aVJENA-960
p624
aVJENA-959
p625
aVJENA-958
p626
aVJENA-957
p627
aVJENA-956
p628
aVJENA-955
p629
aVJENA-954
p630
aVJENA-953
p631
aVJENA-952
p632
aVJENA-950
p633
aVJENA-949
p634
aVJENA-948
p635
aVJENA-947
p636
aVJENA-946
p637
aVJENA-945
p638
aVJENA-944
p639
aVJENA-943
p640
aVJENA-942
p641
aVJENA-941
p642
aVJENA-940
p643
aVJENA-939
p644
aVJENA-938
p645
aVJENA-937
p646
aVJENA-936
p647
aVJENA-935
p648
aVJENA-934
p649
aVJENA-933
p650
aVJENA-932
p651
aVJENA-931
p652
aVJENA-930
p653
aVJENA-929
p654
aVJENA-928
p655
aVJENA-927
p656
aVJENA-926
p657
aVJENA-925
p658
aVJENA-924
p659
aVJENA-923
p660
aVJENA-922
p661
aVJENA-921
p662
aVJENA-920
p663
aVJENA-919
p664
aVJENA-918
p665
aVJENA-917
p666
aVJENA-916
p667
aVJENA-915
p668
aVJENA-914
p669
aVJENA-913
p670
aVJENA-912
p671
aVJENA-911
p672
aVJENA-910
p673
aVJENA-909
p674
aVJENA-908
p675
aVJENA-907
p676
aVJENA-906
p677
aVJENA-905
p678
aVJENA-904
p679
aVJENA-903
p680
aVJENA-902
p681
aVJENA-901
p682
aVJENA-900
p683
aVJENA-899
p684
aVJENA-898
p685
aVJENA-897
p686
aVJENA-896
p687
aVJENA-895
p688
aVJENA-894
p689
aVJENA-893
p690
aVJENA-892
p691
aVJENA-891
p692
aVJENA-890
p693
aVJENA-889
p694
aVJENA-888
p695
aVJENA-887
p696
aVJENA-886
p697
aVJENA-885
p698
aVJENA-884
p699
aVJENA-883
p700
aVJENA-882
p701
aVJENA-881
p702
aVJENA-880
p703
aVJENA-879
p704
aVJENA-878
p705
aVJENA-877
p706
aVJENA-876
p707
aVJENA-875
p708
aVJENA-874
p709
aVJENA-873
p710
aVJENA-872
p711
aVJENA-871
p712
aVJENA-870
p713
aVJENA-869
p714
aVJENA-868
p715
aVJENA-867
p716
aVJENA-866
p717
aVJENA-865
p718
aVJENA-864
p719
aVJENA-863
p720
aVJENA-862
p721
aVJENA-861
p722
aVJENA-860
p723
aVJENA-859
p724
aVJENA-858
p725
aVJENA-857
p726
aVJENA-856
p727
aVJENA-855
p728
aVJENA-854
p729
aVJENA-853
p730
aVJENA-852
p731
aVJENA-851
p732
aVJENA-850
p733
aVJENA-849
p734
aVJENA-848
p735
aVJENA-847
p736
aVJENA-846
p737
aVJENA-845
p738
aVJENA-844
p739
aVJENA-843
p740
aVJENA-842
p741
aVJENA-841
p742
aVJENA-840
p743
aVJENA-839
p744
aVJENA-838
p745
aVJENA-837
p746
aVJENA-836
p747
aVJENA-835
p748
aVJENA-834
p749
aVJENA-833
p750
aVJENA-832
p751
aVJENA-831
p752
aVJENA-830
p753
aVJENA-829
p754
aVJENA-828
p755
aVJENA-827
p756
aVJENA-826
p757
aVJENA-825
p758
aVJENA-824
p759
aVJENA-823
p760
aVJENA-822
p761
aVJENA-821
p762
aVJENA-820
p763
aVJENA-819
p764
aVJENA-818
p765
aVJENA-817
p766
aVJENA-816
p767
aVJENA-815
p768
aVJENA-814
p769
aVJENA-813
p770
aVJENA-812
p771
aVJENA-811
p772
aVJENA-810
p773
aVJENA-809
p774
aVJENA-808
p775
aVJENA-807
p776
aVJENA-806
p777
aVJENA-805
p778
aVJENA-804
p779
aVJENA-803
p780
aVJENA-802
p781
aVJENA-801
p782
aVJENA-800
p783
aVJENA-799
p784
aVJENA-798
p785
aVJENA-797
p786
aVJENA-796
p787
aVJENA-795
p788
aVJENA-794
p789
aVJENA-793
p790
aVJENA-792
p791
aVJENA-791
p792
aVJENA-790
p793
aVJENA-789
p794
aVJENA-788
p795
aVJENA-787
p796
aVJENA-786
p797
aVJENA-785
p798
aVJENA-784
p799
aVJENA-783
p800
aVJENA-782
p801
aVJENA-781
p802
aVJENA-780
p803
aVJENA-779
p804
aVJENA-778
p805
aVJENA-777
p806
aVJENA-776
p807
aVJENA-775
p808
aVJENA-774
p809
aVJENA-773
p810
aVJENA-772
p811
aVJENA-771
p812
aVJENA-770
p813
aVJENA-769
p814
aVJENA-768
p815
aVJENA-767
p816
aVJENA-766
p817
aVJENA-765
p818
aVJENA-764
p819
aVJENA-763
p820
aVJENA-762
p821
aVJENA-761
p822
aVJENA-760
p823
aVJENA-759
p824
aVJENA-758
p825
aVJENA-757
p826
aVJENA-756
p827
aVJENA-755
p828
aVJENA-754
p829
aVJENA-753
p830
aVJENA-752
p831
aVJENA-751
p832
aVJENA-750
p833
aVJENA-749
p834
aVJENA-748
p835
aVJENA-747
p836
aVJENA-746
p837
aVJENA-745
p838
aVJENA-744
p839
aVJENA-743
p840
aVJENA-742
p841
aVJENA-741
p842
aVJENA-740
p843
aVJENA-739
p844
aVJENA-738
p845
aVJENA-737
p846
aVJENA-736
p847
aVJENA-735
p848
aVJENA-734
p849
aVJENA-733
p850
aVJENA-732
p851
aVJENA-731
p852
aVJENA-730
p853
aVJENA-729
p854
aVJENA-728
p855
aVJENA-727
p856
aVJENA-726
p857
aVJENA-725
p858
aVJENA-724
p859
aVJENA-723
p860
aVJENA-722
p861
aVJENA-721
p862
aVJENA-720
p863
aVJENA-719
p864
aVJENA-718
p865
aVJENA-717
p866
aVJENA-716
p867
aVJENA-715
p868
aVJENA-714
p869
aVJENA-713
p870
aVJENA-712
p871
aVJENA-711
p872
aVJENA-710
p873
aVJENA-709
p874
aVJENA-708
p875
aVJENA-707
p876
aVJENA-706
p877
aVJENA-705
p878
aVJENA-704
p879
aVJENA-703
p880
aVJENA-702
p881
aVJENA-701
p882
aVJENA-700
p883
aVJENA-699
p884
aVJENA-698
p885
aVJENA-697
p886
aVJENA-696
p887
aVJENA-695
p888
aVJENA-694
p889
aVJENA-693
p890
aVJENA-692
p891
aVJENA-691
p892
aVJENA-690
p893
aVJENA-689
p894
aVJENA-688
p895
aVJENA-687
p896
aVJENA-686
p897
aVJENA-685
p898
aVJENA-684
p899
aVJENA-683
p900
aVJENA-682
p901
aVJENA-681
p902
aVJENA-680
p903
aVJENA-679
p904
aVJENA-678
p905
aVJENA-677
p906
aVJENA-676
p907
aVJENA-675
p908
aVJENA-674
p909
aVJENA-673
p910
aVJENA-672
p911
aVJENA-671
p912
aVJENA-670
p913
aVJENA-669
p914
aVJENA-668
p915
aVJENA-667
p916
aVJENA-666
p917
aVJENA-665
p918
aVJENA-664
p919
aVJENA-663
p920
aVJENA-662
p921
aVJENA-661
p922
aVJENA-660
p923
aVJENA-659
p924
aVJENA-658
p925
aVJENA-657
p926
aVJENA-656
p927
aVJENA-655
p928
aVJENA-654
p929
aVJENA-653
p930
aVJENA-652
p931
aVJENA-651
p932
aVJENA-650
p933
aVJENA-649
p934
aVJENA-648
p935
aVJENA-647
p936
aVJENA-646
p937
aVJENA-645
p938
aVJENA-644
p939
aVJENA-643
p940
aVJENA-642
p941
aVJENA-641
p942
aVJENA-640
p943
aVJENA-639
p944
aVJENA-638
p945
aVJENA-637
p946
aVJENA-636
p947
aVJENA-635
p948
aVJENA-634
p949
aVJENA-633
p950
aVJENA-632
p951
aVJENA-631
p952
aVJENA-630
p953
aVJENA-629
p954
aVJENA-628
p955
aVJENA-627
p956
aVJENA-626
p957
aVJENA-625
p958
aVJENA-624
p959
aVJENA-623
p960
aVJENA-622
p961
aVJENA-621
p962
aVJENA-620
p963
aVJENA-619
p964
aVJENA-618
p965
aVJENA-617
p966
aVJENA-616
p967
aVJENA-615
p968
aVJENA-614
p969
aVJENA-613
p970
aVJENA-612
p971
aVJENA-611
p972
aVJENA-610
p973
aVJENA-609
p974
aVJENA-608
p975
aVJENA-607
p976
aVJENA-606
p977
aVJENA-605
p978
aVJENA-604
p979
aVJENA-603
p980
aVJENA-602
p981
aVJENA-601
p982
aVJENA-600
p983
aVJENA-599
p984
aVJENA-598
p985
aVJENA-597
p986
aVJENA-596
p987
aVJENA-595
p988
aVJENA-594
p989
aVJENA-593
p990
aVJENA-592
p991
aVJENA-591
p992
aVJENA-589
p993
aVJENA-588
p994
aVJENA-587
p995
aVJENA-586
p996
aVJENA-585
p997
aVJENA-584
p998
aVJENA-583
p999
aVJENA-582
p1000
aVJENA-581
p1001
aVJENA-580
p1002
aVJENA-579
p1003
aVJENA-578
p1004
aVJENA-577
p1005
aVJENA-576
p1006
aVJENA-575
p1007
aVJENA-574
p1008
aVJENA-573
p1009
aVJENA-572
p1010
aVJENA-571
p1011
aVJENA-570
p1012
aVJENA-569
p1013
aVJENA-568
p1014
aVJENA-567
p1015
aVJENA-566
p1016
aVJENA-565
p1017
aVJENA-564
p1018
aVJENA-563
p1019
aVJENA-562
p1020
aVJENA-561
p1021
aVJENA-560
p1022
aVJENA-559
p1023
aVJENA-558
p1024
aVJENA-557
p1025
aVJENA-556
p1026
aVJENA-555
p1027
aVJENA-554
p1028
aVJENA-553
p1029
aVJENA-552
p1030
aVJENA-551
p1031
aVJENA-550
p1032
aVJENA-549
p1033
aVJENA-548
p1034
aVJENA-547
p1035
aVJENA-546
p1036
aVJENA-545
p1037
aVJENA-544
p1038
aVJENA-543
p1039
aVJENA-542
p1040
aVJENA-541
p1041
aVJENA-540
p1042
aVJENA-539
p1043
aVJENA-538
p1044
aVJENA-537
p1045
aVJENA-536
p1046
aVJENA-535
p1047
aVJENA-534
p1048
aVJENA-533
p1049
aVJENA-532
p1050
aVJENA-531
p1051
aVJENA-530
p1052
aVJENA-529
p1053
aVJENA-528
p1054
aVJENA-527
p1055
aVJENA-526
p1056
aVJENA-525
p1057
aVJENA-524
p1058
aVJENA-523
p1059
aVJENA-522
p1060
aVJENA-521
p1061
aVJENA-520
p1062
aVJENA-519
p1063
aVJENA-518
p1064
aVJENA-517
p1065
aVJENA-516
p1066
aVJENA-515
p1067
aVJENA-514
p1068
aVJENA-513
p1069
aVJENA-512
p1070
aVJENA-511
p1071
aVJENA-510
p1072
aVJENA-509
p1073
aVJENA-508
p1074
aVJENA-507
p1075
aVJENA-506
p1076
aVJENA-505
p1077
aVJENA-504
p1078
aVJENA-503
p1079
aVJENA-502
p1080
aVJENA-501
p1081
aVJENA-500
p1082
aVJENA-499
p1083
aVJENA-498
p1084
aVJENA-497
p1085
aVJENA-496
p1086
aVJENA-495
p1087
aVJENA-494
p1088
aVJENA-493
p1089
aVJENA-492
p1090
aVJENA-491
p1091
aVJENA-490
p1092
aVJENA-489
p1093
aVJENA-488
p1094
aVJENA-487
p1095
aVJENA-485
p1096
aVJENA-484
p1097
aVJENA-483
p1098
aVJENA-482
p1099
aVJENA-481
p1100
aVJENA-480
p1101
aVJENA-479
p1102
aVJENA-478
p1103
aVJENA-477
p1104
aVJENA-476
p1105
aVJENA-475
p1106
aVJENA-474
p1107
aVJENA-473
p1108
aVJENA-472
p1109
aVJENA-471
p1110
aVJENA-470
p1111
aVJENA-469
p1112
aVJENA-468
p1113
aVJENA-467
p1114
aVJENA-466
p1115
aVJENA-465
p1116
aVJENA-464
p1117
aVJENA-463
p1118
aVJENA-462
p1119
aVJENA-461
p1120
aVJENA-460
p1121
aVJENA-459
p1122
aVJENA-458
p1123
aVJENA-457
p1124
aVJENA-456
p1125
aVJENA-455
p1126
aVJENA-454
p1127
aVJENA-453
p1128
aVJENA-452
p1129
aVJENA-451
p1130
aVJENA-450
p1131
aVJENA-449
p1132
aVJENA-448
p1133
aVJENA-447
p1134
aVJENA-446
p1135
aVJENA-445
p1136
aVJENA-444
p1137
aVJENA-443
p1138
aVJENA-442
p1139
aVJENA-441
p1140
aVJENA-440
p1141
aVJENA-439
p1142
aVJENA-438
p1143
aVJENA-437
p1144
aVJENA-436
p1145
aVJENA-435
p1146
aVJENA-434
p1147
aVJENA-433
p1148
aVJENA-432
p1149
aVJENA-431
p1150
aVJENA-430
p1151
aVJENA-429
p1152
aVJENA-428
p1153
aVJENA-427
p1154
aVJENA-426
p1155
aVJENA-425
p1156
aVJENA-424
p1157
aVJENA-423
p1158
aVJENA-422
p1159
aVJENA-421
p1160
aVJENA-420
p1161
aVJENA-419
p1162
aVJENA-418
p1163
aVJENA-417
p1164
aVJENA-416
p1165
aVJENA-415
p1166
aVJENA-414
p1167
aVJENA-413
p1168
aVJENA-412
p1169
aVJENA-411
p1170
aVJENA-410
p1171
aVJENA-409
p1172
aVJENA-408
p1173
aVJENA-407
p1174
aVJENA-406
p1175
aVJENA-405
p1176
aVJENA-404
p1177
aVJENA-403
p1178
aVJENA-402
p1179
aVJENA-401
p1180
aVJENA-400
p1181
aVJENA-399
p1182
aVJENA-398
p1183
aVJENA-397
p1184
aVJENA-396
p1185
aVJENA-395
p1186
aVJENA-394
p1187
aVJENA-393
p1188
aVJENA-392
p1189
aVJENA-391
p1190
aVJENA-390
p1191
aVJENA-389
p1192
aVJENA-388
p1193
aVJENA-387
p1194
aVJENA-386
p1195
aVJENA-385
p1196
aVJENA-384
p1197
aVJENA-383
p1198
aVJENA-382
p1199
aVJENA-381
p1200
aVJENA-380
p1201
aVJENA-379
p1202
aVJENA-378
p1203
aVJENA-377
p1204
aVJENA-376
p1205
aVJENA-375
p1206
aVJENA-374
p1207
aVJENA-373
p1208
aVJENA-372
p1209
aVJENA-371
p1210
aVJENA-370
p1211
aVJENA-369
p1212
aVJENA-368
p1213
aVJENA-367
p1214
aVJENA-366
p1215
aVJENA-365
p1216
aVJENA-364
p1217
aVJENA-363
p1218
aVJENA-362
p1219
aVJENA-361
p1220
aVJENA-360
p1221
aVJENA-359
p1222
aVJENA-358
p1223
aVJENA-357
p1224
aVJENA-356
p1225
aVJENA-355
p1226
aVJENA-354
p1227
aVJENA-353
p1228
aVJENA-352
p1229
aVJENA-351
p1230
aVJENA-350
p1231
aVJENA-349
p1232
aVJENA-348
p1233
aVJENA-347
p1234
aVJENA-346
p1235
aVJENA-345
p1236
aVJENA-344
p1237
aVJENA-343
p1238
aVJENA-342
p1239
aVJENA-341
p1240
aVJENA-340
p1241
aVJENA-339
p1242
aVJENA-338
p1243
aVJENA-337
p1244
aVJENA-336
p1245
aVJENA-335
p1246
aVJENA-334
p1247
aVJENA-333
p1248
aVJENA-332
p1249
aVJENA-331
p1250
aVJENA-330
p1251
aVJENA-329
p1252
aVJENA-328
p1253
aVJENA-327
p1254
aVJENA-326
p1255
aVJENA-325
p1256
aVJENA-324
p1257
aVJENA-323
p1258
aVJENA-322
p1259
aVJENA-321
p1260
aVJENA-320
p1261
aVJENA-319
p1262
aVJENA-318
p1263
aVJENA-317
p1264
aVJENA-316
p1265
aVJENA-315
p1266
aVJENA-314
p1267
aVJENA-313
p1268
aVJENA-312
p1269
aVJENA-311
p1270
aVJENA-310
p1271
aVJENA-309
p1272
aVJENA-308
p1273
aVJENA-307
p1274
aVJENA-306
p1275
aVJENA-305
p1276
aVJENA-304
p1277
aVJENA-303
p1278
aVJENA-302
p1279
aVJENA-301
p1280
aVJENA-300
p1281
aVJENA-299
p1282
aVJENA-298
p1283
aVJENA-297
p1284
aVJENA-296
p1285
aVJENA-295
p1286
aVJENA-294
p1287
aVJENA-293
p1288
aVJENA-292
p1289
aVJENA-291
p1290
aVJENA-290
p1291
aVJENA-289
p1292
aVJENA-288
p1293
aVJENA-287
p1294
aVJENA-286
p1295
aVJENA-285
p1296
aVJENA-284
p1297
aVJENA-283
p1298
aVJENA-282
p1299
aVJENA-281
p1300
aVJENA-280
p1301
aVJENA-279
p1302
aVJENA-278
p1303
aVJENA-277
p1304
aVJENA-276
p1305
aVJENA-275
p1306
aVJENA-274
p1307
aVJENA-273
p1308
aVJENA-272
p1309
aVJENA-271
p1310
aVJENA-270
p1311
aVJENA-269
p1312
aVJENA-268
p1313
aVJENA-267
p1314
aVJENA-266
p1315
aVJENA-265
p1316
aVJENA-264
p1317
aVJENA-263
p1318
aVJENA-262
p1319
aVJENA-261
p1320
aVJENA-260
p1321
aVJENA-259
p1322
aVJENA-258
p1323
aVJENA-257
p1324
aVJENA-256
p1325
aVJENA-255
p1326
aVJENA-254
p1327
aVJENA-253
p1328
aVJENA-252
p1329
aVJENA-251
p1330
aVJENA-250
p1331
aVJENA-249
p1332
aVJENA-248
p1333
aVJENA-247
p1334
aVJENA-246
p1335
aVJENA-245
p1336
aVJENA-244
p1337
aVJENA-243
p1338
aVJENA-242
p1339
aVJENA-241
p1340
aVJENA-240
p1341
aVJENA-239
p1342
aVJENA-238
p1343
aVJENA-237
p1344
aVJENA-236
p1345
aVJENA-235
p1346
aVJENA-234
p1347
aVJENA-233
p1348
aVJENA-232
p1349
aVJENA-231
p1350
aVJENA-230
p1351
aVJENA-229
p1352
aVJENA-228
p1353
aVJENA-227
p1354
aVJENA-226
p1355
aVJENA-225
p1356
aVJENA-224
p1357
aVJENA-223
p1358
aVJENA-222
p1359
aVJENA-221
p1360
aVJENA-220
p1361
aVJENA-219
p1362
aVJENA-218
p1363
aVJENA-217
p1364
aVJENA-216
p1365
aVJENA-215
p1366
aVJENA-214
p1367
aVJENA-213
p1368
aVJENA-212
p1369
aVJENA-211
p1370
aVJENA-210
p1371
aVJENA-209
p1372
aVJENA-208
p1373
aVJENA-207
p1374
aVJENA-206
p1375
aVJENA-205
p1376
aVJENA-204
p1377
aVJENA-203
p1378
aVJENA-202
p1379
aVJENA-201
p1380
aVJENA-200
p1381
aVJENA-199
p1382
aVJENA-198
p1383
aVJENA-197
p1384
aVJENA-196
p1385
aVJENA-195
p1386
aVJENA-194
p1387
aVJENA-193
p1388
aVJENA-192
p1389
aVJENA-191
p1390
aVJENA-190
p1391
aVJENA-189
p1392
aVJENA-188
p1393
aVJENA-187
p1394
aVJENA-186
p1395
aVJENA-185
p1396
aVJENA-184
p1397
aVJENA-183
p1398
aVJENA-182
p1399
aVJENA-181
p1400
aVJENA-180
p1401
aVJENA-179
p1402
aVJENA-178
p1403
aVJENA-177
p1404
aVJENA-176
p1405
aVJENA-175
p1406
aVJENA-174
p1407
aVJENA-173
p1408
aVJENA-172
p1409
aVJENA-171
p1410
aVJENA-170
p1411
aVJENA-169
p1412
aVJENA-168
p1413
aVJENA-167
p1414
aVJENA-166
p1415
aVJENA-165
p1416
aVJENA-164
p1417
aVJENA-163
p1418
aVJENA-162
p1419
aVJENA-161
p1420
aVJENA-160
p1421
aVJENA-159
p1422
aVJENA-158
p1423
aVJENA-157
p1424
aVJENA-156
p1425
aVJENA-155
p1426
aVJENA-154
p1427
aVJENA-153
p1428
aVJENA-152
p1429
aVJENA-151
p1430
aVJENA-150
p1431
aVJENA-149
p1432
aVJENA-148
p1433
aVJENA-147
p1434
aVJENA-146
p1435
aVJENA-145
p1436
aVJENA-144
p1437
aVJENA-143
p1438
aVJENA-142
p1439
aVJENA-141
p1440
aVJENA-139
p1441
aVJENA-138
p1442
aVJENA-137
p1443
aVJENA-136
p1444
aVJENA-135
p1445
aVJENA-134
p1446
aVJENA-133
p1447
aVJENA-132
p1448
aVJENA-131
p1449
aVJENA-130
p1450
aVJENA-129
p1451
aVJENA-128
p1452
aVJENA-127
p1453
aVJENA-126
p1454
aVJENA-125
p1455
aVJENA-124
p1456
aVJENA-123
p1457
aVJENA-122
p1458
aVJENA-121
p1459
aVJENA-120
p1460
aVJENA-119
p1461
aVJENA-118
p1462
aVJENA-117
p1463
aVJENA-116
p1464
aVJENA-115
p1465
aVJENA-114
p1466
aVJENA-113
p1467
aVJENA-112
p1468
aVJENA-111
p1469
aVJENA-110
p1470
aVJENA-109
p1471
aVJENA-108
p1472
aVJENA-107
p1473
aVJENA-106
p1474
aVJENA-105
p1475
aVJENA-104
p1476
aVJENA-103
p1477
aVJENA-102
p1478
aVJENA-101
p1479
aVJENA-100
p1480
aVJENA-99
p1481
aVJENA-98
p1482
aVJENA-97
p1483
aVJENA-96
p1484
aVJENA-95
p1485
aVJENA-94
p1486
aVJENA-93
p1487
aVJENA-92
p1488
aVJENA-91
p1489
aVJENA-90
p1490
aVJENA-89
p1491
aVJENA-88
p1492
aVJENA-87
p1493
aVJENA-86
p1494
aVJENA-85
p1495
aVJENA-84
p1496
aVJENA-83
p1497
aVJENA-82
p1498
aVJENA-81
p1499
aVJENA-80
p1500
aVJENA-79
p1501
aVJENA-78
p1502
aVJENA-77
p1503
aVJENA-76
p1504
aVJENA-75
p1505
aVJENA-74
p1506
aVJENA-73
p1507
aVJENA-72
p1508
aVJENA-71
p1509
aVJENA-70
p1510
aVJENA-69
p1511
aVJENA-68
p1512
aVJENA-67
p1513
aVJENA-66
p1514
aVJENA-65
p1515
aVJENA-64
p1516
aVJENA-63
p1517
aVJENA-62
p1518
aVJENA-61
p1519
aVJENA-60
p1520
aVJENA-59
p1521
aVJENA-58
p1522
aVJENA-57
p1523
aVJENA-56
p1524
aVJENA-55
p1525
aVJENA-54
p1526
aVJENA-53
p1527
aVJENA-52
p1528
aVJENA-51
p1529
aVJENA-50
p1530
aVJENA-49
p1531
aVJENA-48
p1532
aVJENA-47
p1533
aVJENA-46
p1534
aVJENA-45
p1535
aVJENA-44
p1536
aVJENA-43
p1537
aVJENA-42
p1538
aVJENA-41
p1539
aVJENA-40
p1540
aVJENA-39
p1541
aVJENA-38
p1542
aVJENA-37
p1543
aVJENA-36
p1544
aVJENA-35
p1545
aVJENA-34
p1546
aVJENA-33
p1547
aVJENA-32
p1548
aVJENA-31
p1549
aVJENA-30
p1550
aVJENA-29
p1551
aVJENA-28
p1552
aVJENA-27
p1553
aVJENA-26
p1554
aVJENA-25
p1555
aVJENA-24
p1556
aVJENA-23
p1557
aVJENA-22
p1558
aVJENA-21
p1559
aVJENA-20
p1560
aVJENA-19
p1561
aVJENA-18
p1562
aVJENA-17
p1563
aVJENA-16
p1564
aVJENA-15
p1565
aVJENA-14
p1566
aVJENA-13
p1567
aVJENA-12
p1568
aVJENA-11
p1569
aVJENA-10
p1570
aVJENA-9
p1571
aVJENA-8
p1572
aVJENA-7
p1573
aVJENA-6
p1574
aVJENA-5
p1575
aVJENA-4
p1576
aVJENA-3
p1577
aVJENA-2
p1578
aVJENA-1
p1579
a.