(lp0
VJEXL-264
p1
aVJEXL-263
p2
aVJEXL-262
p3
aVJEXL-261
p4
aVJEXL-260
p5
aVJEXL-259
p6
aVJEXL-258
p7
aVJEXL-257
p8
aVJEXL-256
p9
aVJEXL-255
p10
aVJEXL-254
p11
aVJEXL-253
p12
aVJEXL-252
p13
aVJEXL-251
p14
aVJEXL-250
p15
aVJEXL-249
p16
aVJEXL-248
p17
aVJEXL-247
p18
aVJEXL-246
p19
aVJEXL-245
p20
aVJEXL-244
p21
aVJEXL-243
p22
aVJEXL-242
p23
aVJEXL-241
p24
aVJEXL-240
p25
aVJEXL-239
p26
aVJEXL-238
p27
aVJEXL-237
p28
aVJEXL-236
p29
aVJEXL-235
p30
aVJEXL-234
p31
aVJEXL-233
p32
aVJEXL-232
p33
aVJEXL-231
p34
aVJEXL-230
p35
aVJEXL-229
p36
aVJEXL-228
p37
aVJEXL-227
p38
aVJEXL-226
p39
aVJEXL-225
p40
aVJEXL-224
p41
aVJEXL-223
p42
aVJEXL-222
p43
aVJEXL-221
p44
aVJEXL-220
p45
aVJEXL-219
p46
aVJEXL-218
p47
aVJEXL-217
p48
aVJEXL-216
p49
aVJEXL-215
p50
aVJEXL-214
p51
aVJEXL-213
p52
aVJEXL-212
p53
aVJEXL-211
p54
aVJEXL-210
p55
aVJEXL-209
p56
aVJEXL-208
p57
aVJEXL-207
p58
aVJEXL-206
p59
aVJEXL-205
p60
aVJEXL-204
p61
aVJEXL-203
p62
aVJEXL-202
p63
aVJEXL-201
p64
aVJEXL-200
p65
aVJEXL-199
p66
aVJEXL-198
p67
aVJEXL-197
p68
aVJEXL-196
p69
aVJEXL-195
p70
aVJEXL-194
p71
aVJEXL-193
p72
aVJEXL-192
p73
aVJEXL-191
p74
aVJEXL-190
p75
aVJEXL-189
p76
aVJEXL-188
p77
aVJEXL-187
p78
aVJEXL-186
p79
aVJEXL-185
p80
aVJEXL-184
p81
aVJEXL-183
p82
aVJEXL-182
p83
aVJEXL-181
p84
aVJEXL-180
p85
aVJEXL-179
p86
aVJEXL-178
p87
aVJEXL-177
p88
aVJEXL-176
p89
aVJEXL-175
p90
aVJEXL-174
p91
aVJEXL-173
p92
aVJEXL-172
p93
aVJEXL-171
p94
aVJEXL-170
p95
aVJEXL-169
p96
aVJEXL-168
p97
aVJEXL-167
p98
aVJEXL-166
p99
aVJEXL-165
p100
aVJEXL-164
p101
aVJEXL-163
p102
aVJEXL-162
p103
aVJEXL-161
p104
aVJEXL-160
p105
aVJEXL-159
p106
aVJEXL-158
p107
aVJEXL-157
p108
aVJEXL-156
p109
aVJEXL-155
p110
aVJEXL-154
p111
aVJEXL-153
p112
aVJEXL-152
p113
aVJEXL-151
p114
aVJEXL-150
p115
aVJEXL-149
p116
aVJEXL-148
p117
aVJEXL-147
p118
aVJEXL-146
p119
aVJEXL-145
p120
aVJEXL-144
p121
aVJEXL-143
p122
aVJEXL-142
p123
aVJEXL-141
p124
aVJEXL-140
p125
aVJEXL-139
p126
aVJEXL-138
p127
aVJEXL-137
p128
aVJEXL-136
p129
aVJEXL-135
p130
aVJEXL-134
p131
aVJEXL-133
p132
aVJEXL-132
p133
aVJEXL-131
p134
aVJEXL-130
p135
aVJEXL-129
p136
aVJEXL-128
p137
aVJEXL-127
p138
aVJEXL-126
p139
aVJEXL-125
p140
aVJEXL-124
p141
aVJEXL-123
p142
aVJEXL-122
p143
aVJEXL-121
p144
aVJEXL-120
p145
aVJEXL-119
p146
aVJEXL-118
p147
aVJEXL-117
p148
aVJEXL-116
p149
aVJEXL-115
p150
aVJEXL-114
p151
aVJEXL-113
p152
aVJEXL-112
p153
aVJEXL-111
p154
aVJEXL-110
p155
aVJEXL-109
p156
aVJEXL-108
p157
aVJEXL-107
p158
aVJEXL-106
p159
aVJEXL-105
p160
aVJEXL-104
p161
aVJEXL-103
p162
aVJEXL-102
p163
aVJEXL-101
p164
aVJEXL-100
p165
aVJEXL-99
p166
aVJEXL-98
p167
aVJEXL-97
p168
aVJEXL-96
p169
aVJEXL-95
p170
aVJEXL-94
p171
aVJEXL-93
p172
aVJEXL-92
p173
aVJEXL-91
p174
aVJEXL-90
p175
aVJEXL-89
p176
aVJEXL-88
p177
aVJEXL-87
p178
aVJEXL-86
p179
aVJEXL-85
p180
aVJEXL-84
p181
aVJEXL-83
p182
aVJEXL-82
p183
aVJEXL-81
p184
aVJEXL-80
p185
aVJEXL-79
p186
aVJEXL-78
p187
aVJEXL-77
p188
aVJEXL-76
p189
aVJEXL-75
p190
aVJEXL-74
p191
aVJEXL-73
p192
aVJEXL-72
p193
aVJEXL-71
p194
aVJEXL-70
p195
aVJEXL-69
p196
aVJEXL-68
p197
aVJEXL-67
p198
aVJEXL-66
p199
aVJEXL-65
p200
aVJEXL-64
p201
aVJEXL-63
p202
aVJEXL-62
p203
aVJEXL-61
p204
aVJEXL-60
p205
aVJEXL-59
p206
aVJEXL-58
p207
aVJEXL-57
p208
aVJEXL-56
p209
aVJEXL-55
p210
aVJEXL-54
p211
aVJEXL-53
p212
aVJEXL-52
p213
aVJEXL-51
p214
aVJEXL-50
p215
aVJEXL-49
p216
aVJEXL-48
p217
aVJEXL-47
p218
aVJEXL-46
p219
aVJEXL-45
p220
aVJEXL-44
p221
aVJEXL-43
p222
aVJEXL-42
p223
aVJEXL-41
p224
aVJEXL-40
p225
aVJEXL-39
p226
aVJEXL-38
p227
aVJEXL-37
p228
aVJEXL-36
p229
aVJEXL-35
p230
aVJEXL-34
p231
aVJEXL-33
p232
aVJEXL-32
p233
aVJEXL-31
p234
aVJEXL-30
p235
aVJEXL-29
p236
aVJEXL-28
p237
aVJEXL-27
p238
aVJEXL-26
p239
aVJEXL-25
p240
aVJEXL-24
p241
aVJEXL-23
p242
aVJEXL-22
p243
aVJEXL-21
p244
aVJEXL-20
p245
aVJEXL-19
p246
aVJEXL-17
p247
aVJEXL-16
p248
aVJEXL-15
p249
aVJEXL-14
p250
aVJEXL-13
p251
aVJEXL-12
p252
aVJEXL-11
p253
aVJEXL-10
p254
aVJEXL-9
p255
aVJEXL-8
p256
aVJEXL-7
p257
aVJEXL-6
p258
aVJEXL-5
p259
aVJEXL-4
p260
aVJEXL-3
p261
aVJEXL-2
p262
aVJEXL-1
p263
a.