(lp0
VJOHNZON-184
p1
aVJOHNZON-183
p2
aVJOHNZON-182
p3
aVJOHNZON-181
p4
aVJOHNZON-180
p5
aVJOHNZON-179
p6
aVJOHNZON-178
p7
aVJOHNZON-177
p8
aVJOHNZON-176
p9
aVJOHNZON-175
p10
aVJOHNZON-174
p11
aVJOHNZON-173
p12
aVJOHNZON-172
p13
aVJOHNZON-171
p14
aVJOHNZON-170
p15
aVJOHNZON-169
p16
aVJOHNZON-168
p17
aVJOHNZON-167
p18
aVJOHNZON-166
p19
aVJOHNZON-165
p20
aVJOHNZON-164
p21
aVJOHNZON-163
p22
aVJOHNZON-162
p23
aVJOHNZON-161
p24
aVJOHNZON-160
p25
aVJOHNZON-159
p26
aVJOHNZON-158
p27
aVJOHNZON-157
p28
aVJOHNZON-156
p29
aVJOHNZON-155
p30
aVJOHNZON-154
p31
aVJOHNZON-153
p32
aVJOHNZON-152
p33
aVJOHNZON-151
p34
aVJOHNZON-150
p35
aVJOHNZON-149
p36
aVJOHNZON-148
p37
aVJOHNZON-147
p38
aVJOHNZON-146
p39
aVJOHNZON-145
p40
aVJOHNZON-144
p41
aVJOHNZON-143
p42
aVJOHNZON-142
p43
aVJOHNZON-141
p44
aVJOHNZON-140
p45
aVJOHNZON-139
p46
aVJOHNZON-138
p47
aVJOHNZON-137
p48
aVJOHNZON-136
p49
aVJOHNZON-135
p50
aVJOHNZON-134
p51
aVJOHNZON-133
p52
aVJOHNZON-132
p53
aVJOHNZON-131
p54
aVJOHNZON-130
p55
aVJOHNZON-129
p56
aVJOHNZON-128
p57
aVJOHNZON-127
p58
aVJOHNZON-126
p59
aVJOHNZON-125
p60
aVJOHNZON-124
p61
aVJOHNZON-123
p62
aVJOHNZON-122
p63
aVJOHNZON-121
p64
aVJOHNZON-120
p65
aVJOHNZON-119
p66
aVJOHNZON-118
p67
aVJOHNZON-117
p68
aVJOHNZON-116
p69
aVJOHNZON-115
p70
aVJOHNZON-114
p71
aVJOHNZON-113
p72
aVJOHNZON-112
p73
aVJOHNZON-111
p74
aVJOHNZON-110
p75
aVJOHNZON-109
p76
aVJOHNZON-108
p77
aVJOHNZON-107
p78
aVJOHNZON-106
p79
aVJOHNZON-105
p80
aVJOHNZON-104
p81
aVJOHNZON-103
p82
aVJOHNZON-102
p83
aVJOHNZON-101
p84
aVJOHNZON-100
p85
aVJOHNZON-99
p86
aVJOHNZON-98
p87
aVJOHNZON-97
p88
aVJOHNZON-96
p89
aVJOHNZON-95
p90
aVJOHNZON-94
p91
aVJOHNZON-93
p92
aVJOHNZON-92
p93
aVJOHNZON-91
p94
aVJOHNZON-90
p95
aVJOHNZON-89
p96
aVJOHNZON-88
p97
aVJOHNZON-87
p98
aVJOHNZON-86
p99
aVJOHNZON-85
p100
aVJOHNZON-84
p101
aVJOHNZON-83
p102
aVJOHNZON-82
p103
aVJOHNZON-81
p104
aVJOHNZON-80
p105
aVJOHNZON-79
p106
aVJOHNZON-78
p107
aVJOHNZON-77
p108
aVJOHNZON-76
p109
aVJOHNZON-75
p110
aVJOHNZON-74
p111
aVJOHNZON-73
p112
aVJOHNZON-72
p113
aVJOHNZON-71
p114
aVJOHNZON-70
p115
aVJOHNZON-69
p116
aVJOHNZON-68
p117
aVJOHNZON-67
p118
aVJOHNZON-66
p119
aVJOHNZON-65
p120
aVJOHNZON-64
p121
aVJOHNZON-63
p122
aVJOHNZON-62
p123
aVJOHNZON-61
p124
aVJOHNZON-60
p125
aVJOHNZON-59
p126
aVJOHNZON-58
p127
aVJOHNZON-57
p128
aVJOHNZON-56
p129
aVJOHNZON-55
p130
aVJOHNZON-54
p131
aVJOHNZON-53
p132
aVJOHNZON-52
p133
aVJOHNZON-51
p134
aVJOHNZON-50
p135
aVJOHNZON-49
p136
aVJOHNZON-48
p137
aVJOHNZON-47
p138
aVJOHNZON-46
p139
aVJOHNZON-45
p140
aVJOHNZON-44
p141
aVJOHNZON-43
p142
aVJOHNZON-42
p143
aVJOHNZON-41
p144
aVJOHNZON-40
p145
aVJOHNZON-39
p146
aVJOHNZON-38
p147
aVJOHNZON-37
p148
aVJOHNZON-36
p149
aVJOHNZON-35
p150
aVJOHNZON-34
p151
aVJOHNZON-33
p152
aVJOHNZON-32
p153
aVJOHNZON-31
p154
aVJOHNZON-30
p155
aVJOHNZON-29
p156
aVJOHNZON-28
p157
aVJOHNZON-27
p158
aVJOHNZON-26
p159
aVJOHNZON-25
p160
aVJOHNZON-24
p161
aVJOHNZON-23
p162
aVJOHNZON-22
p163
aVJOHNZON-21
p164
aVJOHNZON-20
p165
aVJOHNZON-19
p166
aVJOHNZON-18
p167
aVJOHNZON-17
p168
aVJOHNZON-16
p169
aVJOHNZON-15
p170
aVJOHNZON-14
p171
aVJOHNZON-13
p172
aVJOHNZON-12
p173
aVJOHNZON-11
p174
aVJOHNZON-10
p175
aVJOHNZON-9
p176
aVJOHNZON-8
p177
aVJOHNZON-7
p178
aVJOHNZON-6
p179
aVJOHNZON-5
p180
aVJOHNZON-4
p181
aVJOHNZON-3
p182
aVJOHNZON-2
p183
aVJOHNZON-1
p184
a.