(lp0
VJSIEVE-109
p1
aVJSIEVE-108
p2
aVJSIEVE-107
p3
aVJSIEVE-106
p4
aVJSIEVE-105
p5
aVJSIEVE-104
p6
aVJSIEVE-103
p7
aVJSIEVE-102
p8
aVJSIEVE-101
p9
aVJSIEVE-100
p10
aVJSIEVE-99
p11
aVJSIEVE-98
p12
aVJSIEVE-97
p13
aVJSIEVE-96
p14
aVJSIEVE-95
p15
aVJSIEVE-94
p16
aVJSIEVE-93
p17
aVJSIEVE-92
p18
aVJSIEVE-91
p19
aVJSIEVE-90
p20
aVJSIEVE-89
p21
aVJSIEVE-88
p22
aVJSIEVE-87
p23
aVJSIEVE-86
p24
aVJSIEVE-85
p25
aVJSIEVE-84
p26
aVJSIEVE-83
p27
aVJSIEVE-82
p28
aVJSIEVE-81
p29
aVJSIEVE-80
p30
aVJSIEVE-79
p31
aVJSIEVE-78
p32
aVJSIEVE-77
p33
aVJSIEVE-76
p34
aVJSIEVE-75
p35
aVJSIEVE-74
p36
aVJSIEVE-73
p37
aVJSIEVE-72
p38
aVJSIEVE-71
p39
aVJSIEVE-70
p40
aVJSIEVE-69
p41
aVJSIEVE-68
p42
aVJSIEVE-67
p43
aVJSIEVE-66
p44
aVJSIEVE-65
p45
aVJSIEVE-64
p46
aVJSIEVE-63
p47
aVJSIEVE-62
p48
aVJSIEVE-61
p49
aVJSIEVE-59
p50
aVJSIEVE-58
p51
aVJSIEVE-57
p52
aVJSIEVE-56
p53
aVJSIEVE-55
p54
aVJSIEVE-54
p55
aVJSIEVE-53
p56
aVJSIEVE-52
p57
aVJSIEVE-51
p58
aVJSIEVE-50
p59
aVJSIEVE-49
p60
aVJSIEVE-48
p61
aVJSIEVE-47
p62
aVJSIEVE-46
p63
aVJSIEVE-45
p64
aVJSIEVE-44
p65
aVJSIEVE-43
p66
aVJSIEVE-42
p67
aVJSIEVE-41
p68
aVJSIEVE-40
p69
aVJSIEVE-39
p70
aVJSIEVE-38
p71
aVJSIEVE-37
p72
aVJSIEVE-36
p73
aVJSIEVE-35
p74
aVJSIEVE-34
p75
aVJSIEVE-33
p76
aVJSIEVE-32
p77
aVJSIEVE-31
p78
aVJSIEVE-30
p79
aVJSIEVE-29
p80
aVJSIEVE-28
p81
aVJSIEVE-27
p82
aVJSIEVE-26
p83
aVJSIEVE-25
p84
aVJSIEVE-24
p85
aVJSIEVE-23
p86
aVJSIEVE-22
p87
aVJSIEVE-21
p88
aVJSIEVE-20
p89
aVJSIEVE-19
p90
aVJSIEVE-18
p91
aVJSIEVE-17
p92
aVJSIEVE-16
p93
aVJSIEVE-15
p94
aVJSIEVE-14
p95
aVJSIEVE-13
p96
aVJSIEVE-12
p97
aVJSIEVE-11
p98
aVJSIEVE-10
p99
aVJSIEVE-8
p100
aVJSIEVE-7
p101
aVJSIEVE-6
p102
aVJSIEVE-5
p103
aVJSIEVE-4
p104
aVJSIEVE-3
p105
aVJSIEVE-2
p106
aVJSIEVE-1
p107
a.