(lp0
VJSPF-102
p1
aVJSPF-101
p2
aVJSPF-100
p3
aVJSPF-99
p4
aVJSPF-98
p5
aVJSPF-97
p6
aVJSPF-96
p7
aVJSPF-95
p8
aVJSPF-94
p9
aVJSPF-93
p10
aVJSPF-92
p11
aVJSPF-91
p12
aVJSPF-90
p13
aVJSPF-89
p14
aVJSPF-88
p15
aVJSPF-87
p16
aVJSPF-86
p17
aVJSPF-85
p18
aVJSPF-84
p19
aVJSPF-83
p20
aVJSPF-82
p21
aVJSPF-81
p22
aVJSPF-80
p23
aVJSPF-79
p24
aVJSPF-78
p25
aVJSPF-77
p26
aVJSPF-76
p27
aVJSPF-75
p28
aVJSPF-74
p29
aVJSPF-73
p30
aVJSPF-72
p31
aVJSPF-71
p32
aVJSPF-70
p33
aVJSPF-69
p34
aVJSPF-68
p35
aVJSPF-67
p36
aVJSPF-66
p37
aVJSPF-65
p38
aVJSPF-64
p39
aVJSPF-63
p40
aVJSPF-62
p41
aVJSPF-61
p42
aVJSPF-60
p43
aVJSPF-59
p44
aVJSPF-58
p45
aVJSPF-57
p46
aVJSPF-56
p47
aVJSPF-55
p48
aVJSPF-54
p49
aVJSPF-53
p50
aVJSPF-52
p51
aVJSPF-51
p52
aVJSPF-50
p53
aVJSPF-49
p54
aVJSPF-48
p55
aVJSPF-47
p56
aVJSPF-46
p57
aVJSPF-45
p58
aVJSPF-44
p59
aVJSPF-43
p60
aVJSPF-42
p61
aVJSPF-41
p62
aVJSPF-40
p63
aVJSPF-39
p64
aVJSPF-38
p65
aVJSPF-37
p66
aVJSPF-36
p67
aVJSPF-35
p68
aVJSPF-34
p69
aVJSPF-33
p70
aVJSPF-32
p71
aVJSPF-31
p72
aVJSPF-30
p73
aVJSPF-29
p74
aVJSPF-28
p75
aVJSPF-27
p76
aVJSPF-26
p77
aVJSPF-25
p78
aVJSPF-24
p79
aVJSPF-23
p80
aVJSPF-22
p81
aVJSPF-21
p82
aVJSPF-20
p83
aVJSPF-19
p84
aVJSPF-18
p85
aVJSPF-17
p86
aVJSPF-16
p87
aVJSPF-15
p88
aVJSPF-14
p89
aVJSPF-13
p90
aVJSPF-12
p91
aVJSPF-11
p92
aVJSPF-10
p93
aVJSPF-9
p94
aVJSPF-8
p95
aVJSPF-7
p96
aVJSPF-6
p97
aVJSPF-5
p98
aVJSPF-4
p99
aVJSPF-3
p100
aVJSPF-2
p101
aVJSPF-1
p102
a.