(lp0
VJSPWIKI-1071
p1
aVJSPWIKI-1070
p2
aVJSPWIKI-1069
p3
aVJSPWIKI-1068
p4
aVJSPWIKI-1067
p5
aVJSPWIKI-1066
p6
aVJSPWIKI-1065
p7
aVJSPWIKI-1064
p8
aVJSPWIKI-1063
p9
aVJSPWIKI-1062
p10
aVJSPWIKI-1061
p11
aVJSPWIKI-1060
p12
aVJSPWIKI-1059
p13
aVJSPWIKI-1058
p14
aVJSPWIKI-1057
p15
aVJSPWIKI-1056
p16
aVJSPWIKI-1055
p17
aVJSPWIKI-1054
p18
aVJSPWIKI-1053
p19
aVJSPWIKI-1052
p20
aVJSPWIKI-1051
p21
aVJSPWIKI-1050
p22
aVJSPWIKI-1049
p23
aVJSPWIKI-1047
p24
aVJSPWIKI-1046
p25
aVJSPWIKI-1045
p26
aVJSPWIKI-1044
p27
aVJSPWIKI-1043
p28
aVJSPWIKI-1042
p29
aVJSPWIKI-1041
p30
aVJSPWIKI-1040
p31
aVJSPWIKI-1039
p32
aVJSPWIKI-1038
p33
aVJSPWIKI-1037
p34
aVJSPWIKI-1036
p35
aVJSPWIKI-1035
p36
aVJSPWIKI-1034
p37
aVJSPWIKI-1033
p38
aVJSPWIKI-1032
p39
aVJSPWIKI-1031
p40
aVJSPWIKI-1030
p41
aVJSPWIKI-1029
p42
aVJSPWIKI-1027
p43
aVJSPWIKI-979
p44
aVJSPWIKI-937
p45
aVJSPWIKI-936
p46
aVJSPWIKI-935
p47
aVJSPWIKI-934
p48
aVJSPWIKI-933
p49
aVJSPWIKI-932
p50
aVJSPWIKI-931
p51
aVJSPWIKI-930
p52
aVJSPWIKI-929
p53
aVJSPWIKI-928
p54
aVJSPWIKI-925
p55
aVJSPWIKI-924
p56
aVJSPWIKI-923
p57
aVJSPWIKI-922
p58
aVJSPWIKI-921
p59
aVJSPWIKI-920
p60
aVJSPWIKI-919
p61
aVJSPWIKI-918
p62
aVJSPWIKI-917
p63
aVJSPWIKI-916
p64
aVJSPWIKI-915
p65
aVJSPWIKI-914
p66
aVJSPWIKI-913
p67
aVJSPWIKI-912
p68
aVJSPWIKI-911
p69
aVJSPWIKI-910
p70
aVJSPWIKI-909
p71
aVJSPWIKI-908
p72
aVJSPWIKI-907
p73
aVJSPWIKI-906
p74
aVJSPWIKI-905
p75
aVJSPWIKI-904
p76
aVJSPWIKI-903
p77
aVJSPWIKI-902
p78
aVJSPWIKI-901
p79
aVJSPWIKI-900
p80
aVJSPWIKI-899
p81
aVJSPWIKI-898
p82
aVJSPWIKI-897
p83
aVJSPWIKI-896
p84
aVJSPWIKI-895
p85
aVJSPWIKI-894
p86
aVJSPWIKI-893
p87
aVJSPWIKI-892
p88
aVJSPWIKI-891
p89
aVJSPWIKI-890
p90
aVJSPWIKI-889
p91
aVJSPWIKI-888
p92
aVJSPWIKI-887
p93
aVJSPWIKI-886
p94
aVJSPWIKI-885
p95
aVJSPWIKI-884
p96
aVJSPWIKI-883
p97
aVJSPWIKI-882
p98
aVJSPWIKI-881
p99
aVJSPWIKI-880
p100
aVJSPWIKI-879
p101
aVJSPWIKI-878
p102
aVJSPWIKI-877
p103
aVJSPWIKI-876
p104
aVJSPWIKI-875
p105
aVJSPWIKI-874
p106
aVJSPWIKI-873
p107
aVJSPWIKI-872
p108
aVJSPWIKI-871
p109
aVJSPWIKI-870
p110
aVJSPWIKI-869
p111
aVJSPWIKI-868
p112
aVJSPWIKI-867
p113
aVJSPWIKI-866
p114
aVJSPWIKI-865
p115
aVJSPWIKI-864
p116
aVJSPWIKI-863
p117
aVJSPWIKI-862
p118
aVJSPWIKI-861
p119
aVJSPWIKI-860
p120
aVJSPWIKI-859
p121
aVJSPWIKI-858
p122
aVJSPWIKI-857
p123
aVJSPWIKI-856
p124
aVJSPWIKI-855
p125
aVJSPWIKI-854
p126
aVJSPWIKI-853
p127
aVJSPWIKI-852
p128
aVJSPWIKI-851
p129
aVJSPWIKI-850
p130
aVJSPWIKI-849
p131
aVJSPWIKI-848
p132
aVJSPWIKI-847
p133
aVJSPWIKI-846
p134
aVJSPWIKI-845
p135
aVJSPWIKI-844
p136
aVJSPWIKI-843
p137
aVJSPWIKI-842
p138
aVJSPWIKI-841
p139
aVJSPWIKI-840
p140
aVJSPWIKI-839
p141
aVJSPWIKI-838
p142
aVJSPWIKI-837
p143
aVJSPWIKI-836
p144
aVJSPWIKI-835
p145
aVJSPWIKI-834
p146
aVJSPWIKI-833
p147
aVJSPWIKI-832
p148
aVJSPWIKI-831
p149
aVJSPWIKI-830
p150
aVJSPWIKI-829
p151
aVJSPWIKI-828
p152
aVJSPWIKI-827
p153
aVJSPWIKI-826
p154
aVJSPWIKI-825
p155
aVJSPWIKI-824
p156
aVJSPWIKI-823
p157
aVJSPWIKI-822
p158
aVJSPWIKI-821
p159
aVJSPWIKI-820
p160
aVJSPWIKI-819
p161
aVJSPWIKI-818
p162
aVJSPWIKI-817
p163
aVJSPWIKI-816
p164
aVJSPWIKI-815
p165
aVJSPWIKI-814
p166
aVJSPWIKI-813
p167
aVJSPWIKI-812
p168
aVJSPWIKI-811
p169
aVJSPWIKI-810
p170
aVJSPWIKI-809
p171
aVJSPWIKI-808
p172
aVJSPWIKI-807
p173
aVJSPWIKI-806
p174
aVJSPWIKI-805
p175
aVJSPWIKI-804
p176
aVJSPWIKI-803
p177
aVJSPWIKI-802
p178
aVJSPWIKI-801
p179
aVJSPWIKI-800
p180
aVJSPWIKI-799
p181
aVJSPWIKI-798
p182
aVJSPWIKI-797
p183
aVJSPWIKI-796
p184
aVJSPWIKI-795
p185
aVJSPWIKI-794
p186
aVJSPWIKI-793
p187
aVJSPWIKI-792
p188
aVJSPWIKI-791
p189
aVJSPWIKI-790
p190
aVJSPWIKI-789
p191
aVJSPWIKI-788
p192
aVJSPWIKI-787
p193
aVJSPWIKI-786
p194
aVJSPWIKI-785
p195
aVJSPWIKI-784
p196
aVJSPWIKI-783
p197
aVJSPWIKI-782
p198
aVJSPWIKI-781
p199
aVJSPWIKI-780
p200
aVJSPWIKI-779
p201
aVJSPWIKI-778
p202
aVJSPWIKI-777
p203
aVJSPWIKI-776
p204
aVJSPWIKI-775
p205
aVJSPWIKI-774
p206
aVJSPWIKI-773
p207
aVJSPWIKI-772
p208
aVJSPWIKI-771
p209
aVJSPWIKI-770
p210
aVJSPWIKI-769
p211
aVJSPWIKI-768
p212
aVJSPWIKI-767
p213
aVJSPWIKI-766
p214
aVJSPWIKI-765
p215
aVJSPWIKI-764
p216
aVJSPWIKI-763
p217
aVJSPWIKI-762
p218
aVJSPWIKI-761
p219
aVJSPWIKI-760
p220
aVJSPWIKI-759
p221
aVJSPWIKI-758
p222
aVJSPWIKI-757
p223
aVJSPWIKI-756
p224
aVJSPWIKI-755
p225
aVJSPWIKI-754
p226
aVJSPWIKI-753
p227
aVJSPWIKI-752
p228
aVJSPWIKI-751
p229
aVJSPWIKI-750
p230
aVJSPWIKI-749
p231
aVJSPWIKI-748
p232
aVJSPWIKI-747
p233
aVJSPWIKI-746
p234
aVJSPWIKI-745
p235
aVJSPWIKI-744
p236
aVJSPWIKI-743
p237
aVJSPWIKI-742
p238
aVJSPWIKI-739
p239
aVJSPWIKI-738
p240
aVJSPWIKI-737
p241
aVJSPWIKI-736
p242
aVJSPWIKI-735
p243
aVJSPWIKI-734
p244
aVJSPWIKI-733
p245
aVJSPWIKI-732
p246
aVJSPWIKI-731
p247
aVJSPWIKI-730
p248
aVJSPWIKI-729
p249
aVJSPWIKI-728
p250
aVJSPWIKI-727
p251
aVJSPWIKI-726
p252
aVJSPWIKI-725
p253
aVJSPWIKI-724
p254
aVJSPWIKI-723
p255
aVJSPWIKI-722
p256
aVJSPWIKI-721
p257
aVJSPWIKI-720
p258
aVJSPWIKI-719
p259
aVJSPWIKI-718
p260
aVJSPWIKI-717
p261
aVJSPWIKI-716
p262
aVJSPWIKI-715
p263
aVJSPWIKI-714
p264
aVJSPWIKI-713
p265
aVJSPWIKI-712
p266
aVJSPWIKI-711
p267
aVJSPWIKI-710
p268
aVJSPWIKI-709
p269
aVJSPWIKI-708
p270
aVJSPWIKI-705
p271
aVJSPWIKI-704
p272
aVJSPWIKI-703
p273
aVJSPWIKI-702
p274
aVJSPWIKI-701
p275
aVJSPWIKI-700
p276
aVJSPWIKI-699
p277
aVJSPWIKI-698
p278
aVJSPWIKI-697
p279
aVJSPWIKI-696
p280
aVJSPWIKI-695
p281
aVJSPWIKI-694
p282
aVJSPWIKI-693
p283
aVJSPWIKI-692
p284
aVJSPWIKI-691
p285
aVJSPWIKI-690
p286
aVJSPWIKI-689
p287
aVJSPWIKI-688
p288
aVJSPWIKI-687
p289
aVJSPWIKI-686
p290
aVJSPWIKI-685
p291
aVJSPWIKI-684
p292
aVJSPWIKI-683
p293
aVJSPWIKI-682
p294
aVJSPWIKI-681
p295
aVJSPWIKI-680
p296
aVJSPWIKI-679
p297
aVJSPWIKI-677
p298
aVJSPWIKI-675
p299
aVJSPWIKI-674
p300
aVJSPWIKI-673
p301
aVJSPWIKI-672
p302
aVJSPWIKI-671
p303
aVJSPWIKI-667
p304
aVJSPWIKI-666
p305
aVJSPWIKI-665
p306
aVJSPWIKI-664
p307
aVJSPWIKI-663
p308
aVJSPWIKI-662
p309
aVJSPWIKI-661
p310
aVJSPWIKI-660
p311
aVJSPWIKI-659
p312
aVJSPWIKI-658
p313
aVJSPWIKI-657
p314
aVJSPWIKI-656
p315
aVJSPWIKI-655
p316
aVJSPWIKI-654
p317
aVJSPWIKI-653
p318
aVJSPWIKI-652
p319
aVJSPWIKI-651
p320
aVJSPWIKI-650
p321
aVJSPWIKI-649
p322
aVJSPWIKI-648
p323
aVJSPWIKI-647
p324
aVJSPWIKI-646
p325
aVJSPWIKI-645
p326
aVJSPWIKI-644
p327
aVJSPWIKI-643
p328
aVJSPWIKI-642
p329
aVJSPWIKI-641
p330
aVJSPWIKI-640
p331
aVJSPWIKI-639
p332
aVJSPWIKI-638
p333
aVJSPWIKI-637
p334
aVJSPWIKI-636
p335
aVJSPWIKI-635
p336
aVJSPWIKI-634
p337
aVJSPWIKI-633
p338
aVJSPWIKI-632
p339
aVJSPWIKI-631
p340
aVJSPWIKI-630
p341
aVJSPWIKI-629
p342
aVJSPWIKI-628
p343
aVJSPWIKI-627
p344
aVJSPWIKI-626
p345
aVJSPWIKI-625
p346
aVJSPWIKI-624
p347
aVJSPWIKI-623
p348
aVJSPWIKI-622
p349
aVJSPWIKI-621
p350
aVJSPWIKI-620
p351
aVJSPWIKI-619
p352
aVJSPWIKI-618
p353
aVJSPWIKI-617
p354
aVJSPWIKI-616
p355
aVJSPWIKI-615
p356
aVJSPWIKI-614
p357
aVJSPWIKI-613
p358
aVJSPWIKI-612
p359
aVJSPWIKI-611
p360
aVJSPWIKI-610
p361
aVJSPWIKI-609
p362
aVJSPWIKI-608
p363
aVJSPWIKI-607
p364
aVJSPWIKI-606
p365
aVJSPWIKI-605
p366
aVJSPWIKI-604
p367
aVJSPWIKI-603
p368
aVJSPWIKI-602
p369
aVJSPWIKI-601
p370
aVJSPWIKI-600
p371
aVJSPWIKI-599
p372
aVJSPWIKI-598
p373
aVJSPWIKI-597
p374
aVJSPWIKI-596
p375
aVJSPWIKI-595
p376
aVJSPWIKI-594
p377
aVJSPWIKI-593
p378
aVJSPWIKI-592
p379
aVJSPWIKI-591
p380
aVJSPWIKI-590
p381
aVJSPWIKI-589
p382
aVJSPWIKI-588
p383
aVJSPWIKI-587
p384
aVJSPWIKI-586
p385
aVJSPWIKI-585
p386
aVJSPWIKI-584
p387
aVJSPWIKI-583
p388
aVJSPWIKI-582
p389
aVJSPWIKI-581
p390
aVJSPWIKI-580
p391
aVJSPWIKI-579
p392
aVJSPWIKI-578
p393
aVJSPWIKI-577
p394
aVJSPWIKI-576
p395
aVJSPWIKI-575
p396
aVJSPWIKI-574
p397
aVJSPWIKI-573
p398
aVJSPWIKI-572
p399
aVJSPWIKI-571
p400
aVJSPWIKI-570
p401
aVJSPWIKI-569
p402
aVJSPWIKI-568
p403
aVJSPWIKI-567
p404
aVJSPWIKI-566
p405
aVJSPWIKI-565
p406
aVJSPWIKI-564
p407
aVJSPWIKI-563
p408
aVJSPWIKI-562
p409
aVJSPWIKI-561
p410
aVJSPWIKI-560
p411
aVJSPWIKI-559
p412
aVJSPWIKI-558
p413
aVJSPWIKI-557
p414
aVJSPWIKI-556
p415
aVJSPWIKI-555
p416
aVJSPWIKI-554
p417
aVJSPWIKI-553
p418
aVJSPWIKI-552
p419
aVJSPWIKI-551
p420
aVJSPWIKI-550
p421
aVJSPWIKI-549
p422
aVJSPWIKI-548
p423
aVJSPWIKI-547
p424
aVJSPWIKI-546
p425
aVJSPWIKI-545
p426
aVJSPWIKI-544
p427
aVJSPWIKI-543
p428
aVJSPWIKI-542
p429
aVJSPWIKI-541
p430
aVJSPWIKI-540
p431
aVJSPWIKI-539
p432
aVJSPWIKI-538
p433
aVJSPWIKI-537
p434
aVJSPWIKI-536
p435
aVJSPWIKI-535
p436
aVJSPWIKI-534
p437
aVJSPWIKI-533
p438
aVJSPWIKI-532
p439
aVJSPWIKI-531
p440
aVJSPWIKI-530
p441
aVJSPWIKI-529
p442
aVJSPWIKI-528
p443
aVJSPWIKI-527
p444
aVJSPWIKI-526
p445
aVJSPWIKI-525
p446
aVJSPWIKI-524
p447
aVJSPWIKI-523
p448
aVJSPWIKI-522
p449
aVJSPWIKI-521
p450
aVJSPWIKI-520
p451
aVJSPWIKI-519
p452
aVJSPWIKI-518
p453
aVJSPWIKI-517
p454
aVJSPWIKI-515
p455
aVJSPWIKI-514
p456
aVJSPWIKI-513
p457
aVJSPWIKI-512
p458
aVJSPWIKI-511
p459
aVJSPWIKI-510
p460
aVJSPWIKI-509
p461
aVJSPWIKI-508
p462
aVJSPWIKI-507
p463
aVJSPWIKI-506
p464
aVJSPWIKI-505
p465
aVJSPWIKI-504
p466
aVJSPWIKI-503
p467
aVJSPWIKI-502
p468
aVJSPWIKI-501
p469
aVJSPWIKI-500
p470
aVJSPWIKI-499
p471
aVJSPWIKI-498
p472
aVJSPWIKI-497
p473
aVJSPWIKI-496
p474
aVJSPWIKI-495
p475
aVJSPWIKI-494
p476
aVJSPWIKI-493
p477
aVJSPWIKI-492
p478
aVJSPWIKI-491
p479
aVJSPWIKI-490
p480
aVJSPWIKI-489
p481
aVJSPWIKI-488
p482
aVJSPWIKI-487
p483
aVJSPWIKI-486
p484
aVJSPWIKI-485
p485
aVJSPWIKI-484
p486
aVJSPWIKI-483
p487
aVJSPWIKI-482
p488
aVJSPWIKI-481
p489
aVJSPWIKI-480
p490
aVJSPWIKI-479
p491
aVJSPWIKI-478
p492
aVJSPWIKI-477
p493
aVJSPWIKI-476
p494
aVJSPWIKI-475
p495
aVJSPWIKI-474
p496
aVJSPWIKI-473
p497
aVJSPWIKI-472
p498
aVJSPWIKI-471
p499
aVJSPWIKI-470
p500
aVJSPWIKI-469
p501
aVJSPWIKI-468
p502
aVJSPWIKI-467
p503
aVJSPWIKI-466
p504
aVJSPWIKI-465
p505
aVJSPWIKI-464
p506
aVJSPWIKI-463
p507
aVJSPWIKI-462
p508
aVJSPWIKI-461
p509
aVJSPWIKI-460
p510
aVJSPWIKI-459
p511
aVJSPWIKI-458
p512
aVJSPWIKI-457
p513
aVJSPWIKI-456
p514
aVJSPWIKI-455
p515
aVJSPWIKI-454
p516
aVJSPWIKI-453
p517
aVJSPWIKI-452
p518
aVJSPWIKI-451
p519
aVJSPWIKI-450
p520
aVJSPWIKI-449
p521
aVJSPWIKI-448
p522
aVJSPWIKI-447
p523
aVJSPWIKI-446
p524
aVJSPWIKI-445
p525
aVJSPWIKI-444
p526
aVJSPWIKI-443
p527
aVJSPWIKI-442
p528
aVJSPWIKI-441
p529
aVJSPWIKI-440
p530
aVJSPWIKI-439
p531
aVJSPWIKI-438
p532
aVJSPWIKI-437
p533
aVJSPWIKI-436
p534
aVJSPWIKI-435
p535
aVJSPWIKI-434
p536
aVJSPWIKI-433
p537
aVJSPWIKI-432
p538
aVJSPWIKI-431
p539
aVJSPWIKI-430
p540
aVJSPWIKI-429
p541
aVJSPWIKI-428
p542
aVJSPWIKI-427
p543
aVJSPWIKI-426
p544
aVJSPWIKI-425
p545
aVJSPWIKI-424
p546
aVJSPWIKI-423
p547
aVJSPWIKI-422
p548
aVJSPWIKI-421
p549
aVJSPWIKI-420
p550
aVJSPWIKI-419
p551
aVJSPWIKI-418
p552
aVJSPWIKI-417
p553
aVJSPWIKI-416
p554
aVJSPWIKI-415
p555
aVJSPWIKI-414
p556
aVJSPWIKI-413
p557
aVJSPWIKI-412
p558
aVJSPWIKI-411
p559
aVJSPWIKI-410
p560
aVJSPWIKI-409
p561
aVJSPWIKI-408
p562
aVJSPWIKI-407
p563
aVJSPWIKI-406
p564
aVJSPWIKI-405
p565
aVJSPWIKI-404
p566
aVJSPWIKI-403
p567
aVJSPWIKI-402
p568
aVJSPWIKI-401
p569
aVJSPWIKI-400
p570
aVJSPWIKI-399
p571
aVJSPWIKI-398
p572
aVJSPWIKI-397
p573
aVJSPWIKI-396
p574
aVJSPWIKI-395
p575
aVJSPWIKI-394
p576
aVJSPWIKI-393
p577
aVJSPWIKI-392
p578
aVJSPWIKI-391
p579
aVJSPWIKI-390
p580
aVJSPWIKI-389
p581
aVJSPWIKI-388
p582
aVJSPWIKI-387
p583
aVJSPWIKI-386
p584
aVJSPWIKI-385
p585
aVJSPWIKI-383
p586
aVJSPWIKI-382
p587
aVJSPWIKI-381
p588
aVJSPWIKI-380
p589
aVJSPWIKI-379
p590
aVJSPWIKI-378
p591
aVJSPWIKI-377
p592
aVJSPWIKI-376
p593
aVJSPWIKI-375
p594
aVJSPWIKI-374
p595
aVJSPWIKI-373
p596
aVJSPWIKI-372
p597
aVJSPWIKI-371
p598
aVJSPWIKI-370
p599
aVJSPWIKI-369
p600
aVJSPWIKI-368
p601
aVJSPWIKI-367
p602
aVJSPWIKI-366
p603
aVJSPWIKI-365
p604
aVJSPWIKI-364
p605
aVJSPWIKI-363
p606
aVJSPWIKI-362
p607
aVJSPWIKI-360
p608
aVJSPWIKI-359
p609
aVJSPWIKI-358
p610
aVJSPWIKI-357
p611
aVJSPWIKI-356
p612
aVJSPWIKI-355
p613
aVJSPWIKI-354
p614
aVJSPWIKI-353
p615
aVJSPWIKI-352
p616
aVJSPWIKI-351
p617
aVJSPWIKI-350
p618
aVJSPWIKI-349
p619
aVJSPWIKI-348
p620
aVJSPWIKI-347
p621
aVJSPWIKI-346
p622
aVJSPWIKI-345
p623
aVJSPWIKI-344
p624
aVJSPWIKI-343
p625
aVJSPWIKI-342
p626
aVJSPWIKI-341
p627
aVJSPWIKI-340
p628
aVJSPWIKI-339
p629
aVJSPWIKI-338
p630
aVJSPWIKI-337
p631
aVJSPWIKI-336
p632
aVJSPWIKI-335
p633
aVJSPWIKI-334
p634
aVJSPWIKI-333
p635
aVJSPWIKI-332
p636
aVJSPWIKI-331
p637
aVJSPWIKI-330
p638
aVJSPWIKI-329
p639
aVJSPWIKI-328
p640
aVJSPWIKI-327
p641
aVJSPWIKI-326
p642
aVJSPWIKI-325
p643
aVJSPWIKI-324
p644
aVJSPWIKI-323
p645
aVJSPWIKI-322
p646
aVJSPWIKI-321
p647
aVJSPWIKI-320
p648
aVJSPWIKI-319
p649
aVJSPWIKI-318
p650
aVJSPWIKI-317
p651
aVJSPWIKI-316
p652
aVJSPWIKI-315
p653
aVJSPWIKI-313
p654
aVJSPWIKI-312
p655
aVJSPWIKI-311
p656
aVJSPWIKI-310
p657
aVJSPWIKI-309
p658
aVJSPWIKI-308
p659
aVJSPWIKI-307
p660
aVJSPWIKI-306
p661
aVJSPWIKI-305
p662
aVJSPWIKI-304
p663
aVJSPWIKI-303
p664
aVJSPWIKI-302
p665
aVJSPWIKI-301
p666
aVJSPWIKI-300
p667
aVJSPWIKI-299
p668
aVJSPWIKI-298
p669
aVJSPWIKI-297
p670
aVJSPWIKI-296
p671
aVJSPWIKI-295
p672
aVJSPWIKI-294
p673
aVJSPWIKI-293
p674
aVJSPWIKI-292
p675
aVJSPWIKI-291
p676
aVJSPWIKI-290
p677
aVJSPWIKI-289
p678
aVJSPWIKI-288
p679
aVJSPWIKI-287
p680
aVJSPWIKI-286
p681
aVJSPWIKI-285
p682
aVJSPWIKI-284
p683
aVJSPWIKI-283
p684
aVJSPWIKI-282
p685
aVJSPWIKI-281
p686
aVJSPWIKI-280
p687
aVJSPWIKI-279
p688
aVJSPWIKI-278
p689
aVJSPWIKI-277
p690
aVJSPWIKI-276
p691
aVJSPWIKI-275
p692
aVJSPWIKI-274
p693
aVJSPWIKI-273
p694
aVJSPWIKI-272
p695
aVJSPWIKI-271
p696
aVJSPWIKI-270
p697
aVJSPWIKI-269
p698
aVJSPWIKI-268
p699
aVJSPWIKI-267
p700
aVJSPWIKI-266
p701
aVJSPWIKI-265
p702
aVJSPWIKI-264
p703
aVJSPWIKI-263
p704
aVJSPWIKI-262
p705
aVJSPWIKI-261
p706
aVJSPWIKI-260
p707
aVJSPWIKI-259
p708
aVJSPWIKI-258
p709
aVJSPWIKI-257
p710
aVJSPWIKI-256
p711
aVJSPWIKI-255
p712
aVJSPWIKI-254
p713
aVJSPWIKI-253
p714
aVJSPWIKI-252
p715
aVJSPWIKI-251
p716
aVJSPWIKI-250
p717
aVJSPWIKI-249
p718
aVJSPWIKI-248
p719
aVJSPWIKI-247
p720
aVJSPWIKI-246
p721
aVJSPWIKI-245
p722
aVJSPWIKI-244
p723
aVJSPWIKI-243
p724
aVJSPWIKI-242
p725
aVJSPWIKI-241
p726
aVJSPWIKI-240
p727
aVJSPWIKI-239
p728
aVJSPWIKI-238
p729
aVJSPWIKI-237
p730
aVJSPWIKI-236
p731
aVJSPWIKI-235
p732
aVJSPWIKI-234
p733
aVJSPWIKI-233
p734
aVJSPWIKI-232
p735
aVJSPWIKI-231
p736
aVJSPWIKI-230
p737
aVJSPWIKI-229
p738
aVJSPWIKI-228
p739
aVJSPWIKI-227
p740
aVJSPWIKI-226
p741
aVJSPWIKI-225
p742
aVJSPWIKI-224
p743
aVJSPWIKI-223
p744
aVJSPWIKI-222
p745
aVJSPWIKI-221
p746
aVJSPWIKI-220
p747
aVJSPWIKI-219
p748
aVJSPWIKI-218
p749
aVJSPWIKI-217
p750
aVJSPWIKI-216
p751
aVJSPWIKI-215
p752
aVJSPWIKI-214
p753
aVJSPWIKI-213
p754
aVJSPWIKI-212
p755
aVJSPWIKI-211
p756
aVJSPWIKI-210
p757
aVJSPWIKI-209
p758
aVJSPWIKI-208
p759
aVJSPWIKI-207
p760
aVJSPWIKI-206
p761
aVJSPWIKI-205
p762
aVJSPWIKI-204
p763
aVJSPWIKI-203
p764
aVJSPWIKI-202
p765
aVJSPWIKI-201
p766
aVJSPWIKI-200
p767
aVJSPWIKI-199
p768
aVJSPWIKI-198
p769
aVJSPWIKI-197
p770
aVJSPWIKI-196
p771
aVJSPWIKI-195
p772
aVJSPWIKI-194
p773
aVJSPWIKI-193
p774
aVJSPWIKI-192
p775
aVJSPWIKI-191
p776
aVJSPWIKI-190
p777
aVJSPWIKI-189
p778
aVJSPWIKI-188
p779
aVJSPWIKI-187
p780
aVJSPWIKI-186
p781
aVJSPWIKI-185
p782
aVJSPWIKI-184
p783
aVJSPWIKI-183
p784
aVJSPWIKI-182
p785
aVJSPWIKI-181
p786
aVJSPWIKI-180
p787
aVJSPWIKI-179
p788
aVJSPWIKI-178
p789
aVJSPWIKI-177
p790
aVJSPWIKI-176
p791
aVJSPWIKI-174
p792
aVJSPWIKI-173
p793
aVJSPWIKI-172
p794
aVJSPWIKI-171
p795
aVJSPWIKI-170
p796
aVJSPWIKI-169
p797
aVJSPWIKI-168
p798
aVJSPWIKI-167
p799
aVJSPWIKI-166
p800
aVJSPWIKI-165
p801
aVJSPWIKI-164
p802
aVJSPWIKI-163
p803
aVJSPWIKI-162
p804
aVJSPWIKI-161
p805
aVJSPWIKI-160
p806
aVJSPWIKI-159
p807
aVJSPWIKI-158
p808
aVJSPWIKI-157
p809
aVJSPWIKI-156
p810
aVJSPWIKI-155
p811
aVJSPWIKI-154
p812
aVJSPWIKI-153
p813
aVJSPWIKI-152
p814
aVJSPWIKI-151
p815
aVJSPWIKI-150
p816
aVJSPWIKI-149
p817
aVJSPWIKI-148
p818
aVJSPWIKI-147
p819
aVJSPWIKI-146
p820
aVJSPWIKI-145
p821
aVJSPWIKI-144
p822
aVJSPWIKI-143
p823
aVJSPWIKI-142
p824
aVJSPWIKI-141
p825
aVJSPWIKI-140
p826
aVJSPWIKI-139
p827
aVJSPWIKI-138
p828
aVJSPWIKI-137
p829
aVJSPWIKI-136
p830
aVJSPWIKI-135
p831
aVJSPWIKI-134
p832
aVJSPWIKI-133
p833
aVJSPWIKI-132
p834
aVJSPWIKI-131
p835
aVJSPWIKI-129
p836
aVJSPWIKI-128
p837
aVJSPWIKI-127
p838
aVJSPWIKI-126
p839
aVJSPWIKI-125
p840
aVJSPWIKI-124
p841
aVJSPWIKI-123
p842
aVJSPWIKI-122
p843
aVJSPWIKI-121
p844
aVJSPWIKI-120
p845
aVJSPWIKI-119
p846
aVJSPWIKI-118
p847
aVJSPWIKI-117
p848
aVJSPWIKI-116
p849
aVJSPWIKI-115
p850
aVJSPWIKI-114
p851
aVJSPWIKI-113
p852
aVJSPWIKI-112
p853
aVJSPWIKI-111
p854
aVJSPWIKI-110
p855
aVJSPWIKI-109
p856
aVJSPWIKI-108
p857
aVJSPWIKI-107
p858
aVJSPWIKI-106
p859
aVJSPWIKI-105
p860
aVJSPWIKI-104
p861
aVJSPWIKI-103
p862
aVJSPWIKI-102
p863
aVJSPWIKI-101
p864
aVJSPWIKI-100
p865
aVJSPWIKI-99
p866
aVJSPWIKI-98
p867
aVJSPWIKI-97
p868
aVJSPWIKI-96
p869
aVJSPWIKI-95
p870
aVJSPWIKI-94
p871
aVJSPWIKI-93
p872
aVJSPWIKI-92
p873
aVJSPWIKI-91
p874
aVJSPWIKI-90
p875
aVJSPWIKI-89
p876
aVJSPWIKI-88
p877
aVJSPWIKI-87
p878
aVJSPWIKI-86
p879
aVJSPWIKI-85
p880
aVJSPWIKI-83
p881
aVJSPWIKI-82
p882
aVJSPWIKI-80
p883
aVJSPWIKI-74
p884
aVJSPWIKI-72
p885
aVJSPWIKI-70
p886
aVJSPWIKI-69
p887
aVJSPWIKI-68
p888
aVJSPWIKI-67
p889
aVJSPWIKI-66
p890
aVJSPWIKI-65
p891
aVJSPWIKI-64
p892
aVJSPWIKI-63
p893
aVJSPWIKI-62
p894
aVJSPWIKI-61
p895
aVJSPWIKI-59
p896
aVJSPWIKI-58
p897
aVJSPWIKI-57
p898
aVJSPWIKI-56
p899
aVJSPWIKI-55
p900
aVJSPWIKI-53
p901
aVJSPWIKI-52
p902
aVJSPWIKI-51
p903
aVJSPWIKI-50
p904
aVJSPWIKI-49
p905
aVJSPWIKI-48
p906
aVJSPWIKI-47
p907
aVJSPWIKI-46
p908
aVJSPWIKI-45
p909
aVJSPWIKI-44
p910
aVJSPWIKI-43
p911
aVJSPWIKI-42
p912
aVJSPWIKI-41
p913
aVJSPWIKI-40
p914
aVJSPWIKI-39
p915
aVJSPWIKI-38
p916
aVJSPWIKI-37
p917
aVJSPWIKI-36
p918
aVJSPWIKI-34
p919
aVJSPWIKI-33
p920
aVJSPWIKI-32
p921
aVJSPWIKI-31
p922
aVJSPWIKI-30
p923
aVJSPWIKI-29
p924
aVJSPWIKI-28
p925
aVJSPWIKI-27
p926
aVJSPWIKI-26
p927
aVJSPWIKI-25
p928
aVJSPWIKI-24
p929
aVJSPWIKI-23
p930
aVJSPWIKI-22
p931
aVJSPWIKI-21
p932
aVJSPWIKI-20
p933
aVJSPWIKI-19
p934
aVJSPWIKI-18
p935
aVJSPWIKI-17
p936
aVJSPWIKI-16
p937
aVJSPWIKI-15
p938
aVJSPWIKI-14
p939
aVJSPWIKI-13
p940
aVJSPWIKI-12
p941
aVJSPWIKI-11
p942
aVJSPWIKI-10
p943
aVJSPWIKI-9
p944
aVJSPWIKI-8
p945
aVJSPWIKI-7
p946
aVJSPWIKI-6
p947
aVJSPWIKI-5
p948
aVJSPWIKI-4
p949
aVJSPWIKI-3
p950
aVJSPWIKI-2
p951
aVJSPWIKI-1
p952
a.