(lp0
VJUDDI-989
p1
aVJUDDI-988
p2
aVJUDDI-987
p3
aVJUDDI-986
p4
aVJUDDI-985
p5
aVJUDDI-984
p6
aVJUDDI-983
p7
aVJUDDI-982
p8
aVJUDDI-981
p9
aVJUDDI-980
p10
aVJUDDI-979
p11
aVJUDDI-978
p12
aVJUDDI-977
p13
aVJUDDI-976
p14
aVJUDDI-975
p15
aVJUDDI-974
p16
aVJUDDI-973
p17
aVJUDDI-972
p18
aVJUDDI-971
p19
aVJUDDI-970
p20
aVJUDDI-969
p21
aVJUDDI-968
p22
aVJUDDI-967
p23
aVJUDDI-966
p24
aVJUDDI-965
p25
aVJUDDI-964
p26
aVJUDDI-963
p27
aVJUDDI-962
p28
aVJUDDI-961
p29
aVJUDDI-960
p30
aVJUDDI-959
p31
aVJUDDI-958
p32
aVJUDDI-957
p33
aVJUDDI-956
p34
aVJUDDI-955
p35
aVJUDDI-954
p36
aVJUDDI-953
p37
aVJUDDI-952
p38
aVJUDDI-951
p39
aVJUDDI-950
p40
aVJUDDI-949
p41
aVJUDDI-948
p42
aVJUDDI-947
p43
aVJUDDI-946
p44
aVJUDDI-945
p45
aVJUDDI-944
p46
aVJUDDI-943
p47
aVJUDDI-942
p48
aVJUDDI-941
p49
aVJUDDI-940
p50
aVJUDDI-939
p51
aVJUDDI-938
p52
aVJUDDI-937
p53
aVJUDDI-936
p54
aVJUDDI-935
p55
aVJUDDI-934
p56
aVJUDDI-933
p57
aVJUDDI-932
p58
aVJUDDI-931
p59
aVJUDDI-930
p60
aVJUDDI-929
p61
aVJUDDI-928
p62
aVJUDDI-927
p63
aVJUDDI-926
p64
aVJUDDI-925
p65
aVJUDDI-924
p66
aVJUDDI-923
p67
aVJUDDI-922
p68
aVJUDDI-921
p69
aVJUDDI-920
p70
aVJUDDI-919
p71
aVJUDDI-918
p72
aVJUDDI-917
p73
aVJUDDI-916
p74
aVJUDDI-915
p75
aVJUDDI-914
p76
aVJUDDI-913
p77
aVJUDDI-912
p78
aVJUDDI-911
p79
aVJUDDI-910
p80
aVJUDDI-908
p81
aVJUDDI-907
p82
aVJUDDI-906
p83
aVJUDDI-905
p84
aVJUDDI-904
p85
aVJUDDI-903
p86
aVJUDDI-902
p87
aVJUDDI-901
p88
aVJUDDI-900
p89
aVJUDDI-899
p90
aVJUDDI-898
p91
aVJUDDI-897
p92
aVJUDDI-896
p93
aVJUDDI-895
p94
aVJUDDI-894
p95
aVJUDDI-893
p96
aVJUDDI-892
p97
aVJUDDI-891
p98
aVJUDDI-890
p99
aVJUDDI-889
p100
aVJUDDI-888
p101
aVJUDDI-887
p102
aVJUDDI-886
p103
aVJUDDI-885
p104
aVJUDDI-884
p105
aVJUDDI-883
p106
aVJUDDI-882
p107
aVJUDDI-881
p108
aVJUDDI-880
p109
aVJUDDI-879
p110
aVJUDDI-878
p111
aVJUDDI-877
p112
aVJUDDI-876
p113
aVJUDDI-875
p114
aVJUDDI-874
p115
aVJUDDI-873
p116
aVJUDDI-872
p117
aVJUDDI-871
p118
aVJUDDI-870
p119
aVJUDDI-869
p120
aVJUDDI-868
p121
aVJUDDI-867
p122
aVJUDDI-866
p123
aVJUDDI-865
p124
aVJUDDI-864
p125
aVJUDDI-863
p126
aVJUDDI-862
p127
aVJUDDI-861
p128
aVJUDDI-860
p129
aVJUDDI-859
p130
aVJUDDI-858
p131
aVJUDDI-857
p132
aVJUDDI-856
p133
aVJUDDI-855
p134
aVJUDDI-854
p135
aVJUDDI-853
p136
aVJUDDI-852
p137
aVJUDDI-851
p138
aVJUDDI-850
p139
aVJUDDI-849
p140
aVJUDDI-848
p141
aVJUDDI-847
p142
aVJUDDI-846
p143
aVJUDDI-845
p144
aVJUDDI-844
p145
aVJUDDI-843
p146
aVJUDDI-842
p147
aVJUDDI-841
p148
aVJUDDI-840
p149
aVJUDDI-839
p150
aVJUDDI-838
p151
aVJUDDI-837
p152
aVJUDDI-836
p153
aVJUDDI-835
p154
aVJUDDI-834
p155
aVJUDDI-833
p156
aVJUDDI-832
p157
aVJUDDI-831
p158
aVJUDDI-830
p159
aVJUDDI-829
p160
aVJUDDI-828
p161
aVJUDDI-827
p162
aVJUDDI-826
p163
aVJUDDI-825
p164
aVJUDDI-824
p165
aVJUDDI-823
p166
aVJUDDI-822
p167
aVJUDDI-821
p168
aVJUDDI-820
p169
aVJUDDI-819
p170
aVJUDDI-818
p171
aVJUDDI-817
p172
aVJUDDI-816
p173
aVJUDDI-815
p174
aVJUDDI-814
p175
aVJUDDI-813
p176
aVJUDDI-812
p177
aVJUDDI-811
p178
aVJUDDI-810
p179
aVJUDDI-809
p180
aVJUDDI-808
p181
aVJUDDI-807
p182
aVJUDDI-806
p183
aVJUDDI-805
p184
aVJUDDI-804
p185
aVJUDDI-803
p186
aVJUDDI-802
p187
aVJUDDI-801
p188
aVJUDDI-800
p189
aVJUDDI-799
p190
aVJUDDI-798
p191
aVJUDDI-797
p192
aVJUDDI-796
p193
aVJUDDI-795
p194
aVJUDDI-794
p195
aVJUDDI-793
p196
aVJUDDI-792
p197
aVJUDDI-791
p198
aVJUDDI-790
p199
aVJUDDI-789
p200
aVJUDDI-788
p201
aVJUDDI-787
p202
aVJUDDI-786
p203
aVJUDDI-785
p204
aVJUDDI-784
p205
aVJUDDI-783
p206
aVJUDDI-782
p207
aVJUDDI-781
p208
aVJUDDI-780
p209
aVJUDDI-779
p210
aVJUDDI-778
p211
aVJUDDI-777
p212
aVJUDDI-776
p213
aVJUDDI-775
p214
aVJUDDI-774
p215
aVJUDDI-773
p216
aVJUDDI-772
p217
aVJUDDI-771
p218
aVJUDDI-770
p219
aVJUDDI-769
p220
aVJUDDI-768
p221
aVJUDDI-767
p222
aVJUDDI-766
p223
aVJUDDI-765
p224
aVJUDDI-764
p225
aVJUDDI-763
p226
aVJUDDI-762
p227
aVJUDDI-761
p228
aVJUDDI-760
p229
aVJUDDI-759
p230
aVJUDDI-758
p231
aVJUDDI-757
p232
aVJUDDI-756
p233
aVJUDDI-755
p234
aVJUDDI-754
p235
aVJUDDI-753
p236
aVJUDDI-752
p237
aVJUDDI-751
p238
aVJUDDI-750
p239
aVJUDDI-749
p240
aVJUDDI-748
p241
aVJUDDI-747
p242
aVJUDDI-746
p243
aVJUDDI-745
p244
aVJUDDI-744
p245
aVJUDDI-743
p246
aVJUDDI-742
p247
aVJUDDI-741
p248
aVJUDDI-740
p249
aVJUDDI-739
p250
aVJUDDI-738
p251
aVJUDDI-737
p252
aVJUDDI-736
p253
aVJUDDI-735
p254
aVJUDDI-734
p255
aVJUDDI-733
p256
aVJUDDI-732
p257
aVJUDDI-731
p258
aVJUDDI-730
p259
aVJUDDI-729
p260
aVJUDDI-728
p261
aVJUDDI-727
p262
aVJUDDI-726
p263
aVJUDDI-725
p264
aVJUDDI-724
p265
aVJUDDI-723
p266
aVJUDDI-722
p267
aVJUDDI-721
p268
aVJUDDI-720
p269
aVJUDDI-719
p270
aVJUDDI-718
p271
aVJUDDI-717
p272
aVJUDDI-716
p273
aVJUDDI-715
p274
aVJUDDI-714
p275
aVJUDDI-713
p276
aVJUDDI-712
p277
aVJUDDI-711
p278
aVJUDDI-710
p279
aVJUDDI-709
p280
aVJUDDI-708
p281
aVJUDDI-707
p282
aVJUDDI-706
p283
aVJUDDI-705
p284
aVJUDDI-704
p285
aVJUDDI-703
p286
aVJUDDI-702
p287
aVJUDDI-701
p288
aVJUDDI-700
p289
aVJUDDI-699
p290
aVJUDDI-698
p291
aVJUDDI-697
p292
aVJUDDI-696
p293
aVJUDDI-695
p294
aVJUDDI-694
p295
aVJUDDI-693
p296
aVJUDDI-692
p297
aVJUDDI-691
p298
aVJUDDI-690
p299
aVJUDDI-689
p300
aVJUDDI-688
p301
aVJUDDI-687
p302
aVJUDDI-686
p303
aVJUDDI-685
p304
aVJUDDI-684
p305
aVJUDDI-683
p306
aVJUDDI-682
p307
aVJUDDI-681
p308
aVJUDDI-680
p309
aVJUDDI-679
p310
aVJUDDI-678
p311
aVJUDDI-677
p312
aVJUDDI-676
p313
aVJUDDI-675
p314
aVJUDDI-674
p315
aVJUDDI-673
p316
aVJUDDI-672
p317
aVJUDDI-671
p318
aVJUDDI-670
p319
aVJUDDI-669
p320
aVJUDDI-668
p321
aVJUDDI-667
p322
aVJUDDI-666
p323
aVJUDDI-665
p324
aVJUDDI-664
p325
aVJUDDI-663
p326
aVJUDDI-662
p327
aVJUDDI-661
p328
aVJUDDI-660
p329
aVJUDDI-659
p330
aVJUDDI-658
p331
aVJUDDI-657
p332
aVJUDDI-656
p333
aVJUDDI-655
p334
aVJUDDI-654
p335
aVJUDDI-653
p336
aVJUDDI-652
p337
aVJUDDI-651
p338
aVJUDDI-650
p339
aVJUDDI-649
p340
aVJUDDI-648
p341
aVJUDDI-647
p342
aVJUDDI-646
p343
aVJUDDI-645
p344
aVJUDDI-644
p345
aVJUDDI-643
p346
aVJUDDI-642
p347
aVJUDDI-641
p348
aVJUDDI-640
p349
aVJUDDI-639
p350
aVJUDDI-638
p351
aVJUDDI-637
p352
aVJUDDI-636
p353
aVJUDDI-635
p354
aVJUDDI-634
p355
aVJUDDI-633
p356
aVJUDDI-632
p357
aVJUDDI-631
p358
aVJUDDI-630
p359
aVJUDDI-629
p360
aVJUDDI-628
p361
aVJUDDI-627
p362
aVJUDDI-626
p363
aVJUDDI-625
p364
aVJUDDI-624
p365
aVJUDDI-623
p366
aVJUDDI-622
p367
aVJUDDI-621
p368
aVJUDDI-620
p369
aVJUDDI-619
p370
aVJUDDI-618
p371
aVJUDDI-617
p372
aVJUDDI-616
p373
aVJUDDI-615
p374
aVJUDDI-614
p375
aVJUDDI-613
p376
aVJUDDI-612
p377
aVJUDDI-611
p378
aVJUDDI-610
p379
aVJUDDI-609
p380
aVJUDDI-608
p381
aVJUDDI-607
p382
aVJUDDI-606
p383
aVJUDDI-605
p384
aVJUDDI-604
p385
aVJUDDI-603
p386
aVJUDDI-602
p387
aVJUDDI-601
p388
aVJUDDI-600
p389
aVJUDDI-599
p390
aVJUDDI-598
p391
aVJUDDI-597
p392
aVJUDDI-596
p393
aVJUDDI-595
p394
aVJUDDI-594
p395
aVJUDDI-593
p396
aVJUDDI-592
p397
aVJUDDI-591
p398
aVJUDDI-590
p399
aVJUDDI-589
p400
aVJUDDI-588
p401
aVJUDDI-587
p402
aVJUDDI-586
p403
aVJUDDI-585
p404
aVJUDDI-584
p405
aVJUDDI-583
p406
aVJUDDI-582
p407
aVJUDDI-581
p408
aVJUDDI-580
p409
aVJUDDI-579
p410
aVJUDDI-578
p411
aVJUDDI-577
p412
aVJUDDI-576
p413
aVJUDDI-575
p414
aVJUDDI-574
p415
aVJUDDI-573
p416
aVJUDDI-572
p417
aVJUDDI-571
p418
aVJUDDI-570
p419
aVJUDDI-569
p420
aVJUDDI-568
p421
aVJUDDI-567
p422
aVJUDDI-566
p423
aVJUDDI-565
p424
aVJUDDI-564
p425
aVJUDDI-563
p426
aVJUDDI-562
p427
aVJUDDI-561
p428
aVJUDDI-560
p429
aVJUDDI-559
p430
aVJUDDI-558
p431
aVJUDDI-557
p432
aVJUDDI-556
p433
aVJUDDI-555
p434
aVJUDDI-554
p435
aVJUDDI-553
p436
aVJUDDI-552
p437
aVJUDDI-551
p438
aVJUDDI-550
p439
aVJUDDI-549
p440
aVJUDDI-548
p441
aVJUDDI-547
p442
aVJUDDI-546
p443
aVJUDDI-545
p444
aVJUDDI-544
p445
aVJUDDI-543
p446
aVJUDDI-542
p447
aVJUDDI-541
p448
aVJUDDI-540
p449
aVJUDDI-539
p450
aVJUDDI-538
p451
aVJUDDI-537
p452
aVJUDDI-536
p453
aVJUDDI-535
p454
aVJUDDI-534
p455
aVJUDDI-533
p456
aVJUDDI-532
p457
aVJUDDI-531
p458
aVJUDDI-530
p459
aVJUDDI-529
p460
aVJUDDI-528
p461
aVJUDDI-527
p462
aVJUDDI-526
p463
aVJUDDI-525
p464
aVJUDDI-524
p465
aVJUDDI-523
p466
aVJUDDI-522
p467
aVJUDDI-521
p468
aVJUDDI-520
p469
aVJUDDI-519
p470
aVJUDDI-518
p471
aVJUDDI-517
p472
aVJUDDI-516
p473
aVJUDDI-515
p474
aVJUDDI-514
p475
aVJUDDI-513
p476
aVJUDDI-512
p477
aVJUDDI-511
p478
aVJUDDI-510
p479
aVJUDDI-509
p480
aVJUDDI-508
p481
aVJUDDI-507
p482
aVJUDDI-506
p483
aVJUDDI-505
p484
aVJUDDI-504
p485
aVJUDDI-503
p486
aVJUDDI-502
p487
aVJUDDI-501
p488
aVJUDDI-500
p489
aVJUDDI-499
p490
aVJUDDI-498
p491
aVJUDDI-497
p492
aVJUDDI-496
p493
aVJUDDI-495
p494
aVJUDDI-494
p495
aVJUDDI-493
p496
aVJUDDI-492
p497
aVJUDDI-491
p498
aVJUDDI-490
p499
aVJUDDI-489
p500
aVJUDDI-488
p501
aVJUDDI-487
p502
aVJUDDI-486
p503
aVJUDDI-485
p504
aVJUDDI-484
p505
aVJUDDI-483
p506
aVJUDDI-482
p507
aVJUDDI-481
p508
aVJUDDI-480
p509
aVJUDDI-479
p510
aVJUDDI-478
p511
aVJUDDI-477
p512
aVJUDDI-476
p513
aVJUDDI-475
p514
aVJUDDI-474
p515
aVJUDDI-473
p516
aVJUDDI-472
p517
aVJUDDI-471
p518
aVJUDDI-470
p519
aVJUDDI-469
p520
aVJUDDI-468
p521
aVJUDDI-467
p522
aVJUDDI-466
p523
aVJUDDI-465
p524
aVJUDDI-464
p525
aVJUDDI-463
p526
aVJUDDI-462
p527
aVJUDDI-461
p528
aVJUDDI-460
p529
aVJUDDI-459
p530
aVJUDDI-458
p531
aVJUDDI-457
p532
aVJUDDI-456
p533
aVJUDDI-455
p534
aVJUDDI-454
p535
aVJUDDI-453
p536
aVJUDDI-452
p537
aVJUDDI-451
p538
aVJUDDI-450
p539
aVJUDDI-449
p540
aVJUDDI-448
p541
aVJUDDI-447
p542
aVJUDDI-446
p543
aVJUDDI-445
p544
aVJUDDI-444
p545
aVJUDDI-443
p546
aVJUDDI-442
p547
aVJUDDI-441
p548
aVJUDDI-440
p549
aVJUDDI-439
p550
aVJUDDI-438
p551
aVJUDDI-437
p552
aVJUDDI-436
p553
aVJUDDI-435
p554
aVJUDDI-434
p555
aVJUDDI-433
p556
aVJUDDI-432
p557
aVJUDDI-431
p558
aVJUDDI-430
p559
aVJUDDI-429
p560
aVJUDDI-428
p561
aVJUDDI-427
p562
aVJUDDI-426
p563
aVJUDDI-425
p564
aVJUDDI-424
p565
aVJUDDI-423
p566
aVJUDDI-422
p567
aVJUDDI-421
p568
aVJUDDI-420
p569
aVJUDDI-419
p570
aVJUDDI-418
p571
aVJUDDI-417
p572
aVJUDDI-416
p573
aVJUDDI-415
p574
aVJUDDI-414
p575
aVJUDDI-413
p576
aVJUDDI-412
p577
aVJUDDI-411
p578
aVJUDDI-410
p579
aVJUDDI-409
p580
aVJUDDI-408
p581
aVJUDDI-407
p582
aVJUDDI-406
p583
aVJUDDI-405
p584
aVJUDDI-404
p585
aVJUDDI-403
p586
aVJUDDI-402
p587
aVJUDDI-401
p588
aVJUDDI-400
p589
aVJUDDI-399
p590
aVJUDDI-398
p591
aVJUDDI-397
p592
aVJUDDI-396
p593
aVJUDDI-395
p594
aVJUDDI-394
p595
aVJUDDI-393
p596
aVJUDDI-392
p597
aVJUDDI-391
p598
aVJUDDI-390
p599
aVJUDDI-389
p600
aVJUDDI-388
p601
aVJUDDI-387
p602
aVJUDDI-386
p603
aVJUDDI-385
p604
aVJUDDI-384
p605
aVJUDDI-383
p606
aVJUDDI-382
p607
aVJUDDI-381
p608
aVJUDDI-380
p609
aVJUDDI-379
p610
aVJUDDI-378
p611
aVJUDDI-377
p612
aVJUDDI-376
p613
aVJUDDI-375
p614
aVJUDDI-374
p615
aVJUDDI-373
p616
aVJUDDI-372
p617
aVJUDDI-371
p618
aVJUDDI-370
p619
aVJUDDI-369
p620
aVJUDDI-368
p621
aVJUDDI-367
p622
aVJUDDI-366
p623
aVJUDDI-365
p624
aVJUDDI-364
p625
aVJUDDI-363
p626
aVJUDDI-362
p627
aVJUDDI-361
p628
aVJUDDI-360
p629
aVJUDDI-359
p630
aVJUDDI-358
p631
aVJUDDI-357
p632
aVJUDDI-356
p633
aVJUDDI-355
p634
aVJUDDI-354
p635
aVJUDDI-353
p636
aVJUDDI-352
p637
aVJUDDI-351
p638
aVJUDDI-350
p639
aVJUDDI-349
p640
aVJUDDI-348
p641
aVJUDDI-347
p642
aVJUDDI-346
p643
aVJUDDI-345
p644
aVJUDDI-344
p645
aVJUDDI-343
p646
aVJUDDI-342
p647
aVJUDDI-341
p648
aVJUDDI-340
p649
aVJUDDI-339
p650
aVJUDDI-338
p651
aVJUDDI-337
p652
aVJUDDI-336
p653
aVJUDDI-335
p654
aVJUDDI-334
p655
aVJUDDI-333
p656
aVJUDDI-332
p657
aVJUDDI-331
p658
aVJUDDI-330
p659
aVJUDDI-329
p660
aVJUDDI-328
p661
aVJUDDI-327
p662
aVJUDDI-326
p663
aVJUDDI-325
p664
aVJUDDI-324
p665
aVJUDDI-323
p666
aVJUDDI-322
p667
aVJUDDI-321
p668
aVJUDDI-320
p669
aVJUDDI-319
p670
aVJUDDI-318
p671
aVJUDDI-317
p672
aVJUDDI-316
p673
aVJUDDI-315
p674
aVJUDDI-314
p675
aVJUDDI-313
p676
aVJUDDI-312
p677
aVJUDDI-311
p678
aVJUDDI-310
p679
aVJUDDI-309
p680
aVJUDDI-308
p681
aVJUDDI-307
p682
aVJUDDI-306
p683
aVJUDDI-305
p684
aVJUDDI-304
p685
aVJUDDI-303
p686
aVJUDDI-302
p687
aVJUDDI-301
p688
aVJUDDI-300
p689
aVJUDDI-299
p690
aVJUDDI-298
p691
aVJUDDI-297
p692
aVJUDDI-296
p693
aVJUDDI-295
p694
aVJUDDI-294
p695
aVJUDDI-293
p696
aVJUDDI-292
p697
aVJUDDI-291
p698
aVJUDDI-290
p699
aVJUDDI-289
p700
aVJUDDI-288
p701
aVJUDDI-287
p702
aVJUDDI-286
p703
aVJUDDI-285
p704
aVJUDDI-284
p705
aVJUDDI-283
p706
aVJUDDI-282
p707
aVJUDDI-281
p708
aVJUDDI-280
p709
aVJUDDI-279
p710
aVJUDDI-278
p711
aVJUDDI-277
p712
aVJUDDI-276
p713
aVJUDDI-275
p714
aVJUDDI-274
p715
aVJUDDI-273
p716
aVJUDDI-272
p717
aVJUDDI-271
p718
aVJUDDI-270
p719
aVJUDDI-269
p720
aVJUDDI-268
p721
aVJUDDI-267
p722
aVJUDDI-266
p723
aVJUDDI-265
p724
aVJUDDI-264
p725
aVJUDDI-263
p726
aVJUDDI-262
p727
aVJUDDI-261
p728
aVJUDDI-260
p729
aVJUDDI-259
p730
aVJUDDI-258
p731
aVJUDDI-257
p732
aVJUDDI-256
p733
aVJUDDI-255
p734
aVJUDDI-254
p735
aVJUDDI-253
p736
aVJUDDI-252
p737
aVJUDDI-251
p738
aVJUDDI-250
p739
aVJUDDI-249
p740
aVJUDDI-248
p741
aVJUDDI-247
p742
aVJUDDI-246
p743
aVJUDDI-245
p744
aVJUDDI-244
p745
aVJUDDI-243
p746
aVJUDDI-242
p747
aVJUDDI-241
p748
aVJUDDI-240
p749
aVJUDDI-239
p750
aVJUDDI-238
p751
aVJUDDI-237
p752
aVJUDDI-236
p753
aVJUDDI-235
p754
aVJUDDI-234
p755
aVJUDDI-233
p756
aVJUDDI-232
p757
aVJUDDI-231
p758
aVJUDDI-230
p759
aVJUDDI-229
p760
aVJUDDI-228
p761
aVJUDDI-227
p762
aVJUDDI-226
p763
aVJUDDI-225
p764
aVJUDDI-224
p765
aVJUDDI-223
p766
aVJUDDI-222
p767
aVJUDDI-221
p768
aVJUDDI-220
p769
aVJUDDI-219
p770
aVJUDDI-218
p771
aVJUDDI-217
p772
aVJUDDI-216
p773
aVJUDDI-215
p774
aVJUDDI-214
p775
aVJUDDI-213
p776
aVJUDDI-212
p777
aVJUDDI-211
p778
aVJUDDI-210
p779
aVJUDDI-209
p780
aVJUDDI-208
p781
aVJUDDI-207
p782
aVJUDDI-206
p783
aVJUDDI-205
p784
aVJUDDI-204
p785
aVJUDDI-203
p786
aVJUDDI-202
p787
aVJUDDI-201
p788
aVJUDDI-199
p789
aVJUDDI-198
p790
aVJUDDI-197
p791
aVJUDDI-196
p792
aVJUDDI-195
p793
aVJUDDI-194
p794
aVJUDDI-193
p795
aVJUDDI-189
p796
aVJUDDI-188
p797
aVJUDDI-187
p798
aVJUDDI-186
p799
aVJUDDI-185
p800
aVJUDDI-184
p801
aVJUDDI-183
p802
aVJUDDI-182
p803
aVJUDDI-181
p804
aVJUDDI-180
p805
aVJUDDI-179
p806
aVJUDDI-178
p807
aVJUDDI-177
p808
aVJUDDI-176
p809
aVJUDDI-175
p810
aVJUDDI-174
p811
aVJUDDI-173
p812
aVJUDDI-172
p813
aVJUDDI-171
p814
aVJUDDI-170
p815
aVJUDDI-169
p816
aVJUDDI-168
p817
aVJUDDI-167
p818
aVJUDDI-166
p819
aVJUDDI-165
p820
aVJUDDI-164
p821
aVJUDDI-163
p822
aVJUDDI-162
p823
aVJUDDI-161
p824
aVJUDDI-160
p825
aVJUDDI-159
p826
aVJUDDI-158
p827
aVJUDDI-157
p828
aVJUDDI-156
p829
aVJUDDI-155
p830
aVJUDDI-154
p831
aVJUDDI-153
p832
aVJUDDI-152
p833
aVJUDDI-151
p834
aVJUDDI-150
p835
aVJUDDI-149
p836
aVJUDDI-148
p837
aVJUDDI-147
p838
aVJUDDI-146
p839
aVJUDDI-145
p840
aVJUDDI-144
p841
aVJUDDI-143
p842
aVJUDDI-142
p843
aVJUDDI-141
p844
aVJUDDI-140
p845
aVJUDDI-139
p846
aVJUDDI-138
p847
aVJUDDI-137
p848
aVJUDDI-136
p849
aVJUDDI-135
p850
aVJUDDI-134
p851
aVJUDDI-133
p852
aVJUDDI-132
p853
aVJUDDI-131
p854
aVJUDDI-130
p855
aVJUDDI-129
p856
aVJUDDI-128
p857
aVJUDDI-127
p858
aVJUDDI-126
p859
aVJUDDI-125
p860
aVJUDDI-124
p861
aVJUDDI-123
p862
aVJUDDI-122
p863
aVJUDDI-121
p864
aVJUDDI-120
p865
aVJUDDI-119
p866
aVJUDDI-118
p867
aVJUDDI-117
p868
aVJUDDI-116
p869
aVJUDDI-115
p870
aVJUDDI-114
p871
aVJUDDI-113
p872
aVJUDDI-112
p873
aVJUDDI-111
p874
aVJUDDI-110
p875
aVJUDDI-109
p876
aVJUDDI-108
p877
aVJUDDI-107
p878
aVJUDDI-106
p879
aVJUDDI-105
p880
aVJUDDI-104
p881
aVJUDDI-103
p882
aVJUDDI-102
p883
aVJUDDI-101
p884
aVJUDDI-100
p885
aVJUDDI-99
p886
aVJUDDI-98
p887
aVJUDDI-97
p888
aVJUDDI-96
p889
aVJUDDI-95
p890
aVJUDDI-94
p891
aVJUDDI-93
p892
aVJUDDI-92
p893
aVJUDDI-91
p894
aVJUDDI-90
p895
aVJUDDI-89
p896
aVJUDDI-88
p897
aVJUDDI-87
p898
aVJUDDI-86
p899
aVJUDDI-85
p900
aVJUDDI-84
p901
aVJUDDI-83
p902
aVJUDDI-82
p903
aVJUDDI-81
p904
aVJUDDI-80
p905
aVJUDDI-79
p906
aVJUDDI-78
p907
aVJUDDI-77
p908
aVJUDDI-76
p909
aVJUDDI-75
p910
aVJUDDI-74
p911
aVJUDDI-73
p912
aVJUDDI-72
p913
aVJUDDI-71
p914
aVJUDDI-70
p915
aVJUDDI-69
p916
aVJUDDI-68
p917
aVJUDDI-67
p918
aVJUDDI-66
p919
aVJUDDI-65
p920
aVJUDDI-64
p921
aVJUDDI-63
p922
aVJUDDI-62
p923
aVJUDDI-61
p924
aVJUDDI-60
p925
aVJUDDI-59
p926
aVJUDDI-58
p927
aVJUDDI-57
p928
aVJUDDI-56
p929
aVJUDDI-55
p930
aVJUDDI-54
p931
aVJUDDI-53
p932
aVJUDDI-52
p933
aVJUDDI-51
p934
aVJUDDI-50
p935
aVJUDDI-49
p936
aVJUDDI-48
p937
aVJUDDI-47
p938
aVJUDDI-46
p939
aVJUDDI-45
p940
aVJUDDI-44
p941
aVJUDDI-43
p942
aVJUDDI-42
p943
aVJUDDI-41
p944
aVJUDDI-40
p945
aVJUDDI-39
p946
aVJUDDI-38
p947
aVJUDDI-37
p948
aVJUDDI-36
p949
aVJUDDI-35
p950
aVJUDDI-34
p951
aVJUDDI-33
p952
aVJUDDI-32
p953
aVJUDDI-31
p954
aVJUDDI-30
p955
aVJUDDI-29
p956
aVJUDDI-28
p957
aVJUDDI-27
p958
aVJUDDI-26
p959
aVJUDDI-25
p960
aVJUDDI-24
p961
aVJUDDI-23
p962
aVJUDDI-22
p963
aVJUDDI-21
p964
aVJUDDI-20
p965
aVJUDDI-19
p966
aVJUDDI-18
p967
aVJUDDI-17
p968
aVJUDDI-16
p969
aVJUDDI-15
p970
aVJUDDI-14
p971
aVJUDDI-13
p972
aVJUDDI-12
p973
aVJUDDI-11
p974
aVJUDDI-10
p975
aVJUDDI-9
p976
aVJUDDI-8
p977
aVJUDDI-7
p978
aVJUDDI-6
p979
aVJUDDI-5
p980
aVJUDDI-4
p981
aVJUDDI-3
p982
aVJUDDI-2
p983
aVJUDDI-1
p984
a.