(lp0
VJUNEAU-83
p1
aVJUNEAU-82
p2
aVJUNEAU-81
p3
aVJUNEAU-80
p4
aVJUNEAU-79
p5
aVJUNEAU-78
p6
aVJUNEAU-77
p7
aVJUNEAU-76
p8
aVJUNEAU-75
p9
aVJUNEAU-74
p10
aVJUNEAU-73
p11
aVJUNEAU-72
p12
aVJUNEAU-71
p13
aVJUNEAU-70
p14
aVJUNEAU-69
p15
aVJUNEAU-68
p16
aVJUNEAU-67
p17
aVJUNEAU-66
p18
aVJUNEAU-65
p19
aVJUNEAU-64
p20
aVJUNEAU-63
p21
aVJUNEAU-62
p22
aVJUNEAU-61
p23
aVJUNEAU-60
p24
aVJUNEAU-59
p25
aVJUNEAU-58
p26
aVJUNEAU-57
p27
aVJUNEAU-56
p28
aVJUNEAU-55
p29
aVJUNEAU-54
p30
aVJUNEAU-53
p31
aVJUNEAU-52
p32
aVJUNEAU-51
p33
aVJUNEAU-50
p34
aVJUNEAU-49
p35
aVJUNEAU-48
p36
aVJUNEAU-47
p37
aVJUNEAU-46
p38
aVJUNEAU-45
p39
aVJUNEAU-44
p40
aVJUNEAU-43
p41
aVJUNEAU-42
p42
aVJUNEAU-41
p43
aVJUNEAU-40
p44
aVJUNEAU-39
p45
aVJUNEAU-38
p46
aVJUNEAU-37
p47
aVJUNEAU-36
p48
aVJUNEAU-35
p49
aVJUNEAU-34
p50
aVJUNEAU-33
p51
aVJUNEAU-32
p52
aVJUNEAU-31
p53
aVJUNEAU-30
p54
aVJUNEAU-29
p55
aVJUNEAU-28
p56
aVJUNEAU-27
p57
aVJUNEAU-26
p58
aVJUNEAU-25
p59
aVJUNEAU-24
p60
aVJUNEAU-23
p61
aVJUNEAU-22
p62
aVJUNEAU-21
p63
aVJUNEAU-20
p64
aVJUNEAU-19
p65
aVJUNEAU-18
p66
aVJUNEAU-17
p67
aVJUNEAU-16
p68
aVJUNEAU-15
p69
aVJUNEAU-14
p70
aVJUNEAU-13
p71
aVJUNEAU-12
p72
aVJUNEAU-11
p73
aVJUNEAU-10
p74
aVJUNEAU-9
p75
aVJUNEAU-8
p76
aVJUNEAU-7
p77
aVJUNEAU-6
p78
aVJUNEAU-5
p79
aVJUNEAU-4
p80
aVJUNEAU-3
p81
aVJUNEAU-2
p82
aVJUNEAU-1
p83
a.