(lp0
VJXPATH-192
p1
aVJXPATH-191
p2
aVJXPATH-190
p3
aVJXPATH-189
p4
aVJXPATH-188
p5
aVJXPATH-187
p6
aVJXPATH-186
p7
aVJXPATH-185
p8
aVJXPATH-184
p9
aVJXPATH-183
p10
aVJXPATH-182
p11
aVJXPATH-181
p12
aVJXPATH-180
p13
aVJXPATH-179
p14
aVJXPATH-178
p15
aVJXPATH-177
p16
aVJXPATH-176
p17
aVJXPATH-175
p18
aVJXPATH-174
p19
aVJXPATH-173
p20
aVJXPATH-172
p21
aVJXPATH-171
p22
aVJXPATH-170
p23
aVJXPATH-169
p24
aVJXPATH-168
p25
aVJXPATH-167
p26
aVJXPATH-166
p27
aVJXPATH-165
p28
aVJXPATH-164
p29
aVJXPATH-163
p30
aVJXPATH-162
p31
aVJXPATH-161
p32
aVJXPATH-160
p33
aVJXPATH-159
p34
aVJXPATH-157
p35
aVJXPATH-156
p36
aVJXPATH-155
p37
aVJXPATH-154
p38
aVJXPATH-153
p39
aVJXPATH-152
p40
aVJXPATH-151
p41
aVJXPATH-150
p42
aVJXPATH-149
p43
aVJXPATH-148
p44
aVJXPATH-147
p45
aVJXPATH-146
p46
aVJXPATH-145
p47
aVJXPATH-144
p48
aVJXPATH-143
p49
aVJXPATH-142
p50
aVJXPATH-141
p51
aVJXPATH-140
p52
aVJXPATH-139
p53
aVJXPATH-138
p54
aVJXPATH-137
p55
aVJXPATH-136
p56
aVJXPATH-135
p57
aVJXPATH-134
p58
aVJXPATH-133
p59
aVJXPATH-132
p60
aVJXPATH-131
p61
aVJXPATH-130
p62
aVJXPATH-129
p63
aVJXPATH-128
p64
aVJXPATH-127
p65
aVJXPATH-126
p66
aVJXPATH-125
p67
aVJXPATH-124
p68
aVJXPATH-123
p69
aVJXPATH-122
p70
aVJXPATH-121
p71
aVJXPATH-120
p72
aVJXPATH-119
p73
aVJXPATH-118
p74
aVJXPATH-117
p75
aVJXPATH-116
p76
aVJXPATH-115
p77
aVJXPATH-114
p78
aVJXPATH-113
p79
aVJXPATH-112
p80
aVJXPATH-111
p81
aVJXPATH-110
p82
aVJXPATH-109
p83
aVJXPATH-108
p84
aVJXPATH-107
p85
aVJXPATH-106
p86
aVJXPATH-105
p87
aVJXPATH-104
p88
aVJXPATH-103
p89
aVJXPATH-102
p90
aVJXPATH-101
p91
aVJXPATH-100
p92
aVJXPATH-99
p93
aVJXPATH-98
p94
aVJXPATH-97
p95
aVJXPATH-96
p96
aVJXPATH-95
p97
aVJXPATH-94
p98
aVJXPATH-93
p99
aVJXPATH-92
p100
aVJXPATH-91
p101
aVJXPATH-90
p102
aVJXPATH-89
p103
aVJXPATH-88
p104
aVJXPATH-87
p105
aVJXPATH-86
p106
aVJXPATH-85
p107
aVJXPATH-84
p108
aVJXPATH-83
p109
aVJXPATH-82
p110
aVJXPATH-81
p111
aVJXPATH-80
p112
aVJXPATH-79
p113
aVJXPATH-78
p114
aVJXPATH-77
p115
aVJXPATH-76
p116
aVJXPATH-75
p117
aVJXPATH-74
p118
aVJXPATH-73
p119
aVJXPATH-72
p120
aVJXPATH-71
p121
aVJXPATH-70
p122
aVJXPATH-69
p123
aVJXPATH-68
p124
aVJXPATH-67
p125
aVJXPATH-66
p126
aVJXPATH-65
p127
aVJXPATH-64
p128
aVJXPATH-63
p129
aVJXPATH-62
p130
aVJXPATH-61
p131
aVJXPATH-60
p132
aVJXPATH-59
p133
aVJXPATH-58
p134
aVJXPATH-57
p135
aVJXPATH-56
p136
aVJXPATH-55
p137
aVJXPATH-54
p138
aVJXPATH-53
p139
aVJXPATH-52
p140
aVJXPATH-51
p141
aVJXPATH-50
p142
aVJXPATH-49
p143
aVJXPATH-48
p144
aVJXPATH-47
p145
aVJXPATH-46
p146
aVJXPATH-45
p147
aVJXPATH-44
p148
aVJXPATH-43
p149
aVJXPATH-42
p150
aVJXPATH-41
p151
aVJXPATH-40
p152
aVJXPATH-39
p153
aVJXPATH-38
p154
aVJXPATH-37
p155
aVJXPATH-36
p156
aVJXPATH-35
p157
aVJXPATH-34
p158
aVJXPATH-33
p159
aVJXPATH-32
p160
aVJXPATH-31
p161
aVJXPATH-30
p162
aVJXPATH-29
p163
aVJXPATH-28
p164
aVJXPATH-27
p165
aVJXPATH-26
p166
aVJXPATH-25
p167
aVJXPATH-24
p168
aVJXPATH-23
p169
aVJXPATH-22
p170
aVJXPATH-21
p171
aVJXPATH-20
p172
aVJXPATH-19
p173
aVJXPATH-18
p174
aVJXPATH-17
p175
aVJXPATH-16
p176
aVJXPATH-15
p177
aVJXPATH-14
p178
aVJXPATH-13
p179
aVJXPATH-12
p180
aVJXPATH-11
p181
aVJXPATH-10
p182
aVJXPATH-9
p183
aVJXPATH-8
p184
aVJXPATH-7
p185
aVJXPATH-6
p186
aVJXPATH-5
p187
aVJXPATH-4
p188
aVJXPATH-3
p189
aVJXPATH-2
p190
aVJXPATH-1
p191
a.