(lp0
VJXR-139
p1
aVJXR-138
p2
aVJXR-137
p3
aVJXR-136
p4
aVJXR-135
p5
aVJXR-134
p6
aVJXR-133
p7
aVJXR-132
p8
aVJXR-131
p9
aVJXR-130
p10
aVJXR-129
p11
aVJXR-128
p12
aVJXR-127
p13
aVJXR-126
p14
aVJXR-125
p15
aVJXR-124
p16
aVJXR-123
p17
aVJXR-122
p18
aVJXR-121
p19
aVJXR-120
p20
aVJXR-119
p21
aVJXR-118
p22
aVJXR-117
p23
aVJXR-116
p24
aVJXR-115
p25
aVJXR-114
p26
aVJXR-113
p27
aVJXR-112
p28
aVJXR-111
p29
aVJXR-110
p30
aVJXR-109
p31
aVJXR-108
p32
aVJXR-107
p33
aVJXR-106
p34
aVJXR-105
p35
aVJXR-104
p36
aVJXR-103
p37
aVJXR-102
p38
aVJXR-101
p39
aVJXR-100
p40
aVJXR-99
p41
aVJXR-98
p42
aVJXR-97
p43
aVJXR-96
p44
aVJXR-95
p45
aVJXR-94
p46
aVJXR-93
p47
aVJXR-92
p48
aVJXR-91
p49
aVJXR-90
p50
aVJXR-89
p51
aVJXR-88
p52
aVJXR-87
p53
aVJXR-86
p54
aVJXR-85
p55
aVJXR-84
p56
aVJXR-83
p57
aVJXR-82
p58
aVJXR-81
p59
aVJXR-80
p60
aVJXR-79
p61
aVJXR-78
p62
aVJXR-77
p63
aVJXR-76
p64
aVJXR-71
p65
aVJXR-70
p66
aVJXR-69
p67
aVJXR-68
p68
aVJXR-67
p69
aVJXR-66
p70
aVJXR-65
p71
aVJXR-64
p72
aVJXR-63
p73
aVJXR-62
p74
aVJXR-61
p75
aVJXR-60
p76
aVJXR-59
p77
aVJXR-58
p78
aVJXR-57
p79
aVJXR-56
p80
aVJXR-55
p81
aVJXR-54
p82
aVJXR-53
p83
aVJXR-52
p84
aVJXR-51
p85
aVJXR-50
p86
aVJXR-49
p87
aVJXR-48
p88
aVJXR-47
p89
aVJXR-46
p90
aVJXR-45
p91
aVJXR-44
p92
aVJXR-43
p93
aVJXR-42
p94
aVJXR-41
p95
aVJXR-40
p96
aVJXR-39
p97
aVJXR-38
p98
aVJXR-37
p99
aVJXR-36
p100
aVJXR-35
p101
aVJXR-34
p102
aVJXR-33
p103
aVJXR-32
p104
aVJXR-31
p105
aVJXR-30
p106
aVJXR-29
p107
aVJXR-28
p108
aVJXR-27
p109
aVJXR-26
p110
aVJXR-25
p111
aVJXR-24
p112
aVJXR-23
p113
aVJXR-22
p114
aVJXR-21
p115
aVJXR-20
p116
aVJXR-19
p117
aVJXR-18
p118
aVJXR-17
p119
aVJXR-16
p120
aVJXR-15
p121
aVJXR-14
p122
aVJXR-13
p123
aVJXR-12
p124
aVJXR-11
p125
aVJXR-10
p126
aVJXR-9
p127
aVJXR-8
p128
aVJXR-7
p129
aVJXR-6
p130
aVJXR-5
p131
aVJXR-4
p132
aVJXR-3
p133
aVJXR-2
p134
aVJXR-1
p135
a.