(lp0
VKALUMET-56
p1
aVKALUMET-55
p2
aVKALUMET-54
p3
aVKALUMET-53
p4
aVKALUMET-52
p5
aVKALUMET-51
p6
aVKALUMET-50
p7
aVKALUMET-49
p8
aVKALUMET-48
p9
aVKALUMET-47
p10
aVKALUMET-46
p11
aVKALUMET-45
p12
aVKALUMET-44
p13
aVKALUMET-43
p14
aVKALUMET-42
p15
aVKALUMET-41
p16
aVKALUMET-40
p17
aVKALUMET-39
p18
aVKALUMET-38
p19
aVKALUMET-37
p20
aVKALUMET-36
p21
aVKALUMET-35
p22
aVKALUMET-34
p23
aVKALUMET-33
p24
aVKALUMET-32
p25
aVKALUMET-31
p26
aVKALUMET-30
p27
aVKALUMET-29
p28
aVKALUMET-28
p29
aVKALUMET-27
p30
aVKALUMET-26
p31
aVKALUMET-25
p32
aVKALUMET-24
p33
aVKALUMET-23
p34
aVKALUMET-22
p35
aVKALUMET-21
p36
aVKALUMET-20
p37
aVKALUMET-19
p38
aVKALUMET-18
p39
aVKALUMET-17
p40
aVKALUMET-16
p41
aVKALUMET-15
p42
aVKALUMET-14
p43
aVKALUMET-13
p44
aVKALUMET-12
p45
aVKALUMET-11
p46
aVKALUMET-10
p47
aVKALUMET-9
p48
aVKALUMET-8
p49
aVKALUMET-7
p50
aVKALUMET-6
p51
aVKALUMET-5
p52
aVKALUMET-4
p53
aVKALUMET-3
p54
aVKALUMET-2
p55
aVKALUMET-1
p56
a.