(lp0
VKNOX-1418
p1
aVKNOX-1417
p2
aVKNOX-1416
p3
aVKNOX-1415
p4
aVKNOX-1414
p5
aVKNOX-1413
p6
aVKNOX-1412
p7
aVKNOX-1411
p8
aVKNOX-1410
p9
aVKNOX-1409
p10
aVKNOX-1408
p11
aVKNOX-1407
p12
aVKNOX-1406
p13
aVKNOX-1405
p14
aVKNOX-1404
p15
aVKNOX-1403
p16
aVKNOX-1402
p17
aVKNOX-1401
p18
aVKNOX-1400
p19
aVKNOX-1399
p20
aVKNOX-1398
p21
aVKNOX-1397
p22
aVKNOX-1396
p23
aVKNOX-1395
p24
aVKNOX-1394
p25
aVKNOX-1393
p26
aVKNOX-1392
p27
aVKNOX-1391
p28
aVKNOX-1390
p29
aVKNOX-1389
p30
aVKNOX-1388
p31
aVKNOX-1387
p32
aVKNOX-1386
p33
aVKNOX-1385
p34
aVKNOX-1384
p35
aVKNOX-1383
p36
aVKNOX-1382
p37
aVKNOX-1381
p38
aVKNOX-1380
p39
aVKNOX-1379
p40
aVKNOX-1378
p41
aVKNOX-1377
p42
aVKNOX-1376
p43
aVKNOX-1375
p44
aVKNOX-1374
p45
aVKNOX-1373
p46
aVKNOX-1372
p47
aVKNOX-1371
p48
aVKNOX-1370
p49
aVKNOX-1369
p50
aVKNOX-1368
p51
aVKNOX-1367
p52
aVKNOX-1366
p53
aVKNOX-1365
p54
aVKNOX-1364
p55
aVKNOX-1363
p56
aVKNOX-1362
p57
aVKNOX-1361
p58
aVKNOX-1360
p59
aVKNOX-1359
p60
aVKNOX-1358
p61
aVKNOX-1357
p62
aVKNOX-1356
p63
aVKNOX-1355
p64
aVKNOX-1354
p65
aVKNOX-1353
p66
aVKNOX-1352
p67
aVKNOX-1351
p68
aVKNOX-1350
p69
aVKNOX-1349
p70
aVKNOX-1348
p71
aVKNOX-1347
p72
aVKNOX-1346
p73
aVKNOX-1345
p74
aVKNOX-1344
p75
aVKNOX-1343
p76
aVKNOX-1342
p77
aVKNOX-1341
p78
aVKNOX-1340
p79
aVKNOX-1339
p80
aVKNOX-1338
p81
aVKNOX-1337
p82
aVKNOX-1336
p83
aVKNOX-1335
p84
aVKNOX-1334
p85
aVKNOX-1333
p86
aVKNOX-1332
p87
aVKNOX-1331
p88
aVKNOX-1330
p89
aVKNOX-1329
p90
aVKNOX-1328
p91
aVKNOX-1327
p92
aVKNOX-1326
p93
aVKNOX-1325
p94
aVKNOX-1324
p95
aVKNOX-1323
p96
aVKNOX-1322
p97
aVKNOX-1321
p98
aVKNOX-1320
p99
aVKNOX-1319
p100
aVKNOX-1318
p101
aVKNOX-1317
p102
aVKNOX-1316
p103
aVKNOX-1315
p104
aVKNOX-1314
p105
aVKNOX-1313
p106
aVKNOX-1312
p107
aVKNOX-1311
p108
aVKNOX-1310
p109
aVKNOX-1309
p110
aVKNOX-1308
p111
aVKNOX-1307
p112
aVKNOX-1306
p113
aVKNOX-1305
p114
aVKNOX-1304
p115
aVKNOX-1303
p116
aVKNOX-1302
p117
aVKNOX-1301
p118
aVKNOX-1300
p119
aVKNOX-1299
p120
aVKNOX-1298
p121
aVKNOX-1297
p122
aVKNOX-1296
p123
aVKNOX-1295
p124
aVKNOX-1294
p125
aVKNOX-1293
p126
aVKNOX-1292
p127
aVKNOX-1291
p128
aVKNOX-1290
p129
aVKNOX-1289
p130
aVKNOX-1288
p131
aVKNOX-1287
p132
aVKNOX-1286
p133
aVKNOX-1285
p134
aVKNOX-1284
p135
aVKNOX-1283
p136
aVKNOX-1282
p137
aVKNOX-1281
p138
aVKNOX-1280
p139
aVKNOX-1279
p140
aVKNOX-1278
p141
aVKNOX-1277
p142
aVKNOX-1276
p143
aVKNOX-1275
p144
aVKNOX-1274
p145
aVKNOX-1273
p146
aVKNOX-1272
p147
aVKNOX-1271
p148
aVKNOX-1270
p149
aVKNOX-1269
p150
aVKNOX-1268
p151
aVKNOX-1267
p152
aVKNOX-1266
p153
aVKNOX-1265
p154
aVKNOX-1264
p155
aVKNOX-1263
p156
aVKNOX-1262
p157
aVKNOX-1261
p158
aVKNOX-1260
p159
aVKNOX-1259
p160
aVKNOX-1258
p161
aVKNOX-1257
p162
aVKNOX-1256
p163
aVKNOX-1255
p164
aVKNOX-1254
p165
aVKNOX-1253
p166
aVKNOX-1252
p167
aVKNOX-1251
p168
aVKNOX-1250
p169
aVKNOX-1249
p170
aVKNOX-1248
p171
aVKNOX-1247
p172
aVKNOX-1246
p173
aVKNOX-1245
p174
aVKNOX-1244
p175
aVKNOX-1243
p176
aVKNOX-1242
p177
aVKNOX-1241
p178
aVKNOX-1240
p179
aVKNOX-1239
p180
aVKNOX-1238
p181
aVKNOX-1237
p182
aVKNOX-1236
p183
aVKNOX-1235
p184
aVKNOX-1234
p185
aVKNOX-1233
p186
aVKNOX-1232
p187
aVKNOX-1231
p188
aVKNOX-1230
p189
aVKNOX-1229
p190
aVKNOX-1228
p191
aVKNOX-1227
p192
aVKNOX-1226
p193
aVKNOX-1225
p194
aVKNOX-1224
p195
aVKNOX-1223
p196
aVKNOX-1222
p197
aVKNOX-1221
p198
aVKNOX-1220
p199
aVKNOX-1219
p200
aVKNOX-1218
p201
aVKNOX-1217
p202
aVKNOX-1216
p203
aVKNOX-1215
p204
aVKNOX-1214
p205
aVKNOX-1213
p206
aVKNOX-1212
p207
aVKNOX-1211
p208
aVKNOX-1210
p209
aVKNOX-1209
p210
aVKNOX-1208
p211
aVKNOX-1207
p212
aVKNOX-1206
p213
aVKNOX-1205
p214
aVKNOX-1204
p215
aVKNOX-1203
p216
aVKNOX-1202
p217
aVKNOX-1201
p218
aVKNOX-1200
p219
aVKNOX-1199
p220
aVKNOX-1198
p221
aVKNOX-1197
p222
aVKNOX-1196
p223
aVKNOX-1195
p224
aVKNOX-1194
p225
aVKNOX-1193
p226
aVKNOX-1192
p227
aVKNOX-1191
p228
aVKNOX-1190
p229
aVKNOX-1189
p230
aVKNOX-1188
p231
aVKNOX-1187
p232
aVKNOX-1186
p233
aVKNOX-1185
p234
aVKNOX-1184
p235
aVKNOX-1183
p236
aVKNOX-1182
p237
aVKNOX-1181
p238
aVKNOX-1180
p239
aVKNOX-1179
p240
aVKNOX-1178
p241
aVKNOX-1177
p242
aVKNOX-1176
p243
aVKNOX-1175
p244
aVKNOX-1174
p245
aVKNOX-1173
p246
aVKNOX-1172
p247
aVKNOX-1171
p248
aVKNOX-1170
p249
aVKNOX-1169
p250
aVKNOX-1168
p251
aVKNOX-1167
p252
aVKNOX-1166
p253
aVKNOX-1165
p254
aVKNOX-1164
p255
aVKNOX-1163
p256
aVKNOX-1162
p257
aVKNOX-1161
p258
aVKNOX-1160
p259
aVKNOX-1159
p260
aVKNOX-1158
p261
aVKNOX-1157
p262
aVKNOX-1156
p263
aVKNOX-1155
p264
aVKNOX-1154
p265
aVKNOX-1153
p266
aVKNOX-1152
p267
aVKNOX-1151
p268
aVKNOX-1150
p269
aVKNOX-1149
p270
aVKNOX-1148
p271
aVKNOX-1147
p272
aVKNOX-1146
p273
aVKNOX-1145
p274
aVKNOX-1144
p275
aVKNOX-1143
p276
aVKNOX-1142
p277
aVKNOX-1141
p278
aVKNOX-1140
p279
aVKNOX-1139
p280
aVKNOX-1138
p281
aVKNOX-1137
p282
aVKNOX-1136
p283
aVKNOX-1135
p284
aVKNOX-1134
p285
aVKNOX-1133
p286
aVKNOX-1132
p287
aVKNOX-1131
p288
aVKNOX-1130
p289
aVKNOX-1129
p290
aVKNOX-1128
p291
aVKNOX-1127
p292
aVKNOX-1126
p293
aVKNOX-1125
p294
aVKNOX-1124
p295
aVKNOX-1123
p296
aVKNOX-1122
p297
aVKNOX-1121
p298
aVKNOX-1120
p299
aVKNOX-1119
p300
aVKNOX-1118
p301
aVKNOX-1117
p302
aVKNOX-1116
p303
aVKNOX-1115
p304
aVKNOX-1114
p305
aVKNOX-1113
p306
aVKNOX-1112
p307
aVKNOX-1111
p308
aVKNOX-1110
p309
aVKNOX-1109
p310
aVKNOX-1108
p311
aVKNOX-1107
p312
aVKNOX-1106
p313
aVKNOX-1105
p314
aVKNOX-1104
p315
aVKNOX-1103
p316
aVKNOX-1102
p317
aVKNOX-1101
p318
aVKNOX-1100
p319
aVKNOX-1099
p320
aVKNOX-1098
p321
aVKNOX-1097
p322
aVKNOX-1096
p323
aVKNOX-1095
p324
aVKNOX-1094
p325
aVKNOX-1093
p326
aVKNOX-1092
p327
aVKNOX-1091
p328
aVKNOX-1090
p329
aVKNOX-1089
p330
aVKNOX-1088
p331
aVKNOX-1087
p332
aVKNOX-1086
p333
aVKNOX-1085
p334
aVKNOX-1084
p335
aVKNOX-1083
p336
aVKNOX-1082
p337
aVKNOX-1081
p338
aVKNOX-1080
p339
aVKNOX-1079
p340
aVKNOX-1078
p341
aVKNOX-1077
p342
aVKNOX-1076
p343
aVKNOX-1075
p344
aVKNOX-1074
p345
aVKNOX-1073
p346
aVKNOX-1072
p347
aVKNOX-1071
p348
aVKNOX-1070
p349
aVKNOX-1069
p350
aVKNOX-1068
p351
aVKNOX-1067
p352
aVKNOX-1066
p353
aVKNOX-1065
p354
aVKNOX-1064
p355
aVKNOX-1063
p356
aVKNOX-1062
p357
aVKNOX-1061
p358
aVKNOX-1060
p359
aVKNOX-1058
p360
aVKNOX-1057
p361
aVKNOX-1056
p362
aVKNOX-1055
p363
aVKNOX-1054
p364
aVKNOX-1053
p365
aVKNOX-1052
p366
aVKNOX-1051
p367
aVKNOX-1050
p368
aVKNOX-1049
p369
aVKNOX-1048
p370
aVKNOX-1047
p371
aVKNOX-1046
p372
aVKNOX-1045
p373
aVKNOX-1044
p374
aVKNOX-1043
p375
aVKNOX-1042
p376
aVKNOX-1041
p377
aVKNOX-1040
p378
aVKNOX-1039
p379
aVKNOX-1038
p380
aVKNOX-1037
p381
aVKNOX-1036
p382
aVKNOX-1035
p383
aVKNOX-1034
p384
aVKNOX-1033
p385
aVKNOX-1032
p386
aVKNOX-1031
p387
aVKNOX-1030
p388
aVKNOX-1029
p389
aVKNOX-1028
p390
aVKNOX-1027
p391
aVKNOX-1026
p392
aVKNOX-1025
p393
aVKNOX-1024
p394
aVKNOX-1023
p395
aVKNOX-1022
p396
aVKNOX-1021
p397
aVKNOX-1020
p398
aVKNOX-1019
p399
aVKNOX-1018
p400
aVKNOX-1017
p401
aVKNOX-1016
p402
aVKNOX-1015
p403
aVKNOX-1014
p404
aVKNOX-1013
p405
aVKNOX-1012
p406
aVKNOX-1011
p407
aVKNOX-1010
p408
aVKNOX-1009
p409
aVKNOX-1008
p410
aVKNOX-1007
p411
aVKNOX-1006
p412
aVKNOX-1005
p413
aVKNOX-1004
p414
aVKNOX-1003
p415
aVKNOX-1002
p416
aVKNOX-1001
p417
aVKNOX-1000
p418
aVKNOX-999
p419
aVKNOX-998
p420
aVKNOX-997
p421
aVKNOX-996
p422
aVKNOX-995
p423
aVKNOX-994
p424
aVKNOX-993
p425
aVKNOX-992
p426
aVKNOX-991
p427
aVKNOX-990
p428
aVKNOX-989
p429
aVKNOX-988
p430
aVKNOX-987
p431
aVKNOX-986
p432
aVKNOX-985
p433
aVKNOX-984
p434
aVKNOX-983
p435
aVKNOX-982
p436
aVKNOX-981
p437
aVKNOX-980
p438
aVKNOX-979
p439
aVKNOX-978
p440
aVKNOX-977
p441
aVKNOX-976
p442
aVKNOX-975
p443
aVKNOX-974
p444
aVKNOX-973
p445
aVKNOX-972
p446
aVKNOX-971
p447
aVKNOX-970
p448
aVKNOX-969
p449
aVKNOX-968
p450
aVKNOX-967
p451
aVKNOX-966
p452
aVKNOX-965
p453
aVKNOX-964
p454
aVKNOX-963
p455
aVKNOX-962
p456
aVKNOX-961
p457
aVKNOX-960
p458
aVKNOX-959
p459
aVKNOX-958
p460
aVKNOX-957
p461
aVKNOX-956
p462
aVKNOX-955
p463
aVKNOX-954
p464
aVKNOX-953
p465
aVKNOX-952
p466
aVKNOX-951
p467
aVKNOX-950
p468
aVKNOX-949
p469
aVKNOX-948
p470
aVKNOX-947
p471
aVKNOX-946
p472
aVKNOX-945
p473
aVKNOX-944
p474
aVKNOX-943
p475
aVKNOX-942
p476
aVKNOX-941
p477
aVKNOX-940
p478
aVKNOX-939
p479
aVKNOX-938
p480
aVKNOX-937
p481
aVKNOX-936
p482
aVKNOX-935
p483
aVKNOX-934
p484
aVKNOX-933
p485
aVKNOX-932
p486
aVKNOX-931
p487
aVKNOX-930
p488
aVKNOX-929
p489
aVKNOX-928
p490
aVKNOX-927
p491
aVKNOX-926
p492
aVKNOX-925
p493
aVKNOX-924
p494
aVKNOX-923
p495
aVKNOX-922
p496
aVKNOX-921
p497
aVKNOX-920
p498
aVKNOX-919
p499
aVKNOX-918
p500
aVKNOX-917
p501
aVKNOX-916
p502
aVKNOX-915
p503
aVKNOX-914
p504
aVKNOX-913
p505
aVKNOX-912
p506
aVKNOX-911
p507
aVKNOX-910
p508
aVKNOX-909
p509
aVKNOX-908
p510
aVKNOX-907
p511
aVKNOX-906
p512
aVKNOX-905
p513
aVKNOX-904
p514
aVKNOX-903
p515
aVKNOX-902
p516
aVKNOX-901
p517
aVKNOX-900
p518
aVKNOX-899
p519
aVKNOX-898
p520
aVKNOX-897
p521
aVKNOX-896
p522
aVKNOX-895
p523
aVKNOX-894
p524
aVKNOX-893
p525
aVKNOX-892
p526
aVKNOX-891
p527
aVKNOX-890
p528
aVKNOX-889
p529
aVKNOX-888
p530
aVKNOX-887
p531
aVKNOX-886
p532
aVKNOX-885
p533
aVKNOX-884
p534
aVKNOX-883
p535
aVKNOX-882
p536
aVKNOX-881
p537
aVKNOX-880
p538
aVKNOX-879
p539
aVKNOX-878
p540
aVKNOX-877
p541
aVKNOX-876
p542
aVKNOX-875
p543
aVKNOX-874
p544
aVKNOX-873
p545
aVKNOX-872
p546
aVKNOX-871
p547
aVKNOX-870
p548
aVKNOX-869
p549
aVKNOX-868
p550
aVKNOX-867
p551
aVKNOX-866
p552
aVKNOX-865
p553
aVKNOX-864
p554
aVKNOX-863
p555
aVKNOX-862
p556
aVKNOX-861
p557
aVKNOX-860
p558
aVKNOX-859
p559
aVKNOX-858
p560
aVKNOX-857
p561
aVKNOX-856
p562
aVKNOX-855
p563
aVKNOX-854
p564
aVKNOX-853
p565
aVKNOX-852
p566
aVKNOX-851
p567
aVKNOX-850
p568
aVKNOX-849
p569
aVKNOX-848
p570
aVKNOX-847
p571
aVKNOX-846
p572
aVKNOX-845
p573
aVKNOX-844
p574
aVKNOX-843
p575
aVKNOX-842
p576
aVKNOX-841
p577
aVKNOX-840
p578
aVKNOX-839
p579
aVKNOX-838
p580
aVKNOX-837
p581
aVKNOX-836
p582
aVKNOX-835
p583
aVKNOX-834
p584
aVKNOX-833
p585
aVKNOX-832
p586
aVKNOX-831
p587
aVKNOX-830
p588
aVKNOX-829
p589
aVKNOX-828
p590
aVKNOX-827
p591
aVKNOX-826
p592
aVKNOX-825
p593
aVKNOX-824
p594
aVKNOX-823
p595
aVKNOX-822
p596
aVKNOX-821
p597
aVKNOX-820
p598
aVKNOX-819
p599
aVKNOX-818
p600
aVKNOX-817
p601
aVKNOX-816
p602
aVKNOX-815
p603
aVKNOX-814
p604
aVKNOX-813
p605
aVKNOX-812
p606
aVKNOX-811
p607
aVKNOX-810
p608
aVKNOX-809
p609
aVKNOX-808
p610
aVKNOX-807
p611
aVKNOX-806
p612
aVKNOX-805
p613
aVKNOX-804
p614
aVKNOX-803
p615
aVKNOX-802
p616
aVKNOX-801
p617
aVKNOX-800
p618
aVKNOX-799
p619
aVKNOX-798
p620
aVKNOX-797
p621
aVKNOX-796
p622
aVKNOX-795
p623
aVKNOX-794
p624
aVKNOX-793
p625
aVKNOX-792
p626
aVKNOX-791
p627
aVKNOX-790
p628
aVKNOX-789
p629
aVKNOX-788
p630
aVKNOX-787
p631
aVKNOX-786
p632
aVKNOX-785
p633
aVKNOX-784
p634
aVKNOX-783
p635
aVKNOX-782
p636
aVKNOX-781
p637
aVKNOX-780
p638
aVKNOX-779
p639
aVKNOX-778
p640
aVKNOX-777
p641
aVKNOX-776
p642
aVKNOX-775
p643
aVKNOX-774
p644
aVKNOX-773
p645
aVKNOX-772
p646
aVKNOX-771
p647
aVKNOX-770
p648
aVKNOX-769
p649
aVKNOX-768
p650
aVKNOX-767
p651
aVKNOX-766
p652
aVKNOX-765
p653
aVKNOX-764
p654
aVKNOX-763
p655
aVKNOX-762
p656
aVKNOX-761
p657
aVKNOX-760
p658
aVKNOX-759
p659
aVKNOX-758
p660
aVKNOX-757
p661
aVKNOX-756
p662
aVKNOX-755
p663
aVKNOX-754
p664
aVKNOX-753
p665
aVKNOX-752
p666
aVKNOX-751
p667
aVKNOX-750
p668
aVKNOX-749
p669
aVKNOX-748
p670
aVKNOX-747
p671
aVKNOX-746
p672
aVKNOX-745
p673
aVKNOX-744
p674
aVKNOX-743
p675
aVKNOX-742
p676
aVKNOX-741
p677
aVKNOX-740
p678
aVKNOX-739
p679
aVKNOX-738
p680
aVKNOX-737
p681
aVKNOX-736
p682
aVKNOX-735
p683
aVKNOX-734
p684
aVKNOX-733
p685
aVKNOX-732
p686
aVKNOX-731
p687
aVKNOX-730
p688
aVKNOX-729
p689
aVKNOX-728
p690
aVKNOX-727
p691
aVKNOX-726
p692
aVKNOX-725
p693
aVKNOX-724
p694
aVKNOX-723
p695
aVKNOX-722
p696
aVKNOX-721
p697
aVKNOX-720
p698
aVKNOX-719
p699
aVKNOX-718
p700
aVKNOX-717
p701
aVKNOX-716
p702
aVKNOX-715
p703
aVKNOX-714
p704
aVKNOX-713
p705
aVKNOX-712
p706
aVKNOX-711
p707
aVKNOX-710
p708
aVKNOX-709
p709
aVKNOX-708
p710
aVKNOX-707
p711
aVKNOX-706
p712
aVKNOX-705
p713
aVKNOX-704
p714
aVKNOX-703
p715
aVKNOX-702
p716
aVKNOX-701
p717
aVKNOX-700
p718
aVKNOX-699
p719
aVKNOX-698
p720
aVKNOX-697
p721
aVKNOX-696
p722
aVKNOX-695
p723
aVKNOX-694
p724
aVKNOX-693
p725
aVKNOX-692
p726
aVKNOX-691
p727
aVKNOX-690
p728
aVKNOX-689
p729
aVKNOX-688
p730
aVKNOX-687
p731
aVKNOX-686
p732
aVKNOX-685
p733
aVKNOX-684
p734
aVKNOX-683
p735
aVKNOX-682
p736
aVKNOX-681
p737
aVKNOX-680
p738
aVKNOX-679
p739
aVKNOX-678
p740
aVKNOX-677
p741
aVKNOX-676
p742
aVKNOX-675
p743
aVKNOX-674
p744
aVKNOX-673
p745
aVKNOX-672
p746
aVKNOX-671
p747
aVKNOX-670
p748
aVKNOX-669
p749
aVKNOX-668
p750
aVKNOX-667
p751
aVKNOX-666
p752
aVKNOX-665
p753
aVKNOX-664
p754
aVKNOX-663
p755
aVKNOX-662
p756
aVKNOX-661
p757
aVKNOX-660
p758
aVKNOX-659
p759
aVKNOX-658
p760
aVKNOX-657
p761
aVKNOX-656
p762
aVKNOX-655
p763
aVKNOX-654
p764
aVKNOX-653
p765
aVKNOX-652
p766
aVKNOX-651
p767
aVKNOX-650
p768
aVKNOX-649
p769
aVKNOX-648
p770
aVKNOX-647
p771
aVKNOX-646
p772
aVKNOX-645
p773
aVKNOX-644
p774
aVKNOX-643
p775
aVKNOX-642
p776
aVKNOX-641
p777
aVKNOX-640
p778
aVKNOX-639
p779
aVKNOX-638
p780
aVKNOX-637
p781
aVKNOX-636
p782
aVKNOX-635
p783
aVKNOX-634
p784
aVKNOX-633
p785
aVKNOX-632
p786
aVKNOX-631
p787
aVKNOX-630
p788
aVKNOX-629
p789
aVKNOX-628
p790
aVKNOX-627
p791
aVKNOX-626
p792
aVKNOX-625
p793
aVKNOX-624
p794
aVKNOX-623
p795
aVKNOX-622
p796
aVKNOX-621
p797
aVKNOX-620
p798
aVKNOX-619
p799
aVKNOX-618
p800
aVKNOX-617
p801
aVKNOX-616
p802
aVKNOX-615
p803
aVKNOX-614
p804
aVKNOX-613
p805
aVKNOX-612
p806
aVKNOX-611
p807
aVKNOX-610
p808
aVKNOX-609
p809
aVKNOX-608
p810
aVKNOX-607
p811
aVKNOX-606
p812
aVKNOX-605
p813
aVKNOX-604
p814
aVKNOX-603
p815
aVKNOX-602
p816
aVKNOX-601
p817
aVKNOX-600
p818
aVKNOX-599
p819
aVKNOX-598
p820
aVKNOX-597
p821
aVKNOX-596
p822
aVKNOX-595
p823
aVKNOX-594
p824
aVKNOX-593
p825
aVKNOX-592
p826
aVKNOX-591
p827
aVKNOX-590
p828
aVKNOX-589
p829
aVKNOX-588
p830
aVKNOX-587
p831
aVKNOX-586
p832
aVKNOX-585
p833
aVKNOX-584
p834
aVKNOX-583
p835
aVKNOX-582
p836
aVKNOX-581
p837
aVKNOX-580
p838
aVKNOX-579
p839
aVKNOX-578
p840
aVKNOX-577
p841
aVKNOX-576
p842
aVKNOX-575
p843
aVKNOX-574
p844
aVKNOX-573
p845
aVKNOX-572
p846
aVKNOX-571
p847
aVKNOX-570
p848
aVKNOX-569
p849
aVKNOX-568
p850
aVKNOX-567
p851
aVKNOX-566
p852
aVKNOX-565
p853
aVKNOX-564
p854
aVKNOX-563
p855
aVKNOX-562
p856
aVKNOX-561
p857
aVKNOX-560
p858
aVKNOX-559
p859
aVKNOX-558
p860
aVKNOX-557
p861
aVKNOX-556
p862
aVKNOX-555
p863
aVKNOX-554
p864
aVKNOX-553
p865
aVKNOX-552
p866
aVKNOX-551
p867
aVKNOX-550
p868
aVKNOX-549
p869
aVKNOX-548
p870
aVKNOX-547
p871
aVKNOX-546
p872
aVKNOX-545
p873
aVKNOX-544
p874
aVKNOX-543
p875
aVKNOX-542
p876
aVKNOX-541
p877
aVKNOX-540
p878
aVKNOX-539
p879
aVKNOX-538
p880
aVKNOX-537
p881
aVKNOX-536
p882
aVKNOX-535
p883
aVKNOX-534
p884
aVKNOX-533
p885
aVKNOX-532
p886
aVKNOX-531
p887
aVKNOX-530
p888
aVKNOX-529
p889
aVKNOX-528
p890
aVKNOX-527
p891
aVKNOX-526
p892
aVKNOX-525
p893
aVKNOX-524
p894
aVKNOX-523
p895
aVKNOX-522
p896
aVKNOX-521
p897
aVKNOX-520
p898
aVKNOX-519
p899
aVKNOX-518
p900
aVKNOX-517
p901
aVKNOX-516
p902
aVKNOX-515
p903
aVKNOX-514
p904
aVKNOX-513
p905
aVKNOX-512
p906
aVKNOX-511
p907
aVKNOX-510
p908
aVKNOX-509
p909
aVKNOX-508
p910
aVKNOX-507
p911
aVKNOX-506
p912
aVKNOX-505
p913
aVKNOX-504
p914
aVKNOX-503
p915
aVKNOX-502
p916
aVKNOX-501
p917
aVKNOX-500
p918
aVKNOX-499
p919
aVKNOX-498
p920
aVKNOX-497
p921
aVKNOX-496
p922
aVKNOX-495
p923
aVKNOX-494
p924
aVKNOX-493
p925
aVKNOX-492
p926
aVKNOX-491
p927
aVKNOX-490
p928
aVKNOX-489
p929
aVKNOX-488
p930
aVKNOX-487
p931
aVKNOX-486
p932
aVKNOX-485
p933
aVKNOX-484
p934
aVKNOX-483
p935
aVKNOX-482
p936
aVKNOX-481
p937
aVKNOX-480
p938
aVKNOX-479
p939
aVKNOX-478
p940
aVKNOX-477
p941
aVKNOX-476
p942
aVKNOX-475
p943
aVKNOX-474
p944
aVKNOX-473
p945
aVKNOX-472
p946
aVKNOX-471
p947
aVKNOX-470
p948
aVKNOX-469
p949
aVKNOX-468
p950
aVKNOX-467
p951
aVKNOX-466
p952
aVKNOX-465
p953
aVKNOX-464
p954
aVKNOX-463
p955
aVKNOX-462
p956
aVKNOX-461
p957
aVKNOX-460
p958
aVKNOX-459
p959
aVKNOX-458
p960
aVKNOX-457
p961
aVKNOX-456
p962
aVKNOX-455
p963
aVKNOX-454
p964
aVKNOX-453
p965
aVKNOX-452
p966
aVKNOX-451
p967
aVKNOX-450
p968
aVKNOX-449
p969
aVKNOX-448
p970
aVKNOX-447
p971
aVKNOX-446
p972
aVKNOX-445
p973
aVKNOX-444
p974
aVKNOX-443
p975
aVKNOX-442
p976
aVKNOX-441
p977
aVKNOX-440
p978
aVKNOX-439
p979
aVKNOX-438
p980
aVKNOX-437
p981
aVKNOX-436
p982
aVKNOX-435
p983
aVKNOX-434
p984
aVKNOX-433
p985
aVKNOX-432
p986
aVKNOX-431
p987
aVKNOX-430
p988
aVKNOX-429
p989
aVKNOX-428
p990
aVKNOX-427
p991
aVKNOX-426
p992
aVKNOX-425
p993
aVKNOX-424
p994
aVKNOX-423
p995
aVKNOX-422
p996
aVKNOX-421
p997
aVKNOX-420
p998
aVKNOX-419
p999
aVKNOX-418
p1000
aVKNOX-417
p1001
aVKNOX-416
p1002
aVKNOX-415
p1003
aVKNOX-414
p1004
aVKNOX-413
p1005
aVKNOX-412
p1006
aVKNOX-411
p1007
aVKNOX-410
p1008
aVKNOX-409
p1009
aVKNOX-408
p1010
aVKNOX-407
p1011
aVKNOX-406
p1012
aVKNOX-405
p1013
aVKNOX-404
p1014
aVKNOX-403
p1015
aVKNOX-402
p1016
aVKNOX-401
p1017
aVKNOX-400
p1018
aVKNOX-399
p1019
aVKNOX-398
p1020
aVKNOX-397
p1021
aVKNOX-396
p1022
aVKNOX-395
p1023
aVKNOX-394
p1024
aVKNOX-393
p1025
aVKNOX-392
p1026
aVKNOX-391
p1027
aVKNOX-390
p1028
aVKNOX-389
p1029
aVKNOX-388
p1030
aVKNOX-387
p1031
aVKNOX-386
p1032
aVKNOX-385
p1033
aVKNOX-384
p1034
aVKNOX-383
p1035
aVKNOX-382
p1036
aVKNOX-381
p1037
aVKNOX-380
p1038
aVKNOX-379
p1039
aVKNOX-378
p1040
aVKNOX-377
p1041
aVKNOX-376
p1042
aVKNOX-375
p1043
aVKNOX-374
p1044
aVKNOX-373
p1045
aVKNOX-372
p1046
aVKNOX-371
p1047
aVKNOX-370
p1048
aVKNOX-369
p1049
aVKNOX-368
p1050
aVKNOX-367
p1051
aVKNOX-366
p1052
aVKNOX-365
p1053
aVKNOX-364
p1054
aVKNOX-363
p1055
aVKNOX-362
p1056
aVKNOX-361
p1057
aVKNOX-360
p1058
aVKNOX-359
p1059
aVKNOX-358
p1060
aVKNOX-357
p1061
aVKNOX-356
p1062
aVKNOX-355
p1063
aVKNOX-354
p1064
aVKNOX-353
p1065
aVKNOX-352
p1066
aVKNOX-351
p1067
aVKNOX-350
p1068
aVKNOX-349
p1069
aVKNOX-348
p1070
aVKNOX-347
p1071
aVKNOX-346
p1072
aVKNOX-345
p1073
aVKNOX-344
p1074
aVKNOX-343
p1075
aVKNOX-342
p1076
aVKNOX-341
p1077
aVKNOX-340
p1078
aVKNOX-339
p1079
aVKNOX-338
p1080
aVKNOX-337
p1081
aVKNOX-336
p1082
aVKNOX-335
p1083
aVKNOX-334
p1084
aVKNOX-333
p1085
aVKNOX-332
p1086
aVKNOX-331
p1087
aVKNOX-330
p1088
aVKNOX-329
p1089
aVKNOX-328
p1090
aVKNOX-327
p1091
aVKNOX-326
p1092
aVKNOX-325
p1093
aVKNOX-324
p1094
aVKNOX-323
p1095
aVKNOX-322
p1096
aVKNOX-321
p1097
aVKNOX-320
p1098
aVKNOX-319
p1099
aVKNOX-318
p1100
aVKNOX-317
p1101
aVKNOX-316
p1102
aVKNOX-315
p1103
aVKNOX-314
p1104
aVKNOX-313
p1105
aVKNOX-312
p1106
aVKNOX-311
p1107
aVKNOX-310
p1108
aVKNOX-309
p1109
aVKNOX-308
p1110
aVKNOX-307
p1111
aVKNOX-306
p1112
aVKNOX-305
p1113
aVKNOX-304
p1114
aVKNOX-303
p1115
aVKNOX-302
p1116
aVKNOX-301
p1117
aVKNOX-300
p1118
aVKNOX-299
p1119
aVKNOX-298
p1120
aVKNOX-297
p1121
aVKNOX-296
p1122
aVKNOX-295
p1123
aVKNOX-294
p1124
aVKNOX-293
p1125
aVKNOX-292
p1126
aVKNOX-291
p1127
aVKNOX-290
p1128
aVKNOX-289
p1129
aVKNOX-288
p1130
aVKNOX-287
p1131
aVKNOX-286
p1132
aVKNOX-285
p1133
aVKNOX-284
p1134
aVKNOX-283
p1135
aVKNOX-282
p1136
aVKNOX-281
p1137
aVKNOX-280
p1138
aVKNOX-279
p1139
aVKNOX-278
p1140
aVKNOX-277
p1141
aVKNOX-276
p1142
aVKNOX-275
p1143
aVKNOX-274
p1144
aVKNOX-273
p1145
aVKNOX-272
p1146
aVKNOX-271
p1147
aVKNOX-270
p1148
aVKNOX-269
p1149
aVKNOX-268
p1150
aVKNOX-267
p1151
aVKNOX-266
p1152
aVKNOX-265
p1153
aVKNOX-264
p1154
aVKNOX-263
p1155
aVKNOX-262
p1156
aVKNOX-261
p1157
aVKNOX-260
p1158
aVKNOX-259
p1159
aVKNOX-258
p1160
aVKNOX-257
p1161
aVKNOX-256
p1162
aVKNOX-255
p1163
aVKNOX-254
p1164
aVKNOX-253
p1165
aVKNOX-252
p1166
aVKNOX-251
p1167
aVKNOX-250
p1168
aVKNOX-249
p1169
aVKNOX-248
p1170
aVKNOX-247
p1171
aVKNOX-246
p1172
aVKNOX-245
p1173
aVKNOX-244
p1174
aVKNOX-243
p1175
aVKNOX-242
p1176
aVKNOX-241
p1177
aVKNOX-240
p1178
aVKNOX-239
p1179
aVKNOX-238
p1180
aVKNOX-237
p1181
aVKNOX-236
p1182
aVKNOX-235
p1183
aVKNOX-234
p1184
aVKNOX-233
p1185
aVKNOX-232
p1186
aVKNOX-231
p1187
aVKNOX-230
p1188
aVKNOX-229
p1189
aVKNOX-228
p1190
aVKNOX-227
p1191
aVKNOX-226
p1192
aVKNOX-225
p1193
aVKNOX-224
p1194
aVKNOX-223
p1195
aVKNOX-222
p1196
aVKNOX-221
p1197
aVKNOX-220
p1198
aVKNOX-219
p1199
aVKNOX-218
p1200
aVKNOX-217
p1201
aVKNOX-216
p1202
aVKNOX-215
p1203
aVKNOX-214
p1204
aVKNOX-213
p1205
aVKNOX-212
p1206
aVKNOX-211
p1207
aVKNOX-210
p1208
aVKNOX-209
p1209
aVKNOX-208
p1210
aVKNOX-207
p1211
aVKNOX-206
p1212
aVKNOX-205
p1213
aVKNOX-204
p1214
aVKNOX-203
p1215
aVKNOX-202
p1216
aVKNOX-201
p1217
aVKNOX-200
p1218
aVKNOX-199
p1219
aVKNOX-198
p1220
aVKNOX-197
p1221
aVKNOX-196
p1222
aVKNOX-195
p1223
aVKNOX-194
p1224
aVKNOX-193
p1225
aVKNOX-192
p1226
aVKNOX-191
p1227
aVKNOX-190
p1228
aVKNOX-189
p1229
aVKNOX-188
p1230
aVKNOX-187
p1231
aVKNOX-186
p1232
aVKNOX-185
p1233
aVKNOX-184
p1234
aVKNOX-183
p1235
aVKNOX-182
p1236
aVKNOX-181
p1237
aVKNOX-180
p1238
aVKNOX-179
p1239
aVKNOX-178
p1240
aVKNOX-177
p1241
aVKNOX-176
p1242
aVKNOX-175
p1243
aVKNOX-174
p1244
aVKNOX-173
p1245
aVKNOX-172
p1246
aVKNOX-171
p1247
aVKNOX-170
p1248
aVKNOX-169
p1249
aVKNOX-168
p1250
aVKNOX-167
p1251
aVKNOX-166
p1252
aVKNOX-165
p1253
aVKNOX-164
p1254
aVKNOX-163
p1255
aVKNOX-162
p1256
aVKNOX-161
p1257
aVKNOX-160
p1258
aVKNOX-159
p1259
aVKNOX-158
p1260
aVKNOX-157
p1261
aVKNOX-156
p1262
aVKNOX-155
p1263
aVKNOX-154
p1264
aVKNOX-153
p1265
aVKNOX-152
p1266
aVKNOX-151
p1267
aVKNOX-150
p1268
aVKNOX-149
p1269
aVKNOX-148
p1270
aVKNOX-147
p1271
aVKNOX-146
p1272
aVKNOX-145
p1273
aVKNOX-144
p1274
aVKNOX-143
p1275
aVKNOX-142
p1276
aVKNOX-141
p1277
aVKNOX-140
p1278
aVKNOX-139
p1279
aVKNOX-138
p1280
aVKNOX-137
p1281
aVKNOX-136
p1282
aVKNOX-135
p1283
aVKNOX-134
p1284
aVKNOX-133
p1285
aVKNOX-132
p1286
aVKNOX-131
p1287
aVKNOX-130
p1288
aVKNOX-129
p1289
aVKNOX-128
p1290
aVKNOX-127
p1291
aVKNOX-126
p1292
aVKNOX-125
p1293
aVKNOX-124
p1294
aVKNOX-123
p1295
aVKNOX-122
p1296
aVKNOX-121
p1297
aVKNOX-120
p1298
aVKNOX-119
p1299
aVKNOX-118
p1300
aVKNOX-117
p1301
aVKNOX-116
p1302
aVKNOX-115
p1303
aVKNOX-114
p1304
aVKNOX-113
p1305
aVKNOX-112
p1306
aVKNOX-111
p1307
aVKNOX-110
p1308
aVKNOX-109
p1309
aVKNOX-108
p1310
aVKNOX-107
p1311
aVKNOX-106
p1312
aVKNOX-105
p1313
aVKNOX-104
p1314
aVKNOX-103
p1315
aVKNOX-102
p1316
aVKNOX-101
p1317
aVKNOX-100
p1318
aVKNOX-99
p1319
aVKNOX-98
p1320
aVKNOX-97
p1321
aVKNOX-96
p1322
aVKNOX-95
p1323
aVKNOX-94
p1324
aVKNOX-93
p1325
aVKNOX-92
p1326
aVKNOX-91
p1327
aVKNOX-90
p1328
aVKNOX-89
p1329
aVKNOX-88
p1330
aVKNOX-87
p1331
aVKNOX-86
p1332
aVKNOX-85
p1333
aVKNOX-84
p1334
aVKNOX-83
p1335
aVKNOX-82
p1336
aVKNOX-81
p1337
aVKNOX-80
p1338
aVKNOX-79
p1339
aVKNOX-78
p1340
aVKNOX-77
p1341
aVKNOX-76
p1342
aVKNOX-75
p1343
aVKNOX-74
p1344
aVKNOX-73
p1345
aVKNOX-72
p1346
aVKNOX-71
p1347
aVKNOX-70
p1348
aVKNOX-69
p1349
aVKNOX-68
p1350
aVKNOX-67
p1351
aVKNOX-66
p1352
aVKNOX-65
p1353
aVKNOX-64
p1354
aVKNOX-63
p1355
aVKNOX-61
p1356
aVKNOX-60
p1357
aVKNOX-59
p1358
aVKNOX-58
p1359
aVKNOX-57
p1360
aVKNOX-56
p1361
aVKNOX-55
p1362
aVKNOX-54
p1363
aVKNOX-53
p1364
aVKNOX-52
p1365
aVKNOX-51
p1366
aVKNOX-50
p1367
aVKNOX-49
p1368
aVKNOX-48
p1369
aVKNOX-47
p1370
aVKNOX-46
p1371
aVKNOX-45
p1372
aVKNOX-44
p1373
aVKNOX-43
p1374
aVKNOX-42
p1375
aVKNOX-41
p1376
aVKNOX-40
p1377
aVKNOX-39
p1378
aVKNOX-38
p1379
aVKNOX-37
p1380
aVKNOX-36
p1381
aVKNOX-35
p1382
aVKNOX-34
p1383
aVKNOX-33
p1384
aVKNOX-32
p1385
aVKNOX-31
p1386
aVKNOX-30
p1387
aVKNOX-29
p1388
aVKNOX-28
p1389
aVKNOX-27
p1390
aVKNOX-25
p1391
aVKNOX-24
p1392
aVKNOX-23
p1393
aVKNOX-22
p1394
aVKNOX-21
p1395
aVKNOX-20
p1396
aVKNOX-19
p1397
aVKNOX-18
p1398
aVKNOX-17
p1399
aVKNOX-16
p1400
aVKNOX-15
p1401
aVKNOX-14
p1402
aVKNOX-13
p1403
aVKNOX-12
p1404
aVKNOX-11
p1405
aVKNOX-10
p1406
aVKNOX-9
p1407
aVKNOX-8
p1408
aVKNOX-7
p1409
aVKNOX-6
p1410
aVKNOX-5
p1411
aVKNOX-4
p1412
aVKNOX-3
p1413
aVKNOX-2
p1414
aVKNOX-1
p1415
a.