(lp0
VLANG-1406
p1
aVLANG-1405
p2
aVLANG-1404
p3
aVLANG-1403
p4
aVLANG-1402
p5
aVLANG-1401
p6
aVLANG-1400
p7
aVLANG-1399
p8
aVLANG-1397
p9
aVLANG-1396
p10
aVLANG-1395
p11
aVLANG-1394
p12
aVLANG-1393
p13
aVLANG-1392
p14
aVLANG-1391
p15
aVLANG-1390
p16
aVLANG-1389
p17
aVLANG-1388
p18
aVLANG-1387
p19
aVLANG-1386
p20
aVLANG-1385
p21
aVLANG-1384
p22
aVLANG-1383
p23
aVLANG-1382
p24
aVLANG-1381
p25
aVLANG-1380
p26
aVLANG-1379
p27
aVLANG-1377
p28
aVLANG-1376
p29
aVLANG-1375
p30
aVLANG-1374
p31
aVLANG-1373
p32
aVLANG-1372
p33
aVLANG-1371
p34
aVLANG-1370
p35
aVLANG-1369
p36
aVLANG-1368
p37
aVLANG-1367
p38
aVLANG-1366
p39
aVLANG-1365
p40
aVLANG-1364
p41
aVLANG-1363
p42
aVLANG-1362
p43
aVLANG-1361
p44
aVLANG-1360
p45
aVLANG-1359
p46
aVLANG-1358
p47
aVLANG-1357
p48
aVLANG-1356
p49
aVLANG-1355
p50
aVLANG-1354
p51
aVLANG-1353
p52
aVLANG-1352
p53
aVLANG-1351
p54
aVLANG-1350
p55
aVLANG-1349
p56
aVLANG-1348
p57
aVLANG-1347
p58
aVLANG-1346
p59
aVLANG-1345
p60
aVLANG-1344
p61
aVLANG-1343
p62
aVLANG-1342
p63
aVLANG-1341
p64
aVLANG-1340
p65
aVLANG-1339
p66
aVLANG-1338
p67
aVLANG-1337
p68
aVLANG-1336
p69
aVLANG-1335
p70
aVLANG-1334
p71
aVLANG-1333
p72
aVLANG-1332
p73
aVLANG-1331
p74
aVLANG-1330
p75
aVLANG-1329
p76
aVLANG-1328
p77
aVLANG-1327
p78
aVLANG-1326
p79
aVLANG-1325
p80
aVLANG-1324
p81
aVLANG-1323
p82
aVLANG-1322
p83
aVLANG-1321
p84
aVLANG-1320
p85
aVLANG-1319
p86
aVLANG-1317
p87
aVLANG-1316
p88
aVLANG-1315
p89
aVLANG-1314
p90
aVLANG-1313
p91
aVLANG-1312
p92
aVLANG-1311
p93
aVLANG-1310
p94
aVLANG-1309
p95
aVLANG-1307
p96
aVLANG-1306
p97
aVLANG-1305
p98
aVLANG-1304
p99
aVLANG-1302
p100
aVLANG-1301
p101
aVLANG-1300
p102
aVLANG-1299
p103
aVLANG-1298
p104
aVLANG-1297
p105
aVLANG-1296
p106
aVLANG-1295
p107
aVLANG-1293
p108
aVLANG-1292
p109
aVLANG-1291
p110
aVLANG-1290
p111
aVLANG-1287
p112
aVLANG-1286
p113
aVLANG-1285
p114
aVLANG-1284
p115
aVLANG-1283
p116
aVLANG-1282
p117
aVLANG-1281
p118
aVLANG-1279
p119
aVLANG-1278
p120
aVLANG-1277
p121
aVLANG-1276
p122
aVLANG-1275
p123
aVLANG-1274
p124
aVLANG-1273
p125
aVLANG-1272
p126
aVLANG-1271
p127
aVLANG-1270
p128
aVLANG-1269
p129
aVLANG-1268
p130
aVLANG-1267
p131
aVLANG-1265
p132
aVLANG-1264
p133
aVLANG-1263
p134
aVLANG-1262
p135
aVLANG-1261
p136
aVLANG-1260
p137
aVLANG-1259
p138
aVLANG-1258
p139
aVLANG-1257
p140
aVLANG-1256
p141
aVLANG-1255
p142
aVLANG-1254
p143
aVLANG-1253
p144
aVLANG-1252
p145
aVLANG-1251
p146
aVLANG-1250
p147
aVLANG-1249
p148
aVLANG-1248
p149
aVLANG-1247
p150
aVLANG-1246
p151
aVLANG-1245
p152
aVLANG-1244
p153
aVLANG-1243
p154
aVLANG-1242
p155
aVLANG-1241
p156
aVLANG-1240
p157
aVLANG-1239
p158
aVLANG-1238
p159
aVLANG-1237
p160
aVLANG-1236
p161
aVLANG-1235
p162
aVLANG-1234
p163
aVLANG-1233
p164
aVLANG-1232
p165
aVLANG-1231
p166
aVLANG-1230
p167
aVLANG-1229
p168
aVLANG-1228
p169
aVLANG-1227
p170
aVLANG-1226
p171
aVLANG-1225
p172
aVLANG-1224
p173
aVLANG-1223
p174
aVLANG-1222
p175
aVLANG-1221
p176
aVLANG-1220
p177
aVLANG-1219
p178
aVLANG-1218
p179
aVLANG-1216
p180
aVLANG-1215
p181
aVLANG-1214
p182
aVLANG-1213
p183
aVLANG-1212
p184
aVLANG-1210
p185
aVLANG-1209
p186
aVLANG-1208
p187
aVLANG-1207
p188
aVLANG-1206
p189
aVLANG-1205
p190
aVLANG-1204
p191
aVLANG-1203
p192
aVLANG-1202
p193
aVLANG-1201
p194
aVLANG-1200
p195
aVLANG-1199
p196
aVLANG-1198
p197
aVLANG-1197
p198
aVLANG-1196
p199
aVLANG-1195
p200
aVLANG-1194
p201
aVLANG-1193
p202
aVLANG-1192
p203
aVLANG-1191
p204
aVLANG-1190
p205
aVLANG-1189
p206
aVLANG-1188
p207
aVLANG-1187
p208
aVLANG-1186
p209
aVLANG-1185
p210
aVLANG-1184
p211
aVLANG-1183
p212
aVLANG-1182
p213
aVLANG-1181
p214
aVLANG-1180
p215
aVLANG-1178
p216
aVLANG-1177
p217
aVLANG-1176
p218
aVLANG-1175
p219
aVLANG-1174
p220
aVLANG-1173
p221
aVLANG-1172
p222
aVLANG-1171
p223
aVLANG-1170
p224
aVLANG-1169
p225
aVLANG-1168
p226
aVLANG-1167
p227
aVLANG-1166
p228
aVLANG-1165
p229
aVLANG-1164
p230
aVLANG-1163
p231
aVLANG-1162
p232
aVLANG-1161
p233
aVLANG-1160
p234
aVLANG-1159
p235
aVLANG-1158
p236
aVLANG-1157
p237
aVLANG-1156
p238
aVLANG-1155
p239
aVLANG-1154
p240
aVLANG-1153
p241
aVLANG-1152
p242
aVLANG-1151
p243
aVLANG-1150
p244
aVLANG-1149
p245
aVLANG-1148
p246
aVLANG-1147
p247
aVLANG-1146
p248
aVLANG-1145
p249
aVLANG-1144
p250
aVLANG-1143
p251
aVLANG-1142
p252
aVLANG-1141
p253
aVLANG-1140
p254
aVLANG-1139
p255
aVLANG-1138
p256
aVLANG-1137
p257
aVLANG-1136
p258
aVLANG-1135
p259
aVLANG-1134
p260
aVLANG-1133
p261
aVLANG-1132
p262
aVLANG-1131
p263
aVLANG-1130
p264
aVLANG-1129
p265
aVLANG-1128
p266
aVLANG-1127
p267
aVLANG-1126
p268
aVLANG-1125
p269
aVLANG-1124
p270
aVLANG-1123
p271
aVLANG-1122
p272
aVLANG-1121
p273
aVLANG-1120
p274
aVLANG-1119
p275
aVLANG-1118
p276
aVLANG-1117
p277
aVLANG-1116
p278
aVLANG-1115
p279
aVLANG-1114
p280
aVLANG-1113
p281
aVLANG-1112
p282
aVLANG-1111
p283
aVLANG-1110
p284
aVLANG-1109
p285
aVLANG-1108
p286
aVLANG-1107
p287
aVLANG-1106
p288
aVLANG-1105
p289
aVLANG-1104
p290
aVLANG-1103
p291
aVLANG-1102
p292
aVLANG-1101
p293
aVLANG-1100
p294
aVLANG-1099
p295
aVLANG-1098
p296
aVLANG-1097
p297
aVLANG-1096
p298
aVLANG-1095
p299
aVLANG-1094
p300
aVLANG-1093
p301
aVLANG-1092
p302
aVLANG-1091
p303
aVLANG-1090
p304
aVLANG-1089
p305
aVLANG-1088
p306
aVLANG-1087
p307
aVLANG-1086
p308
aVLANG-1085
p309
aVLANG-1084
p310
aVLANG-1083
p311
aVLANG-1082
p312
aVLANG-1081
p313
aVLANG-1080
p314
aVLANG-1079
p315
aVLANG-1078
p316
aVLANG-1077
p317
aVLANG-1076
p318
aVLANG-1075
p319
aVLANG-1074
p320
aVLANG-1073
p321
aVLANG-1072
p322
aVLANG-1071
p323
aVLANG-1070
p324
aVLANG-1069
p325
aVLANG-1068
p326
aVLANG-1067
p327
aVLANG-1065
p328
aVLANG-1064
p329
aVLANG-1063
p330
aVLANG-1062
p331
aVLANG-1061
p332
aVLANG-1060
p333
aVLANG-1059
p334
aVLANG-1058
p335
aVLANG-1057
p336
aVLANG-1056
p337
aVLANG-1055
p338
aVLANG-1054
p339
aVLANG-1053
p340
aVLANG-1052
p341
aVLANG-1050
p342
aVLANG-1049
p343
aVLANG-1048
p344
aVLANG-1047
p345
aVLANG-1046
p346
aVLANG-1045
p347
aVLANG-1044
p348
aVLANG-1043
p349
aVLANG-1042
p350
aVLANG-1041
p351
aVLANG-1040
p352
aVLANG-1039
p353
aVLANG-1038
p354
aVLANG-1037
p355
aVLANG-1036
p356
aVLANG-1035
p357
aVLANG-1034
p358
aVLANG-1033
p359
aVLANG-1032
p360
aVLANG-1031
p361
aVLANG-1030
p362
aVLANG-1029
p363
aVLANG-1028
p364
aVLANG-1027
p365
aVLANG-1026
p366
aVLANG-1025
p367
aVLANG-1024
p368
aVLANG-1023
p369
aVLANG-1021
p370
aVLANG-1020
p371
aVLANG-1019
p372
aVLANG-1018
p373
aVLANG-1017
p374
aVLANG-1016
p375
aVLANG-1015
p376
aVLANG-1014
p377
aVLANG-1013
p378
aVLANG-1012
p379
aVLANG-1011
p380
aVLANG-1010
p381
aVLANG-1009
p382
aVLANG-1008
p383
aVLANG-1007
p384
aVLANG-1006
p385
aVLANG-1005
p386
aVLANG-1004
p387
aVLANG-1003
p388
aVLANG-1002
p389
aVLANG-1001
p390
aVLANG-1000
p391
aVLANG-999
p392
aVLANG-998
p393
aVLANG-997
p394
aVLANG-996
p395
aVLANG-995
p396
aVLANG-994
p397
aVLANG-993
p398
aVLANG-992
p399
aVLANG-991
p400
aVLANG-990
p401
aVLANG-989
p402
aVLANG-988
p403
aVLANG-987
p404
aVLANG-986
p405
aVLANG-985
p406
aVLANG-984
p407
aVLANG-983
p408
aVLANG-982
p409
aVLANG-981
p410
aVLANG-980
p411
aVLANG-979
p412
aVLANG-978
p413
aVLANG-977
p414
aVLANG-976
p415
aVLANG-975
p416
aVLANG-974
p417
aVLANG-973
p418
aVLANG-972
p419
aVLANG-971
p420
aVLANG-970
p421
aVLANG-969
p422
aVLANG-968
p423
aVLANG-967
p424
aVLANG-966
p425
aVLANG-965
p426
aVLANG-964
p427
aVLANG-963
p428
aVLANG-962
p429
aVLANG-961
p430
aVLANG-959
p431
aVLANG-958
p432
aVLANG-957
p433
aVLANG-956
p434
aVLANG-955
p435
aVLANG-954
p436
aVLANG-953
p437
aVLANG-952
p438
aVLANG-951
p439
aVLANG-950
p440
aVLANG-949
p441
aVLANG-948
p442
aVLANG-946
p443
aVLANG-945
p444
aVLANG-944
p445
aVLANG-943
p446
aVLANG-942
p447
aVLANG-941
p448
aVLANG-940
p449
aVLANG-939
p450
aVLANG-938
p451
aVLANG-937
p452
aVLANG-936
p453
aVLANG-935
p454
aVLANG-934
p455
aVLANG-933
p456
aVLANG-932
p457
aVLANG-931
p458
aVLANG-930
p459
aVLANG-929
p460
aVLANG-928
p461
aVLANG-927
p462
aVLANG-926
p463
aVLANG-925
p464
aVLANG-924
p465
aVLANG-923
p466
aVLANG-922
p467
aVLANG-921
p468
aVLANG-920
p469
aVLANG-919
p470
aVLANG-918
p471
aVLANG-917
p472
aVLANG-916
p473
aVLANG-915
p474
aVLANG-913
p475
aVLANG-911
p476
aVLANG-910
p477
aVLANG-909
p478
aVLANG-908
p479
aVLANG-907
p480
aVLANG-906
p481
aVLANG-905
p482
aVLANG-904
p483
aVLANG-903
p484
aVLANG-902
p485
aVLANG-901
p486
aVLANG-900
p487
aVLANG-899
p488
aVLANG-898
p489
aVLANG-896
p490
aVLANG-895
p491
aVLANG-894
p492
aVLANG-893
p493
aVLANG-892
p494
aVLANG-891
p495
aVLANG-890
p496
aVLANG-889
p497
aVLANG-888
p498
aVLANG-887
p499
aVLANG-886
p500
aVLANG-885
p501
aVLANG-884
p502
aVLANG-883
p503
aVLANG-882
p504
aVLANG-881
p505
aVLANG-880
p506
aVLANG-879
p507
aVLANG-878
p508
aVLANG-877
p509
aVLANG-876
p510
aVLANG-875
p511
aVLANG-874
p512
aVLANG-873
p513
aVLANG-872
p514
aVLANG-870
p515
aVLANG-869
p516
aVLANG-868
p517
aVLANG-866
p518
aVLANG-865
p519
aVLANG-863
p520
aVLANG-862
p521
aVLANG-861
p522
aVLANG-859
p523
aVLANG-858
p524
aVLANG-857
p525
aVLANG-856
p526
aVLANG-855
p527
aVLANG-854
p528
aVLANG-853
p529
aVLANG-852
p530
aVLANG-851
p531
aVLANG-850
p532
aVLANG-849
p533
aVLANG-848
p534
aVLANG-847
p535
aVLANG-846
p536
aVLANG-845
p537
aVLANG-844
p538
aVLANG-843
p539
aVLANG-842
p540
aVLANG-841
p541
aVLANG-840
p542
aVLANG-839
p543
aVLANG-838
p544
aVLANG-837
p545
aVLANG-836
p546
aVLANG-835
p547
aVLANG-834
p548
aVLANG-833
p549
aVLANG-832
p550
aVLANG-831
p551
aVLANG-830
p552
aVLANG-829
p553
aVLANG-828
p554
aVLANG-827
p555
aVLANG-826
p556
aVLANG-825
p557
aVLANG-824
p558
aVLANG-823
p559
aVLANG-822
p560
aVLANG-821
p561
aVLANG-820
p562
aVLANG-819
p563
aVLANG-818
p564
aVLANG-817
p565
aVLANG-816
p566
aVLANG-815
p567
aVLANG-814
p568
aVLANG-813
p569
aVLANG-812
p570
aVLANG-811
p571
aVLANG-810
p572
aVLANG-809
p573
aVLANG-808
p574
aVLANG-807
p575
aVLANG-806
p576
aVLANG-805
p577
aVLANG-804
p578
aVLANG-803
p579
aVLANG-802
p580
aVLANG-801
p581
aVLANG-800
p582
aVLANG-799
p583
aVLANG-798
p584
aVLANG-797
p585
aVLANG-796
p586
aVLANG-795
p587
aVLANG-794
p588
aVLANG-793
p589
aVLANG-792
p590
aVLANG-791
p591
aVLANG-790
p592
aVLANG-789
p593
aVLANG-788
p594
aVLANG-787
p595
aVLANG-786
p596
aVLANG-785
p597
aVLANG-784
p598
aVLANG-783
p599
aVLANG-782
p600
aVLANG-781
p601
aVLANG-780
p602
aVLANG-779
p603
aVLANG-778
p604
aVLANG-777
p605
aVLANG-776
p606
aVLANG-775
p607
aVLANG-774
p608
aVLANG-773
p609
aVLANG-772
p610
aVLANG-771
p611
aVLANG-770
p612
aVLANG-769
p613
aVLANG-768
p614
aVLANG-767
p615
aVLANG-765
p616
aVLANG-764
p617
aVLANG-763
p618
aVLANG-762
p619
aVLANG-761
p620
aVLANG-760
p621
aVLANG-759
p622
aVLANG-758
p623
aVLANG-756
p624
aVLANG-755
p625
aVLANG-754
p626
aVLANG-753
p627
aVLANG-752
p628
aVLANG-751
p629
aVLANG-750
p630
aVLANG-749
p631
aVLANG-748
p632
aVLANG-747
p633
aVLANG-746
p634
aVLANG-744
p635
aVLANG-743
p636
aVLANG-742
p637
aVLANG-741
p638
aVLANG-740
p639
aVLANG-739
p640
aVLANG-738
p641
aVLANG-737
p642
aVLANG-736
p643
aVLANG-735
p644
aVLANG-734
p645
aVLANG-733
p646
aVLANG-732
p647
aVLANG-731
p648
aVLANG-730
p649
aVLANG-729
p650
aVLANG-728
p651
aVLANG-727
p652
aVLANG-726
p653
aVLANG-725
p654
aVLANG-724
p655
aVLANG-723
p656
aVLANG-722
p657
aVLANG-721
p658
aVLANG-720
p659
aVLANG-719
p660
aVLANG-718
p661
aVLANG-717
p662
aVLANG-716
p663
aVLANG-715
p664
aVLANG-714
p665
aVLANG-713
p666
aVLANG-712
p667
aVLANG-711
p668
aVLANG-710
p669
aVLANG-709
p670
aVLANG-708
p671
aVLANG-707
p672
aVLANG-706
p673
aVLANG-705
p674
aVLANG-704
p675
aVLANG-703
p676
aVLANG-701
p677
aVLANG-700
p678
aVLANG-699
p679
aVLANG-698
p680
aVLANG-697
p681
aVLANG-696
p682
aVLANG-695
p683
aVLANG-694
p684
aVLANG-693
p685
aVLANG-692
p686
aVLANG-691
p687
aVLANG-690
p688
aVLANG-689
p689
aVLANG-688
p690
aVLANG-687
p691
aVLANG-686
p692
aVLANG-685
p693
aVLANG-684
p694
aVLANG-683
p695
aVLANG-682
p696
aVLANG-681
p697
aVLANG-679
p698
aVLANG-678
p699
aVLANG-677
p700
aVLANG-676
p701
aVLANG-675
p702
aVLANG-674
p703
aVLANG-673
p704
aVLANG-672
p705
aVLANG-671
p706
aVLANG-670
p707
aVLANG-669
p708
aVLANG-668
p709
aVLANG-667
p710
aVLANG-666
p711
aVLANG-665
p712
aVLANG-664
p713
aVLANG-663
p714
aVLANG-662
p715
aVLANG-661
p716
aVLANG-660
p717
aVLANG-659
p718
aVLANG-658
p719
aVLANG-657
p720
aVLANG-656
p721
aVLANG-655
p722
aVLANG-654
p723
aVLANG-653
p724
aVLANG-652
p725
aVLANG-651
p726
aVLANG-650
p727
aVLANG-649
p728
aVLANG-648
p729
aVLANG-647
p730
aVLANG-646
p731
aVLANG-645
p732
aVLANG-644
p733
aVLANG-643
p734
aVLANG-642
p735
aVLANG-641
p736
aVLANG-640
p737
aVLANG-639
p738
aVLANG-638
p739
aVLANG-637
p740
aVLANG-636
p741
aVLANG-635
p742
aVLANG-634
p743
aVLANG-633
p744
aVLANG-632
p745
aVLANG-631
p746
aVLANG-630
p747
aVLANG-629
p748
aVLANG-628
p749
aVLANG-627
p750
aVLANG-626
p751
aVLANG-625
p752
aVLANG-624
p753
aVLANG-623
p754
aVLANG-622
p755
aVLANG-621
p756
aVLANG-620
p757
aVLANG-619
p758
aVLANG-618
p759
aVLANG-617
p760
aVLANG-616
p761
aVLANG-615
p762
aVLANG-614
p763
aVLANG-613
p764
aVLANG-612
p765
aVLANG-611
p766
aVLANG-610
p767
aVLANG-609
p768
aVLANG-608
p769
aVLANG-607
p770
aVLANG-606
p771
aVLANG-605
p772
aVLANG-604
p773
aVLANG-603
p774
aVLANG-602
p775
aVLANG-601
p776
aVLANG-600
p777
aVLANG-599
p778
aVLANG-598
p779
aVLANG-597
p780
aVLANG-596
p781
aVLANG-595
p782
aVLANG-594
p783
aVLANG-593
p784
aVLANG-592
p785
aVLANG-591
p786
aVLANG-590
p787
aVLANG-589
p788
aVLANG-588
p789
aVLANG-587
p790
aVLANG-586
p791
aVLANG-585
p792
aVLANG-584
p793
aVLANG-583
p794
aVLANG-582
p795
aVLANG-581
p796
aVLANG-580
p797
aVLANG-579
p798
aVLANG-578
p799
aVLANG-577
p800
aVLANG-576
p801
aVLANG-575
p802
aVLANG-574
p803
aVLANG-573
p804
aVLANG-571
p805
aVLANG-570
p806
aVLANG-569
p807
aVLANG-568
p808
aVLANG-567
p809
aVLANG-566
p810
aVLANG-565
p811
aVLANG-564
p812
aVLANG-563
p813
aVLANG-562
p814
aVLANG-561
p815
aVLANG-560
p816
aVLANG-559
p817
aVLANG-558
p818
aVLANG-557
p819
aVLANG-556
p820
aVLANG-555
p821
aVLANG-554
p822
aVLANG-553
p823
aVLANG-552
p824
aVLANG-551
p825
aVLANG-550
p826
aVLANG-549
p827
aVLANG-548
p828
aVLANG-547
p829
aVLANG-546
p830
aVLANG-545
p831
aVLANG-544
p832
aVLANG-543
p833
aVLANG-542
p834
aVLANG-541
p835
aVLANG-540
p836
aVLANG-539
p837
aVLANG-538
p838
aVLANG-537
p839
aVLANG-536
p840
aVLANG-535
p841
aVLANG-534
p842
aVLANG-533
p843
aVLANG-532
p844
aVLANG-531
p845
aVLANG-530
p846
aVLANG-529
p847
aVLANG-528
p848
aVLANG-527
p849
aVLANG-526
p850
aVLANG-525
p851
aVLANG-524
p852
aVLANG-523
p853
aVLANG-522
p854
aVLANG-521
p855
aVLANG-520
p856
aVLANG-519
p857
aVLANG-518
p858
aVLANG-517
p859
aVLANG-516
p860
aVLANG-515
p861
aVLANG-514
p862
aVLANG-513
p863
aVLANG-512
p864
aVLANG-511
p865
aVLANG-510
p866
aVLANG-509
p867
aVLANG-508
p868
aVLANG-507
p869
aVLANG-506
p870
aVLANG-505
p871
aVLANG-504
p872
aVLANG-503
p873
aVLANG-502
p874
aVLANG-501
p875
aVLANG-500
p876
aVLANG-499
p877
aVLANG-498
p878
aVLANG-497
p879
aVLANG-496
p880
aVLANG-495
p881
aVLANG-494
p882
aVLANG-493
p883
aVLANG-492
p884
aVLANG-491
p885
aVLANG-490
p886
aVLANG-489
p887
aVLANG-488
p888
aVLANG-487
p889
aVLANG-486
p890
aVLANG-485
p891
aVLANG-484
p892
aVLANG-483
p893
aVLANG-482
p894
aVLANG-481
p895
aVLANG-480
p896
aVLANG-479
p897
aVLANG-478
p898
aVLANG-477
p899
aVLANG-476
p900
aVLANG-475
p901
aVLANG-474
p902
aVLANG-473
p903
aVLANG-472
p904
aVLANG-471
p905
aVLANG-470
p906
aVLANG-469
p907
aVLANG-468
p908
aVLANG-467
p909
aVLANG-466
p910
aVLANG-465
p911
aVLANG-464
p912
aVLANG-463
p913
aVLANG-462
p914
aVLANG-461
p915
aVLANG-460
p916
aVLANG-459
p917
aVLANG-458
p918
aVLANG-457
p919
aVLANG-456
p920
aVLANG-455
p921
aVLANG-454
p922
aVLANG-453
p923
aVLANG-452
p924
aVLANG-451
p925
aVLANG-450
p926
aVLANG-449
p927
aVLANG-448
p928
aVLANG-447
p929
aVLANG-446
p930
aVLANG-445
p931
aVLANG-444
p932
aVLANG-443
p933
aVLANG-442
p934
aVLANG-441
p935
aVLANG-440
p936
aVLANG-439
p937
aVLANG-438
p938
aVLANG-437
p939
aVLANG-436
p940
aVLANG-435
p941
aVLANG-434
p942
aVLANG-433
p943
aVLANG-432
p944
aVLANG-431
p945
aVLANG-430
p946
aVLANG-429
p947
aVLANG-428
p948
aVLANG-427
p949
aVLANG-426
p950
aVLANG-425
p951
aVLANG-424
p952
aVLANG-423
p953
aVLANG-422
p954
aVLANG-421
p955
aVLANG-420
p956
aVLANG-419
p957
aVLANG-418
p958
aVLANG-417
p959
aVLANG-416
p960
aVLANG-415
p961
aVLANG-414
p962
aVLANG-413
p963
aVLANG-412
p964
aVLANG-411
p965
aVLANG-410
p966
aVLANG-408
p967
aVLANG-407
p968
aVLANG-406
p969
aVLANG-405
p970
aVLANG-404
p971
aVLANG-403
p972
aVLANG-402
p973
aVLANG-401
p974
aVLANG-400
p975
aVLANG-399
p976
aVLANG-398
p977
aVLANG-397
p978
aVLANG-396
p979
aVLANG-395
p980
aVLANG-394
p981
aVLANG-393
p982
aVLANG-392
p983
aVLANG-391
p984
aVLANG-390
p985
aVLANG-389
p986
aVLANG-388
p987
aVLANG-387
p988
aVLANG-386
p989
aVLANG-385
p990
aVLANG-384
p991
aVLANG-383
p992
aVLANG-382
p993
aVLANG-381
p994
aVLANG-380
p995
aVLANG-379
p996
aVLANG-378
p997
aVLANG-377
p998
aVLANG-376
p999
aVLANG-375
p1000
aVLANG-374
p1001
aVLANG-373
p1002
aVLANG-372
p1003
aVLANG-371
p1004
aVLANG-370
p1005
aVLANG-369
p1006
aVLANG-368
p1007
aVLANG-367
p1008
aVLANG-366
p1009
aVLANG-365
p1010
aVLANG-364
p1011
aVLANG-363
p1012
aVLANG-362
p1013
aVLANG-361
p1014
aVLANG-360
p1015
aVLANG-359
p1016
aVLANG-358
p1017
aVLANG-357
p1018
aVLANG-356
p1019
aVLANG-355
p1020
aVLANG-354
p1021
aVLANG-353
p1022
aVLANG-352
p1023
aVLANG-351
p1024
aVLANG-350
p1025
aVLANG-349
p1026
aVLANG-348
p1027
aVLANG-347
p1028
aVLANG-346
p1029
aVLANG-345
p1030
aVLANG-344
p1031
aVLANG-343
p1032
aVLANG-342
p1033
aVLANG-341
p1034
aVLANG-340
p1035
aVLANG-339
p1036
aVLANG-338
p1037
aVLANG-337
p1038
aVLANG-336
p1039
aVLANG-335
p1040
aVLANG-334
p1041
aVLANG-333
p1042
aVLANG-332
p1043
aVLANG-331
p1044
aVLANG-330
p1045
aVLANG-329
p1046
aVLANG-328
p1047
aVLANG-327
p1048
aVLANG-326
p1049
aVLANG-325
p1050
aVLANG-324
p1051
aVLANG-323
p1052
aVLANG-322
p1053
aVLANG-321
p1054
aVLANG-320
p1055
aVLANG-319
p1056
aVLANG-318
p1057
aVLANG-317
p1058
aVLANG-316
p1059
aVLANG-315
p1060
aVLANG-314
p1061
aVLANG-313
p1062
aVLANG-312
p1063
aVLANG-310
p1064
aVLANG-309
p1065
aVLANG-308
p1066
aVLANG-307
p1067
aVLANG-306
p1068
aVLANG-305
p1069
aVLANG-304
p1070
aVLANG-303
p1071
aVLANG-302
p1072
aVLANG-301
p1073
aVLANG-300
p1074
aVLANG-299
p1075
aVLANG-298
p1076
aVLANG-297
p1077
aVLANG-296
p1078
aVLANG-295
p1079
aVLANG-294
p1080
aVLANG-293
p1081
aVLANG-292
p1082
aVLANG-291
p1083
aVLANG-290
p1084
aVLANG-289
p1085
aVLANG-287
p1086
aVLANG-286
p1087
aVLANG-285
p1088
aVLANG-283
p1089
aVLANG-282
p1090
aVLANG-281
p1091
aVLANG-280
p1092
aVLANG-279
p1093
aVLANG-278
p1094
aVLANG-277
p1095
aVLANG-276
p1096
aVLANG-275
p1097
aVLANG-274
p1098
aVLANG-273
p1099
aVLANG-272
p1100
aVLANG-271
p1101
aVLANG-270
p1102
aVLANG-269
p1103
aVLANG-268
p1104
aVLANG-267
p1105
aVLANG-266
p1106
aVLANG-265
p1107
aVLANG-264
p1108
aVLANG-263
p1109
aVLANG-262
p1110
aVLANG-261
p1111
aVLANG-260
p1112
aVLANG-259
p1113
aVLANG-258
p1114
aVLANG-257
p1115
aVLANG-256
p1116
aVLANG-255
p1117
aVLANG-254
p1118
aVLANG-253
p1119
aVLANG-252
p1120
aVLANG-251
p1121
aVLANG-250
p1122
aVLANG-249
p1123
aVLANG-248
p1124
aVLANG-247
p1125
aVLANG-246
p1126
aVLANG-245
p1127
aVLANG-244
p1128
aVLANG-243
p1129
aVLANG-242
p1130
aVLANG-241
p1131
aVLANG-240
p1132
aVLANG-239
p1133
aVLANG-238
p1134
aVLANG-237
p1135
aVLANG-236
p1136
aVLANG-235
p1137
aVLANG-234
p1138
aVLANG-233
p1139
aVLANG-232
p1140
aVLANG-231
p1141
aVLANG-230
p1142
aVLANG-229
p1143
aVLANG-228
p1144
aVLANG-227
p1145
aVLANG-226
p1146
aVLANG-225
p1147
aVLANG-224
p1148
aVLANG-223
p1149
aVLANG-222
p1150
aVLANG-221
p1151
aVLANG-220
p1152
aVLANG-219
p1153
aVLANG-218
p1154
aVLANG-217
p1155
aVLANG-216
p1156
aVLANG-215
p1157
aVLANG-214
p1158
aVLANG-213
p1159
aVLANG-212
p1160
aVLANG-211
p1161
aVLANG-210
p1162
aVLANG-209
p1163
aVLANG-208
p1164
aVLANG-207
p1165
aVLANG-206
p1166
aVLANG-205
p1167
aVLANG-204
p1168
aVLANG-203
p1169
aVLANG-202
p1170
aVLANG-201
p1171
aVLANG-200
p1172
aVLANG-199
p1173
aVLANG-198
p1174
aVLANG-197
p1175
aVLANG-196
p1176
aVLANG-195
p1177
aVLANG-194
p1178
aVLANG-193
p1179
aVLANG-192
p1180
aVLANG-191
p1181
aVLANG-190
p1182
aVLANG-189
p1183
aVLANG-188
p1184
aVLANG-187
p1185
aVLANG-186
p1186
aVLANG-185
p1187
aVLANG-184
p1188
aVLANG-183
p1189
aVLANG-182
p1190
aVLANG-181
p1191
aVLANG-180
p1192
aVLANG-179
p1193
aVLANG-178
p1194
aVLANG-177
p1195
aVLANG-176
p1196
aVLANG-175
p1197
aVLANG-174
p1198
aVLANG-173
p1199
aVLANG-172
p1200
aVLANG-171
p1201
aVLANG-170
p1202
aVLANG-169
p1203
aVLANG-168
p1204
aVLANG-167
p1205
aVLANG-166
p1206
aVLANG-165
p1207
aVLANG-164
p1208
aVLANG-163
p1209
aVLANG-162
p1210
aVLANG-161
p1211
aVLANG-160
p1212
aVLANG-159
p1213
aVLANG-158
p1214
aVLANG-157
p1215
aVLANG-156
p1216
aVLANG-155
p1217
aVLANG-154
p1218
aVLANG-153
p1219
aVLANG-152
p1220
aVLANG-151
p1221
aVLANG-150
p1222
aVLANG-149
p1223
aVLANG-148
p1224
aVLANG-147
p1225
aVLANG-146
p1226
aVLANG-145
p1227
aVLANG-144
p1228
aVLANG-143
p1229
aVLANG-142
p1230
aVLANG-141
p1231
aVLANG-140
p1232
aVLANG-139
p1233
aVLANG-138
p1234
aVLANG-137
p1235
aVLANG-136
p1236
aVLANG-135
p1237
aVLANG-134
p1238
aVLANG-133
p1239
aVLANG-132
p1240
aVLANG-131
p1241
aVLANG-130
p1242
aVLANG-129
p1243
aVLANG-128
p1244
aVLANG-127
p1245
aVLANG-126
p1246
aVLANG-125
p1247
aVLANG-124
p1248
aVLANG-123
p1249
aVLANG-122
p1250
aVLANG-121
p1251
aVLANG-120
p1252
aVLANG-119
p1253
aVLANG-118
p1254
aVLANG-117
p1255
aVLANG-116
p1256
aVLANG-115
p1257
aVLANG-114
p1258
aVLANG-113
p1259
aVLANG-112
p1260
aVLANG-111
p1261
aVLANG-110
p1262
aVLANG-109
p1263
aVLANG-108
p1264
aVLANG-107
p1265
aVLANG-106
p1266
aVLANG-105
p1267
aVLANG-104
p1268
aVLANG-103
p1269
aVLANG-102
p1270
aVLANG-101
p1271
aVLANG-100
p1272
aVLANG-99
p1273
aVLANG-98
p1274
aVLANG-97
p1275
aVLANG-96
p1276
aVLANG-95
p1277
aVLANG-94
p1278
aVLANG-93
p1279
aVLANG-92
p1280
aVLANG-91
p1281
aVLANG-90
p1282
aVLANG-89
p1283
aVLANG-88
p1284
aVLANG-87
p1285
aVLANG-86
p1286
aVLANG-85
p1287
aVLANG-84
p1288
aVLANG-83
p1289
aVLANG-82
p1290
aVLANG-81
p1291
aVLANG-80
p1292
aVLANG-79
p1293
aVLANG-78
p1294
aVLANG-77
p1295
aVLANG-76
p1296
aVLANG-75
p1297
aVLANG-74
p1298
aVLANG-73
p1299
aVLANG-72
p1300
aVLANG-71
p1301
aVLANG-70
p1302
aVLANG-69
p1303
aVLANG-68
p1304
aVLANG-67
p1305
aVLANG-66
p1306
aVLANG-65
p1307
aVLANG-64
p1308
aVLANG-63
p1309
aVLANG-62
p1310
aVLANG-61
p1311
aVLANG-60
p1312
aVLANG-59
p1313
aVLANG-58
p1314
aVLANG-57
p1315
aVLANG-56
p1316
aVLANG-55
p1317
aVLANG-54
p1318
aVLANG-53
p1319
aVLANG-52
p1320
aVLANG-51
p1321
aVLANG-50
p1322
aVLANG-49
p1323
aVLANG-48
p1324
aVLANG-47
p1325
aVLANG-46
p1326
aVLANG-45
p1327
aVLANG-44
p1328
aVLANG-43
p1329
aVLANG-42
p1330
aVLANG-41
p1331
aVLANG-40
p1332
aVLANG-39
p1333
aVLANG-38
p1334
aVLANG-37
p1335
aVLANG-36
p1336
aVLANG-35
p1337
aVLANG-34
p1338
aVLANG-33
p1339
aVLANG-32
p1340
aVLANG-31
p1341
aVLANG-30
p1342
aVLANG-29
p1343
aVLANG-28
p1344
aVLANG-27
p1345
aVLANG-26
p1346
aVLANG-25
p1347
aVLANG-24
p1348
aVLANG-23
p1349
aVLANG-22
p1350
aVLANG-21
p1351
aVLANG-20
p1352
aVLANG-19
p1353
aVLANG-18
p1354
aVLANG-17
p1355
aVLANG-16
p1356
aVLANG-15
p1357
aVLANG-14
p1358
aVLANG-13
p1359
aVLANG-12
p1360
aVLANG-11
p1361
aVLANG-10
p1362
aVLANG-9
p1363
aVLANG-8
p1364
aVLANG-7
p1365
aVLANG-6
p1366
aVLANG-5
p1367
aVLANG-4
p1368
aVLANG-3
p1369
aVLANG-2
p1370
aVLANG-1
p1371
a.