(lp0
VLENS-1524
p1
aVLENS-1523
p2
aVLENS-1522
p3
aVLENS-1521
p4
aVLENS-1520
p5
aVLENS-1519
p6
aVLENS-1518
p7
aVLENS-1517
p8
aVLENS-1516
p9
aVLENS-1515
p10
aVLENS-1514
p11
aVLENS-1513
p12
aVLENS-1512
p13
aVLENS-1511
p14
aVLENS-1510
p15
aVLENS-1509
p16
aVLENS-1508
p17
aVLENS-1507
p18
aVLENS-1506
p19
aVLENS-1505
p20
aVLENS-1504
p21
aVLENS-1503
p22
aVLENS-1502
p23
aVLENS-1501
p24
aVLENS-1500
p25
aVLENS-1499
p26
aVLENS-1498
p27
aVLENS-1497
p28
aVLENS-1496
p29
aVLENS-1495
p30
aVLENS-1494
p31
aVLENS-1493
p32
aVLENS-1492
p33
aVLENS-1491
p34
aVLENS-1490
p35
aVLENS-1489
p36
aVLENS-1488
p37
aVLENS-1487
p38
aVLENS-1486
p39
aVLENS-1485
p40
aVLENS-1484
p41
aVLENS-1483
p42
aVLENS-1482
p43
aVLENS-1481
p44
aVLENS-1480
p45
aVLENS-1479
p46
aVLENS-1478
p47
aVLENS-1477
p48
aVLENS-1476
p49
aVLENS-1475
p50
aVLENS-1474
p51
aVLENS-1473
p52
aVLENS-1472
p53
aVLENS-1471
p54
aVLENS-1470
p55
aVLENS-1469
p56
aVLENS-1468
p57
aVLENS-1467
p58
aVLENS-1466
p59
aVLENS-1465
p60
aVLENS-1464
p61
aVLENS-1463
p62
aVLENS-1462
p63
aVLENS-1461
p64
aVLENS-1460
p65
aVLENS-1459
p66
aVLENS-1458
p67
aVLENS-1457
p68
aVLENS-1456
p69
aVLENS-1455
p70
aVLENS-1454
p71
aVLENS-1453
p72
aVLENS-1452
p73
aVLENS-1451
p74
aVLENS-1450
p75
aVLENS-1449
p76
aVLENS-1448
p77
aVLENS-1447
p78
aVLENS-1446
p79
aVLENS-1445
p80
aVLENS-1444
p81
aVLENS-1443
p82
aVLENS-1442
p83
aVLENS-1441
p84
aVLENS-1440
p85
aVLENS-1439
p86
aVLENS-1438
p87
aVLENS-1437
p88
aVLENS-1436
p89
aVLENS-1435
p90
aVLENS-1434
p91
aVLENS-1433
p92
aVLENS-1432
p93
aVLENS-1431
p94
aVLENS-1430
p95
aVLENS-1429
p96
aVLENS-1428
p97
aVLENS-1427
p98
aVLENS-1426
p99
aVLENS-1425
p100
aVLENS-1424
p101
aVLENS-1423
p102
aVLENS-1422
p103
aVLENS-1421
p104
aVLENS-1420
p105
aVLENS-1419
p106
aVLENS-1418
p107
aVLENS-1417
p108
aVLENS-1416
p109
aVLENS-1415
p110
aVLENS-1414
p111
aVLENS-1413
p112
aVLENS-1412
p113
aVLENS-1411
p114
aVLENS-1410
p115
aVLENS-1409
p116
aVLENS-1408
p117
aVLENS-1407
p118
aVLENS-1406
p119
aVLENS-1405
p120
aVLENS-1404
p121
aVLENS-1403
p122
aVLENS-1402
p123
aVLENS-1401
p124
aVLENS-1400
p125
aVLENS-1399
p126
aVLENS-1398
p127
aVLENS-1397
p128
aVLENS-1396
p129
aVLENS-1395
p130
aVLENS-1394
p131
aVLENS-1393
p132
aVLENS-1392
p133
aVLENS-1391
p134
aVLENS-1390
p135
aVLENS-1389
p136
aVLENS-1388
p137
aVLENS-1387
p138
aVLENS-1386
p139
aVLENS-1385
p140
aVLENS-1384
p141
aVLENS-1383
p142
aVLENS-1382
p143
aVLENS-1381
p144
aVLENS-1380
p145
aVLENS-1379
p146
aVLENS-1378
p147
aVLENS-1377
p148
aVLENS-1376
p149
aVLENS-1375
p150
aVLENS-1374
p151
aVLENS-1373
p152
aVLENS-1372
p153
aVLENS-1371
p154
aVLENS-1370
p155
aVLENS-1369
p156
aVLENS-1368
p157
aVLENS-1367
p158
aVLENS-1366
p159
aVLENS-1365
p160
aVLENS-1364
p161
aVLENS-1363
p162
aVLENS-1362
p163
aVLENS-1361
p164
aVLENS-1360
p165
aVLENS-1359
p166
aVLENS-1358
p167
aVLENS-1357
p168
aVLENS-1356
p169
aVLENS-1355
p170
aVLENS-1354
p171
aVLENS-1353
p172
aVLENS-1352
p173
aVLENS-1351
p174
aVLENS-1350
p175
aVLENS-1349
p176
aVLENS-1348
p177
aVLENS-1347
p178
aVLENS-1346
p179
aVLENS-1345
p180
aVLENS-1344
p181
aVLENS-1343
p182
aVLENS-1342
p183
aVLENS-1341
p184
aVLENS-1340
p185
aVLENS-1339
p186
aVLENS-1338
p187
aVLENS-1337
p188
aVLENS-1336
p189
aVLENS-1335
p190
aVLENS-1334
p191
aVLENS-1333
p192
aVLENS-1332
p193
aVLENS-1331
p194
aVLENS-1330
p195
aVLENS-1329
p196
aVLENS-1328
p197
aVLENS-1327
p198
aVLENS-1326
p199
aVLENS-1325
p200
aVLENS-1324
p201
aVLENS-1323
p202
aVLENS-1322
p203
aVLENS-1321
p204
aVLENS-1320
p205
aVLENS-1319
p206
aVLENS-1318
p207
aVLENS-1317
p208
aVLENS-1316
p209
aVLENS-1315
p210
aVLENS-1314
p211
aVLENS-1313
p212
aVLENS-1312
p213
aVLENS-1311
p214
aVLENS-1310
p215
aVLENS-1309
p216
aVLENS-1308
p217
aVLENS-1307
p218
aVLENS-1306
p219
aVLENS-1305
p220
aVLENS-1304
p221
aVLENS-1303
p222
aVLENS-1302
p223
aVLENS-1301
p224
aVLENS-1300
p225
aVLENS-1299
p226
aVLENS-1298
p227
aVLENS-1297
p228
aVLENS-1296
p229
aVLENS-1295
p230
aVLENS-1294
p231
aVLENS-1293
p232
aVLENS-1292
p233
aVLENS-1291
p234
aVLENS-1290
p235
aVLENS-1289
p236
aVLENS-1288
p237
aVLENS-1287
p238
aVLENS-1286
p239
aVLENS-1285
p240
aVLENS-1284
p241
aVLENS-1283
p242
aVLENS-1282
p243
aVLENS-1281
p244
aVLENS-1280
p245
aVLENS-1279
p246
aVLENS-1278
p247
aVLENS-1277
p248
aVLENS-1276
p249
aVLENS-1275
p250
aVLENS-1274
p251
aVLENS-1273
p252
aVLENS-1272
p253
aVLENS-1271
p254
aVLENS-1270
p255
aVLENS-1269
p256
aVLENS-1268
p257
aVLENS-1267
p258
aVLENS-1266
p259
aVLENS-1265
p260
aVLENS-1264
p261
aVLENS-1263
p262
aVLENS-1262
p263
aVLENS-1261
p264
aVLENS-1260
p265
aVLENS-1259
p266
aVLENS-1258
p267
aVLENS-1257
p268
aVLENS-1256
p269
aVLENS-1255
p270
aVLENS-1254
p271
aVLENS-1253
p272
aVLENS-1252
p273
aVLENS-1251
p274
aVLENS-1250
p275
aVLENS-1249
p276
aVLENS-1248
p277
aVLENS-1247
p278
aVLENS-1246
p279
aVLENS-1245
p280
aVLENS-1244
p281
aVLENS-1243
p282
aVLENS-1242
p283
aVLENS-1241
p284
aVLENS-1240
p285
aVLENS-1239
p286
aVLENS-1238
p287
aVLENS-1237
p288
aVLENS-1236
p289
aVLENS-1235
p290
aVLENS-1234
p291
aVLENS-1233
p292
aVLENS-1232
p293
aVLENS-1231
p294
aVLENS-1230
p295
aVLENS-1229
p296
aVLENS-1228
p297
aVLENS-1227
p298
aVLENS-1226
p299
aVLENS-1225
p300
aVLENS-1224
p301
aVLENS-1223
p302
aVLENS-1222
p303
aVLENS-1221
p304
aVLENS-1220
p305
aVLENS-1219
p306
aVLENS-1218
p307
aVLENS-1217
p308
aVLENS-1216
p309
aVLENS-1215
p310
aVLENS-1214
p311
aVLENS-1213
p312
aVLENS-1212
p313
aVLENS-1211
p314
aVLENS-1210
p315
aVLENS-1209
p316
aVLENS-1208
p317
aVLENS-1207
p318
aVLENS-1206
p319
aVLENS-1205
p320
aVLENS-1204
p321
aVLENS-1203
p322
aVLENS-1202
p323
aVLENS-1201
p324
aVLENS-1200
p325
aVLENS-1199
p326
aVLENS-1198
p327
aVLENS-1197
p328
aVLENS-1196
p329
aVLENS-1195
p330
aVLENS-1194
p331
aVLENS-1193
p332
aVLENS-1192
p333
aVLENS-1191
p334
aVLENS-1190
p335
aVLENS-1189
p336
aVLENS-1188
p337
aVLENS-1187
p338
aVLENS-1186
p339
aVLENS-1185
p340
aVLENS-1184
p341
aVLENS-1183
p342
aVLENS-1182
p343
aVLENS-1181
p344
aVLENS-1180
p345
aVLENS-1179
p346
aVLENS-1178
p347
aVLENS-1177
p348
aVLENS-1176
p349
aVLENS-1175
p350
aVLENS-1174
p351
aVLENS-1173
p352
aVLENS-1172
p353
aVLENS-1171
p354
aVLENS-1170
p355
aVLENS-1169
p356
aVLENS-1168
p357
aVLENS-1167
p358
aVLENS-1166
p359
aVLENS-1165
p360
aVLENS-1164
p361
aVLENS-1163
p362
aVLENS-1162
p363
aVLENS-1161
p364
aVLENS-1160
p365
aVLENS-1159
p366
aVLENS-1158
p367
aVLENS-1157
p368
aVLENS-1156
p369
aVLENS-1155
p370
aVLENS-1154
p371
aVLENS-1153
p372
aVLENS-1152
p373
aVLENS-1151
p374
aVLENS-1150
p375
aVLENS-1149
p376
aVLENS-1148
p377
aVLENS-1146
p378
aVLENS-1145
p379
aVLENS-1144
p380
aVLENS-1143
p381
aVLENS-1142
p382
aVLENS-1141
p383
aVLENS-1140
p384
aVLENS-1042
p385
aVLENS-1041
p386
aVLENS-1040
p387
aVLENS-1039
p388
aVLENS-1038
p389
aVLENS-1037
p390
aVLENS-1036
p391
aVLENS-1035
p392
aVLENS-1034
p393
aVLENS-1033
p394
aVLENS-1032
p395
aVLENS-1031
p396
aVLENS-1030
p397
aVLENS-1029
p398
aVLENS-1028
p399
aVLENS-1027
p400
aVLENS-1026
p401
aVLENS-1025
p402
aVLENS-1024
p403
aVLENS-1023
p404
aVLENS-1022
p405
aVLENS-1021
p406
aVLENS-1020
p407
aVLENS-1019
p408
aVLENS-1018
p409
aVLENS-1017
p410
aVLENS-1016
p411
aVLENS-1015
p412
aVLENS-1014
p413
aVLENS-1013
p414
aVLENS-1012
p415
aVLENS-1011
p416
aVLENS-1010
p417
aVLENS-1009
p418
aVLENS-1008
p419
aVLENS-1007
p420
aVLENS-1006
p421
aVLENS-1005
p422
aVLENS-1004
p423
aVLENS-1003
p424
aVLENS-1002
p425
aVLENS-1001
p426
aVLENS-1000
p427
aVLENS-999
p428
aVLENS-998
p429
aVLENS-997
p430
aVLENS-996
p431
aVLENS-995
p432
aVLENS-994
p433
aVLENS-993
p434
aVLENS-992
p435
aVLENS-991
p436
aVLENS-990
p437
aVLENS-989
p438
aVLENS-988
p439
aVLENS-987
p440
aVLENS-986
p441
aVLENS-985
p442
aVLENS-984
p443
aVLENS-983
p444
aVLENS-982
p445
aVLENS-981
p446
aVLENS-980
p447
aVLENS-979
p448
aVLENS-978
p449
aVLENS-977
p450
aVLENS-976
p451
aVLENS-975
p452
aVLENS-974
p453
aVLENS-973
p454
aVLENS-972
p455
aVLENS-971
p456
aVLENS-970
p457
aVLENS-969
p458
aVLENS-968
p459
aVLENS-967
p460
aVLENS-966
p461
aVLENS-965
p462
aVLENS-964
p463
aVLENS-963
p464
aVLENS-962
p465
aVLENS-961
p466
aVLENS-960
p467
aVLENS-959
p468
aVLENS-958
p469
aVLENS-957
p470
aVLENS-956
p471
aVLENS-955
p472
aVLENS-954
p473
aVLENS-953
p474
aVLENS-952
p475
aVLENS-951
p476
aVLENS-950
p477
aVLENS-949
p478
aVLENS-948
p479
aVLENS-947
p480
aVLENS-946
p481
aVLENS-945
p482
aVLENS-944
p483
aVLENS-943
p484
aVLENS-942
p485
aVLENS-941
p486
aVLENS-940
p487
aVLENS-939
p488
aVLENS-938
p489
aVLENS-937
p490
aVLENS-936
p491
aVLENS-935
p492
aVLENS-934
p493
aVLENS-933
p494
aVLENS-932
p495
aVLENS-931
p496
aVLENS-930
p497
aVLENS-929
p498
aVLENS-928
p499
aVLENS-927
p500
aVLENS-926
p501
aVLENS-925
p502
aVLENS-924
p503
aVLENS-923
p504
aVLENS-922
p505
aVLENS-921
p506
aVLENS-920
p507
aVLENS-919
p508
aVLENS-918
p509
aVLENS-917
p510
aVLENS-916
p511
aVLENS-915
p512
aVLENS-914
p513
aVLENS-913
p514
aVLENS-912
p515
aVLENS-911
p516
aVLENS-910
p517
aVLENS-909
p518
aVLENS-908
p519
aVLENS-907
p520
aVLENS-906
p521
aVLENS-905
p522
aVLENS-904
p523
aVLENS-903
p524
aVLENS-902
p525
aVLENS-901
p526
aVLENS-900
p527
aVLENS-899
p528
aVLENS-898
p529
aVLENS-897
p530
aVLENS-896
p531
aVLENS-895
p532
aVLENS-894
p533
aVLENS-893
p534
aVLENS-892
p535
aVLENS-891
p536
aVLENS-890
p537
aVLENS-889
p538
aVLENS-888
p539
aVLENS-887
p540
aVLENS-886
p541
aVLENS-885
p542
aVLENS-884
p543
aVLENS-883
p544
aVLENS-882
p545
aVLENS-881
p546
aVLENS-880
p547
aVLENS-879
p548
aVLENS-878
p549
aVLENS-877
p550
aVLENS-876
p551
aVLENS-875
p552
aVLENS-874
p553
aVLENS-873
p554
aVLENS-872
p555
aVLENS-871
p556
aVLENS-870
p557
aVLENS-869
p558
aVLENS-868
p559
aVLENS-867
p560
aVLENS-866
p561
aVLENS-865
p562
aVLENS-864
p563
aVLENS-863
p564
aVLENS-862
p565
aVLENS-861
p566
aVLENS-860
p567
aVLENS-859
p568
aVLENS-858
p569
aVLENS-857
p570
aVLENS-856
p571
aVLENS-855
p572
aVLENS-854
p573
aVLENS-853
p574
aVLENS-852
p575
aVLENS-851
p576
aVLENS-850
p577
aVLENS-849
p578
aVLENS-848
p579
aVLENS-847
p580
aVLENS-846
p581
aVLENS-845
p582
aVLENS-844
p583
aVLENS-843
p584
aVLENS-842
p585
aVLENS-841
p586
aVLENS-840
p587
aVLENS-839
p588
aVLENS-838
p589
aVLENS-837
p590
aVLENS-836
p591
aVLENS-835
p592
aVLENS-834
p593
aVLENS-833
p594
aVLENS-832
p595
aVLENS-831
p596
aVLENS-830
p597
aVLENS-829
p598
aVLENS-828
p599
aVLENS-827
p600
aVLENS-826
p601
aVLENS-825
p602
aVLENS-824
p603
aVLENS-823
p604
aVLENS-822
p605
aVLENS-821
p606
aVLENS-820
p607
aVLENS-819
p608
aVLENS-818
p609
aVLENS-817
p610
aVLENS-816
p611
aVLENS-815
p612
aVLENS-814
p613
aVLENS-813
p614
aVLENS-812
p615
aVLENS-811
p616
aVLENS-810
p617
aVLENS-809
p618
aVLENS-808
p619
aVLENS-807
p620
aVLENS-806
p621
aVLENS-805
p622
aVLENS-804
p623
aVLENS-803
p624
aVLENS-802
p625
aVLENS-801
p626
aVLENS-800
p627
aVLENS-799
p628
aVLENS-798
p629
aVLENS-797
p630
aVLENS-796
p631
aVLENS-795
p632
aVLENS-794
p633
aVLENS-793
p634
aVLENS-792
p635
aVLENS-791
p636
aVLENS-790
p637
aVLENS-789
p638
aVLENS-788
p639
aVLENS-787
p640
aVLENS-786
p641
aVLENS-785
p642
aVLENS-784
p643
aVLENS-783
p644
aVLENS-782
p645
aVLENS-781
p646
aVLENS-780
p647
aVLENS-779
p648
aVLENS-778
p649
aVLENS-777
p650
aVLENS-776
p651
aVLENS-775
p652
aVLENS-774
p653
aVLENS-773
p654
aVLENS-772
p655
aVLENS-771
p656
aVLENS-770
p657
aVLENS-769
p658
aVLENS-768
p659
aVLENS-767
p660
aVLENS-766
p661
aVLENS-765
p662
aVLENS-764
p663
aVLENS-763
p664
aVLENS-762
p665
aVLENS-761
p666
aVLENS-760
p667
aVLENS-759
p668
aVLENS-758
p669
aVLENS-757
p670
aVLENS-756
p671
aVLENS-755
p672
aVLENS-754
p673
aVLENS-753
p674
aVLENS-752
p675
aVLENS-751
p676
aVLENS-750
p677
aVLENS-749
p678
aVLENS-748
p679
aVLENS-747
p680
aVLENS-746
p681
aVLENS-745
p682
aVLENS-744
p683
aVLENS-743
p684
aVLENS-742
p685
aVLENS-741
p686
aVLENS-740
p687
aVLENS-739
p688
aVLENS-738
p689
aVLENS-737
p690
aVLENS-736
p691
aVLENS-735
p692
aVLENS-734
p693
aVLENS-733
p694
aVLENS-732
p695
aVLENS-731
p696
aVLENS-730
p697
aVLENS-729
p698
aVLENS-728
p699
aVLENS-727
p700
aVLENS-726
p701
aVLENS-725
p702
aVLENS-724
p703
aVLENS-723
p704
aVLENS-722
p705
aVLENS-721
p706
aVLENS-720
p707
aVLENS-719
p708
aVLENS-718
p709
aVLENS-717
p710
aVLENS-716
p711
aVLENS-715
p712
aVLENS-714
p713
aVLENS-713
p714
aVLENS-712
p715
aVLENS-711
p716
aVLENS-710
p717
aVLENS-709
p718
aVLENS-708
p719
aVLENS-707
p720
aVLENS-706
p721
aVLENS-705
p722
aVLENS-704
p723
aVLENS-703
p724
aVLENS-702
p725
aVLENS-701
p726
aVLENS-700
p727
aVLENS-699
p728
aVLENS-698
p729
aVLENS-697
p730
aVLENS-696
p731
aVLENS-695
p732
aVLENS-694
p733
aVLENS-693
p734
aVLENS-692
p735
aVLENS-691
p736
aVLENS-690
p737
aVLENS-689
p738
aVLENS-688
p739
aVLENS-687
p740
aVLENS-686
p741
aVLENS-685
p742
aVLENS-684
p743
aVLENS-683
p744
aVLENS-682
p745
aVLENS-681
p746
aVLENS-680
p747
aVLENS-679
p748
aVLENS-678
p749
aVLENS-677
p750
aVLENS-676
p751
aVLENS-675
p752
aVLENS-674
p753
aVLENS-673
p754
aVLENS-672
p755
aVLENS-671
p756
aVLENS-670
p757
aVLENS-669
p758
aVLENS-668
p759
aVLENS-667
p760
aVLENS-666
p761
aVLENS-665
p762
aVLENS-664
p763
aVLENS-663
p764
aVLENS-662
p765
aVLENS-661
p766
aVLENS-660
p767
aVLENS-659
p768
aVLENS-658
p769
aVLENS-657
p770
aVLENS-656
p771
aVLENS-655
p772
aVLENS-654
p773
aVLENS-653
p774
aVLENS-652
p775
aVLENS-651
p776
aVLENS-650
p777
aVLENS-649
p778
aVLENS-648
p779
aVLENS-647
p780
aVLENS-646
p781
aVLENS-645
p782
aVLENS-644
p783
aVLENS-643
p784
aVLENS-642
p785
aVLENS-641
p786
aVLENS-640
p787
aVLENS-639
p788
aVLENS-638
p789
aVLENS-637
p790
aVLENS-636
p791
aVLENS-635
p792
aVLENS-634
p793
aVLENS-633
p794
aVLENS-632
p795
aVLENS-631
p796
aVLENS-630
p797
aVLENS-629
p798
aVLENS-628
p799
aVLENS-627
p800
aVLENS-626
p801
aVLENS-625
p802
aVLENS-624
p803
aVLENS-623
p804
aVLENS-622
p805
aVLENS-621
p806
aVLENS-620
p807
aVLENS-619
p808
aVLENS-618
p809
aVLENS-617
p810
aVLENS-616
p811
aVLENS-615
p812
aVLENS-614
p813
aVLENS-613
p814
aVLENS-612
p815
aVLENS-611
p816
aVLENS-610
p817
aVLENS-609
p818
aVLENS-608
p819
aVLENS-607
p820
aVLENS-606
p821
aVLENS-605
p822
aVLENS-604
p823
aVLENS-603
p824
aVLENS-602
p825
aVLENS-601
p826
aVLENS-600
p827
aVLENS-599
p828
aVLENS-598
p829
aVLENS-597
p830
aVLENS-596
p831
aVLENS-595
p832
aVLENS-594
p833
aVLENS-593
p834
aVLENS-592
p835
aVLENS-590
p836
aVLENS-589
p837
aVLENS-588
p838
aVLENS-587
p839
aVLENS-586
p840
aVLENS-585
p841
aVLENS-584
p842
aVLENS-583
p843
aVLENS-582
p844
aVLENS-581
p845
aVLENS-580
p846
aVLENS-579
p847
aVLENS-578
p848
aVLENS-577
p849
aVLENS-576
p850
aVLENS-575
p851
aVLENS-574
p852
aVLENS-573
p853
aVLENS-572
p854
aVLENS-571
p855
aVLENS-570
p856
aVLENS-569
p857
aVLENS-568
p858
aVLENS-567
p859
aVLENS-566
p860
aVLENS-565
p861
aVLENS-564
p862
aVLENS-563
p863
aVLENS-562
p864
aVLENS-561
p865
aVLENS-560
p866
aVLENS-559
p867
aVLENS-558
p868
aVLENS-557
p869
aVLENS-556
p870
aVLENS-555
p871
aVLENS-554
p872
aVLENS-553
p873
aVLENS-552
p874
aVLENS-551
p875
aVLENS-550
p876
aVLENS-549
p877
aVLENS-548
p878
aVLENS-547
p879
aVLENS-546
p880
aVLENS-545
p881
aVLENS-544
p882
aVLENS-543
p883
aVLENS-542
p884
aVLENS-541
p885
aVLENS-540
p886
aVLENS-539
p887
aVLENS-538
p888
aVLENS-537
p889
aVLENS-536
p890
aVLENS-535
p891
aVLENS-534
p892
aVLENS-533
p893
aVLENS-532
p894
aVLENS-531
p895
aVLENS-530
p896
aVLENS-529
p897
aVLENS-528
p898
aVLENS-527
p899
aVLENS-526
p900
aVLENS-525
p901
aVLENS-524
p902
aVLENS-523
p903
aVLENS-522
p904
aVLENS-521
p905
aVLENS-520
p906
aVLENS-519
p907
aVLENS-518
p908
aVLENS-517
p909
aVLENS-516
p910
aVLENS-515
p911
aVLENS-514
p912
aVLENS-513
p913
aVLENS-512
p914
aVLENS-511
p915
aVLENS-510
p916
aVLENS-509
p917
aVLENS-508
p918
aVLENS-507
p919
aVLENS-506
p920
aVLENS-505
p921
aVLENS-504
p922
aVLENS-503
p923
aVLENS-502
p924
aVLENS-501
p925
aVLENS-500
p926
aVLENS-499
p927
aVLENS-498
p928
aVLENS-497
p929
aVLENS-496
p930
aVLENS-495
p931
aVLENS-494
p932
aVLENS-493
p933
aVLENS-492
p934
aVLENS-491
p935
aVLENS-490
p936
aVLENS-489
p937
aVLENS-488
p938
aVLENS-487
p939
aVLENS-486
p940
aVLENS-485
p941
aVLENS-484
p942
aVLENS-483
p943
aVLENS-482
p944
aVLENS-481
p945
aVLENS-480
p946
aVLENS-479
p947
aVLENS-478
p948
aVLENS-477
p949
aVLENS-476
p950
aVLENS-475
p951
aVLENS-474
p952
aVLENS-473
p953
aVLENS-472
p954
aVLENS-471
p955
aVLENS-470
p956
aVLENS-469
p957
aVLENS-468
p958
aVLENS-467
p959
aVLENS-466
p960
aVLENS-465
p961
aVLENS-464
p962
aVLENS-463
p963
aVLENS-462
p964
aVLENS-461
p965
aVLENS-460
p966
aVLENS-459
p967
aVLENS-458
p968
aVLENS-457
p969
aVLENS-456
p970
aVLENS-455
p971
aVLENS-454
p972
aVLENS-453
p973
aVLENS-452
p974
aVLENS-451
p975
aVLENS-450
p976
aVLENS-449
p977
aVLENS-448
p978
aVLENS-447
p979
aVLENS-446
p980
aVLENS-445
p981
aVLENS-444
p982
aVLENS-443
p983
aVLENS-442
p984
aVLENS-441
p985
aVLENS-440
p986
aVLENS-439
p987
aVLENS-438
p988
aVLENS-437
p989
aVLENS-436
p990
aVLENS-435
p991
aVLENS-434
p992
aVLENS-433
p993
aVLENS-432
p994
aVLENS-431
p995
aVLENS-430
p996
aVLENS-429
p997
aVLENS-428
p998
aVLENS-427
p999
aVLENS-426
p1000
aVLENS-425
p1001
aVLENS-424
p1002
aVLENS-423
p1003
aVLENS-422
p1004
aVLENS-421
p1005
aVLENS-420
p1006
aVLENS-419
p1007
aVLENS-418
p1008
aVLENS-417
p1009
aVLENS-416
p1010
aVLENS-415
p1011
aVLENS-414
p1012
aVLENS-413
p1013
aVLENS-412
p1014
aVLENS-411
p1015
aVLENS-410
p1016
aVLENS-409
p1017
aVLENS-408
p1018
aVLENS-407
p1019
aVLENS-406
p1020
aVLENS-405
p1021
aVLENS-404
p1022
aVLENS-403
p1023
aVLENS-402
p1024
aVLENS-401
p1025
aVLENS-400
p1026
aVLENS-399
p1027
aVLENS-398
p1028
aVLENS-397
p1029
aVLENS-396
p1030
aVLENS-395
p1031
aVLENS-394
p1032
aVLENS-393
p1033
aVLENS-392
p1034
aVLENS-391
p1035
aVLENS-390
p1036
aVLENS-389
p1037
aVLENS-388
p1038
aVLENS-387
p1039
aVLENS-386
p1040
aVLENS-385
p1041
aVLENS-384
p1042
aVLENS-383
p1043
aVLENS-382
p1044
aVLENS-381
p1045
aVLENS-380
p1046
aVLENS-379
p1047
aVLENS-378
p1048
aVLENS-377
p1049
aVLENS-376
p1050
aVLENS-375
p1051
aVLENS-374
p1052
aVLENS-373
p1053
aVLENS-372
p1054
aVLENS-371
p1055
aVLENS-370
p1056
aVLENS-369
p1057
aVLENS-368
p1058
aVLENS-367
p1059
aVLENS-366
p1060
aVLENS-365
p1061
aVLENS-364
p1062
aVLENS-363
p1063
aVLENS-362
p1064
aVLENS-361
p1065
aVLENS-360
p1066
aVLENS-359
p1067
aVLENS-358
p1068
aVLENS-357
p1069
aVLENS-356
p1070
aVLENS-355
p1071
aVLENS-354
p1072
aVLENS-353
p1073
aVLENS-352
p1074
aVLENS-351
p1075
aVLENS-350
p1076
aVLENS-349
p1077
aVLENS-348
p1078
aVLENS-347
p1079
aVLENS-346
p1080
aVLENS-345
p1081
aVLENS-344
p1082
aVLENS-343
p1083
aVLENS-342
p1084
aVLENS-341
p1085
aVLENS-340
p1086
aVLENS-339
p1087
aVLENS-338
p1088
aVLENS-337
p1089
aVLENS-336
p1090
aVLENS-335
p1091
aVLENS-334
p1092
aVLENS-333
p1093
aVLENS-332
p1094
aVLENS-331
p1095
aVLENS-330
p1096
aVLENS-329
p1097
aVLENS-328
p1098
aVLENS-327
p1099
aVLENS-326
p1100
aVLENS-325
p1101
aVLENS-324
p1102
aVLENS-323
p1103
aVLENS-322
p1104
aVLENS-321
p1105
aVLENS-320
p1106
aVLENS-319
p1107
aVLENS-318
p1108
aVLENS-317
p1109
aVLENS-316
p1110
aVLENS-315
p1111
aVLENS-314
p1112
aVLENS-313
p1113
aVLENS-312
p1114
aVLENS-311
p1115
aVLENS-310
p1116
aVLENS-309
p1117
aVLENS-308
p1118
aVLENS-307
p1119
aVLENS-306
p1120
aVLENS-305
p1121
aVLENS-304
p1122
aVLENS-303
p1123
aVLENS-302
p1124
aVLENS-301
p1125
aVLENS-300
p1126
aVLENS-299
p1127
aVLENS-298
p1128
aVLENS-297
p1129
aVLENS-296
p1130
aVLENS-295
p1131
aVLENS-294
p1132
aVLENS-293
p1133
aVLENS-292
p1134
aVLENS-291
p1135
aVLENS-290
p1136
aVLENS-289
p1137
aVLENS-288
p1138
aVLENS-287
p1139
aVLENS-286
p1140
aVLENS-285
p1141
aVLENS-284
p1142
aVLENS-283
p1143
aVLENS-282
p1144
aVLENS-281
p1145
aVLENS-280
p1146
aVLENS-279
p1147
aVLENS-278
p1148
aVLENS-277
p1149
aVLENS-276
p1150
aVLENS-275
p1151
aVLENS-274
p1152
aVLENS-273
p1153
aVLENS-272
p1154
aVLENS-271
p1155
aVLENS-270
p1156
aVLENS-269
p1157
aVLENS-268
p1158
aVLENS-267
p1159
aVLENS-266
p1160
aVLENS-265
p1161
aVLENS-264
p1162
aVLENS-263
p1163
aVLENS-262
p1164
aVLENS-261
p1165
aVLENS-260
p1166
aVLENS-259
p1167
aVLENS-258
p1168
aVLENS-257
p1169
aVLENS-256
p1170
aVLENS-255
p1171
aVLENS-254
p1172
aVLENS-253
p1173
aVLENS-252
p1174
aVLENS-251
p1175
aVLENS-250
p1176
aVLENS-249
p1177
aVLENS-248
p1178
aVLENS-247
p1179
aVLENS-246
p1180
aVLENS-245
p1181
aVLENS-244
p1182
aVLENS-243
p1183
aVLENS-242
p1184
aVLENS-241
p1185
aVLENS-240
p1186
aVLENS-239
p1187
aVLENS-238
p1188
aVLENS-237
p1189
aVLENS-236
p1190
aVLENS-235
p1191
aVLENS-234
p1192
aVLENS-233
p1193
aVLENS-232
p1194
aVLENS-231
p1195
aVLENS-230
p1196
aVLENS-229
p1197
aVLENS-228
p1198
aVLENS-227
p1199
aVLENS-226
p1200
aVLENS-225
p1201
aVLENS-224
p1202
aVLENS-223
p1203
aVLENS-222
p1204
aVLENS-221
p1205
aVLENS-220
p1206
aVLENS-219
p1207
aVLENS-218
p1208
aVLENS-217
p1209
aVLENS-216
p1210
aVLENS-215
p1211
aVLENS-214
p1212
aVLENS-213
p1213
aVLENS-212
p1214
aVLENS-211
p1215
aVLENS-210
p1216
aVLENS-209
p1217
aVLENS-208
p1218
aVLENS-207
p1219
aVLENS-206
p1220
aVLENS-205
p1221
aVLENS-204
p1222
aVLENS-203
p1223
aVLENS-202
p1224
aVLENS-201
p1225
aVLENS-200
p1226
aVLENS-199
p1227
aVLENS-198
p1228
aVLENS-197
p1229
aVLENS-196
p1230
aVLENS-195
p1231
aVLENS-194
p1232
aVLENS-193
p1233
aVLENS-192
p1234
aVLENS-191
p1235
aVLENS-190
p1236
aVLENS-189
p1237
aVLENS-188
p1238
aVLENS-187
p1239
aVLENS-186
p1240
aVLENS-185
p1241
aVLENS-184
p1242
aVLENS-183
p1243
aVLENS-182
p1244
aVLENS-181
p1245
aVLENS-180
p1246
aVLENS-179
p1247
aVLENS-178
p1248
aVLENS-177
p1249
aVLENS-176
p1250
aVLENS-175
p1251
aVLENS-174
p1252
aVLENS-173
p1253
aVLENS-172
p1254
aVLENS-171
p1255
aVLENS-170
p1256
aVLENS-169
p1257
aVLENS-168
p1258
aVLENS-167
p1259
aVLENS-166
p1260
aVLENS-165
p1261
aVLENS-164
p1262
aVLENS-163
p1263
aVLENS-162
p1264
aVLENS-161
p1265
aVLENS-160
p1266
aVLENS-159
p1267
aVLENS-158
p1268
aVLENS-157
p1269
aVLENS-156
p1270
aVLENS-155
p1271
aVLENS-154
p1272
aVLENS-153
p1273
aVLENS-152
p1274
aVLENS-151
p1275
aVLENS-150
p1276
aVLENS-149
p1277
aVLENS-148
p1278
aVLENS-147
p1279
aVLENS-146
p1280
aVLENS-145
p1281
aVLENS-144
p1282
aVLENS-143
p1283
aVLENS-142
p1284
aVLENS-141
p1285
aVLENS-140
p1286
aVLENS-139
p1287
aVLENS-138
p1288
aVLENS-137
p1289
aVLENS-136
p1290
aVLENS-135
p1291
aVLENS-134
p1292
aVLENS-133
p1293
aVLENS-132
p1294
aVLENS-131
p1295
aVLENS-130
p1296
aVLENS-129
p1297
aVLENS-128
p1298
aVLENS-127
p1299
aVLENS-126
p1300
aVLENS-125
p1301
aVLENS-124
p1302
aVLENS-123
p1303
aVLENS-122
p1304
aVLENS-121
p1305
aVLENS-120
p1306
aVLENS-119
p1307
aVLENS-118
p1308
aVLENS-117
p1309
aVLENS-116
p1310
aVLENS-115
p1311
aVLENS-114
p1312
aVLENS-113
p1313
aVLENS-112
p1314
aVLENS-111
p1315
aVLENS-110
p1316
aVLENS-109
p1317
aVLENS-108
p1318
aVLENS-107
p1319
aVLENS-106
p1320
aVLENS-105
p1321
aVLENS-104
p1322
aVLENS-103
p1323
aVLENS-102
p1324
aVLENS-101
p1325
aVLENS-100
p1326
aVLENS-99
p1327
aVLENS-98
p1328
aVLENS-97
p1329
aVLENS-96
p1330
aVLENS-95
p1331
aVLENS-94
p1332
aVLENS-93
p1333
aVLENS-92
p1334
aVLENS-91
p1335
aVLENS-90
p1336
aVLENS-89
p1337
aVLENS-88
p1338
aVLENS-87
p1339
aVLENS-86
p1340
aVLENS-85
p1341
aVLENS-84
p1342
aVLENS-83
p1343
aVLENS-82
p1344
aVLENS-81
p1345
aVLENS-80
p1346
aVLENS-79
p1347
aVLENS-78
p1348
aVLENS-77
p1349
aVLENS-76
p1350
aVLENS-75
p1351
aVLENS-74
p1352
aVLENS-73
p1353
aVLENS-72
p1354
aVLENS-71
p1355
aVLENS-70
p1356
aVLENS-69
p1357
aVLENS-68
p1358
aVLENS-67
p1359
aVLENS-66
p1360
aVLENS-65
p1361
aVLENS-64
p1362
aVLENS-63
p1363
aVLENS-62
p1364
aVLENS-61
p1365
aVLENS-60
p1366
aVLENS-59
p1367
aVLENS-58
p1368
aVLENS-57
p1369
aVLENS-56
p1370
aVLENS-55
p1371
aVLENS-54
p1372
aVLENS-53
p1373
aVLENS-52
p1374
aVLENS-51
p1375
aVLENS-50
p1376
aVLENS-49
p1377
aVLENS-48
p1378
aVLENS-47
p1379
aVLENS-46
p1380
aVLENS-45
p1381
aVLENS-44
p1382
aVLENS-43
p1383
aVLENS-42
p1384
aVLENS-41
p1385
aVLENS-40
p1386
aVLENS-39
p1387
aVLENS-38
p1388
aVLENS-37
p1389
aVLENS-36
p1390
aVLENS-35
p1391
aVLENS-34
p1392
aVLENS-33
p1393
aVLENS-32
p1394
aVLENS-31
p1395
aVLENS-30
p1396
aVLENS-29
p1397
aVLENS-28
p1398
aVLENS-27
p1399
aVLENS-26
p1400
aVLENS-25
p1401
aVLENS-24
p1402
aVLENS-23
p1403
aVLENS-22
p1404
aVLENS-21
p1405
aVLENS-20
p1406
aVLENS-19
p1407
aVLENS-18
p1408
aVLENS-17
p1409
aVLENS-16
p1410
aVLENS-15
p1411
aVLENS-14
p1412
aVLENS-13
p1413
aVLENS-12
p1414
aVLENS-11
p1415
aVLENS-10
p1416
aVLENS-9
p1417
aVLENS-8
p1418
aVLENS-7
p1419
aVLENS-6
p1420
aVLENS-5
p1421
aVLENS-4
p1422
aVLENS-3
p1423
aVLENS-2
p1424
aVLENS-1
p1425
a.