(lp0
VLOGGING-165
p1
aVLOGGING-164
p2
aVLOGGING-163
p3
aVLOGGING-162
p4
aVLOGGING-161
p5
aVLOGGING-160
p6
aVLOGGING-159
p7
aVLOGGING-158
p8
aVLOGGING-157
p9
aVLOGGING-156
p10
aVLOGGING-155
p11
aVLOGGING-154
p12
aVLOGGING-153
p13
aVLOGGING-152
p14
aVLOGGING-151
p15
aVLOGGING-149
p16
aVLOGGING-148
p17
aVLOGGING-147
p18
aVLOGGING-146
p19
aVLOGGING-145
p20
aVLOGGING-144
p21
aVLOGGING-143
p22
aVLOGGING-142
p23
aVLOGGING-141
p24
aVLOGGING-140
p25
aVLOGGING-138
p26
aVLOGGING-137
p27
aVLOGGING-136
p28
aVLOGGING-135
p29
aVLOGGING-134
p30
aVLOGGING-133
p31
aVLOGGING-132
p32
aVLOGGING-131
p33
aVLOGGING-130
p34
aVLOGGING-129
p35
aVLOGGING-128
p36
aVLOGGING-127
p37
aVLOGGING-126
p38
aVLOGGING-125
p39
aVLOGGING-124
p40
aVLOGGING-123
p41
aVLOGGING-122
p42
aVLOGGING-121
p43
aVLOGGING-120
p44
aVLOGGING-119
p45
aVLOGGING-118
p46
aVLOGGING-117
p47
aVLOGGING-116
p48
aVLOGGING-115
p49
aVLOGGING-114
p50
aVLOGGING-113
p51
aVLOGGING-112
p52
aVLOGGING-111
p53
aVLOGGING-110
p54
aVLOGGING-109
p55
aVLOGGING-108
p56
aVLOGGING-107
p57
aVLOGGING-106
p58
aVLOGGING-105
p59
aVLOGGING-104
p60
aVLOGGING-103
p61
aVLOGGING-102
p62
aVLOGGING-101
p63
aVLOGGING-100
p64
aVLOGGING-99
p65
aVLOGGING-98
p66
aVLOGGING-97
p67
aVLOGGING-96
p68
aVLOGGING-95
p69
aVLOGGING-94
p70
aVLOGGING-93
p71
aVLOGGING-92
p72
aVLOGGING-91
p73
aVLOGGING-90
p74
aVLOGGING-89
p75
aVLOGGING-88
p76
aVLOGGING-87
p77
aVLOGGING-86
p78
aVLOGGING-85
p79
aVLOGGING-84
p80
aVLOGGING-83
p81
aVLOGGING-82
p82
aVLOGGING-81
p83
aVLOGGING-80
p84
aVLOGGING-79
p85
aVLOGGING-78
p86
aVLOGGING-77
p87
aVLOGGING-76
p88
aVLOGGING-75
p89
aVLOGGING-74
p90
aVLOGGING-73
p91
aVLOGGING-72
p92
aVLOGGING-71
p93
aVLOGGING-70
p94
aVLOGGING-69
p95
aVLOGGING-68
p96
aVLOGGING-67
p97
aVLOGGING-66
p98
aVLOGGING-65
p99
aVLOGGING-64
p100
aVLOGGING-63
p101
aVLOGGING-62
p102
aVLOGGING-61
p103
aVLOGGING-60
p104
aVLOGGING-59
p105
aVLOGGING-58
p106
aVLOGGING-57
p107
aVLOGGING-56
p108
aVLOGGING-55
p109
aVLOGGING-54
p110
aVLOGGING-53
p111
aVLOGGING-52
p112
aVLOGGING-51
p113
aVLOGGING-50
p114
aVLOGGING-49
p115
aVLOGGING-48
p116
aVLOGGING-47
p117
aVLOGGING-46
p118
aVLOGGING-45
p119
aVLOGGING-44
p120
aVLOGGING-43
p121
aVLOGGING-42
p122
aVLOGGING-41
p123
aVLOGGING-40
p124
aVLOGGING-39
p125
aVLOGGING-38
p126
aVLOGGING-37
p127
aVLOGGING-36
p128
aVLOGGING-35
p129
aVLOGGING-34
p130
aVLOGGING-33
p131
aVLOGGING-32
p132
aVLOGGING-31
p133
aVLOGGING-30
p134
aVLOGGING-29
p135
aVLOGGING-28
p136
aVLOGGING-27
p137
aVLOGGING-26
p138
aVLOGGING-25
p139
aVLOGGING-24
p140
aVLOGGING-23
p141
aVLOGGING-22
p142
aVLOGGING-21
p143
aVLOGGING-20
p144
aVLOGGING-19
p145
aVLOGGING-18
p146
aVLOGGING-17
p147
aVLOGGING-16
p148
aVLOGGING-15
p149
aVLOGGING-14
p150
aVLOGGING-13
p151
aVLOGGING-12
p152
aVLOGGING-11
p153
aVLOGGING-10
p154
aVLOGGING-9
p155
aVLOGGING-8
p156
aVLOGGING-7
p157
aVLOGGING-6
p158
aVLOGGING-5
p159
aVLOGGING-4
p160
aVLOGGING-3
p161
aVLOGGING-2
p162
aVLOGGING-1
p163
a.