(lp0
VMACR-48
p1
aVMACR-47
p2
aVMACR-46
p3
aVMACR-45
p4
aVMACR-44
p5
aVMACR-43
p6
aVMACR-42
p7
aVMACR-41
p8
aVMACR-40
p9
aVMACR-39
p10
aVMACR-38
p11
aVMACR-37
p12
aVMACR-36
p13
aVMACR-35
p14
aVMACR-34
p15
aVMACR-33
p16
aVMACR-32
p17
aVMACR-31
p18
aVMACR-30
p19
aVMACR-29
p20
aVMACR-28
p21
aVMACR-27
p22
aVMACR-26
p23
aVMACR-25
p24
aVMACR-24
p25
aVMACR-23
p26
aVMACR-22
p27
aVMACR-21
p28
aVMACR-20
p29
aVMACR-19
p30
aVMACR-18
p31
aVMACR-17
p32
aVMACR-16
p33
aVMACR-15
p34
aVMACR-14
p35
aVMACR-13
p36
aVMACR-12
p37
aVMACR-11
p38
aVMACR-10
p39
aVMACR-9
p40
aVMACR-8
p41
aVMACR-7
p42
aVMACR-6
p43
aVMACR-5
p44
aVMACR-4
p45
aVMACR-3
p46
aVMACR-2
p47
aVMACR-1
p48
a.