(lp0
VMAHOUT-2053
p1
aVMAHOUT-2052
p2
aVMAHOUT-2051
p3
aVMAHOUT-2050
p4
aVMAHOUT-2049
p5
aVMAHOUT-2048
p6
aVMAHOUT-2047
p7
aVMAHOUT-2046
p8
aVMAHOUT-2045
p9
aVMAHOUT-2044
p10
aVMAHOUT-2043
p11
aVMAHOUT-2042
p12
aVMAHOUT-2041
p13
aVMAHOUT-2040
p14
aVMAHOUT-2039
p15
aVMAHOUT-2038
p16
aVMAHOUT-2037
p17
aVMAHOUT-2036
p18
aVMAHOUT-2035
p19
aVMAHOUT-2034
p20
aVMAHOUT-2033
p21
aVMAHOUT-2032
p22
aVMAHOUT-2031
p23
aVMAHOUT-2030
p24
aVMAHOUT-2029
p25
aVMAHOUT-2028
p26
aVMAHOUT-2027
p27
aVMAHOUT-2026
p28
aVMAHOUT-2025
p29
aVMAHOUT-2024
p30
aVMAHOUT-2023
p31
aVMAHOUT-2022
p32
aVMAHOUT-2021
p33
aVMAHOUT-2020
p34
aVMAHOUT-2019
p35
aVMAHOUT-2018
p36
aVMAHOUT-2017
p37
aVMAHOUT-2016
p38
aVMAHOUT-2015
p39
aVMAHOUT-2014
p40
aVMAHOUT-2013
p41
aVMAHOUT-2012
p42
aVMAHOUT-2011
p43
aVMAHOUT-2010
p44
aVMAHOUT-2009
p45
aVMAHOUT-2008
p46
aVMAHOUT-2007
p47
aVMAHOUT-2006
p48
aVMAHOUT-2005
p49
aVMAHOUT-2004
p50
aVMAHOUT-2003
p51
aVMAHOUT-2002
p52
aVMAHOUT-2001
p53
aVMAHOUT-2000
p54
aVMAHOUT-1999
p55
aVMAHOUT-1998
p56
aVMAHOUT-1997
p57
aVMAHOUT-1996
p58
aVMAHOUT-1995
p59
aVMAHOUT-1994
p60
aVMAHOUT-1993
p61
aVMAHOUT-1992
p62
aVMAHOUT-1991
p63
aVMAHOUT-1990
p64
aVMAHOUT-1989
p65
aVMAHOUT-1988
p66
aVMAHOUT-1987
p67
aVMAHOUT-1986
p68
aVMAHOUT-1985
p69
aVMAHOUT-1984
p70
aVMAHOUT-1983
p71
aVMAHOUT-1982
p72
aVMAHOUT-1981
p73
aVMAHOUT-1980
p74
aVMAHOUT-1979
p75
aVMAHOUT-1978
p76
aVMAHOUT-1977
p77
aVMAHOUT-1976
p78
aVMAHOUT-1975
p79
aVMAHOUT-1974
p80
aVMAHOUT-1973
p81
aVMAHOUT-1972
p82
aVMAHOUT-1971
p83
aVMAHOUT-1970
p84
aVMAHOUT-1969
p85
aVMAHOUT-1968
p86
aVMAHOUT-1967
p87
aVMAHOUT-1966
p88
aVMAHOUT-1965
p89
aVMAHOUT-1964
p90
aVMAHOUT-1963
p91
aVMAHOUT-1962
p92
aVMAHOUT-1961
p93
aVMAHOUT-1960
p94
aVMAHOUT-1959
p95
aVMAHOUT-1958
p96
aVMAHOUT-1957
p97
aVMAHOUT-1956
p98
aVMAHOUT-1955
p99
aVMAHOUT-1954
p100
aVMAHOUT-1953
p101
aVMAHOUT-1952
p102
aVMAHOUT-1951
p103
aVMAHOUT-1950
p104
aVMAHOUT-1949
p105
aVMAHOUT-1948
p106
aVMAHOUT-1947
p107
aVMAHOUT-1946
p108
aVMAHOUT-1945
p109
aVMAHOUT-1944
p110
aVMAHOUT-1943
p111
aVMAHOUT-1942
p112
aVMAHOUT-1941
p113
aVMAHOUT-1940
p114
aVMAHOUT-1939
p115
aVMAHOUT-1938
p116
aVMAHOUT-1937
p117
aVMAHOUT-1936
p118
aVMAHOUT-1935
p119
aVMAHOUT-1934
p120
aVMAHOUT-1933
p121
aVMAHOUT-1932
p122
aVMAHOUT-1931
p123
aVMAHOUT-1930
p124
aVMAHOUT-1929
p125
aVMAHOUT-1928
p126
aVMAHOUT-1927
p127
aVMAHOUT-1926
p128
aVMAHOUT-1925
p129
aVMAHOUT-1924
p130
aVMAHOUT-1923
p131
aVMAHOUT-1922
p132
aVMAHOUT-1921
p133
aVMAHOUT-1920
p134
aVMAHOUT-1919
p135
aVMAHOUT-1918
p136
aVMAHOUT-1917
p137
aVMAHOUT-1916
p138
aVMAHOUT-1915
p139
aVMAHOUT-1914
p140
aVMAHOUT-1913
p141
aVMAHOUT-1912
p142
aVMAHOUT-1911
p143
aVMAHOUT-1910
p144
aVMAHOUT-1909
p145
aVMAHOUT-1908
p146
aVMAHOUT-1907
p147
aVMAHOUT-1906
p148
aVMAHOUT-1905
p149
aVMAHOUT-1904
p150
aVMAHOUT-1903
p151
aVMAHOUT-1902
p152
aVMAHOUT-1901
p153
aVMAHOUT-1900
p154
aVMAHOUT-1899
p155
aVMAHOUT-1898
p156
aVMAHOUT-1897
p157
aVMAHOUT-1896
p158
aVMAHOUT-1895
p159
aVMAHOUT-1894
p160
aVMAHOUT-1893
p161
aVMAHOUT-1892
p162
aVMAHOUT-1891
p163
aVMAHOUT-1890
p164
aVMAHOUT-1889
p165
aVMAHOUT-1888
p166
aVMAHOUT-1887
p167
aVMAHOUT-1886
p168
aVMAHOUT-1885
p169
aVMAHOUT-1884
p170
aVMAHOUT-1883
p171
aVMAHOUT-1882
p172
aVMAHOUT-1881
p173
aVMAHOUT-1880
p174
aVMAHOUT-1879
p175
aVMAHOUT-1878
p176
aVMAHOUT-1877
p177
aVMAHOUT-1876
p178
aVMAHOUT-1875
p179
aVMAHOUT-1874
p180
aVMAHOUT-1873
p181
aVMAHOUT-1872
p182
aVMAHOUT-1871
p183
aVMAHOUT-1870
p184
aVMAHOUT-1869
p185
aVMAHOUT-1868
p186
aVMAHOUT-1867
p187
aVMAHOUT-1866
p188
aVMAHOUT-1865
p189
aVMAHOUT-1864
p190
aVMAHOUT-1863
p191
aVMAHOUT-1862
p192
aVMAHOUT-1861
p193
aVMAHOUT-1860
p194
aVMAHOUT-1859
p195
aVMAHOUT-1858
p196
aVMAHOUT-1857
p197
aVMAHOUT-1856
p198
aVMAHOUT-1855
p199
aVMAHOUT-1854
p200
aVMAHOUT-1853
p201
aVMAHOUT-1852
p202
aVMAHOUT-1851
p203
aVMAHOUT-1850
p204
aVMAHOUT-1849
p205
aVMAHOUT-1848
p206
aVMAHOUT-1847
p207
aVMAHOUT-1846
p208
aVMAHOUT-1845
p209
aVMAHOUT-1844
p210
aVMAHOUT-1843
p211
aVMAHOUT-1842
p212
aVMAHOUT-1841
p213
aVMAHOUT-1840
p214
aVMAHOUT-1839
p215
aVMAHOUT-1838
p216
aVMAHOUT-1837
p217
aVMAHOUT-1836
p218
aVMAHOUT-1835
p219
aVMAHOUT-1834
p220
aVMAHOUT-1833
p221
aVMAHOUT-1832
p222
aVMAHOUT-1831
p223
aVMAHOUT-1830
p224
aVMAHOUT-1829
p225
aVMAHOUT-1828
p226
aVMAHOUT-1827
p227
aVMAHOUT-1826
p228
aVMAHOUT-1825
p229
aVMAHOUT-1824
p230
aVMAHOUT-1823
p231
aVMAHOUT-1822
p232
aVMAHOUT-1821
p233
aVMAHOUT-1820
p234
aVMAHOUT-1819
p235
aVMAHOUT-1818
p236
aVMAHOUT-1817
p237
aVMAHOUT-1816
p238
aVMAHOUT-1815
p239
aVMAHOUT-1814
p240
aVMAHOUT-1813
p241
aVMAHOUT-1812
p242
aVMAHOUT-1811
p243
aVMAHOUT-1810
p244
aVMAHOUT-1809
p245
aVMAHOUT-1808
p246
aVMAHOUT-1807
p247
aVMAHOUT-1806
p248
aVMAHOUT-1805
p249
aVMAHOUT-1804
p250
aVMAHOUT-1803
p251
aVMAHOUT-1802
p252
aVMAHOUT-1801
p253
aVMAHOUT-1800
p254
aVMAHOUT-1799
p255
aVMAHOUT-1798
p256
aVMAHOUT-1797
p257
aVMAHOUT-1796
p258
aVMAHOUT-1795
p259
aVMAHOUT-1794
p260
aVMAHOUT-1793
p261
aVMAHOUT-1792
p262
aVMAHOUT-1791
p263
aVMAHOUT-1790
p264
aVMAHOUT-1789
p265
aVMAHOUT-1788
p266
aVMAHOUT-1787
p267
aVMAHOUT-1786
p268
aVMAHOUT-1785
p269
aVMAHOUT-1784
p270
aVMAHOUT-1783
p271
aVMAHOUT-1782
p272
aVMAHOUT-1781
p273
aVMAHOUT-1780
p274
aVMAHOUT-1779
p275
aVMAHOUT-1778
p276
aVMAHOUT-1777
p277
aVMAHOUT-1776
p278
aVMAHOUT-1775
p279
aVMAHOUT-1774
p280
aVMAHOUT-1773
p281
aVMAHOUT-1772
p282
aVMAHOUT-1771
p283
aVMAHOUT-1770
p284
aVMAHOUT-1769
p285
aVMAHOUT-1768
p286
aVMAHOUT-1767
p287
aVMAHOUT-1766
p288
aVMAHOUT-1765
p289
aVMAHOUT-1764
p290
aVMAHOUT-1763
p291
aVMAHOUT-1762
p292
aVMAHOUT-1761
p293
aVMAHOUT-1760
p294
aVMAHOUT-1759
p295
aVMAHOUT-1758
p296
aVMAHOUT-1757
p297
aVMAHOUT-1756
p298
aVMAHOUT-1755
p299
aVMAHOUT-1754
p300
aVMAHOUT-1753
p301
aVMAHOUT-1752
p302
aVMAHOUT-1751
p303
aVMAHOUT-1750
p304
aVMAHOUT-1749
p305
aVMAHOUT-1748
p306
aVMAHOUT-1747
p307
aVMAHOUT-1746
p308
aVMAHOUT-1745
p309
aVMAHOUT-1744
p310
aVMAHOUT-1743
p311
aVMAHOUT-1742
p312
aVMAHOUT-1741
p313
aVMAHOUT-1740
p314
aVMAHOUT-1739
p315
aVMAHOUT-1738
p316
aVMAHOUT-1737
p317
aVMAHOUT-1736
p318
aVMAHOUT-1735
p319
aVMAHOUT-1734
p320
aVMAHOUT-1733
p321
aVMAHOUT-1732
p322
aVMAHOUT-1731
p323
aVMAHOUT-1730
p324
aVMAHOUT-1729
p325
aVMAHOUT-1728
p326
aVMAHOUT-1727
p327
aVMAHOUT-1726
p328
aVMAHOUT-1725
p329
aVMAHOUT-1724
p330
aVMAHOUT-1723
p331
aVMAHOUT-1722
p332
aVMAHOUT-1721
p333
aVMAHOUT-1720
p334
aVMAHOUT-1719
p335
aVMAHOUT-1718
p336
aVMAHOUT-1717
p337
aVMAHOUT-1716
p338
aVMAHOUT-1715
p339
aVMAHOUT-1714
p340
aVMAHOUT-1713
p341
aVMAHOUT-1712
p342
aVMAHOUT-1711
p343
aVMAHOUT-1710
p344
aVMAHOUT-1709
p345
aVMAHOUT-1708
p346
aVMAHOUT-1707
p347
aVMAHOUT-1706
p348
aVMAHOUT-1705
p349
aVMAHOUT-1704
p350
aVMAHOUT-1703
p351
aVMAHOUT-1702
p352
aVMAHOUT-1701
p353
aVMAHOUT-1700
p354
aVMAHOUT-1699
p355
aVMAHOUT-1698
p356
aVMAHOUT-1697
p357
aVMAHOUT-1696
p358
aVMAHOUT-1695
p359
aVMAHOUT-1694
p360
aVMAHOUT-1693
p361
aVMAHOUT-1692
p362
aVMAHOUT-1691
p363
aVMAHOUT-1690
p364
aVMAHOUT-1689
p365
aVMAHOUT-1688
p366
aVMAHOUT-1687
p367
aVMAHOUT-1686
p368
aVMAHOUT-1685
p369
aVMAHOUT-1684
p370
aVMAHOUT-1683
p371
aVMAHOUT-1682
p372
aVMAHOUT-1681
p373
aVMAHOUT-1680
p374
aVMAHOUT-1679
p375
aVMAHOUT-1678
p376
aVMAHOUT-1677
p377
aVMAHOUT-1676
p378
aVMAHOUT-1675
p379
aVMAHOUT-1674
p380
aVMAHOUT-1673
p381
aVMAHOUT-1672
p382
aVMAHOUT-1671
p383
aVMAHOUT-1670
p384
aVMAHOUT-1669
p385
aVMAHOUT-1668
p386
aVMAHOUT-1667
p387
aVMAHOUT-1666
p388
aVMAHOUT-1665
p389
aVMAHOUT-1664
p390
aVMAHOUT-1663
p391
aVMAHOUT-1662
p392
aVMAHOUT-1661
p393
aVMAHOUT-1660
p394
aVMAHOUT-1659
p395
aVMAHOUT-1658
p396
aVMAHOUT-1657
p397
aVMAHOUT-1656
p398
aVMAHOUT-1655
p399
aVMAHOUT-1654
p400
aVMAHOUT-1653
p401
aVMAHOUT-1652
p402
aVMAHOUT-1651
p403
aVMAHOUT-1650
p404
aVMAHOUT-1649
p405
aVMAHOUT-1648
p406
aVMAHOUT-1647
p407
aVMAHOUT-1646
p408
aVMAHOUT-1645
p409
aVMAHOUT-1644
p410
aVMAHOUT-1643
p411
aVMAHOUT-1642
p412
aVMAHOUT-1641
p413
aVMAHOUT-1640
p414
aVMAHOUT-1639
p415
aVMAHOUT-1638
p416
aVMAHOUT-1637
p417
aVMAHOUT-1636
p418
aVMAHOUT-1635
p419
aVMAHOUT-1634
p420
aVMAHOUT-1633
p421
aVMAHOUT-1632
p422
aVMAHOUT-1631
p423
aVMAHOUT-1630
p424
aVMAHOUT-1629
p425
aVMAHOUT-1628
p426
aVMAHOUT-1627
p427
aVMAHOUT-1626
p428
aVMAHOUT-1625
p429
aVMAHOUT-1624
p430
aVMAHOUT-1623
p431
aVMAHOUT-1622
p432
aVMAHOUT-1621
p433
aVMAHOUT-1620
p434
aVMAHOUT-1619
p435
aVMAHOUT-1618
p436
aVMAHOUT-1617
p437
aVMAHOUT-1616
p438
aVMAHOUT-1615
p439
aVMAHOUT-1614
p440
aVMAHOUT-1613
p441
aVMAHOUT-1612
p442
aVMAHOUT-1611
p443
aVMAHOUT-1610
p444
aVMAHOUT-1609
p445
aVMAHOUT-1608
p446
aVMAHOUT-1607
p447
aVMAHOUT-1606
p448
aVMAHOUT-1605
p449
aVMAHOUT-1604
p450
aVMAHOUT-1603
p451
aVMAHOUT-1602
p452
aVMAHOUT-1601
p453
aVMAHOUT-1600
p454
aVMAHOUT-1599
p455
aVMAHOUT-1598
p456
aVMAHOUT-1597
p457
aVMAHOUT-1596
p458
aVMAHOUT-1595
p459
aVMAHOUT-1594
p460
aVMAHOUT-1593
p461
aVMAHOUT-1592
p462
aVMAHOUT-1591
p463
aVMAHOUT-1590
p464
aVMAHOUT-1589
p465
aVMAHOUT-1588
p466
aVMAHOUT-1587
p467
aVMAHOUT-1586
p468
aVMAHOUT-1585
p469
aVMAHOUT-1584
p470
aVMAHOUT-1583
p471
aVMAHOUT-1582
p472
aVMAHOUT-1581
p473
aVMAHOUT-1580
p474
aVMAHOUT-1579
p475
aVMAHOUT-1578
p476
aVMAHOUT-1577
p477
aVMAHOUT-1576
p478
aVMAHOUT-1575
p479
aVMAHOUT-1574
p480
aVMAHOUT-1573
p481
aVMAHOUT-1572
p482
aVMAHOUT-1571
p483
aVMAHOUT-1570
p484
aVMAHOUT-1569
p485
aVMAHOUT-1568
p486
aVMAHOUT-1567
p487
aVMAHOUT-1566
p488
aVMAHOUT-1565
p489
aVMAHOUT-1564
p490
aVMAHOUT-1563
p491
aVMAHOUT-1562
p492
aVMAHOUT-1561
p493
aVMAHOUT-1560
p494
aVMAHOUT-1559
p495
aVMAHOUT-1558
p496
aVMAHOUT-1557
p497
aVMAHOUT-1556
p498
aVMAHOUT-1555
p499
aVMAHOUT-1554
p500
aVMAHOUT-1553
p501
aVMAHOUT-1552
p502
aVMAHOUT-1551
p503
aVMAHOUT-1550
p504
aVMAHOUT-1549
p505
aVMAHOUT-1548
p506
aVMAHOUT-1547
p507
aVMAHOUT-1546
p508
aVMAHOUT-1545
p509
aVMAHOUT-1544
p510
aVMAHOUT-1543
p511
aVMAHOUT-1542
p512
aVMAHOUT-1541
p513
aVMAHOUT-1540
p514
aVMAHOUT-1539
p515
aVMAHOUT-1538
p516
aVMAHOUT-1537
p517
aVMAHOUT-1536
p518
aVMAHOUT-1535
p519
aVMAHOUT-1534
p520
aVMAHOUT-1533
p521
aVMAHOUT-1532
p522
aVMAHOUT-1531
p523
aVMAHOUT-1530
p524
aVMAHOUT-1529
p525
aVMAHOUT-1528
p526
aVMAHOUT-1527
p527
aVMAHOUT-1526
p528
aVMAHOUT-1525
p529
aVMAHOUT-1524
p530
aVMAHOUT-1523
p531
aVMAHOUT-1522
p532
aVMAHOUT-1521
p533
aVMAHOUT-1520
p534
aVMAHOUT-1519
p535
aVMAHOUT-1518
p536
aVMAHOUT-1517
p537
aVMAHOUT-1516
p538
aVMAHOUT-1515
p539
aVMAHOUT-1514
p540
aVMAHOUT-1513
p541
aVMAHOUT-1512
p542
aVMAHOUT-1511
p543
aVMAHOUT-1510
p544
aVMAHOUT-1509
p545
aVMAHOUT-1508
p546
aVMAHOUT-1507
p547
aVMAHOUT-1506
p548
aVMAHOUT-1505
p549
aVMAHOUT-1504
p550
aVMAHOUT-1503
p551
aVMAHOUT-1502
p552
aVMAHOUT-1501
p553
aVMAHOUT-1500
p554
aVMAHOUT-1499
p555
aVMAHOUT-1498
p556
aVMAHOUT-1497
p557
aVMAHOUT-1496
p558
aVMAHOUT-1495
p559
aVMAHOUT-1494
p560
aVMAHOUT-1493
p561
aVMAHOUT-1492
p562
aVMAHOUT-1491
p563
aVMAHOUT-1490
p564
aVMAHOUT-1489
p565
aVMAHOUT-1488
p566
aVMAHOUT-1487
p567
aVMAHOUT-1486
p568
aVMAHOUT-1485
p569
aVMAHOUT-1484
p570
aVMAHOUT-1483
p571
aVMAHOUT-1482
p572
aVMAHOUT-1481
p573
aVMAHOUT-1480
p574
aVMAHOUT-1479
p575
aVMAHOUT-1478
p576
aVMAHOUT-1477
p577
aVMAHOUT-1476
p578
aVMAHOUT-1475
p579
aVMAHOUT-1474
p580
aVMAHOUT-1473
p581
aVMAHOUT-1472
p582
aVMAHOUT-1471
p583
aVMAHOUT-1470
p584
aVMAHOUT-1469
p585
aVMAHOUT-1468
p586
aVMAHOUT-1467
p587
aVMAHOUT-1466
p588
aVMAHOUT-1465
p589
aVMAHOUT-1464
p590
aVMAHOUT-1463
p591
aVMAHOUT-1462
p592
aVMAHOUT-1461
p593
aVMAHOUT-1460
p594
aVMAHOUT-1459
p595
aVMAHOUT-1458
p596
aVMAHOUT-1457
p597
aVMAHOUT-1456
p598
aVMAHOUT-1455
p599
aVMAHOUT-1454
p600
aVMAHOUT-1453
p601
aVMAHOUT-1452
p602
aVMAHOUT-1451
p603
aVMAHOUT-1450
p604
aVMAHOUT-1449
p605
aVMAHOUT-1448
p606
aVMAHOUT-1447
p607
aVMAHOUT-1446
p608
aVMAHOUT-1445
p609
aVMAHOUT-1444
p610
aVMAHOUT-1443
p611
aVMAHOUT-1442
p612
aVMAHOUT-1441
p613
aVMAHOUT-1440
p614
aVMAHOUT-1439
p615
aVMAHOUT-1438
p616
aVMAHOUT-1437
p617
aVMAHOUT-1436
p618
aVMAHOUT-1435
p619
aVMAHOUT-1434
p620
aVMAHOUT-1433
p621
aVMAHOUT-1432
p622
aVMAHOUT-1431
p623
aVMAHOUT-1430
p624
aVMAHOUT-1429
p625
aVMAHOUT-1428
p626
aVMAHOUT-1427
p627
aVMAHOUT-1426
p628
aVMAHOUT-1425
p629
aVMAHOUT-1424
p630
aVMAHOUT-1423
p631
aVMAHOUT-1422
p632
aVMAHOUT-1421
p633
aVMAHOUT-1420
p634
aVMAHOUT-1419
p635
aVMAHOUT-1418
p636
aVMAHOUT-1417
p637
aVMAHOUT-1416
p638
aVMAHOUT-1415
p639
aVMAHOUT-1414
p640
aVMAHOUT-1413
p641
aVMAHOUT-1412
p642
aVMAHOUT-1411
p643
aVMAHOUT-1410
p644
aVMAHOUT-1409
p645
aVMAHOUT-1408
p646
aVMAHOUT-1407
p647
aVMAHOUT-1406
p648
aVMAHOUT-1405
p649
aVMAHOUT-1404
p650
aVMAHOUT-1403
p651
aVMAHOUT-1402
p652
aVMAHOUT-1401
p653
aVMAHOUT-1400
p654
aVMAHOUT-1399
p655
aVMAHOUT-1398
p656
aVMAHOUT-1397
p657
aVMAHOUT-1396
p658
aVMAHOUT-1395
p659
aVMAHOUT-1394
p660
aVMAHOUT-1393
p661
aVMAHOUT-1392
p662
aVMAHOUT-1391
p663
aVMAHOUT-1390
p664
aVMAHOUT-1389
p665
aVMAHOUT-1388
p666
aVMAHOUT-1387
p667
aVMAHOUT-1386
p668
aVMAHOUT-1385
p669
aVMAHOUT-1384
p670
aVMAHOUT-1383
p671
aVMAHOUT-1382
p672
aVMAHOUT-1381
p673
aVMAHOUT-1380
p674
aVMAHOUT-1379
p675
aVMAHOUT-1378
p676
aVMAHOUT-1377
p677
aVMAHOUT-1376
p678
aVMAHOUT-1375
p679
aVMAHOUT-1374
p680
aVMAHOUT-1373
p681
aVMAHOUT-1372
p682
aVMAHOUT-1371
p683
aVMAHOUT-1370
p684
aVMAHOUT-1369
p685
aVMAHOUT-1368
p686
aVMAHOUT-1367
p687
aVMAHOUT-1366
p688
aVMAHOUT-1365
p689
aVMAHOUT-1364
p690
aVMAHOUT-1363
p691
aVMAHOUT-1362
p692
aVMAHOUT-1361
p693
aVMAHOUT-1358
p694
aVMAHOUT-1357
p695
aVMAHOUT-1356
p696
aVMAHOUT-1355
p697
aVMAHOUT-1354
p698
aVMAHOUT-1353
p699
aVMAHOUT-1352
p700
aVMAHOUT-1351
p701
aVMAHOUT-1350
p702
aVMAHOUT-1349
p703
aVMAHOUT-1348
p704
aVMAHOUT-1347
p705
aVMAHOUT-1346
p706
aVMAHOUT-1345
p707
aVMAHOUT-1344
p708
aVMAHOUT-1343
p709
aVMAHOUT-1342
p710
aVMAHOUT-1341
p711
aVMAHOUT-1340
p712
aVMAHOUT-1339
p713
aVMAHOUT-1338
p714
aVMAHOUT-1337
p715
aVMAHOUT-1336
p716
aVMAHOUT-1335
p717
aVMAHOUT-1334
p718
aVMAHOUT-1333
p719
aVMAHOUT-1332
p720
aVMAHOUT-1331
p721
aVMAHOUT-1330
p722
aVMAHOUT-1329
p723
aVMAHOUT-1328
p724
aVMAHOUT-1327
p725
aVMAHOUT-1326
p726
aVMAHOUT-1325
p727
aVMAHOUT-1324
p728
aVMAHOUT-1323
p729
aVMAHOUT-1322
p730
aVMAHOUT-1321
p731
aVMAHOUT-1320
p732
aVMAHOUT-1319
p733
aVMAHOUT-1318
p734
aVMAHOUT-1317
p735
aVMAHOUT-1316
p736
aVMAHOUT-1315
p737
aVMAHOUT-1314
p738
aVMAHOUT-1313
p739
aVMAHOUT-1312
p740
aVMAHOUT-1311
p741
aVMAHOUT-1310
p742
aVMAHOUT-1309
p743
aVMAHOUT-1308
p744
aVMAHOUT-1307
p745
aVMAHOUT-1306
p746
aVMAHOUT-1305
p747
aVMAHOUT-1304
p748
aVMAHOUT-1303
p749
aVMAHOUT-1302
p750
aVMAHOUT-1301
p751
aVMAHOUT-1300
p752
aVMAHOUT-1299
p753
aVMAHOUT-1298
p754
aVMAHOUT-1297
p755
aVMAHOUT-1296
p756
aVMAHOUT-1295
p757
aVMAHOUT-1294
p758
aVMAHOUT-1293
p759
aVMAHOUT-1292
p760
aVMAHOUT-1291
p761
aVMAHOUT-1290
p762
aVMAHOUT-1289
p763
aVMAHOUT-1288
p764
aVMAHOUT-1287
p765
aVMAHOUT-1286
p766
aVMAHOUT-1285
p767
aVMAHOUT-1284
p768
aVMAHOUT-1283
p769
aVMAHOUT-1282
p770
aVMAHOUT-1281
p771
aVMAHOUT-1280
p772
aVMAHOUT-1279
p773
aVMAHOUT-1278
p774
aVMAHOUT-1277
p775
aVMAHOUT-1276
p776
aVMAHOUT-1275
p777
aVMAHOUT-1274
p778
aVMAHOUT-1273
p779
aVMAHOUT-1272
p780
aVMAHOUT-1271
p781
aVMAHOUT-1270
p782
aVMAHOUT-1269
p783
aVMAHOUT-1268
p784
aVMAHOUT-1267
p785
aVMAHOUT-1266
p786
aVMAHOUT-1265
p787
aVMAHOUT-1264
p788
aVMAHOUT-1263
p789
aVMAHOUT-1262
p790
aVMAHOUT-1261
p791
aVMAHOUT-1260
p792
aVMAHOUT-1259
p793
aVMAHOUT-1258
p794
aVMAHOUT-1257
p795
aVMAHOUT-1256
p796
aVMAHOUT-1255
p797
aVMAHOUT-1254
p798
aVMAHOUT-1253
p799
aVMAHOUT-1252
p800
aVMAHOUT-1251
p801
aVMAHOUT-1250
p802
aVMAHOUT-1249
p803
aVMAHOUT-1248
p804
aVMAHOUT-1247
p805
aVMAHOUT-1246
p806
aVMAHOUT-1245
p807
aVMAHOUT-1244
p808
aVMAHOUT-1243
p809
aVMAHOUT-1242
p810
aVMAHOUT-1241
p811
aVMAHOUT-1240
p812
aVMAHOUT-1239
p813
aVMAHOUT-1238
p814
aVMAHOUT-1237
p815
aVMAHOUT-1236
p816
aVMAHOUT-1235
p817
aVMAHOUT-1234
p818
aVMAHOUT-1233
p819
aVMAHOUT-1232
p820
aVMAHOUT-1231
p821
aVMAHOUT-1230
p822
aVMAHOUT-1229
p823
aVMAHOUT-1228
p824
aVMAHOUT-1227
p825
aVMAHOUT-1226
p826
aVMAHOUT-1225
p827
aVMAHOUT-1224
p828
aVMAHOUT-1223
p829
aVMAHOUT-1222
p830
aVMAHOUT-1221
p831
aVMAHOUT-1220
p832
aVMAHOUT-1219
p833
aVMAHOUT-1218
p834
aVMAHOUT-1217
p835
aVMAHOUT-1216
p836
aVMAHOUT-1215
p837
aVMAHOUT-1214
p838
aVMAHOUT-1213
p839
aVMAHOUT-1212
p840
aVMAHOUT-1211
p841
aVMAHOUT-1210
p842
aVMAHOUT-1209
p843
aVMAHOUT-1208
p844
aVMAHOUT-1207
p845
aVMAHOUT-1206
p846
aVMAHOUT-1205
p847
aVMAHOUT-1204
p848
aVMAHOUT-1203
p849
aVMAHOUT-1202
p850
aVMAHOUT-1201
p851
aVMAHOUT-1200
p852
aVMAHOUT-1199
p853
aVMAHOUT-1198
p854
aVMAHOUT-1197
p855
aVMAHOUT-1196
p856
aVMAHOUT-1195
p857
aVMAHOUT-1194
p858
aVMAHOUT-1193
p859
aVMAHOUT-1192
p860
aVMAHOUT-1191
p861
aVMAHOUT-1190
p862
aVMAHOUT-1189
p863
aVMAHOUT-1188
p864
aVMAHOUT-1187
p865
aVMAHOUT-1186
p866
aVMAHOUT-1185
p867
aVMAHOUT-1184
p868
aVMAHOUT-1183
p869
aVMAHOUT-1182
p870
aVMAHOUT-1181
p871
aVMAHOUT-1180
p872
aVMAHOUT-1179
p873
aVMAHOUT-1178
p874
aVMAHOUT-1177
p875
aVMAHOUT-1176
p876
aVMAHOUT-1175
p877
aVMAHOUT-1174
p878
aVMAHOUT-1173
p879
aVMAHOUT-1172
p880
aVMAHOUT-1171
p881
aVMAHOUT-1170
p882
aVMAHOUT-1169
p883
aVMAHOUT-1168
p884
aVMAHOUT-1167
p885
aVMAHOUT-1166
p886
aVMAHOUT-1165
p887
aVMAHOUT-1164
p888
aVMAHOUT-1163
p889
aVMAHOUT-1162
p890
aVMAHOUT-1161
p891
aVMAHOUT-1160
p892
aVMAHOUT-1159
p893
aVMAHOUT-1158
p894
aVMAHOUT-1157
p895
aVMAHOUT-1156
p896
aVMAHOUT-1155
p897
aVMAHOUT-1154
p898
aVMAHOUT-1153
p899
aVMAHOUT-1152
p900
aVMAHOUT-1151
p901
aVMAHOUT-1150
p902
aVMAHOUT-1149
p903
aVMAHOUT-1148
p904
aVMAHOUT-1147
p905
aVMAHOUT-1146
p906
aVMAHOUT-1145
p907
aVMAHOUT-1144
p908
aVMAHOUT-1143
p909
aVMAHOUT-1142
p910
aVMAHOUT-1141
p911
aVMAHOUT-1140
p912
aVMAHOUT-1139
p913
aVMAHOUT-1138
p914
aVMAHOUT-1137
p915
aVMAHOUT-1136
p916
aVMAHOUT-1135
p917
aVMAHOUT-1134
p918
aVMAHOUT-1133
p919
aVMAHOUT-1132
p920
aVMAHOUT-1131
p921
aVMAHOUT-1130
p922
aVMAHOUT-1129
p923
aVMAHOUT-1128
p924
aVMAHOUT-1127
p925
aVMAHOUT-1126
p926
aVMAHOUT-1125
p927
aVMAHOUT-1124
p928
aVMAHOUT-1123
p929
aVMAHOUT-1122
p930
aVMAHOUT-1121
p931
aVMAHOUT-1120
p932
aVMAHOUT-1119
p933
aVMAHOUT-1118
p934
aVMAHOUT-1117
p935
aVMAHOUT-1116
p936
aVMAHOUT-1115
p937
aVMAHOUT-1114
p938
aVMAHOUT-1113
p939
aVMAHOUT-1112
p940
aVMAHOUT-1111
p941
aVMAHOUT-1110
p942
aVMAHOUT-1109
p943
aVMAHOUT-1108
p944
aVMAHOUT-1107
p945
aVMAHOUT-1106
p946
aVMAHOUT-1105
p947
aVMAHOUT-1104
p948
aVMAHOUT-1103
p949
aVMAHOUT-1102
p950
aVMAHOUT-1101
p951
aVMAHOUT-1100
p952
aVMAHOUT-1099
p953
aVMAHOUT-1098
p954
aVMAHOUT-1097
p955
aVMAHOUT-1096
p956
aVMAHOUT-1095
p957
aVMAHOUT-1094
p958
aVMAHOUT-1093
p959
aVMAHOUT-1092
p960
aVMAHOUT-1091
p961
aVMAHOUT-1090
p962
aVMAHOUT-1089
p963
aVMAHOUT-1088
p964
aVMAHOUT-1087
p965
aVMAHOUT-1086
p966
aVMAHOUT-1085
p967
aVMAHOUT-1084
p968
aVMAHOUT-1083
p969
aVMAHOUT-1082
p970
aVMAHOUT-1081
p971
aVMAHOUT-1080
p972
aVMAHOUT-1079
p973
aVMAHOUT-1078
p974
aVMAHOUT-1077
p975
aVMAHOUT-1076
p976
aVMAHOUT-1075
p977
aVMAHOUT-1074
p978
aVMAHOUT-1073
p979
aVMAHOUT-1072
p980
aVMAHOUT-1071
p981
aVMAHOUT-1070
p982
aVMAHOUT-1069
p983
aVMAHOUT-1068
p984
aVMAHOUT-1067
p985
aVMAHOUT-1066
p986
aVMAHOUT-1065
p987
aVMAHOUT-1064
p988
aVMAHOUT-1063
p989
aVMAHOUT-1062
p990
aVMAHOUT-1061
p991
aVMAHOUT-1060
p992
aVMAHOUT-1059
p993
aVMAHOUT-1058
p994
aVMAHOUT-1057
p995
aVMAHOUT-1056
p996
aVMAHOUT-1055
p997
aVMAHOUT-1054
p998
aVMAHOUT-1053
p999
aVMAHOUT-1052
p1000
aVMAHOUT-1051
p1001
aVMAHOUT-1050
p1002
aVMAHOUT-1049
p1003
aVMAHOUT-1048
p1004
aVMAHOUT-1047
p1005
aVMAHOUT-1046
p1006
aVMAHOUT-1045
p1007
aVMAHOUT-1044
p1008
aVMAHOUT-1043
p1009
aVMAHOUT-1042
p1010
aVMAHOUT-1041
p1011
aVMAHOUT-1040
p1012
aVMAHOUT-1039
p1013
aVMAHOUT-1038
p1014
aVMAHOUT-1037
p1015
aVMAHOUT-1036
p1016
aVMAHOUT-1035
p1017
aVMAHOUT-1034
p1018
aVMAHOUT-1033
p1019
aVMAHOUT-1032
p1020
aVMAHOUT-1031
p1021
aVMAHOUT-1030
p1022
aVMAHOUT-1029
p1023
aVMAHOUT-1028
p1024
aVMAHOUT-1027
p1025
aVMAHOUT-1026
p1026
aVMAHOUT-1025
p1027
aVMAHOUT-1024
p1028
aVMAHOUT-1023
p1029
aVMAHOUT-1022
p1030
aVMAHOUT-1021
p1031
aVMAHOUT-1020
p1032
aVMAHOUT-1019
p1033
aVMAHOUT-1018
p1034
aVMAHOUT-1017
p1035
aVMAHOUT-1016
p1036
aVMAHOUT-1015
p1037
aVMAHOUT-1014
p1038
aVMAHOUT-1013
p1039
aVMAHOUT-1012
p1040
aVMAHOUT-1011
p1041
aVMAHOUT-1010
p1042
aVMAHOUT-1009
p1043
aVMAHOUT-1008
p1044
aVMAHOUT-1007
p1045
aVMAHOUT-1006
p1046
aVMAHOUT-1005
p1047
aVMAHOUT-1004
p1048
aVMAHOUT-1003
p1049
aVMAHOUT-1002
p1050
aVMAHOUT-1001
p1051
aVMAHOUT-1000
p1052
aVMAHOUT-999
p1053
aVMAHOUT-998
p1054
aVMAHOUT-997
p1055
aVMAHOUT-996
p1056
aVMAHOUT-995
p1057
aVMAHOUT-994
p1058
aVMAHOUT-993
p1059
aVMAHOUT-992
p1060
aVMAHOUT-991
p1061
aVMAHOUT-990
p1062
aVMAHOUT-989
p1063
aVMAHOUT-988
p1064
aVMAHOUT-987
p1065
aVMAHOUT-986
p1066
aVMAHOUT-985
p1067
aVMAHOUT-984
p1068
aVMAHOUT-983
p1069
aVMAHOUT-982
p1070
aVMAHOUT-981
p1071
aVMAHOUT-980
p1072
aVMAHOUT-979
p1073
aVMAHOUT-978
p1074
aVMAHOUT-977
p1075
aVMAHOUT-976
p1076
aVMAHOUT-975
p1077
aVMAHOUT-974
p1078
aVMAHOUT-973
p1079
aVMAHOUT-972
p1080
aVMAHOUT-971
p1081
aVMAHOUT-970
p1082
aVMAHOUT-969
p1083
aVMAHOUT-968
p1084
aVMAHOUT-967
p1085
aVMAHOUT-966
p1086
aVMAHOUT-965
p1087
aVMAHOUT-964
p1088
aVMAHOUT-963
p1089
aVMAHOUT-962
p1090
aVMAHOUT-961
p1091
aVMAHOUT-960
p1092
aVMAHOUT-959
p1093
aVMAHOUT-958
p1094
aVMAHOUT-957
p1095
aVMAHOUT-956
p1096
aVMAHOUT-955
p1097
aVMAHOUT-954
p1098
aVMAHOUT-953
p1099
aVMAHOUT-952
p1100
aVMAHOUT-951
p1101
aVMAHOUT-950
p1102
aVMAHOUT-949
p1103
aVMAHOUT-948
p1104
aVMAHOUT-947
p1105
aVMAHOUT-946
p1106
aVMAHOUT-945
p1107
aVMAHOUT-944
p1108
aVMAHOUT-943
p1109
aVMAHOUT-942
p1110
aVMAHOUT-941
p1111
aVMAHOUT-940
p1112
aVMAHOUT-939
p1113
aVMAHOUT-938
p1114
aVMAHOUT-937
p1115
aVMAHOUT-936
p1116
aVMAHOUT-935
p1117
aVMAHOUT-934
p1118
aVMAHOUT-933
p1119
aVMAHOUT-932
p1120
aVMAHOUT-931
p1121
aVMAHOUT-930
p1122
aVMAHOUT-929
p1123
aVMAHOUT-928
p1124
aVMAHOUT-927
p1125
aVMAHOUT-926
p1126
aVMAHOUT-925
p1127
aVMAHOUT-924
p1128
aVMAHOUT-923
p1129
aVMAHOUT-922
p1130
aVMAHOUT-921
p1131
aVMAHOUT-920
p1132
aVMAHOUT-919
p1133
aVMAHOUT-918
p1134
aVMAHOUT-917
p1135
aVMAHOUT-916
p1136
aVMAHOUT-915
p1137
aVMAHOUT-914
p1138
aVMAHOUT-913
p1139
aVMAHOUT-912
p1140
aVMAHOUT-911
p1141
aVMAHOUT-910
p1142
aVMAHOUT-909
p1143
aVMAHOUT-908
p1144
aVMAHOUT-907
p1145
aVMAHOUT-906
p1146
aVMAHOUT-905
p1147
aVMAHOUT-904
p1148
aVMAHOUT-903
p1149
aVMAHOUT-902
p1150
aVMAHOUT-901
p1151
aVMAHOUT-900
p1152
aVMAHOUT-899
p1153
aVMAHOUT-898
p1154
aVMAHOUT-897
p1155
aVMAHOUT-896
p1156
aVMAHOUT-895
p1157
aVMAHOUT-894
p1158
aVMAHOUT-893
p1159
aVMAHOUT-892
p1160
aVMAHOUT-891
p1161
aVMAHOUT-890
p1162
aVMAHOUT-889
p1163
aVMAHOUT-888
p1164
aVMAHOUT-887
p1165
aVMAHOUT-886
p1166
aVMAHOUT-885
p1167
aVMAHOUT-884
p1168
aVMAHOUT-883
p1169
aVMAHOUT-882
p1170
aVMAHOUT-881
p1171
aVMAHOUT-880
p1172
aVMAHOUT-879
p1173
aVMAHOUT-878
p1174
aVMAHOUT-877
p1175
aVMAHOUT-876
p1176
aVMAHOUT-875
p1177
aVMAHOUT-874
p1178
aVMAHOUT-873
p1179
aVMAHOUT-872
p1180
aVMAHOUT-871
p1181
aVMAHOUT-870
p1182
aVMAHOUT-869
p1183
aVMAHOUT-868
p1184
aVMAHOUT-867
p1185
aVMAHOUT-866
p1186
aVMAHOUT-865
p1187
aVMAHOUT-864
p1188
aVMAHOUT-863
p1189
aVMAHOUT-862
p1190
aVMAHOUT-861
p1191
aVMAHOUT-860
p1192
aVMAHOUT-859
p1193
aVMAHOUT-858
p1194
aVMAHOUT-857
p1195
aVMAHOUT-856
p1196
aVMAHOUT-855
p1197
aVMAHOUT-854
p1198
aVMAHOUT-853
p1199
aVMAHOUT-852
p1200
aVMAHOUT-851
p1201
aVMAHOUT-850
p1202
aVMAHOUT-849
p1203
aVMAHOUT-848
p1204
aVMAHOUT-847
p1205
aVMAHOUT-846
p1206
aVMAHOUT-845
p1207
aVMAHOUT-844
p1208
aVMAHOUT-843
p1209
aVMAHOUT-842
p1210
aVMAHOUT-841
p1211
aVMAHOUT-840
p1212
aVMAHOUT-839
p1213
aVMAHOUT-838
p1214
aVMAHOUT-837
p1215
aVMAHOUT-836
p1216
aVMAHOUT-835
p1217
aVMAHOUT-834
p1218
aVMAHOUT-833
p1219
aVMAHOUT-832
p1220
aVMAHOUT-831
p1221
aVMAHOUT-830
p1222
aVMAHOUT-829
p1223
aVMAHOUT-828
p1224
aVMAHOUT-827
p1225
aVMAHOUT-826
p1226
aVMAHOUT-825
p1227
aVMAHOUT-824
p1228
aVMAHOUT-823
p1229
aVMAHOUT-822
p1230
aVMAHOUT-821
p1231
aVMAHOUT-820
p1232
aVMAHOUT-819
p1233
aVMAHOUT-818
p1234
aVMAHOUT-817
p1235
aVMAHOUT-816
p1236
aVMAHOUT-815
p1237
aVMAHOUT-814
p1238
aVMAHOUT-813
p1239
aVMAHOUT-812
p1240
aVMAHOUT-811
p1241
aVMAHOUT-810
p1242
aVMAHOUT-809
p1243
aVMAHOUT-808
p1244
aVMAHOUT-807
p1245
aVMAHOUT-806
p1246
aVMAHOUT-805
p1247
aVMAHOUT-804
p1248
aVMAHOUT-803
p1249
aVMAHOUT-802
p1250
aVMAHOUT-801
p1251
aVMAHOUT-800
p1252
aVMAHOUT-799
p1253
aVMAHOUT-798
p1254
aVMAHOUT-797
p1255
aVMAHOUT-796
p1256
aVMAHOUT-795
p1257
aVMAHOUT-794
p1258
aVMAHOUT-793
p1259
aVMAHOUT-792
p1260
aVMAHOUT-791
p1261
aVMAHOUT-790
p1262
aVMAHOUT-789
p1263
aVMAHOUT-788
p1264
aVMAHOUT-787
p1265
aVMAHOUT-786
p1266
aVMAHOUT-785
p1267
aVMAHOUT-784
p1268
aVMAHOUT-783
p1269
aVMAHOUT-782
p1270
aVMAHOUT-781
p1271
aVMAHOUT-780
p1272
aVMAHOUT-779
p1273
aVMAHOUT-778
p1274
aVMAHOUT-777
p1275
aVMAHOUT-776
p1276
aVMAHOUT-775
p1277
aVMAHOUT-774
p1278
aVMAHOUT-773
p1279
aVMAHOUT-772
p1280
aVMAHOUT-771
p1281
aVMAHOUT-770
p1282
aVMAHOUT-769
p1283
aVMAHOUT-768
p1284
aVMAHOUT-767
p1285
aVMAHOUT-766
p1286
aVMAHOUT-765
p1287
aVMAHOUT-764
p1288
aVMAHOUT-763
p1289
aVMAHOUT-762
p1290
aVMAHOUT-761
p1291
aVMAHOUT-760
p1292
aVMAHOUT-759
p1293
aVMAHOUT-758
p1294
aVMAHOUT-757
p1295
aVMAHOUT-756
p1296
aVMAHOUT-755
p1297
aVMAHOUT-754
p1298
aVMAHOUT-753
p1299
aVMAHOUT-752
p1300
aVMAHOUT-751
p1301
aVMAHOUT-750
p1302
aVMAHOUT-749
p1303
aVMAHOUT-748
p1304
aVMAHOUT-747
p1305
aVMAHOUT-746
p1306
aVMAHOUT-745
p1307
aVMAHOUT-744
p1308
aVMAHOUT-743
p1309
aVMAHOUT-742
p1310
aVMAHOUT-741
p1311
aVMAHOUT-740
p1312
aVMAHOUT-739
p1313
aVMAHOUT-738
p1314
aVMAHOUT-737
p1315
aVMAHOUT-736
p1316
aVMAHOUT-735
p1317
aVMAHOUT-734
p1318
aVMAHOUT-733
p1319
aVMAHOUT-732
p1320
aVMAHOUT-731
p1321
aVMAHOUT-730
p1322
aVMAHOUT-729
p1323
aVMAHOUT-728
p1324
aVMAHOUT-727
p1325
aVMAHOUT-726
p1326
aVMAHOUT-725
p1327
aVMAHOUT-724
p1328
aVMAHOUT-723
p1329
aVMAHOUT-722
p1330
aVMAHOUT-721
p1331
aVMAHOUT-720
p1332
aVMAHOUT-719
p1333
aVMAHOUT-718
p1334
aVMAHOUT-717
p1335
aVMAHOUT-716
p1336
aVMAHOUT-715
p1337
aVMAHOUT-714
p1338
aVMAHOUT-713
p1339
aVMAHOUT-712
p1340
aVMAHOUT-711
p1341
aVMAHOUT-710
p1342
aVMAHOUT-709
p1343
aVMAHOUT-708
p1344
aVMAHOUT-707
p1345
aVMAHOUT-706
p1346
aVMAHOUT-705
p1347
aVMAHOUT-704
p1348
aVMAHOUT-703
p1349
aVMAHOUT-702
p1350
aVMAHOUT-701
p1351
aVMAHOUT-700
p1352
aVMAHOUT-699
p1353
aVMAHOUT-698
p1354
aVMAHOUT-697
p1355
aVMAHOUT-696
p1356
aVMAHOUT-695
p1357
aVMAHOUT-694
p1358
aVMAHOUT-693
p1359
aVMAHOUT-692
p1360
aVMAHOUT-691
p1361
aVMAHOUT-690
p1362
aVMAHOUT-689
p1363
aVMAHOUT-688
p1364
aVMAHOUT-687
p1365
aVMAHOUT-686
p1366
aVMAHOUT-685
p1367
aVMAHOUT-684
p1368
aVMAHOUT-683
p1369
aVMAHOUT-682
p1370
aVMAHOUT-681
p1371
aVMAHOUT-680
p1372
aVMAHOUT-679
p1373
aVMAHOUT-678
p1374
aVMAHOUT-677
p1375
aVMAHOUT-676
p1376
aVMAHOUT-675
p1377
aVMAHOUT-674
p1378
aVMAHOUT-673
p1379
aVMAHOUT-672
p1380
aVMAHOUT-671
p1381
aVMAHOUT-670
p1382
aVMAHOUT-669
p1383
aVMAHOUT-668
p1384
aVMAHOUT-667
p1385
aVMAHOUT-666
p1386
aVMAHOUT-665
p1387
aVMAHOUT-664
p1388
aVMAHOUT-663
p1389
aVMAHOUT-661
p1390
aVMAHOUT-660
p1391
aVMAHOUT-659
p1392
aVMAHOUT-658
p1393
aVMAHOUT-657
p1394
aVMAHOUT-656
p1395
aVMAHOUT-655
p1396
aVMAHOUT-654
p1397
aVMAHOUT-653
p1398
aVMAHOUT-652
p1399
aVMAHOUT-651
p1400
aVMAHOUT-650
p1401
aVMAHOUT-649
p1402
aVMAHOUT-648
p1403
aVMAHOUT-647
p1404
aVMAHOUT-646
p1405
aVMAHOUT-645
p1406
aVMAHOUT-644
p1407
aVMAHOUT-643
p1408
aVMAHOUT-642
p1409
aVMAHOUT-641
p1410
aVMAHOUT-640
p1411
aVMAHOUT-639
p1412
aVMAHOUT-638
p1413
aVMAHOUT-637
p1414
aVMAHOUT-636
p1415
aVMAHOUT-635
p1416
aVMAHOUT-634
p1417
aVMAHOUT-633
p1418
aVMAHOUT-632
p1419
aVMAHOUT-631
p1420
aVMAHOUT-630
p1421
aVMAHOUT-629
p1422
aVMAHOUT-628
p1423
aVMAHOUT-627
p1424
aVMAHOUT-626
p1425
aVMAHOUT-625
p1426
aVMAHOUT-624
p1427
aVMAHOUT-623
p1428
aVMAHOUT-622
p1429
aVMAHOUT-621
p1430
aVMAHOUT-620
p1431
aVMAHOUT-619
p1432
aVMAHOUT-618
p1433
aVMAHOUT-617
p1434
aVMAHOUT-616
p1435
aVMAHOUT-615
p1436
aVMAHOUT-614
p1437
aVMAHOUT-613
p1438
aVMAHOUT-612
p1439
aVMAHOUT-611
p1440
aVMAHOUT-610
p1441
aVMAHOUT-609
p1442
aVMAHOUT-608
p1443
aVMAHOUT-607
p1444
aVMAHOUT-606
p1445
aVMAHOUT-605
p1446
aVMAHOUT-604
p1447
aVMAHOUT-603
p1448
aVMAHOUT-602
p1449
aVMAHOUT-601
p1450
aVMAHOUT-600
p1451
aVMAHOUT-599
p1452
aVMAHOUT-598
p1453
aVMAHOUT-597
p1454
aVMAHOUT-596
p1455
aVMAHOUT-595
p1456
aVMAHOUT-594
p1457
aVMAHOUT-593
p1458
aVMAHOUT-592
p1459
aVMAHOUT-591
p1460
aVMAHOUT-590
p1461
aVMAHOUT-589
p1462
aVMAHOUT-588
p1463
aVMAHOUT-587
p1464
aVMAHOUT-586
p1465
aVMAHOUT-585
p1466
aVMAHOUT-584
p1467
aVMAHOUT-583
p1468
aVMAHOUT-582
p1469
aVMAHOUT-581
p1470
aVMAHOUT-580
p1471
aVMAHOUT-579
p1472
aVMAHOUT-578
p1473
aVMAHOUT-577
p1474
aVMAHOUT-576
p1475
aVMAHOUT-575
p1476
aVMAHOUT-574
p1477
aVMAHOUT-573
p1478
aVMAHOUT-572
p1479
aVMAHOUT-571
p1480
aVMAHOUT-570
p1481
aVMAHOUT-569
p1482
aVMAHOUT-568
p1483
aVMAHOUT-567
p1484
aVMAHOUT-566
p1485
aVMAHOUT-565
p1486
aVMAHOUT-564
p1487
aVMAHOUT-563
p1488
aVMAHOUT-562
p1489
aVMAHOUT-561
p1490
aVMAHOUT-560
p1491
aVMAHOUT-559
p1492
aVMAHOUT-558
p1493
aVMAHOUT-557
p1494
aVMAHOUT-556
p1495
aVMAHOUT-555
p1496
aVMAHOUT-554
p1497
aVMAHOUT-553
p1498
aVMAHOUT-552
p1499
aVMAHOUT-551
p1500
aVMAHOUT-550
p1501
aVMAHOUT-549
p1502
aVMAHOUT-548
p1503
aVMAHOUT-547
p1504
aVMAHOUT-546
p1505
aVMAHOUT-545
p1506
aVMAHOUT-544
p1507
aVMAHOUT-543
p1508
aVMAHOUT-542
p1509
aVMAHOUT-541
p1510
aVMAHOUT-540
p1511
aVMAHOUT-539
p1512
aVMAHOUT-538
p1513
aVMAHOUT-537
p1514
aVMAHOUT-536
p1515
aVMAHOUT-535
p1516
aVMAHOUT-534
p1517
aVMAHOUT-533
p1518
aVMAHOUT-532
p1519
aVMAHOUT-531
p1520
aVMAHOUT-530
p1521
aVMAHOUT-529
p1522
aVMAHOUT-528
p1523
aVMAHOUT-527
p1524
aVMAHOUT-526
p1525
aVMAHOUT-525
p1526
aVMAHOUT-524
p1527
aVMAHOUT-523
p1528
aVMAHOUT-522
p1529
aVMAHOUT-521
p1530
aVMAHOUT-520
p1531
aVMAHOUT-519
p1532
aVMAHOUT-518
p1533
aVMAHOUT-517
p1534
aVMAHOUT-516
p1535
aVMAHOUT-515
p1536
aVMAHOUT-514
p1537
aVMAHOUT-513
p1538
aVMAHOUT-512
p1539
aVMAHOUT-511
p1540
aVMAHOUT-510
p1541
aVMAHOUT-509
p1542
aVMAHOUT-508
p1543
aVMAHOUT-507
p1544
aVMAHOUT-506
p1545
aVMAHOUT-505
p1546
aVMAHOUT-504
p1547
aVMAHOUT-503
p1548
aVMAHOUT-502
p1549
aVMAHOUT-501
p1550
aVMAHOUT-500
p1551
aVMAHOUT-499
p1552
aVMAHOUT-498
p1553
aVMAHOUT-497
p1554
aVMAHOUT-496
p1555
aVMAHOUT-495
p1556
aVMAHOUT-494
p1557
aVMAHOUT-493
p1558
aVMAHOUT-492
p1559
aVMAHOUT-491
p1560
aVMAHOUT-490
p1561
aVMAHOUT-489
p1562
aVMAHOUT-488
p1563
aVMAHOUT-487
p1564
aVMAHOUT-486
p1565
aVMAHOUT-485
p1566
aVMAHOUT-484
p1567
aVMAHOUT-483
p1568
aVMAHOUT-482
p1569
aVMAHOUT-481
p1570
aVMAHOUT-480
p1571
aVMAHOUT-479
p1572
aVMAHOUT-478
p1573
aVMAHOUT-477
p1574
aVMAHOUT-476
p1575
aVMAHOUT-475
p1576
aVMAHOUT-474
p1577
aVMAHOUT-473
p1578
aVMAHOUT-472
p1579
aVMAHOUT-471
p1580
aVMAHOUT-470
p1581
aVMAHOUT-469
p1582
aVMAHOUT-468
p1583
aVMAHOUT-467
p1584
aVMAHOUT-466
p1585
aVMAHOUT-465
p1586
aVMAHOUT-464
p1587
aVMAHOUT-463
p1588
aVMAHOUT-462
p1589
aVMAHOUT-461
p1590
aVMAHOUT-460
p1591
aVMAHOUT-459
p1592
aVMAHOUT-458
p1593
aVMAHOUT-457
p1594
aVMAHOUT-456
p1595
aVMAHOUT-455
p1596
aVMAHOUT-454
p1597
aVMAHOUT-453
p1598
aVMAHOUT-452
p1599
aVMAHOUT-451
p1600
aVMAHOUT-450
p1601
aVMAHOUT-449
p1602
aVMAHOUT-448
p1603
aVMAHOUT-447
p1604
aVMAHOUT-446
p1605
aVMAHOUT-445
p1606
aVMAHOUT-444
p1607
aVMAHOUT-443
p1608
aVMAHOUT-442
p1609
aVMAHOUT-441
p1610
aVMAHOUT-440
p1611
aVMAHOUT-439
p1612
aVMAHOUT-438
p1613
aVMAHOUT-437
p1614
aVMAHOUT-436
p1615
aVMAHOUT-435
p1616
aVMAHOUT-434
p1617
aVMAHOUT-433
p1618
aVMAHOUT-432
p1619
aVMAHOUT-431
p1620
aVMAHOUT-430
p1621
aVMAHOUT-429
p1622
aVMAHOUT-428
p1623
aVMAHOUT-427
p1624
aVMAHOUT-426
p1625
aVMAHOUT-425
p1626
aVMAHOUT-424
p1627
aVMAHOUT-423
p1628
aVMAHOUT-422
p1629
aVMAHOUT-421
p1630
aVMAHOUT-420
p1631
aVMAHOUT-419
p1632
aVMAHOUT-418
p1633
aVMAHOUT-417
p1634
aVMAHOUT-416
p1635
aVMAHOUT-415
p1636
aVMAHOUT-414
p1637
aVMAHOUT-413
p1638
aVMAHOUT-412
p1639
aVMAHOUT-411
p1640
aVMAHOUT-410
p1641
aVMAHOUT-409
p1642
aVMAHOUT-408
p1643
aVMAHOUT-407
p1644
aVMAHOUT-406
p1645
aVMAHOUT-405
p1646
aVMAHOUT-404
p1647
aVMAHOUT-403
p1648
aVMAHOUT-402
p1649
aVMAHOUT-401
p1650
aVMAHOUT-400
p1651
aVMAHOUT-399
p1652
aVMAHOUT-398
p1653
aVMAHOUT-397
p1654
aVMAHOUT-396
p1655
aVMAHOUT-395
p1656
aVMAHOUT-394
p1657
aVMAHOUT-393
p1658
aVMAHOUT-392
p1659
aVMAHOUT-391
p1660
aVMAHOUT-390
p1661
aVMAHOUT-389
p1662
aVMAHOUT-388
p1663
aVMAHOUT-387
p1664
aVMAHOUT-386
p1665
aVMAHOUT-385
p1666
aVMAHOUT-384
p1667
aVMAHOUT-383
p1668
aVMAHOUT-382
p1669
aVMAHOUT-381
p1670
aVMAHOUT-380
p1671
aVMAHOUT-379
p1672
aVMAHOUT-378
p1673
aVMAHOUT-377
p1674
aVMAHOUT-376
p1675
aVMAHOUT-375
p1676
aVMAHOUT-374
p1677
aVMAHOUT-373
p1678
aVMAHOUT-372
p1679
aVMAHOUT-371
p1680
aVMAHOUT-370
p1681
aVMAHOUT-369
p1682
aVMAHOUT-368
p1683
aVMAHOUT-367
p1684
aVMAHOUT-366
p1685
aVMAHOUT-365
p1686
aVMAHOUT-364
p1687
aVMAHOUT-363
p1688
aVMAHOUT-362
p1689
aVMAHOUT-361
p1690
aVMAHOUT-360
p1691
aVMAHOUT-359
p1692
aVMAHOUT-358
p1693
aVMAHOUT-357
p1694
aVMAHOUT-356
p1695
aVMAHOUT-355
p1696
aVMAHOUT-354
p1697
aVMAHOUT-353
p1698
aVMAHOUT-352
p1699
aVMAHOUT-351
p1700
aVMAHOUT-350
p1701
aVMAHOUT-349
p1702
aVMAHOUT-348
p1703
aVMAHOUT-347
p1704
aVMAHOUT-346
p1705
aVMAHOUT-345
p1706
aVMAHOUT-344
p1707
aVMAHOUT-343
p1708
aVMAHOUT-342
p1709
aVMAHOUT-341
p1710
aVMAHOUT-340
p1711
aVMAHOUT-339
p1712
aVMAHOUT-338
p1713
aVMAHOUT-337
p1714
aVMAHOUT-336
p1715
aVMAHOUT-335
p1716
aVMAHOUT-334
p1717
aVMAHOUT-333
p1718
aVMAHOUT-332
p1719
aVMAHOUT-331
p1720
aVMAHOUT-330
p1721
aVMAHOUT-329
p1722
aVMAHOUT-328
p1723
aVMAHOUT-327
p1724
aVMAHOUT-326
p1725
aVMAHOUT-325
p1726
aVMAHOUT-324
p1727
aVMAHOUT-323
p1728
aVMAHOUT-322
p1729
aVMAHOUT-321
p1730
aVMAHOUT-320
p1731
aVMAHOUT-319
p1732
aVMAHOUT-318
p1733
aVMAHOUT-317
p1734
aVMAHOUT-316
p1735
aVMAHOUT-315
p1736
aVMAHOUT-314
p1737
aVMAHOUT-313
p1738
aVMAHOUT-312
p1739
aVMAHOUT-311
p1740
aVMAHOUT-310
p1741
aVMAHOUT-309
p1742
aVMAHOUT-308
p1743
aVMAHOUT-307
p1744
aVMAHOUT-306
p1745
aVMAHOUT-305
p1746
aVMAHOUT-304
p1747
aVMAHOUT-303
p1748
aVMAHOUT-302
p1749
aVMAHOUT-301
p1750
aVMAHOUT-300
p1751
aVMAHOUT-299
p1752
aVMAHOUT-298
p1753
aVMAHOUT-297
p1754
aVMAHOUT-296
p1755
aVMAHOUT-295
p1756
aVMAHOUT-294
p1757
aVMAHOUT-293
p1758
aVMAHOUT-292
p1759
aVMAHOUT-291
p1760
aVMAHOUT-290
p1761
aVMAHOUT-289
p1762
aVMAHOUT-288
p1763
aVMAHOUT-287
p1764
aVMAHOUT-286
p1765
aVMAHOUT-285
p1766
aVMAHOUT-284
p1767
aVMAHOUT-283
p1768
aVMAHOUT-282
p1769
aVMAHOUT-281
p1770
aVMAHOUT-280
p1771
aVMAHOUT-279
p1772
aVMAHOUT-278
p1773
aVMAHOUT-277
p1774
aVMAHOUT-276
p1775
aVMAHOUT-275
p1776
aVMAHOUT-274
p1777
aVMAHOUT-273
p1778
aVMAHOUT-272
p1779
aVMAHOUT-271
p1780
aVMAHOUT-270
p1781
aVMAHOUT-269
p1782
aVMAHOUT-268
p1783
aVMAHOUT-267
p1784
aVMAHOUT-266
p1785
aVMAHOUT-265
p1786
aVMAHOUT-264
p1787
aVMAHOUT-263
p1788
aVMAHOUT-262
p1789
aVMAHOUT-261
p1790
aVMAHOUT-260
p1791
aVMAHOUT-259
p1792
aVMAHOUT-258
p1793
aVMAHOUT-257
p1794
aVMAHOUT-256
p1795
aVMAHOUT-255
p1796
aVMAHOUT-254
p1797
aVMAHOUT-253
p1798
aVMAHOUT-252
p1799
aVMAHOUT-251
p1800
aVMAHOUT-250
p1801
aVMAHOUT-249
p1802
aVMAHOUT-248
p1803
aVMAHOUT-247
p1804
aVMAHOUT-246
p1805
aVMAHOUT-245
p1806
aVMAHOUT-244
p1807
aVMAHOUT-243
p1808
aVMAHOUT-242
p1809
aVMAHOUT-241
p1810
aVMAHOUT-240
p1811
aVMAHOUT-239
p1812
aVMAHOUT-238
p1813
aVMAHOUT-237
p1814
aVMAHOUT-236
p1815
aVMAHOUT-235
p1816
aVMAHOUT-234
p1817
aVMAHOUT-233
p1818
aVMAHOUT-232
p1819
aVMAHOUT-231
p1820
aVMAHOUT-230
p1821
aVMAHOUT-229
p1822
aVMAHOUT-228
p1823
aVMAHOUT-227
p1824
aVMAHOUT-226
p1825
aVMAHOUT-225
p1826
aVMAHOUT-224
p1827
aVMAHOUT-223
p1828
aVMAHOUT-222
p1829
aVMAHOUT-221
p1830
aVMAHOUT-220
p1831
aVMAHOUT-219
p1832
aVMAHOUT-218
p1833
aVMAHOUT-217
p1834
aVMAHOUT-216
p1835
aVMAHOUT-215
p1836
aVMAHOUT-214
p1837
aVMAHOUT-213
p1838
aVMAHOUT-212
p1839
aVMAHOUT-211
p1840
aVMAHOUT-210
p1841
aVMAHOUT-209
p1842
aVMAHOUT-208
p1843
aVMAHOUT-207
p1844
aVMAHOUT-206
p1845
aVMAHOUT-205
p1846
aVMAHOUT-204
p1847
aVMAHOUT-203
p1848
aVMAHOUT-202
p1849
aVMAHOUT-201
p1850
aVMAHOUT-200
p1851
aVMAHOUT-199
p1852
aVMAHOUT-198
p1853
aVMAHOUT-197
p1854
aVMAHOUT-196
p1855
aVMAHOUT-195
p1856
aVMAHOUT-194
p1857
aVMAHOUT-193
p1858
aVMAHOUT-192
p1859
aVMAHOUT-191
p1860
aVMAHOUT-190
p1861
aVMAHOUT-189
p1862
aVMAHOUT-188
p1863
aVMAHOUT-187
p1864
aVMAHOUT-186
p1865
aVMAHOUT-185
p1866
aVMAHOUT-184
p1867
aVMAHOUT-183
p1868
aVMAHOUT-182
p1869
aVMAHOUT-181
p1870
aVMAHOUT-180
p1871
aVMAHOUT-179
p1872
aVMAHOUT-178
p1873
aVMAHOUT-177
p1874
aVMAHOUT-176
p1875
aVMAHOUT-175
p1876
aVMAHOUT-174
p1877
aVMAHOUT-173
p1878
aVMAHOUT-172
p1879
aVMAHOUT-171
p1880
aVMAHOUT-170
p1881
aVMAHOUT-169
p1882
aVMAHOUT-168
p1883
aVMAHOUT-167
p1884
aVMAHOUT-166
p1885
aVMAHOUT-165
p1886
aVMAHOUT-164
p1887
aVMAHOUT-163
p1888
aVMAHOUT-162
p1889
aVMAHOUT-161
p1890
aVMAHOUT-160
p1891
aVMAHOUT-159
p1892
aVMAHOUT-158
p1893
aVMAHOUT-157
p1894
aVMAHOUT-156
p1895
aVMAHOUT-155
p1896
aVMAHOUT-154
p1897
aVMAHOUT-153
p1898
aVMAHOUT-152
p1899
aVMAHOUT-151
p1900
aVMAHOUT-150
p1901
aVMAHOUT-149
p1902
aVMAHOUT-148
p1903
aVMAHOUT-147
p1904
aVMAHOUT-146
p1905
aVMAHOUT-145
p1906
aVMAHOUT-144
p1907
aVMAHOUT-143
p1908
aVMAHOUT-142
p1909
aVMAHOUT-141
p1910
aVMAHOUT-140
p1911
aVMAHOUT-139
p1912
aVMAHOUT-138
p1913
aVMAHOUT-137
p1914
aVMAHOUT-136
p1915
aVMAHOUT-135
p1916
aVMAHOUT-134
p1917
aVMAHOUT-133
p1918
aVMAHOUT-132
p1919
aVMAHOUT-131
p1920
aVMAHOUT-130
p1921
aVMAHOUT-129
p1922
aVMAHOUT-128
p1923
aVMAHOUT-127
p1924
aVMAHOUT-126
p1925
aVMAHOUT-125
p1926
aVMAHOUT-124
p1927
aVMAHOUT-123
p1928
aVMAHOUT-122
p1929
aVMAHOUT-121
p1930
aVMAHOUT-120
p1931
aVMAHOUT-119
p1932
aVMAHOUT-118
p1933
aVMAHOUT-117
p1934
aVMAHOUT-116
p1935
aVMAHOUT-115
p1936
aVMAHOUT-114
p1937
aVMAHOUT-113
p1938
aVMAHOUT-112
p1939
aVMAHOUT-111
p1940
aVMAHOUT-110
p1941
aVMAHOUT-109
p1942
aVMAHOUT-108
p1943
aVMAHOUT-107
p1944
aVMAHOUT-106
p1945
aVMAHOUT-105
p1946
aVMAHOUT-104
p1947
aVMAHOUT-103
p1948
aVMAHOUT-102
p1949
aVMAHOUT-101
p1950
aVMAHOUT-100
p1951
aVMAHOUT-99
p1952
aVMAHOUT-98
p1953
aVMAHOUT-97
p1954
aVMAHOUT-96
p1955
aVMAHOUT-95
p1956
aVMAHOUT-94
p1957
aVMAHOUT-93
p1958
aVMAHOUT-92
p1959
aVMAHOUT-91
p1960
aVMAHOUT-90
p1961
aVMAHOUT-89
p1962
aVMAHOUT-88
p1963
aVMAHOUT-87
p1964
aVMAHOUT-86
p1965
aVMAHOUT-85
p1966
aVMAHOUT-84
p1967
aVMAHOUT-83
p1968
aVMAHOUT-82
p1969
aVMAHOUT-81
p1970
aVMAHOUT-80
p1971
aVMAHOUT-79
p1972
aVMAHOUT-78
p1973
aVMAHOUT-77
p1974
aVMAHOUT-76
p1975
aVMAHOUT-75
p1976
aVMAHOUT-74
p1977
aVMAHOUT-73
p1978
aVMAHOUT-72
p1979
aVMAHOUT-71
p1980
aVMAHOUT-70
p1981
aVMAHOUT-69
p1982
aVMAHOUT-68
p1983
aVMAHOUT-67
p1984
aVMAHOUT-66
p1985
aVMAHOUT-65
p1986
aVMAHOUT-64
p1987
aVMAHOUT-63
p1988
aVMAHOUT-62
p1989
aVMAHOUT-61
p1990
aVMAHOUT-60
p1991
aVMAHOUT-59
p1992
aVMAHOUT-58
p1993
aVMAHOUT-57
p1994
aVMAHOUT-56
p1995
aVMAHOUT-55
p1996
aVMAHOUT-54
p1997
aVMAHOUT-53
p1998
aVMAHOUT-52
p1999
aVMAHOUT-51
p2000
aVMAHOUT-50
p2001
aVMAHOUT-49
p2002
aVMAHOUT-48
p2003
aVMAHOUT-47
p2004
aVMAHOUT-46
p2005
aVMAHOUT-45
p2006
aVMAHOUT-44
p2007
aVMAHOUT-43
p2008
aVMAHOUT-42
p2009
aVMAHOUT-41
p2010
aVMAHOUT-40
p2011
aVMAHOUT-39
p2012
aVMAHOUT-38
p2013
aVMAHOUT-37
p2014
aVMAHOUT-36
p2015
aVMAHOUT-35
p2016
aVMAHOUT-34
p2017
aVMAHOUT-33
p2018
aVMAHOUT-32
p2019
aVMAHOUT-31
p2020
aVMAHOUT-30
p2021
aVMAHOUT-29
p2022
aVMAHOUT-28
p2023
aVMAHOUT-27
p2024
aVMAHOUT-26
p2025
aVMAHOUT-25
p2026
aVMAHOUT-24
p2027
aVMAHOUT-23
p2028
aVMAHOUT-22
p2029
aVMAHOUT-21
p2030
aVMAHOUT-20
p2031
aVMAHOUT-19
p2032
aVMAHOUT-18
p2033
aVMAHOUT-17
p2034
aVMAHOUT-16
p2035
aVMAHOUT-15
p2036
aVMAHOUT-14
p2037
aVMAHOUT-13
p2038
aVMAHOUT-12
p2039
aVMAHOUT-11
p2040
aVMAHOUT-10
p2041
aVMAHOUT-9
p2042
aVMAHOUT-8
p2043
aVMAHOUT-7
p2044
aVMAHOUT-6
p2045
aVMAHOUT-5
p2046
aVMAHOUT-4
p2047
aVMAHOUT-3
p2048
aVMAHOUT-2
p2049
aVMAHOUT-1
p2050
a.