(lp0
VMANTRUN-215
p1
aVMANTRUN-214
p2
aVMANTRUN-213
p3
aVMANTRUN-212
p4
aVMANTRUN-211
p5
aVMANTRUN-210
p6
aVMANTRUN-209
p7
aVMANTRUN-208
p8
aVMANTRUN-207
p9
aVMANTRUN-206
p10
aVMANTRUN-205
p11
aVMANTRUN-204
p12
aVMANTRUN-203
p13
aVMANTRUN-202
p14
aVMANTRUN-201
p15
aVMANTRUN-200
p16
aVMANTRUN-199
p17
aVMANTRUN-198
p18
aVMANTRUN-197
p19
aVMANTRUN-196
p20
aVMANTRUN-195
p21
aVMANTRUN-194
p22
aVMANTRUN-193
p23
aVMANTRUN-192
p24
aVMANTRUN-191
p25
aVMANTRUN-190
p26
aVMANTRUN-189
p27
aVMANTRUN-188
p28
aVMANTRUN-187
p29
aVMANTRUN-186
p30
aVMANTRUN-185
p31
aVMANTRUN-184
p32
aVMANTRUN-183
p33
aVMANTRUN-182
p34
aVMANTRUN-181
p35
aVMANTRUN-180
p36
aVMANTRUN-179
p37
aVMANTRUN-178
p38
aVMANTRUN-177
p39
aVMANTRUN-176
p40
aVMANTRUN-175
p41
aVMANTRUN-174
p42
aVMANTRUN-172
p43
aVMANTRUN-171
p44
aVMANTRUN-170
p45
aVMANTRUN-169
p46
aVMANTRUN-168
p47
aVMANTRUN-167
p48
aVMANTRUN-166
p49
aVMANTRUN-165
p50
aVMANTRUN-164
p51
aVMANTRUN-163
p52
aVMANTRUN-162
p53
aVMANTRUN-161
p54
aVMANTRUN-160
p55
aVMANTRUN-159
p56
aVMANTRUN-158
p57
aVMANTRUN-156
p58
aVMANTRUN-155
p59
aVMANTRUN-154
p60
aVMANTRUN-152
p61
aVMANTRUN-151
p62
aVMANTRUN-150
p63
aVMANTRUN-149
p64
aVMANTRUN-147
p65
aVMANTRUN-146
p66
aVMANTRUN-145
p67
aVMANTRUN-144
p68
aVMANTRUN-143
p69
aVMANTRUN-142
p70
aVMANTRUN-141
p71
aVMANTRUN-140
p72
aVMANTRUN-139
p73
aVMANTRUN-138
p74
aVMANTRUN-137
p75
aVMANTRUN-136
p76
aVMANTRUN-135
p77
aVMANTRUN-133
p78
aVMANTRUN-132
p79
aVMANTRUN-131
p80
aVMANTRUN-130
p81
aVMANTRUN-129
p82
aVMANTRUN-128
p83
aVMANTRUN-127
p84
aVMANTRUN-126
p85
aVMANTRUN-125
p86
aVMANTRUN-124
p87
aVMANTRUN-123
p88
aVMANTRUN-122
p89
aVMANTRUN-121
p90
aVMANTRUN-120
p91
aVMANTRUN-119
p92
aVMANTRUN-112
p93
aVMANTRUN-111
p94
aVMANTRUN-110
p95
aVMANTRUN-109
p96
aVMANTRUN-107
p97
aVMANTRUN-106
p98
aVMANTRUN-105
p99
aVMANTRUN-104
p100
aVMANTRUN-102
p101
aVMANTRUN-101
p102
aVMANTRUN-100
p103
aVMANTRUN-99
p104
aVMANTRUN-98
p105
aVMANTRUN-97
p106
aVMANTRUN-96
p107
aVMANTRUN-95
p108
aVMANTRUN-94
p109
aVMANTRUN-93
p110
aVMANTRUN-92
p111
aVMANTRUN-91
p112
aVMANTRUN-90
p113
aVMANTRUN-88
p114
aVMANTRUN-87
p115
aVMANTRUN-86
p116
aVMANTRUN-85
p117
aVMANTRUN-84
p118
aVMANTRUN-83
p119
aVMANTRUN-82
p120
aVMANTRUN-81
p121
aVMANTRUN-80
p122
aVMANTRUN-79
p123
aVMANTRUN-78
p124
aVMANTRUN-76
p125
aVMANTRUN-75
p126
aVMANTRUN-74
p127
aVMANTRUN-73
p128
aVMANTRUN-72
p129
aVMANTRUN-71
p130
aVMANTRUN-70
p131
aVMANTRUN-69
p132
aVMANTRUN-68
p133
aVMANTRUN-67
p134
aVMANTRUN-66
p135
aVMANTRUN-65
p136
aVMANTRUN-64
p137
aVMANTRUN-63
p138
aVMANTRUN-62
p139
aVMANTRUN-61
p140
aVMANTRUN-60
p141
aVMANTRUN-59
p142
aVMANTRUN-58
p143
aVMANTRUN-57
p144
aVMANTRUN-56
p145
aVMANTRUN-55
p146
aVMANTRUN-54
p147
aVMANTRUN-53
p148
aVMANTRUN-52
p149
aVMANTRUN-51
p150
aVMANTRUN-50
p151
aVMANTRUN-49
p152
aVMANTRUN-48
p153
aVMANTRUN-47
p154
aVMANTRUN-46
p155
aVMANTRUN-45
p156
aVMANTRUN-44
p157
aVMANTRUN-43
p158
aVMANTRUN-42
p159
aVMANTRUN-41
p160
aVMANTRUN-40
p161
aVMANTRUN-39
p162
aVMANTRUN-38
p163
aVMANTRUN-37
p164
aVMANTRUN-36
p165
aVMANTRUN-35
p166
aVMANTRUN-34
p167
aVMANTRUN-33
p168
aVMANTRUN-32
p169
aVMANTRUN-31
p170
aVMANTRUN-30
p171
aVMANTRUN-29
p172
aVMANTRUN-28
p173
aVMANTRUN-27
p174
aVMANTRUN-26
p175
aVMANTRUN-25
p176
aVMANTRUN-24
p177
aVMANTRUN-23
p178
aVMANTRUN-22
p179
aVMANTRUN-21
p180
aVMANTRUN-20
p181
aVMANTRUN-19
p182
aVMANTRUN-15
p183
a.