(lp0
VMANT-87
p1
aVMANT-86
p2
aVMANT-85
p3
aVMANT-84
p4
aVMANT-83
p5
aVMANT-82
p6
aVMANT-81
p7
aVMANT-80
p8
aVMANT-79
p9
aVMANT-77
p10
aVMANT-76
p11
aVMANT-75
p12
aVMANT-74
p13
aVMANT-73
p14
aVMANT-72
p15
aVMANT-71
p16
aVMANT-69
p17
aVMANT-68
p18
aVMANT-67
p19
aVMANT-66
p20
aVMANT-65
p21
aVMANT-64
p22
aVMANT-63
p23
aVMANT-62
p24
aVMANT-61
p25
aVMANT-60
p26
aVMANT-59
p27
aVMANT-54
p28
aVMANT-53
p29
aVMANT-52
p30
aVMANT-51
p31
aVMANT-50
p32
aVMANT-49
p33
aVMANT-48
p34
aVMANT-47
p35
aVMANT-46
p36
aVMANT-45
p37
aVMANT-44
p38
aVMANT-42
p39
aVMANT-41
p40
aVMANT-40
p41
aVMANT-39
p42
aVMANT-38
p43
aVMANT-37
p44
aVMANT-36
p45
aVMANT-35
p46
aVMANT-34
p47
aVMANT-33
p48
aVMANT-32
p49
aVMANT-31
p50
aVMANT-30
p51
aVMANT-29
p52
aVMANT-27
p53
aVMANT-25
p54
aVMANT-24
p55
aVMANT-23
p56
aVMANT-22
p57
aVMANT-19
p58
aVMANT-18
p59
aVMANT-17
p60
aVMANT-16
p61
aVMANT-15
p62
aVMANT-14
p63
aVMANT-13
p64
aVMANT-12
p65
aVMANT-11
p66
aVMANT-10
p67
aVMANT-9
p68
aVMANT-8
p69
aVMANT-7
p70
aVMANT-6
p71
aVMANT-5
p72
aVMANT-4
p73
aVMANT-3
p74
aVMANT-2
p75
aVMANT-1
p76
a.