(lp0
VMARMOTTA-673
p1
aVMARMOTTA-672
p2
aVMARMOTTA-671
p3
aVMARMOTTA-670
p4
aVMARMOTTA-669
p5
aVMARMOTTA-668
p6
aVMARMOTTA-667
p7
aVMARMOTTA-666
p8
aVMARMOTTA-665
p9
aVMARMOTTA-663
p10
aVMARMOTTA-662
p11
aVMARMOTTA-661
p12
aVMARMOTTA-660
p13
aVMARMOTTA-659
p14
aVMARMOTTA-658
p15
aVMARMOTTA-657
p16
aVMARMOTTA-656
p17
aVMARMOTTA-655
p18
aVMARMOTTA-654
p19
aVMARMOTTA-653
p20
aVMARMOTTA-652
p21
aVMARMOTTA-651
p22
aVMARMOTTA-650
p23
aVMARMOTTA-649
p24
aVMARMOTTA-647
p25
aVMARMOTTA-646
p26
aVMARMOTTA-645
p27
aVMARMOTTA-644
p28
aVMARMOTTA-643
p29
aVMARMOTTA-642
p30
aVMARMOTTA-641
p31
aVMARMOTTA-640
p32
aVMARMOTTA-639
p33
aVMARMOTTA-638
p34
aVMARMOTTA-637
p35
aVMARMOTTA-636
p36
aVMARMOTTA-635
p37
aVMARMOTTA-634
p38
aVMARMOTTA-633
p39
aVMARMOTTA-632
p40
aVMARMOTTA-631
p41
aVMARMOTTA-630
p42
aVMARMOTTA-629
p43
aVMARMOTTA-628
p44
aVMARMOTTA-627
p45
aVMARMOTTA-626
p46
aVMARMOTTA-625
p47
aVMARMOTTA-624
p48
aVMARMOTTA-623
p49
aVMARMOTTA-622
p50
aVMARMOTTA-621
p51
aVMARMOTTA-620
p52
aVMARMOTTA-619
p53
aVMARMOTTA-618
p54
aVMARMOTTA-617
p55
aVMARMOTTA-616
p56
aVMARMOTTA-615
p57
aVMARMOTTA-614
p58
aVMARMOTTA-613
p59
aVMARMOTTA-612
p60
aVMARMOTTA-611
p61
aVMARMOTTA-610
p62
aVMARMOTTA-609
p63
aVMARMOTTA-608
p64
aVMARMOTTA-607
p65
aVMARMOTTA-606
p66
aVMARMOTTA-605
p67
aVMARMOTTA-604
p68
aVMARMOTTA-603
p69
aVMARMOTTA-602
p70
aVMARMOTTA-601
p71
aVMARMOTTA-600
p72
aVMARMOTTA-599
p73
aVMARMOTTA-598
p74
aVMARMOTTA-597
p75
aVMARMOTTA-596
p76
aVMARMOTTA-595
p77
aVMARMOTTA-594
p78
aVMARMOTTA-593
p79
aVMARMOTTA-592
p80
aVMARMOTTA-591
p81
aVMARMOTTA-590
p82
aVMARMOTTA-589
p83
aVMARMOTTA-588
p84
aVMARMOTTA-587
p85
aVMARMOTTA-586
p86
aVMARMOTTA-585
p87
aVMARMOTTA-584
p88
aVMARMOTTA-583
p89
aVMARMOTTA-582
p90
aVMARMOTTA-581
p91
aVMARMOTTA-580
p92
aVMARMOTTA-579
p93
aVMARMOTTA-578
p94
aVMARMOTTA-577
p95
aVMARMOTTA-576
p96
aVMARMOTTA-575
p97
aVMARMOTTA-574
p98
aVMARMOTTA-573
p99
aVMARMOTTA-572
p100
aVMARMOTTA-571
p101
aVMARMOTTA-570
p102
aVMARMOTTA-569
p103
aVMARMOTTA-568
p104
aVMARMOTTA-567
p105
aVMARMOTTA-566
p106
aVMARMOTTA-565
p107
aVMARMOTTA-564
p108
aVMARMOTTA-563
p109
aVMARMOTTA-562
p110
aVMARMOTTA-561
p111
aVMARMOTTA-560
p112
aVMARMOTTA-559
p113
aVMARMOTTA-558
p114
aVMARMOTTA-557
p115
aVMARMOTTA-556
p116
aVMARMOTTA-555
p117
aVMARMOTTA-554
p118
aVMARMOTTA-553
p119
aVMARMOTTA-552
p120
aVMARMOTTA-551
p121
aVMARMOTTA-550
p122
aVMARMOTTA-549
p123
aVMARMOTTA-548
p124
aVMARMOTTA-547
p125
aVMARMOTTA-546
p126
aVMARMOTTA-545
p127
aVMARMOTTA-544
p128
aVMARMOTTA-543
p129
aVMARMOTTA-542
p130
aVMARMOTTA-541
p131
aVMARMOTTA-540
p132
aVMARMOTTA-539
p133
aVMARMOTTA-538
p134
aVMARMOTTA-537
p135
aVMARMOTTA-536
p136
aVMARMOTTA-535
p137
aVMARMOTTA-534
p138
aVMARMOTTA-533
p139
aVMARMOTTA-532
p140
aVMARMOTTA-531
p141
aVMARMOTTA-530
p142
aVMARMOTTA-529
p143
aVMARMOTTA-528
p144
aVMARMOTTA-527
p145
aVMARMOTTA-526
p146
aVMARMOTTA-525
p147
aVMARMOTTA-524
p148
aVMARMOTTA-523
p149
aVMARMOTTA-522
p150
aVMARMOTTA-521
p151
aVMARMOTTA-520
p152
aVMARMOTTA-519
p153
aVMARMOTTA-518
p154
aVMARMOTTA-517
p155
aVMARMOTTA-515
p156
aVMARMOTTA-514
p157
aVMARMOTTA-513
p158
aVMARMOTTA-512
p159
aVMARMOTTA-511
p160
aVMARMOTTA-510
p161
aVMARMOTTA-509
p162
aVMARMOTTA-508
p163
aVMARMOTTA-507
p164
aVMARMOTTA-506
p165
aVMARMOTTA-505
p166
aVMARMOTTA-504
p167
aVMARMOTTA-503
p168
aVMARMOTTA-502
p169
aVMARMOTTA-501
p170
aVMARMOTTA-500
p171
aVMARMOTTA-499
p172
aVMARMOTTA-498
p173
aVMARMOTTA-497
p174
aVMARMOTTA-496
p175
aVMARMOTTA-495
p176
aVMARMOTTA-494
p177
aVMARMOTTA-493
p178
aVMARMOTTA-492
p179
aVMARMOTTA-491
p180
aVMARMOTTA-490
p181
aVMARMOTTA-489
p182
aVMARMOTTA-488
p183
aVMARMOTTA-487
p184
aVMARMOTTA-486
p185
aVMARMOTTA-485
p186
aVMARMOTTA-484
p187
aVMARMOTTA-483
p188
aVMARMOTTA-482
p189
aVMARMOTTA-481
p190
aVMARMOTTA-480
p191
aVMARMOTTA-479
p192
aVMARMOTTA-478
p193
aVMARMOTTA-477
p194
aVMARMOTTA-476
p195
aVMARMOTTA-475
p196
aVMARMOTTA-474
p197
aVMARMOTTA-473
p198
aVMARMOTTA-472
p199
aVMARMOTTA-471
p200
aVMARMOTTA-470
p201
aVMARMOTTA-469
p202
aVMARMOTTA-468
p203
aVMARMOTTA-467
p204
aVMARMOTTA-466
p205
aVMARMOTTA-465
p206
aVMARMOTTA-464
p207
aVMARMOTTA-463
p208
aVMARMOTTA-462
p209
aVMARMOTTA-461
p210
aVMARMOTTA-460
p211
aVMARMOTTA-459
p212
aVMARMOTTA-458
p213
aVMARMOTTA-457
p214
aVMARMOTTA-456
p215
aVMARMOTTA-455
p216
aVMARMOTTA-454
p217
aVMARMOTTA-453
p218
aVMARMOTTA-452
p219
aVMARMOTTA-451
p220
aVMARMOTTA-450
p221
aVMARMOTTA-449
p222
aVMARMOTTA-448
p223
aVMARMOTTA-447
p224
aVMARMOTTA-446
p225
aVMARMOTTA-445
p226
aVMARMOTTA-444
p227
aVMARMOTTA-443
p228
aVMARMOTTA-442
p229
aVMARMOTTA-441
p230
aVMARMOTTA-440
p231
aVMARMOTTA-439
p232
aVMARMOTTA-438
p233
aVMARMOTTA-437
p234
aVMARMOTTA-436
p235
aVMARMOTTA-435
p236
aVMARMOTTA-434
p237
aVMARMOTTA-433
p238
aVMARMOTTA-432
p239
aVMARMOTTA-431
p240
aVMARMOTTA-430
p241
aVMARMOTTA-429
p242
aVMARMOTTA-428
p243
aVMARMOTTA-427
p244
aVMARMOTTA-426
p245
aVMARMOTTA-425
p246
aVMARMOTTA-424
p247
aVMARMOTTA-423
p248
aVMARMOTTA-422
p249
aVMARMOTTA-421
p250
aVMARMOTTA-420
p251
aVMARMOTTA-419
p252
aVMARMOTTA-418
p253
aVMARMOTTA-417
p254
aVMARMOTTA-416
p255
aVMARMOTTA-415
p256
aVMARMOTTA-414
p257
aVMARMOTTA-413
p258
aVMARMOTTA-412
p259
aVMARMOTTA-411
p260
aVMARMOTTA-410
p261
aVMARMOTTA-409
p262
aVMARMOTTA-408
p263
aVMARMOTTA-407
p264
aVMARMOTTA-406
p265
aVMARMOTTA-405
p266
aVMARMOTTA-404
p267
aVMARMOTTA-403
p268
aVMARMOTTA-402
p269
aVMARMOTTA-401
p270
aVMARMOTTA-400
p271
aVMARMOTTA-399
p272
aVMARMOTTA-398
p273
aVMARMOTTA-397
p274
aVMARMOTTA-396
p275
aVMARMOTTA-395
p276
aVMARMOTTA-394
p277
aVMARMOTTA-393
p278
aVMARMOTTA-392
p279
aVMARMOTTA-391
p280
aVMARMOTTA-390
p281
aVMARMOTTA-389
p282
aVMARMOTTA-388
p283
aVMARMOTTA-387
p284
aVMARMOTTA-386
p285
aVMARMOTTA-385
p286
aVMARMOTTA-384
p287
aVMARMOTTA-383
p288
aVMARMOTTA-382
p289
aVMARMOTTA-381
p290
aVMARMOTTA-380
p291
aVMARMOTTA-379
p292
aVMARMOTTA-378
p293
aVMARMOTTA-377
p294
aVMARMOTTA-376
p295
aVMARMOTTA-375
p296
aVMARMOTTA-374
p297
aVMARMOTTA-373
p298
aVMARMOTTA-372
p299
aVMARMOTTA-371
p300
aVMARMOTTA-370
p301
aVMARMOTTA-369
p302
aVMARMOTTA-368
p303
aVMARMOTTA-367
p304
aVMARMOTTA-366
p305
aVMARMOTTA-365
p306
aVMARMOTTA-364
p307
aVMARMOTTA-363
p308
aVMARMOTTA-362
p309
aVMARMOTTA-361
p310
aVMARMOTTA-360
p311
aVMARMOTTA-359
p312
aVMARMOTTA-358
p313
aVMARMOTTA-357
p314
aVMARMOTTA-356
p315
aVMARMOTTA-355
p316
aVMARMOTTA-354
p317
aVMARMOTTA-353
p318
aVMARMOTTA-352
p319
aVMARMOTTA-351
p320
aVMARMOTTA-350
p321
aVMARMOTTA-349
p322
aVMARMOTTA-348
p323
aVMARMOTTA-347
p324
aVMARMOTTA-346
p325
aVMARMOTTA-345
p326
aVMARMOTTA-344
p327
aVMARMOTTA-343
p328
aVMARMOTTA-342
p329
aVMARMOTTA-341
p330
aVMARMOTTA-340
p331
aVMARMOTTA-339
p332
aVMARMOTTA-338
p333
aVMARMOTTA-337
p334
aVMARMOTTA-336
p335
aVMARMOTTA-335
p336
aVMARMOTTA-334
p337
aVMARMOTTA-333
p338
aVMARMOTTA-332
p339
aVMARMOTTA-331
p340
aVMARMOTTA-330
p341
aVMARMOTTA-329
p342
aVMARMOTTA-328
p343
aVMARMOTTA-327
p344
aVMARMOTTA-326
p345
aVMARMOTTA-325
p346
aVMARMOTTA-324
p347
aVMARMOTTA-323
p348
aVMARMOTTA-322
p349
aVMARMOTTA-321
p350
aVMARMOTTA-320
p351
aVMARMOTTA-319
p352
aVMARMOTTA-318
p353
aVMARMOTTA-317
p354
aVMARMOTTA-316
p355
aVMARMOTTA-315
p356
aVMARMOTTA-314
p357
aVMARMOTTA-313
p358
aVMARMOTTA-312
p359
aVMARMOTTA-311
p360
aVMARMOTTA-310
p361
aVMARMOTTA-309
p362
aVMARMOTTA-308
p363
aVMARMOTTA-307
p364
aVMARMOTTA-306
p365
aVMARMOTTA-305
p366
aVMARMOTTA-304
p367
aVMARMOTTA-303
p368
aVMARMOTTA-302
p369
aVMARMOTTA-301
p370
aVMARMOTTA-300
p371
aVMARMOTTA-299
p372
aVMARMOTTA-298
p373
aVMARMOTTA-297
p374
aVMARMOTTA-296
p375
aVMARMOTTA-295
p376
aVMARMOTTA-294
p377
aVMARMOTTA-293
p378
aVMARMOTTA-292
p379
aVMARMOTTA-291
p380
aVMARMOTTA-290
p381
aVMARMOTTA-289
p382
aVMARMOTTA-288
p383
aVMARMOTTA-287
p384
aVMARMOTTA-286
p385
aVMARMOTTA-285
p386
aVMARMOTTA-284
p387
aVMARMOTTA-283
p388
aVMARMOTTA-282
p389
aVMARMOTTA-281
p390
aVMARMOTTA-280
p391
aVMARMOTTA-279
p392
aVMARMOTTA-278
p393
aVMARMOTTA-277
p394
aVMARMOTTA-276
p395
aVMARMOTTA-275
p396
aVMARMOTTA-274
p397
aVMARMOTTA-273
p398
aVMARMOTTA-272
p399
aVMARMOTTA-271
p400
aVMARMOTTA-270
p401
aVMARMOTTA-269
p402
aVMARMOTTA-268
p403
aVMARMOTTA-267
p404
aVMARMOTTA-266
p405
aVMARMOTTA-265
p406
aVMARMOTTA-264
p407
aVMARMOTTA-263
p408
aVMARMOTTA-262
p409
aVMARMOTTA-261
p410
aVMARMOTTA-260
p411
aVMARMOTTA-259
p412
aVMARMOTTA-258
p413
aVMARMOTTA-257
p414
aVMARMOTTA-256
p415
aVMARMOTTA-255
p416
aVMARMOTTA-254
p417
aVMARMOTTA-253
p418
aVMARMOTTA-252
p419
aVMARMOTTA-251
p420
aVMARMOTTA-250
p421
aVMARMOTTA-249
p422
aVMARMOTTA-248
p423
aVMARMOTTA-247
p424
aVMARMOTTA-246
p425
aVMARMOTTA-245
p426
aVMARMOTTA-244
p427
aVMARMOTTA-243
p428
aVMARMOTTA-242
p429
aVMARMOTTA-241
p430
aVMARMOTTA-240
p431
aVMARMOTTA-239
p432
aVMARMOTTA-238
p433
aVMARMOTTA-237
p434
aVMARMOTTA-236
p435
aVMARMOTTA-235
p436
aVMARMOTTA-234
p437
aVMARMOTTA-233
p438
aVMARMOTTA-232
p439
aVMARMOTTA-231
p440
aVMARMOTTA-230
p441
aVMARMOTTA-229
p442
aVMARMOTTA-228
p443
aVMARMOTTA-227
p444
aVMARMOTTA-226
p445
aVMARMOTTA-225
p446
aVMARMOTTA-224
p447
aVMARMOTTA-223
p448
aVMARMOTTA-222
p449
aVMARMOTTA-221
p450
aVMARMOTTA-220
p451
aVMARMOTTA-219
p452
aVMARMOTTA-218
p453
aVMARMOTTA-217
p454
aVMARMOTTA-216
p455
aVMARMOTTA-215
p456
aVMARMOTTA-214
p457
aVMARMOTTA-213
p458
aVMARMOTTA-212
p459
aVMARMOTTA-211
p460
aVMARMOTTA-210
p461
aVMARMOTTA-209
p462
aVMARMOTTA-208
p463
aVMARMOTTA-207
p464
aVMARMOTTA-206
p465
aVMARMOTTA-205
p466
aVMARMOTTA-204
p467
aVMARMOTTA-203
p468
aVMARMOTTA-202
p469
aVMARMOTTA-201
p470
aVMARMOTTA-200
p471
aVMARMOTTA-199
p472
aVMARMOTTA-198
p473
aVMARMOTTA-197
p474
aVMARMOTTA-196
p475
aVMARMOTTA-195
p476
aVMARMOTTA-194
p477
aVMARMOTTA-193
p478
aVMARMOTTA-192
p479
aVMARMOTTA-191
p480
aVMARMOTTA-190
p481
aVMARMOTTA-189
p482
aVMARMOTTA-188
p483
aVMARMOTTA-187
p484
aVMARMOTTA-186
p485
aVMARMOTTA-185
p486
aVMARMOTTA-184
p487
aVMARMOTTA-183
p488
aVMARMOTTA-182
p489
aVMARMOTTA-181
p490
aVMARMOTTA-180
p491
aVMARMOTTA-179
p492
aVMARMOTTA-178
p493
aVMARMOTTA-177
p494
aVMARMOTTA-176
p495
aVMARMOTTA-175
p496
aVMARMOTTA-174
p497
aVMARMOTTA-173
p498
aVMARMOTTA-172
p499
aVMARMOTTA-171
p500
aVMARMOTTA-170
p501
aVMARMOTTA-169
p502
aVMARMOTTA-168
p503
aVMARMOTTA-167
p504
aVMARMOTTA-166
p505
aVMARMOTTA-165
p506
aVMARMOTTA-164
p507
aVMARMOTTA-163
p508
aVMARMOTTA-162
p509
aVMARMOTTA-161
p510
aVMARMOTTA-160
p511
aVMARMOTTA-159
p512
aVMARMOTTA-158
p513
aVMARMOTTA-157
p514
aVMARMOTTA-156
p515
aVMARMOTTA-155
p516
aVMARMOTTA-154
p517
aVMARMOTTA-153
p518
aVMARMOTTA-152
p519
aVMARMOTTA-151
p520
aVMARMOTTA-150
p521
aVMARMOTTA-149
p522
aVMARMOTTA-148
p523
aVMARMOTTA-147
p524
aVMARMOTTA-146
p525
aVMARMOTTA-145
p526
aVMARMOTTA-144
p527
aVMARMOTTA-143
p528
aVMARMOTTA-142
p529
aVMARMOTTA-141
p530
aVMARMOTTA-140
p531
aVMARMOTTA-139
p532
aVMARMOTTA-138
p533
aVMARMOTTA-137
p534
aVMARMOTTA-136
p535
aVMARMOTTA-135
p536
aVMARMOTTA-134
p537
aVMARMOTTA-133
p538
aVMARMOTTA-132
p539
aVMARMOTTA-131
p540
aVMARMOTTA-130
p541
aVMARMOTTA-129
p542
aVMARMOTTA-128
p543
aVMARMOTTA-127
p544
aVMARMOTTA-126
p545
aVMARMOTTA-125
p546
aVMARMOTTA-124
p547
aVMARMOTTA-123
p548
aVMARMOTTA-122
p549
aVMARMOTTA-121
p550
aVMARMOTTA-120
p551
aVMARMOTTA-119
p552
aVMARMOTTA-118
p553
aVMARMOTTA-117
p554
aVMARMOTTA-116
p555
aVMARMOTTA-115
p556
aVMARMOTTA-114
p557
aVMARMOTTA-113
p558
aVMARMOTTA-112
p559
aVMARMOTTA-111
p560
aVMARMOTTA-110
p561
aVMARMOTTA-109
p562
aVMARMOTTA-108
p563
aVMARMOTTA-107
p564
aVMARMOTTA-106
p565
aVMARMOTTA-105
p566
aVMARMOTTA-104
p567
aVMARMOTTA-103
p568
aVMARMOTTA-102
p569
aVMARMOTTA-101
p570
aVMARMOTTA-100
p571
aVMARMOTTA-99
p572
aVMARMOTTA-98
p573
aVMARMOTTA-97
p574
aVMARMOTTA-96
p575
aVMARMOTTA-95
p576
aVMARMOTTA-94
p577
aVMARMOTTA-93
p578
aVMARMOTTA-92
p579
aVMARMOTTA-91
p580
aVMARMOTTA-90
p581
aVMARMOTTA-89
p582
aVMARMOTTA-88
p583
aVMARMOTTA-87
p584
aVMARMOTTA-86
p585
aVMARMOTTA-85
p586
aVMARMOTTA-84
p587
aVMARMOTTA-83
p588
aVMARMOTTA-82
p589
aVMARMOTTA-81
p590
aVMARMOTTA-80
p591
aVMARMOTTA-79
p592
aVMARMOTTA-78
p593
aVMARMOTTA-77
p594
aVMARMOTTA-76
p595
aVMARMOTTA-75
p596
aVMARMOTTA-74
p597
aVMARMOTTA-73
p598
aVMARMOTTA-72
p599
aVMARMOTTA-71
p600
aVMARMOTTA-70
p601
aVMARMOTTA-69
p602
aVMARMOTTA-68
p603
aVMARMOTTA-67
p604
aVMARMOTTA-66
p605
aVMARMOTTA-65
p606
aVMARMOTTA-64
p607
aVMARMOTTA-63
p608
aVMARMOTTA-62
p609
aVMARMOTTA-61
p610
aVMARMOTTA-60
p611
aVMARMOTTA-59
p612
aVMARMOTTA-58
p613
aVMARMOTTA-57
p614
aVMARMOTTA-56
p615
aVMARMOTTA-55
p616
aVMARMOTTA-54
p617
aVMARMOTTA-53
p618
aVMARMOTTA-52
p619
aVMARMOTTA-51
p620
aVMARMOTTA-50
p621
aVMARMOTTA-49
p622
aVMARMOTTA-48
p623
aVMARMOTTA-47
p624
aVMARMOTTA-46
p625
aVMARMOTTA-45
p626
aVMARMOTTA-44
p627
aVMARMOTTA-43
p628
aVMARMOTTA-42
p629
aVMARMOTTA-41
p630
aVMARMOTTA-40
p631
aVMARMOTTA-39
p632
aVMARMOTTA-38
p633
aVMARMOTTA-37
p634
aVMARMOTTA-36
p635
aVMARMOTTA-35
p636
aVMARMOTTA-34
p637
aVMARMOTTA-33
p638
aVMARMOTTA-32
p639
aVMARMOTTA-31
p640
aVMARMOTTA-30
p641
aVMARMOTTA-29
p642
aVMARMOTTA-28
p643
aVMARMOTTA-27
p644
aVMARMOTTA-26
p645
aVMARMOTTA-25
p646
aVMARMOTTA-24
p647
aVMARMOTTA-23
p648
aVMARMOTTA-22
p649
aVMARMOTTA-21
p650
aVMARMOTTA-20
p651
aVMARMOTTA-19
p652
aVMARMOTTA-18
p653
aVMARMOTTA-17
p654
aVMARMOTTA-16
p655
aVMARMOTTA-15
p656
aVMARMOTTA-14
p657
aVMARMOTTA-13
p658
aVMARMOTTA-12
p659
aVMARMOTTA-11
p660
aVMARMOTTA-10
p661
aVMARMOTTA-9
p662
aVMARMOTTA-8
p663
aVMARMOTTA-7
p664
aVMARMOTTA-6
p665
aVMARMOTTA-5
p666
aVMARMOTTA-4
p667
aVMARMOTTA-3
p668
aVMARMOTTA-2
p669
aVMARMOTTA-1
p670
a.