(lp0
VMASSEMBLY-893
p1
aVMASSEMBLY-892
p2
aVMASSEMBLY-891
p3
aVMASSEMBLY-890
p4
aVMASSEMBLY-889
p5
aVMASSEMBLY-888
p6
aVMASSEMBLY-887
p7
aVMASSEMBLY-886
p8
aVMASSEMBLY-885
p9
aVMASSEMBLY-884
p10
aVMASSEMBLY-883
p11
aVMASSEMBLY-882
p12
aVMASSEMBLY-881
p13
aVMASSEMBLY-880
p14
aVMASSEMBLY-879
p15
aVMASSEMBLY-878
p16
aVMASSEMBLY-877
p17
aVMASSEMBLY-876
p18
aVMASSEMBLY-875
p19
aVMASSEMBLY-874
p20
aVMASSEMBLY-873
p21
aVMASSEMBLY-872
p22
aVMASSEMBLY-871
p23
aVMASSEMBLY-870
p24
aVMASSEMBLY-869
p25
aVMASSEMBLY-868
p26
aVMASSEMBLY-867
p27
aVMASSEMBLY-866
p28
aVMASSEMBLY-865
p29
aVMASSEMBLY-864
p30
aVMASSEMBLY-863
p31
aVMASSEMBLY-862
p32
aVMASSEMBLY-861
p33
aVMASSEMBLY-860
p34
aVMASSEMBLY-859
p35
aVMASSEMBLY-858
p36
aVMASSEMBLY-857
p37
aVMASSEMBLY-856
p38
aVMASSEMBLY-855
p39
aVMASSEMBLY-854
p40
aVMASSEMBLY-853
p41
aVMASSEMBLY-852
p42
aVMASSEMBLY-851
p43
aVMASSEMBLY-850
p44
aVMASSEMBLY-849
p45
aVMASSEMBLY-848
p46
aVMASSEMBLY-847
p47
aVMASSEMBLY-845
p48
aVMASSEMBLY-843
p49
aVMASSEMBLY-842
p50
aVMASSEMBLY-841
p51
aVMASSEMBLY-840
p52
aVMASSEMBLY-839
p53
aVMASSEMBLY-838
p54
aVMASSEMBLY-837
p55
aVMASSEMBLY-836
p56
aVMASSEMBLY-835
p57
aVMASSEMBLY-834
p58
aVMASSEMBLY-833
p59
aVMASSEMBLY-832
p60
aVMASSEMBLY-831
p61
aVMASSEMBLY-830
p62
aVMASSEMBLY-829
p63
aVMASSEMBLY-828
p64
aVMASSEMBLY-827
p65
aVMASSEMBLY-826
p66
aVMASSEMBLY-825
p67
aVMASSEMBLY-824
p68
aVMASSEMBLY-823
p69
aVMASSEMBLY-822
p70
aVMASSEMBLY-821
p71
aVMASSEMBLY-820
p72
aVMASSEMBLY-819
p73
aVMASSEMBLY-818
p74
aVMASSEMBLY-817
p75
aVMASSEMBLY-816
p76
aVMASSEMBLY-815
p77
aVMASSEMBLY-814
p78
aVMASSEMBLY-813
p79
aVMASSEMBLY-812
p80
aVMASSEMBLY-811
p81
aVMASSEMBLY-810
p82
aVMASSEMBLY-809
p83
aVMASSEMBLY-808
p84
aVMASSEMBLY-807
p85
aVMASSEMBLY-806
p86
aVMASSEMBLY-805
p87
aVMASSEMBLY-804
p88
aVMASSEMBLY-803
p89
aVMASSEMBLY-802
p90
aVMASSEMBLY-801
p91
aVMASSEMBLY-800
p92
aVMASSEMBLY-799
p93
aVMASSEMBLY-798
p94
aVMASSEMBLY-797
p95
aVMASSEMBLY-796
p96
aVMASSEMBLY-795
p97
aVMASSEMBLY-794
p98
aVMASSEMBLY-793
p99
aVMASSEMBLY-792
p100
aVMASSEMBLY-791
p101
aVMASSEMBLY-790
p102
aVMASSEMBLY-789
p103
aVMASSEMBLY-788
p104
aVMASSEMBLY-787
p105
aVMASSEMBLY-786
p106
aVMASSEMBLY-785
p107
aVMASSEMBLY-784
p108
aVMASSEMBLY-783
p109
aVMASSEMBLY-782
p110
aVMASSEMBLY-781
p111
aVMASSEMBLY-780
p112
aVMASSEMBLY-779
p113
aVMASSEMBLY-778
p114
aVMASSEMBLY-777
p115
aVMASSEMBLY-776
p116
aVMASSEMBLY-775
p117
aVMASSEMBLY-774
p118
aVMASSEMBLY-773
p119
aVMASSEMBLY-772
p120
aVMASSEMBLY-771
p121
aVMASSEMBLY-770
p122
aVMASSEMBLY-769
p123
aVMASSEMBLY-768
p124
aVMASSEMBLY-767
p125
aVMASSEMBLY-766
p126
aVMASSEMBLY-765
p127
aVMASSEMBLY-764
p128
aVMASSEMBLY-763
p129
aVMASSEMBLY-762
p130
aVMASSEMBLY-761
p131
aVMASSEMBLY-760
p132
aVMASSEMBLY-759
p133
aVMASSEMBLY-758
p134
aVMASSEMBLY-757
p135
aVMASSEMBLY-756
p136
aVMASSEMBLY-755
p137
aVMASSEMBLY-754
p138
aVMASSEMBLY-753
p139
aVMASSEMBLY-752
p140
aVMASSEMBLY-751
p141
aVMASSEMBLY-750
p142
aVMASSEMBLY-749
p143
aVMASSEMBLY-748
p144
aVMASSEMBLY-747
p145
aVMASSEMBLY-746
p146
aVMASSEMBLY-745
p147
aVMASSEMBLY-744
p148
aVMASSEMBLY-743
p149
aVMASSEMBLY-742
p150
aVMASSEMBLY-741
p151
aVMASSEMBLY-740
p152
aVMASSEMBLY-739
p153
aVMASSEMBLY-738
p154
aVMASSEMBLY-737
p155
aVMASSEMBLY-736
p156
aVMASSEMBLY-735
p157
aVMASSEMBLY-734
p158
aVMASSEMBLY-733
p159
aVMASSEMBLY-732
p160
aVMASSEMBLY-731
p161
aVMASSEMBLY-730
p162
aVMASSEMBLY-729
p163
aVMASSEMBLY-728
p164
aVMASSEMBLY-727
p165
aVMASSEMBLY-726
p166
aVMASSEMBLY-725
p167
aVMASSEMBLY-724
p168
aVMASSEMBLY-723
p169
aVMASSEMBLY-722
p170
aVMASSEMBLY-721
p171
aVMASSEMBLY-720
p172
aVMASSEMBLY-719
p173
aVMASSEMBLY-717
p174
aVMASSEMBLY-716
p175
aVMASSEMBLY-714
p176
aVMASSEMBLY-712
p177
aVMASSEMBLY-711
p178
aVMASSEMBLY-710
p179
aVMASSEMBLY-709
p180
aVMASSEMBLY-708
p181
aVMASSEMBLY-707
p182
aVMASSEMBLY-706
p183
aVMASSEMBLY-705
p184
aVMASSEMBLY-704
p185
aVMASSEMBLY-703
p186
aVMASSEMBLY-702
p187
aVMASSEMBLY-701
p188
aVMASSEMBLY-700
p189
aVMASSEMBLY-699
p190
aVMASSEMBLY-698
p191
aVMASSEMBLY-697
p192
aVMASSEMBLY-696
p193
aVMASSEMBLY-695
p194
aVMASSEMBLY-694
p195
aVMASSEMBLY-693
p196
aVMASSEMBLY-692
p197
aVMASSEMBLY-691
p198
aVMASSEMBLY-690
p199
aVMASSEMBLY-689
p200
aVMASSEMBLY-688
p201
aVMASSEMBLY-687
p202
aVMASSEMBLY-686
p203
aVMASSEMBLY-685
p204
aVMASSEMBLY-684
p205
aVMASSEMBLY-683
p206
aVMASSEMBLY-682
p207
aVMASSEMBLY-681
p208
aVMASSEMBLY-680
p209
aVMASSEMBLY-679
p210
aVMASSEMBLY-678
p211
aVMASSEMBLY-677
p212
aVMASSEMBLY-676
p213
aVMASSEMBLY-675
p214
aVMASSEMBLY-674
p215
aVMASSEMBLY-673
p216
aVMASSEMBLY-672
p217
aVMASSEMBLY-671
p218
aVMASSEMBLY-670
p219
aVMASSEMBLY-669
p220
aVMASSEMBLY-668
p221
aVMASSEMBLY-667
p222
aVMASSEMBLY-666
p223
aVMASSEMBLY-665
p224
aVMASSEMBLY-664
p225
aVMASSEMBLY-663
p226
aVMASSEMBLY-662
p227
aVMASSEMBLY-661
p228
aVMASSEMBLY-660
p229
aVMASSEMBLY-659
p230
aVMASSEMBLY-658
p231
aVMASSEMBLY-657
p232
aVMASSEMBLY-656
p233
aVMASSEMBLY-655
p234
aVMASSEMBLY-654
p235
aVMASSEMBLY-653
p236
aVMASSEMBLY-652
p237
aVMASSEMBLY-651
p238
aVMASSEMBLY-650
p239
aVMASSEMBLY-649
p240
aVMASSEMBLY-648
p241
aVMASSEMBLY-647
p242
aVMASSEMBLY-646
p243
aVMASSEMBLY-645
p244
aVMASSEMBLY-644
p245
aVMASSEMBLY-643
p246
aVMASSEMBLY-642
p247
aVMASSEMBLY-641
p248
aVMASSEMBLY-640
p249
aVMASSEMBLY-639
p250
aVMASSEMBLY-638
p251
aVMASSEMBLY-637
p252
aVMASSEMBLY-636
p253
aVMASSEMBLY-635
p254
aVMASSEMBLY-634
p255
aVMASSEMBLY-633
p256
aVMASSEMBLY-632
p257
aVMASSEMBLY-631
p258
aVMASSEMBLY-630
p259
aVMASSEMBLY-629
p260
aVMASSEMBLY-628
p261
aVMASSEMBLY-627
p262
aVMASSEMBLY-626
p263
aVMASSEMBLY-625
p264
aVMASSEMBLY-624
p265
aVMASSEMBLY-623
p266
aVMASSEMBLY-622
p267
aVMASSEMBLY-621
p268
aVMASSEMBLY-620
p269
aVMASSEMBLY-619
p270
aVMASSEMBLY-618
p271
aVMASSEMBLY-617
p272
aVMASSEMBLY-616
p273
aVMASSEMBLY-615
p274
aVMASSEMBLY-614
p275
aVMASSEMBLY-613
p276
aVMASSEMBLY-612
p277
aVMASSEMBLY-611
p278
aVMASSEMBLY-610
p279
aVMASSEMBLY-609
p280
aVMASSEMBLY-608
p281
aVMASSEMBLY-607
p282
aVMASSEMBLY-606
p283
aVMASSEMBLY-605
p284
aVMASSEMBLY-604
p285
aVMASSEMBLY-603
p286
aVMASSEMBLY-602
p287
aVMASSEMBLY-601
p288
aVMASSEMBLY-600
p289
aVMASSEMBLY-599
p290
aVMASSEMBLY-598
p291
aVMASSEMBLY-597
p292
aVMASSEMBLY-596
p293
aVMASSEMBLY-595
p294
aVMASSEMBLY-594
p295
aVMASSEMBLY-593
p296
aVMASSEMBLY-592
p297
aVMASSEMBLY-591
p298
aVMASSEMBLY-590
p299
aVMASSEMBLY-589
p300
aVMASSEMBLY-588
p301
aVMASSEMBLY-587
p302
aVMASSEMBLY-586
p303
aVMASSEMBLY-585
p304
aVMASSEMBLY-584
p305
aVMASSEMBLY-583
p306
aVMASSEMBLY-582
p307
aVMASSEMBLY-581
p308
aVMASSEMBLY-580
p309
aVMASSEMBLY-579
p310
aVMASSEMBLY-578
p311
aVMASSEMBLY-577
p312
aVMASSEMBLY-576
p313
aVMASSEMBLY-575
p314
aVMASSEMBLY-574
p315
aVMASSEMBLY-573
p316
aVMASSEMBLY-572
p317
aVMASSEMBLY-571
p318
aVMASSEMBLY-570
p319
aVMASSEMBLY-569
p320
aVMASSEMBLY-568
p321
aVMASSEMBLY-567
p322
aVMASSEMBLY-566
p323
aVMASSEMBLY-565
p324
aVMASSEMBLY-564
p325
aVMASSEMBLY-563
p326
aVMASSEMBLY-562
p327
aVMASSEMBLY-561
p328
aVMASSEMBLY-560
p329
aVMASSEMBLY-559
p330
aVMASSEMBLY-558
p331
aVMASSEMBLY-557
p332
aVMASSEMBLY-556
p333
aVMASSEMBLY-555
p334
aVMASSEMBLY-554
p335
aVMASSEMBLY-553
p336
aVMASSEMBLY-552
p337
aVMASSEMBLY-551
p338
aVMASSEMBLY-550
p339
aVMASSEMBLY-549
p340
aVMASSEMBLY-548
p341
aVMASSEMBLY-547
p342
aVMASSEMBLY-546
p343
aVMASSEMBLY-545
p344
aVMASSEMBLY-544
p345
aVMASSEMBLY-543
p346
aVMASSEMBLY-542
p347
aVMASSEMBLY-541
p348
aVMASSEMBLY-540
p349
aVMASSEMBLY-539
p350
aVMASSEMBLY-538
p351
aVMASSEMBLY-537
p352
aVMASSEMBLY-536
p353
aVMASSEMBLY-535
p354
aVMASSEMBLY-534
p355
aVMASSEMBLY-533
p356
aVMASSEMBLY-532
p357
aVMASSEMBLY-531
p358
aVMASSEMBLY-530
p359
aVMASSEMBLY-529
p360
aVMASSEMBLY-528
p361
aVMASSEMBLY-527
p362
aVMASSEMBLY-526
p363
aVMASSEMBLY-525
p364
aVMASSEMBLY-524
p365
aVMASSEMBLY-523
p366
aVMASSEMBLY-522
p367
aVMASSEMBLY-521
p368
aVMASSEMBLY-520
p369
aVMASSEMBLY-519
p370
aVMASSEMBLY-518
p371
aVMASSEMBLY-517
p372
aVMASSEMBLY-516
p373
aVMASSEMBLY-515
p374
aVMASSEMBLY-514
p375
aVMASSEMBLY-512
p376
aVMASSEMBLY-511
p377
aVMASSEMBLY-510
p378
aVMASSEMBLY-509
p379
aVMASSEMBLY-508
p380
aVMASSEMBLY-507
p381
aVMASSEMBLY-506
p382
aVMASSEMBLY-505
p383
aVMASSEMBLY-504
p384
aVMASSEMBLY-503
p385
aVMASSEMBLY-502
p386
aVMASSEMBLY-501
p387
aVMASSEMBLY-500
p388
aVMASSEMBLY-499
p389
aVMASSEMBLY-498
p390
aVMASSEMBLY-497
p391
aVMASSEMBLY-495
p392
aVMASSEMBLY-494
p393
aVMASSEMBLY-493
p394
aVMASSEMBLY-492
p395
aVMASSEMBLY-491
p396
aVMASSEMBLY-490
p397
aVMASSEMBLY-489
p398
aVMASSEMBLY-488
p399
aVMASSEMBLY-487
p400
aVMASSEMBLY-486
p401
aVMASSEMBLY-485
p402
aVMASSEMBLY-484
p403
aVMASSEMBLY-483
p404
aVMASSEMBLY-482
p405
aVMASSEMBLY-481
p406
aVMASSEMBLY-480
p407
aVMASSEMBLY-479
p408
aVMASSEMBLY-478
p409
aVMASSEMBLY-477
p410
aVMASSEMBLY-476
p411
aVMASSEMBLY-475
p412
aVMASSEMBLY-474
p413
aVMASSEMBLY-473
p414
aVMASSEMBLY-472
p415
aVMASSEMBLY-471
p416
aVMASSEMBLY-470
p417
aVMASSEMBLY-469
p418
aVMASSEMBLY-468
p419
aVMASSEMBLY-467
p420
aVMASSEMBLY-466
p421
aVMASSEMBLY-465
p422
aVMASSEMBLY-464
p423
aVMASSEMBLY-463
p424
aVMASSEMBLY-462
p425
aVMASSEMBLY-461
p426
aVMASSEMBLY-460
p427
aVMASSEMBLY-459
p428
aVMASSEMBLY-458
p429
aVMASSEMBLY-457
p430
aVMASSEMBLY-456
p431
aVMASSEMBLY-455
p432
aVMASSEMBLY-454
p433
aVMASSEMBLY-453
p434
aVMASSEMBLY-452
p435
aVMASSEMBLY-451
p436
aVMASSEMBLY-450
p437
aVMASSEMBLY-449
p438
aVMASSEMBLY-448
p439
aVMASSEMBLY-447
p440
aVMASSEMBLY-446
p441
aVMASSEMBLY-445
p442
aVMASSEMBLY-444
p443
aVMASSEMBLY-443
p444
aVMASSEMBLY-442
p445
aVMASSEMBLY-441
p446
aVMASSEMBLY-436
p447
aVMASSEMBLY-435
p448
aVMASSEMBLY-434
p449
aVMASSEMBLY-433
p450
aVMASSEMBLY-432
p451
aVMASSEMBLY-431
p452
aVMASSEMBLY-430
p453
aVMASSEMBLY-429
p454
aVMASSEMBLY-428
p455
aVMASSEMBLY-427
p456
aVMASSEMBLY-426
p457
aVMASSEMBLY-424
p458
aVMASSEMBLY-423
p459
aVMASSEMBLY-422
p460
aVMASSEMBLY-421
p461
aVMASSEMBLY-420
p462
aVMASSEMBLY-419
p463
aVMASSEMBLY-418
p464
aVMASSEMBLY-417
p465
aVMASSEMBLY-416
p466
aVMASSEMBLY-415
p467
aVMASSEMBLY-414
p468
aVMASSEMBLY-413
p469
aVMASSEMBLY-412
p470
aVMASSEMBLY-411
p471
aVMASSEMBLY-410
p472
aVMASSEMBLY-409
p473
aVMASSEMBLY-408
p474
aVMASSEMBLY-407
p475
aVMASSEMBLY-406
p476
aVMASSEMBLY-405
p477
aVMASSEMBLY-404
p478
aVMASSEMBLY-403
p479
aVMASSEMBLY-402
p480
aVMASSEMBLY-401
p481
aVMASSEMBLY-400
p482
aVMASSEMBLY-399
p483
aVMASSEMBLY-398
p484
aVMASSEMBLY-397
p485
aVMASSEMBLY-396
p486
aVMASSEMBLY-395
p487
aVMASSEMBLY-394
p488
aVMASSEMBLY-393
p489
aVMASSEMBLY-392
p490
aVMASSEMBLY-391
p491
aVMASSEMBLY-390
p492
aVMASSEMBLY-389
p493
aVMASSEMBLY-388
p494
aVMASSEMBLY-387
p495
aVMASSEMBLY-386
p496
aVMASSEMBLY-385
p497
aVMASSEMBLY-384
p498
aVMASSEMBLY-383
p499
aVMASSEMBLY-382
p500
aVMASSEMBLY-381
p501
aVMASSEMBLY-380
p502
aVMASSEMBLY-379
p503
aVMASSEMBLY-378
p504
aVMASSEMBLY-377
p505
aVMASSEMBLY-376
p506
aVMASSEMBLY-375
p507
aVMASSEMBLY-374
p508
aVMASSEMBLY-373
p509
aVMASSEMBLY-372
p510
aVMASSEMBLY-371
p511
aVMASSEMBLY-370
p512
aVMASSEMBLY-369
p513
aVMASSEMBLY-368
p514
aVMASSEMBLY-367
p515
aVMASSEMBLY-366
p516
aVMASSEMBLY-365
p517
aVMASSEMBLY-364
p518
aVMASSEMBLY-363
p519
aVMASSEMBLY-362
p520
aVMASSEMBLY-361
p521
aVMASSEMBLY-360
p522
aVMASSEMBLY-359
p523
aVMASSEMBLY-358
p524
aVMASSEMBLY-357
p525
aVMASSEMBLY-356
p526
aVMASSEMBLY-355
p527
aVMASSEMBLY-354
p528
aVMASSEMBLY-353
p529
aVMASSEMBLY-352
p530
aVMASSEMBLY-351
p531
aVMASSEMBLY-350
p532
aVMASSEMBLY-349
p533
aVMASSEMBLY-348
p534
aVMASSEMBLY-347
p535
aVMASSEMBLY-346
p536
aVMASSEMBLY-345
p537
aVMASSEMBLY-344
p538
aVMASSEMBLY-343
p539
aVMASSEMBLY-342
p540
aVMASSEMBLY-341
p541
aVMASSEMBLY-340
p542
aVMASSEMBLY-339
p543
aVMASSEMBLY-338
p544
aVMASSEMBLY-337
p545
aVMASSEMBLY-336
p546
aVMASSEMBLY-335
p547
aVMASSEMBLY-334
p548
aVMASSEMBLY-333
p549
aVMASSEMBLY-332
p550
aVMASSEMBLY-331
p551
aVMASSEMBLY-330
p552
aVMASSEMBLY-329
p553
aVMASSEMBLY-328
p554
aVMASSEMBLY-327
p555
aVMASSEMBLY-326
p556
aVMASSEMBLY-325
p557
aVMASSEMBLY-324
p558
aVMASSEMBLY-323
p559
aVMASSEMBLY-322
p560
aVMASSEMBLY-321
p561
aVMASSEMBLY-320
p562
aVMASSEMBLY-319
p563
aVMASSEMBLY-318
p564
aVMASSEMBLY-317
p565
aVMASSEMBLY-316
p566
aVMASSEMBLY-315
p567
aVMASSEMBLY-314
p568
aVMASSEMBLY-313
p569
aVMASSEMBLY-312
p570
aVMASSEMBLY-311
p571
aVMASSEMBLY-310
p572
aVMASSEMBLY-309
p573
aVMASSEMBLY-308
p574
aVMASSEMBLY-307
p575
aVMASSEMBLY-306
p576
aVMASSEMBLY-305
p577
aVMASSEMBLY-304
p578
aVMASSEMBLY-303
p579
aVMASSEMBLY-302
p580
aVMASSEMBLY-301
p581
aVMASSEMBLY-300
p582
aVMASSEMBLY-299
p583
aVMASSEMBLY-298
p584
aVMASSEMBLY-297
p585
aVMASSEMBLY-296
p586
aVMASSEMBLY-295
p587
aVMASSEMBLY-294
p588
aVMASSEMBLY-293
p589
aVMASSEMBLY-292
p590
aVMASSEMBLY-291
p591
aVMASSEMBLY-290
p592
aVMASSEMBLY-289
p593
aVMASSEMBLY-288
p594
aVMASSEMBLY-287
p595
aVMASSEMBLY-286
p596
aVMASSEMBLY-285
p597
aVMASSEMBLY-284
p598
aVMASSEMBLY-283
p599
aVMASSEMBLY-282
p600
aVMASSEMBLY-281
p601
aVMASSEMBLY-280
p602
aVMASSEMBLY-279
p603
aVMASSEMBLY-278
p604
aVMASSEMBLY-277
p605
aVMASSEMBLY-276
p606
aVMASSEMBLY-275
p607
aVMASSEMBLY-274
p608
aVMASSEMBLY-273
p609
aVMASSEMBLY-272
p610
aVMASSEMBLY-271
p611
aVMASSEMBLY-270
p612
aVMASSEMBLY-269
p613
aVMASSEMBLY-268
p614
aVMASSEMBLY-267
p615
aVMASSEMBLY-266
p616
aVMASSEMBLY-265
p617
aVMASSEMBLY-264
p618
aVMASSEMBLY-263
p619
aVMASSEMBLY-262
p620
aVMASSEMBLY-261
p621
aVMASSEMBLY-260
p622
aVMASSEMBLY-259
p623
aVMASSEMBLY-258
p624
aVMASSEMBLY-257
p625
aVMASSEMBLY-256
p626
aVMASSEMBLY-255
p627
aVMASSEMBLY-254
p628
aVMASSEMBLY-253
p629
aVMASSEMBLY-252
p630
aVMASSEMBLY-251
p631
aVMASSEMBLY-250
p632
aVMASSEMBLY-249
p633
aVMASSEMBLY-248
p634
aVMASSEMBLY-247
p635
aVMASSEMBLY-246
p636
aVMASSEMBLY-245
p637
aVMASSEMBLY-244
p638
aVMASSEMBLY-243
p639
aVMASSEMBLY-242
p640
aVMASSEMBLY-241
p641
aVMASSEMBLY-240
p642
aVMASSEMBLY-239
p643
aVMASSEMBLY-238
p644
aVMASSEMBLY-237
p645
aVMASSEMBLY-236
p646
aVMASSEMBLY-235
p647
aVMASSEMBLY-234
p648
aVMASSEMBLY-233
p649
aVMASSEMBLY-232
p650
aVMASSEMBLY-231
p651
aVMASSEMBLY-230
p652
aVMASSEMBLY-229
p653
aVMASSEMBLY-228
p654
aVMASSEMBLY-227
p655
aVMASSEMBLY-226
p656
aVMASSEMBLY-225
p657
aVMASSEMBLY-224
p658
aVMASSEMBLY-223
p659
aVMASSEMBLY-222
p660
aVMASSEMBLY-221
p661
aVMASSEMBLY-220
p662
aVMASSEMBLY-219
p663
aVMASSEMBLY-218
p664
aVMASSEMBLY-217
p665
aVMASSEMBLY-216
p666
aVMASSEMBLY-215
p667
aVMASSEMBLY-214
p668
aVMASSEMBLY-213
p669
aVMASSEMBLY-212
p670
aVMASSEMBLY-211
p671
aVMASSEMBLY-210
p672
aVMASSEMBLY-209
p673
aVMASSEMBLY-208
p674
aVMASSEMBLY-207
p675
aVMASSEMBLY-206
p676
aVMASSEMBLY-205
p677
aVMASSEMBLY-204
p678
aVMASSEMBLY-203
p679
aVMASSEMBLY-202
p680
aVMASSEMBLY-201
p681
aVMASSEMBLY-200
p682
aVMASSEMBLY-199
p683
aVMASSEMBLY-198
p684
aVMASSEMBLY-197
p685
aVMASSEMBLY-196
p686
aVMASSEMBLY-195
p687
aVMASSEMBLY-194
p688
aVMASSEMBLY-193
p689
aVMASSEMBLY-192
p690
aVMASSEMBLY-191
p691
aVMASSEMBLY-190
p692
aVMASSEMBLY-189
p693
aVMASSEMBLY-188
p694
aVMASSEMBLY-187
p695
aVMASSEMBLY-186
p696
aVMASSEMBLY-185
p697
aVMASSEMBLY-184
p698
aVMASSEMBLY-183
p699
aVMASSEMBLY-182
p700
aVMASSEMBLY-180
p701
aVMASSEMBLY-179
p702
aVMASSEMBLY-178
p703
aVMASSEMBLY-177
p704
aVMASSEMBLY-176
p705
aVMASSEMBLY-175
p706
aVMASSEMBLY-174
p707
aVMASSEMBLY-173
p708
aVMASSEMBLY-172
p709
aVMASSEMBLY-171
p710
aVMASSEMBLY-170
p711
aVMASSEMBLY-169
p712
aVMASSEMBLY-168
p713
aVMASSEMBLY-167
p714
aVMASSEMBLY-166
p715
aVMASSEMBLY-165
p716
aVMASSEMBLY-164
p717
aVMASSEMBLY-163
p718
aVMASSEMBLY-162
p719
aVMASSEMBLY-161
p720
aVMASSEMBLY-160
p721
aVMASSEMBLY-159
p722
aVMASSEMBLY-158
p723
aVMASSEMBLY-157
p724
aVMASSEMBLY-156
p725
aVMASSEMBLY-155
p726
aVMASSEMBLY-154
p727
aVMASSEMBLY-153
p728
aVMASSEMBLY-152
p729
aVMASSEMBLY-151
p730
aVMASSEMBLY-150
p731
aVMASSEMBLY-149
p732
aVMASSEMBLY-148
p733
aVMASSEMBLY-147
p734
aVMASSEMBLY-146
p735
aVMASSEMBLY-145
p736
aVMASSEMBLY-144
p737
aVMASSEMBLY-143
p738
aVMASSEMBLY-142
p739
aVMASSEMBLY-141
p740
aVMASSEMBLY-140
p741
aVMASSEMBLY-139
p742
aVMASSEMBLY-138
p743
aVMASSEMBLY-137
p744
aVMASSEMBLY-136
p745
aVMASSEMBLY-135
p746
aVMASSEMBLY-134
p747
aVMASSEMBLY-133
p748
aVMASSEMBLY-132
p749
aVMASSEMBLY-131
p750
aVMASSEMBLY-130
p751
aVMASSEMBLY-129
p752
aVMASSEMBLY-128
p753
aVMASSEMBLY-127
p754
aVMASSEMBLY-126
p755
aVMASSEMBLY-125
p756
aVMASSEMBLY-124
p757
aVMASSEMBLY-123
p758
aVMASSEMBLY-122
p759
aVMASSEMBLY-121
p760
aVMASSEMBLY-120
p761
aVMASSEMBLY-119
p762
aVMASSEMBLY-118
p763
aVMASSEMBLY-117
p764
aVMASSEMBLY-116
p765
aVMASSEMBLY-115
p766
aVMASSEMBLY-114
p767
aVMASSEMBLY-113
p768
aVMASSEMBLY-112
p769
aVMASSEMBLY-111
p770
aVMASSEMBLY-110
p771
aVMASSEMBLY-109
p772
aVMASSEMBLY-108
p773
aVMASSEMBLY-107
p774
aVMASSEMBLY-106
p775
aVMASSEMBLY-105
p776
aVMASSEMBLY-104
p777
aVMASSEMBLY-103
p778
aVMASSEMBLY-102
p779
aVMASSEMBLY-101
p780
aVMASSEMBLY-100
p781
aVMASSEMBLY-99
p782
aVMASSEMBLY-98
p783
aVMASSEMBLY-97
p784
aVMASSEMBLY-96
p785
aVMASSEMBLY-95
p786
aVMASSEMBLY-94
p787
aVMASSEMBLY-93
p788
aVMASSEMBLY-92
p789
aVMASSEMBLY-91
p790
aVMASSEMBLY-90
p791
aVMASSEMBLY-89
p792
aVMASSEMBLY-88
p793
aVMASSEMBLY-87
p794
aVMASSEMBLY-86
p795
aVMASSEMBLY-85
p796
aVMASSEMBLY-84
p797
aVMASSEMBLY-83
p798
aVMASSEMBLY-82
p799
aVMASSEMBLY-81
p800
aVMASSEMBLY-80
p801
aVMASSEMBLY-79
p802
aVMASSEMBLY-78
p803
aVMASSEMBLY-77
p804
aVMASSEMBLY-76
p805
aVMASSEMBLY-75
p806
aVMASSEMBLY-74
p807
aVMASSEMBLY-73
p808
aVMASSEMBLY-72
p809
aVMASSEMBLY-71
p810
aVMASSEMBLY-70
p811
aVMASSEMBLY-69
p812
aVMASSEMBLY-68
p813
aVMASSEMBLY-67
p814
aVMASSEMBLY-66
p815
aVMASSEMBLY-65
p816
aVMASSEMBLY-64
p817
aVMASSEMBLY-63
p818
aVMASSEMBLY-62
p819
aVMASSEMBLY-61
p820
aVMASSEMBLY-60
p821
aVMASSEMBLY-59
p822
aVMASSEMBLY-58
p823
aVMASSEMBLY-57
p824
aVMASSEMBLY-56
p825
aVMASSEMBLY-55
p826
aVMASSEMBLY-54
p827
aVMASSEMBLY-53
p828
aVMASSEMBLY-52
p829
aVMASSEMBLY-51
p830
aVMASSEMBLY-50
p831
aVMASSEMBLY-49
p832
aVMASSEMBLY-48
p833
aVMASSEMBLY-47
p834
aVMASSEMBLY-46
p835
aVMASSEMBLY-45
p836
aVMASSEMBLY-44
p837
aVMASSEMBLY-43
p838
aVMASSEMBLY-42
p839
aVMASSEMBLY-41
p840
aVMASSEMBLY-40
p841
aVMASSEMBLY-39
p842
aVMASSEMBLY-38
p843
aVMASSEMBLY-37
p844
aVMASSEMBLY-36
p845
aVMASSEMBLY-35
p846
aVMASSEMBLY-34
p847
aVMASSEMBLY-33
p848
aVMASSEMBLY-32
p849
aVMASSEMBLY-31
p850
aVMASSEMBLY-30
p851
aVMASSEMBLY-29
p852
aVMASSEMBLY-28
p853
aVMASSEMBLY-27
p854
aVMASSEMBLY-26
p855
aVMASSEMBLY-25
p856
aVMASSEMBLY-24
p857
aVMASSEMBLY-23
p858
aVMASSEMBLY-22
p859
aVMASSEMBLY-21
p860
aVMASSEMBLY-20
p861
aVMASSEMBLY-19
p862
aVMASSEMBLY-18
p863
aVMASSEMBLY-17
p864
aVMASSEMBLY-16
p865
aVMASSEMBLY-15
p866
aVMASSEMBLY-14
p867
aVMASSEMBLY-13
p868
aVMASSEMBLY-11
p869
aVMASSEMBLY-10
p870
aVMASSEMBLY-9
p871
aVMASSEMBLY-8
p872
aVMASSEMBLY-7
p873
aVMASSEMBLY-6
p874
aVMASSEMBLY-5
p875
aVMASSEMBLY-4
p876
aVMASSEMBLY-3
p877
aVMASSEMBLY-2
p878
aVMASSEMBLY-1
p879
a.