(lp0
VMATH-1464
p1
aVMATH-1463
p2
aVMATH-1462
p3
aVMATH-1461
p4
aVMATH-1460
p5
aVMATH-1459
p6
aVMATH-1458
p7
aVMATH-1457
p8
aVMATH-1456
p9
aVMATH-1455
p10
aVMATH-1454
p11
aVMATH-1453
p12
aVMATH-1452
p13
aVMATH-1451
p14
aVMATH-1450
p15
aVMATH-1449
p16
aVMATH-1448
p17
aVMATH-1447
p18
aVMATH-1446
p19
aVMATH-1445
p20
aVMATH-1444
p21
aVMATH-1443
p22
aVMATH-1442
p23
aVMATH-1441
p24
aVMATH-1440
p25
aVMATH-1439
p26
aVMATH-1438
p27
aVMATH-1437
p28
aVMATH-1436
p29
aVMATH-1435
p30
aVMATH-1434
p31
aVMATH-1433
p32
aVMATH-1432
p33
aVMATH-1431
p34
aVMATH-1430
p35
aVMATH-1429
p36
aVMATH-1428
p37
aVMATH-1427
p38
aVMATH-1426
p39
aVMATH-1425
p40
aVMATH-1424
p41
aVMATH-1423
p42
aVMATH-1422
p43
aVMATH-1421
p44
aVMATH-1420
p45
aVMATH-1419
p46
aVMATH-1418
p47
aVMATH-1417
p48
aVMATH-1416
p49
aVMATH-1414
p50
aVMATH-1413
p51
aVMATH-1412
p52
aVMATH-1411
p53
aVMATH-1410
p54
aVMATH-1409
p55
aVMATH-1408
p56
aVMATH-1407
p57
aVMATH-1406
p58
aVMATH-1405
p59
aVMATH-1404
p60
aVMATH-1403
p61
aVMATH-1402
p62
aVMATH-1401
p63
aVMATH-1400
p64
aVMATH-1399
p65
aVMATH-1398
p66
aVMATH-1397
p67
aVMATH-1396
p68
aVMATH-1395
p69
aVMATH-1394
p70
aVMATH-1393
p71
aVMATH-1392
p72
aVMATH-1391
p73
aVMATH-1390
p74
aVMATH-1389
p75
aVMATH-1388
p76
aVMATH-1387
p77
aVMATH-1386
p78
aVMATH-1385
p79
aVMATH-1384
p80
aVMATH-1383
p81
aVMATH-1382
p82
aVMATH-1381
p83
aVMATH-1380
p84
aVMATH-1379
p85
aVMATH-1378
p86
aVMATH-1377
p87
aVMATH-1376
p88
aVMATH-1375
p89
aVMATH-1374
p90
aVMATH-1373
p91
aVMATH-1372
p92
aVMATH-1371
p93
aVMATH-1370
p94
aVMATH-1369
p95
aVMATH-1368
p96
aVMATH-1367
p97
aVMATH-1366
p98
aVMATH-1365
p99
aVMATH-1364
p100
aVMATH-1363
p101
aVMATH-1362
p102
aVMATH-1361
p103
aVMATH-1360
p104
aVMATH-1359
p105
aVMATH-1358
p106
aVMATH-1357
p107
aVMATH-1356
p108
aVMATH-1355
p109
aVMATH-1354
p110
aVMATH-1353
p111
aVMATH-1352
p112
aVMATH-1351
p113
aVMATH-1350
p114
aVMATH-1349
p115
aVMATH-1348
p116
aVMATH-1347
p117
aVMATH-1346
p118
aVMATH-1345
p119
aVMATH-1344
p120
aVMATH-1343
p121
aVMATH-1342
p122
aVMATH-1341
p123
aVMATH-1340
p124
aVMATH-1339
p125
aVMATH-1338
p126
aVMATH-1337
p127
aVMATH-1336
p128
aVMATH-1335
p129
aVMATH-1334
p130
aVMATH-1333
p131
aVMATH-1332
p132
aVMATH-1331
p133
aVMATH-1330
p134
aVMATH-1329
p135
aVMATH-1328
p136
aVMATH-1327
p137
aVMATH-1326
p138
aVMATH-1325
p139
aVMATH-1324
p140
aVMATH-1323
p141
aVMATH-1322
p142
aVMATH-1321
p143
aVMATH-1320
p144
aVMATH-1319
p145
aVMATH-1318
p146
aVMATH-1317
p147
aVMATH-1316
p148
aVMATH-1315
p149
aVMATH-1314
p150
aVMATH-1313
p151
aVMATH-1312
p152
aVMATH-1311
p153
aVMATH-1310
p154
aVMATH-1309
p155
aVMATH-1308
p156
aVMATH-1307
p157
aVMATH-1306
p158
aVMATH-1305
p159
aVMATH-1304
p160
aVMATH-1303
p161
aVMATH-1302
p162
aVMATH-1301
p163
aVMATH-1300
p164
aVMATH-1299
p165
aVMATH-1298
p166
aVMATH-1297
p167
aVMATH-1296
p168
aVMATH-1295
p169
aVMATH-1294
p170
aVMATH-1293
p171
aVMATH-1292
p172
aVMATH-1291
p173
aVMATH-1290
p174
aVMATH-1289
p175
aVMATH-1288
p176
aVMATH-1287
p177
aVMATH-1286
p178
aVMATH-1285
p179
aVMATH-1284
p180
aVMATH-1283
p181
aVMATH-1282
p182
aVMATH-1281
p183
aVMATH-1280
p184
aVMATH-1279
p185
aVMATH-1278
p186
aVMATH-1277
p187
aVMATH-1276
p188
aVMATH-1275
p189
aVMATH-1274
p190
aVMATH-1273
p191
aVMATH-1272
p192
aVMATH-1271
p193
aVMATH-1270
p194
aVMATH-1269
p195
aVMATH-1268
p196
aVMATH-1267
p197
aVMATH-1266
p198
aVMATH-1265
p199
aVMATH-1264
p200
aVMATH-1263
p201
aVMATH-1262
p202
aVMATH-1261
p203
aVMATH-1260
p204
aVMATH-1259
p205
aVMATH-1258
p206
aVMATH-1257
p207
aVMATH-1256
p208
aVMATH-1255
p209
aVMATH-1254
p210
aVMATH-1253
p211
aVMATH-1252
p212
aVMATH-1251
p213
aVMATH-1250
p214
aVMATH-1249
p215
aVMATH-1248
p216
aVMATH-1247
p217
aVMATH-1246
p218
aVMATH-1245
p219
aVMATH-1244
p220
aVMATH-1243
p221
aVMATH-1242
p222
aVMATH-1241
p223
aVMATH-1240
p224
aVMATH-1239
p225
aVMATH-1238
p226
aVMATH-1237
p227
aVMATH-1236
p228
aVMATH-1235
p229
aVMATH-1234
p230
aVMATH-1233
p231
aVMATH-1232
p232
aVMATH-1231
p233
aVMATH-1230
p234
aVMATH-1229
p235
aVMATH-1228
p236
aVMATH-1227
p237
aVMATH-1226
p238
aVMATH-1225
p239
aVMATH-1224
p240
aVMATH-1223
p241
aVMATH-1222
p242
aVMATH-1221
p243
aVMATH-1220
p244
aVMATH-1219
p245
aVMATH-1218
p246
aVMATH-1217
p247
aVMATH-1216
p248
aVMATH-1215
p249
aVMATH-1214
p250
aVMATH-1213
p251
aVMATH-1212
p252
aVMATH-1211
p253
aVMATH-1210
p254
aVMATH-1209
p255
aVMATH-1208
p256
aVMATH-1207
p257
aVMATH-1206
p258
aVMATH-1205
p259
aVMATH-1204
p260
aVMATH-1203
p261
aVMATH-1202
p262
aVMATH-1201
p263
aVMATH-1200
p264
aVMATH-1199
p265
aVMATH-1198
p266
aVMATH-1197
p267
aVMATH-1196
p268
aVMATH-1195
p269
aVMATH-1194
p270
aVMATH-1193
p271
aVMATH-1192
p272
aVMATH-1191
p273
aVMATH-1190
p274
aVMATH-1189
p275
aVMATH-1188
p276
aVMATH-1187
p277
aVMATH-1186
p278
aVMATH-1185
p279
aVMATH-1184
p280
aVMATH-1183
p281
aVMATH-1182
p282
aVMATH-1181
p283
aVMATH-1180
p284
aVMATH-1179
p285
aVMATH-1178
p286
aVMATH-1177
p287
aVMATH-1176
p288
aVMATH-1175
p289
aVMATH-1174
p290
aVMATH-1173
p291
aVMATH-1172
p292
aVMATH-1171
p293
aVMATH-1170
p294
aVMATH-1169
p295
aVMATH-1168
p296
aVMATH-1167
p297
aVMATH-1166
p298
aVMATH-1165
p299
aVMATH-1162
p300
aVMATH-1161
p301
aVMATH-1160
p302
aVMATH-1159
p303
aVMATH-1158
p304
aVMATH-1157
p305
aVMATH-1156
p306
aVMATH-1155
p307
aVMATH-1154
p308
aVMATH-1153
p309
aVMATH-1152
p310
aVMATH-1151
p311
aVMATH-1150
p312
aVMATH-1149
p313
aVMATH-1148
p314
aVMATH-1147
p315
aVMATH-1146
p316
aVMATH-1145
p317
aVMATH-1144
p318
aVMATH-1143
p319
aVMATH-1142
p320
aVMATH-1141
p321
aVMATH-1140
p322
aVMATH-1139
p323
aVMATH-1138
p324
aVMATH-1137
p325
aVMATH-1136
p326
aVMATH-1135
p327
aVMATH-1134
p328
aVMATH-1133
p329
aVMATH-1132
p330
aVMATH-1131
p331
aVMATH-1130
p332
aVMATH-1129
p333
aVMATH-1128
p334
aVMATH-1127
p335
aVMATH-1126
p336
aVMATH-1125
p337
aVMATH-1124
p338
aVMATH-1123
p339
aVMATH-1122
p340
aVMATH-1121
p341
aVMATH-1120
p342
aVMATH-1119
p343
aVMATH-1118
p344
aVMATH-1117
p345
aVMATH-1116
p346
aVMATH-1115
p347
aVMATH-1114
p348
aVMATH-1113
p349
aVMATH-1112
p350
aVMATH-1111
p351
aVMATH-1110
p352
aVMATH-1109
p353
aVMATH-1108
p354
aVMATH-1107
p355
aVMATH-1106
p356
aVMATH-1105
p357
aVMATH-1104
p358
aVMATH-1103
p359
aVMATH-1102
p360
aVMATH-1101
p361
aVMATH-1100
p362
aVMATH-1099
p363
aVMATH-1098
p364
aVMATH-1097
p365
aVMATH-1096
p366
aVMATH-1095
p367
aVMATH-1094
p368
aVMATH-1093
p369
aVMATH-1092
p370
aVMATH-1091
p371
aVMATH-1090
p372
aVMATH-1089
p373
aVMATH-1088
p374
aVMATH-1087
p375
aVMATH-1086
p376
aVMATH-1085
p377
aVMATH-1084
p378
aVMATH-1083
p379
aVMATH-1082
p380
aVMATH-1081
p381
aVMATH-1080
p382
aVMATH-1079
p383
aVMATH-1078
p384
aVMATH-1077
p385
aVMATH-1076
p386
aVMATH-1075
p387
aVMATH-1074
p388
aVMATH-1073
p389
aVMATH-1072
p390
aVMATH-1071
p391
aVMATH-1070
p392
aVMATH-1069
p393
aVMATH-1068
p394
aVMATH-1067
p395
aVMATH-1066
p396
aVMATH-1065
p397
aVMATH-1064
p398
aVMATH-1063
p399
aVMATH-1062
p400
aVMATH-1061
p401
aVMATH-1060
p402
aVMATH-1059
p403
aVMATH-1058
p404
aVMATH-1057
p405
aVMATH-1056
p406
aVMATH-1055
p407
aVMATH-1054
p408
aVMATH-1053
p409
aVMATH-1052
p410
aVMATH-1051
p411
aVMATH-1050
p412
aVMATH-1049
p413
aVMATH-1048
p414
aVMATH-1047
p415
aVMATH-1046
p416
aVMATH-1045
p417
aVMATH-1044
p418
aVMATH-1043
p419
aVMATH-1042
p420
aVMATH-1041
p421
aVMATH-1039
p422
aVMATH-1038
p423
aVMATH-1037
p424
aVMATH-1036
p425
aVMATH-1035
p426
aVMATH-1034
p427
aVMATH-1033
p428
aVMATH-1032
p429
aVMATH-1031
p430
aVMATH-1030
p431
aVMATH-1029
p432
aVMATH-1028
p433
aVMATH-1027
p434
aVMATH-1026
p435
aVMATH-1025
p436
aVMATH-1024
p437
aVMATH-1023
p438
aVMATH-1022
p439
aVMATH-1021
p440
aVMATH-1020
p441
aVMATH-1019
p442
aVMATH-1018
p443
aVMATH-1017
p444
aVMATH-1016
p445
aVMATH-1015
p446
aVMATH-1014
p447
aVMATH-1013
p448
aVMATH-1012
p449
aVMATH-1011
p450
aVMATH-1010
p451
aVMATH-1009
p452
aVMATH-1008
p453
aVMATH-1007
p454
aVMATH-1006
p455
aVMATH-1005
p456
aVMATH-1004
p457
aVMATH-1003
p458
aVMATH-1002
p459
aVMATH-1001
p460
aVMATH-1000
p461
aVMATH-999
p462
aVMATH-998
p463
aVMATH-997
p464
aVMATH-996
p465
aVMATH-995
p466
aVMATH-994
p467
aVMATH-993
p468
aVMATH-992
p469
aVMATH-991
p470
aVMATH-990
p471
aVMATH-989
p472
aVMATH-988
p473
aVMATH-987
p474
aVMATH-986
p475
aVMATH-985
p476
aVMATH-984
p477
aVMATH-983
p478
aVMATH-982
p479
aVMATH-981
p480
aVMATH-980
p481
aVMATH-979
p482
aVMATH-978
p483
aVMATH-977
p484
aVMATH-976
p485
aVMATH-975
p486
aVMATH-974
p487
aVMATH-973
p488
aVMATH-972
p489
aVMATH-971
p490
aVMATH-970
p491
aVMATH-969
p492
aVMATH-968
p493
aVMATH-967
p494
aVMATH-966
p495
aVMATH-965
p496
aVMATH-964
p497
aVMATH-963
p498
aVMATH-962
p499
aVMATH-961
p500
aVMATH-960
p501
aVMATH-959
p502
aVMATH-958
p503
aVMATH-957
p504
aVMATH-956
p505
aVMATH-955
p506
aVMATH-954
p507
aVMATH-953
p508
aVMATH-952
p509
aVMATH-951
p510
aVMATH-950
p511
aVMATH-949
p512
aVMATH-948
p513
aVMATH-947
p514
aVMATH-946
p515
aVMATH-945
p516
aVMATH-944
p517
aVMATH-943
p518
aVMATH-942
p519
aVMATH-941
p520
aVMATH-940
p521
aVMATH-939
p522
aVMATH-938
p523
aVMATH-937
p524
aVMATH-936
p525
aVMATH-935
p526
aVMATH-934
p527
aVMATH-933
p528
aVMATH-932
p529
aVMATH-931
p530
aVMATH-930
p531
aVMATH-929
p532
aVMATH-928
p533
aVMATH-927
p534
aVMATH-926
p535
aVMATH-925
p536
aVMATH-924
p537
aVMATH-923
p538
aVMATH-922
p539
aVMATH-921
p540
aVMATH-920
p541
aVMATH-919
p542
aVMATH-918
p543
aVMATH-917
p544
aVMATH-916
p545
aVMATH-915
p546
aVMATH-914
p547
aVMATH-913
p548
aVMATH-912
p549
aVMATH-911
p550
aVMATH-910
p551
aVMATH-909
p552
aVMATH-908
p553
aVMATH-907
p554
aVMATH-906
p555
aVMATH-905
p556
aVMATH-904
p557
aVMATH-903
p558
aVMATH-902
p559
aVMATH-901
p560
aVMATH-900
p561
aVMATH-899
p562
aVMATH-898
p563
aVMATH-897
p564
aVMATH-896
p565
aVMATH-895
p566
aVMATH-894
p567
aVMATH-893
p568
aVMATH-892
p569
aVMATH-891
p570
aVMATH-890
p571
aVMATH-889
p572
aVMATH-888
p573
aVMATH-887
p574
aVMATH-886
p575
aVMATH-885
p576
aVMATH-884
p577
aVMATH-883
p578
aVMATH-882
p579
aVMATH-881
p580
aVMATH-880
p581
aVMATH-879
p582
aVMATH-878
p583
aVMATH-877
p584
aVMATH-876
p585
aVMATH-875
p586
aVMATH-874
p587
aVMATH-873
p588
aVMATH-872
p589
aVMATH-871
p590
aVMATH-870
p591
aVMATH-869
p592
aVMATH-868
p593
aVMATH-867
p594
aVMATH-866
p595
aVMATH-865
p596
aVMATH-864
p597
aVMATH-863
p598
aVMATH-862
p599
aVMATH-861
p600
aVMATH-860
p601
aVMATH-859
p602
aVMATH-858
p603
aVMATH-857
p604
aVMATH-856
p605
aVMATH-855
p606
aVMATH-854
p607
aVMATH-853
p608
aVMATH-852
p609
aVMATH-851
p610
aVMATH-850
p611
aVMATH-849
p612
aVMATH-848
p613
aVMATH-847
p614
aVMATH-846
p615
aVMATH-845
p616
aVMATH-844
p617
aVMATH-843
p618
aVMATH-842
p619
aVMATH-841
p620
aVMATH-840
p621
aVMATH-839
p622
aVMATH-838
p623
aVMATH-837
p624
aVMATH-836
p625
aVMATH-835
p626
aVMATH-834
p627
aVMATH-833
p628
aVMATH-832
p629
aVMATH-831
p630
aVMATH-830
p631
aVMATH-829
p632
aVMATH-828
p633
aVMATH-827
p634
aVMATH-826
p635
aVMATH-825
p636
aVMATH-824
p637
aVMATH-823
p638
aVMATH-822
p639
aVMATH-821
p640
aVMATH-820
p641
aVMATH-819
p642
aVMATH-818
p643
aVMATH-817
p644
aVMATH-816
p645
aVMATH-815
p646
aVMATH-814
p647
aVMATH-813
p648
aVMATH-812
p649
aVMATH-811
p650
aVMATH-810
p651
aVMATH-809
p652
aVMATH-808
p653
aVMATH-807
p654
aVMATH-806
p655
aVMATH-805
p656
aVMATH-804
p657
aVMATH-803
p658
aVMATH-802
p659
aVMATH-801
p660
aVMATH-800
p661
aVMATH-799
p662
aVMATH-798
p663
aVMATH-797
p664
aVMATH-796
p665
aVMATH-795
p666
aVMATH-794
p667
aVMATH-793
p668
aVMATH-792
p669
aVMATH-791
p670
aVMATH-790
p671
aVMATH-789
p672
aVMATH-788
p673
aVMATH-787
p674
aVMATH-786
p675
aVMATH-785
p676
aVMATH-784
p677
aVMATH-783
p678
aVMATH-782
p679
aVMATH-781
p680
aVMATH-780
p681
aVMATH-779
p682
aVMATH-778
p683
aVMATH-777
p684
aVMATH-776
p685
aVMATH-775
p686
aVMATH-774
p687
aVMATH-773
p688
aVMATH-772
p689
aVMATH-771
p690
aVMATH-770
p691
aVMATH-769
p692
aVMATH-768
p693
aVMATH-767
p694
aVMATH-766
p695
aVMATH-765
p696
aVMATH-764
p697
aVMATH-763
p698
aVMATH-762
p699
aVMATH-761
p700
aVMATH-760
p701
aVMATH-759
p702
aVMATH-758
p703
aVMATH-757
p704
aVMATH-756
p705
aVMATH-755
p706
aVMATH-754
p707
aVMATH-753
p708
aVMATH-752
p709
aVMATH-751
p710
aVMATH-750
p711
aVMATH-749
p712
aVMATH-748
p713
aVMATH-747
p714
aVMATH-746
p715
aVMATH-745
p716
aVMATH-744
p717
aVMATH-743
p718
aVMATH-742
p719
aVMATH-741
p720
aVMATH-740
p721
aVMATH-739
p722
aVMATH-737
p723
aVMATH-736
p724
aVMATH-735
p725
aVMATH-734
p726
aVMATH-733
p727
aVMATH-732
p728
aVMATH-731
p729
aVMATH-730
p730
aVMATH-729
p731
aVMATH-728
p732
aVMATH-727
p733
aVMATH-726
p734
aVMATH-725
p735
aVMATH-724
p736
aVMATH-723
p737
aVMATH-722
p738
aVMATH-721
p739
aVMATH-720
p740
aVMATH-719
p741
aVMATH-718
p742
aVMATH-717
p743
aVMATH-716
p744
aVMATH-715
p745
aVMATH-714
p746
aVMATH-713
p747
aVMATH-712
p748
aVMATH-711
p749
aVMATH-710
p750
aVMATH-709
p751
aVMATH-708
p752
aVMATH-707
p753
aVMATH-706
p754
aVMATH-705
p755
aVMATH-704
p756
aVMATH-703
p757
aVMATH-702
p758
aVMATH-701
p759
aVMATH-700
p760
aVMATH-699
p761
aVMATH-698
p762
aVMATH-697
p763
aVMATH-696
p764
aVMATH-695
p765
aVMATH-694
p766
aVMATH-693
p767
aVMATH-692
p768
aVMATH-691
p769
aVMATH-690
p770
aVMATH-689
p771
aVMATH-688
p772
aVMATH-687
p773
aVMATH-686
p774
aVMATH-685
p775
aVMATH-684
p776
aVMATH-683
p777
aVMATH-682
p778
aVMATH-679
p779
aVMATH-678
p780
aVMATH-677
p781
aVMATH-676
p782
aVMATH-675
p783
aVMATH-674
p784
aVMATH-673
p785
aVMATH-672
p786
aVMATH-671
p787
aVMATH-670
p788
aVMATH-669
p789
aVMATH-668
p790
aVMATH-667
p791
aVMATH-666
p792
aVMATH-665
p793
aVMATH-664
p794
aVMATH-663
p795
aVMATH-662
p796
aVMATH-661
p797
aVMATH-660
p798
aVMATH-659
p799
aVMATH-658
p800
aVMATH-657
p801
aVMATH-656
p802
aVMATH-655
p803
aVMATH-654
p804
aVMATH-653
p805
aVMATH-652
p806
aVMATH-651
p807
aVMATH-650
p808
aVMATH-649
p809
aVMATH-648
p810
aVMATH-647
p811
aVMATH-646
p812
aVMATH-645
p813
aVMATH-644
p814
aVMATH-643
p815
aVMATH-642
p816
aVMATH-641
p817
aVMATH-640
p818
aVMATH-639
p819
aVMATH-638
p820
aVMATH-637
p821
aVMATH-636
p822
aVMATH-635
p823
aVMATH-634
p824
aVMATH-633
p825
aVMATH-632
p826
aVMATH-631
p827
aVMATH-630
p828
aVMATH-629
p829
aVMATH-628
p830
aVMATH-627
p831
aVMATH-626
p832
aVMATH-625
p833
aVMATH-624
p834
aVMATH-623
p835
aVMATH-622
p836
aVMATH-621
p837
aVMATH-620
p838
aVMATH-619
p839
aVMATH-618
p840
aVMATH-617
p841
aVMATH-616
p842
aVMATH-615
p843
aVMATH-614
p844
aVMATH-613
p845
aVMATH-612
p846
aVMATH-611
p847
aVMATH-610
p848
aVMATH-609
p849
aVMATH-608
p850
aVMATH-607
p851
aVMATH-606
p852
aVMATH-605
p853
aVMATH-604
p854
aVMATH-603
p855
aVMATH-602
p856
aVMATH-601
p857
aVMATH-600
p858
aVMATH-599
p859
aVMATH-598
p860
aVMATH-597
p861
aVMATH-596
p862
aVMATH-595
p863
aVMATH-594
p864
aVMATH-593
p865
aVMATH-592
p866
aVMATH-591
p867
aVMATH-590
p868
aVMATH-589
p869
aVMATH-588
p870
aVMATH-587
p871
aVMATH-586
p872
aVMATH-585
p873
aVMATH-584
p874
aVMATH-583
p875
aVMATH-582
p876
aVMATH-581
p877
aVMATH-580
p878
aVMATH-579
p879
aVMATH-578
p880
aVMATH-577
p881
aVMATH-576
p882
aVMATH-575
p883
aVMATH-574
p884
aVMATH-573
p885
aVMATH-572
p886
aVMATH-571
p887
aVMATH-570
p888
aVMATH-569
p889
aVMATH-568
p890
aVMATH-567
p891
aVMATH-566
p892
aVMATH-565
p893
aVMATH-564
p894
aVMATH-563
p895
aVMATH-562
p896
aVMATH-561
p897
aVMATH-560
p898
aVMATH-559
p899
aVMATH-558
p900
aVMATH-557
p901
aVMATH-556
p902
aVMATH-555
p903
aVMATH-554
p904
aVMATH-553
p905
aVMATH-552
p906
aVMATH-551
p907
aVMATH-550
p908
aVMATH-549
p909
aVMATH-548
p910
aVMATH-547
p911
aVMATH-546
p912
aVMATH-545
p913
aVMATH-544
p914
aVMATH-543
p915
aVMATH-542
p916
aVMATH-541
p917
aVMATH-540
p918
aVMATH-539
p919
aVMATH-538
p920
aVMATH-537
p921
aVMATH-536
p922
aVMATH-535
p923
aVMATH-534
p924
aVMATH-533
p925
aVMATH-532
p926
aVMATH-531
p927
aVMATH-530
p928
aVMATH-529
p929
aVMATH-528
p930
aVMATH-527
p931
aVMATH-526
p932
aVMATH-525
p933
aVMATH-524
p934
aVMATH-523
p935
aVMATH-522
p936
aVMATH-521
p937
aVMATH-520
p938
aVMATH-519
p939
aVMATH-518
p940
aVMATH-517
p941
aVMATH-516
p942
aVMATH-515
p943
aVMATH-514
p944
aVMATH-513
p945
aVMATH-512
p946
aVMATH-511
p947
aVMATH-510
p948
aVMATH-509
p949
aVMATH-508
p950
aVMATH-507
p951
aVMATH-506
p952
aVMATH-505
p953
aVMATH-504
p954
aVMATH-503
p955
aVMATH-502
p956
aVMATH-501
p957
aVMATH-500
p958
aVMATH-499
p959
aVMATH-498
p960
aVMATH-497
p961
aVMATH-496
p962
aVMATH-495
p963
aVMATH-494
p964
aVMATH-493
p965
aVMATH-492
p966
aVMATH-491
p967
aVMATH-490
p968
aVMATH-489
p969
aVMATH-488
p970
aVMATH-487
p971
aVMATH-486
p972
aVMATH-485
p973
aVMATH-484
p974
aVMATH-483
p975
aVMATH-482
p976
aVMATH-481
p977
aVMATH-480
p978
aVMATH-479
p979
aVMATH-478
p980
aVMATH-477
p981
aVMATH-476
p982
aVMATH-475
p983
aVMATH-474
p984
aVMATH-473
p985
aVMATH-472
p986
aVMATH-471
p987
aVMATH-470
p988
aVMATH-469
p989
aVMATH-468
p990
aVMATH-467
p991
aVMATH-466
p992
aVMATH-465
p993
aVMATH-464
p994
aVMATH-463
p995
aVMATH-462
p996
aVMATH-461
p997
aVMATH-460
p998
aVMATH-459
p999
aVMATH-458
p1000
aVMATH-457
p1001
aVMATH-456
p1002
aVMATH-455
p1003
aVMATH-454
p1004
aVMATH-453
p1005
aVMATH-452
p1006
aVMATH-451
p1007
aVMATH-450
p1008
aVMATH-449
p1009
aVMATH-448
p1010
aVMATH-447
p1011
aVMATH-446
p1012
aVMATH-445
p1013
aVMATH-444
p1014
aVMATH-443
p1015
aVMATH-442
p1016
aVMATH-441
p1017
aVMATH-440
p1018
aVMATH-439
p1019
aVMATH-438
p1020
aVMATH-437
p1021
aVMATH-436
p1022
aVMATH-435
p1023
aVMATH-434
p1024
aVMATH-433
p1025
aVMATH-432
p1026
aVMATH-431
p1027
aVMATH-430
p1028
aVMATH-429
p1029
aVMATH-428
p1030
aVMATH-427
p1031
aVMATH-426
p1032
aVMATH-425
p1033
aVMATH-424
p1034
aVMATH-423
p1035
aVMATH-422
p1036
aVMATH-421
p1037
aVMATH-420
p1038
aVMATH-419
p1039
aVMATH-418
p1040
aVMATH-417
p1041
aVMATH-416
p1042
aVMATH-415
p1043
aVMATH-414
p1044
aVMATH-413
p1045
aVMATH-412
p1046
aVMATH-411
p1047
aVMATH-410
p1048
aVMATH-409
p1049
aVMATH-408
p1050
aVMATH-407
p1051
aVMATH-406
p1052
aVMATH-405
p1053
aVMATH-404
p1054
aVMATH-403
p1055
aVMATH-402
p1056
aVMATH-401
p1057
aVMATH-400
p1058
aVMATH-399
p1059
aVMATH-398
p1060
aVMATH-397
p1061
aVMATH-396
p1062
aVMATH-395
p1063
aVMATH-394
p1064
aVMATH-393
p1065
aVMATH-392
p1066
aVMATH-391
p1067
aVMATH-390
p1068
aVMATH-389
p1069
aVMATH-388
p1070
aVMATH-387
p1071
aVMATH-386
p1072
aVMATH-385
p1073
aVMATH-384
p1074
aVMATH-383
p1075
aVMATH-382
p1076
aVMATH-381
p1077
aVMATH-380
p1078
aVMATH-379
p1079
aVMATH-378
p1080
aVMATH-377
p1081
aVMATH-376
p1082
aVMATH-375
p1083
aVMATH-374
p1084
aVMATH-373
p1085
aVMATH-372
p1086
aVMATH-371
p1087
aVMATH-370
p1088
aVMATH-369
p1089
aVMATH-368
p1090
aVMATH-367
p1091
aVMATH-366
p1092
aVMATH-365
p1093
aVMATH-364
p1094
aVMATH-363
p1095
aVMATH-362
p1096
aVMATH-361
p1097
aVMATH-360
p1098
aVMATH-359
p1099
aVMATH-358
p1100
aVMATH-357
p1101
aVMATH-356
p1102
aVMATH-355
p1103
aVMATH-354
p1104
aVMATH-353
p1105
aVMATH-352
p1106
aVMATH-351
p1107
aVMATH-350
p1108
aVMATH-349
p1109
aVMATH-348
p1110
aVMATH-347
p1111
aVMATH-346
p1112
aVMATH-345
p1113
aVMATH-344
p1114
aVMATH-343
p1115
aVMATH-342
p1116
aVMATH-341
p1117
aVMATH-340
p1118
aVMATH-339
p1119
aVMATH-338
p1120
aVMATH-337
p1121
aVMATH-336
p1122
aVMATH-335
p1123
aVMATH-334
p1124
aVMATH-333
p1125
aVMATH-332
p1126
aVMATH-331
p1127
aVMATH-330
p1128
aVMATH-329
p1129
aVMATH-328
p1130
aVMATH-327
p1131
aVMATH-326
p1132
aVMATH-325
p1133
aVMATH-324
p1134
aVMATH-323
p1135
aVMATH-322
p1136
aVMATH-321
p1137
aVMATH-320
p1138
aVMATH-319
p1139
aVMATH-318
p1140
aVMATH-317
p1141
aVMATH-316
p1142
aVMATH-315
p1143
aVMATH-314
p1144
aVMATH-313
p1145
aVMATH-312
p1146
aVMATH-311
p1147
aVMATH-310
p1148
aVMATH-309
p1149
aVMATH-308
p1150
aVMATH-307
p1151
aVMATH-306
p1152
aVMATH-305
p1153
aVMATH-304
p1154
aVMATH-303
p1155
aVMATH-302
p1156
aVMATH-301
p1157
aVMATH-300
p1158
aVMATH-299
p1159
aVMATH-298
p1160
aVMATH-297
p1161
aVMATH-296
p1162
aVMATH-295
p1163
aVMATH-294
p1164
aVMATH-293
p1165
aVMATH-292
p1166
aVMATH-291
p1167
aVMATH-290
p1168
aVMATH-289
p1169
aVMATH-288
p1170
aVMATH-287
p1171
aVMATH-286
p1172
aVMATH-285
p1173
aVMATH-284
p1174
aVMATH-283
p1175
aVMATH-282
p1176
aVMATH-281
p1177
aVMATH-280
p1178
aVMATH-279
p1179
aVMATH-278
p1180
aVMATH-277
p1181
aVMATH-276
p1182
aVMATH-275
p1183
aVMATH-274
p1184
aVMATH-273
p1185
aVMATH-272
p1186
aVMATH-271
p1187
aVMATH-270
p1188
aVMATH-269
p1189
aVMATH-268
p1190
aVMATH-267
p1191
aVMATH-266
p1192
aVMATH-265
p1193
aVMATH-264
p1194
aVMATH-263
p1195
aVMATH-262
p1196
aVMATH-261
p1197
aVMATH-260
p1198
aVMATH-259
p1199
aVMATH-258
p1200
aVMATH-257
p1201
aVMATH-256
p1202
aVMATH-255
p1203
aVMATH-254
p1204
aVMATH-253
p1205
aVMATH-252
p1206
aVMATH-251
p1207
aVMATH-250
p1208
aVMATH-249
p1209
aVMATH-248
p1210
aVMATH-247
p1211
aVMATH-246
p1212
aVMATH-245
p1213
aVMATH-244
p1214
aVMATH-243
p1215
aVMATH-242
p1216
aVMATH-241
p1217
aVMATH-240
p1218
aVMATH-239
p1219
aVMATH-238
p1220
aVMATH-237
p1221
aVMATH-236
p1222
aVMATH-235
p1223
aVMATH-234
p1224
aVMATH-233
p1225
aVMATH-232
p1226
aVMATH-231
p1227
aVMATH-230
p1228
aVMATH-229
p1229
aVMATH-228
p1230
aVMATH-227
p1231
aVMATH-226
p1232
aVMATH-225
p1233
aVMATH-224
p1234
aVMATH-223
p1235
aVMATH-222
p1236
aVMATH-221
p1237
aVMATH-220
p1238
aVMATH-219
p1239
aVMATH-218
p1240
aVMATH-217
p1241
aVMATH-216
p1242
aVMATH-215
p1243
aVMATH-214
p1244
aVMATH-213
p1245
aVMATH-212
p1246
aVMATH-211
p1247
aVMATH-210
p1248
aVMATH-209
p1249
aVMATH-208
p1250
aVMATH-207
p1251
aVMATH-206
p1252
aVMATH-205
p1253
aVMATH-204
p1254
aVMATH-203
p1255
aVMATH-202
p1256
aVMATH-201
p1257
aVMATH-200
p1258
aVMATH-199
p1259
aVMATH-198
p1260
aVMATH-197
p1261
aVMATH-196
p1262
aVMATH-195
p1263
aVMATH-194
p1264
aVMATH-193
p1265
aVMATH-192
p1266
aVMATH-191
p1267
aVMATH-190
p1268
aVMATH-189
p1269
aVMATH-188
p1270
aVMATH-187
p1271
aVMATH-186
p1272
aVMATH-185
p1273
aVMATH-184
p1274
aVMATH-183
p1275
aVMATH-182
p1276
aVMATH-181
p1277
aVMATH-180
p1278
aVMATH-179
p1279
aVMATH-178
p1280
aVMATH-177
p1281
aVMATH-176
p1282
aVMATH-175
p1283
aVMATH-174
p1284
aVMATH-173
p1285
aVMATH-172
p1286
aVMATH-171
p1287
aVMATH-170
p1288
aVMATH-169
p1289
aVMATH-168
p1290
aVMATH-167
p1291
aVMATH-166
p1292
aVMATH-165
p1293
aVMATH-164
p1294
aVMATH-163
p1295
aVMATH-162
p1296
aVMATH-161
p1297
aVMATH-160
p1298
aVMATH-159
p1299
aVMATH-158
p1300
aVMATH-157
p1301
aVMATH-156
p1302
aVMATH-155
p1303
aVMATH-154
p1304
aVMATH-153
p1305
aVMATH-152
p1306
aVMATH-151
p1307
aVMATH-150
p1308
aVMATH-149
p1309
aVMATH-148
p1310
aVMATH-147
p1311
aVMATH-146
p1312
aVMATH-145
p1313
aVMATH-144
p1314
aVMATH-143
p1315
aVMATH-142
p1316
aVMATH-141
p1317
aVMATH-140
p1318
aVMATH-139
p1319
aVMATH-138
p1320
aVMATH-137
p1321
aVMATH-136
p1322
aVMATH-135
p1323
aVMATH-134
p1324
aVMATH-133
p1325
aVMATH-132
p1326
aVMATH-131
p1327
aVMATH-130
p1328
aVMATH-129
p1329
aVMATH-128
p1330
aVMATH-127
p1331
aVMATH-126
p1332
aVMATH-125
p1333
aVMATH-124
p1334
aVMATH-123
p1335
aVMATH-122
p1336
aVMATH-121
p1337
aVMATH-120
p1338
aVMATH-119
p1339
aVMATH-118
p1340
aVMATH-117
p1341
aVMATH-116
p1342
aVMATH-115
p1343
aVMATH-114
p1344
aVMATH-113
p1345
aVMATH-112
p1346
aVMATH-111
p1347
aVMATH-110
p1348
aVMATH-109
p1349
aVMATH-108
p1350
aVMATH-107
p1351
aVMATH-106
p1352
aVMATH-105
p1353
aVMATH-104
p1354
aVMATH-103
p1355
aVMATH-102
p1356
aVMATH-101
p1357
aVMATH-100
p1358
aVMATH-99
p1359
aVMATH-98
p1360
aVMATH-97
p1361
aVMATH-96
p1362
aVMATH-95
p1363
aVMATH-94
p1364
aVMATH-93
p1365
aVMATH-92
p1366
aVMATH-91
p1367
aVMATH-90
p1368
aVMATH-89
p1369
aVMATH-88
p1370
aVMATH-87
p1371
aVMATH-86
p1372
aVMATH-85
p1373
aVMATH-84
p1374
aVMATH-83
p1375
aVMATH-82
p1376
aVMATH-81
p1377
aVMATH-80
p1378
aVMATH-79
p1379
aVMATH-78
p1380
aVMATH-77
p1381
aVMATH-76
p1382
aVMATH-75
p1383
aVMATH-74
p1384
aVMATH-73
p1385
aVMATH-72
p1386
aVMATH-71
p1387
aVMATH-70
p1388
aVMATH-69
p1389
aVMATH-68
p1390
aVMATH-67
p1391
aVMATH-66
p1392
aVMATH-65
p1393
aVMATH-64
p1394
aVMATH-63
p1395
aVMATH-62
p1396
aVMATH-61
p1397
aVMATH-60
p1398
aVMATH-59
p1399
aVMATH-58
p1400
aVMATH-57
p1401
aVMATH-56
p1402
aVMATH-55
p1403
aVMATH-54
p1404
aVMATH-53
p1405
aVMATH-52
p1406
aVMATH-51
p1407
aVMATH-50
p1408
aVMATH-49
p1409
aVMATH-48
p1410
aVMATH-47
p1411
aVMATH-46
p1412
aVMATH-45
p1413
aVMATH-44
p1414
aVMATH-43
p1415
aVMATH-42
p1416
aVMATH-41
p1417
aVMATH-40
p1418
aVMATH-39
p1419
aVMATH-38
p1420
aVMATH-37
p1421
aVMATH-36
p1422
aVMATH-35
p1423
aVMATH-34
p1424
aVMATH-33
p1425
aVMATH-32
p1426
aVMATH-31
p1427
aVMATH-30
p1428
aVMATH-29
p1429
aVMATH-28
p1430
aVMATH-27
p1431
aVMATH-26
p1432
aVMATH-25
p1433
aVMATH-24
p1434
aVMATH-23
p1435
aVMATH-22
p1436
aVMATH-21
p1437
aVMATH-20
p1438
aVMATH-19
p1439
aVMATH-18
p1440
aVMATH-17
p1441
aVMATH-16
p1442
aVMATH-15
p1443
aVMATH-14
p1444
aVMATH-13
p1445
aVMATH-12
p1446
aVMATH-11
p1447
aVMATH-10
p1448
aVMATH-9
p1449
aVMATH-8
p1450
aVMATH-7
p1451
aVMATH-6
p1452
aVMATH-5
p1453
aVMATH-4
p1454
aVMATH-3
p1455
aVMATH-2
p1456
aVMATH-1
p1457
a.