(lp0
VMCHANGELOG-147
p1
aVMCHANGELOG-146
p2
aVMCHANGELOG-145
p3
aVMCHANGELOG-144
p4
aVMCHANGELOG-143
p5
aVMCHANGELOG-142
p6
aVMCHANGELOG-141
p7
aVMCHANGELOG-140
p8
aVMCHANGELOG-139
p9
aVMCHANGELOG-138
p10
aVMCHANGELOG-137
p11
aVMCHANGELOG-136
p12
aVMCHANGELOG-135
p13
aVMCHANGELOG-134
p14
aVMCHANGELOG-133
p15
aVMCHANGELOG-132
p16
aVMCHANGELOG-131
p17
aVMCHANGELOG-130
p18
aVMCHANGELOG-129
p19
aVMCHANGELOG-128
p20
aVMCHANGELOG-127
p21
aVMCHANGELOG-126
p22
aVMCHANGELOG-125
p23
aVMCHANGELOG-124
p24
aVMCHANGELOG-123
p25
aVMCHANGELOG-122
p26
aVMCHANGELOG-121
p27
aVMCHANGELOG-120
p28
aVMCHANGELOG-119
p29
aVMCHANGELOG-118
p30
aVMCHANGELOG-117
p31
aVMCHANGELOG-116
p32
aVMCHANGELOG-115
p33
aVMCHANGELOG-114
p34
aVMCHANGELOG-113
p35
aVMCHANGELOG-112
p36
aVMCHANGELOG-111
p37
aVMCHANGELOG-110
p38
aVMCHANGELOG-109
p39
aVMCHANGELOG-108
p40
aVMCHANGELOG-107
p41
aVMCHANGELOG-106
p42
aVMCHANGELOG-105
p43
aVMCHANGELOG-104
p44
aVMCHANGELOG-103
p45
aVMCHANGELOG-102
p46
aVMCHANGELOG-101
p47
aVMCHANGELOG-100
p48
aVMCHANGELOG-99
p49
aVMCHANGELOG-95
p50
aVMCHANGELOG-94
p51
aVMCHANGELOG-92
p52
aVMCHANGELOG-91
p53
aVMCHANGELOG-90
p54
aVMCHANGELOG-89
p55
aVMCHANGELOG-88
p56
aVMCHANGELOG-87
p57
aVMCHANGELOG-86
p58
aVMCHANGELOG-85
p59
aVMCHANGELOG-84
p60
aVMCHANGELOG-83
p61
aVMCHANGELOG-82
p62
aVMCHANGELOG-80
p63
aVMCHANGELOG-79
p64
aVMCHANGELOG-78
p65
aVMCHANGELOG-77
p66
aVMCHANGELOG-76
p67
aVMCHANGELOG-74
p68
aVMCHANGELOG-73
p69
aVMCHANGELOG-72
p70
aVMCHANGELOG-71
p71
aVMCHANGELOG-70
p72
aVMCHANGELOG-69
p73
aVMCHANGELOG-68
p74
aVMCHANGELOG-67
p75
aVMCHANGELOG-66
p76
aVMCHANGELOG-65
p77
aVMCHANGELOG-64
p78
aVMCHANGELOG-63
p79
aVMCHANGELOG-62
p80
aVMCHANGELOG-61
p81
aVMCHANGELOG-60
p82
aVMCHANGELOG-59
p83
aVMCHANGELOG-58
p84
aVMCHANGELOG-56
p85
aVMCHANGELOG-55
p86
aVMCHANGELOG-54
p87
aVMCHANGELOG-53
p88
aVMCHANGELOG-52
p89
aVMCHANGELOG-51
p90
aVMCHANGELOG-50
p91
aVMCHANGELOG-49
p92
aVMCHANGELOG-48
p93
aVMCHANGELOG-47
p94
aVMCHANGELOG-46
p95
aVMCHANGELOG-45
p96
aVMCHANGELOG-43
p97
aVMCHANGELOG-42
p98
aVMCHANGELOG-41
p99
aVMCHANGELOG-40
p100
aVMCHANGELOG-39
p101
aVMCHANGELOG-38
p102
aVMCHANGELOG-37
p103
aVMCHANGELOG-36
p104
aVMCHANGELOG-35
p105
aVMCHANGELOG-34
p106
aVMCHANGELOG-33
p107
aVMCHANGELOG-32
p108
aVMCHANGELOG-31
p109
aVMCHANGELOG-30
p110
aVMCHANGELOG-29
p111
aVMCHANGELOG-28
p112
aVMCHANGELOG-27
p113
aVMCHANGELOG-26
p114
aVMCHANGELOG-25
p115
aVMCHANGELOG-24
p116
aVMCHANGELOG-23
p117
aVMCHANGELOG-22
p118
aVMCHANGELOG-21
p119
aVMCHANGELOG-20
p120
aVMCHANGELOG-19
p121
aVMCHANGELOG-18
p122
aVMCHANGELOG-17
p123
aVMCHANGELOG-16
p124
aVMCHANGELOG-15
p125
aVMCHANGELOG-14
p126
aVMCHANGELOG-13
p127
aVMCHANGELOG-12
p128
aVMCHANGELOG-11
p129
aVMCHANGELOG-10
p130
aVMCHANGELOG-9
p131
aVMCHANGELOG-8
p132
aVMCHANGELOG-7
p133
aVMCHANGELOG-6
p134
aVMCHANGELOG-5
p135
aVMCHANGELOG-4
p136
aVMCHANGELOG-3
p137
aVMCHANGELOG-2
p138
aVMCHANGELOG-1
p139
a.