(lp0
VMCHANGES-393
p1
aVMCHANGES-392
p2
aVMCHANGES-391
p3
aVMCHANGES-390
p4
aVMCHANGES-389
p5
aVMCHANGES-388
p6
aVMCHANGES-387
p7
aVMCHANGES-386
p8
aVMCHANGES-385
p9
aVMCHANGES-384
p10
aVMCHANGES-383
p11
aVMCHANGES-382
p12
aVMCHANGES-381
p13
aVMCHANGES-380
p14
aVMCHANGES-379
p15
aVMCHANGES-378
p16
aVMCHANGES-377
p17
aVMCHANGES-376
p18
aVMCHANGES-375
p19
aVMCHANGES-374
p20
aVMCHANGES-373
p21
aVMCHANGES-372
p22
aVMCHANGES-371
p23
aVMCHANGES-370
p24
aVMCHANGES-369
p25
aVMCHANGES-368
p26
aVMCHANGES-367
p27
aVMCHANGES-366
p28
aVMCHANGES-365
p29
aVMCHANGES-364
p30
aVMCHANGES-363
p31
aVMCHANGES-362
p32
aVMCHANGES-361
p33
aVMCHANGES-360
p34
aVMCHANGES-359
p35
aVMCHANGES-358
p36
aVMCHANGES-357
p37
aVMCHANGES-356
p38
aVMCHANGES-355
p39
aVMCHANGES-354
p40
aVMCHANGES-353
p41
aVMCHANGES-352
p42
aVMCHANGES-351
p43
aVMCHANGES-350
p44
aVMCHANGES-349
p45
aVMCHANGES-348
p46
aVMCHANGES-347
p47
aVMCHANGES-346
p48
aVMCHANGES-345
p49
aVMCHANGES-344
p50
aVMCHANGES-343
p51
aVMCHANGES-342
p52
aVMCHANGES-341
p53
aVMCHANGES-340
p54
aVMCHANGES-339
p55
aVMCHANGES-338
p56
aVMCHANGES-337
p57
aVMCHANGES-336
p58
aVMCHANGES-335
p59
aVMCHANGES-334
p60
aVMCHANGES-333
p61
aVMCHANGES-332
p62
aVMCHANGES-331
p63
aVMCHANGES-330
p64
aVMCHANGES-329
p65
aVMCHANGES-328
p66
aVMCHANGES-327
p67
aVMCHANGES-326
p68
aVMCHANGES-325
p69
aVMCHANGES-324
p70
aVMCHANGES-323
p71
aVMCHANGES-322
p72
aVMCHANGES-321
p73
aVMCHANGES-320
p74
aVMCHANGES-319
p75
aVMCHANGES-318
p76
aVMCHANGES-317
p77
aVMCHANGES-316
p78
aVMCHANGES-315
p79
aVMCHANGES-314
p80
aVMCHANGES-313
p81
aVMCHANGES-312
p82
aVMCHANGES-311
p83
aVMCHANGES-310
p84
aVMCHANGES-309
p85
aVMCHANGES-308
p86
aVMCHANGES-307
p87
aVMCHANGES-306
p88
aVMCHANGES-305
p89
aVMCHANGES-304
p90
aVMCHANGES-303
p91
aVMCHANGES-302
p92
aVMCHANGES-301
p93
aVMCHANGES-300
p94
aVMCHANGES-299
p95
aVMCHANGES-298
p96
aVMCHANGES-297
p97
aVMCHANGES-296
p98
aVMCHANGES-295
p99
aVMCHANGES-294
p100
aVMCHANGES-293
p101
aVMCHANGES-292
p102
aVMCHANGES-291
p103
aVMCHANGES-290
p104
aVMCHANGES-289
p105
aVMCHANGES-288
p106
aVMCHANGES-287
p107
aVMCHANGES-286
p108
aVMCHANGES-285
p109
aVMCHANGES-284
p110
aVMCHANGES-283
p111
aVMCHANGES-282
p112
aVMCHANGES-281
p113
aVMCHANGES-280
p114
aVMCHANGES-279
p115
aVMCHANGES-278
p116
aVMCHANGES-277
p117
aVMCHANGES-276
p118
aVMCHANGES-275
p119
aVMCHANGES-274
p120
aVMCHANGES-273
p121
aVMCHANGES-272
p122
aVMCHANGES-271
p123
aVMCHANGES-270
p124
aVMCHANGES-269
p125
aVMCHANGES-268
p126
aVMCHANGES-267
p127
aVMCHANGES-266
p128
aVMCHANGES-264
p129
aVMCHANGES-263
p130
aVMCHANGES-262
p131
aVMCHANGES-261
p132
aVMCHANGES-260
p133
aVMCHANGES-259
p134
aVMCHANGES-258
p135
aVMCHANGES-257
p136
aVMCHANGES-256
p137
aVMCHANGES-255
p138
aVMCHANGES-254
p139
aVMCHANGES-253
p140
aVMCHANGES-252
p141
aVMCHANGES-251
p142
aVMCHANGES-250
p143
aVMCHANGES-249
p144
aVMCHANGES-248
p145
aVMCHANGES-247
p146
aVMCHANGES-246
p147
aVMCHANGES-245
p148
aVMCHANGES-244
p149
aVMCHANGES-243
p150
aVMCHANGES-242
p151
aVMCHANGES-241
p152
aVMCHANGES-240
p153
aVMCHANGES-239
p154
aVMCHANGES-238
p155
aVMCHANGES-237
p156
aVMCHANGES-236
p157
aVMCHANGES-235
p158
aVMCHANGES-234
p159
aVMCHANGES-233
p160
aVMCHANGES-232
p161
aVMCHANGES-231
p162
aVMCHANGES-230
p163
aVMCHANGES-229
p164
aVMCHANGES-228
p165
aVMCHANGES-227
p166
aVMCHANGES-226
p167
aVMCHANGES-225
p168
aVMCHANGES-224
p169
aVMCHANGES-223
p170
aVMCHANGES-222
p171
aVMCHANGES-221
p172
aVMCHANGES-220
p173
aVMCHANGES-219
p174
aVMCHANGES-218
p175
aVMCHANGES-217
p176
aVMCHANGES-216
p177
aVMCHANGES-215
p178
aVMCHANGES-214
p179
aVMCHANGES-213
p180
aVMCHANGES-212
p181
aVMCHANGES-211
p182
aVMCHANGES-210
p183
aVMCHANGES-209
p184
aVMCHANGES-208
p185
aVMCHANGES-207
p186
aVMCHANGES-206
p187
aVMCHANGES-205
p188
aVMCHANGES-204
p189
aVMCHANGES-203
p190
aVMCHANGES-202
p191
aVMCHANGES-201
p192
aVMCHANGES-200
p193
aVMCHANGES-199
p194
aVMCHANGES-198
p195
aVMCHANGES-197
p196
aVMCHANGES-196
p197
aVMCHANGES-195
p198
aVMCHANGES-194
p199
aVMCHANGES-193
p200
aVMCHANGES-192
p201
aVMCHANGES-191
p202
aVMCHANGES-190
p203
aVMCHANGES-189
p204
aVMCHANGES-188
p205
aVMCHANGES-187
p206
aVMCHANGES-186
p207
aVMCHANGES-185
p208
aVMCHANGES-184
p209
aVMCHANGES-183
p210
aVMCHANGES-182
p211
aVMCHANGES-181
p212
aVMCHANGES-180
p213
aVMCHANGES-179
p214
aVMCHANGES-178
p215
aVMCHANGES-177
p216
aVMCHANGES-176
p217
aVMCHANGES-175
p218
aVMCHANGES-174
p219
aVMCHANGES-173
p220
aVMCHANGES-172
p221
aVMCHANGES-171
p222
aVMCHANGES-170
p223
aVMCHANGES-169
p224
aVMCHANGES-168
p225
aVMCHANGES-167
p226
aVMCHANGES-166
p227
aVMCHANGES-165
p228
aVMCHANGES-164
p229
aVMCHANGES-163
p230
aVMCHANGES-161
p231
aVMCHANGES-160
p232
aVMCHANGES-159
p233
aVMCHANGES-158
p234
aVMCHANGES-157
p235
aVMCHANGES-156
p236
aVMCHANGES-155
p237
aVMCHANGES-154
p238
aVMCHANGES-153
p239
aVMCHANGES-152
p240
aVMCHANGES-151
p241
aVMCHANGES-150
p242
aVMCHANGES-149
p243
aVMCHANGES-148
p244
aVMCHANGES-147
p245
aVMCHANGES-146
p246
aVMCHANGES-145
p247
aVMCHANGES-144
p248
aVMCHANGES-143
p249
aVMCHANGES-142
p250
aVMCHANGES-141
p251
aVMCHANGES-140
p252
aVMCHANGES-139
p253
aVMCHANGES-138
p254
aVMCHANGES-137
p255
aVMCHANGES-136
p256
aVMCHANGES-135
p257
aVMCHANGES-134
p258
aVMCHANGES-133
p259
aVMCHANGES-132
p260
aVMCHANGES-131
p261
aVMCHANGES-130
p262
aVMCHANGES-129
p263
aVMCHANGES-128
p264
aVMCHANGES-127
p265
aVMCHANGES-126
p266
aVMCHANGES-125
p267
aVMCHANGES-124
p268
aVMCHANGES-123
p269
aVMCHANGES-122
p270
aVMCHANGES-121
p271
aVMCHANGES-120
p272
aVMCHANGES-119
p273
aVMCHANGES-118
p274
aVMCHANGES-117
p275
aVMCHANGES-116
p276
aVMCHANGES-115
p277
aVMCHANGES-114
p278
aVMCHANGES-113
p279
aVMCHANGES-112
p280
aVMCHANGES-111
p281
aVMCHANGES-110
p282
aVMCHANGES-109
p283
aVMCHANGES-108
p284
aVMCHANGES-107
p285
aVMCHANGES-106
p286
aVMCHANGES-105
p287
aVMCHANGES-104
p288
aVMCHANGES-103
p289
aVMCHANGES-102
p290
aVMCHANGES-101
p291
aVMCHANGES-100
p292
aVMCHANGES-99
p293
aVMCHANGES-98
p294
aVMCHANGES-97
p295
aVMCHANGES-96
p296
aVMCHANGES-95
p297
aVMCHANGES-94
p298
aVMCHANGES-93
p299
aVMCHANGES-92
p300
aVMCHANGES-91
p301
aVMCHANGES-90
p302
aVMCHANGES-89
p303
aVMCHANGES-88
p304
aVMCHANGES-87
p305
aVMCHANGES-86
p306
aVMCHANGES-85
p307
aVMCHANGES-84
p308
aVMCHANGES-83
p309
aVMCHANGES-82
p310
aVMCHANGES-81
p311
aVMCHANGES-80
p312
aVMCHANGES-79
p313
aVMCHANGES-78
p314
aVMCHANGES-77
p315
aVMCHANGES-76
p316
aVMCHANGES-75
p317
aVMCHANGES-74
p318
aVMCHANGES-73
p319
aVMCHANGES-72
p320
aVMCHANGES-71
p321
aVMCHANGES-70
p322
aVMCHANGES-69
p323
aVMCHANGES-68
p324
aVMCHANGES-67
p325
aVMCHANGES-66
p326
aVMCHANGES-65
p327
aVMCHANGES-64
p328
aVMCHANGES-63
p329
aVMCHANGES-62
p330
aVMCHANGES-61
p331
aVMCHANGES-60
p332
aVMCHANGES-59
p333
aVMCHANGES-58
p334
aVMCHANGES-57
p335
aVMCHANGES-56
p336
aVMCHANGES-55
p337
aVMCHANGES-54
p338
aVMCHANGES-53
p339
aVMCHANGES-52
p340
aVMCHANGES-51
p341
aVMCHANGES-50
p342
aVMCHANGES-49
p343
aVMCHANGES-48
p344
aVMCHANGES-47
p345
aVMCHANGES-46
p346
aVMCHANGES-45
p347
aVMCHANGES-44
p348
aVMCHANGES-43
p349
aVMCHANGES-42
p350
aVMCHANGES-41
p351
aVMCHANGES-40
p352
aVMCHANGES-39
p353
aVMCHANGES-38
p354
aVMCHANGES-37
p355
aVMCHANGES-36
p356
aVMCHANGES-35
p357
aVMCHANGES-34
p358
aVMCHANGES-33
p359
aVMCHANGES-32
p360
aVMCHANGES-31
p361
aVMCHANGES-30
p362
aVMCHANGES-29
p363
aVMCHANGES-28
p364
aVMCHANGES-27
p365
aVMCHANGES-26
p366
aVMCHANGES-25
p367
aVMCHANGES-24
p368
aVMCHANGES-23
p369
aVMCHANGES-22
p370
aVMCHANGES-21
p371
aVMCHANGES-20
p372
aVMCHANGES-19
p373
aVMCHANGES-18
p374
aVMCHANGES-17
p375
aVMCHANGES-16
p376
aVMCHANGES-15
p377
aVMCHANGES-14
p378
aVMCHANGES-13
p379
aVMCHANGES-12
p380
aVMCHANGES-11
p381
aVMCHANGES-10
p382
aVMCHANGES-9
p383
aVMCHANGES-8
p384
aVMCHANGES-7
p385
aVMCHANGES-6
p386
aVMCHANGES-5
p387
aVMCHANGES-4
p388
aVMCHANGES-3
p389
aVMCHANGES-2
p390
aVMCHANGES-1
p391
a.