(lp0
VMCHECKSTYLE-361
p1
aVMCHECKSTYLE-360
p2
aVMCHECKSTYLE-359
p3
aVMCHECKSTYLE-358
p4
aVMCHECKSTYLE-357
p5
aVMCHECKSTYLE-356
p6
aVMCHECKSTYLE-355
p7
aVMCHECKSTYLE-354
p8
aVMCHECKSTYLE-353
p9
aVMCHECKSTYLE-352
p10
aVMCHECKSTYLE-351
p11
aVMCHECKSTYLE-350
p12
aVMCHECKSTYLE-349
p13
aVMCHECKSTYLE-348
p14
aVMCHECKSTYLE-347
p15
aVMCHECKSTYLE-346
p16
aVMCHECKSTYLE-345
p17
aVMCHECKSTYLE-344
p18
aVMCHECKSTYLE-343
p19
aVMCHECKSTYLE-342
p20
aVMCHECKSTYLE-341
p21
aVMCHECKSTYLE-340
p22
aVMCHECKSTYLE-339
p23
aVMCHECKSTYLE-338
p24
aVMCHECKSTYLE-337
p25
aVMCHECKSTYLE-336
p26
aVMCHECKSTYLE-335
p27
aVMCHECKSTYLE-334
p28
aVMCHECKSTYLE-333
p29
aVMCHECKSTYLE-332
p30
aVMCHECKSTYLE-331
p31
aVMCHECKSTYLE-330
p32
aVMCHECKSTYLE-329
p33
aVMCHECKSTYLE-328
p34
aVMCHECKSTYLE-327
p35
aVMCHECKSTYLE-326
p36
aVMCHECKSTYLE-325
p37
aVMCHECKSTYLE-324
p38
aVMCHECKSTYLE-323
p39
aVMCHECKSTYLE-322
p40
aVMCHECKSTYLE-321
p41
aVMCHECKSTYLE-320
p42
aVMCHECKSTYLE-319
p43
aVMCHECKSTYLE-318
p44
aVMCHECKSTYLE-317
p45
aVMCHECKSTYLE-316
p46
aVMCHECKSTYLE-315
p47
aVMCHECKSTYLE-314
p48
aVMCHECKSTYLE-313
p49
aVMCHECKSTYLE-312
p50
aVMCHECKSTYLE-311
p51
aVMCHECKSTYLE-310
p52
aVMCHECKSTYLE-309
p53
aVMCHECKSTYLE-308
p54
aVMCHECKSTYLE-307
p55
aVMCHECKSTYLE-306
p56
aVMCHECKSTYLE-305
p57
aVMCHECKSTYLE-304
p58
aVMCHECKSTYLE-303
p59
aVMCHECKSTYLE-302
p60
aVMCHECKSTYLE-301
p61
aVMCHECKSTYLE-300
p62
aVMCHECKSTYLE-299
p63
aVMCHECKSTYLE-298
p64
aVMCHECKSTYLE-297
p65
aVMCHECKSTYLE-296
p66
aVMCHECKSTYLE-295
p67
aVMCHECKSTYLE-294
p68
aVMCHECKSTYLE-293
p69
aVMCHECKSTYLE-292
p70
aVMCHECKSTYLE-291
p71
aVMCHECKSTYLE-290
p72
aVMCHECKSTYLE-289
p73
aVMCHECKSTYLE-288
p74
aVMCHECKSTYLE-287
p75
aVMCHECKSTYLE-286
p76
aVMCHECKSTYLE-285
p77
aVMCHECKSTYLE-284
p78
aVMCHECKSTYLE-283
p79
aVMCHECKSTYLE-282
p80
aVMCHECKSTYLE-281
p81
aVMCHECKSTYLE-280
p82
aVMCHECKSTYLE-279
p83
aVMCHECKSTYLE-278
p84
aVMCHECKSTYLE-277
p85
aVMCHECKSTYLE-276
p86
aVMCHECKSTYLE-275
p87
aVMCHECKSTYLE-274
p88
aVMCHECKSTYLE-273
p89
aVMCHECKSTYLE-272
p90
aVMCHECKSTYLE-271
p91
aVMCHECKSTYLE-270
p92
aVMCHECKSTYLE-269
p93
aVMCHECKSTYLE-268
p94
aVMCHECKSTYLE-267
p95
aVMCHECKSTYLE-266
p96
aVMCHECKSTYLE-265
p97
aVMCHECKSTYLE-264
p98
aVMCHECKSTYLE-263
p99
aVMCHECKSTYLE-262
p100
aVMCHECKSTYLE-261
p101
aVMCHECKSTYLE-260
p102
aVMCHECKSTYLE-259
p103
aVMCHECKSTYLE-258
p104
aVMCHECKSTYLE-257
p105
aVMCHECKSTYLE-256
p106
aVMCHECKSTYLE-255
p107
aVMCHECKSTYLE-254
p108
aVMCHECKSTYLE-253
p109
aVMCHECKSTYLE-252
p110
aVMCHECKSTYLE-251
p111
aVMCHECKSTYLE-250
p112
aVMCHECKSTYLE-249
p113
aVMCHECKSTYLE-248
p114
aVMCHECKSTYLE-247
p115
aVMCHECKSTYLE-246
p116
aVMCHECKSTYLE-245
p117
aVMCHECKSTYLE-244
p118
aVMCHECKSTYLE-243
p119
aVMCHECKSTYLE-242
p120
aVMCHECKSTYLE-241
p121
aVMCHECKSTYLE-240
p122
aVMCHECKSTYLE-239
p123
aVMCHECKSTYLE-238
p124
aVMCHECKSTYLE-237
p125
aVMCHECKSTYLE-236
p126
aVMCHECKSTYLE-235
p127
aVMCHECKSTYLE-234
p128
aVMCHECKSTYLE-233
p129
aVMCHECKSTYLE-232
p130
aVMCHECKSTYLE-231
p131
aVMCHECKSTYLE-230
p132
aVMCHECKSTYLE-229
p133
aVMCHECKSTYLE-228
p134
aVMCHECKSTYLE-227
p135
aVMCHECKSTYLE-226
p136
aVMCHECKSTYLE-225
p137
aVMCHECKSTYLE-224
p138
aVMCHECKSTYLE-223
p139
aVMCHECKSTYLE-222
p140
aVMCHECKSTYLE-221
p141
aVMCHECKSTYLE-220
p142
aVMCHECKSTYLE-219
p143
aVMCHECKSTYLE-218
p144
aVMCHECKSTYLE-217
p145
aVMCHECKSTYLE-216
p146
aVMCHECKSTYLE-215
p147
aVMCHECKSTYLE-214
p148
aVMCHECKSTYLE-213
p149
aVMCHECKSTYLE-212
p150
aVMCHECKSTYLE-211
p151
aVMCHECKSTYLE-210
p152
aVMCHECKSTYLE-209
p153
aVMCHECKSTYLE-208
p154
aVMCHECKSTYLE-207
p155
aVMCHECKSTYLE-205
p156
aVMCHECKSTYLE-204
p157
aVMCHECKSTYLE-203
p158
aVMCHECKSTYLE-202
p159
aVMCHECKSTYLE-201
p160
aVMCHECKSTYLE-200
p161
aVMCHECKSTYLE-199
p162
aVMCHECKSTYLE-198
p163
aVMCHECKSTYLE-197
p164
aVMCHECKSTYLE-196
p165
aVMCHECKSTYLE-195
p166
aVMCHECKSTYLE-194
p167
aVMCHECKSTYLE-193
p168
aVMCHECKSTYLE-192
p169
aVMCHECKSTYLE-191
p170
aVMCHECKSTYLE-190
p171
aVMCHECKSTYLE-189
p172
aVMCHECKSTYLE-188
p173
aVMCHECKSTYLE-187
p174
aVMCHECKSTYLE-186
p175
aVMCHECKSTYLE-185
p176
aVMCHECKSTYLE-184
p177
aVMCHECKSTYLE-183
p178
aVMCHECKSTYLE-182
p179
aVMCHECKSTYLE-181
p180
aVMCHECKSTYLE-180
p181
aVMCHECKSTYLE-179
p182
aVMCHECKSTYLE-178
p183
aVMCHECKSTYLE-177
p184
aVMCHECKSTYLE-176
p185
aVMCHECKSTYLE-175
p186
aVMCHECKSTYLE-174
p187
aVMCHECKSTYLE-173
p188
aVMCHECKSTYLE-172
p189
aVMCHECKSTYLE-171
p190
aVMCHECKSTYLE-170
p191
aVMCHECKSTYLE-169
p192
aVMCHECKSTYLE-168
p193
aVMCHECKSTYLE-167
p194
aVMCHECKSTYLE-166
p195
aVMCHECKSTYLE-165
p196
aVMCHECKSTYLE-164
p197
aVMCHECKSTYLE-163
p198
aVMCHECKSTYLE-162
p199
aVMCHECKSTYLE-161
p200
aVMCHECKSTYLE-160
p201
aVMCHECKSTYLE-159
p202
aVMCHECKSTYLE-158
p203
aVMCHECKSTYLE-156
p204
aVMCHECKSTYLE-155
p205
aVMCHECKSTYLE-154
p206
aVMCHECKSTYLE-153
p207
aVMCHECKSTYLE-152
p208
aVMCHECKSTYLE-151
p209
aVMCHECKSTYLE-150
p210
aVMCHECKSTYLE-149
p211
aVMCHECKSTYLE-148
p212
aVMCHECKSTYLE-147
p213
aVMCHECKSTYLE-146
p214
aVMCHECKSTYLE-145
p215
aVMCHECKSTYLE-144
p216
aVMCHECKSTYLE-143
p217
aVMCHECKSTYLE-142
p218
aVMCHECKSTYLE-141
p219
aVMCHECKSTYLE-139
p220
aVMCHECKSTYLE-138
p221
aVMCHECKSTYLE-137
p222
aVMCHECKSTYLE-136
p223
aVMCHECKSTYLE-135
p224
aVMCHECKSTYLE-134
p225
aVMCHECKSTYLE-133
p226
aVMCHECKSTYLE-132
p227
aVMCHECKSTYLE-131
p228
aVMCHECKSTYLE-130
p229
aVMCHECKSTYLE-129
p230
aVMCHECKSTYLE-128
p231
aVMCHECKSTYLE-127
p232
aVMCHECKSTYLE-126
p233
aVMCHECKSTYLE-125
p234
aVMCHECKSTYLE-124
p235
aVMCHECKSTYLE-123
p236
aVMCHECKSTYLE-122
p237
aVMCHECKSTYLE-121
p238
aVMCHECKSTYLE-120
p239
aVMCHECKSTYLE-119
p240
aVMCHECKSTYLE-114
p241
aVMCHECKSTYLE-113
p242
aVMCHECKSTYLE-112
p243
aVMCHECKSTYLE-111
p244
aVMCHECKSTYLE-110
p245
aVMCHECKSTYLE-109
p246
aVMCHECKSTYLE-108
p247
aVMCHECKSTYLE-107
p248
aVMCHECKSTYLE-106
p249
aVMCHECKSTYLE-105
p250
aVMCHECKSTYLE-104
p251
aVMCHECKSTYLE-103
p252
aVMCHECKSTYLE-102
p253
aVMCHECKSTYLE-101
p254
aVMCHECKSTYLE-100
p255
aVMCHECKSTYLE-99
p256
aVMCHECKSTYLE-98
p257
aVMCHECKSTYLE-97
p258
aVMCHECKSTYLE-96
p259
aVMCHECKSTYLE-95
p260
aVMCHECKSTYLE-94
p261
aVMCHECKSTYLE-92
p262
aVMCHECKSTYLE-91
p263
aVMCHECKSTYLE-90
p264
aVMCHECKSTYLE-89
p265
aVMCHECKSTYLE-88
p266
aVMCHECKSTYLE-87
p267
aVMCHECKSTYLE-86
p268
aVMCHECKSTYLE-85
p269
aVMCHECKSTYLE-84
p270
aVMCHECKSTYLE-83
p271
aVMCHECKSTYLE-82
p272
aVMCHECKSTYLE-81
p273
aVMCHECKSTYLE-80
p274
aVMCHECKSTYLE-79
p275
aVMCHECKSTYLE-78
p276
aVMCHECKSTYLE-77
p277
aVMCHECKSTYLE-76
p278
aVMCHECKSTYLE-74
p279
aVMCHECKSTYLE-73
p280
aVMCHECKSTYLE-71
p281
aVMCHECKSTYLE-70
p282
aVMCHECKSTYLE-69
p283
aVMCHECKSTYLE-68
p284
aVMCHECKSTYLE-67
p285
aVMCHECKSTYLE-66
p286
aVMCHECKSTYLE-65
p287
aVMCHECKSTYLE-64
p288
aVMCHECKSTYLE-63
p289
aVMCHECKSTYLE-62
p290
aVMCHECKSTYLE-61
p291
aVMCHECKSTYLE-60
p292
aVMCHECKSTYLE-59
p293
aVMCHECKSTYLE-58
p294
aVMCHECKSTYLE-56
p295
aVMCHECKSTYLE-55
p296
aVMCHECKSTYLE-54
p297
aVMCHECKSTYLE-53
p298
aVMCHECKSTYLE-52
p299
aVMCHECKSTYLE-51
p300
aVMCHECKSTYLE-50
p301
aVMCHECKSTYLE-49
p302
aVMCHECKSTYLE-48
p303
aVMCHECKSTYLE-47
p304
aVMCHECKSTYLE-46
p305
aVMCHECKSTYLE-45
p306
aVMCHECKSTYLE-43
p307
aVMCHECKSTYLE-42
p308
aVMCHECKSTYLE-41
p309
aVMCHECKSTYLE-40
p310
aVMCHECKSTYLE-39
p311
aVMCHECKSTYLE-38
p312
aVMCHECKSTYLE-37
p313
aVMCHECKSTYLE-36
p314
aVMCHECKSTYLE-35
p315
aVMCHECKSTYLE-34
p316
aVMCHECKSTYLE-33
p317
aVMCHECKSTYLE-32
p318
aVMCHECKSTYLE-31
p319
aVMCHECKSTYLE-30
p320
aVMCHECKSTYLE-29
p321
aVMCHECKSTYLE-28
p322
aVMCHECKSTYLE-27
p323
aVMCHECKSTYLE-26
p324
aVMCHECKSTYLE-25
p325
aVMCHECKSTYLE-24
p326
aVMCHECKSTYLE-23
p327
aVMCHECKSTYLE-22
p328
aVMCHECKSTYLE-21
p329
aVMCHECKSTYLE-20
p330
aVMCHECKSTYLE-19
p331
aVMCHECKSTYLE-18
p332
aVMCHECKSTYLE-17
p333
aVMCHECKSTYLE-16
p334
aVMCHECKSTYLE-15
p335
aVMCHECKSTYLE-14
p336
aVMCHECKSTYLE-13
p337
aVMCHECKSTYLE-12
p338
aVMCHECKSTYLE-11
p339
aVMCHECKSTYLE-10
p340
aVMCHECKSTYLE-9
p341
aVMCHECKSTYLE-8
p342
aVMCHECKSTYLE-7
p343
aVMCHECKSTYLE-6
p344
aVMCHECKSTYLE-5
p345
aVMCHECKSTYLE-4
p346
aVMCHECKSTYLE-3
p347
aVMCHECKSTYLE-2
p348
aVMCHECKSTYLE-1
p349
a.