(lp0
VMCLEAN-87
p1
aVMCLEAN-86
p2
aVMCLEAN-85
p3
aVMCLEAN-84
p4
aVMCLEAN-83
p5
aVMCLEAN-81
p6
aVMCLEAN-80
p7
aVMCLEAN-79
p8
aVMCLEAN-78
p9
aVMCLEAN-77
p10
aVMCLEAN-76
p11
aVMCLEAN-75
p12
aVMCLEAN-74
p13
aVMCLEAN-73
p14
aVMCLEAN-72
p15
aVMCLEAN-71
p16
aVMCLEAN-70
p17
aVMCLEAN-69
p18
aVMCLEAN-67
p19
aVMCLEAN-66
p20
aVMCLEAN-65
p21
aVMCLEAN-64
p22
aVMCLEAN-63
p23
aVMCLEAN-62
p24
aVMCLEAN-61
p25
aVMCLEAN-60
p26
aVMCLEAN-59
p27
aVMCLEAN-58
p28
aVMCLEAN-57
p29
aVMCLEAN-56
p30
aVMCLEAN-55
p31
aVMCLEAN-54
p32
aVMCLEAN-53
p33
aVMCLEAN-52
p34
aVMCLEAN-51
p35
aVMCLEAN-50
p36
aVMCLEAN-49
p37
aVMCLEAN-48
p38
aVMCLEAN-47
p39
aVMCLEAN-46
p40
aVMCLEAN-45
p41
aVMCLEAN-44
p42
aVMCLEAN-43
p43
aVMCLEAN-39
p44
aVMCLEAN-38
p45
aVMCLEAN-37
p46
aVMCLEAN-36
p47
aVMCLEAN-35
p48
aVMCLEAN-34
p49
aVMCLEAN-33
p50
aVMCLEAN-32
p51
aVMCLEAN-31
p52
aVMCLEAN-30
p53
aVMCLEAN-29
p54
aVMCLEAN-28
p55
aVMCLEAN-27
p56
aVMCLEAN-26
p57
aVMCLEAN-25
p58
aVMCLEAN-24
p59
aVMCLEAN-23
p60
aVMCLEAN-22
p61
aVMCLEAN-21
p62
aVMCLEAN-20
p63
aVMCLEAN-19
p64
aVMCLEAN-18
p65
aVMCLEAN-17
p66
aVMCLEAN-16
p67
aVMCLEAN-15
p68
aVMCLEAN-14
p69
aVMCLEAN-13
p70
aVMCLEAN-12
p71
aVMCLEAN-11
p72
aVMCLEAN-10
p73
aVMCLEAN-9
p74
aVMCLEAN-8
p75
aVMCLEAN-6
p76
aVMCLEAN-5
p77
aVMCLEAN-4
p78
aVMCLEAN-2
p79
a.