(lp0
VMCOMPILER-356
p1
aVMCOMPILER-355
p2
aVMCOMPILER-354
p3
aVMCOMPILER-353
p4
aVMCOMPILER-352
p5
aVMCOMPILER-351
p6
aVMCOMPILER-350
p7
aVMCOMPILER-349
p8
aVMCOMPILER-348
p9
aVMCOMPILER-347
p10
aVMCOMPILER-346
p11
aVMCOMPILER-345
p12
aVMCOMPILER-344
p13
aVMCOMPILER-343
p14
aVMCOMPILER-342
p15
aVMCOMPILER-341
p16
aVMCOMPILER-340
p17
aVMCOMPILER-339
p18
aVMCOMPILER-338
p19
aVMCOMPILER-337
p20
aVMCOMPILER-336
p21
aVMCOMPILER-335
p22
aVMCOMPILER-334
p23
aVMCOMPILER-333
p24
aVMCOMPILER-332
p25
aVMCOMPILER-331
p26
aVMCOMPILER-330
p27
aVMCOMPILER-329
p28
aVMCOMPILER-328
p29
aVMCOMPILER-327
p30
aVMCOMPILER-326
p31
aVMCOMPILER-325
p32
aVMCOMPILER-324
p33
aVMCOMPILER-323
p34
aVMCOMPILER-322
p35
aVMCOMPILER-321
p36
aVMCOMPILER-320
p37
aVMCOMPILER-319
p38
aVMCOMPILER-318
p39
aVMCOMPILER-317
p40
aVMCOMPILER-316
p41
aVMCOMPILER-315
p42
aVMCOMPILER-314
p43
aVMCOMPILER-313
p44
aVMCOMPILER-312
p45
aVMCOMPILER-311
p46
aVMCOMPILER-310
p47
aVMCOMPILER-309
p48
aVMCOMPILER-308
p49
aVMCOMPILER-307
p50
aVMCOMPILER-306
p51
aVMCOMPILER-305
p52
aVMCOMPILER-304
p53
aVMCOMPILER-303
p54
aVMCOMPILER-302
p55
aVMCOMPILER-301
p56
aVMCOMPILER-300
p57
aVMCOMPILER-298
p58
aVMCOMPILER-297
p59
aVMCOMPILER-296
p60
aVMCOMPILER-295
p61
aVMCOMPILER-294
p62
aVMCOMPILER-293
p63
aVMCOMPILER-292
p64
aVMCOMPILER-291
p65
aVMCOMPILER-290
p66
aVMCOMPILER-289
p67
aVMCOMPILER-288
p68
aVMCOMPILER-287
p69
aVMCOMPILER-286
p70
aVMCOMPILER-285
p71
aVMCOMPILER-284
p72
aVMCOMPILER-283
p73
aVMCOMPILER-282
p74
aVMCOMPILER-281
p75
aVMCOMPILER-280
p76
aVMCOMPILER-279
p77
aVMCOMPILER-278
p78
aVMCOMPILER-277
p79
aVMCOMPILER-276
p80
aVMCOMPILER-275
p81
aVMCOMPILER-274
p82
aVMCOMPILER-273
p83
aVMCOMPILER-272
p84
aVMCOMPILER-271
p85
aVMCOMPILER-270
p86
aVMCOMPILER-269
p87
aVMCOMPILER-268
p88
aVMCOMPILER-267
p89
aVMCOMPILER-266
p90
aVMCOMPILER-265
p91
aVMCOMPILER-264
p92
aVMCOMPILER-263
p93
aVMCOMPILER-262
p94
aVMCOMPILER-261
p95
aVMCOMPILER-260
p96
aVMCOMPILER-259
p97
aVMCOMPILER-258
p98
aVMCOMPILER-257
p99
aVMCOMPILER-256
p100
aVMCOMPILER-255
p101
aVMCOMPILER-254
p102
aVMCOMPILER-253
p103
aVMCOMPILER-252
p104
aVMCOMPILER-251
p105
aVMCOMPILER-250
p106
aVMCOMPILER-249
p107
aVMCOMPILER-248
p108
aVMCOMPILER-247
p109
aVMCOMPILER-246
p110
aVMCOMPILER-245
p111
aVMCOMPILER-244
p112
aVMCOMPILER-243
p113
aVMCOMPILER-242
p114
aVMCOMPILER-241
p115
aVMCOMPILER-240
p116
aVMCOMPILER-239
p117
aVMCOMPILER-238
p118
aVMCOMPILER-237
p119
aVMCOMPILER-236
p120
aVMCOMPILER-235
p121
aVMCOMPILER-234
p122
aVMCOMPILER-233
p123
aVMCOMPILER-232
p124
aVMCOMPILER-231
p125
aVMCOMPILER-230
p126
aVMCOMPILER-229
p127
aVMCOMPILER-228
p128
aVMCOMPILER-227
p129
aVMCOMPILER-226
p130
aVMCOMPILER-225
p131
aVMCOMPILER-224
p132
aVMCOMPILER-223
p133
aVMCOMPILER-222
p134
aVMCOMPILER-221
p135
aVMCOMPILER-220
p136
aVMCOMPILER-219
p137
aVMCOMPILER-218
p138
aVMCOMPILER-217
p139
aVMCOMPILER-216
p140
aVMCOMPILER-215
p141
aVMCOMPILER-214
p142
aVMCOMPILER-213
p143
aVMCOMPILER-212
p144
aVMCOMPILER-211
p145
aVMCOMPILER-210
p146
aVMCOMPILER-209
p147
aVMCOMPILER-208
p148
aVMCOMPILER-207
p149
aVMCOMPILER-206
p150
aVMCOMPILER-205
p151
aVMCOMPILER-204
p152
aVMCOMPILER-203
p153
aVMCOMPILER-202
p154
aVMCOMPILER-201
p155
aVMCOMPILER-200
p156
aVMCOMPILER-199
p157
aVMCOMPILER-198
p158
aVMCOMPILER-197
p159
aVMCOMPILER-196
p160
aVMCOMPILER-195
p161
aVMCOMPILER-194
p162
aVMCOMPILER-193
p163
aVMCOMPILER-192
p164
aVMCOMPILER-191
p165
aVMCOMPILER-190
p166
aVMCOMPILER-189
p167
aVMCOMPILER-188
p168
aVMCOMPILER-187
p169
aVMCOMPILER-186
p170
aVMCOMPILER-185
p171
aVMCOMPILER-184
p172
aVMCOMPILER-183
p173
aVMCOMPILER-182
p174
aVMCOMPILER-181
p175
aVMCOMPILER-180
p176
aVMCOMPILER-179
p177
aVMCOMPILER-178
p178
aVMCOMPILER-177
p179
aVMCOMPILER-176
p180
aVMCOMPILER-175
p181
aVMCOMPILER-174
p182
aVMCOMPILER-173
p183
aVMCOMPILER-172
p184
aVMCOMPILER-171
p185
aVMCOMPILER-170
p186
aVMCOMPILER-169
p187
aVMCOMPILER-168
p188
aVMCOMPILER-167
p189
aVMCOMPILER-166
p190
aVMCOMPILER-165
p191
aVMCOMPILER-164
p192
aVMCOMPILER-163
p193
aVMCOMPILER-162
p194
aVMCOMPILER-161
p195
aVMCOMPILER-160
p196
aVMCOMPILER-159
p197
aVMCOMPILER-158
p198
aVMCOMPILER-157
p199
aVMCOMPILER-156
p200
aVMCOMPILER-155
p201
aVMCOMPILER-154
p202
aVMCOMPILER-153
p203
aVMCOMPILER-152
p204
aVMCOMPILER-151
p205
aVMCOMPILER-150
p206
aVMCOMPILER-149
p207
aVMCOMPILER-148
p208
aVMCOMPILER-147
p209
aVMCOMPILER-146
p210
aVMCOMPILER-145
p211
aVMCOMPILER-144
p212
aVMCOMPILER-142
p213
aVMCOMPILER-141
p214
aVMCOMPILER-140
p215
aVMCOMPILER-139
p216
aVMCOMPILER-137
p217
aVMCOMPILER-136
p218
aVMCOMPILER-135
p219
aVMCOMPILER-134
p220
aVMCOMPILER-133
p221
aVMCOMPILER-132
p222
aVMCOMPILER-131
p223
aVMCOMPILER-130
p224
aVMCOMPILER-129
p225
aVMCOMPILER-128
p226
aVMCOMPILER-127
p227
aVMCOMPILER-126
p228
aVMCOMPILER-125
p229
aVMCOMPILER-124
p230
aVMCOMPILER-123
p231
aVMCOMPILER-122
p232
aVMCOMPILER-121
p233
aVMCOMPILER-120
p234
aVMCOMPILER-119
p235
aVMCOMPILER-118
p236
aVMCOMPILER-117
p237
aVMCOMPILER-116
p238
aVMCOMPILER-115
p239
aVMCOMPILER-114
p240
aVMCOMPILER-113
p241
aVMCOMPILER-112
p242
aVMCOMPILER-111
p243
aVMCOMPILER-110
p244
aVMCOMPILER-109
p245
aVMCOMPILER-108
p246
aVMCOMPILER-106
p247
aVMCOMPILER-105
p248
aVMCOMPILER-104
p249
aVMCOMPILER-100
p250
aVMCOMPILER-99
p251
aVMCOMPILER-98
p252
aVMCOMPILER-97
p253
aVMCOMPILER-96
p254
aVMCOMPILER-95
p255
aVMCOMPILER-94
p256
aVMCOMPILER-93
p257
aVMCOMPILER-92
p258
aVMCOMPILER-91
p259
aVMCOMPILER-90
p260
aVMCOMPILER-89
p261
aVMCOMPILER-88
p262
aVMCOMPILER-87
p263
aVMCOMPILER-85
p264
aVMCOMPILER-84
p265
aVMCOMPILER-83
p266
aVMCOMPILER-82
p267
aVMCOMPILER-81
p268
aVMCOMPILER-80
p269
aVMCOMPILER-79
p270
aVMCOMPILER-78
p271
aVMCOMPILER-77
p272
aVMCOMPILER-76
p273
aVMCOMPILER-75
p274
aVMCOMPILER-74
p275
aVMCOMPILER-73
p276
aVMCOMPILER-72
p277
aVMCOMPILER-71
p278
aVMCOMPILER-70
p279
aVMCOMPILER-69
p280
aVMCOMPILER-68
p281
aVMCOMPILER-67
p282
aVMCOMPILER-66
p283
aVMCOMPILER-65
p284
aVMCOMPILER-64
p285
aVMCOMPILER-63
p286
aVMCOMPILER-62
p287
aVMCOMPILER-61
p288
aVMCOMPILER-60
p289
aVMCOMPILER-59
p290
aVMCOMPILER-58
p291
aVMCOMPILER-57
p292
aVMCOMPILER-56
p293
aVMCOMPILER-55
p294
aVMCOMPILER-54
p295
aVMCOMPILER-53
p296
aVMCOMPILER-52
p297
aVMCOMPILER-51
p298
aVMCOMPILER-50
p299
aVMCOMPILER-49
p300
aVMCOMPILER-48
p301
aVMCOMPILER-47
p302
aVMCOMPILER-46
p303
aVMCOMPILER-45
p304
aVMCOMPILER-44
p305
aVMCOMPILER-43
p306
aVMCOMPILER-42
p307
aVMCOMPILER-41
p308
aVMCOMPILER-40
p309
aVMCOMPILER-39
p310
aVMCOMPILER-38
p311
aVMCOMPILER-37
p312
aVMCOMPILER-36
p313
aVMCOMPILER-35
p314
aVMCOMPILER-34
p315
aVMCOMPILER-32
p316
aVMCOMPILER-31
p317
aVMCOMPILER-30
p318
aVMCOMPILER-29
p319
aVMCOMPILER-27
p320
aVMCOMPILER-26
p321
aVMCOMPILER-25
p322
aVMCOMPILER-24
p323
aVMCOMPILER-23
p324
aVMCOMPILER-22
p325
aVMCOMPILER-21
p326
aVMCOMPILER-20
p327
aVMCOMPILER-19
p328
aVMCOMPILER-18
p329
aVMCOMPILER-17
p330
aVMCOMPILER-16
p331
aVMCOMPILER-15
p332
aVMCOMPILER-14
p333
aVMCOMPILER-13
p334
aVMCOMPILER-12
p335
aVMCOMPILER-11
p336
aVMCOMPILER-10
p337
aVMCOMPILER-9
p338
aVMCOMPILER-8
p339
aVMCOMPILER-7
p340
aVMCOMPILER-6
p341
aVMCOMPILER-5
p342
aVMCOMPILER-4
p343
aVMCOMPILER-3
p344
aVMCOMPILER-2
p345
aVMCOMPILER-1
p346
a.