(lp0
VMDEP-624
p1
aVMDEP-623
p2
aVMDEP-622
p3
aVMDEP-621
p4
aVMDEP-620
p5
aVMDEP-619
p6
aVMDEP-618
p7
aVMDEP-617
p8
aVMDEP-616
p9
aVMDEP-615
p10
aVMDEP-614
p11
aVMDEP-613
p12
aVMDEP-612
p13
aVMDEP-611
p14
aVMDEP-609
p15
aVMDEP-608
p16
aVMDEP-607
p17
aVMDEP-606
p18
aVMDEP-605
p19
aVMDEP-603
p20
aVMDEP-602
p21
aVMDEP-601
p22
aVMDEP-600
p23
aVMDEP-599
p24
aVMDEP-598
p25
aVMDEP-597
p26
aVMDEP-596
p27
aVMDEP-595
p28
aVMDEP-594
p29
aVMDEP-593
p30
aVMDEP-592
p31
aVMDEP-591
p32
aVMDEP-590
p33
aVMDEP-589
p34
aVMDEP-588
p35
aVMDEP-587
p36
aVMDEP-586
p37
aVMDEP-585
p38
aVMDEP-584
p39
aVMDEP-583
p40
aVMDEP-582
p41
aVMDEP-581
p42
aVMDEP-580
p43
aVMDEP-579
p44
aVMDEP-578
p45
aVMDEP-577
p46
aVMDEP-576
p47
aVMDEP-575
p48
aVMDEP-574
p49
aVMDEP-573
p50
aVMDEP-572
p51
aVMDEP-571
p52
aVMDEP-570
p53
aVMDEP-569
p54
aVMDEP-568
p55
aVMDEP-567
p56
aVMDEP-566
p57
aVMDEP-565
p58
aVMDEP-564
p59
aVMDEP-563
p60
aVMDEP-562
p61
aVMDEP-561
p62
aVMDEP-560
p63
aVMDEP-559
p64
aVMDEP-557
p65
aVMDEP-556
p66
aVMDEP-555
p67
aVMDEP-553
p68
aVMDEP-551
p69
aVMDEP-550
p70
aVMDEP-549
p71
aVMDEP-548
p72
aVMDEP-547
p73
aVMDEP-546
p74
aVMDEP-545
p75
aVMDEP-544
p76
aVMDEP-543
p77
aVMDEP-542
p78
aVMDEP-541
p79
aVMDEP-540
p80
aVMDEP-539
p81
aVMDEP-538
p82
aVMDEP-537
p83
aVMDEP-536
p84
aVMDEP-535
p85
aVMDEP-534
p86
aVMDEP-533
p87
aVMDEP-532
p88
aVMDEP-531
p89
aVMDEP-530
p90
aVMDEP-529
p91
aVMDEP-528
p92
aVMDEP-527
p93
aVMDEP-526
p94
aVMDEP-525
p95
aVMDEP-524
p96
aVMDEP-523
p97
aVMDEP-522
p98
aVMDEP-521
p99
aVMDEP-520
p100
aVMDEP-519
p101
aVMDEP-518
p102
aVMDEP-517
p103
aVMDEP-516
p104
aVMDEP-515
p105
aVMDEP-514
p106
aVMDEP-513
p107
aVMDEP-512
p108
aVMDEP-511
p109
aVMDEP-510
p110
aVMDEP-509
p111
aVMDEP-508
p112
aVMDEP-507
p113
aVMDEP-506
p114
aVMDEP-505
p115
aVMDEP-504
p116
aVMDEP-503
p117
aVMDEP-502
p118
aVMDEP-501
p119
aVMDEP-500
p120
aVMDEP-499
p121
aVMDEP-498
p122
aVMDEP-497
p123
aVMDEP-496
p124
aVMDEP-495
p125
aVMDEP-494
p126
aVMDEP-493
p127
aVMDEP-492
p128
aVMDEP-491
p129
aVMDEP-490
p130
aVMDEP-489
p131
aVMDEP-488
p132
aVMDEP-487
p133
aVMDEP-486
p134
aVMDEP-485
p135
aVMDEP-484
p136
aVMDEP-483
p137
aVMDEP-482
p138
aVMDEP-481
p139
aVMDEP-480
p140
aVMDEP-478
p141
aVMDEP-477
p142
aVMDEP-476
p143
aVMDEP-474
p144
aVMDEP-473
p145
aVMDEP-472
p146
aVMDEP-471
p147
aVMDEP-470
p148
aVMDEP-469
p149
aVMDEP-468
p150
aVMDEP-467
p151
aVMDEP-466
p152
aVMDEP-465
p153
aVMDEP-464
p154
aVMDEP-463
p155
aVMDEP-462
p156
aVMDEP-461
p157
aVMDEP-460
p158
aVMDEP-459
p159
aVMDEP-458
p160
aVMDEP-457
p161
aVMDEP-456
p162
aVMDEP-455
p163
aVMDEP-454
p164
aVMDEP-453
p165
aVMDEP-452
p166
aVMDEP-451
p167
aVMDEP-450
p168
aVMDEP-449
p169
aVMDEP-448
p170
aVMDEP-447
p171
aVMDEP-446
p172
aVMDEP-445
p173
aVMDEP-444
p174
aVMDEP-443
p175
aVMDEP-442
p176
aVMDEP-441
p177
aVMDEP-440
p178
aVMDEP-439
p179
aVMDEP-438
p180
aVMDEP-437
p181
aVMDEP-436
p182
aVMDEP-435
p183
aVMDEP-434
p184
aVMDEP-433
p185
aVMDEP-432
p186
aVMDEP-431
p187
aVMDEP-430
p188
aVMDEP-429
p189
aVMDEP-428
p190
aVMDEP-427
p191
aVMDEP-426
p192
aVMDEP-425
p193
aVMDEP-424
p194
aVMDEP-423
p195
aVMDEP-422
p196
aVMDEP-421
p197
aVMDEP-420
p198
aVMDEP-419
p199
aVMDEP-418
p200
aVMDEP-417
p201
aVMDEP-416
p202
aVMDEP-415
p203
aVMDEP-414
p204
aVMDEP-413
p205
aVMDEP-412
p206
aVMDEP-411
p207
aVMDEP-410
p208
aVMDEP-409
p209
aVMDEP-408
p210
aVMDEP-407
p211
aVMDEP-406
p212
aVMDEP-405
p213
aVMDEP-404
p214
aVMDEP-403
p215
aVMDEP-402
p216
aVMDEP-401
p217
aVMDEP-400
p218
aVMDEP-399
p219
aVMDEP-398
p220
aVMDEP-397
p221
aVMDEP-396
p222
aVMDEP-395
p223
aVMDEP-394
p224
aVMDEP-393
p225
aVMDEP-392
p226
aVMDEP-391
p227
aVMDEP-390
p228
aVMDEP-389
p229
aVMDEP-388
p230
aVMDEP-387
p231
aVMDEP-386
p232
aVMDEP-385
p233
aVMDEP-384
p234
aVMDEP-383
p235
aVMDEP-382
p236
aVMDEP-381
p237
aVMDEP-380
p238
aVMDEP-379
p239
aVMDEP-377
p240
aVMDEP-376
p241
aVMDEP-375
p242
aVMDEP-374
p243
aVMDEP-373
p244
aVMDEP-372
p245
aVMDEP-371
p246
aVMDEP-370
p247
aVMDEP-369
p248
aVMDEP-368
p249
aVMDEP-367
p250
aVMDEP-366
p251
aVMDEP-365
p252
aVMDEP-364
p253
aVMDEP-363
p254
aVMDEP-361
p255
aVMDEP-360
p256
aVMDEP-359
p257
aVMDEP-358
p258
aVMDEP-357
p259
aVMDEP-356
p260
aVMDEP-355
p261
aVMDEP-354
p262
aVMDEP-353
p263
aVMDEP-352
p264
aVMDEP-351
p265
aVMDEP-350
p266
aVMDEP-349
p267
aVMDEP-348
p268
aVMDEP-347
p269
aVMDEP-346
p270
aVMDEP-345
p271
aVMDEP-344
p272
aVMDEP-343
p273
aVMDEP-342
p274
aVMDEP-341
p275
aVMDEP-340
p276
aVMDEP-339
p277
aVMDEP-338
p278
aVMDEP-337
p279
aVMDEP-336
p280
aVMDEP-335
p281
aVMDEP-334
p282
aVMDEP-333
p283
aVMDEP-332
p284
aVMDEP-331
p285
aVMDEP-330
p286
aVMDEP-329
p287
aVMDEP-328
p288
aVMDEP-327
p289
aVMDEP-326
p290
aVMDEP-325
p291
aVMDEP-324
p292
aVMDEP-323
p293
aVMDEP-322
p294
aVMDEP-321
p295
aVMDEP-320
p296
aVMDEP-319
p297
aVMDEP-318
p298
aVMDEP-317
p299
aVMDEP-316
p300
aVMDEP-315
p301
aVMDEP-314
p302
aVMDEP-313
p303
aVMDEP-312
p304
aVMDEP-311
p305
aVMDEP-310
p306
aVMDEP-309
p307
aVMDEP-308
p308
aVMDEP-307
p309
aVMDEP-306
p310
aVMDEP-305
p311
aVMDEP-304
p312
aVMDEP-303
p313
aVMDEP-302
p314
aVMDEP-301
p315
aVMDEP-300
p316
aVMDEP-299
p317
aVMDEP-298
p318
aVMDEP-297
p319
aVMDEP-296
p320
aVMDEP-295
p321
aVMDEP-294
p322
aVMDEP-293
p323
aVMDEP-292
p324
aVMDEP-291
p325
aVMDEP-290
p326
aVMDEP-289
p327
aVMDEP-288
p328
aVMDEP-287
p329
aVMDEP-286
p330
aVMDEP-285
p331
aVMDEP-284
p332
aVMDEP-282
p333
aVMDEP-281
p334
aVMDEP-280
p335
aVMDEP-279
p336
aVMDEP-278
p337
aVMDEP-277
p338
aVMDEP-276
p339
aVMDEP-275
p340
aVMDEP-274
p341
aVMDEP-273
p342
aVMDEP-272
p343
aVMDEP-271
p344
aVMDEP-270
p345
aVMDEP-269
p346
aVMDEP-268
p347
aVMDEP-267
p348
aVMDEP-266
p349
aVMDEP-265
p350
aVMDEP-264
p351
aVMDEP-263
p352
aVMDEP-262
p353
aVMDEP-261
p354
aVMDEP-260
p355
aVMDEP-259
p356
aVMDEP-258
p357
aVMDEP-257
p358
aVMDEP-256
p359
aVMDEP-255
p360
aVMDEP-254
p361
aVMDEP-253
p362
aVMDEP-252
p363
aVMDEP-251
p364
aVMDEP-250
p365
aVMDEP-249
p366
aVMDEP-248
p367
aVMDEP-246
p368
aVMDEP-245
p369
aVMDEP-244
p370
aVMDEP-242
p371
aVMDEP-241
p372
aVMDEP-240
p373
aVMDEP-239
p374
aVMDEP-238
p375
aVMDEP-237
p376
aVMDEP-236
p377
aVMDEP-235
p378
aVMDEP-234
p379
aVMDEP-233
p380
aVMDEP-232
p381
aVMDEP-231
p382
aVMDEP-230
p383
aVMDEP-229
p384
aVMDEP-228
p385
aVMDEP-227
p386
aVMDEP-226
p387
aVMDEP-225
p388
aVMDEP-219
p389
aVMDEP-218
p390
aVMDEP-217
p391
aVMDEP-216
p392
aVMDEP-215
p393
aVMDEP-214
p394
aVMDEP-213
p395
aVMDEP-212
p396
aVMDEP-211
p397
aVMDEP-210
p398
aVMDEP-209
p399
aVMDEP-208
p400
aVMDEP-207
p401
aVMDEP-206
p402
aVMDEP-205
p403
aVMDEP-204
p404
aVMDEP-203
p405
aVMDEP-201
p406
aVMDEP-200
p407
aVMDEP-199
p408
aVMDEP-198
p409
aVMDEP-197
p410
aVMDEP-196
p411
aVMDEP-195
p412
aVMDEP-194
p413
aVMDEP-193
p414
aVMDEP-192
p415
aVMDEP-191
p416
aVMDEP-190
p417
aVMDEP-188
p418
aVMDEP-187
p419
aVMDEP-186
p420
aVMDEP-185
p421
aVMDEP-184
p422
aVMDEP-183
p423
aVMDEP-182
p424
aVMDEP-181
p425
aVMDEP-180
p426
aVMDEP-179
p427
aVMDEP-178
p428
aVMDEP-177
p429
aVMDEP-176
p430
aVMDEP-175
p431
aVMDEP-174
p432
aVMDEP-173
p433
aVMDEP-172
p434
aVMDEP-171
p435
aVMDEP-169
p436
aVMDEP-167
p437
aVMDEP-166
p438
aVMDEP-165
p439
aVMDEP-164
p440
aVMDEP-163
p441
aVMDEP-162
p442
aVMDEP-161
p443
aVMDEP-160
p444
aVMDEP-159
p445
aVMDEP-158
p446
aVMDEP-157
p447
aVMDEP-156
p448
aVMDEP-155
p449
aVMDEP-154
p450
aVMDEP-153
p451
aVMDEP-152
p452
aVMDEP-151
p453
aVMDEP-150
p454
aVMDEP-149
p455
aVMDEP-148
p456
aVMDEP-147
p457
aVMDEP-146
p458
aVMDEP-145
p459
aVMDEP-144
p460
aVMDEP-143
p461
aVMDEP-142
p462
aVMDEP-141
p463
aVMDEP-140
p464
aVMDEP-139
p465
aVMDEP-138
p466
aVMDEP-136
p467
aVMDEP-135
p468
aVMDEP-133
p469
aVMDEP-132
p470
aVMDEP-131
p471
aVMDEP-130
p472
aVMDEP-129
p473
aVMDEP-128
p474
aVMDEP-127
p475
aVMDEP-126
p476
aVMDEP-125
p477
aVMDEP-124
p478
aVMDEP-123
p479
aVMDEP-122
p480
aVMDEP-121
p481
aVMDEP-120
p482
aVMDEP-119
p483
aVMDEP-118
p484
aVMDEP-117
p485
aVMDEP-116
p486
aVMDEP-115
p487
aVMDEP-114
p488
aVMDEP-113
p489
aVMDEP-112
p490
aVMDEP-111
p491
aVMDEP-110
p492
aVMDEP-109
p493
aVMDEP-108
p494
aVMDEP-107
p495
aVMDEP-106
p496
aVMDEP-105
p497
aVMDEP-104
p498
aVMDEP-103
p499
aVMDEP-101
p500
aVMDEP-100
p501
aVMDEP-99
p502
aVMDEP-98
p503
aVMDEP-97
p504
aVMDEP-96
p505
aVMDEP-95
p506
aVMDEP-94
p507
aVMDEP-93
p508
aVMDEP-92
p509
aVMDEP-91
p510
aVMDEP-90
p511
aVMDEP-89
p512
aVMDEP-88
p513
aVMDEP-87
p514
aVMDEP-86
p515
aVMDEP-85
p516
aVMDEP-84
p517
aVMDEP-83
p518
aVMDEP-82
p519
aVMDEP-81
p520
aVMDEP-80
p521
aVMDEP-79
p522
aVMDEP-78
p523
aVMDEP-77
p524
aVMDEP-76
p525
aVMDEP-75
p526
aVMDEP-74
p527
aVMDEP-73
p528
aVMDEP-72
p529
aVMDEP-71
p530
aVMDEP-70
p531
aVMDEP-69
p532
aVMDEP-68
p533
aVMDEP-67
p534
aVMDEP-66
p535
aVMDEP-65
p536
aVMDEP-64
p537
aVMDEP-63
p538
aVMDEP-61
p539
aVMDEP-60
p540
aVMDEP-59
p541
aVMDEP-58
p542
aVMDEP-57
p543
aVMDEP-56
p544
aVMDEP-55
p545
aVMDEP-54
p546
aVMDEP-52
p547
aVMDEP-51
p548
aVMDEP-50
p549
aVMDEP-49
p550
aVMDEP-48
p551
aVMDEP-47
p552
aVMDEP-46
p553
aVMDEP-45
p554
aVMDEP-44
p555
aVMDEP-43
p556
aVMDEP-42
p557
aVMDEP-41
p558
aVMDEP-40
p559
aVMDEP-39
p560
aVMDEP-37
p561
aVMDEP-36
p562
aVMDEP-35
p563
aVMDEP-34
p564
aVMDEP-32
p565
aVMDEP-31
p566
aVMDEP-30
p567
aVMDEP-29
p568
aVMDEP-28
p569
aVMDEP-27
p570
aVMDEP-26
p571
aVMDEP-25
p572
aVMDEP-24
p573
aVMDEP-23
p574
aVMDEP-22
p575
aVMDEP-21
p576
aVMDEP-20
p577
aVMDEP-19
p578
aVMDEP-18
p579
aVMDEP-17
p580
aVMDEP-16
p581
aVMDEP-15
p582
aVMDEP-14
p583
aVMDEP-13
p584
aVMDEP-12
p585
aVMDEP-11
p586
aVMDEP-10
p587
aVMDEP-9
p588
aVMDEP-8
p589
aVMDEP-7
p590
aVMDEP-6
p591
aVMDEP-5
p592
aVMDEP-4
p593
aVMDEP-3
p594
aVMDEP-2
p595
aVMDEP-1
p596
a.