(lp0
VMDEPLOY-239
p1
aVMDEPLOY-238
p2
aVMDEPLOY-237
p3
aVMDEPLOY-236
p4
aVMDEPLOY-235
p5
aVMDEPLOY-234
p6
aVMDEPLOY-233
p7
aVMDEPLOY-232
p8
aVMDEPLOY-231
p9
aVMDEPLOY-230
p10
aVMDEPLOY-229
p11
aVMDEPLOY-228
p12
aVMDEPLOY-227
p13
aVMDEPLOY-226
p14
aVMDEPLOY-225
p15
aVMDEPLOY-224
p16
aVMDEPLOY-223
p17
aVMDEPLOY-222
p18
aVMDEPLOY-221
p19
aVMDEPLOY-219
p20
aVMDEPLOY-218
p21
aVMDEPLOY-217
p22
aVMDEPLOY-216
p23
aVMDEPLOY-215
p24
aVMDEPLOY-214
p25
aVMDEPLOY-213
p26
aVMDEPLOY-212
p27
aVMDEPLOY-211
p28
aVMDEPLOY-210
p29
aVMDEPLOY-209
p30
aVMDEPLOY-208
p31
aVMDEPLOY-207
p32
aVMDEPLOY-206
p33
aVMDEPLOY-205
p34
aVMDEPLOY-204
p35
aVMDEPLOY-203
p36
aVMDEPLOY-202
p37
aVMDEPLOY-201
p38
aVMDEPLOY-200
p39
aVMDEPLOY-199
p40
aVMDEPLOY-198
p41
aVMDEPLOY-197
p42
aVMDEPLOY-196
p43
aVMDEPLOY-195
p44
aVMDEPLOY-194
p45
aVMDEPLOY-193
p46
aVMDEPLOY-192
p47
aVMDEPLOY-191
p48
aVMDEPLOY-190
p49
aVMDEPLOY-189
p50
aVMDEPLOY-188
p51
aVMDEPLOY-187
p52
aVMDEPLOY-186
p53
aVMDEPLOY-185
p54
aVMDEPLOY-184
p55
aVMDEPLOY-183
p56
aVMDEPLOY-182
p57
aVMDEPLOY-181
p58
aVMDEPLOY-180
p59
aVMDEPLOY-179
p60
aVMDEPLOY-178
p61
aVMDEPLOY-177
p62
aVMDEPLOY-176
p63
aVMDEPLOY-175
p64
aVMDEPLOY-174
p65
aVMDEPLOY-173
p66
aVMDEPLOY-172
p67
aVMDEPLOY-171
p68
aVMDEPLOY-170
p69
aVMDEPLOY-169
p70
aVMDEPLOY-168
p71
aVMDEPLOY-167
p72
aVMDEPLOY-166
p73
aVMDEPLOY-165
p74
aVMDEPLOY-164
p75
aVMDEPLOY-163
p76
aVMDEPLOY-162
p77
aVMDEPLOY-161
p78
aVMDEPLOY-160
p79
aVMDEPLOY-159
p80
aVMDEPLOY-158
p81
aVMDEPLOY-157
p82
aVMDEPLOY-156
p83
aVMDEPLOY-155
p84
aVMDEPLOY-154
p85
aVMDEPLOY-153
p86
aVMDEPLOY-152
p87
aVMDEPLOY-151
p88
aVMDEPLOY-150
p89
aVMDEPLOY-149
p90
aVMDEPLOY-147
p91
aVMDEPLOY-146
p92
aVMDEPLOY-145
p93
aVMDEPLOY-144
p94
aVMDEPLOY-143
p95
aVMDEPLOY-141
p96
aVMDEPLOY-140
p97
aVMDEPLOY-139
p98
aVMDEPLOY-138
p99
aVMDEPLOY-137
p100
aVMDEPLOY-136
p101
aVMDEPLOY-135
p102
aVMDEPLOY-134
p103
aVMDEPLOY-133
p104
aVMDEPLOY-132
p105
aVMDEPLOY-131
p106
aVMDEPLOY-130
p107
aVMDEPLOY-129
p108
aVMDEPLOY-128
p109
aVMDEPLOY-127
p110
aVMDEPLOY-126
p111
aVMDEPLOY-124
p112
aVMDEPLOY-123
p113
aVMDEPLOY-122
p114
aVMDEPLOY-121
p115
aVMDEPLOY-120
p116
aVMDEPLOY-118
p117
aVMDEPLOY-117
p118
aVMDEPLOY-116
p119
aVMDEPLOY-115
p120
aVMDEPLOY-114
p121
aVMDEPLOY-113
p122
aVMDEPLOY-112
p123
aVMDEPLOY-111
p124
aVMDEPLOY-110
p125
aVMDEPLOY-109
p126
aVMDEPLOY-106
p127
aVMDEPLOY-103
p128
aVMDEPLOY-102
p129
aVMDEPLOY-101
p130
aVMDEPLOY-100
p131
aVMDEPLOY-99
p132
aVMDEPLOY-98
p133
aVMDEPLOY-97
p134
aVMDEPLOY-96
p135
aVMDEPLOY-95
p136
aVMDEPLOY-94
p137
aVMDEPLOY-93
p138
aVMDEPLOY-92
p139
aVMDEPLOY-91
p140
aVMDEPLOY-90
p141
aVMDEPLOY-89
p142
aVMDEPLOY-88
p143
aVMDEPLOY-87
p144
aVMDEPLOY-84
p145
aVMDEPLOY-83
p146
aVMDEPLOY-81
p147
aVMDEPLOY-80
p148
aVMDEPLOY-79
p149
aVMDEPLOY-78
p150
aVMDEPLOY-77
p151
aVMDEPLOY-75
p152
aVMDEPLOY-74
p153
aVMDEPLOY-71
p154
aVMDEPLOY-70
p155
aVMDEPLOY-68
p156
aVMDEPLOY-67
p157
aVMDEPLOY-66
p158
aVMDEPLOY-65
p159
aVMDEPLOY-64
p160
aVMDEPLOY-63
p161
aVMDEPLOY-62
p162
aVMDEPLOY-61
p163
aVMDEPLOY-60
p164
aVMDEPLOY-59
p165
aVMDEPLOY-58
p166
aVMDEPLOY-57
p167
aVMDEPLOY-56
p168
aVMDEPLOY-55
p169
aVMDEPLOY-54
p170
aVMDEPLOY-53
p171
aVMDEPLOY-52
p172
aVMDEPLOY-51
p173
aVMDEPLOY-50
p174
aVMDEPLOY-49
p175
aVMDEPLOY-48
p176
aVMDEPLOY-47
p177
aVMDEPLOY-46
p178
aVMDEPLOY-45
p179
aVMDEPLOY-44
p180
aVMDEPLOY-43
p181
aVMDEPLOY-42
p182
aVMDEPLOY-41
p183
aVMDEPLOY-39
p184
aVMDEPLOY-38
p185
aVMDEPLOY-37
p186
aVMDEPLOY-36
p187
aVMDEPLOY-35
p188
aVMDEPLOY-34
p189
aVMDEPLOY-33
p190
aVMDEPLOY-32
p191
aVMDEPLOY-31
p192
aVMDEPLOY-30
p193
aVMDEPLOY-29
p194
aVMDEPLOY-28
p195
aVMDEPLOY-27
p196
aVMDEPLOY-26
p197
aVMDEPLOY-25
p198
aVMDEPLOY-24
p199
aVMDEPLOY-23
p200
aVMDEPLOY-22
p201
aVMDEPLOY-21
p202
aVMDEPLOY-19
p203
aVMDEPLOY-18
p204
aVMDEPLOY-17
p205
aVMDEPLOY-16
p206
aVMDEPLOY-14
p207
aVMDEPLOY-12
p208
aVMDEPLOY-11
p209
aVMDEPLOY-10
p210
aVMDEPLOY-9
p211
aVMDEPLOY-8
p212
aVMDEPLOY-7
p213
aVMDEPLOY-6
p214
aVMDEPLOY-4
p215
aVMDEPLOY-3
p216
aVMDEPLOY-2
p217
aVMDEPLOY-1
p218
a.