(lp0
VMDOAP-58
p1
aVMDOAP-57
p2
aVMDOAP-56
p3
aVMDOAP-55
p4
aVMDOAP-54
p5
aVMDOAP-52
p6
aVMDOAP-51
p7
aVMDOAP-50
p8
aVMDOAP-49
p9
aVMDOAP-48
p10
aVMDOAP-47
p11
aVMDOAP-46
p12
aVMDOAP-45
p13
aVMDOAP-44
p14
aVMDOAP-43
p15
aVMDOAP-42
p16
aVMDOAP-41
p17
aVMDOAP-40
p18
aVMDOAP-39
p19
aVMDOAP-38
p20
aVMDOAP-37
p21
aVMDOAP-36
p22
aVMDOAP-35
p23
aVMDOAP-34
p24
aVMDOAP-33
p25
aVMDOAP-32
p26
aVMDOAP-31
p27
aVMDOAP-30
p28
aVMDOAP-29
p29
aVMDOAP-28
p30
aVMDOAP-27
p31
aVMDOAP-26
p32
aVMDOAP-25
p33
aVMDOAP-24
p34
aVMDOAP-23
p35
aVMDOAP-22
p36
aVMDOAP-15
p37
aVMDOAP-14
p38
aVMDOAP-13
p39
aVMDOAP-12
p40
aVMDOAP-11
p41
aVMDOAP-10
p42
aVMDOAP-9
p43
aVMDOAP-8
p44
aVMDOAP-7
p45
aVMDOAP-6
p46
aVMDOAP-5
p47
aVMDOAP-4
p48
aVMDOAP-3
p49
aVMDOAP-2
p50
aVMDOAP-1
p51
a.