(lp0
VMEAR-270
p1
aVMEAR-269
p2
aVMEAR-268
p3
aVMEAR-267
p4
aVMEAR-266
p5
aVMEAR-265
p6
aVMEAR-264
p7
aVMEAR-263
p8
aVMEAR-262
p9
aVMEAR-261
p10
aVMEAR-260
p11
aVMEAR-259
p12
aVMEAR-258
p13
aVMEAR-257
p14
aVMEAR-256
p15
aVMEAR-255
p16
aVMEAR-254
p17
aVMEAR-253
p18
aVMEAR-252
p19
aVMEAR-251
p20
aVMEAR-250
p21
aVMEAR-249
p22
aVMEAR-248
p23
aVMEAR-247
p24
aVMEAR-246
p25
aVMEAR-245
p26
aVMEAR-244
p27
aVMEAR-243
p28
aVMEAR-242
p29
aVMEAR-241
p30
aVMEAR-240
p31
aVMEAR-239
p32
aVMEAR-238
p33
aVMEAR-237
p34
aVMEAR-236
p35
aVMEAR-235
p36
aVMEAR-234
p37
aVMEAR-233
p38
aVMEAR-232
p39
aVMEAR-230
p40
aVMEAR-229
p41
aVMEAR-228
p42
aVMEAR-227
p43
aVMEAR-226
p44
aVMEAR-225
p45
aVMEAR-224
p46
aVMEAR-223
p47
aVMEAR-222
p48
aVMEAR-221
p49
aVMEAR-220
p50
aVMEAR-219
p51
aVMEAR-218
p52
aVMEAR-217
p53
aVMEAR-216
p54
aVMEAR-215
p55
aVMEAR-214
p56
aVMEAR-213
p57
aVMEAR-212
p58
aVMEAR-211
p59
aVMEAR-210
p60
aVMEAR-209
p61
aVMEAR-208
p62
aVMEAR-207
p63
aVMEAR-206
p64
aVMEAR-205
p65
aVMEAR-204
p66
aVMEAR-203
p67
aVMEAR-202
p68
aVMEAR-201
p69
aVMEAR-200
p70
aVMEAR-199
p71
aVMEAR-198
p72
aVMEAR-197
p73
aVMEAR-196
p74
aVMEAR-195
p75
aVMEAR-194
p76
aVMEAR-192
p77
aVMEAR-191
p78
aVMEAR-190
p79
aVMEAR-189
p80
aVMEAR-188
p81
aVMEAR-187
p82
aVMEAR-186
p83
aVMEAR-185
p84
aVMEAR-184
p85
aVMEAR-183
p86
aVMEAR-182
p87
aVMEAR-181
p88
aVMEAR-180
p89
aVMEAR-179
p90
aVMEAR-178
p91
aVMEAR-177
p92
aVMEAR-176
p93
aVMEAR-175
p94
aVMEAR-174
p95
aVMEAR-173
p96
aVMEAR-172
p97
aVMEAR-171
p98
aVMEAR-170
p99
aVMEAR-169
p100
aVMEAR-168
p101
aVMEAR-167
p102
aVMEAR-166
p103
aVMEAR-165
p104
aVMEAR-164
p105
aVMEAR-163
p106
aVMEAR-162
p107
aVMEAR-161
p108
aVMEAR-160
p109
aVMEAR-159
p110
aVMEAR-158
p111
aVMEAR-157
p112
aVMEAR-156
p113
aVMEAR-155
p114
aVMEAR-154
p115
aVMEAR-153
p116
aVMEAR-152
p117
aVMEAR-151
p118
aVMEAR-150
p119
aVMEAR-149
p120
aVMEAR-148
p121
aVMEAR-147
p122
aVMEAR-146
p123
aVMEAR-145
p124
aVMEAR-144
p125
aVMEAR-143
p126
aVMEAR-142
p127
aVMEAR-141
p128
aVMEAR-140
p129
aVMEAR-139
p130
aVMEAR-138
p131
aVMEAR-137
p132
aVMEAR-136
p133
aVMEAR-135
p134
aVMEAR-134
p135
aVMEAR-133
p136
aVMEAR-132
p137
aVMEAR-131
p138
aVMEAR-130
p139
aVMEAR-129
p140
aVMEAR-128
p141
aVMEAR-127
p142
aVMEAR-126
p143
aVMEAR-125
p144
aVMEAR-124
p145
aVMEAR-123
p146
aVMEAR-122
p147
aVMEAR-121
p148
aVMEAR-120
p149
aVMEAR-119
p150
aVMEAR-118
p151
aVMEAR-117
p152
aVMEAR-116
p153
aVMEAR-115
p154
aVMEAR-114
p155
aVMEAR-113
p156
aVMEAR-112
p157
aVMEAR-107
p158
aVMEAR-106
p159
aVMEAR-105
p160
aVMEAR-104
p161
aVMEAR-103
p162
aVMEAR-102
p163
aVMEAR-101
p164
aVMEAR-100
p165
aVMEAR-99
p166
aVMEAR-98
p167
aVMEAR-97
p168
aVMEAR-96
p169
aVMEAR-95
p170
aVMEAR-94
p171
aVMEAR-93
p172
aVMEAR-92
p173
aVMEAR-91
p174
aVMEAR-90
p175
aVMEAR-89
p176
aVMEAR-88
p177
aVMEAR-87
p178
aVMEAR-86
p179
aVMEAR-85
p180
aVMEAR-84
p181
aVMEAR-83
p182
aVMEAR-82
p183
aVMEAR-81
p184
aVMEAR-80
p185
aVMEAR-79
p186
aVMEAR-78
p187
aVMEAR-77
p188
aVMEAR-76
p189
aVMEAR-75
p190
aVMEAR-74
p191
aVMEAR-73
p192
aVMEAR-72
p193
aVMEAR-71
p194
aVMEAR-70
p195
aVMEAR-69
p196
aVMEAR-68
p197
aVMEAR-67
p198
aVMEAR-66
p199
aVMEAR-65
p200
aVMEAR-64
p201
aVMEAR-63
p202
aVMEAR-62
p203
aVMEAR-61
p204
aVMEAR-60
p205
aVMEAR-59
p206
aVMEAR-58
p207
aVMEAR-57
p208
aVMEAR-56
p209
aVMEAR-55
p210
aVMEAR-54
p211
aVMEAR-53
p212
aVMEAR-52
p213
aVMEAR-51
p214
aVMEAR-50
p215
aVMEAR-49
p216
aVMEAR-48
p217
aVMEAR-47
p218
aVMEAR-46
p219
aVMEAR-45
p220
aVMEAR-44
p221
aVMEAR-43
p222
aVMEAR-42
p223
aVMEAR-41
p224
aVMEAR-40
p225
aVMEAR-39
p226
aVMEAR-38
p227
aVMEAR-37
p228
aVMEAR-36
p229
aVMEAR-35
p230
aVMEAR-34
p231
aVMEAR-33
p232
aVMEAR-32
p233
aVMEAR-31
p234
aVMEAR-30
p235
aVMEAR-29
p236
aVMEAR-28
p237
aVMEAR-27
p238
aVMEAR-26
p239
aVMEAR-25
p240
aVMEAR-24
p241
aVMEAR-23
p242
aVMEAR-22
p243
aVMEAR-21
p244
aVMEAR-20
p245
aVMEAR-18
p246
aVMEAR-17
p247
aVMEAR-15
p248
aVMEAR-14
p249
aVMEAR-13
p250
aVMEAR-12
p251
aVMEAR-11
p252
aVMEAR-10
p253
aVMEAR-9
p254
aVMEAR-8
p255
aVMEAR-6
p256
aVMEAR-5
p257
aVMEAR-4
p258
aVMEAR-3
p259
aVMEAR-2
p260
aVMEAR-1
p261
a.