(lp0
VMEECROWAVE-132
p1
aVMEECROWAVE-131
p2
aVMEECROWAVE-130
p3
aVMEECROWAVE-129
p4
aVMEECROWAVE-128
p5
aVMEECROWAVE-127
p6
aVMEECROWAVE-126
p7
aVMEECROWAVE-125
p8
aVMEECROWAVE-124
p9
aVMEECROWAVE-123
p10
aVMEECROWAVE-122
p11
aVMEECROWAVE-121
p12
aVMEECROWAVE-120
p13
aVMEECROWAVE-119
p14
aVMEECROWAVE-118
p15
aVMEECROWAVE-117
p16
aVMEECROWAVE-116
p17
aVMEECROWAVE-115
p18
aVMEECROWAVE-114
p19
aVMEECROWAVE-113
p20
aVMEECROWAVE-112
p21
aVMEECROWAVE-111
p22
aVMEECROWAVE-110
p23
aVMEECROWAVE-109
p24
aVMEECROWAVE-108
p25
aVMEECROWAVE-107
p26
aVMEECROWAVE-106
p27
aVMEECROWAVE-105
p28
aVMEECROWAVE-104
p29
aVMEECROWAVE-103
p30
aVMEECROWAVE-102
p31
aVMEECROWAVE-101
p32
aVMEECROWAVE-100
p33
aVMEECROWAVE-99
p34
aVMEECROWAVE-98
p35
aVMEECROWAVE-97
p36
aVMEECROWAVE-96
p37
aVMEECROWAVE-95
p38
aVMEECROWAVE-94
p39
aVMEECROWAVE-93
p40
aVMEECROWAVE-92
p41
aVMEECROWAVE-91
p42
aVMEECROWAVE-90
p43
aVMEECROWAVE-89
p44
aVMEECROWAVE-88
p45
aVMEECROWAVE-87
p46
aVMEECROWAVE-86
p47
aVMEECROWAVE-85
p48
aVMEECROWAVE-84
p49
aVMEECROWAVE-83
p50
aVMEECROWAVE-82
p51
aVMEECROWAVE-81
p52
aVMEECROWAVE-80
p53
aVMEECROWAVE-79
p54
aVMEECROWAVE-78
p55
aVMEECROWAVE-77
p56
aVMEECROWAVE-76
p57
aVMEECROWAVE-75
p58
aVMEECROWAVE-74
p59
aVMEECROWAVE-73
p60
aVMEECROWAVE-72
p61
aVMEECROWAVE-71
p62
aVMEECROWAVE-70
p63
aVMEECROWAVE-69
p64
aVMEECROWAVE-68
p65
aVMEECROWAVE-67
p66
aVMEECROWAVE-66
p67
aVMEECROWAVE-65
p68
aVMEECROWAVE-64
p69
aVMEECROWAVE-63
p70
aVMEECROWAVE-62
p71
aVMEECROWAVE-61
p72
aVMEECROWAVE-60
p73
aVMEECROWAVE-59
p74
aVMEECROWAVE-58
p75
aVMEECROWAVE-57
p76
aVMEECROWAVE-56
p77
aVMEECROWAVE-55
p78
aVMEECROWAVE-54
p79
aVMEECROWAVE-53
p80
aVMEECROWAVE-52
p81
aVMEECROWAVE-51
p82
aVMEECROWAVE-50
p83
aVMEECROWAVE-49
p84
aVMEECROWAVE-48
p85
aVMEECROWAVE-47
p86
aVMEECROWAVE-46
p87
aVMEECROWAVE-45
p88
aVMEECROWAVE-44
p89
aVMEECROWAVE-43
p90
aVMEECROWAVE-42
p91
aVMEECROWAVE-41
p92
aVMEECROWAVE-40
p93
aVMEECROWAVE-39
p94
aVMEECROWAVE-38
p95
aVMEECROWAVE-37
p96
aVMEECROWAVE-36
p97
aVMEECROWAVE-35
p98
aVMEECROWAVE-34
p99
aVMEECROWAVE-33
p100
aVMEECROWAVE-32
p101
aVMEECROWAVE-31
p102
aVMEECROWAVE-30
p103
aVMEECROWAVE-29
p104
aVMEECROWAVE-28
p105
aVMEECROWAVE-27
p106
aVMEECROWAVE-26
p107
aVMEECROWAVE-25
p108
aVMEECROWAVE-24
p109
aVMEECROWAVE-23
p110
aVMEECROWAVE-22
p111
aVMEECROWAVE-21
p112
aVMEECROWAVE-20
p113
aVMEECROWAVE-19
p114
aVMEECROWAVE-18
p115
aVMEECROWAVE-17
p116
aVMEECROWAVE-16
p117
aVMEECROWAVE-15
p118
aVMEECROWAVE-14
p119
aVMEECROWAVE-13
p120
aVMEECROWAVE-12
p121
aVMEECROWAVE-11
p122
aVMEECROWAVE-10
p123
aVMEECROWAVE-9
p124
aVMEECROWAVE-8
p125
aVMEECROWAVE-7
p126
aVMEECROWAVE-6
p127
aVMEECROWAVE-5
p128
aVMEECROWAVE-4
p129
aVMEECROWAVE-3
p130
aVMEECROWAVE-2
p131
aVMEECROWAVE-1
p132
a.