(lp0
VMEJB-125
p1
aVMEJB-124
p2
aVMEJB-123
p3
aVMEJB-122
p4
aVMEJB-121
p5
aVMEJB-120
p6
aVMEJB-119
p7
aVMEJB-118
p8
aVMEJB-117
p9
aVMEJB-116
p10
aVMEJB-115
p11
aVMEJB-114
p12
aVMEJB-113
p13
aVMEJB-112
p14
aVMEJB-111
p15
aVMEJB-110
p16
aVMEJB-109
p17
aVMEJB-108
p18
aVMEJB-107
p19
aVMEJB-106
p20
aVMEJB-105
p21
aVMEJB-104
p22
aVMEJB-103
p23
aVMEJB-102
p24
aVMEJB-101
p25
aVMEJB-100
p26
aVMEJB-99
p27
aVMEJB-98
p28
aVMEJB-97
p29
aVMEJB-96
p30
aVMEJB-95
p31
aVMEJB-94
p32
aVMEJB-93
p33
aVMEJB-92
p34
aVMEJB-91
p35
aVMEJB-90
p36
aVMEJB-88
p37
aVMEJB-87
p38
aVMEJB-86
p39
aVMEJB-84
p40
aVMEJB-83
p41
aVMEJB-82
p42
aVMEJB-81
p43
aVMEJB-80
p44
aVMEJB-78
p45
aVMEJB-77
p46
aVMEJB-76
p47
aVMEJB-75
p48
aVMEJB-74
p49
aVMEJB-73
p50
aVMEJB-72
p51
aVMEJB-71
p52
aVMEJB-70
p53
aVMEJB-69
p54
aVMEJB-68
p55
aVMEJB-67
p56
aVMEJB-66
p57
aVMEJB-65
p58
aVMEJB-64
p59
aVMEJB-63
p60
aVMEJB-62
p61
aVMEJB-61
p62
aVMEJB-60
p63
aVMEJB-59
p64
aVMEJB-58
p65
aVMEJB-57
p66
aVMEJB-56
p67
aVMEJB-55
p68
aVMEJB-54
p69
aVMEJB-53
p70
aVMEJB-52
p71
aVMEJB-51
p72
aVMEJB-50
p73
aVMEJB-49
p74
aVMEJB-48
p75
aVMEJB-47
p76
aVMEJB-46
p77
aVMEJB-45
p78
aVMEJB-44
p79
aVMEJB-40
p80
aVMEJB-39
p81
aVMEJB-35
p82
aVMEJB-34
p83
aVMEJB-33
p84
aVMEJB-32
p85
aVMEJB-30
p86
aVMEJB-29
p87
aVMEJB-28
p88
aVMEJB-27
p89
aVMEJB-26
p90
aVMEJB-25
p91
aVMEJB-24
p92
aVMEJB-23
p93
aVMEJB-22
p94
aVMEJB-21
p95
aVMEJB-20
p96
aVMEJB-19
p97
aVMEJB-18
p98
aVMEJB-17
p99
aVMEJB-16
p100
aVMEJB-15
p101
aVMEJB-14
p102
aVMEJB-13
p103
aVMEJB-12
p104
aVMEJB-11
p105
aVMEJB-10
p106
aVMEJB-9
p107
aVMEJB-8
p108
aVMEJB-7
p109
aVMEJB-6
p110
aVMEJB-5
p111
aVMEJB-4
p112
aVMEJB-3
p113
aVMEJB-2
p114
aVMEJB-1
p115
a.