(lp0
VMETAMODEL-1190
p1
aVMETAMODEL-1189
p2
aVMETAMODEL-1188
p3
aVMETAMODEL-1187
p4
aVMETAMODEL-1186
p5
aVMETAMODEL-1185
p6
aVMETAMODEL-1184
p7
aVMETAMODEL-1183
p8
aVMETAMODEL-1182
p9
aVMETAMODEL-1181
p10
aVMETAMODEL-1180
p11
aVMETAMODEL-1179
p12
aVMETAMODEL-1177
p13
aVMETAMODEL-1176
p14
aVMETAMODEL-1175
p15
aVMETAMODEL-1174
p16
aVMETAMODEL-1173
p17
aVMETAMODEL-1172
p18
aVMETAMODEL-1171
p19
aVMETAMODEL-1170
p20
aVMETAMODEL-1169
p21
aVMETAMODEL-1168
p22
aVMETAMODEL-1167
p23
aVMETAMODEL-1166
p24
aVMETAMODEL-1165
p25
aVMETAMODEL-1164
p26
aVMETAMODEL-1163
p27
aVMETAMODEL-1162
p28
aVMETAMODEL-1161
p29
aVMETAMODEL-1160
p30
aVMETAMODEL-1159
p31
aVMETAMODEL-1158
p32
aVMETAMODEL-1157
p33
aVMETAMODEL-1156
p34
aVMETAMODEL-1155
p35
aVMETAMODEL-1154
p36
aVMETAMODEL-1153
p37
aVMETAMODEL-1152
p38
aVMETAMODEL-1151
p39
aVMETAMODEL-1150
p40
aVMETAMODEL-1149
p41
aVMETAMODEL-1148
p42
aVMETAMODEL-1147
p43
aVMETAMODEL-1146
p44
aVMETAMODEL-1145
p45
aVMETAMODEL-1144
p46
aVMETAMODEL-1143
p47
aVMETAMODEL-1142
p48
aVMETAMODEL-1141
p49
aVMETAMODEL-1140
p50
aVMETAMODEL-1139
p51
aVMETAMODEL-1138
p52
aVMETAMODEL-1137
p53
aVMETAMODEL-1136
p54
aVMETAMODEL-1135
p55
aVMETAMODEL-1134
p56
aVMETAMODEL-1133
p57
aVMETAMODEL-1132
p58
aVMETAMODEL-1131
p59
aVMETAMODEL-1130
p60
aVMETAMODEL-1129
p61
aVMETAMODEL-1128
p62
aVMETAMODEL-1127
p63
aVMETAMODEL-1126
p64
aVMETAMODEL-1125
p65
aVMETAMODEL-1124
p66
aVMETAMODEL-1123
p67
aVMETAMODEL-1122
p68
aVMETAMODEL-1121
p69
aVMETAMODEL-1120
p70
aVMETAMODEL-1119
p71
aVMETAMODEL-1118
p72
aVMETAMODEL-1117
p73
aVMETAMODEL-1116
p74
aVMETAMODEL-1115
p75
aVMETAMODEL-1114
p76
aVMETAMODEL-1113
p77
aVMETAMODEL-1112
p78
aVMETAMODEL-1111
p79
aVMETAMODEL-1110
p80
aVMETAMODEL-1109
p81
aVMETAMODEL-1108
p82
aVMETAMODEL-1107
p83
aVMETAMODEL-1106
p84
aVMETAMODEL-1105
p85
aVMETAMODEL-1104
p86
aVMETAMODEL-1103
p87
aVMETAMODEL-1102
p88
aVMETAMODEL-1101
p89
aVMETAMODEL-1100
p90
aVMETAMODEL-1099
p91
aVMETAMODEL-1098
p92
aVMETAMODEL-1097
p93
aVMETAMODEL-1096
p94
aVMETAMODEL-1095
p95
aVMETAMODEL-1094
p96
aVMETAMODEL-1093
p97
aVMETAMODEL-1089
p98
aVMETAMODEL-1088
p99
aVMETAMODEL-1087
p100
aVMETAMODEL-1086
p101
aVMETAMODEL-1082
p102
aVMETAMODEL-252
p103
aVMETAMODEL-251
p104
aVMETAMODEL-250
p105
aVMETAMODEL-249
p106
aVMETAMODEL-248
p107
aVMETAMODEL-247
p108
aVMETAMODEL-246
p109
aVMETAMODEL-245
p110
aVMETAMODEL-244
p111
aVMETAMODEL-242
p112
aVMETAMODEL-241
p113
aVMETAMODEL-240
p114
aVMETAMODEL-239
p115
aVMETAMODEL-238
p116
aVMETAMODEL-237
p117
aVMETAMODEL-236
p118
aVMETAMODEL-235
p119
aVMETAMODEL-234
p120
aVMETAMODEL-233
p121
aVMETAMODEL-232
p122
aVMETAMODEL-231
p123
aVMETAMODEL-230
p124
aVMETAMODEL-229
p125
aVMETAMODEL-228
p126
aVMETAMODEL-227
p127
aVMETAMODEL-226
p128
aVMETAMODEL-225
p129
aVMETAMODEL-224
p130
aVMETAMODEL-223
p131
aVMETAMODEL-222
p132
aVMETAMODEL-221
p133
aVMETAMODEL-220
p134
aVMETAMODEL-219
p135
aVMETAMODEL-218
p136
aVMETAMODEL-217
p137
aVMETAMODEL-216
p138
aVMETAMODEL-215
p139
aVMETAMODEL-214
p140
aVMETAMODEL-213
p141
aVMETAMODEL-212
p142
aVMETAMODEL-211
p143
aVMETAMODEL-210
p144
aVMETAMODEL-209
p145
aVMETAMODEL-208
p146
aVMETAMODEL-207
p147
aVMETAMODEL-206
p148
aVMETAMODEL-205
p149
aVMETAMODEL-204
p150
aVMETAMODEL-203
p151
aVMETAMODEL-202
p152
aVMETAMODEL-201
p153
aVMETAMODEL-200
p154
aVMETAMODEL-199
p155
aVMETAMODEL-198
p156
aVMETAMODEL-197
p157
aVMETAMODEL-196
p158
aVMETAMODEL-195
p159
aVMETAMODEL-194
p160
aVMETAMODEL-193
p161
aVMETAMODEL-192
p162
aVMETAMODEL-191
p163
aVMETAMODEL-190
p164
aVMETAMODEL-189
p165
aVMETAMODEL-188
p166
aVMETAMODEL-187
p167
aVMETAMODEL-186
p168
aVMETAMODEL-185
p169
aVMETAMODEL-184
p170
aVMETAMODEL-183
p171
aVMETAMODEL-182
p172
aVMETAMODEL-181
p173
aVMETAMODEL-180
p174
aVMETAMODEL-179
p175
aVMETAMODEL-178
p176
aVMETAMODEL-177
p177
aVMETAMODEL-176
p178
aVMETAMODEL-175
p179
aVMETAMODEL-174
p180
aVMETAMODEL-173
p181
aVMETAMODEL-172
p182
aVMETAMODEL-171
p183
aVMETAMODEL-170
p184
aVMETAMODEL-169
p185
aVMETAMODEL-168
p186
aVMETAMODEL-167
p187
aVMETAMODEL-166
p188
aVMETAMODEL-165
p189
aVMETAMODEL-164
p190
aVMETAMODEL-163
p191
aVMETAMODEL-162
p192
aVMETAMODEL-161
p193
aVMETAMODEL-160
p194
aVMETAMODEL-159
p195
aVMETAMODEL-158
p196
aVMETAMODEL-157
p197
aVMETAMODEL-156
p198
aVMETAMODEL-155
p199
aVMETAMODEL-154
p200
aVMETAMODEL-153
p201
aVMETAMODEL-152
p202
aVMETAMODEL-151
p203
aVMETAMODEL-150
p204
aVMETAMODEL-149
p205
aVMETAMODEL-148
p206
aVMETAMODEL-147
p207
aVMETAMODEL-146
p208
aVMETAMODEL-145
p209
aVMETAMODEL-144
p210
aVMETAMODEL-143
p211
aVMETAMODEL-142
p212
aVMETAMODEL-141
p213
aVMETAMODEL-140
p214
aVMETAMODEL-139
p215
aVMETAMODEL-138
p216
aVMETAMODEL-137
p217
aVMETAMODEL-136
p218
aVMETAMODEL-135
p219
aVMETAMODEL-134
p220
aVMETAMODEL-133
p221
aVMETAMODEL-132
p222
aVMETAMODEL-131
p223
aVMETAMODEL-130
p224
aVMETAMODEL-129
p225
aVMETAMODEL-128
p226
aVMETAMODEL-127
p227
aVMETAMODEL-126
p228
aVMETAMODEL-125
p229
aVMETAMODEL-124
p230
aVMETAMODEL-123
p231
aVMETAMODEL-122
p232
aVMETAMODEL-121
p233
aVMETAMODEL-120
p234
aVMETAMODEL-119
p235
aVMETAMODEL-118
p236
aVMETAMODEL-117
p237
aVMETAMODEL-116
p238
aVMETAMODEL-115
p239
aVMETAMODEL-114
p240
aVMETAMODEL-113
p241
aVMETAMODEL-112
p242
aVMETAMODEL-111
p243
aVMETAMODEL-110
p244
aVMETAMODEL-109
p245
aVMETAMODEL-108
p246
aVMETAMODEL-107
p247
aVMETAMODEL-106
p248
aVMETAMODEL-105
p249
aVMETAMODEL-104
p250
aVMETAMODEL-103
p251
aVMETAMODEL-102
p252
aVMETAMODEL-101
p253
aVMETAMODEL-100
p254
aVMETAMODEL-99
p255
aVMETAMODEL-98
p256
aVMETAMODEL-97
p257
aVMETAMODEL-96
p258
aVMETAMODEL-95
p259
aVMETAMODEL-94
p260
aVMETAMODEL-93
p261
aVMETAMODEL-92
p262
aVMETAMODEL-91
p263
aVMETAMODEL-90
p264
aVMETAMODEL-89
p265
aVMETAMODEL-88
p266
aVMETAMODEL-87
p267
aVMETAMODEL-86
p268
aVMETAMODEL-85
p269
aVMETAMODEL-84
p270
aVMETAMODEL-83
p271
aVMETAMODEL-82
p272
aVMETAMODEL-81
p273
aVMETAMODEL-80
p274
aVMETAMODEL-79
p275
aVMETAMODEL-78
p276
aVMETAMODEL-77
p277
aVMETAMODEL-76
p278
aVMETAMODEL-75
p279
aVMETAMODEL-74
p280
aVMETAMODEL-73
p281
aVMETAMODEL-72
p282
aVMETAMODEL-71
p283
aVMETAMODEL-70
p284
aVMETAMODEL-69
p285
aVMETAMODEL-68
p286
aVMETAMODEL-67
p287
aVMETAMODEL-66
p288
aVMETAMODEL-65
p289
aVMETAMODEL-64
p290
aVMETAMODEL-63
p291
aVMETAMODEL-62
p292
aVMETAMODEL-61
p293
aVMETAMODEL-60
p294
aVMETAMODEL-59
p295
aVMETAMODEL-58
p296
aVMETAMODEL-57
p297
aVMETAMODEL-56
p298
aVMETAMODEL-55
p299
aVMETAMODEL-54
p300
aVMETAMODEL-53
p301
aVMETAMODEL-52
p302
aVMETAMODEL-51
p303
aVMETAMODEL-50
p304
aVMETAMODEL-49
p305
aVMETAMODEL-48
p306
aVMETAMODEL-47
p307
aVMETAMODEL-46
p308
aVMETAMODEL-45
p309
aVMETAMODEL-44
p310
aVMETAMODEL-43
p311
aVMETAMODEL-42
p312
aVMETAMODEL-41
p313
aVMETAMODEL-40
p314
aVMETAMODEL-39
p315
aVMETAMODEL-38
p316
aVMETAMODEL-37
p317
aVMETAMODEL-36
p318
aVMETAMODEL-35
p319
aVMETAMODEL-34
p320
aVMETAMODEL-33
p321
aVMETAMODEL-32
p322
aVMETAMODEL-31
p323
aVMETAMODEL-30
p324
aVMETAMODEL-29
p325
aVMETAMODEL-28
p326
aVMETAMODEL-27
p327
aVMETAMODEL-26
p328
aVMETAMODEL-25
p329
aVMETAMODEL-24
p330
aVMETAMODEL-23
p331
aVMETAMODEL-22
p332
aVMETAMODEL-21
p333
aVMETAMODEL-20
p334
aVMETAMODEL-19
p335
aVMETAMODEL-18
p336
aVMETAMODEL-17
p337
aVMETAMODEL-16
p338
aVMETAMODEL-15
p339
aVMETAMODEL-14
p340
aVMETAMODEL-13
p341
aVMETAMODEL-12
p342
aVMETAMODEL-11
p343
aVMETAMODEL-10
p344
aVMETAMODEL-9
p345
aVMETAMODEL-8
p346
aVMETAMODEL-7
p347
aVMETAMODEL-6
p348
aVMETAMODEL-5
p349
aVMETAMODEL-4
p350
aVMETAMODEL-3
p351
aVMETAMODEL-2
p352
aVMETAMODEL-1
p353
a.