(lp0
VMETRON-1719
p1
aVMETRON-1718
p2
aVMETRON-1717
p3
aVMETRON-1716
p4
aVMETRON-1715
p5
aVMETRON-1714
p6
aVMETRON-1713
p7
aVMETRON-1712
p8
aVMETRON-1710
p9
aVMETRON-1709
p10
aVMETRON-1708
p11
aVMETRON-1707
p12
aVMETRON-1706
p13
aVMETRON-1705
p14
aVMETRON-1704
p15
aVMETRON-1703
p16
aVMETRON-1702
p17
aVMETRON-1701
p18
aVMETRON-1700
p19
aVMETRON-1699
p20
aVMETRON-1698
p21
aVMETRON-1697
p22
aVMETRON-1696
p23
aVMETRON-1695
p24
aVMETRON-1694
p25
aVMETRON-1693
p26
aVMETRON-1692
p27
aVMETRON-1691
p28
aVMETRON-1690
p29
aVMETRON-1689
p30
aVMETRON-1688
p31
aVMETRON-1687
p32
aVMETRON-1686
p33
aVMETRON-1685
p34
aVMETRON-1684
p35
aVMETRON-1683
p36
aVMETRON-1682
p37
aVMETRON-1681
p38
aVMETRON-1680
p39
aVMETRON-1679
p40
aVMETRON-1678
p41
aVMETRON-1677
p42
aVMETRON-1676
p43
aVMETRON-1675
p44
aVMETRON-1674
p45
aVMETRON-1673
p46
aVMETRON-1672
p47
aVMETRON-1671
p48
aVMETRON-1670
p49
aVMETRON-1669
p50
aVMETRON-1668
p51
aVMETRON-1667
p52
aVMETRON-1666
p53
aVMETRON-1665
p54
aVMETRON-1664
p55
aVMETRON-1663
p56
aVMETRON-1662
p57
aVMETRON-1661
p58
aVMETRON-1660
p59
aVMETRON-1659
p60
aVMETRON-1658
p61
aVMETRON-1657
p62
aVMETRON-1656
p63
aVMETRON-1655
p64
aVMETRON-1654
p65
aVMETRON-1653
p66
aVMETRON-1652
p67
aVMETRON-1651
p68
aVMETRON-1650
p69
aVMETRON-1649
p70
aVMETRON-1648
p71
aVMETRON-1647
p72
aVMETRON-1646
p73
aVMETRON-1645
p74
aVMETRON-1644
p75
aVMETRON-1643
p76
aVMETRON-1642
p77
aVMETRON-1641
p78
aVMETRON-1640
p79
aVMETRON-1639
p80
aVMETRON-1638
p81
aVMETRON-1637
p82
aVMETRON-1636
p83
aVMETRON-1635
p84
aVMETRON-1634
p85
aVMETRON-1633
p86
aVMETRON-1632
p87
aVMETRON-1631
p88
aVMETRON-1630
p89
aVMETRON-1629
p90
aVMETRON-1628
p91
aVMETRON-1627
p92
aVMETRON-1626
p93
aVMETRON-1625
p94
aVMETRON-1624
p95
aVMETRON-1623
p96
aVMETRON-1622
p97
aVMETRON-1621
p98
aVMETRON-1620
p99
aVMETRON-1619
p100
aVMETRON-1618
p101
aVMETRON-1617
p102
aVMETRON-1616
p103
aVMETRON-1615
p104
aVMETRON-1614
p105
aVMETRON-1613
p106
aVMETRON-1612
p107
aVMETRON-1611
p108
aVMETRON-1610
p109
aVMETRON-1609
p110
aVMETRON-1608
p111
aVMETRON-1607
p112
aVMETRON-1606
p113
aVMETRON-1605
p114
aVMETRON-1604
p115
aVMETRON-1603
p116
aVMETRON-1602
p117
aVMETRON-1601
p118
aVMETRON-1600
p119
aVMETRON-1599
p120
aVMETRON-1598
p121
aVMETRON-1597
p122
aVMETRON-1596
p123
aVMETRON-1595
p124
aVMETRON-1594
p125
aVMETRON-1593
p126
aVMETRON-1592
p127
aVMETRON-1591
p128
aVMETRON-1590
p129
aVMETRON-1589
p130
aVMETRON-1588
p131
aVMETRON-1587
p132
aVMETRON-1586
p133
aVMETRON-1585
p134
aVMETRON-1584
p135
aVMETRON-1583
p136
aVMETRON-1582
p137
aVMETRON-1581
p138
aVMETRON-1580
p139
aVMETRON-1579
p140
aVMETRON-1578
p141
aVMETRON-1577
p142
aVMETRON-1576
p143
aVMETRON-1575
p144
aVMETRON-1574
p145
aVMETRON-1573
p146
aVMETRON-1572
p147
aVMETRON-1571
p148
aVMETRON-1570
p149
aVMETRON-1569
p150
aVMETRON-1568
p151
aVMETRON-1567
p152
aVMETRON-1566
p153
aVMETRON-1565
p154
aVMETRON-1564
p155
aVMETRON-1563
p156
aVMETRON-1562
p157
aVMETRON-1561
p158
aVMETRON-1560
p159
aVMETRON-1559
p160
aVMETRON-1558
p161
aVMETRON-1557
p162
aVMETRON-1556
p163
aVMETRON-1555
p164
aVMETRON-1554
p165
aVMETRON-1553
p166
aVMETRON-1552
p167
aVMETRON-1551
p168
aVMETRON-1550
p169
aVMETRON-1549
p170
aVMETRON-1548
p171
aVMETRON-1547
p172
aVMETRON-1546
p173
aVMETRON-1545
p174
aVMETRON-1544
p175
aVMETRON-1543
p176
aVMETRON-1542
p177
aVMETRON-1541
p178
aVMETRON-1540
p179
aVMETRON-1539
p180
aVMETRON-1538
p181
aVMETRON-1537
p182
aVMETRON-1536
p183
aVMETRON-1535
p184
aVMETRON-1534
p185
aVMETRON-1533
p186
aVMETRON-1532
p187
aVMETRON-1531
p188
aVMETRON-1530
p189
aVMETRON-1529
p190
aVMETRON-1528
p191
aVMETRON-1527
p192
aVMETRON-1526
p193
aVMETRON-1525
p194
aVMETRON-1524
p195
aVMETRON-1523
p196
aVMETRON-1522
p197
aVMETRON-1521
p198
aVMETRON-1520
p199
aVMETRON-1519
p200
aVMETRON-1518
p201
aVMETRON-1517
p202
aVMETRON-1516
p203
aVMETRON-1515
p204
aVMETRON-1514
p205
aVMETRON-1513
p206
aVMETRON-1512
p207
aVMETRON-1511
p208
aVMETRON-1510
p209
aVMETRON-1509
p210
aVMETRON-1508
p211
aVMETRON-1507
p212
aVMETRON-1506
p213
aVMETRON-1505
p214
aVMETRON-1504
p215
aVMETRON-1503
p216
aVMETRON-1502
p217
aVMETRON-1501
p218
aVMETRON-1500
p219
aVMETRON-1499
p220
aVMETRON-1498
p221
aVMETRON-1497
p222
aVMETRON-1496
p223
aVMETRON-1495
p224
aVMETRON-1494
p225
aVMETRON-1493
p226
aVMETRON-1492
p227
aVMETRON-1491
p228
aVMETRON-1490
p229
aVMETRON-1489
p230
aVMETRON-1488
p231
aVMETRON-1487
p232
aVMETRON-1486
p233
aVMETRON-1485
p234
aVMETRON-1484
p235
aVMETRON-1483
p236
aVMETRON-1482
p237
aVMETRON-1481
p238
aVMETRON-1480
p239
aVMETRON-1479
p240
aVMETRON-1478
p241
aVMETRON-1477
p242
aVMETRON-1476
p243
aVMETRON-1475
p244
aVMETRON-1474
p245
aVMETRON-1473
p246
aVMETRON-1472
p247
aVMETRON-1471
p248
aVMETRON-1470
p249
aVMETRON-1469
p250
aVMETRON-1468
p251
aVMETRON-1467
p252
aVMETRON-1466
p253
aVMETRON-1465
p254
aVMETRON-1464
p255
aVMETRON-1463
p256
aVMETRON-1462
p257
aVMETRON-1461
p258
aVMETRON-1460
p259
aVMETRON-1459
p260
aVMETRON-1458
p261
aVMETRON-1457
p262
aVMETRON-1456
p263
aVMETRON-1455
p264
aVMETRON-1454
p265
aVMETRON-1453
p266
aVMETRON-1452
p267
aVMETRON-1451
p268
aVMETRON-1450
p269
aVMETRON-1449
p270
aVMETRON-1448
p271
aVMETRON-1447
p272
aVMETRON-1446
p273
aVMETRON-1445
p274
aVMETRON-1444
p275
aVMETRON-1443
p276
aVMETRON-1442
p277
aVMETRON-1441
p278
aVMETRON-1440
p279
aVMETRON-1439
p280
aVMETRON-1438
p281
aVMETRON-1437
p282
aVMETRON-1436
p283
aVMETRON-1435
p284
aVMETRON-1434
p285
aVMETRON-1433
p286
aVMETRON-1432
p287
aVMETRON-1431
p288
aVMETRON-1430
p289
aVMETRON-1429
p290
aVMETRON-1428
p291
aVMETRON-1427
p292
aVMETRON-1426
p293
aVMETRON-1425
p294
aVMETRON-1424
p295
aVMETRON-1423
p296
aVMETRON-1422
p297
aVMETRON-1421
p298
aVMETRON-1420
p299
aVMETRON-1419
p300
aVMETRON-1418
p301
aVMETRON-1417
p302
aVMETRON-1416
p303
aVMETRON-1415
p304
aVMETRON-1414
p305
aVMETRON-1413
p306
aVMETRON-1412
p307
aVMETRON-1411
p308
aVMETRON-1410
p309
aVMETRON-1409
p310
aVMETRON-1408
p311
aVMETRON-1407
p312
aVMETRON-1406
p313
aVMETRON-1405
p314
aVMETRON-1404
p315
aVMETRON-1403
p316
aVMETRON-1402
p317
aVMETRON-1401
p318
aVMETRON-1400
p319
aVMETRON-1399
p320
aVMETRON-1398
p321
aVMETRON-1397
p322
aVMETRON-1396
p323
aVMETRON-1395
p324
aVMETRON-1394
p325
aVMETRON-1393
p326
aVMETRON-1392
p327
aVMETRON-1391
p328
aVMETRON-1390
p329
aVMETRON-1389
p330
aVMETRON-1388
p331
aVMETRON-1387
p332
aVMETRON-1386
p333
aVMETRON-1385
p334
aVMETRON-1384
p335
aVMETRON-1383
p336
aVMETRON-1382
p337
aVMETRON-1381
p338
aVMETRON-1380
p339
aVMETRON-1379
p340
aVMETRON-1378
p341
aVMETRON-1377
p342
aVMETRON-1376
p343
aVMETRON-1375
p344
aVMETRON-1374
p345
aVMETRON-1373
p346
aVMETRON-1372
p347
aVMETRON-1371
p348
aVMETRON-1370
p349
aVMETRON-1369
p350
aVMETRON-1368
p351
aVMETRON-1367
p352
aVMETRON-1366
p353
aVMETRON-1365
p354
aVMETRON-1364
p355
aVMETRON-1363
p356
aVMETRON-1362
p357
aVMETRON-1361
p358
aVMETRON-1360
p359
aVMETRON-1359
p360
aVMETRON-1358
p361
aVMETRON-1357
p362
aVMETRON-1356
p363
aVMETRON-1355
p364
aVMETRON-1354
p365
aVMETRON-1353
p366
aVMETRON-1352
p367
aVMETRON-1351
p368
aVMETRON-1350
p369
aVMETRON-1349
p370
aVMETRON-1348
p371
aVMETRON-1347
p372
aVMETRON-1346
p373
aVMETRON-1345
p374
aVMETRON-1344
p375
aVMETRON-1343
p376
aVMETRON-1342
p377
aVMETRON-1341
p378
aVMETRON-1340
p379
aVMETRON-1339
p380
aVMETRON-1338
p381
aVMETRON-1337
p382
aVMETRON-1336
p383
aVMETRON-1335
p384
aVMETRON-1334
p385
aVMETRON-1333
p386
aVMETRON-1332
p387
aVMETRON-1331
p388
aVMETRON-1330
p389
aVMETRON-1329
p390
aVMETRON-1328
p391
aVMETRON-1327
p392
aVMETRON-1326
p393
aVMETRON-1325
p394
aVMETRON-1324
p395
aVMETRON-1323
p396
aVMETRON-1322
p397
aVMETRON-1321
p398
aVMETRON-1320
p399
aVMETRON-1319
p400
aVMETRON-1318
p401
aVMETRON-1317
p402
aVMETRON-1316
p403
aVMETRON-1315
p404
aVMETRON-1314
p405
aVMETRON-1313
p406
aVMETRON-1312
p407
aVMETRON-1311
p408
aVMETRON-1310
p409
aVMETRON-1309
p410
aVMETRON-1308
p411
aVMETRON-1307
p412
aVMETRON-1306
p413
aVMETRON-1305
p414
aVMETRON-1304
p415
aVMETRON-1303
p416
aVMETRON-1302
p417
aVMETRON-1301
p418
aVMETRON-1300
p419
aVMETRON-1299
p420
aVMETRON-1298
p421
aVMETRON-1297
p422
aVMETRON-1296
p423
aVMETRON-1295
p424
aVMETRON-1294
p425
aVMETRON-1293
p426
aVMETRON-1292
p427
aVMETRON-1291
p428
aVMETRON-1290
p429
aVMETRON-1289
p430
aVMETRON-1288
p431
aVMETRON-1287
p432
aVMETRON-1286
p433
aVMETRON-1285
p434
aVMETRON-1284
p435
aVMETRON-1283
p436
aVMETRON-1282
p437
aVMETRON-1281
p438
aVMETRON-1280
p439
aVMETRON-1279
p440
aVMETRON-1278
p441
aVMETRON-1277
p442
aVMETRON-1276
p443
aVMETRON-1275
p444
aVMETRON-1274
p445
aVMETRON-1273
p446
aVMETRON-1272
p447
aVMETRON-1271
p448
aVMETRON-1270
p449
aVMETRON-1269
p450
aVMETRON-1268
p451
aVMETRON-1267
p452
aVMETRON-1266
p453
aVMETRON-1265
p454
aVMETRON-1264
p455
aVMETRON-1263
p456
aVMETRON-1262
p457
aVMETRON-1261
p458
aVMETRON-1260
p459
aVMETRON-1259
p460
aVMETRON-1258
p461
aVMETRON-1257
p462
aVMETRON-1256
p463
aVMETRON-1255
p464
aVMETRON-1254
p465
aVMETRON-1253
p466
aVMETRON-1252
p467
aVMETRON-1251
p468
aVMETRON-1250
p469
aVMETRON-1249
p470
aVMETRON-1248
p471
aVMETRON-1247
p472
aVMETRON-1246
p473
aVMETRON-1245
p474
aVMETRON-1244
p475
aVMETRON-1243
p476
aVMETRON-1242
p477
aVMETRON-1241
p478
aVMETRON-1240
p479
aVMETRON-1239
p480
aVMETRON-1238
p481
aVMETRON-1237
p482
aVMETRON-1236
p483
aVMETRON-1235
p484
aVMETRON-1234
p485
aVMETRON-1233
p486
aVMETRON-1232
p487
aVMETRON-1231
p488
aVMETRON-1230
p489
aVMETRON-1229
p490
aVMETRON-1228
p491
aVMETRON-1227
p492
aVMETRON-1226
p493
aVMETRON-1225
p494
aVMETRON-1224
p495
aVMETRON-1223
p496
aVMETRON-1222
p497
aVMETRON-1221
p498
aVMETRON-1220
p499
aVMETRON-1219
p500
aVMETRON-1218
p501
aVMETRON-1217
p502
aVMETRON-1216
p503
aVMETRON-1215
p504
aVMETRON-1214
p505
aVMETRON-1213
p506
aVMETRON-1212
p507
aVMETRON-1211
p508
aVMETRON-1210
p509
aVMETRON-1209
p510
aVMETRON-1208
p511
aVMETRON-1207
p512
aVMETRON-1206
p513
aVMETRON-1205
p514
aVMETRON-1204
p515
aVMETRON-1203
p516
aVMETRON-1202
p517
aVMETRON-1201
p518
aVMETRON-1200
p519
aVMETRON-1199
p520
aVMETRON-1198
p521
aVMETRON-1197
p522
aVMETRON-1196
p523
aVMETRON-1195
p524
aVMETRON-1194
p525
aVMETRON-1193
p526
aVMETRON-1192
p527
aVMETRON-1191
p528
aVMETRON-1190
p529
aVMETRON-1189
p530
aVMETRON-1188
p531
aVMETRON-1187
p532
aVMETRON-1186
p533
aVMETRON-1185
p534
aVMETRON-1184
p535
aVMETRON-1183
p536
aVMETRON-1182
p537
aVMETRON-1181
p538
aVMETRON-1180
p539
aVMETRON-1179
p540
aVMETRON-1178
p541
aVMETRON-1177
p542
aVMETRON-1176
p543
aVMETRON-1175
p544
aVMETRON-1174
p545
aVMETRON-1173
p546
aVMETRON-1172
p547
aVMETRON-1171
p548
aVMETRON-1170
p549
aVMETRON-1169
p550
aVMETRON-1168
p551
aVMETRON-1167
p552
aVMETRON-1166
p553
aVMETRON-1165
p554
aVMETRON-1164
p555
aVMETRON-1163
p556
aVMETRON-1162
p557
aVMETRON-1161
p558
aVMETRON-1160
p559
aVMETRON-1159
p560
aVMETRON-1158
p561
aVMETRON-1157
p562
aVMETRON-1156
p563
aVMETRON-1155
p564
aVMETRON-1154
p565
aVMETRON-1153
p566
aVMETRON-1152
p567
aVMETRON-1151
p568
aVMETRON-1150
p569
aVMETRON-1149
p570
aVMETRON-1148
p571
aVMETRON-1147
p572
aVMETRON-1146
p573
aVMETRON-1145
p574
aVMETRON-1144
p575
aVMETRON-1143
p576
aVMETRON-1142
p577
aVMETRON-1141
p578
aVMETRON-1140
p579
aVMETRON-1139
p580
aVMETRON-1138
p581
aVMETRON-1137
p582
aVMETRON-1136
p583
aVMETRON-1135
p584
aVMETRON-1134
p585
aVMETRON-1133
p586
aVMETRON-1132
p587
aVMETRON-1131
p588
aVMETRON-1130
p589
aVMETRON-1129
p590
aVMETRON-1128
p591
aVMETRON-1127
p592
aVMETRON-1126
p593
aVMETRON-1125
p594
aVMETRON-1124
p595
aVMETRON-1123
p596
aVMETRON-1122
p597
aVMETRON-1121
p598
aVMETRON-1120
p599
aVMETRON-1119
p600
aVMETRON-1118
p601
aVMETRON-1117
p602
aVMETRON-1116
p603
aVMETRON-1115
p604
aVMETRON-1114
p605
aVMETRON-1113
p606
aVMETRON-1112
p607
aVMETRON-1111
p608
aVMETRON-1110
p609
aVMETRON-1109
p610
aVMETRON-1108
p611
aVMETRON-1107
p612
aVMETRON-1106
p613
aVMETRON-1105
p614
aVMETRON-1104
p615
aVMETRON-1103
p616
aVMETRON-1102
p617
aVMETRON-1101
p618
aVMETRON-1100
p619
aVMETRON-1099
p620
aVMETRON-1098
p621
aVMETRON-1097
p622
aVMETRON-1096
p623
aVMETRON-1095
p624
aVMETRON-1094
p625
aVMETRON-1093
p626
aVMETRON-1092
p627
aVMETRON-1091
p628
aVMETRON-1090
p629
aVMETRON-1089
p630
aVMETRON-1088
p631
aVMETRON-1087
p632
aVMETRON-1086
p633
aVMETRON-1085
p634
aVMETRON-1084
p635
aVMETRON-1083
p636
aVMETRON-1082
p637
aVMETRON-1081
p638
aVMETRON-1080
p639
aVMETRON-1079
p640
aVMETRON-1078
p641
aVMETRON-1077
p642
aVMETRON-1076
p643
aVMETRON-1075
p644
aVMETRON-1074
p645
aVMETRON-1073
p646
aVMETRON-1072
p647
aVMETRON-1071
p648
aVMETRON-1070
p649
aVMETRON-1069
p650
aVMETRON-1068
p651
aVMETRON-1067
p652
aVMETRON-1066
p653
aVMETRON-1065
p654
aVMETRON-1064
p655
aVMETRON-1063
p656
aVMETRON-1062
p657
aVMETRON-1061
p658
aVMETRON-1060
p659
aVMETRON-1059
p660
aVMETRON-1058
p661
aVMETRON-1057
p662
aVMETRON-1056
p663
aVMETRON-1055
p664
aVMETRON-1054
p665
aVMETRON-1053
p666
aVMETRON-1052
p667
aVMETRON-1051
p668
aVMETRON-1050
p669
aVMETRON-1049
p670
aVMETRON-1048
p671
aVMETRON-1047
p672
aVMETRON-1046
p673
aVMETRON-1045
p674
aVMETRON-1044
p675
aVMETRON-1043
p676
aVMETRON-1042
p677
aVMETRON-1041
p678
aVMETRON-1040
p679
aVMETRON-1039
p680
aVMETRON-1038
p681
aVMETRON-1037
p682
aVMETRON-1036
p683
aVMETRON-1035
p684
aVMETRON-1034
p685
aVMETRON-1033
p686
aVMETRON-1032
p687
aVMETRON-1031
p688
aVMETRON-1030
p689
aVMETRON-1029
p690
aVMETRON-1028
p691
aVMETRON-1027
p692
aVMETRON-1026
p693
aVMETRON-1025
p694
aVMETRON-1024
p695
aVMETRON-1023
p696
aVMETRON-1022
p697
aVMETRON-1021
p698
aVMETRON-1020
p699
aVMETRON-1019
p700
aVMETRON-1018
p701
aVMETRON-1017
p702
aVMETRON-1016
p703
aVMETRON-1015
p704
aVMETRON-1014
p705
aVMETRON-1013
p706
aVMETRON-1012
p707
aVMETRON-1011
p708
aVMETRON-1010
p709
aVMETRON-1009
p710
aVMETRON-1008
p711
aVMETRON-1007
p712
aVMETRON-1006
p713
aVMETRON-1005
p714
aVMETRON-1004
p715
aVMETRON-1003
p716
aVMETRON-1002
p717
aVMETRON-1001
p718
aVMETRON-1000
p719
aVMETRON-999
p720
aVMETRON-998
p721
aVMETRON-997
p722
aVMETRON-996
p723
aVMETRON-995
p724
aVMETRON-994
p725
aVMETRON-993
p726
aVMETRON-992
p727
aVMETRON-991
p728
aVMETRON-990
p729
aVMETRON-989
p730
aVMETRON-988
p731
aVMETRON-987
p732
aVMETRON-986
p733
aVMETRON-985
p734
aVMETRON-984
p735
aVMETRON-983
p736
aVMETRON-982
p737
aVMETRON-981
p738
aVMETRON-980
p739
aVMETRON-979
p740
aVMETRON-978
p741
aVMETRON-977
p742
aVMETRON-976
p743
aVMETRON-975
p744
aVMETRON-974
p745
aVMETRON-973
p746
aVMETRON-971
p747
aVMETRON-970
p748
aVMETRON-969
p749
aVMETRON-968
p750
aVMETRON-967
p751
aVMETRON-966
p752
aVMETRON-965
p753
aVMETRON-964
p754
aVMETRON-963
p755
aVMETRON-962
p756
aVMETRON-961
p757
aVMETRON-960
p758
aVMETRON-959
p759
aVMETRON-958
p760
aVMETRON-957
p761
aVMETRON-956
p762
aVMETRON-955
p763
aVMETRON-954
p764
aVMETRON-953
p765
aVMETRON-952
p766
aVMETRON-951
p767
aVMETRON-950
p768
aVMETRON-949
p769
aVMETRON-948
p770
aVMETRON-947
p771
aVMETRON-946
p772
aVMETRON-945
p773
aVMETRON-944
p774
aVMETRON-943
p775
aVMETRON-942
p776
aVMETRON-941
p777
aVMETRON-940
p778
aVMETRON-939
p779
aVMETRON-938
p780
aVMETRON-937
p781
aVMETRON-936
p782
aVMETRON-935
p783
aVMETRON-934
p784
aVMETRON-933
p785
aVMETRON-932
p786
aVMETRON-931
p787
aVMETRON-930
p788
aVMETRON-929
p789
aVMETRON-928
p790
aVMETRON-927
p791
aVMETRON-926
p792
aVMETRON-925
p793
aVMETRON-924
p794
aVMETRON-923
p795
aVMETRON-922
p796
aVMETRON-921
p797
aVMETRON-920
p798
aVMETRON-919
p799
aVMETRON-918
p800
aVMETRON-917
p801
aVMETRON-916
p802
aVMETRON-915
p803
aVMETRON-914
p804
aVMETRON-913
p805
aVMETRON-912
p806
aVMETRON-911
p807
aVMETRON-910
p808
aVMETRON-909
p809
aVMETRON-908
p810
aVMETRON-907
p811
aVMETRON-906
p812
aVMETRON-905
p813
aVMETRON-904
p814
aVMETRON-903
p815
aVMETRON-902
p816
aVMETRON-901
p817
aVMETRON-900
p818
aVMETRON-899
p819
aVMETRON-898
p820
aVMETRON-897
p821
aVMETRON-896
p822
aVMETRON-895
p823
aVMETRON-894
p824
aVMETRON-893
p825
aVMETRON-892
p826
aVMETRON-891
p827
aVMETRON-890
p828
aVMETRON-889
p829
aVMETRON-888
p830
aVMETRON-887
p831
aVMETRON-886
p832
aVMETRON-885
p833
aVMETRON-884
p834
aVMETRON-883
p835
aVMETRON-882
p836
aVMETRON-881
p837
aVMETRON-880
p838
aVMETRON-879
p839
aVMETRON-878
p840
aVMETRON-877
p841
aVMETRON-876
p842
aVMETRON-875
p843
aVMETRON-874
p844
aVMETRON-873
p845
aVMETRON-872
p846
aVMETRON-871
p847
aVMETRON-870
p848
aVMETRON-869
p849
aVMETRON-868
p850
aVMETRON-867
p851
aVMETRON-866
p852
aVMETRON-865
p853
aVMETRON-864
p854
aVMETRON-863
p855
aVMETRON-862
p856
aVMETRON-861
p857
aVMETRON-860
p858
aVMETRON-859
p859
aVMETRON-858
p860
aVMETRON-857
p861
aVMETRON-856
p862
aVMETRON-855
p863
aVMETRON-854
p864
aVMETRON-853
p865
aVMETRON-852
p866
aVMETRON-851
p867
aVMETRON-850
p868
aVMETRON-849
p869
aVMETRON-848
p870
aVMETRON-847
p871
aVMETRON-846
p872
aVMETRON-845
p873
aVMETRON-844
p874
aVMETRON-843
p875
aVMETRON-842
p876
aVMETRON-840
p877
aVMETRON-839
p878
aVMETRON-838
p879
aVMETRON-837
p880
aVMETRON-836
p881
aVMETRON-835
p882
aVMETRON-834
p883
aVMETRON-833
p884
aVMETRON-832
p885
aVMETRON-831
p886
aVMETRON-830
p887
aVMETRON-829
p888
aVMETRON-828
p889
aVMETRON-827
p890
aVMETRON-826
p891
aVMETRON-825
p892
aVMETRON-824
p893
aVMETRON-823
p894
aVMETRON-822
p895
aVMETRON-821
p896
aVMETRON-820
p897
aVMETRON-819
p898
aVMETRON-818
p899
aVMETRON-817
p900
aVMETRON-816
p901
aVMETRON-815
p902
aVMETRON-814
p903
aVMETRON-813
p904
aVMETRON-812
p905
aVMETRON-811
p906
aVMETRON-810
p907
aVMETRON-809
p908
aVMETRON-808
p909
aVMETRON-807
p910
aVMETRON-806
p911
aVMETRON-805
p912
aVMETRON-804
p913
aVMETRON-803
p914
aVMETRON-802
p915
aVMETRON-801
p916
aVMETRON-800
p917
aVMETRON-799
p918
aVMETRON-798
p919
aVMETRON-797
p920
aVMETRON-796
p921
aVMETRON-795
p922
aVMETRON-794
p923
aVMETRON-793
p924
aVMETRON-792
p925
aVMETRON-791
p926
aVMETRON-790
p927
aVMETRON-789
p928
aVMETRON-788
p929
aVMETRON-787
p930
aVMETRON-786
p931
aVMETRON-785
p932
aVMETRON-784
p933
aVMETRON-783
p934
aVMETRON-782
p935
aVMETRON-781
p936
aVMETRON-780
p937
aVMETRON-779
p938
aVMETRON-778
p939
aVMETRON-777
p940
aVMETRON-776
p941
aVMETRON-775
p942
aVMETRON-774
p943
aVMETRON-773
p944
aVMETRON-772
p945
aVMETRON-771
p946
aVMETRON-770
p947
aVMETRON-769
p948
aVMETRON-768
p949
aVMETRON-767
p950
aVMETRON-766
p951
aVMETRON-765
p952
aVMETRON-764
p953
aVMETRON-763
p954
aVMETRON-762
p955
aVMETRON-761
p956
aVMETRON-760
p957
aVMETRON-759
p958
aVMETRON-758
p959
aVMETRON-757
p960
aVMETRON-756
p961
aVMETRON-755
p962
aVMETRON-754
p963
aVMETRON-753
p964
aVMETRON-752
p965
aVMETRON-751
p966
aVMETRON-750
p967
aVMETRON-749
p968
aVMETRON-748
p969
aVMETRON-747
p970
aVMETRON-746
p971
aVMETRON-745
p972
aVMETRON-744
p973
aVMETRON-743
p974
aVMETRON-742
p975
aVMETRON-741
p976
aVMETRON-740
p977
aVMETRON-739
p978
aVMETRON-738
p979
aVMETRON-737
p980
aVMETRON-735
p981
aVMETRON-734
p982
aVMETRON-733
p983
aVMETRON-732
p984
aVMETRON-731
p985
aVMETRON-730
p986
aVMETRON-729
p987
aVMETRON-728
p988
aVMETRON-727
p989
aVMETRON-726
p990
aVMETRON-725
p991
aVMETRON-724
p992
aVMETRON-723
p993
aVMETRON-722
p994
aVMETRON-721
p995
aVMETRON-720
p996
aVMETRON-719
p997
aVMETRON-718
p998
aVMETRON-717
p999
aVMETRON-716
p1000
aVMETRON-715
p1001
aVMETRON-714
p1002
aVMETRON-713
p1003
aVMETRON-712
p1004
aVMETRON-711
p1005
aVMETRON-710
p1006
aVMETRON-709
p1007
aVMETRON-708
p1008
aVMETRON-707
p1009
aVMETRON-706
p1010
aVMETRON-705
p1011
aVMETRON-704
p1012
aVMETRON-703
p1013
aVMETRON-702
p1014
aVMETRON-701
p1015
aVMETRON-700
p1016
aVMETRON-699
p1017
aVMETRON-698
p1018
aVMETRON-697
p1019
aVMETRON-696
p1020
aVMETRON-695
p1021
aVMETRON-694
p1022
aVMETRON-693
p1023
aVMETRON-692
p1024
aVMETRON-691
p1025
aVMETRON-690
p1026
aVMETRON-689
p1027
aVMETRON-688
p1028
aVMETRON-687
p1029
aVMETRON-686
p1030
aVMETRON-685
p1031
aVMETRON-684
p1032
aVMETRON-683
p1033
aVMETRON-682
p1034
aVMETRON-681
p1035
aVMETRON-680
p1036
aVMETRON-679
p1037
aVMETRON-678
p1038
aVMETRON-677
p1039
aVMETRON-676
p1040
aVMETRON-675
p1041
aVMETRON-674
p1042
aVMETRON-673
p1043
aVMETRON-672
p1044
aVMETRON-671
p1045
aVMETRON-670
p1046
aVMETRON-669
p1047
aVMETRON-668
p1048
aVMETRON-667
p1049
aVMETRON-666
p1050
aVMETRON-665
p1051
aVMETRON-664
p1052
aVMETRON-663
p1053
aVMETRON-662
p1054
aVMETRON-661
p1055
aVMETRON-660
p1056
aVMETRON-659
p1057
aVMETRON-658
p1058
aVMETRON-657
p1059
aVMETRON-656
p1060
aVMETRON-655
p1061
aVMETRON-654
p1062
aVMETRON-653
p1063
aVMETRON-652
p1064
aVMETRON-651
p1065
aVMETRON-650
p1066
aVMETRON-649
p1067
aVMETRON-648
p1068
aVMETRON-647
p1069
aVMETRON-646
p1070
aVMETRON-645
p1071
aVMETRON-644
p1072
aVMETRON-643
p1073
aVMETRON-642
p1074
aVMETRON-641
p1075
aVMETRON-640
p1076
aVMETRON-639
p1077
aVMETRON-638
p1078
aVMETRON-637
p1079
aVMETRON-636
p1080
aVMETRON-635
p1081
aVMETRON-634
p1082
aVMETRON-633
p1083
aVMETRON-632
p1084
aVMETRON-631
p1085
aVMETRON-630
p1086
aVMETRON-629
p1087
aVMETRON-628
p1088
aVMETRON-627
p1089
aVMETRON-626
p1090
aVMETRON-625
p1091
aVMETRON-624
p1092
aVMETRON-623
p1093
aVMETRON-622
p1094
aVMETRON-621
p1095
aVMETRON-620
p1096
aVMETRON-619
p1097
aVMETRON-618
p1098
aVMETRON-617
p1099
aVMETRON-616
p1100
aVMETRON-615
p1101
aVMETRON-614
p1102
aVMETRON-613
p1103
aVMETRON-612
p1104
aVMETRON-611
p1105
aVMETRON-610
p1106
aVMETRON-609
p1107
aVMETRON-608
p1108
aVMETRON-607
p1109
aVMETRON-606
p1110
aVMETRON-605
p1111
aVMETRON-604
p1112
aVMETRON-603
p1113
aVMETRON-602
p1114
aVMETRON-601
p1115
aVMETRON-600
p1116
aVMETRON-599
p1117
aVMETRON-598
p1118
aVMETRON-597
p1119
aVMETRON-596
p1120
aVMETRON-595
p1121
aVMETRON-594
p1122
aVMETRON-593
p1123
aVMETRON-592
p1124
aVMETRON-591
p1125
aVMETRON-590
p1126
aVMETRON-589
p1127
aVMETRON-588
p1128
aVMETRON-587
p1129
aVMETRON-586
p1130
aVMETRON-585
p1131
aVMETRON-584
p1132
aVMETRON-583
p1133
aVMETRON-582
p1134
aVMETRON-581
p1135
aVMETRON-580
p1136
aVMETRON-579
p1137
aVMETRON-578
p1138
aVMETRON-577
p1139
aVMETRON-576
p1140
aVMETRON-575
p1141
aVMETRON-574
p1142
aVMETRON-573
p1143
aVMETRON-572
p1144
aVMETRON-571
p1145
aVMETRON-570
p1146
aVMETRON-569
p1147
aVMETRON-568
p1148
aVMETRON-567
p1149
aVMETRON-566
p1150
aVMETRON-565
p1151
aVMETRON-564
p1152
aVMETRON-563
p1153
aVMETRON-562
p1154
aVMETRON-561
p1155
aVMETRON-560
p1156
aVMETRON-559
p1157
aVMETRON-558
p1158
aVMETRON-557
p1159
aVMETRON-556
p1160
aVMETRON-555
p1161
aVMETRON-554
p1162
aVMETRON-553
p1163
aVMETRON-552
p1164
aVMETRON-551
p1165
aVMETRON-550
p1166
aVMETRON-549
p1167
aVMETRON-548
p1168
aVMETRON-547
p1169
aVMETRON-546
p1170
aVMETRON-545
p1171
aVMETRON-544
p1172
aVMETRON-543
p1173
aVMETRON-542
p1174
aVMETRON-541
p1175
aVMETRON-540
p1176
aVMETRON-539
p1177
aVMETRON-538
p1178
aVMETRON-537
p1179
aVMETRON-536
p1180
aVMETRON-535
p1181
aVMETRON-534
p1182
aVMETRON-533
p1183
aVMETRON-532
p1184
aVMETRON-531
p1185
aVMETRON-530
p1186
aVMETRON-529
p1187
aVMETRON-528
p1188
aVMETRON-527
p1189
aVMETRON-526
p1190
aVMETRON-525
p1191
aVMETRON-524
p1192
aVMETRON-523
p1193
aVMETRON-522
p1194
aVMETRON-521
p1195
aVMETRON-520
p1196
aVMETRON-519
p1197
aVMETRON-518
p1198
aVMETRON-517
p1199
aVMETRON-516
p1200
aVMETRON-515
p1201
aVMETRON-514
p1202
aVMETRON-513
p1203
aVMETRON-512
p1204
aVMETRON-511
p1205
aVMETRON-510
p1206
aVMETRON-509
p1207
aVMETRON-508
p1208
aVMETRON-507
p1209
aVMETRON-506
p1210
aVMETRON-505
p1211
aVMETRON-504
p1212
aVMETRON-503
p1213
aVMETRON-502
p1214
aVMETRON-501
p1215
aVMETRON-500
p1216
aVMETRON-499
p1217
aVMETRON-498
p1218
aVMETRON-497
p1219
aVMETRON-496
p1220
aVMETRON-495
p1221
aVMETRON-494
p1222
aVMETRON-493
p1223
aVMETRON-492
p1224
aVMETRON-491
p1225
aVMETRON-490
p1226
aVMETRON-489
p1227
aVMETRON-488
p1228
aVMETRON-487
p1229
aVMETRON-486
p1230
aVMETRON-485
p1231
aVMETRON-484
p1232
aVMETRON-483
p1233
aVMETRON-482
p1234
aVMETRON-481
p1235
aVMETRON-480
p1236
aVMETRON-479
p1237
aVMETRON-478
p1238
aVMETRON-477
p1239
aVMETRON-476
p1240
aVMETRON-475
p1241
aVMETRON-474
p1242
aVMETRON-473
p1243
aVMETRON-472
p1244
aVMETRON-471
p1245
aVMETRON-470
p1246
aVMETRON-469
p1247
aVMETRON-468
p1248
aVMETRON-467
p1249
aVMETRON-466
p1250
aVMETRON-465
p1251
aVMETRON-464
p1252
aVMETRON-463
p1253
aVMETRON-462
p1254
aVMETRON-461
p1255
aVMETRON-460
p1256
aVMETRON-459
p1257
aVMETRON-458
p1258
aVMETRON-457
p1259
aVMETRON-456
p1260
aVMETRON-455
p1261
aVMETRON-454
p1262
aVMETRON-453
p1263
aVMETRON-452
p1264
aVMETRON-451
p1265
aVMETRON-450
p1266
aVMETRON-449
p1267
aVMETRON-448
p1268
aVMETRON-447
p1269
aVMETRON-446
p1270
aVMETRON-445
p1271
aVMETRON-444
p1272
aVMETRON-443
p1273
aVMETRON-442
p1274
aVMETRON-441
p1275
aVMETRON-440
p1276
aVMETRON-439
p1277
aVMETRON-438
p1278
aVMETRON-437
p1279
aVMETRON-436
p1280
aVMETRON-435
p1281
aVMETRON-434
p1282
aVMETRON-433
p1283
aVMETRON-432
p1284
aVMETRON-431
p1285
aVMETRON-430
p1286
aVMETRON-429
p1287
aVMETRON-428
p1288
aVMETRON-427
p1289
aVMETRON-426
p1290
aVMETRON-425
p1291
aVMETRON-424
p1292
aVMETRON-423
p1293
aVMETRON-422
p1294
aVMETRON-421
p1295
aVMETRON-420
p1296
aVMETRON-419
p1297
aVMETRON-418
p1298
aVMETRON-417
p1299
aVMETRON-416
p1300
aVMETRON-415
p1301
aVMETRON-414
p1302
aVMETRON-413
p1303
aVMETRON-412
p1304
aVMETRON-411
p1305
aVMETRON-410
p1306
aVMETRON-409
p1307
aVMETRON-408
p1308
aVMETRON-407
p1309
aVMETRON-406
p1310
aVMETRON-405
p1311
aVMETRON-404
p1312
aVMETRON-403
p1313
aVMETRON-402
p1314
aVMETRON-401
p1315
aVMETRON-400
p1316
aVMETRON-399
p1317
aVMETRON-398
p1318
aVMETRON-397
p1319
aVMETRON-396
p1320
aVMETRON-395
p1321
aVMETRON-394
p1322
aVMETRON-393
p1323
aVMETRON-392
p1324
aVMETRON-391
p1325
aVMETRON-390
p1326
aVMETRON-389
p1327
aVMETRON-388
p1328
aVMETRON-387
p1329
aVMETRON-386
p1330
aVMETRON-385
p1331
aVMETRON-384
p1332
aVMETRON-383
p1333
aVMETRON-382
p1334
aVMETRON-381
p1335
aVMETRON-379
p1336
aVMETRON-378
p1337
aVMETRON-377
p1338
aVMETRON-376
p1339
aVMETRON-375
p1340
aVMETRON-374
p1341
aVMETRON-373
p1342
aVMETRON-372
p1343
aVMETRON-371
p1344
aVMETRON-370
p1345
aVMETRON-369
p1346
aVMETRON-368
p1347
aVMETRON-367
p1348
aVMETRON-366
p1349
aVMETRON-365
p1350
aVMETRON-364
p1351
aVMETRON-363
p1352
aVMETRON-362
p1353
aVMETRON-361
p1354
aVMETRON-360
p1355
aVMETRON-359
p1356
aVMETRON-358
p1357
aVMETRON-357
p1358
aVMETRON-356
p1359
aVMETRON-355
p1360
aVMETRON-354
p1361
aVMETRON-353
p1362
aVMETRON-352
p1363
aVMETRON-351
p1364
aVMETRON-350
p1365
aVMETRON-349
p1366
aVMETRON-348
p1367
aVMETRON-347
p1368
aVMETRON-346
p1369
aVMETRON-345
p1370
aVMETRON-344
p1371
aVMETRON-343
p1372
aVMETRON-342
p1373
aVMETRON-341
p1374
aVMETRON-340
p1375
aVMETRON-339
p1376
aVMETRON-338
p1377
aVMETRON-337
p1378
aVMETRON-336
p1379
aVMETRON-335
p1380
aVMETRON-334
p1381
aVMETRON-333
p1382
aVMETRON-332
p1383
aVMETRON-331
p1384
aVMETRON-330
p1385
aVMETRON-329
p1386
aVMETRON-328
p1387
aVMETRON-327
p1388
aVMETRON-326
p1389
aVMETRON-325
p1390
aVMETRON-324
p1391
aVMETRON-323
p1392
aVMETRON-322
p1393
aVMETRON-321
p1394
aVMETRON-320
p1395
aVMETRON-319
p1396
aVMETRON-318
p1397
aVMETRON-317
p1398
aVMETRON-316
p1399
aVMETRON-315
p1400
aVMETRON-314
p1401
aVMETRON-313
p1402
aVMETRON-312
p1403
aVMETRON-311
p1404
aVMETRON-310
p1405
aVMETRON-309
p1406
aVMETRON-308
p1407
aVMETRON-307
p1408
aVMETRON-306
p1409
aVMETRON-305
p1410
aVMETRON-304
p1411
aVMETRON-303
p1412
aVMETRON-302
p1413
aVMETRON-301
p1414
aVMETRON-300
p1415
aVMETRON-299
p1416
aVMETRON-298
p1417
aVMETRON-297
p1418
aVMETRON-296
p1419
aVMETRON-295
p1420
aVMETRON-294
p1421
aVMETRON-293
p1422
aVMETRON-292
p1423
aVMETRON-291
p1424
aVMETRON-290
p1425
aVMETRON-289
p1426
aVMETRON-288
p1427
aVMETRON-287
p1428
aVMETRON-286
p1429
aVMETRON-285
p1430
aVMETRON-284
p1431
aVMETRON-283
p1432
aVMETRON-282
p1433
aVMETRON-281
p1434
aVMETRON-280
p1435
aVMETRON-279
p1436
aVMETRON-278
p1437
aVMETRON-277
p1438
aVMETRON-276
p1439
aVMETRON-275
p1440
aVMETRON-274
p1441
aVMETRON-273
p1442
aVMETRON-271
p1443
aVMETRON-270
p1444
aVMETRON-269
p1445
aVMETRON-268
p1446
aVMETRON-267
p1447
aVMETRON-266
p1448
aVMETRON-265
p1449
aVMETRON-264
p1450
aVMETRON-263
p1451
aVMETRON-262
p1452
aVMETRON-261
p1453
aVMETRON-260
p1454
aVMETRON-259
p1455
aVMETRON-258
p1456
aVMETRON-257
p1457
aVMETRON-256
p1458
aVMETRON-255
p1459
aVMETRON-254
p1460
aVMETRON-253
p1461
aVMETRON-252
p1462
aVMETRON-251
p1463
aVMETRON-250
p1464
aVMETRON-249
p1465
aVMETRON-248
p1466
aVMETRON-247
p1467
aVMETRON-246
p1468
aVMETRON-245
p1469
aVMETRON-244
p1470
aVMETRON-243
p1471
aVMETRON-242
p1472
aVMETRON-241
p1473
aVMETRON-240
p1474
aVMETRON-239
p1475
aVMETRON-238
p1476
aVMETRON-237
p1477
aVMETRON-236
p1478
aVMETRON-235
p1479
aVMETRON-234
p1480
aVMETRON-233
p1481
aVMETRON-232
p1482
aVMETRON-231
p1483
aVMETRON-230
p1484
aVMETRON-229
p1485
aVMETRON-228
p1486
aVMETRON-227
p1487
aVMETRON-226
p1488
aVMETRON-225
p1489
aVMETRON-224
p1490
aVMETRON-223
p1491
aVMETRON-222
p1492
aVMETRON-221
p1493
aVMETRON-220
p1494
aVMETRON-219
p1495
aVMETRON-218
p1496
aVMETRON-217
p1497
aVMETRON-216
p1498
aVMETRON-215
p1499
aVMETRON-214
p1500
aVMETRON-213
p1501
aVMETRON-212
p1502
aVMETRON-211
p1503
aVMETRON-210
p1504
aVMETRON-209
p1505
aVMETRON-208
p1506
aVMETRON-207
p1507
aVMETRON-206
p1508
aVMETRON-205
p1509
aVMETRON-204
p1510
aVMETRON-203
p1511
aVMETRON-202
p1512
aVMETRON-201
p1513
aVMETRON-200
p1514
aVMETRON-199
p1515
aVMETRON-197
p1516
aVMETRON-196
p1517
aVMETRON-195
p1518
aVMETRON-194
p1519
aVMETRON-193
p1520
aVMETRON-192
p1521
aVMETRON-191
p1522
aVMETRON-190
p1523
aVMETRON-189
p1524
aVMETRON-188
p1525
aVMETRON-187
p1526
aVMETRON-186
p1527
aVMETRON-185
p1528
aVMETRON-184
p1529
aVMETRON-183
p1530
aVMETRON-182
p1531
aVMETRON-181
p1532
aVMETRON-180
p1533
aVMETRON-179
p1534
aVMETRON-178
p1535
aVMETRON-177
p1536
aVMETRON-176
p1537
aVMETRON-175
p1538
aVMETRON-174
p1539
aVMETRON-173
p1540
aVMETRON-172
p1541
aVMETRON-171
p1542
aVMETRON-170
p1543
aVMETRON-169
p1544
aVMETRON-168
p1545
aVMETRON-166
p1546
aVMETRON-165
p1547
aVMETRON-164
p1548
aVMETRON-163
p1549
aVMETRON-162
p1550
aVMETRON-161
p1551
aVMETRON-160
p1552
aVMETRON-159
p1553
aVMETRON-158
p1554
aVMETRON-157
p1555
aVMETRON-156
p1556
aVMETRON-155
p1557
aVMETRON-154
p1558
aVMETRON-153
p1559
aVMETRON-152
p1560
aVMETRON-151
p1561
aVMETRON-150
p1562
aVMETRON-149
p1563
aVMETRON-148
p1564
aVMETRON-147
p1565
aVMETRON-146
p1566
aVMETRON-145
p1567
aVMETRON-144
p1568
aVMETRON-143
p1569
aVMETRON-142
p1570
aVMETRON-141
p1571
aVMETRON-140
p1572
aVMETRON-139
p1573
aVMETRON-138
p1574
aVMETRON-137
p1575
aVMETRON-136
p1576
aVMETRON-135
p1577
aVMETRON-134
p1578
aVMETRON-133
p1579
aVMETRON-132
p1580
aVMETRON-131
p1581
aVMETRON-130
p1582
aVMETRON-129
p1583
aVMETRON-128
p1584
aVMETRON-127
p1585
aVMETRON-126
p1586
aVMETRON-125
p1587
aVMETRON-124
p1588
aVMETRON-123
p1589
aVMETRON-122
p1590
aVMETRON-121
p1591
aVMETRON-120
p1592
aVMETRON-119
p1593
aVMETRON-118
p1594
aVMETRON-117
p1595
aVMETRON-116
p1596
aVMETRON-115
p1597
aVMETRON-114
p1598
aVMETRON-113
p1599
aVMETRON-112
p1600
aVMETRON-111
p1601
aVMETRON-110
p1602
aVMETRON-109
p1603
aVMETRON-108
p1604
aVMETRON-107
p1605
aVMETRON-106
p1606
aVMETRON-105
p1607
aVMETRON-104
p1608
aVMETRON-103
p1609
aVMETRON-102
p1610
aVMETRON-101
p1611
aVMETRON-100
p1612
aVMETRON-99
p1613
aVMETRON-98
p1614
aVMETRON-97
p1615
aVMETRON-96
p1616
aVMETRON-95
p1617
aVMETRON-94
p1618
aVMETRON-93
p1619
aVMETRON-92
p1620
aVMETRON-91
p1621
aVMETRON-90
p1622
aVMETRON-89
p1623
aVMETRON-88
p1624
aVMETRON-87
p1625
aVMETRON-86
p1626
aVMETRON-85
p1627
aVMETRON-84
p1628
aVMETRON-83
p1629
aVMETRON-82
p1630
aVMETRON-81
p1631
aVMETRON-80
p1632
aVMETRON-79
p1633
aVMETRON-78
p1634
aVMETRON-77
p1635
aVMETRON-76
p1636
aVMETRON-75
p1637
aVMETRON-74
p1638
aVMETRON-73
p1639
aVMETRON-72
p1640
aVMETRON-71
p1641
aVMETRON-70
p1642
aVMETRON-69
p1643
aVMETRON-68
p1644
aVMETRON-67
p1645
aVMETRON-66
p1646
aVMETRON-65
p1647
aVMETRON-64
p1648
aVMETRON-63
p1649
aVMETRON-62
p1650
aVMETRON-61
p1651
aVMETRON-60
p1652
aVMETRON-59
p1653
aVMETRON-58
p1654
aVMETRON-57
p1655
aVMETRON-56
p1656
aVMETRON-55
p1657
aVMETRON-54
p1658
aVMETRON-53
p1659
aVMETRON-52
p1660
aVMETRON-51
p1661
aVMETRON-50
p1662
aVMETRON-49
p1663
aVMETRON-48
p1664
aVMETRON-47
p1665
aVMETRON-46
p1666
aVMETRON-45
p1667
aVMETRON-44
p1668
aVMETRON-43
p1669
aVMETRON-42
p1670
aVMETRON-41
p1671
aVMETRON-40
p1672
aVMETRON-39
p1673
aVMETRON-38
p1674
aVMETRON-37
p1675
aVMETRON-36
p1676
aVMETRON-35
p1677
aVMETRON-34
p1678
aVMETRON-33
p1679
aVMETRON-32
p1680
aVMETRON-31
p1681
aVMETRON-30
p1682
aVMETRON-29
p1683
aVMETRON-28
p1684
aVMETRON-27
p1685
aVMETRON-26
p1686
aVMETRON-25
p1687
aVMETRON-24
p1688
aVMETRON-23
p1689
aVMETRON-22
p1690
aVMETRON-21
p1691
aVMETRON-20
p1692
aVMETRON-19
p1693
aVMETRON-18
p1694
aVMETRON-17
p1695
aVMETRON-16
p1696
aVMETRON-15
p1697
aVMETRON-14
p1698
aVMETRON-13
p1699
aVMETRON-12
p1700
aVMETRON-11
p1701
aVMETRON-10
p1702
aVMETRON-9
p1703
aVMETRON-8
p1704
aVMETRON-7
p1705
aVMETRON-6
p1706
aVMETRON-5
p1707
aVMETRON-4
p1708
aVMETRON-3
p1709
aVMETRON-2
p1710
aVMETRON-1
p1711
a.