(lp0
VMGPG-65
p1
aVMGPG-64
p2
aVMGPG-63
p3
aVMGPG-62
p4
aVMGPG-61
p5
aVMGPG-60
p6
aVMGPG-59
p7
aVMGPG-58
p8
aVMGPG-57
p9
aVMGPG-56
p10
aVMGPG-55
p11
aVMGPG-54
p12
aVMGPG-53
p13
aVMGPG-52
p14
aVMGPG-51
p15
aVMGPG-50
p16
aVMGPG-49
p17
aVMGPG-48
p18
aVMGPG-47
p19
aVMGPG-46
p20
aVMGPG-45
p21
aVMGPG-44
p22
aVMGPG-43
p23
aVMGPG-42
p24
aVMGPG-41
p25
aVMGPG-40
p26
aVMGPG-39
p27
aVMGPG-38
p28
aVMGPG-37
p29
aVMGPG-36
p30
aVMGPG-35
p31
aVMGPG-34
p32
aVMGPG-33
p33
aVMGPG-32
p34
aVMGPG-31
p35
aVMGPG-30
p36
aVMGPG-29
p37
aVMGPG-28
p38
aVMGPG-27
p39
aVMGPG-26
p40
aVMGPG-25
p41
aVMGPG-24
p42
aVMGPG-23
p43
aVMGPG-22
p44
aVMGPG-21
p45
aVMGPG-20
p46
aVMGPG-19
p47
aVMGPG-18
p48
aVMGPG-17
p49
aVMGPG-16
p50
aVMGPG-14
p51
aVMGPG-13
p52
aVMGPG-12
p53
aVMGPG-11
p54
aVMGPG-10
p55
aVMGPG-9
p56
aVMGPG-8
p57
aVMGPG-7
p58
aVMGPG-6
p59
aVMGPG-5
p60
aVMGPG-4
p61
aVMGPG-3
p62
aVMGPG-2
p63
aVMGPG-1
p64
a.