(lp0
VMIME4J-282
p1
aVMIME4J-281
p2
aVMIME4J-280
p3
aVMIME4J-279
p4
aVMIME4J-278
p5
aVMIME4J-277
p6
aVMIME4J-276
p7
aVMIME4J-275
p8
aVMIME4J-274
p9
aVMIME4J-273
p10
aVMIME4J-272
p11
aVMIME4J-271
p12
aVMIME4J-270
p13
aVMIME4J-269
p14
aVMIME4J-268
p15
aVMIME4J-267
p16
aVMIME4J-266
p17
aVMIME4J-265
p18
aVMIME4J-264
p19
aVMIME4J-263
p20
aVMIME4J-262
p21
aVMIME4J-261
p22
aVMIME4J-260
p23
aVMIME4J-259
p24
aVMIME4J-258
p25
aVMIME4J-257
p26
aVMIME4J-256
p27
aVMIME4J-255
p28
aVMIME4J-254
p29
aVMIME4J-253
p30
aVMIME4J-252
p31
aVMIME4J-251
p32
aVMIME4J-250
p33
aVMIME4J-249
p34
aVMIME4J-248
p35
aVMIME4J-247
p36
aVMIME4J-246
p37
aVMIME4J-245
p38
aVMIME4J-244
p39
aVMIME4J-243
p40
aVMIME4J-242
p41
aVMIME4J-241
p42
aVMIME4J-240
p43
aVMIME4J-239
p44
aVMIME4J-238
p45
aVMIME4J-237
p46
aVMIME4J-236
p47
aVMIME4J-235
p48
aVMIME4J-234
p49
aVMIME4J-233
p50
aVMIME4J-232
p51
aVMIME4J-231
p52
aVMIME4J-230
p53
aVMIME4J-229
p54
aVMIME4J-228
p55
aVMIME4J-227
p56
aVMIME4J-226
p57
aVMIME4J-225
p58
aVMIME4J-224
p59
aVMIME4J-223
p60
aVMIME4J-222
p61
aVMIME4J-221
p62
aVMIME4J-220
p63
aVMIME4J-219
p64
aVMIME4J-218
p65
aVMIME4J-217
p66
aVMIME4J-216
p67
aVMIME4J-215
p68
aVMIME4J-214
p69
aVMIME4J-213
p70
aVMIME4J-212
p71
aVMIME4J-211
p72
aVMIME4J-210
p73
aVMIME4J-209
p74
aVMIME4J-208
p75
aVMIME4J-207
p76
aVMIME4J-206
p77
aVMIME4J-205
p78
aVMIME4J-204
p79
aVMIME4J-203
p80
aVMIME4J-202
p81
aVMIME4J-201
p82
aVMIME4J-200
p83
aVMIME4J-199
p84
aVMIME4J-198
p85
aVMIME4J-197
p86
aVMIME4J-196
p87
aVMIME4J-195
p88
aVMIME4J-194
p89
aVMIME4J-193
p90
aVMIME4J-192
p91
aVMIME4J-191
p92
aVMIME4J-190
p93
aVMIME4J-189
p94
aVMIME4J-188
p95
aVMIME4J-187
p96
aVMIME4J-186
p97
aVMIME4J-185
p98
aVMIME4J-184
p99
aVMIME4J-183
p100
aVMIME4J-182
p101
aVMIME4J-181
p102
aVMIME4J-180
p103
aVMIME4J-179
p104
aVMIME4J-178
p105
aVMIME4J-177
p106
aVMIME4J-176
p107
aVMIME4J-175
p108
aVMIME4J-174
p109
aVMIME4J-173
p110
aVMIME4J-172
p111
aVMIME4J-171
p112
aVMIME4J-170
p113
aVMIME4J-169
p114
aVMIME4J-168
p115
aVMIME4J-167
p116
aVMIME4J-166
p117
aVMIME4J-165
p118
aVMIME4J-164
p119
aVMIME4J-163
p120
aVMIME4J-162
p121
aVMIME4J-161
p122
aVMIME4J-160
p123
aVMIME4J-159
p124
aVMIME4J-158
p125
aVMIME4J-157
p126
aVMIME4J-156
p127
aVMIME4J-155
p128
aVMIME4J-154
p129
aVMIME4J-153
p130
aVMIME4J-152
p131
aVMIME4J-151
p132
aVMIME4J-150
p133
aVMIME4J-149
p134
aVMIME4J-148
p135
aVMIME4J-147
p136
aVMIME4J-146
p137
aVMIME4J-145
p138
aVMIME4J-144
p139
aVMIME4J-143
p140
aVMIME4J-142
p141
aVMIME4J-141
p142
aVMIME4J-140
p143
aVMIME4J-139
p144
aVMIME4J-138
p145
aVMIME4J-137
p146
aVMIME4J-136
p147
aVMIME4J-135
p148
aVMIME4J-134
p149
aVMIME4J-133
p150
aVMIME4J-132
p151
aVMIME4J-131
p152
aVMIME4J-130
p153
aVMIME4J-129
p154
aVMIME4J-128
p155
aVMIME4J-127
p156
aVMIME4J-126
p157
aVMIME4J-125
p158
aVMIME4J-124
p159
aVMIME4J-123
p160
aVMIME4J-122
p161
aVMIME4J-121
p162
aVMIME4J-120
p163
aVMIME4J-119
p164
aVMIME4J-118
p165
aVMIME4J-117
p166
aVMIME4J-116
p167
aVMIME4J-115
p168
aVMIME4J-114
p169
aVMIME4J-113
p170
aVMIME4J-112
p171
aVMIME4J-111
p172
aVMIME4J-110
p173
aVMIME4J-109
p174
aVMIME4J-108
p175
aVMIME4J-107
p176
aVMIME4J-106
p177
aVMIME4J-105
p178
aVMIME4J-104
p179
aVMIME4J-103
p180
aVMIME4J-102
p181
aVMIME4J-101
p182
aVMIME4J-100
p183
aVMIME4J-99
p184
aVMIME4J-98
p185
aVMIME4J-97
p186
aVMIME4J-96
p187
aVMIME4J-95
p188
aVMIME4J-94
p189
aVMIME4J-93
p190
aVMIME4J-92
p191
aVMIME4J-91
p192
aVMIME4J-90
p193
aVMIME4J-89
p194
aVMIME4J-88
p195
aVMIME4J-87
p196
aVMIME4J-86
p197
aVMIME4J-85
p198
aVMIME4J-84
p199
aVMIME4J-83
p200
aVMIME4J-82
p201
aVMIME4J-81
p202
aVMIME4J-80
p203
aVMIME4J-79
p204
aVMIME4J-78
p205
aVMIME4J-77
p206
aVMIME4J-75
p207
aVMIME4J-74
p208
aVMIME4J-73
p209
aVMIME4J-72
p210
aVMIME4J-71
p211
aVMIME4J-70
p212
aVMIME4J-69
p213
aVMIME4J-68
p214
aVMIME4J-67
p215
aVMIME4J-66
p216
aVMIME4J-65
p217
aVMIME4J-64
p218
aVMIME4J-63
p219
aVMIME4J-62
p220
aVMIME4J-61
p221
aVMIME4J-60
p222
aVMIME4J-59
p223
aVMIME4J-58
p224
aVMIME4J-57
p225
aVMIME4J-56
p226
aVMIME4J-55
p227
aVMIME4J-54
p228
aVMIME4J-53
p229
aVMIME4J-52
p230
aVMIME4J-51
p231
aVMIME4J-50
p232
aVMIME4J-49
p233
aVMIME4J-48
p234
aVMIME4J-47
p235
aVMIME4J-46
p236
aVMIME4J-45
p237
aVMIME4J-44
p238
aVMIME4J-43
p239
aVMIME4J-42
p240
aVMIME4J-41
p241
aVMIME4J-40
p242
aVMIME4J-39
p243
aVMIME4J-38
p244
aVMIME4J-37
p245
aVMIME4J-36
p246
aVMIME4J-35
p247
aVMIME4J-34
p248
aVMIME4J-33
p249
aVMIME4J-32
p250
aVMIME4J-31
p251
aVMIME4J-30
p252
aVMIME4J-29
p253
aVMIME4J-28
p254
aVMIME4J-27
p255
aVMIME4J-26
p256
aVMIME4J-25
p257
aVMIME4J-24
p258
aVMIME4J-23
p259
aVMIME4J-22
p260
aVMIME4J-21
p261
aVMIME4J-20
p262
aVMIME4J-19
p263
aVMIME4J-18
p264
aVMIME4J-17
p265
aVMIME4J-16
p266
aVMIME4J-15
p267
aVMIME4J-14
p268
aVMIME4J-13
p269
aVMIME4J-12
p270
aVMIME4J-11
p271
aVMIME4J-10
p272
aVMIME4J-9
p273
aVMIME4J-8
p274
aVMIME4J-7
p275
aVMIME4J-6
p276
aVMIME4J-5
p277
aVMIME4J-4
p278
aVMIME4J-3
p279
aVMIME4J-2
p280
aVMIME4J-1
p281
a.