(lp0
VMINDEXER-112
p1
aVMINDEXER-111
p2
aVMINDEXER-110
p3
aVMINDEXER-109
p4
aVMINDEXER-108
p5
aVMINDEXER-107
p6
aVMINDEXER-106
p7
aVMINDEXER-105
p8
aVMINDEXER-104
p9
aVMINDEXER-103
p10
aVMINDEXER-102
p11
aVMINDEXER-101
p12
aVMINDEXER-100
p13
aVMINDEXER-99
p14
aVMINDEXER-97
p15
aVMINDEXER-96
p16
aVMINDEXER-95
p17
aVMINDEXER-94
p18
aVMINDEXER-93
p19
aVMINDEXER-92
p20
aVMINDEXER-91
p21
aVMINDEXER-90
p22
aVMINDEXER-89
p23
aVMINDEXER-88
p24
aVMINDEXER-87
p25
aVMINDEXER-86
p26
aVMINDEXER-85
p27
aVMINDEXER-84
p28
aVMINDEXER-83
p29
aVMINDEXER-82
p30
aVMINDEXER-81
p31
aVMINDEXER-80
p32
aVMINDEXER-79
p33
aVMINDEXER-78
p34
aVMINDEXER-77
p35
aVMINDEXER-76
p36
aVMINDEXER-75
p37
aVMINDEXER-74
p38
aVMINDEXER-73
p39
aVMINDEXER-72
p40
aVMINDEXER-71
p41
aVMINDEXER-70
p42
aVMINDEXER-69
p43
aVMINDEXER-68
p44
aVMINDEXER-67
p45
aVMINDEXER-66
p46
aVMINDEXER-65
p47
aVMINDEXER-64
p48
aVMINDEXER-63
p49
aVMINDEXER-62
p50
aVMINDEXER-61
p51
aVMINDEXER-60
p52
aVMINDEXER-59
p53
aVMINDEXER-58
p54
aVMINDEXER-57
p55
aVMINDEXER-56
p56
aVMINDEXER-55
p57
aVMINDEXER-54
p58
aVMINDEXER-53
p59
aVMINDEXER-52
p60
aVMINDEXER-51
p61
aVMINDEXER-50
p62
aVMINDEXER-49
p63
aVMINDEXER-48
p64
aVMINDEXER-47
p65
aVMINDEXER-46
p66
aVMINDEXER-45
p67
aVMINDEXER-44
p68
aVMINDEXER-43
p69
aVMINDEXER-42
p70
aVMINDEXER-41
p71
aVMINDEXER-40
p72
aVMINDEXER-39
p73
aVMINDEXER-38
p74
aVMINDEXER-37
p75
aVMINDEXER-36
p76
aVMINDEXER-35
p77
aVMINDEXER-34
p78
aVMINDEXER-33
p79
aVMINDEXER-32
p80
aVMINDEXER-31
p81
aVMINDEXER-30
p82
aVMINDEXER-29
p83
aVMINDEXER-28
p84
aVMINDEXER-27
p85
aVMINDEXER-26
p86
aVMINDEXER-25
p87
aVMINDEXER-24
p88
aVMINDEXER-23
p89
aVMINDEXER-22
p90
aVMINDEXER-21
p91
aVMINDEXER-20
p92
aVMINDEXER-19
p93
aVMINDEXER-18
p94
aVMINDEXER-17
p95
aVMINDEXER-16
p96
aVMINDEXER-15
p97
aVMINDEXER-14
p98
aVMINDEXER-13
p99
aVMINDEXER-12
p100
aVMINDEXER-11
p101
aVMINDEXER-10
p102
aVMINDEXER-9
p103
aVMINDEXER-8
p104
aVMINDEXER-7
p105
aVMINDEXER-6
p106
aVMINDEXER-5
p107
aVMINDEXER-4
p108
aVMINDEXER-3
p109
aVMINDEXER-2
p110
aVMINDEXER-1
p111
a.