(lp0
VMINSTALL-146
p1
aVMINSTALL-145
p2
aVMINSTALL-144
p3
aVMINSTALL-143
p4
aVMINSTALL-142
p5
aVMINSTALL-141
p6
aVMINSTALL-140
p7
aVMINSTALL-139
p8
aVMINSTALL-138
p9
aVMINSTALL-137
p10
aVMINSTALL-136
p11
aVMINSTALL-135
p12
aVMINSTALL-134
p13
aVMINSTALL-133
p14
aVMINSTALL-132
p15
aVMINSTALL-131
p16
aVMINSTALL-130
p17
aVMINSTALL-129
p18
aVMINSTALL-128
p19
aVMINSTALL-127
p20
aVMINSTALL-126
p21
aVMINSTALL-125
p22
aVMINSTALL-124
p23
aVMINSTALL-123
p24
aVMINSTALL-122
p25
aVMINSTALL-121
p26
aVMINSTALL-120
p27
aVMINSTALL-119
p28
aVMINSTALL-118
p29
aVMINSTALL-117
p30
aVMINSTALL-116
p31
aVMINSTALL-115
p32
aVMINSTALL-114
p33
aVMINSTALL-113
p34
aVMINSTALL-112
p35
aVMINSTALL-111
p36
aVMINSTALL-110
p37
aVMINSTALL-109
p38
aVMINSTALL-108
p39
aVMINSTALL-107
p40
aVMINSTALL-106
p41
aVMINSTALL-104
p42
aVMINSTALL-103
p43
aVMINSTALL-102
p44
aVMINSTALL-101
p45
aVMINSTALL-100
p46
aVMINSTALL-99
p47
aVMINSTALL-98
p48
aVMINSTALL-97
p49
aVMINSTALL-96
p50
aVMINSTALL-95
p51
aVMINSTALL-94
p52
aVMINSTALL-93
p53
aVMINSTALL-92
p54
aVMINSTALL-90
p55
aVMINSTALL-89
p56
aVMINSTALL-88
p57
aVMINSTALL-87
p58
aVMINSTALL-86
p59
aVMINSTALL-85
p60
aVMINSTALL-84
p61
aVMINSTALL-83
p62
aVMINSTALL-82
p63
aVMINSTALL-81
p64
aVMINSTALL-80
p65
aVMINSTALL-79
p66
aVMINSTALL-78
p67
aVMINSTALL-77
p68
aVMINSTALL-76
p69
aVMINSTALL-75
p70
aVMINSTALL-74
p71
aVMINSTALL-73
p72
aVMINSTALL-72
p73
aVMINSTALL-71
p74
aVMINSTALL-70
p75
aVMINSTALL-69
p76
aVMINSTALL-67
p77
aVMINSTALL-66
p78
aVMINSTALL-65
p79
aVMINSTALL-64
p80
aVMINSTALL-63
p81
aVMINSTALL-62
p82
aVMINSTALL-61
p83
aVMINSTALL-60
p84
aVMINSTALL-59
p85
aVMINSTALL-58
p86
aVMINSTALL-57
p87
aVMINSTALL-56
p88
aVMINSTALL-55
p89
aVMINSTALL-54
p90
aVMINSTALL-53
p91
aVMINSTALL-52
p92
aVMINSTALL-51
p93
aVMINSTALL-50
p94
aVMINSTALL-49
p95
aVMINSTALL-48
p96
aVMINSTALL-47
p97
aVMINSTALL-46
p98
aVMINSTALL-45
p99
aVMINSTALL-44
p100
aVMINSTALL-43
p101
aVMINSTALL-42
p102
aVMINSTALL-41
p103
aVMINSTALL-40
p104
aVMINSTALL-39
p105
aVMINSTALL-38
p106
aVMINSTALL-37
p107
aVMINSTALL-36
p108
aVMINSTALL-35
p109
aVMINSTALL-34
p110
aVMINSTALL-33
p111
aVMINSTALL-32
p112
aVMINSTALL-31
p113
aVMINSTALL-30
p114
aVMINSTALL-29
p115
aVMINSTALL-28
p116
aVMINSTALL-27
p117
aVMINSTALL-26
p118
aVMINSTALL-25
p119
aVMINSTALL-24
p120
aVMINSTALL-23
p121
aVMINSTALL-22
p122
aVMINSTALL-21
p123
aVMINSTALL-19
p124
aVMINSTALL-18
p125
aVMINSTALL-17
p126
aVMINSTALL-16
p127
aVMINSTALL-15
p128
aVMINSTALL-14
p129
aVMINSTALL-13
p130
aVMINSTALL-12
p131
aVMINSTALL-10
p132
aVMINSTALL-9
p133
aVMINSTALL-8
p134
aVMINSTALL-7
p135
aVMINSTALL-6
p136
aVMINSTALL-5
p137
aVMINSTALL-4
p138
aVMINSTALL-3
p139
aVMINSTALL-2
p140
aVMINSTALL-1
p141
a.