(lp0
VMINVOKER-241
p1
aVMINVOKER-240
p2
aVMINVOKER-239
p3
aVMINVOKER-238
p4
aVMINVOKER-237
p5
aVMINVOKER-236
p6
aVMINVOKER-235
p7
aVMINVOKER-234
p8
aVMINVOKER-233
p9
aVMINVOKER-232
p10
aVMINVOKER-231
p11
aVMINVOKER-229
p12
aVMINVOKER-228
p13
aVMINVOKER-227
p14
aVMINVOKER-226
p15
aVMINVOKER-225
p16
aVMINVOKER-224
p17
aVMINVOKER-223
p18
aVMINVOKER-222
p19
aVMINVOKER-221
p20
aVMINVOKER-220
p21
aVMINVOKER-219
p22
aVMINVOKER-218
p23
aVMINVOKER-217
p24
aVMINVOKER-216
p25
aVMINVOKER-215
p26
aVMINVOKER-214
p27
aVMINVOKER-213
p28
aVMINVOKER-212
p29
aVMINVOKER-211
p30
aVMINVOKER-210
p31
aVMINVOKER-209
p32
aVMINVOKER-208
p33
aVMINVOKER-207
p34
aVMINVOKER-206
p35
aVMINVOKER-205
p36
aVMINVOKER-204
p37
aVMINVOKER-203
p38
aVMINVOKER-202
p39
aVMINVOKER-201
p40
aVMINVOKER-200
p41
aVMINVOKER-199
p42
aVMINVOKER-198
p43
aVMINVOKER-197
p44
aVMINVOKER-196
p45
aVMINVOKER-195
p46
aVMINVOKER-194
p47
aVMINVOKER-193
p48
aVMINVOKER-192
p49
aVMINVOKER-191
p50
aVMINVOKER-190
p51
aVMINVOKER-189
p52
aVMINVOKER-188
p53
aVMINVOKER-187
p54
aVMINVOKER-186
p55
aVMINVOKER-185
p56
aVMINVOKER-184
p57
aVMINVOKER-183
p58
aVMINVOKER-182
p59
aVMINVOKER-181
p60
aVMINVOKER-180
p61
aVMINVOKER-179
p62
aVMINVOKER-178
p63
aVMINVOKER-177
p64
aVMINVOKER-176
p65
aVMINVOKER-175
p66
aVMINVOKER-174
p67
aVMINVOKER-173
p68
aVMINVOKER-172
p69
aVMINVOKER-171
p70
aVMINVOKER-170
p71
aVMINVOKER-169
p72
aVMINVOKER-168
p73
aVMINVOKER-167
p74
aVMINVOKER-166
p75
aVMINVOKER-165
p76
aVMINVOKER-164
p77
aVMINVOKER-163
p78
aVMINVOKER-162
p79
aVMINVOKER-161
p80
aVMINVOKER-160
p81
aVMINVOKER-159
p82
aVMINVOKER-158
p83
aVMINVOKER-157
p84
aVMINVOKER-156
p85
aVMINVOKER-155
p86
aVMINVOKER-154
p87
aVMINVOKER-153
p88
aVMINVOKER-152
p89
aVMINVOKER-151
p90
aVMINVOKER-150
p91
aVMINVOKER-149
p92
aVMINVOKER-148
p93
aVMINVOKER-147
p94
aVMINVOKER-146
p95
aVMINVOKER-145
p96
aVMINVOKER-144
p97
aVMINVOKER-143
p98
aVMINVOKER-142
p99
aVMINVOKER-141
p100
aVMINVOKER-140
p101
aVMINVOKER-139
p102
aVMINVOKER-138
p103
aVMINVOKER-137
p104
aVMINVOKER-136
p105
aVMINVOKER-135
p106
aVMINVOKER-134
p107
aVMINVOKER-133
p108
aVMINVOKER-132
p109
aVMINVOKER-131
p110
aVMINVOKER-130
p111
aVMINVOKER-129
p112
aVMINVOKER-128
p113
aVMINVOKER-127
p114
aVMINVOKER-126
p115
aVMINVOKER-125
p116
aVMINVOKER-124
p117
aVMINVOKER-123
p118
aVMINVOKER-122
p119
aVMINVOKER-121
p120
aVMINVOKER-120
p121
aVMINVOKER-119
p122
aVMINVOKER-118
p123
aVMINVOKER-117
p124
aVMINVOKER-116
p125
aVMINVOKER-115
p126
aVMINVOKER-114
p127
aVMINVOKER-113
p128
aVMINVOKER-112
p129
aVMINVOKER-111
p130
aVMINVOKER-110
p131
aVMINVOKER-109
p132
aVMINVOKER-108
p133
aVMINVOKER-107
p134
aVMINVOKER-106
p135
aVMINVOKER-105
p136
aVMINVOKER-104
p137
aVMINVOKER-103
p138
aVMINVOKER-102
p139
aVMINVOKER-101
p140
aVMINVOKER-100
p141
aVMINVOKER-98
p142
aVMINVOKER-97
p143
aVMINVOKER-96
p144
aVMINVOKER-95
p145
aVMINVOKER-94
p146
aVMINVOKER-93
p147
aVMINVOKER-92
p148
aVMINVOKER-91
p149
aVMINVOKER-88
p150
aVMINVOKER-87
p151
aVMINVOKER-86
p152
aVMINVOKER-85
p153
aVMINVOKER-84
p154
aVMINVOKER-83
p155
aVMINVOKER-82
p156
aVMINVOKER-81
p157
aVMINVOKER-80
p158
aVMINVOKER-79
p159
aVMINVOKER-78
p160
aVMINVOKER-77
p161
aVMINVOKER-76
p162
aVMINVOKER-75
p163
aVMINVOKER-74
p164
aVMINVOKER-73
p165
aVMINVOKER-72
p166
aVMINVOKER-71
p167
aVMINVOKER-70
p168
aVMINVOKER-69
p169
aVMINVOKER-68
p170
aVMINVOKER-67
p171
aVMINVOKER-66
p172
aVMINVOKER-65
p173
aVMINVOKER-64
p174
aVMINVOKER-63
p175
aVMINVOKER-62
p176
aVMINVOKER-61
p177
aVMINVOKER-60
p178
aVMINVOKER-59
p179
aVMINVOKER-58
p180
aVMINVOKER-57
p181
aVMINVOKER-56
p182
aVMINVOKER-55
p183
aVMINVOKER-53
p184
aVMINVOKER-52
p185
aVMINVOKER-51
p186
aVMINVOKER-50
p187
aVMINVOKER-49
p188
aVMINVOKER-48
p189
aVMINVOKER-47
p190
aVMINVOKER-46
p191
aVMINVOKER-45
p192
aVMINVOKER-44
p193
aVMINVOKER-43
p194
aVMINVOKER-42
p195
aVMINVOKER-41
p196
aVMINVOKER-40
p197
aVMINVOKER-39
p198
aVMINVOKER-38
p199
aVMINVOKER-37
p200
aVMINVOKER-36
p201
aVMINVOKER-35
p202
aVMINVOKER-34
p203
aVMINVOKER-33
p204
aVMINVOKER-32
p205
aVMINVOKER-31
p206
aVMINVOKER-30
p207
aVMINVOKER-29
p208
aVMINVOKER-28
p209
aVMINVOKER-27
p210
aVMINVOKER-26
p211
aVMINVOKER-25
p212
aVMINVOKER-24
p213
aVMINVOKER-23
p214
aVMINVOKER-22
p215
aVMINVOKER-21
p216
aVMINVOKER-20
p217
aVMINVOKER-19
p218
aVMINVOKER-18
p219
aVMINVOKER-17
p220
aVMINVOKER-16
p221
aVMINVOKER-15
p222
aVMINVOKER-14
p223
aVMINVOKER-13
p224
aVMINVOKER-12
p225
aVMINVOKER-11
p226
aVMINVOKER-10
p227
aVMINVOKER-9
p228
aVMINVOKER-8
p229
aVMINVOKER-7
p230
aVMINVOKER-6
p231
aVMINVOKER-5
p232
aVMINVOKER-4
p233
aVMINVOKER-3
p234
aVMINVOKER-2
p235
aVMINVOKER-1
p236
a.