(lp0
VMJAR-255
p1
aVMJAR-254
p2
aVMJAR-253
p3
aVMJAR-252
p4
aVMJAR-251
p5
aVMJAR-249
p6
aVMJAR-248
p7
aVMJAR-247
p8
aVMJAR-246
p9
aVMJAR-245
p10
aVMJAR-244
p11
aVMJAR-243
p12
aVMJAR-242
p13
aVMJAR-241
p14
aVMJAR-240
p15
aVMJAR-239
p16
aVMJAR-238
p17
aVMJAR-237
p18
aVMJAR-236
p19
aVMJAR-235
p20
aVMJAR-234
p21
aVMJAR-233
p22
aVMJAR-232
p23
aVMJAR-230
p24
aVMJAR-229
p25
aVMJAR-228
p26
aVMJAR-227
p27
aVMJAR-226
p28
aVMJAR-225
p29
aVMJAR-224
p30
aVMJAR-223
p31
aVMJAR-222
p32
aVMJAR-221
p33
aVMJAR-220
p34
aVMJAR-219
p35
aVMJAR-218
p36
aVMJAR-217
p37
aVMJAR-216
p38
aVMJAR-215
p39
aVMJAR-214
p40
aVMJAR-213
p41
aVMJAR-212
p42
aVMJAR-210
p43
aVMJAR-209
p44
aVMJAR-208
p45
aVMJAR-207
p46
aVMJAR-206
p47
aVMJAR-205
p48
aVMJAR-204
p49
aVMJAR-203
p50
aVMJAR-202
p51
aVMJAR-201
p52
aVMJAR-200
p53
aVMJAR-199
p54
aVMJAR-198
p55
aVMJAR-197
p56
aVMJAR-195
p57
aVMJAR-194
p58
aVMJAR-193
p59
aVMJAR-192
p60
aVMJAR-191
p61
aVMJAR-190
p62
aVMJAR-189
p63
aVMJAR-188
p64
aVMJAR-187
p65
aVMJAR-186
p66
aVMJAR-185
p67
aVMJAR-184
p68
aVMJAR-183
p69
aVMJAR-182
p70
aVMJAR-181
p71
aVMJAR-180
p72
aVMJAR-179
p73
aVMJAR-178
p74
aVMJAR-177
p75
aVMJAR-176
p76
aVMJAR-175
p77
aVMJAR-174
p78
aVMJAR-173
p79
aVMJAR-172
p80
aVMJAR-171
p81
aVMJAR-170
p82
aVMJAR-169
p83
aVMJAR-168
p84
aVMJAR-167
p85
aVMJAR-166
p86
aVMJAR-165
p87
aVMJAR-164
p88
aVMJAR-163
p89
aVMJAR-162
p90
aVMJAR-161
p91
aVMJAR-159
p92
aVMJAR-158
p93
aVMJAR-157
p94
aVMJAR-156
p95
aVMJAR-155
p96
aVMJAR-154
p97
aVMJAR-152
p98
aVMJAR-151
p99
aVMJAR-150
p100
aVMJAR-149
p101
aVMJAR-148
p102
aVMJAR-147
p103
aVMJAR-146
p104
aVMJAR-145
p105
aVMJAR-144
p106
aVMJAR-143
p107
aVMJAR-142
p108
aVMJAR-141
p109
aVMJAR-140
p110
aVMJAR-139
p111
aVMJAR-138
p112
aVMJAR-137
p113
aVMJAR-136
p114
aVMJAR-135
p115
aVMJAR-134
p116
aVMJAR-133
p117
aVMJAR-132
p118
aVMJAR-131
p119
aVMJAR-130
p120
aVMJAR-129
p121
aVMJAR-128
p122
aVMJAR-127
p123
aVMJAR-126
p124
aVMJAR-121
p125
aVMJAR-120
p126
aVMJAR-119
p127
aVMJAR-118
p128
aVMJAR-117
p129
aVMJAR-116
p130
aVMJAR-115
p131
aVMJAR-114
p132
aVMJAR-113
p133
aVMJAR-112
p134
aVMJAR-111
p135
aVMJAR-110
p136
aVMJAR-108
p137
aVMJAR-107
p138
aVMJAR-106
p139
aVMJAR-105
p140
aVMJAR-104
p141
aVMJAR-103
p142
aVMJAR-101
p143
aVMJAR-100
p144
aVMJAR-99
p145
aVMJAR-98
p146
aVMJAR-97
p147
aVMJAR-96
p148
aVMJAR-92
p149
aVMJAR-91
p150
aVMJAR-90
p151
aVMJAR-89
p152
aVMJAR-88
p153
aVMJAR-87
p154
aVMJAR-86
p155
aVMJAR-85
p156
aVMJAR-84
p157
aVMJAR-83
p158
aVMJAR-82
p159
aVMJAR-80
p160
aVMJAR-79
p161
aVMJAR-78
p162
aVMJAR-77
p163
aVMJAR-76
p164
aVMJAR-75
p165
aVMJAR-74
p166
aVMJAR-73
p167
aVMJAR-72
p168
aVMJAR-71
p169
aVMJAR-70
p170
aVMJAR-69
p171
aVMJAR-68
p172
aVMJAR-67
p173
aVMJAR-65
p174
aVMJAR-64
p175
aVMJAR-63
p176
aVMJAR-62
p177
aVMJAR-61
p178
aVMJAR-60
p179
aVMJAR-59
p180
aVMJAR-58
p181
aVMJAR-57
p182
aVMJAR-56
p183
aVMJAR-55
p184
aVMJAR-54
p185
aVMJAR-53
p186
aVMJAR-52
p187
aVMJAR-51
p188
aVMJAR-50
p189
aVMJAR-49
p190
aVMJAR-48
p191
aVMJAR-47
p192
aVMJAR-46
p193
aVMJAR-45
p194
aVMJAR-44
p195
aVMJAR-43
p196
aVMJAR-42
p197
aVMJAR-41
p198
aVMJAR-40
p199
aVMJAR-39
p200
aVMJAR-38
p201
aVMJAR-36
p202
aVMJAR-35
p203
aVMJAR-34
p204
aVMJAR-33
p205
aVMJAR-32
p206
aVMJAR-31
p207
aVMJAR-30
p208
aVMJAR-29
p209
aVMJAR-28
p210
aVMJAR-27
p211
aVMJAR-26
p212
aVMJAR-25
p213
aVMJAR-24
p214
aVMJAR-23
p215
aVMJAR-22
p216
aVMJAR-21
p217
aVMJAR-20
p218
aVMJAR-19
p219
aVMJAR-18
p220
aVMJAR-17
p221
aVMJAR-16
p222
aVMJAR-15
p223
aVMJAR-14
p224
aVMJAR-13
p225
aVMJAR-12
p226
aVMJAR-11
p227
aVMJAR-10
p228
aVMJAR-9
p229
aVMJAR-8
p230
aVMJAR-7
p231
aVMJAR-6
p232
aVMJAR-5
p233
aVMJAR-4
p234
aVMJAR-3
p235
aVMJAR-2
p236
aVMJAR-1
p237
a.