(lp0
VMJAVADOC-531
p1
aVMJAVADOC-530
p2
aVMJAVADOC-529
p3
aVMJAVADOC-528
p4
aVMJAVADOC-527
p5
aVMJAVADOC-526
p6
aVMJAVADOC-525
p7
aVMJAVADOC-524
p8
aVMJAVADOC-523
p9
aVMJAVADOC-522
p10
aVMJAVADOC-521
p11
aVMJAVADOC-520
p12
aVMJAVADOC-519
p13
aVMJAVADOC-518
p14
aVMJAVADOC-517
p15
aVMJAVADOC-516
p16
aVMJAVADOC-515
p17
aVMJAVADOC-514
p18
aVMJAVADOC-513
p19
aVMJAVADOC-512
p20
aVMJAVADOC-511
p21
aVMJAVADOC-510
p22
aVMJAVADOC-509
p23
aVMJAVADOC-508
p24
aVMJAVADOC-507
p25
aVMJAVADOC-506
p26
aVMJAVADOC-505
p27
aVMJAVADOC-504
p28
aVMJAVADOC-503
p29
aVMJAVADOC-502
p30
aVMJAVADOC-501
p31
aVMJAVADOC-500
p32
aVMJAVADOC-499
p33
aVMJAVADOC-498
p34
aVMJAVADOC-497
p35
aVMJAVADOC-496
p36
aVMJAVADOC-495
p37
aVMJAVADOC-494
p38
aVMJAVADOC-493
p39
aVMJAVADOC-492
p40
aVMJAVADOC-491
p41
aVMJAVADOC-490
p42
aVMJAVADOC-489
p43
aVMJAVADOC-488
p44
aVMJAVADOC-487
p45
aVMJAVADOC-486
p46
aVMJAVADOC-485
p47
aVMJAVADOC-484
p48
aVMJAVADOC-483
p49
aVMJAVADOC-482
p50
aVMJAVADOC-481
p51
aVMJAVADOC-480
p52
aVMJAVADOC-479
p53
aVMJAVADOC-478
p54
aVMJAVADOC-477
p55
aVMJAVADOC-476
p56
aVMJAVADOC-475
p57
aVMJAVADOC-474
p58
aVMJAVADOC-473
p59
aVMJAVADOC-472
p60
aVMJAVADOC-471
p61
aVMJAVADOC-470
p62
aVMJAVADOC-469
p63
aVMJAVADOC-468
p64
aVMJAVADOC-467
p65
aVMJAVADOC-466
p66
aVMJAVADOC-465
p67
aVMJAVADOC-464
p68
aVMJAVADOC-463
p69
aVMJAVADOC-462
p70
aVMJAVADOC-461
p71
aVMJAVADOC-460
p72
aVMJAVADOC-459
p73
aVMJAVADOC-458
p74
aVMJAVADOC-457
p75
aVMJAVADOC-456
p76
aVMJAVADOC-455
p77
aVMJAVADOC-454
p78
aVMJAVADOC-453
p79
aVMJAVADOC-452
p80
aVMJAVADOC-451
p81
aVMJAVADOC-450
p82
aVMJAVADOC-449
p83
aVMJAVADOC-447
p84
aVMJAVADOC-446
p85
aVMJAVADOC-445
p86
aVMJAVADOC-444
p87
aVMJAVADOC-443
p88
aVMJAVADOC-442
p89
aVMJAVADOC-441
p90
aVMJAVADOC-440
p91
aVMJAVADOC-439
p92
aVMJAVADOC-438
p93
aVMJAVADOC-437
p94
aVMJAVADOC-436
p95
aVMJAVADOC-435
p96
aVMJAVADOC-434
p97
aVMJAVADOC-433
p98
aVMJAVADOC-432
p99
aVMJAVADOC-431
p100
aVMJAVADOC-430
p101
aVMJAVADOC-428
p102
aVMJAVADOC-427
p103
aVMJAVADOC-426
p104
aVMJAVADOC-425
p105
aVMJAVADOC-424
p106
aVMJAVADOC-423
p107
aVMJAVADOC-422
p108
aVMJAVADOC-421
p109
aVMJAVADOC-420
p110
aVMJAVADOC-419
p111
aVMJAVADOC-418
p112
aVMJAVADOC-417
p113
aVMJAVADOC-416
p114
aVMJAVADOC-415
p115
aVMJAVADOC-414
p116
aVMJAVADOC-413
p117
aVMJAVADOC-412
p118
aVMJAVADOC-411
p119
aVMJAVADOC-410
p120
aVMJAVADOC-409
p121
aVMJAVADOC-408
p122
aVMJAVADOC-407
p123
aVMJAVADOC-406
p124
aVMJAVADOC-404
p125
aVMJAVADOC-403
p126
aVMJAVADOC-402
p127
aVMJAVADOC-401
p128
aVMJAVADOC-400
p129
aVMJAVADOC-399
p130
aVMJAVADOC-398
p131
aVMJAVADOC-397
p132
aVMJAVADOC-396
p133
aVMJAVADOC-395
p134
aVMJAVADOC-394
p135
aVMJAVADOC-393
p136
aVMJAVADOC-392
p137
aVMJAVADOC-391
p138
aVMJAVADOC-390
p139
aVMJAVADOC-389
p140
aVMJAVADOC-388
p141
aVMJAVADOC-387
p142
aVMJAVADOC-386
p143
aVMJAVADOC-385
p144
aVMJAVADOC-384
p145
aVMJAVADOC-383
p146
aVMJAVADOC-382
p147
aVMJAVADOC-381
p148
aVMJAVADOC-380
p149
aVMJAVADOC-379
p150
aVMJAVADOC-378
p151
aVMJAVADOC-377
p152
aVMJAVADOC-376
p153
aVMJAVADOC-375
p154
aVMJAVADOC-374
p155
aVMJAVADOC-373
p156
aVMJAVADOC-372
p157
aVMJAVADOC-371
p158
aVMJAVADOC-370
p159
aVMJAVADOC-369
p160
aVMJAVADOC-368
p161
aVMJAVADOC-367
p162
aVMJAVADOC-366
p163
aVMJAVADOC-365
p164
aVMJAVADOC-364
p165
aVMJAVADOC-363
p166
aVMJAVADOC-362
p167
aVMJAVADOC-361
p168
aVMJAVADOC-360
p169
aVMJAVADOC-359
p170
aVMJAVADOC-358
p171
aVMJAVADOC-357
p172
aVMJAVADOC-356
p173
aVMJAVADOC-355
p174
aVMJAVADOC-354
p175
aVMJAVADOC-352
p176
aVMJAVADOC-351
p177
aVMJAVADOC-350
p178
aVMJAVADOC-349
p179
aVMJAVADOC-348
p180
aVMJAVADOC-347
p181
aVMJAVADOC-346
p182
aVMJAVADOC-345
p183
aVMJAVADOC-344
p184
aVMJAVADOC-343
p185
aVMJAVADOC-342
p186
aVMJAVADOC-341
p187
aVMJAVADOC-340
p188
aVMJAVADOC-339
p189
aVMJAVADOC-338
p190
aVMJAVADOC-337
p191
aVMJAVADOC-336
p192
aVMJAVADOC-335
p193
aVMJAVADOC-334
p194
aVMJAVADOC-333
p195
aVMJAVADOC-332
p196
aVMJAVADOC-331
p197
aVMJAVADOC-330
p198
aVMJAVADOC-329
p199
aVMJAVADOC-328
p200
aVMJAVADOC-327
p201
aVMJAVADOC-326
p202
aVMJAVADOC-325
p203
aVMJAVADOC-324
p204
aVMJAVADOC-323
p205
aVMJAVADOC-322
p206
aVMJAVADOC-321
p207
aVMJAVADOC-320
p208
aVMJAVADOC-319
p209
aVMJAVADOC-318
p210
aVMJAVADOC-317
p211
aVMJAVADOC-316
p212
aVMJAVADOC-315
p213
aVMJAVADOC-314
p214
aVMJAVADOC-313
p215
aVMJAVADOC-312
p216
aVMJAVADOC-311
p217
aVMJAVADOC-310
p218
aVMJAVADOC-309
p219
aVMJAVADOC-308
p220
aVMJAVADOC-307
p221
aVMJAVADOC-306
p222
aVMJAVADOC-305
p223
aVMJAVADOC-304
p224
aVMJAVADOC-303
p225
aVMJAVADOC-302
p226
aVMJAVADOC-301
p227
aVMJAVADOC-300
p228
aVMJAVADOC-299
p229
aVMJAVADOC-298
p230
aVMJAVADOC-297
p231
aVMJAVADOC-296
p232
aVMJAVADOC-295
p233
aVMJAVADOC-294
p234
aVMJAVADOC-292
p235
aVMJAVADOC-291
p236
aVMJAVADOC-289
p237
aVMJAVADOC-288
p238
aVMJAVADOC-287
p239
aVMJAVADOC-286
p240
aVMJAVADOC-285
p241
aVMJAVADOC-284
p242
aVMJAVADOC-283
p243
aVMJAVADOC-282
p244
aVMJAVADOC-281
p245
aVMJAVADOC-280
p246
aVMJAVADOC-279
p247
aVMJAVADOC-278
p248
aVMJAVADOC-277
p249
aVMJAVADOC-276
p250
aVMJAVADOC-275
p251
aVMJAVADOC-274
p252
aVMJAVADOC-273
p253
aVMJAVADOC-272
p254
aVMJAVADOC-271
p255
aVMJAVADOC-270
p256
aVMJAVADOC-269
p257
aVMJAVADOC-268
p258
aVMJAVADOC-267
p259
aVMJAVADOC-266
p260
aVMJAVADOC-265
p261
aVMJAVADOC-264
p262
aVMJAVADOC-263
p263
aVMJAVADOC-262
p264
aVMJAVADOC-261
p265
aVMJAVADOC-260
p266
aVMJAVADOC-259
p267
aVMJAVADOC-258
p268
aVMJAVADOC-257
p269
aVMJAVADOC-256
p270
aVMJAVADOC-255
p271
aVMJAVADOC-254
p272
aVMJAVADOC-253
p273
aVMJAVADOC-252
p274
aVMJAVADOC-251
p275
aVMJAVADOC-250
p276
aVMJAVADOC-249
p277
aVMJAVADOC-248
p278
aVMJAVADOC-247
p279
aVMJAVADOC-246
p280
aVMJAVADOC-245
p281
aVMJAVADOC-244
p282
aVMJAVADOC-240
p283
aVMJAVADOC-239
p284
aVMJAVADOC-238
p285
aVMJAVADOC-237
p286
aVMJAVADOC-236
p287
aVMJAVADOC-235
p288
aVMJAVADOC-234
p289
aVMJAVADOC-233
p290
aVMJAVADOC-232
p291
aVMJAVADOC-231
p292
aVMJAVADOC-230
p293
aVMJAVADOC-229
p294
aVMJAVADOC-228
p295
aVMJAVADOC-227
p296
aVMJAVADOC-226
p297
aVMJAVADOC-225
p298
aVMJAVADOC-224
p299
aVMJAVADOC-223
p300
aVMJAVADOC-222
p301
aVMJAVADOC-221
p302
aVMJAVADOC-220
p303
aVMJAVADOC-219
p304
aVMJAVADOC-218
p305
aVMJAVADOC-217
p306
aVMJAVADOC-216
p307
aVMJAVADOC-215
p308
aVMJAVADOC-214
p309
aVMJAVADOC-213
p310
aVMJAVADOC-212
p311
aVMJAVADOC-211
p312
aVMJAVADOC-210
p313
aVMJAVADOC-209
p314
aVMJAVADOC-208
p315
aVMJAVADOC-207
p316
aVMJAVADOC-206
p317
aVMJAVADOC-205
p318
aVMJAVADOC-204
p319
aVMJAVADOC-203
p320
aVMJAVADOC-202
p321
aVMJAVADOC-201
p322
aVMJAVADOC-200
p323
aVMJAVADOC-199
p324
aVMJAVADOC-198
p325
aVMJAVADOC-197
p326
aVMJAVADOC-196
p327
aVMJAVADOC-195
p328
aVMJAVADOC-194
p329
aVMJAVADOC-193
p330
aVMJAVADOC-192
p331
aVMJAVADOC-191
p332
aVMJAVADOC-190
p333
aVMJAVADOC-189
p334
aVMJAVADOC-188
p335
aVMJAVADOC-187
p336
aVMJAVADOC-186
p337
aVMJAVADOC-185
p338
aVMJAVADOC-184
p339
aVMJAVADOC-183
p340
aVMJAVADOC-182
p341
aVMJAVADOC-181
p342
aVMJAVADOC-180
p343
aVMJAVADOC-179
p344
aVMJAVADOC-178
p345
aVMJAVADOC-177
p346
aVMJAVADOC-176
p347
aVMJAVADOC-175
p348
aVMJAVADOC-174
p349
aVMJAVADOC-173
p350
aVMJAVADOC-172
p351
aVMJAVADOC-171
p352
aVMJAVADOC-170
p353
aVMJAVADOC-169
p354
aVMJAVADOC-168
p355
aVMJAVADOC-167
p356
aVMJAVADOC-166
p357
aVMJAVADOC-165
p358
aVMJAVADOC-164
p359
aVMJAVADOC-163
p360
aVMJAVADOC-162
p361
aVMJAVADOC-161
p362
aVMJAVADOC-160
p363
aVMJAVADOC-159
p364
aVMJAVADOC-158
p365
aVMJAVADOC-157
p366
aVMJAVADOC-156
p367
aVMJAVADOC-155
p368
aVMJAVADOC-154
p369
aVMJAVADOC-153
p370
aVMJAVADOC-152
p371
aVMJAVADOC-151
p372
aVMJAVADOC-150
p373
aVMJAVADOC-149
p374
aVMJAVADOC-148
p375
aVMJAVADOC-147
p376
aVMJAVADOC-146
p377
aVMJAVADOC-145
p378
aVMJAVADOC-144
p379
aVMJAVADOC-143
p380
aVMJAVADOC-142
p381
aVMJAVADOC-141
p382
aVMJAVADOC-140
p383
aVMJAVADOC-139
p384
aVMJAVADOC-138
p385
aVMJAVADOC-137
p386
aVMJAVADOC-136
p387
aVMJAVADOC-135
p388
aVMJAVADOC-134
p389
aVMJAVADOC-133
p390
aVMJAVADOC-132
p391
aVMJAVADOC-131
p392
aVMJAVADOC-130
p393
aVMJAVADOC-129
p394
aVMJAVADOC-128
p395
aVMJAVADOC-127
p396
aVMJAVADOC-126
p397
aVMJAVADOC-125
p398
aVMJAVADOC-124
p399
aVMJAVADOC-123
p400
aVMJAVADOC-122
p401
aVMJAVADOC-121
p402
aVMJAVADOC-120
p403
aVMJAVADOC-119
p404
aVMJAVADOC-118
p405
aVMJAVADOC-117
p406
aVMJAVADOC-116
p407
aVMJAVADOC-115
p408
aVMJAVADOC-114
p409
aVMJAVADOC-113
p410
aVMJAVADOC-112
p411
aVMJAVADOC-111
p412
aVMJAVADOC-110
p413
aVMJAVADOC-109
p414
aVMJAVADOC-108
p415
aVMJAVADOC-107
p416
aVMJAVADOC-106
p417
aVMJAVADOC-105
p418
aVMJAVADOC-104
p419
aVMJAVADOC-103
p420
aVMJAVADOC-102
p421
aVMJAVADOC-101
p422
aVMJAVADOC-100
p423
aVMJAVADOC-99
p424
aVMJAVADOC-98
p425
aVMJAVADOC-97
p426
aVMJAVADOC-96
p427
aVMJAVADOC-95
p428
aVMJAVADOC-94
p429
aVMJAVADOC-93
p430
aVMJAVADOC-92
p431
aVMJAVADOC-91
p432
aVMJAVADOC-90
p433
aVMJAVADOC-89
p434
aVMJAVADOC-88
p435
aVMJAVADOC-87
p436
aVMJAVADOC-86
p437
aVMJAVADOC-85
p438
aVMJAVADOC-84
p439
aVMJAVADOC-83
p440
aVMJAVADOC-82
p441
aVMJAVADOC-81
p442
aVMJAVADOC-80
p443
aVMJAVADOC-79
p444
aVMJAVADOC-78
p445
aVMJAVADOC-77
p446
aVMJAVADOC-76
p447
aVMJAVADOC-75
p448
aVMJAVADOC-74
p449
aVMJAVADOC-73
p450
aVMJAVADOC-72
p451
aVMJAVADOC-71
p452
aVMJAVADOC-70
p453
aVMJAVADOC-69
p454
aVMJAVADOC-68
p455
aVMJAVADOC-67
p456
aVMJAVADOC-66
p457
aVMJAVADOC-65
p458
aVMJAVADOC-64
p459
aVMJAVADOC-63
p460
aVMJAVADOC-62
p461
aVMJAVADOC-61
p462
aVMJAVADOC-60
p463
aVMJAVADOC-59
p464
aVMJAVADOC-58
p465
aVMJAVADOC-57
p466
aVMJAVADOC-56
p467
aVMJAVADOC-55
p468
aVMJAVADOC-54
p469
aVMJAVADOC-53
p470
aVMJAVADOC-52
p471
aVMJAVADOC-51
p472
aVMJAVADOC-50
p473
aVMJAVADOC-49
p474
aVMJAVADOC-48
p475
aVMJAVADOC-47
p476
aVMJAVADOC-46
p477
aVMJAVADOC-45
p478
aVMJAVADOC-44
p479
aVMJAVADOC-43
p480
aVMJAVADOC-42
p481
aVMJAVADOC-41
p482
aVMJAVADOC-40
p483
aVMJAVADOC-39
p484
aVMJAVADOC-38
p485
aVMJAVADOC-37
p486
aVMJAVADOC-36
p487
aVMJAVADOC-35
p488
aVMJAVADOC-34
p489
aVMJAVADOC-33
p490
aVMJAVADOC-32
p491
aVMJAVADOC-31
p492
aVMJAVADOC-30
p493
aVMJAVADOC-29
p494
aVMJAVADOC-28
p495
aVMJAVADOC-27
p496
aVMJAVADOC-26
p497
aVMJAVADOC-25
p498
aVMJAVADOC-24
p499
aVMJAVADOC-23
p500
aVMJAVADOC-22
p501
aVMJAVADOC-21
p502
aVMJAVADOC-20
p503
aVMJAVADOC-19
p504
aVMJAVADOC-18
p505
aVMJAVADOC-17
p506
aVMJAVADOC-16
p507
aVMJAVADOC-15
p508
aVMJAVADOC-14
p509
aVMJAVADOC-13
p510
aVMJAVADOC-12
p511
aVMJAVADOC-11
p512
aVMJAVADOC-10
p513
aVMJAVADOC-9
p514
aVMJAVADOC-8
p515
aVMJAVADOC-7
p516
aVMJAVADOC-6
p517
aVMJAVADOC-5
p518
aVMJAVADOC-4
p519
aVMJAVADOC-3
p520
aVMJAVADOC-2
p521
aVMJAVADOC-1
p522
a.