(lp0
VMJDEPS-17
p1
aVMJDEPS-16
p2
aVMJDEPS-15
p3
aVMJDEPS-14
p4
aVMJDEPS-13
p5
aVMJDEPS-12
p6
aVMJDEPS-11
p7
aVMJDEPS-10
p8
aVMJDEPS-9
p9
aVMJDEPS-8
p10
aVMJDEPS-7
p11
aVMJDEPS-6
p12
aVMJDEPS-5
p13
aVMJDEPS-4
p14
aVMJDEPS-3
p15
aVMJDEPS-2
p16
aVMJDEPS-1
p17
a.