(lp0
VMJLINK-21
p1
aVMJLINK-20
p2
aVMJLINK-19
p3
aVMJLINK-18
p4
aVMJLINK-17
p5
aVMJLINK-16
p6
aVMJLINK-15
p7
aVMJLINK-14
p8
aVMJLINK-13
p9
aVMJLINK-12
p10
aVMJLINK-11
p11
aVMJLINK-10
p12
aVMJLINK-9
p13
aVMJLINK-8
p14
aVMJLINK-7
p15
aVMJLINK-6
p16
aVMJLINK-5
p17
aVMJLINK-4
p18
aVMJLINK-3
p19
aVMJLINK-2
p20
aVMJLINK-1
p21
a.