(lp0
VMLINKCHECK-33
p1
aVMLINKCHECK-32
p2
aVMLINKCHECK-31
p3
aVMLINKCHECK-30
p4
aVMLINKCHECK-29
p5
aVMLINKCHECK-28
p6
aVMLINKCHECK-27
p7
aVMLINKCHECK-26
p8
aVMLINKCHECK-25
p9
aVMLINKCHECK-24
p10
aVMLINKCHECK-23
p11
aVMLINKCHECK-22
p12
aVMLINKCHECK-21
p13
aVMLINKCHECK-20
p14
aVMLINKCHECK-19
p15
aVMLINKCHECK-18
p16
aVMLINKCHECK-17
p17
aVMLINKCHECK-16
p18
aVMLINKCHECK-15
p19
aVMLINKCHECK-14
p20
aVMLINKCHECK-13
p21
aVMLINKCHECK-12
p22
aVMLINKCHECK-11
p23
aVMLINKCHECK-10
p24
aVMLINKCHECK-9
p25
aVMLINKCHECK-8
p26
aVMLINKCHECK-7
p27
aVMLINKCHECK-6
p28
aVMLINKCHECK-5
p29
aVMLINKCHECK-4
p30
aVMLINKCHECK-3
p31
aVMLINKCHECK-2
p32
aVMLINKCHECK-1
p33
a.