(lp0
VMNEMONIC-498
p1
aVMNEMONIC-497
p2
aVMNEMONIC-496
p3
aVMNEMONIC-495
p4
aVMNEMONIC-494
p5
aVMNEMONIC-493
p6
aVMNEMONIC-492
p7
aVMNEMONIC-491
p8
aVMNEMONIC-490
p9
aVMNEMONIC-489
p10
aVMNEMONIC-488
p11
aVMNEMONIC-487
p12
aVMNEMONIC-486
p13
aVMNEMONIC-485
p14
aVMNEMONIC-484
p15
aVMNEMONIC-483
p16
aVMNEMONIC-482
p17
aVMNEMONIC-481
p18
aVMNEMONIC-480
p19
aVMNEMONIC-479
p20
aVMNEMONIC-478
p21
aVMNEMONIC-477
p22
aVMNEMONIC-476
p23
aVMNEMONIC-475
p24
aVMNEMONIC-474
p25
aVMNEMONIC-473
p26
aVMNEMONIC-472
p27
aVMNEMONIC-471
p28
aVMNEMONIC-470
p29
aVMNEMONIC-469
p30
aVMNEMONIC-468
p31
aVMNEMONIC-467
p32
aVMNEMONIC-466
p33
aVMNEMONIC-465
p34
aVMNEMONIC-464
p35
aVMNEMONIC-463
p36
aVMNEMONIC-462
p37
aVMNEMONIC-461
p38
aVMNEMONIC-460
p39
aVMNEMONIC-459
p40
aVMNEMONIC-458
p41
aVMNEMONIC-457
p42
aVMNEMONIC-456
p43
aVMNEMONIC-455
p44
aVMNEMONIC-454
p45
aVMNEMONIC-453
p46
aVMNEMONIC-452
p47
aVMNEMONIC-451
p48
aVMNEMONIC-450
p49
aVMNEMONIC-449
p50
aVMNEMONIC-448
p51
aVMNEMONIC-447
p52
aVMNEMONIC-446
p53
aVMNEMONIC-445
p54
aVMNEMONIC-444
p55
aVMNEMONIC-443
p56
aVMNEMONIC-442
p57
aVMNEMONIC-441
p58
aVMNEMONIC-440
p59
aVMNEMONIC-439
p60
aVMNEMONIC-438
p61
aVMNEMONIC-437
p62
aVMNEMONIC-436
p63
aVMNEMONIC-435
p64
aVMNEMONIC-434
p65
aVMNEMONIC-433
p66
aVMNEMONIC-432
p67
aVMNEMONIC-431
p68
aVMNEMONIC-430
p69
aVMNEMONIC-429
p70
aVMNEMONIC-428
p71
aVMNEMONIC-427
p72
aVMNEMONIC-426
p73
aVMNEMONIC-425
p74
aVMNEMONIC-424
p75
aVMNEMONIC-423
p76
aVMNEMONIC-422
p77
aVMNEMONIC-421
p78
aVMNEMONIC-420
p79
aVMNEMONIC-419
p80
aVMNEMONIC-418
p81
aVMNEMONIC-417
p82
aVMNEMONIC-416
p83
aVMNEMONIC-415
p84
aVMNEMONIC-414
p85
aVMNEMONIC-413
p86
aVMNEMONIC-412
p87
aVMNEMONIC-411
p88
aVMNEMONIC-410
p89
aVMNEMONIC-409
p90
aVMNEMONIC-408
p91
aVMNEMONIC-407
p92
aVMNEMONIC-406
p93
aVMNEMONIC-405
p94
aVMNEMONIC-404
p95
aVMNEMONIC-403
p96
aVMNEMONIC-402
p97
aVMNEMONIC-401
p98
aVMNEMONIC-400
p99
aVMNEMONIC-399
p100
aVMNEMONIC-398
p101
aVMNEMONIC-397
p102
aVMNEMONIC-396
p103
aVMNEMONIC-395
p104
aVMNEMONIC-394
p105
aVMNEMONIC-393
p106
aVMNEMONIC-392
p107
aVMNEMONIC-391
p108
aVMNEMONIC-390
p109
aVMNEMONIC-389
p110
aVMNEMONIC-388
p111
aVMNEMONIC-387
p112
aVMNEMONIC-386
p113
aVMNEMONIC-385
p114
aVMNEMONIC-384
p115
aVMNEMONIC-383
p116
aVMNEMONIC-382
p117
aVMNEMONIC-381
p118
aVMNEMONIC-380
p119
aVMNEMONIC-379
p120
aVMNEMONIC-378
p121
aVMNEMONIC-377
p122
aVMNEMONIC-376
p123
aVMNEMONIC-375
p124
aVMNEMONIC-374
p125
aVMNEMONIC-373
p126
aVMNEMONIC-372
p127
aVMNEMONIC-371
p128
aVMNEMONIC-370
p129
aVMNEMONIC-369
p130
aVMNEMONIC-368
p131
aVMNEMONIC-367
p132
aVMNEMONIC-366
p133
aVMNEMONIC-365
p134
aVMNEMONIC-364
p135
aVMNEMONIC-363
p136
aVMNEMONIC-362
p137
aVMNEMONIC-361
p138
aVMNEMONIC-360
p139
aVMNEMONIC-359
p140
aVMNEMONIC-358
p141
aVMNEMONIC-357
p142
aVMNEMONIC-356
p143
aVMNEMONIC-355
p144
aVMNEMONIC-354
p145
aVMNEMONIC-353
p146
aVMNEMONIC-352
p147
aVMNEMONIC-351
p148
aVMNEMONIC-350
p149
aVMNEMONIC-349
p150
aVMNEMONIC-348
p151
aVMNEMONIC-347
p152
aVMNEMONIC-346
p153
aVMNEMONIC-345
p154
aVMNEMONIC-344
p155
aVMNEMONIC-343
p156
aVMNEMONIC-342
p157
aVMNEMONIC-341
p158
aVMNEMONIC-340
p159
aVMNEMONIC-339
p160
aVMNEMONIC-338
p161
aVMNEMONIC-337
p162
aVMNEMONIC-336
p163
aVMNEMONIC-335
p164
aVMNEMONIC-334
p165
aVMNEMONIC-333
p166
aVMNEMONIC-332
p167
aVMNEMONIC-331
p168
aVMNEMONIC-330
p169
aVMNEMONIC-329
p170
aVMNEMONIC-328
p171
aVMNEMONIC-327
p172
aVMNEMONIC-326
p173
aVMNEMONIC-325
p174
aVMNEMONIC-324
p175
aVMNEMONIC-323
p176
aVMNEMONIC-322
p177
aVMNEMONIC-321
p178
aVMNEMONIC-320
p179
aVMNEMONIC-319
p180
aVMNEMONIC-318
p181
aVMNEMONIC-317
p182
aVMNEMONIC-316
p183
aVMNEMONIC-315
p184
aVMNEMONIC-314
p185
aVMNEMONIC-313
p186
aVMNEMONIC-312
p187
aVMNEMONIC-311
p188
aVMNEMONIC-310
p189
aVMNEMONIC-309
p190
aVMNEMONIC-308
p191
aVMNEMONIC-307
p192
aVMNEMONIC-306
p193
aVMNEMONIC-305
p194
aVMNEMONIC-304
p195
aVMNEMONIC-303
p196
aVMNEMONIC-302
p197
aVMNEMONIC-301
p198
aVMNEMONIC-300
p199
aVMNEMONIC-299
p200
aVMNEMONIC-298
p201
aVMNEMONIC-297
p202
aVMNEMONIC-296
p203
aVMNEMONIC-295
p204
aVMNEMONIC-294
p205
aVMNEMONIC-293
p206
aVMNEMONIC-292
p207
aVMNEMONIC-291
p208
aVMNEMONIC-290
p209
aVMNEMONIC-289
p210
aVMNEMONIC-288
p211
aVMNEMONIC-287
p212
aVMNEMONIC-286
p213
aVMNEMONIC-285
p214
aVMNEMONIC-284
p215
aVMNEMONIC-283
p216
aVMNEMONIC-282
p217
aVMNEMONIC-281
p218
aVMNEMONIC-280
p219
aVMNEMONIC-279
p220
aVMNEMONIC-278
p221
aVMNEMONIC-277
p222
aVMNEMONIC-276
p223
aVMNEMONIC-275
p224
aVMNEMONIC-274
p225
aVMNEMONIC-273
p226
aVMNEMONIC-272
p227
aVMNEMONIC-271
p228
aVMNEMONIC-270
p229
aVMNEMONIC-269
p230
aVMNEMONIC-268
p231
aVMNEMONIC-267
p232
aVMNEMONIC-266
p233
aVMNEMONIC-265
p234
aVMNEMONIC-264
p235
aVMNEMONIC-263
p236
aVMNEMONIC-262
p237
aVMNEMONIC-261
p238
aVMNEMONIC-260
p239
aVMNEMONIC-259
p240
aVMNEMONIC-258
p241
aVMNEMONIC-257
p242
aVMNEMONIC-256
p243
aVMNEMONIC-255
p244
aVMNEMONIC-254
p245
aVMNEMONIC-253
p246
aVMNEMONIC-252
p247
aVMNEMONIC-251
p248
aVMNEMONIC-250
p249
aVMNEMONIC-249
p250
aVMNEMONIC-248
p251
aVMNEMONIC-247
p252
aVMNEMONIC-246
p253
aVMNEMONIC-245
p254
aVMNEMONIC-244
p255
aVMNEMONIC-243
p256
aVMNEMONIC-242
p257
aVMNEMONIC-241
p258
aVMNEMONIC-240
p259
aVMNEMONIC-239
p260
aVMNEMONIC-238
p261
aVMNEMONIC-237
p262
aVMNEMONIC-236
p263
aVMNEMONIC-235
p264
aVMNEMONIC-234
p265
aVMNEMONIC-233
p266
aVMNEMONIC-232
p267
aVMNEMONIC-231
p268
aVMNEMONIC-230
p269
aVMNEMONIC-229
p270
aVMNEMONIC-228
p271
aVMNEMONIC-227
p272
aVMNEMONIC-226
p273
aVMNEMONIC-225
p274
aVMNEMONIC-224
p275
aVMNEMONIC-223
p276
aVMNEMONIC-222
p277
aVMNEMONIC-221
p278
aVMNEMONIC-220
p279
aVMNEMONIC-219
p280
aVMNEMONIC-218
p281
aVMNEMONIC-217
p282
aVMNEMONIC-216
p283
aVMNEMONIC-215
p284
aVMNEMONIC-214
p285
aVMNEMONIC-213
p286
aVMNEMONIC-212
p287
aVMNEMONIC-211
p288
aVMNEMONIC-210
p289
aVMNEMONIC-209
p290
aVMNEMONIC-208
p291
aVMNEMONIC-207
p292
aVMNEMONIC-206
p293
aVMNEMONIC-205
p294
aVMNEMONIC-204
p295
aVMNEMONIC-203
p296
aVMNEMONIC-202
p297
aVMNEMONIC-201
p298
aVMNEMONIC-200
p299
aVMNEMONIC-199
p300
aVMNEMONIC-198
p301
aVMNEMONIC-197
p302
aVMNEMONIC-196
p303
aVMNEMONIC-195
p304
aVMNEMONIC-194
p305
aVMNEMONIC-193
p306
aVMNEMONIC-192
p307
aVMNEMONIC-191
p308
aVMNEMONIC-190
p309
aVMNEMONIC-189
p310
aVMNEMONIC-188
p311
aVMNEMONIC-187
p312
aVMNEMONIC-186
p313
aVMNEMONIC-185
p314
aVMNEMONIC-184
p315
aVMNEMONIC-183
p316
aVMNEMONIC-182
p317
aVMNEMONIC-181
p318
aVMNEMONIC-180
p319
aVMNEMONIC-179
p320
aVMNEMONIC-178
p321
aVMNEMONIC-177
p322
aVMNEMONIC-176
p323
aVMNEMONIC-175
p324
aVMNEMONIC-174
p325
aVMNEMONIC-173
p326
aVMNEMONIC-172
p327
aVMNEMONIC-171
p328
aVMNEMONIC-170
p329
aVMNEMONIC-169
p330
aVMNEMONIC-168
p331
aVMNEMONIC-167
p332
aVMNEMONIC-166
p333
aVMNEMONIC-165
p334
aVMNEMONIC-164
p335
aVMNEMONIC-163
p336
aVMNEMONIC-162
p337
aVMNEMONIC-161
p338
aVMNEMONIC-160
p339
aVMNEMONIC-159
p340
aVMNEMONIC-158
p341
aVMNEMONIC-157
p342
aVMNEMONIC-156
p343
aVMNEMONIC-155
p344
aVMNEMONIC-154
p345
aVMNEMONIC-153
p346
aVMNEMONIC-152
p347
aVMNEMONIC-151
p348
aVMNEMONIC-150
p349
aVMNEMONIC-149
p350
aVMNEMONIC-148
p351
aVMNEMONIC-147
p352
aVMNEMONIC-146
p353
aVMNEMONIC-145
p354
aVMNEMONIC-144
p355
aVMNEMONIC-143
p356
aVMNEMONIC-142
p357
aVMNEMONIC-141
p358
aVMNEMONIC-140
p359
aVMNEMONIC-139
p360
aVMNEMONIC-138
p361
aVMNEMONIC-137
p362
aVMNEMONIC-136
p363
aVMNEMONIC-135
p364
aVMNEMONIC-134
p365
aVMNEMONIC-133
p366
aVMNEMONIC-132
p367
aVMNEMONIC-131
p368
aVMNEMONIC-130
p369
aVMNEMONIC-129
p370
aVMNEMONIC-128
p371
aVMNEMONIC-127
p372
aVMNEMONIC-126
p373
aVMNEMONIC-125
p374
aVMNEMONIC-124
p375
aVMNEMONIC-123
p376
aVMNEMONIC-122
p377
aVMNEMONIC-121
p378
aVMNEMONIC-120
p379
aVMNEMONIC-119
p380
aVMNEMONIC-118
p381
aVMNEMONIC-117
p382
aVMNEMONIC-116
p383
aVMNEMONIC-115
p384
aVMNEMONIC-114
p385
aVMNEMONIC-113
p386
aVMNEMONIC-111
p387
aVMNEMONIC-110
p388
aVMNEMONIC-109
p389
aVMNEMONIC-108
p390
aVMNEMONIC-107
p391
aVMNEMONIC-106
p392
aVMNEMONIC-105
p393
aVMNEMONIC-104
p394
aVMNEMONIC-103
p395
aVMNEMONIC-102
p396
aVMNEMONIC-101
p397
aVMNEMONIC-100
p398
aVMNEMONIC-99
p399
aVMNEMONIC-98
p400
aVMNEMONIC-97
p401
aVMNEMONIC-96
p402
aVMNEMONIC-95
p403
aVMNEMONIC-94
p404
aVMNEMONIC-93
p405
aVMNEMONIC-92
p406
aVMNEMONIC-91
p407
aVMNEMONIC-90
p408
aVMNEMONIC-89
p409
aVMNEMONIC-88
p410
aVMNEMONIC-87
p411
aVMNEMONIC-86
p412
aVMNEMONIC-85
p413
aVMNEMONIC-84
p414
aVMNEMONIC-83
p415
aVMNEMONIC-82
p416
aVMNEMONIC-81
p417
aVMNEMONIC-80
p418
aVMNEMONIC-79
p419
aVMNEMONIC-78
p420
aVMNEMONIC-77
p421
aVMNEMONIC-76
p422
aVMNEMONIC-75
p423
aVMNEMONIC-74
p424
aVMNEMONIC-73
p425
aVMNEMONIC-72
p426
aVMNEMONIC-71
p427
aVMNEMONIC-70
p428
aVMNEMONIC-69
p429
aVMNEMONIC-68
p430
aVMNEMONIC-67
p431
aVMNEMONIC-66
p432
aVMNEMONIC-65
p433
aVMNEMONIC-64
p434
aVMNEMONIC-63
p435
aVMNEMONIC-62
p436
aVMNEMONIC-61
p437
aVMNEMONIC-60
p438
aVMNEMONIC-59
p439
aVMNEMONIC-58
p440
aVMNEMONIC-57
p441
aVMNEMONIC-56
p442
aVMNEMONIC-55
p443
aVMNEMONIC-54
p444
aVMNEMONIC-53
p445
aVMNEMONIC-52
p446
aVMNEMONIC-51
p447
aVMNEMONIC-50
p448
aVMNEMONIC-49
p449
aVMNEMONIC-48
p450
aVMNEMONIC-47
p451
aVMNEMONIC-46
p452
aVMNEMONIC-45
p453
aVMNEMONIC-44
p454
aVMNEMONIC-43
p455
aVMNEMONIC-42
p456
aVMNEMONIC-41
p457
aVMNEMONIC-40
p458
aVMNEMONIC-39
p459
aVMNEMONIC-38
p460
aVMNEMONIC-37
p461
aVMNEMONIC-36
p462
aVMNEMONIC-35
p463
aVMNEMONIC-34
p464
aVMNEMONIC-33
p465
aVMNEMONIC-32
p466
aVMNEMONIC-31
p467
aVMNEMONIC-30
p468
aVMNEMONIC-29
p469
aVMNEMONIC-28
p470
aVMNEMONIC-27
p471
aVMNEMONIC-26
p472
aVMNEMONIC-25
p473
aVMNEMONIC-24
p474
aVMNEMONIC-23
p475
aVMNEMONIC-22
p476
aVMNEMONIC-21
p477
aVMNEMONIC-20
p478
aVMNEMONIC-19
p479
aVMNEMONIC-18
p480
aVMNEMONIC-17
p481
aVMNEMONIC-16
p482
aVMNEMONIC-15
p483
aVMNEMONIC-14
p484
aVMNEMONIC-13
p485
aVMNEMONIC-12
p486
aVMNEMONIC-11
p487
aVMNEMONIC-10
p488
aVMNEMONIC-9
p489
aVMNEMONIC-8
p490
aVMNEMONIC-7
p491
aVMNEMONIC-6
p492
aVMNEMONIC-5
p493
aVMNEMONIC-4
p494
aVMNEMONIC-3
p495
aVMNEMONIC-2
p496
aVMNEMONIC-1
p497
a.