(lp0
VMNG-6452
p1
aVMNG-6450
p2
aVMNG-6449
p3
aVMNG-6447
p4
aVMNG-6446
p5
aVMNG-6445
p6
aVMNG-6444
p7
aVMNG-6443
p8
aVMNG-6442
p9
aVMNG-6441
p10
aVMNG-6438
p11
aVMNG-6437
p12
aVMNG-6436
p13
aVMNG-6435
p14
aVMNG-6434
p15
aVMNG-6433
p16
aVMNG-6432
p17
aVMNG-6431
p18
aVMNG-6430
p19
aVMNG-6429
p20
aVMNG-6428
p21
aVMNG-6427
p22
aVMNG-6426
p23
aVMNG-6425
p24
aVMNG-6424
p25
aVMNG-6423
p26
aVMNG-6422
p27
aVMNG-6421
p28
aVMNG-6420
p29
aVMNG-6419
p30
aVMNG-6418
p31
aVMNG-6417
p32
aVMNG-6416
p33
aVMNG-6415
p34
aVMNG-6414
p35
aVMNG-6413
p36
aVMNG-6412
p37
aVMNG-6411
p38
aVMNG-6410
p39
aVMNG-6409
p40
aVMNG-6408
p41
aVMNG-6407
p42
aVMNG-6406
p43
aVMNG-6405
p44
aVMNG-6404
p45
aVMNG-6403
p46
aVMNG-6402
p47
aVMNG-6401
p48
aVMNG-6400
p49
aVMNG-6399
p50
aVMNG-6398
p51
aVMNG-6397
p52
aVMNG-6396
p53
aVMNG-6395
p54
aVMNG-6394
p55
aVMNG-6392
p56
aVMNG-6391
p57
aVMNG-6390
p58
aVMNG-6389
p59
aVMNG-6388
p60
aVMNG-6387
p61
aVMNG-6386
p62
aVMNG-6385
p63
aVMNG-6384
p64
aVMNG-6383
p65
aVMNG-6382
p66
aVMNG-6380
p67
aVMNG-6379
p68
aVMNG-6378
p69
aVMNG-6377
p70
aVMNG-6375
p71
aVMNG-6374
p72
aVMNG-6373
p73
aVMNG-6372
p74
aVMNG-6371
p75
aVMNG-6370
p76
aVMNG-6369
p77
aVMNG-6368
p78
aVMNG-6366
p79
aVMNG-6364
p80
aVMNG-6363
p81
aVMNG-6362
p82
aVMNG-6361
p83
aVMNG-6360
p84
aVMNG-6359
p85
aVMNG-6358
p86
aVMNG-6357
p87
aVMNG-6356
p88
aVMNG-6355
p89
aVMNG-6354
p90
aVMNG-6353
p91
aVMNG-6352
p92
aVMNG-6351
p93
aVMNG-6350
p94
aVMNG-6348
p95
aVMNG-6347
p96
aVMNG-6346
p97
aVMNG-6345
p98
aVMNG-6344
p99
aVMNG-6343
p100
aVMNG-6342
p101
aVMNG-6340
p102
aVMNG-6339
p103
aVMNG-6338
p104
aVMNG-6337
p105
aVMNG-6336
p106
aVMNG-6335
p107
aVMNG-6334
p108
aVMNG-6333
p109
aVMNG-6332
p110
aVMNG-6331
p111
aVMNG-6330
p112
aVMNG-6329
p113
aVMNG-6328
p114
aVMNG-6327
p115
aVMNG-6326
p116
aVMNG-6324
p117
aVMNG-6323
p118
aVMNG-6322
p119
aVMNG-6321
p120
aVMNG-6320
p121
aVMNG-6319
p122
aVMNG-6318
p123
aVMNG-6317
p124
aVMNG-6316
p125
aVMNG-6315
p126
aVMNG-6313
p127
aVMNG-6312
p128
aVMNG-6311
p129
aVMNG-6310
p130
aVMNG-6308
p131
aVMNG-6307
p132
aVMNG-6306
p133
aVMNG-6305
p134
aVMNG-6304
p135
aVMNG-6303
p136
aVMNG-6302
p137
aVMNG-6300
p138
aVMNG-6299
p139
aVMNG-6298
p140
aVMNG-6297
p141
aVMNG-6296
p142
aVMNG-6295
p143
aVMNG-6294
p144
aVMNG-6293
p145
aVMNG-6292
p146
aVMNG-6291
p147
aVMNG-6290
p148
aVMNG-6289
p149
aVMNG-6288
p150
aVMNG-6286
p151
aVMNG-6284
p152
aVMNG-6283
p153
aVMNG-6282
p154
aVMNG-6281
p155
aVMNG-6280
p156
aVMNG-6279
p157
aVMNG-6278
p158
aVMNG-6276
p159
aVMNG-6275
p160
aVMNG-6274
p161
aVMNG-6272
p162
aVMNG-6271
p163
aVMNG-6270
p164
aVMNG-6269
p165
aVMNG-6268
p166
aVMNG-6267
p167
aVMNG-6266
p168
aVMNG-6265
p169
aVMNG-6264
p170
aVMNG-6263
p171
aVMNG-6262
p172
aVMNG-6261
p173
aVMNG-6260
p174
aVMNG-6259
p175
aVMNG-6258
p176
aVMNG-6256
p177
aVMNG-6255
p178
aVMNG-6254
p179
aVMNG-6253
p180
aVMNG-6252
p181
aVMNG-6251
p182
aVMNG-6250
p183
aVMNG-6249
p184
aVMNG-6248
p185
aVMNG-6247
p186
aVMNG-6246
p187
aVMNG-6244
p188
aVMNG-6243
p189
aVMNG-6242
p190
aVMNG-6241
p191
aVMNG-6240
p192
aVMNG-6239
p193
aVMNG-6238
p194
aVMNG-6237
p195
aVMNG-6236
p196
aVMNG-6235
p197
aVMNG-6234
p198
aVMNG-6233
p199
aVMNG-6232
p200
aVMNG-6231
p201
aVMNG-6230
p202
aVMNG-6229
p203
aVMNG-6228
p204
aVMNG-6227
p205
aVMNG-6226
p206
aVMNG-6225
p207
aVMNG-6224
p208
aVMNG-6223
p209
aVMNG-6222
p210
aVMNG-6221
p211
aVMNG-6220
p212
aVMNG-6219
p213
aVMNG-6218
p214
aVMNG-6217
p215
aVMNG-6216
p216
aVMNG-6215
p217
aVMNG-6214
p218
aVMNG-6213
p219
aVMNG-6212
p220
aVMNG-6211
p221
aVMNG-6210
p222
aVMNG-6209
p223
aVMNG-6208
p224
aVMNG-6207
p225
aVMNG-6206
p226
aVMNG-6205
p227
aVMNG-6204
p228
aVMNG-6203
p229
aVMNG-6202
p230
aVMNG-6200
p231
aVMNG-6198
p232
aVMNG-6196
p233
aVMNG-6195
p234
aVMNG-6193
p235
aVMNG-6192
p236
aVMNG-6191
p237
aVMNG-6190
p238
aVMNG-6189
p239
aVMNG-6188
p240
aVMNG-6186
p241
aVMNG-6185
p242
aVMNG-6184
p243
aVMNG-6183
p244
aVMNG-6182
p245
aVMNG-6181
p246
aVMNG-6180
p247
aVMNG-6179
p248
aVMNG-6178
p249
aVMNG-6177
p250
aVMNG-6176
p251
aVMNG-6175
p252
aVMNG-6174
p253
aVMNG-6173
p254
aVMNG-6172
p255
aVMNG-6171
p256
aVMNG-6170
p257
aVMNG-6169
p258
aVMNG-6168
p259
aVMNG-6167
p260
aVMNG-6166
p261
aVMNG-6165
p262
aVMNG-6164
p263
aVMNG-6163
p264
aVMNG-6162
p265
aVMNG-6161
p266
aVMNG-6160
p267
aVMNG-6159
p268
aVMNG-6158
p269
aVMNG-6157
p270
aVMNG-6155
p271
aVMNG-6154
p272
aVMNG-6152
p273
aVMNG-6151
p274
aVMNG-6150
p275
aVMNG-6149
p276
aVMNG-6148
p277
aVMNG-6147
p278
aVMNG-6146
p279
aVMNG-6145
p280
aVMNG-6144
p281
aVMNG-6143
p282
aVMNG-6142
p283
aVMNG-6141
p284
aVMNG-6140
p285
aVMNG-6139
p286
aVMNG-6138
p287
aVMNG-6137
p288
aVMNG-6136
p289
aVMNG-6135
p290
aVMNG-6132
p291
aVMNG-6131
p292
aVMNG-6130
p293
aVMNG-6129
p294
aVMNG-6128
p295
aVMNG-6127
p296
aVMNG-6126
p297
aVMNG-6125
p298
aVMNG-6124
p299
aVMNG-6123
p300
aVMNG-6122
p301
aVMNG-6121
p302
aVMNG-6120
p303
aVMNG-6119
p304
aVMNG-6118
p305
aVMNG-6117
p306
aVMNG-6115
p307
aVMNG-6114
p308
aVMNG-6113
p309
aVMNG-6112
p310
aVMNG-6110
p311
aVMNG-6109
p312
aVMNG-6108
p313
aVMNG-6107
p314
aVMNG-6106
p315
aVMNG-6105
p316
aVMNG-6103
p317
aVMNG-6102
p318
aVMNG-6101
p319
aVMNG-6098
p320
aVMNG-6097
p321
aVMNG-6096
p322
aVMNG-6095
p323
aVMNG-6093
p324
aVMNG-6092
p325
aVMNG-6091
p326
aVMNG-6090
p327
aVMNG-6089
p328
aVMNG-6088
p329
aVMNG-6087
p330
aVMNG-6085
p331
aVMNG-6084
p332
aVMNG-6083
p333
aVMNG-6082
p334
aVMNG-6081
p335
aVMNG-6080
p336
aVMNG-6079
p337
aVMNG-6078
p338
aVMNG-6077
p339
aVMNG-6076
p340
aVMNG-6075
p341
aVMNG-6074
p342
aVMNG-6073
p343
aVMNG-6072
p344
aVMNG-6071
p345
aVMNG-6070
p346
aVMNG-6069
p347
aVMNG-6068
p348
aVMNG-6067
p349
aVMNG-6066
p350
aVMNG-6065
p351
aVMNG-6064
p352
aVMNG-6063
p353
aVMNG-6062
p354
aVMNG-6061
p355
aVMNG-6060
p356
aVMNG-6059
p357
aVMNG-6058
p358
aVMNG-6057
p359
aVMNG-6056
p360
aVMNG-6055
p361
aVMNG-6054
p362
aVMNG-6053
p363
aVMNG-6052
p364
aVMNG-6051
p365
aVMNG-6050
p366
aVMNG-6049
p367
aVMNG-6047
p368
aVMNG-6046
p369
aVMNG-6045
p370
aVMNG-6044
p371
aVMNG-6043
p372
aVMNG-6042
p373
aVMNG-6041
p374
aVMNG-6040
p375
aVMNG-6038
p376
aVMNG-6037
p377
aVMNG-6036
p378
aVMNG-6035
p379
aVMNG-6034
p380
aVMNG-6032
p381
aVMNG-6031
p382
aVMNG-6030
p383
aVMNG-6029
p384
aVMNG-6028
p385
aVMNG-6027
p386
aVMNG-6026
p387
aVMNG-6025
p388
aVMNG-6024
p389
aVMNG-6023
p390
aVMNG-6022
p391
aVMNG-6021
p392
aVMNG-6020
p393
aVMNG-6019
p394
aVMNG-6018
p395
aVMNG-6017
p396
aVMNG-6016
p397
aVMNG-6015
p398
aVMNG-6014
p399
aVMNG-6013
p400
aVMNG-6012
p401
aVMNG-6011
p402
aVMNG-6010
p403
aVMNG-6009
p404
aVMNG-6008
p405
aVMNG-6007
p406
aVMNG-6006
p407
aVMNG-6005
p408
aVMNG-6004
p409
aVMNG-6003
p410
aVMNG-6002
p411
aVMNG-6001
p412
aVMNG-6000
p413
aVMNG-5999
p414
aVMNG-5998
p415
aVMNG-5997
p416
aVMNG-5996
p417
aVMNG-5995
p418
aVMNG-5994
p419
aVMNG-5993
p420
aVMNG-5992
p421
aVMNG-5991
p422
aVMNG-5988
p423
aVMNG-5987
p424
aVMNG-5986
p425
aVMNG-5985
p426
aVMNG-5984
p427
aVMNG-5983
p428
aVMNG-5982
p429
aVMNG-5981
p430
aVMNG-5980
p431
aVMNG-5979
p432
aVMNG-5978
p433
aVMNG-5977
p434
aVMNG-5976
p435
aVMNG-5975
p436
aVMNG-5974
p437
aVMNG-5973
p438
aVMNG-5972
p439
aVMNG-5971
p440
aVMNG-5970
p441
aVMNG-5969
p442
aVMNG-5968
p443
aVMNG-5967
p444
aVMNG-5966
p445
aVMNG-5965
p446
aVMNG-5964
p447
aVMNG-5963
p448
aVMNG-5962
p449
aVMNG-5961
p450
aVMNG-5960
p451
aVMNG-5959
p452
aVMNG-5958
p453
aVMNG-5957
p454
aVMNG-5956
p455
aVMNG-5955
p456
aVMNG-5954
p457
aVMNG-5953
p458
aVMNG-5952
p459
aVMNG-5951
p460
aVMNG-5950
p461
aVMNG-5949
p462
aVMNG-5948
p463
aVMNG-5947
p464
aVMNG-5946
p465
aVMNG-5945
p466
aVMNG-5944
p467
aVMNG-5943
p468
aVMNG-5942
p469
aVMNG-5941
p470
aVMNG-5940
p471
aVMNG-5939
p472
aVMNG-5938
p473
aVMNG-5937
p474
aVMNG-5935
p475
aVMNG-5934
p476
aVMNG-5932
p477
aVMNG-5931
p478
aVMNG-5930
p479
aVMNG-5929
p480
aVMNG-5927
p481
aVMNG-5926
p482
aVMNG-5925
p483
aVMNG-5924
p484
aVMNG-5923
p485
aVMNG-5922
p486
aVMNG-5921
p487
aVMNG-5920
p488
aVMNG-5919
p489
aVMNG-5918
p490
aVMNG-5917
p491
aVMNG-5916
p492
aVMNG-5915
p493
aVMNG-5914
p494
aVMNG-5913
p495
aVMNG-5912
p496
aVMNG-5911
p497
aVMNG-5910
p498
aVMNG-5909
p499
aVMNG-5908
p500
aVMNG-5907
p501
aVMNG-5906
p502
aVMNG-5905
p503
aVMNG-5904
p504
aVMNG-5903
p505
aVMNG-5901
p506
aVMNG-5900
p507
aVMNG-5899
p508
aVMNG-5898
p509
aVMNG-5897
p510
aVMNG-5896
p511
aVMNG-5895
p512
aVMNG-5894
p513
aVMNG-5893
p514
aVMNG-5892
p515
aVMNG-5891
p516
aVMNG-5890
p517
aVMNG-5889
p518
aVMNG-5888
p519
aVMNG-5887
p520
aVMNG-5886
p521
aVMNG-5885
p522
aVMNG-5884
p523
aVMNG-5883
p524
aVMNG-5882
p525
aVMNG-5881
p526
aVMNG-5879
p527
aVMNG-5878
p528
aVMNG-5877
p529
aVMNG-5875
p530
aVMNG-5874
p531
aVMNG-5873
p532
aVMNG-5872
p533
aVMNG-5871
p534
aVMNG-5870
p535
aVMNG-5869
p536
aVMNG-5868
p537
aVMNG-5867
p538
aVMNG-5866
p539
aVMNG-5864
p540
aVMNG-5863
p541
aVMNG-5862
p542
aVMNG-5861
p543
aVMNG-5860
p544
aVMNG-5859
p545
aVMNG-5858
p546
aVMNG-5857
p547
aVMNG-5856
p548
aVMNG-5855
p549
aVMNG-5854
p550
aVMNG-5853
p551
aVMNG-5852
p552
aVMNG-5851
p553
aVMNG-5850
p554
aVMNG-5849
p555
aVMNG-5848
p556
aVMNG-5847
p557
aVMNG-5846
p558
aVMNG-5845
p559
aVMNG-5844
p560
aVMNG-5843
p561
aVMNG-5842
p562
aVMNG-5841
p563
aVMNG-5840
p564
aVMNG-5839
p565
aVMNG-5838
p566
aVMNG-5837
p567
aVMNG-5836
p568
aVMNG-5835
p569
aVMNG-5834
p570
aVMNG-5833
p571
aVMNG-5832
p572
aVMNG-5831
p573
aVMNG-5830
p574
aVMNG-5829
p575
aVMNG-5828
p576
aVMNG-5827
p577
aVMNG-5826
p578
aVMNG-5825
p579
aVMNG-5824
p580
aVMNG-5823
p581
aVMNG-5822
p582
aVMNG-5820
p583
aVMNG-5819
p584
aVMNG-5818
p585
aVMNG-5817
p586
aVMNG-5816
p587
aVMNG-5815
p588
aVMNG-5814
p589
aVMNG-5813
p590
aVMNG-5812
p591
aVMNG-5811
p592
aVMNG-5810
p593
aVMNG-5808
p594
aVMNG-5807
p595
aVMNG-5806
p596
aVMNG-5805
p597
aVMNG-5804
p598
aVMNG-5803
p599
aVMNG-5802
p600
aVMNG-5800
p601
aVMNG-5799
p602
aVMNG-5798
p603
aVMNG-5797
p604
aVMNG-5796
p605
aVMNG-5795
p606
aVMNG-5794
p607
aVMNG-5793
p608
aVMNG-5792
p609
aVMNG-5791
p610
aVMNG-5790
p611
aVMNG-5789
p612
aVMNG-5788
p613
aVMNG-5787
p614
aVMNG-5786
p615
aVMNG-5785
p616
aVMNG-5784
p617
aVMNG-5783
p618
aVMNG-5782
p619
aVMNG-5781
p620
aVMNG-5780
p621
aVMNG-5779
p622
aVMNG-5778
p623
aVMNG-5777
p624
aVMNG-5776
p625
aVMNG-5775
p626
aVMNG-5774
p627
aVMNG-5773
p628
aVMNG-5772
p629
aVMNG-5771
p630
aVMNG-5770
p631
aVMNG-5769
p632
aVMNG-5768
p633
aVMNG-5767
p634
aVMNG-5766
p635
aVMNG-5765
p636
aVMNG-5764
p637
aVMNG-5763
p638
aVMNG-5762
p639
aVMNG-5761
p640
aVMNG-5760
p641
aVMNG-5759
p642
aVMNG-5758
p643
aVMNG-5757
p644
aVMNG-5756
p645
aVMNG-5755
p646
aVMNG-5754
p647
aVMNG-5753
p648
aVMNG-5752
p649
aVMNG-5751
p650
aVMNG-5750
p651
aVMNG-5749
p652
aVMNG-5748
p653
aVMNG-5747
p654
aVMNG-5745
p655
aVMNG-5744
p656
aVMNG-5743
p657
aVMNG-5742
p658
aVMNG-5741
p659
aVMNG-5740
p660
aVMNG-5739
p661
aVMNG-5738
p662
aVMNG-5736
p663
aVMNG-5735
p664
aVMNG-5734
p665
aVMNG-5733
p666
aVMNG-5732
p667
aVMNG-5731
p668
aVMNG-5730
p669
aVMNG-5729
p670
aVMNG-5728
p671
aVMNG-5727
p672
aVMNG-5726
p673
aVMNG-5725
p674
aVMNG-5724
p675
aVMNG-5723
p676
aVMNG-5722
p677
aVMNG-5721
p678
aVMNG-5720
p679
aVMNG-5719
p680
aVMNG-5718
p681
aVMNG-5717
p682
aVMNG-5716
p683
aVMNG-5715
p684
aVMNG-5714
p685
aVMNG-5713
p686
aVMNG-5712
p687
aVMNG-5711
p688
aVMNG-5710
p689
aVMNG-5708
p690
aVMNG-5707
p691
aVMNG-5706
p692
aVMNG-5705
p693
aVMNG-5704
p694
aVMNG-5703
p695
aVMNG-5702
p696
aVMNG-5700
p697
aVMNG-5699
p698
aVMNG-5698
p699
aVMNG-5697
p700
aVMNG-5696
p701
aVMNG-5695
p702
aVMNG-5694
p703
aVMNG-5693
p704
aVMNG-5692
p705
aVMNG-5691
p706
aVMNG-5690
p707
aVMNG-5689
p708
aVMNG-5688
p709
aVMNG-5687
p710
aVMNG-5686
p711
aVMNG-5685
p712
aVMNG-5684
p713
aVMNG-5683
p714
aVMNG-5682
p715
aVMNG-5681
p716
aVMNG-5680
p717
aVMNG-5679
p718
aVMNG-5678
p719
aVMNG-5677
p720
aVMNG-5676
p721
aVMNG-5675
p722
aVMNG-5674
p723
aVMNG-5673
p724
aVMNG-5672
p725
aVMNG-5671
p726
aVMNG-5670
p727
aVMNG-5669
p728
aVMNG-5668
p729
aVMNG-5667
p730
aVMNG-5666
p731
aVMNG-5665
p732
aVMNG-5663
p733
aVMNG-5662
p734
aVMNG-5661
p735
aVMNG-5660
p736
aVMNG-5659
p737
aVMNG-5658
p738
aVMNG-5657
p739
aVMNG-5656
p740
aVMNG-5655
p741
aVMNG-5654
p742
aVMNG-5653
p743
aVMNG-5652
p744
aVMNG-5651
p745
aVMNG-5650
p746
aVMNG-5649
p747
aVMNG-5648
p748
aVMNG-5647
p749
aVMNG-5646
p750
aVMNG-5645
p751
aVMNG-5644
p752
aVMNG-5643
p753
aVMNG-5642
p754
aVMNG-5641
p755
aVMNG-5640
p756
aVMNG-5639
p757
aVMNG-5638
p758
aVMNG-5637
p759
aVMNG-5636
p760
aVMNG-5635
p761
aVMNG-5634
p762
aVMNG-5633
p763
aVMNG-5632
p764
aVMNG-5631
p765
aVMNG-5630
p766
aVMNG-5629
p767
aVMNG-5628
p768
aVMNG-5626
p769
aVMNG-5625
p770
aVMNG-5624
p771
aVMNG-5623
p772
aVMNG-5622
p773
aVMNG-5621
p774
aVMNG-5620
p775
aVMNG-5619
p776
aVMNG-5618
p777
aVMNG-5617
p778
aVMNG-5616
p779
aVMNG-5615
p780
aVMNG-5614
p781
aVMNG-5613
p782
aVMNG-5612
p783
aVMNG-5611
p784
aVMNG-5610
p785
aVMNG-5609
p786
aVMNG-5608
p787
aVMNG-5607
p788
aVMNG-5606
p789
aVMNG-5605
p790
aVMNG-5604
p791
aVMNG-5603
p792
aVMNG-5602
p793
aVMNG-5601
p794
aVMNG-5600
p795
aVMNG-5599
p796
aVMNG-5598
p797
aVMNG-5597
p798
aVMNG-5596
p799
aVMNG-5595
p800
aVMNG-5594
p801
aVMNG-5593
p802
aVMNG-5592
p803
aVMNG-5591
p804
aVMNG-5590
p805
aVMNG-5589
p806
aVMNG-5588
p807
aVMNG-5587
p808
aVMNG-5586
p809
aVMNG-5585
p810
aVMNG-5584
p811
aVMNG-5583
p812
aVMNG-5582
p813
aVMNG-5581
p814
aVMNG-5580
p815
aVMNG-5579
p816
aVMNG-5578
p817
aVMNG-5577
p818
aVMNG-5576
p819
aVMNG-5575
p820
aVMNG-5574
p821
aVMNG-5573
p822
aVMNG-5572
p823
aVMNG-5571
p824
aVMNG-5570
p825
aVMNG-5569
p826
aVMNG-5568
p827
aVMNG-5567
p828
aVMNG-5566
p829
aVMNG-5565
p830
aVMNG-5564
p831
aVMNG-5563
p832
aVMNG-5562
p833
aVMNG-5561
p834
aVMNG-5559
p835
aVMNG-5558
p836
aVMNG-5557
p837
aVMNG-5556
p838
aVMNG-5555
p839
aVMNG-5554
p840
aVMNG-5553
p841
aVMNG-5552
p842
aVMNG-5551
p843
aVMNG-5550
p844
aVMNG-5549
p845
aVMNG-5547
p846
aVMNG-5546
p847
aVMNG-5545
p848
aVMNG-5544
p849
aVMNG-5543
p850
aVMNG-5542
p851
aVMNG-5541
p852
aVMNG-5540
p853
aVMNG-5539
p854
aVMNG-5538
p855
aVMNG-5537
p856
aVMNG-5536
p857
aVMNG-5535
p858
aVMNG-5534
p859
aVMNG-5533
p860
aVMNG-5532
p861
aVMNG-5530
p862
aVMNG-5529
p863
aVMNG-5528
p864
aVMNG-5527
p865
aVMNG-5526
p866
aVMNG-5525
p867
aVMNG-5523
p868
aVMNG-5522
p869
aVMNG-5521
p870
aVMNG-5520
p871
aVMNG-5519
p872
aVMNG-5517
p873
aVMNG-5516
p874
aVMNG-5515
p875
aVMNG-5514
p876
aVMNG-5513
p877
aVMNG-5512
p878
aVMNG-5511
p879
aVMNG-5510
p880
aVMNG-5509
p881
aVMNG-5507
p882
aVMNG-5506
p883
aVMNG-5505
p884
aVMNG-5504
p885
aVMNG-5503
p886
aVMNG-5502
p887
aVMNG-5501
p888
aVMNG-5500
p889
aVMNG-5499
p890
aVMNG-5498
p891
aVMNG-5497
p892
aVMNG-5496
p893
aVMNG-5495
p894
aVMNG-5494
p895
aVMNG-5493
p896
aVMNG-5492
p897
aVMNG-5491
p898
aVMNG-5490
p899
aVMNG-5489
p900
aVMNG-5488
p901
aVMNG-5487
p902
aVMNG-5486
p903
aVMNG-5485
p904
aVMNG-5484
p905
aVMNG-5483
p906
aVMNG-5482
p907
aVMNG-5481
p908
aVMNG-5480
p909
aVMNG-5479
p910
aVMNG-5478
p911
aVMNG-5477
p912
aVMNG-5476
p913
aVMNG-5475
p914
aVMNG-5474
p915
aVMNG-5473
p916
aVMNG-5472
p917
aVMNG-5470
p918
aVMNG-5469
p919
aVMNG-5468
p920
aVMNG-5467
p921
aVMNG-5466
p922
aVMNG-5465
p923
aVMNG-5464
p924
aVMNG-5463
p925
aVMNG-5462
p926
aVMNG-5461
p927
aVMNG-5460
p928
aVMNG-5459
p929
aVMNG-5458
p930
aVMNG-5457
p931
aVMNG-5456
p932
aVMNG-5455
p933
aVMNG-5454
p934
aVMNG-5453
p935
aVMNG-5452
p936
aVMNG-5451
p937
aVMNG-5450
p938
aVMNG-5449
p939
aVMNG-5448
p940
aVMNG-5447
p941
aVMNG-5446
p942
aVMNG-5445
p943
aVMNG-5444
p944
aVMNG-5442
p945
aVMNG-5441
p946
aVMNG-5440
p947
aVMNG-5439
p948
aVMNG-5438
p949
aVMNG-5437
p950
aVMNG-5436
p951
aVMNG-5435
p952
aVMNG-5434
p953
aVMNG-5432
p954
aVMNG-5431
p955
aVMNG-5430
p956
aVMNG-5429
p957
aVMNG-5428
p958
aVMNG-5426
p959
aVMNG-5425
p960
aVMNG-5424
p961
aVMNG-5423
p962
aVMNG-5422
p963
aVMNG-5421
p964
aVMNG-5420
p965
aVMNG-5418
p966
aVMNG-5416
p967
aVMNG-5415
p968
aVMNG-5414
p969
aVMNG-5412
p970
aVMNG-5411
p971
aVMNG-5410
p972
aVMNG-5409
p973
aVMNG-5408
p974
aVMNG-5407
p975
aVMNG-5406
p976
aVMNG-5404
p977
aVMNG-5403
p978
aVMNG-5402
p979
aVMNG-5401
p980
aVMNG-5400
p981
aVMNG-5399
p982
aVMNG-5398
p983
aVMNG-5397
p984
aVMNG-5396
p985
aVMNG-5395
p986
aVMNG-5394
p987
aVMNG-5393
p988
aVMNG-5392
p989
aVMNG-5391
p990
aVMNG-5390
p991
aVMNG-5389
p992
aVMNG-5388
p993
aVMNG-5387
p994
aVMNG-5386
p995
aVMNG-5385
p996
aVMNG-5384
p997
aVMNG-5383
p998
aVMNG-5382
p999
aVMNG-5381
p1000
aVMNG-5380
p1001
aVMNG-5379
p1002
aVMNG-5378
p1003
aVMNG-5377
p1004
aVMNG-5376
p1005
aVMNG-5375
p1006
aVMNG-5374
p1007
aVMNG-5373
p1008
aVMNG-5372
p1009
aVMNG-5371
p1010
aVMNG-5370
p1011
aVMNG-5369
p1012
aVMNG-5368
p1013
aVMNG-5366
p1014
aVMNG-5365
p1015
aVMNG-5364
p1016
aVMNG-5362
p1017
aVMNG-5361
p1018
aVMNG-5360
p1019
aVMNG-5359
p1020
aVMNG-5358
p1021
aVMNG-5356
p1022
aVMNG-5354
p1023
aVMNG-5353
p1024
aVMNG-5352
p1025
aVMNG-5350
p1026
aVMNG-5349
p1027
aVMNG-5348
p1028
aVMNG-5347
p1029
aVMNG-5346
p1030
aVMNG-5345
p1031
aVMNG-5344
p1032
aVMNG-5343
p1033
aVMNG-5342
p1034
aVMNG-5341
p1035
aVMNG-5338
p1036
aVMNG-5337
p1037
aVMNG-5336
p1038
aVMNG-5335
p1039
aVMNG-5334
p1040
aVMNG-5333
p1041
aVMNG-5332
p1042
aVMNG-5331
p1043
aVMNG-5330
p1044
aVMNG-5329
p1045
aVMNG-5328
p1046
aVMNG-5326
p1047
aVMNG-5325
p1048
aVMNG-5324
p1049
aVMNG-5323
p1050
aVMNG-5322
p1051
aVMNG-5321
p1052
aVMNG-5320
p1053
aVMNG-5319
p1054
aVMNG-5318
p1055
aVMNG-5317
p1056
aVMNG-5316
p1057
aVMNG-5315
p1058
aVMNG-5314
p1059
aVMNG-5313
p1060
aVMNG-5312
p1061
aVMNG-5311
p1062
aVMNG-5310
p1063
aVMNG-5309
p1064
aVMNG-5308
p1065
aVMNG-5307
p1066
aVMNG-5306
p1067
aVMNG-5305
p1068
aVMNG-5303
p1069
aVMNG-5302
p1070
aVMNG-5301
p1071
aVMNG-5300
p1072
aVMNG-5299
p1073
aVMNG-5298
p1074
aVMNG-5297
p1075
aVMNG-5296
p1076
aVMNG-5295
p1077
aVMNG-5294
p1078
aVMNG-5293
p1079
aVMNG-5292
p1080
aVMNG-5290
p1081
aVMNG-5289
p1082
aVMNG-5288
p1083
aVMNG-5287
p1084
aVMNG-5286
p1085
aVMNG-5285
p1086
aVMNG-5283
p1087
aVMNG-5282
p1088
aVMNG-5281
p1089
aVMNG-5280
p1090
aVMNG-5279
p1091
aVMNG-5277
p1092
aVMNG-5276
p1093
aVMNG-5275
p1094
aVMNG-5273
p1095
aVMNG-5271
p1096
aVMNG-5270
p1097
aVMNG-5269
p1098
aVMNG-5268
p1099
aVMNG-5267
p1100
aVMNG-5266
p1101
aVMNG-5265
p1102
aVMNG-5264
p1103
aVMNG-5263
p1104
aVMNG-5261
p1105
aVMNG-5260
p1106
aVMNG-5259
p1107
aVMNG-5258
p1108
aVMNG-5257
p1109
aVMNG-5256
p1110
aVMNG-5255
p1111
aVMNG-5253
p1112
aVMNG-5252
p1113
aVMNG-5251
p1114
aVMNG-5250
p1115
aVMNG-5249
p1116
aVMNG-5247
p1117
aVMNG-5246
p1118
aVMNG-5245
p1119
aVMNG-5244
p1120
aVMNG-5243
p1121
aVMNG-5242
p1122
aVMNG-5241
p1123
aVMNG-5240
p1124
aVMNG-5239
p1125
aVMNG-5238
p1126
aVMNG-5237
p1127
aVMNG-5236
p1128
aVMNG-5235
p1129
aVMNG-5234
p1130
aVMNG-5233
p1131
aVMNG-5231
p1132
aVMNG-5230
p1133
aVMNG-5229
p1134
aVMNG-5228
p1135
aVMNG-5227
p1136
aVMNG-5226
p1137
aVMNG-5225
p1138
aVMNG-5224
p1139
aVMNG-5222
p1140
aVMNG-5221
p1141
aVMNG-5220
p1142
aVMNG-5219
p1143
aVMNG-5218
p1144
aVMNG-5217
p1145
aVMNG-5216
p1146
aVMNG-5214
p1147
aVMNG-5213
p1148
aVMNG-5212
p1149
aVMNG-5211
p1150
aVMNG-5210
p1151
aVMNG-5209
p1152
aVMNG-5208
p1153
aVMNG-5207
p1154
aVMNG-5206
p1155
aVMNG-5205
p1156
aVMNG-5203
p1157
aVMNG-5201
p1158
aVMNG-5200
p1159
aVMNG-5199
p1160
aVMNG-5198
p1161
aVMNG-5197
p1162
aVMNG-5196
p1163
aVMNG-5195
p1164
aVMNG-5194
p1165
aVMNG-5193
p1166
aVMNG-5192
p1167
aVMNG-5191
p1168
aVMNG-5189
p1169
aVMNG-5188
p1170
aVMNG-5185
p1171
aVMNG-5184
p1172
aVMNG-5183
p1173
aVMNG-5182
p1174
aVMNG-5181
p1175
aVMNG-5180
p1176
aVMNG-5178
p1177
aVMNG-5177
p1178
aVMNG-5176
p1179
aVMNG-5175
p1180
aVMNG-5174
p1181
aVMNG-5173
p1182
aVMNG-5172
p1183
aVMNG-5171
p1184
aVMNG-5170
p1185
aVMNG-5169
p1186
aVMNG-5168
p1187
aVMNG-5167
p1188
aVMNG-5166
p1189
aVMNG-5165
p1190
aVMNG-5164
p1191
aVMNG-5163
p1192
aVMNG-5162
p1193
aVMNG-5159
p1194
aVMNG-5158
p1195
aVMNG-5157
p1196
aVMNG-5156
p1197
aVMNG-5155
p1198
aVMNG-5154
p1199
aVMNG-5153
p1200
aVMNG-5152
p1201
aVMNG-5151
p1202
aVMNG-5150
p1203
aVMNG-5149
p1204
aVMNG-5148
p1205
aVMNG-5147
p1206
aVMNG-5146
p1207
aVMNG-5145
p1208
aVMNG-5144
p1209
aVMNG-5143
p1210
aVMNG-5142
p1211
aVMNG-5141
p1212
aVMNG-5140
p1213
aVMNG-5139
p1214
aVMNG-5138
p1215
aVMNG-5137
p1216
aVMNG-5136
p1217
aVMNG-5135
p1218
aVMNG-5134
p1219
aVMNG-5133
p1220
aVMNG-5131
p1221
aVMNG-5130
p1222
aVMNG-5129
p1223
aVMNG-5128
p1224
aVMNG-5127
p1225
aVMNG-5126
p1226
aVMNG-5125
p1227
aVMNG-5124
p1228
aVMNG-5123
p1229
aVMNG-5122
p1230
aVMNG-5121
p1231
aVMNG-5120
p1232
aVMNG-5119
p1233
aVMNG-5118
p1234
aVMNG-5117
p1235
aVMNG-5116
p1236
aVMNG-5115
p1237
aVMNG-5114
p1238
aVMNG-5113
p1239
aVMNG-5112
p1240
aVMNG-5109
p1241
aVMNG-5108
p1242
aVMNG-5107
p1243
aVMNG-5105
p1244
aVMNG-5104
p1245
aVMNG-5103
p1246
aVMNG-5102
p1247
aVMNG-5101
p1248
aVMNG-5100
p1249
aVMNG-5099
p1250
aVMNG-5098
p1251
aVMNG-5097
p1252
aVMNG-5096
p1253
aVMNG-5095
p1254
aVMNG-5094
p1255
aVMNG-5093
p1256
aVMNG-5092
p1257
aVMNG-5091
p1258
aVMNG-5090
p1259
aVMNG-5088
p1260
aVMNG-5087
p1261
aVMNG-5086
p1262
aVMNG-5085
p1263
aVMNG-5084
p1264
aVMNG-5083
p1265
aVMNG-5082
p1266
aVMNG-5080
p1267
aVMNG-5078
p1268
aVMNG-5077
p1269
aVMNG-5076
p1270
aVMNG-5075
p1271
aVMNG-5074
p1272
aVMNG-5073
p1273
aVMNG-5072
p1274
aVMNG-5066
p1275
aVMNG-5065
p1276
aVMNG-5064
p1277
aVMNG-5063
p1278
aVMNG-5062
p1279
aVMNG-5061
p1280
aVMNG-5060
p1281
aVMNG-5059
p1282
aVMNG-5057
p1283
aVMNG-5056
p1284
aVMNG-5055
p1285
aVMNG-5054
p1286
aVMNG-5053
p1287
aVMNG-5052
p1288
aVMNG-5051
p1289
aVMNG-5048
p1290
aVMNG-5047
p1291
aVMNG-5046
p1292
aVMNG-5045
p1293
aVMNG-5044
p1294
aVMNG-5043
p1295
aVMNG-5042
p1296
aVMNG-5041
p1297
aVMNG-5039
p1298
aVMNG-5038
p1299
aVMNG-5037
p1300
aVMNG-5036
p1301
aVMNG-5035
p1302
aVMNG-5034
p1303
aVMNG-5033
p1304
aVMNG-5032
p1305
aVMNG-5030
p1306
aVMNG-5029
p1307
aVMNG-5028
p1308
aVMNG-5027
p1309
aVMNG-5026
p1310
aVMNG-5025
p1311
aVMNG-5024
p1312
aVMNG-5023
p1313
aVMNG-5021
p1314
aVMNG-5020
p1315
aVMNG-5019
p1316
aVMNG-5018
p1317
aVMNG-5017
p1318
aVMNG-5016
p1319
aVMNG-5015
p1320
aVMNG-5014
p1321
aVMNG-5013
p1322
aVMNG-5012
p1323
aVMNG-5011
p1324
aVMNG-5009
p1325
aVMNG-5008
p1326
aVMNG-5007
p1327
aVMNG-5006
p1328
aVMNG-5005
p1329
aVMNG-5004
p1330
aVMNG-5003
p1331
aVMNG-5002
p1332
aVMNG-5001
p1333
aVMNG-5000
p1334
aVMNG-4999
p1335
aVMNG-4998
p1336
aVMNG-4997
p1337
aVMNG-4996
p1338
aVMNG-4994
p1339
aVMNG-4993
p1340
aVMNG-4992
p1341
aVMNG-4991
p1342
aVMNG-4990
p1343
aVMNG-4989
p1344
aVMNG-4988
p1345
aVMNG-4987
p1346
aVMNG-4986
p1347
aVMNG-4985
p1348
aVMNG-4984
p1349
aVMNG-4983
p1350
aVMNG-4982
p1351
aVMNG-4980
p1352
aVMNG-4979
p1353
aVMNG-4976
p1354
aVMNG-4975
p1355
aVMNG-4973
p1356
aVMNG-4972
p1357
aVMNG-4971
p1358
aVMNG-4970
p1359
aVMNG-4969
p1360
aVMNG-4968
p1361
aVMNG-4967
p1362
aVMNG-4966
p1363
aVMNG-4965
p1364
aVMNG-4964
p1365
aVMNG-4963
p1366
aVMNG-4962
p1367
aVMNG-4961
p1368
aVMNG-4960
p1369
aVMNG-4959
p1370
aVMNG-4958
p1371
aVMNG-4957
p1372
aVMNG-4956
p1373
aVMNG-4955
p1374
aVMNG-4954
p1375
aVMNG-4953
p1376
aVMNG-4952
p1377
aVMNG-4951
p1378
aVMNG-4950
p1379
aVMNG-4948
p1380
aVMNG-4947
p1381
aVMNG-4946
p1382
aVMNG-4945
p1383
aVMNG-4944
p1384
aVMNG-4943
p1385
aVMNG-4942
p1386
aVMNG-4941
p1387
aVMNG-4939
p1388
aVMNG-4938
p1389
aVMNG-4937
p1390
aVMNG-4936
p1391
aVMNG-4935
p1392
aVMNG-4934
p1393
aVMNG-4933
p1394
aVMNG-4932
p1395
aVMNG-4930
p1396
aVMNG-4929
p1397
aVMNG-4928
p1398
aVMNG-4927
p1399
aVMNG-4926
p1400
aVMNG-4925
p1401
aVMNG-4924
p1402
aVMNG-4923
p1403
aVMNG-4922
p1404
aVMNG-4921
p1405
aVMNG-4920
p1406
aVMNG-4919
p1407
aVMNG-4918
p1408
aVMNG-4917
p1409
aVMNG-4916
p1410
aVMNG-4915
p1411
aVMNG-4914
p1412
aVMNG-4913
p1413
aVMNG-4912
p1414
aVMNG-4911
p1415
aVMNG-4910
p1416
aVMNG-4909
p1417
aVMNG-4907
p1418
aVMNG-4906
p1419
aVMNG-4905
p1420
aVMNG-4904
p1421
aVMNG-4903
p1422
aVMNG-4902
p1423
aVMNG-4900
p1424
aVMNG-4899
p1425
aVMNG-4898
p1426
aVMNG-4897
p1427
aVMNG-4896
p1428
aVMNG-4895
p1429
aVMNG-4894
p1430
aVMNG-4893
p1431
aVMNG-4892
p1432
aVMNG-4891
p1433
aVMNG-4890
p1434
aVMNG-4889
p1435
aVMNG-4887
p1436
aVMNG-4886
p1437
aVMNG-4885
p1438
aVMNG-4884
p1439
aVMNG-4883
p1440
aVMNG-4882
p1441
aVMNG-4881
p1442
aVMNG-4879
p1443
aVMNG-4878
p1444
aVMNG-4877
p1445
aVMNG-4875
p1446
aVMNG-4874
p1447
aVMNG-4872
p1448
aVMNG-4871
p1449
aVMNG-4869
p1450
aVMNG-4867
p1451
aVMNG-4866
p1452
aVMNG-4865
p1453
aVMNG-4864
p1454
aVMNG-4863
p1455
aVMNG-4862
p1456
aVMNG-4861
p1457
aVMNG-4860
p1458
aVMNG-4859
p1459
aVMNG-4858
p1460
aVMNG-4857
p1461
aVMNG-4856
p1462
aVMNG-4855
p1463
aVMNG-4854
p1464
aVMNG-4853
p1465
aVMNG-4851
p1466
aVMNG-4850
p1467
aVMNG-4849
p1468
aVMNG-4847
p1469
aVMNG-4846
p1470
aVMNG-4845
p1471
aVMNG-4844
p1472
aVMNG-4843
p1473
aVMNG-4842
p1474
aVMNG-4841
p1475
aVMNG-4840
p1476
aVMNG-4839
p1477
aVMNG-4838
p1478
aVMNG-4837
p1479
aVMNG-4836
p1480
aVMNG-4834
p1481
aVMNG-4832
p1482
aVMNG-4831
p1483
aVMNG-4830
p1484
aVMNG-4829
p1485
aVMNG-4828
p1486
aVMNG-4827
p1487
aVMNG-4826
p1488
aVMNG-4825
p1489
aVMNG-4824
p1490
aVMNG-4823
p1491
aVMNG-4822
p1492
aVMNG-4821
p1493
aVMNG-4819
p1494
aVMNG-4818
p1495
aVMNG-4817
p1496
aVMNG-4816
p1497
aVMNG-4815
p1498
aVMNG-4814
p1499
aVMNG-4813
p1500
aVMNG-4812
p1501
aVMNG-4811
p1502
aVMNG-4810
p1503
aVMNG-4809
p1504
aVMNG-4808
p1505
aVMNG-4807
p1506
aVMNG-4806
p1507
aVMNG-4805
p1508
aVMNG-4804
p1509
aVMNG-4803
p1510
aVMNG-4802
p1511
aVMNG-4800
p1512
aVMNG-4799
p1513
aVMNG-4798
p1514
aVMNG-4797
p1515
aVMNG-4796
p1516
aVMNG-4795
p1517
aVMNG-4794
p1518
aVMNG-4793
p1519
aVMNG-4792
p1520
aVMNG-4791
p1521
aVMNG-4790
p1522
aVMNG-4789
p1523
aVMNG-4788
p1524
aVMNG-4787
p1525
aVMNG-4786
p1526
aVMNG-4785
p1527
aVMNG-4782
p1528
aVMNG-4781
p1529
aVMNG-4780
p1530
aVMNG-4779
p1531
aVMNG-4778
p1532
aVMNG-4777
p1533
aVMNG-4776
p1534
aVMNG-4775
p1535
aVMNG-4774
p1536
aVMNG-4773
p1537
aVMNG-4772
p1538
aVMNG-4771
p1539
aVMNG-4770
p1540
aVMNG-4769
p1541
aVMNG-4768
p1542
aVMNG-4767
p1543
aVMNG-4766
p1544
aVMNG-4765
p1545
aVMNG-4764
p1546
aVMNG-4763
p1547
aVMNG-4762
p1548
aVMNG-4761
p1549
aVMNG-4760
p1550
aVMNG-4759
p1551
aVMNG-4758
p1552
aVMNG-4757
p1553
aVMNG-4756
p1554
aVMNG-4755
p1555
aVMNG-4754
p1556
aVMNG-4753
p1557
aVMNG-4752
p1558
aVMNG-4751
p1559
aVMNG-4750
p1560
aVMNG-4749
p1561
aVMNG-4748
p1562
aVMNG-4747
p1563
aVMNG-4746
p1564
aVMNG-4745
p1565
aVMNG-4744
p1566
aVMNG-4742
p1567
aVMNG-4741
p1568
aVMNG-4740
p1569
aVMNG-4739
p1570
aVMNG-4738
p1571
aVMNG-4737
p1572
aVMNG-4736
p1573
aVMNG-4735
p1574
aVMNG-4734
p1575
aVMNG-4733
p1576
aVMNG-4732
p1577
aVMNG-4731
p1578
aVMNG-4730
p1579
aVMNG-4729
p1580
aVMNG-4728
p1581
aVMNG-4727
p1582
aVMNG-4726
p1583
aVMNG-4725
p1584
aVMNG-4724
p1585
aVMNG-4723
p1586
aVMNG-4722
p1587
aVMNG-4721
p1588
aVMNG-4720
p1589
aVMNG-4718
p1590
aVMNG-4717
p1591
aVMNG-4716
p1592
aVMNG-4715
p1593
aVMNG-4714
p1594
aVMNG-4713
p1595
aVMNG-4712
p1596
aVMNG-4710
p1597
aVMNG-4709
p1598
aVMNG-4708
p1599
aVMNG-4706
p1600
aVMNG-4705
p1601
aVMNG-4704
p1602
aVMNG-4703
p1603
aVMNG-4701
p1604
aVMNG-4700
p1605
aVMNG-4699
p1606
aVMNG-4698
p1607
aVMNG-4697
p1608
aVMNG-4696
p1609
aVMNG-4695
p1610
aVMNG-4694
p1611
aVMNG-4693
p1612
aVMNG-4692
p1613
aVMNG-4691
p1614
aVMNG-4690
p1615
aVMNG-4688
p1616
aVMNG-4687
p1617
aVMNG-4686
p1618
aVMNG-4685
p1619
aVMNG-4684
p1620
aVMNG-4683
p1621
aVMNG-4682
p1622
aVMNG-4681
p1623
aVMNG-4680
p1624
aVMNG-4679
p1625
aVMNG-4678
p1626
aVMNG-4677
p1627
aVMNG-4675
p1628
aVMNG-4674
p1629
aVMNG-4673
p1630
aVMNG-4672
p1631
aVMNG-4671
p1632
aVMNG-4670
p1633
aVMNG-4669
p1634
aVMNG-4668
p1635
aVMNG-4667
p1636
aVMNG-4666
p1637
aVMNG-4665
p1638
aVMNG-4664
p1639
aVMNG-4663
p1640
aVMNG-4662
p1641
aVMNG-4661
p1642
aVMNG-4660
p1643
aVMNG-4659
p1644
aVMNG-4658
p1645
aVMNG-4657
p1646
aVMNG-4656
p1647
aVMNG-4655
p1648
aVMNG-4654
p1649
aVMNG-4652
p1650
aVMNG-4651
p1651
aVMNG-4650
p1652
aVMNG-4649
p1653
aVMNG-4648
p1654
aVMNG-4647
p1655
aVMNG-4646
p1656
aVMNG-4645
p1657
aVMNG-4644
p1658
aVMNG-4643
p1659
aVMNG-4642
p1660
aVMNG-4641
p1661
aVMNG-4639
p1662
aVMNG-4638
p1663
aVMNG-4637
p1664
aVMNG-4636
p1665
aVMNG-4635
p1666
aVMNG-4634
p1667
aVMNG-4633
p1668
aVMNG-4632
p1669
aVMNG-4631
p1670
aVMNG-4630
p1671
aVMNG-4629
p1672
aVMNG-4628
p1673
aVMNG-4627
p1674
aVMNG-4626
p1675
aVMNG-4625
p1676
aVMNG-4623
p1677
aVMNG-4622
p1678
aVMNG-4620
p1679
aVMNG-4619
p1680
aVMNG-4618
p1681
aVMNG-4617
p1682
aVMNG-4616
p1683
aVMNG-4615
p1684
aVMNG-4614
p1685
aVMNG-4612
p1686
aVMNG-4611
p1687
aVMNG-4610
p1688
aVMNG-4609
p1689
aVMNG-4608
p1690
aVMNG-4607
p1691
aVMNG-4606
p1692
aVMNG-4604
p1693
aVMNG-4602
p1694
aVMNG-4601
p1695
aVMNG-4600
p1696
aVMNG-4599
p1697
aVMNG-4598
p1698
aVMNG-4597
p1699
aVMNG-4595
p1700
aVMNG-4593
p1701
aVMNG-4592
p1702
aVMNG-4591
p1703
aVMNG-4590
p1704
aVMNG-4589
p1705
aVMNG-4588
p1706
aVMNG-4587
p1707
aVMNG-4586
p1708
aVMNG-4585
p1709
aVMNG-4584
p1710
aVMNG-4583
p1711
aVMNG-4582
p1712
aVMNG-4581
p1713
aVMNG-4580
p1714
aVMNG-4579
p1715
aVMNG-4578
p1716
aVMNG-4577
p1717
aVMNG-4576
p1718
aVMNG-4575
p1719
aVMNG-4574
p1720
aVMNG-4573
p1721
aVMNG-4572
p1722
aVMNG-4571
p1723
aVMNG-4570
p1724
aVMNG-4569
p1725
aVMNG-4568
p1726
aVMNG-4567
p1727
aVMNG-4566
p1728
aVMNG-4565
p1729
aVMNG-4564
p1730
aVMNG-4562
p1731
aVMNG-4561
p1732
aVMNG-4560
p1733
aVMNG-4559
p1734
aVMNG-4558
p1735
aVMNG-4556
p1736
aVMNG-4555
p1737
aVMNG-4554
p1738
aVMNG-4553
p1739
aVMNG-4552
p1740
aVMNG-4551
p1741
aVMNG-4550
p1742
aVMNG-4548
p1743
aVMNG-4546
p1744
aVMNG-4545
p1745
aVMNG-4544
p1746
aVMNG-4543
p1747
aVMNG-4542
p1748
aVMNG-4541
p1749
aVMNG-4540
p1750
aVMNG-4539
p1751
aVMNG-4538
p1752
aVMNG-4537
p1753
aVMNG-4536
p1754
aVMNG-4534
p1755
aVMNG-4533
p1756
aVMNG-4532
p1757
aVMNG-4531
p1758
aVMNG-4530
p1759
aVMNG-4529
p1760
aVMNG-4528
p1761
aVMNG-4527
p1762
aVMNG-4526
p1763
aVMNG-4525
p1764
aVMNG-4524
p1765
aVMNG-4523
p1766
aVMNG-4522
p1767
aVMNG-4521
p1768
aVMNG-4520
p1769
aVMNG-4518
p1770
aVMNG-4517
p1771
aVMNG-4516
p1772
aVMNG-4515
p1773
aVMNG-4514
p1774
aVMNG-4513
p1775
aVMNG-4512
p1776
aVMNG-4511
p1777
aVMNG-4510
p1778
aVMNG-4509
p1779
aVMNG-4508
p1780
aVMNG-4507
p1781
aVMNG-4506
p1782
aVMNG-4505
p1783
aVMNG-4504
p1784
aVMNG-4503
p1785
aVMNG-4501
p1786
aVMNG-4500
p1787
aVMNG-4499
p1788
aVMNG-4498
p1789
aVMNG-4496
p1790
aVMNG-4495
p1791
aVMNG-4494
p1792
aVMNG-4493
p1793
aVMNG-4492
p1794
aVMNG-4491
p1795
aVMNG-4490
p1796
aVMNG-4489
p1797
aVMNG-4488
p1798
aVMNG-4487
p1799
aVMNG-4486
p1800
aVMNG-4485
p1801
aVMNG-4484
p1802
aVMNG-4483
p1803
aVMNG-4482
p1804
aVMNG-4481
p1805
aVMNG-4480
p1806
aVMNG-4479
p1807
aVMNG-4478
p1808
aVMNG-4477
p1809
aVMNG-4476
p1810
aVMNG-4475
p1811
aVMNG-4474
p1812
aVMNG-4472
p1813
aVMNG-4471
p1814
aVMNG-4470
p1815
aVMNG-4469
p1816
aVMNG-4468
p1817
aVMNG-4466
p1818
aVMNG-4465
p1819
aVMNG-4464
p1820
aVMNG-4463
p1821
aVMNG-4462
p1822
aVMNG-4461
p1823
aVMNG-4460
p1824
aVMNG-4459
p1825
aVMNG-4458
p1826
aVMNG-4457
p1827
aVMNG-4456
p1828
aVMNG-4455
p1829
aVMNG-4454
p1830
aVMNG-4453
p1831
aVMNG-4452
p1832
aVMNG-4451
p1833
aVMNG-4450
p1834
aVMNG-4449
p1835
aVMNG-4448
p1836
aVMNG-4447
p1837
aVMNG-4445
p1838
aVMNG-4444
p1839
aVMNG-4443
p1840
aVMNG-4442
p1841
aVMNG-4441
p1842
aVMNG-4440
p1843
aVMNG-4439
p1844
aVMNG-4438
p1845
aVMNG-4437
p1846
aVMNG-4436
p1847
aVMNG-4433
p1848
aVMNG-4432
p1849
aVMNG-4431
p1850
aVMNG-4430
p1851
aVMNG-4429
p1852
aVMNG-4427
p1853
aVMNG-4426
p1854
aVMNG-4425
p1855
aVMNG-4424
p1856
aVMNG-4423
p1857
aVMNG-4422
p1858
aVMNG-4421
p1859
aVMNG-4420
p1860
aVMNG-4419
p1861
aVMNG-4418
p1862
aVMNG-4417
p1863
aVMNG-4416
p1864
aVMNG-4415
p1865
aVMNG-4414
p1866
aVMNG-4413
p1867
aVMNG-4412
p1868
aVMNG-4411
p1869
aVMNG-4410
p1870
aVMNG-4409
p1871
aVMNG-4408
p1872
aVMNG-4406
p1873
aVMNG-4405
p1874
aVMNG-4404
p1875
aVMNG-4403
p1876
aVMNG-4402
p1877
aVMNG-4401
p1878
aVMNG-4400
p1879
aVMNG-4398
p1880
aVMNG-4397
p1881
aVMNG-4396
p1882
aVMNG-4395
p1883
aVMNG-4394
p1884
aVMNG-4393
p1885
aVMNG-4392
p1886
aVMNG-4391
p1887
aVMNG-4390
p1888
aVMNG-4388
p1889
aVMNG-4387
p1890
aVMNG-4386
p1891
aVMNG-4385
p1892
aVMNG-4384
p1893
aVMNG-4383
p1894
aVMNG-4382
p1895
aVMNG-4381
p1896
aVMNG-4380
p1897
aVMNG-4379
p1898
aVMNG-4378
p1899
aVMNG-4377
p1900
aVMNG-4376
p1901
aVMNG-4375
p1902
aVMNG-4374
p1903
aVMNG-4373
p1904
aVMNG-4372
p1905
aVMNG-4371
p1906
aVMNG-4370
p1907
aVMNG-4369
p1908
aVMNG-4368
p1909
aVMNG-4367
p1910
aVMNG-4366
p1911
aVMNG-4365
p1912
aVMNG-4364
p1913
aVMNG-4363
p1914
aVMNG-4362
p1915
aVMNG-4361
p1916
aVMNG-4360
p1917
aVMNG-4359
p1918
aVMNG-4358
p1919
aVMNG-4357
p1920
aVMNG-4356
p1921
aVMNG-4355
p1922
aVMNG-4354
p1923
aVMNG-4353
p1924
aVMNG-4352
p1925
aVMNG-4351
p1926
aVMNG-4350
p1927
aVMNG-4349
p1928
aVMNG-4348
p1929
aVMNG-4347
p1930
aVMNG-4346
p1931
aVMNG-4345
p1932
aVMNG-4344
p1933
aVMNG-4343
p1934
aVMNG-4342
p1935
aVMNG-4341
p1936
aVMNG-4339
p1937
aVMNG-4338
p1938
aVMNG-4337
p1939
aVMNG-4335
p1940
aVMNG-4334
p1941
aVMNG-4333
p1942
aVMNG-4332
p1943
aVMNG-4331
p1944
aVMNG-4330
p1945
aVMNG-4328
p1946
aVMNG-4327
p1947
aVMNG-4326
p1948
aVMNG-4325
p1949
aVMNG-4324
p1950
aVMNG-4323
p1951
aVMNG-4321
p1952
aVMNG-4320
p1953
aVMNG-4319
p1954
aVMNG-4318
p1955
aVMNG-4317
p1956
aVMNG-4316
p1957
aVMNG-4315
p1958
aVMNG-4314
p1959
aVMNG-4313
p1960
aVMNG-4312
p1961
aVMNG-4310
p1962
aVMNG-4309
p1963
aVMNG-4308
p1964
aVMNG-4307
p1965
aVMNG-4306
p1966
aVMNG-4305
p1967
aVMNG-4304
p1968
aVMNG-4303
p1969
aVMNG-4302
p1970
aVMNG-4301
p1971
aVMNG-4300
p1972
aVMNG-4299
p1973
aVMNG-4298
p1974
aVMNG-4297
p1975
aVMNG-4296
p1976
aVMNG-4295
p1977
aVMNG-4294
p1978
aVMNG-4293
p1979
aVMNG-4292
p1980
aVMNG-4291
p1981
aVMNG-4290
p1982
aVMNG-4289
p1983
aVMNG-4288
p1984
aVMNG-4287
p1985
aVMNG-4286
p1986
aVMNG-4285
p1987
aVMNG-4283
p1988
aVMNG-4282
p1989
aVMNG-4281
p1990
aVMNG-4280
p1991
aVMNG-4279
p1992
aVMNG-4278
p1993
aVMNG-4277
p1994
aVMNG-4276
p1995
aVMNG-4275
p1996
aVMNG-4274
p1997
aVMNG-4273
p1998
aVMNG-4272
p1999
aVMNG-4271
p2000
aVMNG-4270
p2001
aVMNG-4269
p2002
aVMNG-4266
p2003
aVMNG-4265
p2004
aVMNG-4263
p2005
aVMNG-4262
p2006
aVMNG-4261
p2007
aVMNG-4260
p2008
aVMNG-4259
p2009
aVMNG-4258
p2010
aVMNG-4257
p2011
aVMNG-4256
p2012
aVMNG-4254
p2013
aVMNG-4253
p2014
aVMNG-4249
p2015
aVMNG-4248
p2016
aVMNG-4247
p2017
aVMNG-4246
p2018
aVMNG-4245
p2019
aVMNG-4244
p2020
aVMNG-4243
p2021
aVMNG-4242
p2022
aVMNG-4240
p2023
aVMNG-4239
p2024
aVMNG-4238
p2025
aVMNG-4237
p2026
aVMNG-4236
p2027
aVMNG-4235
p2028
aVMNG-4234
p2029
aVMNG-4233
p2030
aVMNG-4231
p2031
aVMNG-4229
p2032
aVMNG-4228
p2033
aVMNG-4227
p2034
aVMNG-4226
p2035
aVMNG-4225
p2036
aVMNG-4224
p2037
aVMNG-4223
p2038
aVMNG-4221
p2039
aVMNG-4220
p2040
aVMNG-4219
p2041
aVMNG-4218
p2042
aVMNG-4217
p2043
aVMNG-4216
p2044
aVMNG-4215
p2045
aVMNG-4214
p2046
aVMNG-4213
p2047
aVMNG-4211
p2048
aVMNG-4210
p2049
aVMNG-4208
p2050
aVMNG-4207
p2051
aVMNG-4206
p2052
aVMNG-4205
p2053
aVMNG-4204
p2054
aVMNG-4203
p2055
aVMNG-4202
p2056
aVMNG-4201
p2057
aVMNG-4200
p2058
aVMNG-4199
p2059
aVMNG-4198
p2060
aVMNG-4197
p2061
aVMNG-4196
p2062
aVMNG-4195
p2063
aVMNG-4194
p2064
aVMNG-4193
p2065
aVMNG-4192
p2066
aVMNG-4191
p2067
aVMNG-4190
p2068
aVMNG-4189
p2069
aVMNG-4188
p2070
aVMNG-4187
p2071
aVMNG-4186
p2072
aVMNG-4184
p2073
aVMNG-4183
p2074
aVMNG-4182
p2075
aVMNG-4181
p2076
aVMNG-4180
p2077
aVMNG-4179
p2078
aVMNG-4178
p2079
aVMNG-4176
p2080
aVMNG-4175
p2081
aVMNG-4174
p2082
aVMNG-4173
p2083
aVMNG-4172
p2084
aVMNG-4171
p2085
aVMNG-4170
p2086
aVMNG-4169
p2087
aVMNG-4168
p2088
aVMNG-4167
p2089
aVMNG-4166
p2090
aVMNG-4165
p2091
aVMNG-4163
p2092
aVMNG-4162
p2093
aVMNG-4161
p2094
aVMNG-4160
p2095
aVMNG-4158
p2096
aVMNG-4157
p2097
aVMNG-4156
p2098
aVMNG-4155
p2099
aVMNG-4154
p2100
aVMNG-4153
p2101
aVMNG-4152
p2102
aVMNG-4151
p2103
aVMNG-4150
p2104
aVMNG-4149
p2105
aVMNG-4148
p2106
aVMNG-4147
p2107
aVMNG-4146
p2108
aVMNG-4145
p2109
aVMNG-4144
p2110
aVMNG-4143
p2111
aVMNG-4142
p2112
aVMNG-4141
p2113
aVMNG-4140
p2114
aVMNG-4139
p2115
aVMNG-4138
p2116
aVMNG-4137
p2117
aVMNG-4136
p2118
aVMNG-4135
p2119
aVMNG-4134
p2120
aVMNG-4133
p2121
aVMNG-4132
p2122
aVMNG-4131
p2123
aVMNG-4130
p2124
aVMNG-4129
p2125
aVMNG-4126
p2126
aVMNG-4124
p2127
aVMNG-4123
p2128
aVMNG-4122
p2129
aVMNG-4121
p2130
aVMNG-4120
p2131
aVMNG-4119
p2132
aVMNG-4117
p2133
aVMNG-4116
p2134
aVMNG-4113
p2135
aVMNG-4112
p2136
aVMNG-4110
p2137
aVMNG-4109
p2138
aVMNG-4108
p2139
aVMNG-4107
p2140
aVMNG-4106
p2141
aVMNG-4105
p2142
aVMNG-4103
p2143
aVMNG-4102
p2144
aVMNG-4100
p2145
aVMNG-4099
p2146
aVMNG-4098
p2147
aVMNG-4097
p2148
aVMNG-4096
p2149
aVMNG-4093
p2150
aVMNG-4092
p2151
aVMNG-4091
p2152
aVMNG-4090
p2153
aVMNG-4089
p2154
aVMNG-4088
p2155
aVMNG-4087
p2156
aVMNG-4086
p2157
aVMNG-4084
p2158
aVMNG-4083
p2159
aVMNG-4082
p2160
aVMNG-4081
p2161
aVMNG-4080
p2162
aVMNG-4079
p2163
aVMNG-4078
p2164
aVMNG-4077
p2165
aVMNG-4076
p2166
aVMNG-4075
p2167
aVMNG-4074
p2168
aVMNG-4072
p2169
aVMNG-4071
p2170
aVMNG-4070
p2171
aVMNG-4069
p2172
aVMNG-4068
p2173
aVMNG-4066
p2174
aVMNG-4065
p2175
aVMNG-4063
p2176
aVMNG-4062
p2177
aVMNG-4061
p2178
aVMNG-4060
p2179
aVMNG-4059
p2180
aVMNG-4058
p2181
aVMNG-4057
p2182
aVMNG-4056
p2183
aVMNG-4055
p2184
aVMNG-4054
p2185
aVMNG-4053
p2186
aVMNG-4052
p2187
aVMNG-4051
p2188
aVMNG-4050
p2189
aVMNG-4049
p2190
aVMNG-4048
p2191
aVMNG-4047
p2192
aVMNG-4046
p2193
aVMNG-4044
p2194
aVMNG-4043
p2195
aVMNG-4042
p2196
aVMNG-4041
p2197
aVMNG-4040
p2198
aVMNG-4039
p2199
aVMNG-4038
p2200
aVMNG-4037
p2201
aVMNG-4036
p2202
aVMNG-4035
p2203
aVMNG-4034
p2204
aVMNG-4033
p2205
aVMNG-4032
p2206
aVMNG-4031
p2207
aVMNG-4030
p2208
aVMNG-4029
p2209
aVMNG-4028
p2210
aVMNG-4027
p2211
aVMNG-4026
p2212
aVMNG-4025
p2213
aVMNG-4024
p2214
aVMNG-4023
p2215
aVMNG-4022
p2216
aVMNG-4019
p2217
aVMNG-4018
p2218
aVMNG-4017
p2219
aVMNG-4016
p2220
aVMNG-4014
p2221
aVMNG-4013
p2222
aVMNG-4012
p2223
aVMNG-4011
p2224
aVMNG-4010
p2225
aVMNG-4009
p2226
aVMNG-4008
p2227
aVMNG-4007
p2228
aVMNG-4006
p2229
aVMNG-4005
p2230
aVMNG-4004
p2231
aVMNG-4003
p2232
aVMNG-4002
p2233
aVMNG-4001
p2234
aVMNG-4000
p2235
aVMNG-3999
p2236
aVMNG-3998
p2237
aVMNG-3997
p2238
aVMNG-3995
p2239
aVMNG-3994
p2240
aVMNG-3993
p2241
aVMNG-3991
p2242
aVMNG-3990
p2243
aVMNG-3989
p2244
aVMNG-3988
p2245
aVMNG-3987
p2246
aVMNG-3986
p2247
aVMNG-3985
p2248
aVMNG-3984
p2249
aVMNG-3983
p2250
aVMNG-3982
p2251
aVMNG-3981
p2252
aVMNG-3980
p2253
aVMNG-3979
p2254
aVMNG-3978
p2255
aVMNG-3975
p2256
aVMNG-3974
p2257
aVMNG-3973
p2258
aVMNG-3972
p2259
aVMNG-3971
p2260
aVMNG-3970
p2261
aVMNG-3969
p2262
aVMNG-3968
p2263
aVMNG-3967
p2264
aVMNG-3966
p2265
aVMNG-3965
p2266
aVMNG-3964
p2267
aVMNG-3963
p2268
aVMNG-3962
p2269
aVMNG-3961
p2270
aVMNG-3960
p2271
aVMNG-3959
p2272
aVMNG-3958
p2273
aVMNG-3957
p2274
aVMNG-3956
p2275
aVMNG-3955
p2276
aVMNG-3954
p2277
aVMNG-3953
p2278
aVMNG-3952
p2279
aVMNG-3951
p2280
aVMNG-3950
p2281
aVMNG-3948
p2282
aVMNG-3947
p2283
aVMNG-3946
p2284
aVMNG-3944
p2285
aVMNG-3943
p2286
aVMNG-3942
p2287
aVMNG-3941
p2288
aVMNG-3940
p2289
aVMNG-3939
p2290
aVMNG-3938
p2291
aVMNG-3937
p2292
aVMNG-3936
p2293
aVMNG-3935
p2294
aVMNG-3934
p2295
aVMNG-3933
p2296
aVMNG-3932
p2297
aVMNG-3930
p2298
aVMNG-3929
p2299
aVMNG-3928
p2300
aVMNG-3927
p2301
aVMNG-3926
p2302
aVMNG-3925
p2303
aVMNG-3924
p2304
aVMNG-3923
p2305
aVMNG-3921
p2306
aVMNG-3920
p2307
aVMNG-3919
p2308
aVMNG-3918
p2309
aVMNG-3917
p2310
aVMNG-3916
p2311
aVMNG-3915
p2312
aVMNG-3914
p2313
aVMNG-3913
p2314
aVMNG-3912
p2315
aVMNG-3911
p2316
aVMNG-3910
p2317
aVMNG-3909
p2318
aVMNG-3908
p2319
aVMNG-3907
p2320
aVMNG-3906
p2321
aVMNG-3905
p2322
aVMNG-3904
p2323
aVMNG-3903
p2324
aVMNG-3902
p2325
aVMNG-3901
p2326
aVMNG-3900
p2327
aVMNG-3899
p2328
aVMNG-3898
p2329
aVMNG-3897
p2330
aVMNG-3895
p2331
aVMNG-3894
p2332
aVMNG-3893
p2333
aVMNG-3892
p2334
aVMNG-3891
p2335
aVMNG-3890
p2336
aVMNG-3888
p2337
aVMNG-3887
p2338
aVMNG-3886
p2339
aVMNG-3885
p2340
aVMNG-3884
p2341
aVMNG-3883
p2342
aVMNG-3882
p2343
aVMNG-3881
p2344
aVMNG-3880
p2345
aVMNG-3879
p2346
aVMNG-3878
p2347
aVMNG-3877
p2348
aVMNG-3876
p2349
aVMNG-3875
p2350
aVMNG-3874
p2351
aVMNG-3873
p2352
aVMNG-3872
p2353
aVMNG-3870
p2354
aVMNG-3869
p2355
aVMNG-3867
p2356
aVMNG-3866
p2357
aVMNG-3865
p2358
aVMNG-3864
p2359
aVMNG-3863
p2360
aVMNG-3862
p2361
aVMNG-3861
p2362
aVMNG-3860
p2363
aVMNG-3859
p2364
aVMNG-3857
p2365
aVMNG-3856
p2366
aVMNG-3853
p2367
aVMNG-3852
p2368
aVMNG-3850
p2369
aVMNG-3848
p2370
aVMNG-3847
p2371
aVMNG-3846
p2372
aVMNG-3845
p2373
aVMNG-3844
p2374
aVMNG-3843
p2375
aVMNG-3842
p2376
aVMNG-3841
p2377
aVMNG-3840
p2378
aVMNG-3839
p2379
aVMNG-3838
p2380
aVMNG-3837
p2381
aVMNG-3836
p2382
aVMNG-3835
p2383
aVMNG-3834
p2384
aVMNG-3833
p2385
aVMNG-3832
p2386
aVMNG-3831
p2387
aVMNG-3830
p2388
aVMNG-3829
p2389
aVMNG-3828
p2390
aVMNG-3827
p2391
aVMNG-3826
p2392
aVMNG-3825
p2393
aVMNG-3824
p2394
aVMNG-3823
p2395
aVMNG-3822
p2396
aVMNG-3821
p2397
aVMNG-3820
p2398
aVMNG-3819
p2399
aVMNG-3818
p2400
aVMNG-3817
p2401
aVMNG-3814
p2402
aVMNG-3813
p2403
aVMNG-3812
p2404
aVMNG-3811
p2405
aVMNG-3810
p2406
aVMNG-3809
p2407
aVMNG-3808
p2408
aVMNG-3807
p2409
aVMNG-3805
p2410
aVMNG-3803
p2411
aVMNG-3802
p2412
aVMNG-3801
p2413
aVMNG-3800
p2414
aVMNG-3799
p2415
aVMNG-3798
p2416
aVMNG-3797
p2417
aVMNG-3796
p2418
aVMNG-3795
p2419
aVMNG-3794
p2420
aVMNG-3793
p2421
aVMNG-3790
p2422
aVMNG-3789
p2423
aVMNG-3788
p2424
aVMNG-3787
p2425
aVMNG-3786
p2426
aVMNG-3785
p2427
aVMNG-3782
p2428
aVMNG-3781
p2429
aVMNG-3780
p2430
aVMNG-3779
p2431
aVMNG-3778
p2432
aVMNG-3777
p2433
aVMNG-3776
p2434
aVMNG-3775
p2435
aVMNG-3774
p2436
aVMNG-3773
p2437
aVMNG-3772
p2438
aVMNG-3771
p2439
aVMNG-3770
p2440
aVMNG-3769
p2441
aVMNG-3768
p2442
aVMNG-3767
p2443
aVMNG-3766
p2444
aVMNG-3765
p2445
aVMNG-3763
p2446
aVMNG-3762
p2447
aVMNG-3761
p2448
aVMNG-3760
p2449
aVMNG-3759
p2450
aVMNG-3758
p2451
aVMNG-3757
p2452
aVMNG-3756
p2453
aVMNG-3753
p2454
aVMNG-3751
p2455
aVMNG-3750
p2456
aVMNG-3749
p2457
aVMNG-3748
p2458
aVMNG-3747
p2459
aVMNG-3746
p2460
aVMNG-3743
p2461
aVMNG-3742
p2462
aVMNG-3741
p2463
aVMNG-3740
p2464
aVMNG-3739
p2465
aVMNG-3738
p2466
aVMNG-3737
p2467
aVMNG-3735
p2468
aVMNG-3734
p2469
aVMNG-3732
p2470
aVMNG-3730
p2471
aVMNG-3729
p2472
aVMNG-3728
p2473
aVMNG-3727
p2474
aVMNG-3726
p2475
aVMNG-3725
p2476
aVMNG-3724
p2477
aVMNG-3723
p2478
aVMNG-3722
p2479
aVMNG-3721
p2480
aVMNG-3720
p2481
aVMNG-3719
p2482
aVMNG-3718
p2483
aVMNG-3717
p2484
aVMNG-3716
p2485
aVMNG-3715
p2486
aVMNG-3714
p2487
aVMNG-3713
p2488
aVMNG-3712
p2489
aVMNG-3711
p2490
aVMNG-3710
p2491
aVMNG-3709
p2492
aVMNG-3708
p2493
aVMNG-3707
p2494
aVMNG-3706
p2495
aVMNG-3705
p2496
aVMNG-3704
p2497
aVMNG-3703
p2498
aVMNG-3701
p2499
aVMNG-3700
p2500
aVMNG-3698
p2501
aVMNG-3697
p2502
aVMNG-3696
p2503
aVMNG-3695
p2504
aVMNG-3694
p2505
aVMNG-3693
p2506
aVMNG-3692
p2507
aVMNG-3690
p2508
aVMNG-3689
p2509
aVMNG-3688
p2510
aVMNG-3686
p2511
aVMNG-3685
p2512
aVMNG-3684
p2513
aVMNG-3683
p2514
aVMNG-3682
p2515
aVMNG-3681
p2516
aVMNG-3680
p2517
aVMNG-3679
p2518
aVMNG-3678
p2519
aVMNG-3677
p2520
aVMNG-3676
p2521
aVMNG-3675
p2522
aVMNG-3674
p2523
aVMNG-3673
p2524
aVMNG-3672
p2525
aVMNG-3671
p2526
aVMNG-3670
p2527
aVMNG-3669
p2528
aVMNG-3668
p2529
aVMNG-3667
p2530
aVMNG-3666
p2531
aVMNG-3665
p2532
aVMNG-3664
p2533
aVMNG-3663
p2534
aVMNG-3662
p2535
aVMNG-3661
p2536
aVMNG-3659
p2537
aVMNG-3658
p2538
aVMNG-3657
p2539
aVMNG-3656
p2540
aVMNG-3655
p2541
aVMNG-3654
p2542
aVMNG-3653
p2543
aVMNG-3652
p2544
aVMNG-3651
p2545
aVMNG-3650
p2546
aVMNG-3649
p2547
aVMNG-3648
p2548
aVMNG-3647
p2549
aVMNG-3646
p2550
aVMNG-3645
p2551
aVMNG-3644
p2552
aVMNG-3642
p2553
aVMNG-3641
p2554
aVMNG-3640
p2555
aVMNG-3639
p2556
aVMNG-3638
p2557
aVMNG-3637
p2558
aVMNG-3635
p2559
aVMNG-3634
p2560
aVMNG-3632
p2561
aVMNG-3631
p2562
aVMNG-3630
p2563
aVMNG-3629
p2564
aVMNG-3628
p2565
aVMNG-3627
p2566
aVMNG-3626
p2567
aVMNG-3625
p2568
aVMNG-3624
p2569
aVMNG-3623
p2570
aVMNG-3622
p2571
aVMNG-3621
p2572
aVMNG-3619
p2573
aVMNG-3618
p2574
aVMNG-3616
p2575
aVMNG-3615
p2576
aVMNG-3614
p2577
aVMNG-3612
p2578
aVMNG-3611
p2579
aVMNG-3610
p2580
aVMNG-3609
p2581
aVMNG-3608
p2582
aVMNG-3607
p2583
aVMNG-3606
p2584
aVMNG-3604
p2585
aVMNG-3603
p2586
aVMNG-3602
p2587
aVMNG-3601
p2588
aVMNG-3600
p2589
aVMNG-3599
p2590
aVMNG-3598
p2591
aVMNG-3597
p2592
aVMNG-3595
p2593
aVMNG-3594
p2594
aVMNG-3593
p2595
aVMNG-3592
p2596
aVMNG-3591
p2597
aVMNG-3590
p2598
aVMNG-3589
p2599
aVMNG-3588
p2600
aVMNG-3587
p2601
aVMNG-3586
p2602
aVMNG-3585
p2603
aVMNG-3584
p2604
aVMNG-3583
p2605
aVMNG-3582
p2606
aVMNG-3581
p2607
aVMNG-3580
p2608
aVMNG-3579
p2609
aVMNG-3578
p2610
aVMNG-3577
p2611
aVMNG-3576
p2612
aVMNG-3575
p2613
aVMNG-3574
p2614
aVMNG-3571
p2615
aVMNG-3570
p2616
aVMNG-3569
p2617
aVMNG-3567
p2618
aVMNG-3566
p2619
aVMNG-3565
p2620
aVMNG-3564
p2621
aVMNG-3563
p2622
aVMNG-3562
p2623
aVMNG-3561
p2624
aVMNG-3560
p2625
aVMNG-3559
p2626
aVMNG-3558
p2627
aVMNG-3557
p2628
aVMNG-3556
p2629
aVMNG-3555
p2630
aVMNG-3553
p2631
aVMNG-3552
p2632
aVMNG-3551
p2633
aVMNG-3550
p2634
aVMNG-3549
p2635
aVMNG-3547
p2636
aVMNG-3545
p2637
aVMNG-3544
p2638
aVMNG-3543
p2639
aVMNG-3542
p2640
aVMNG-3541
p2641
aVMNG-3540
p2642
aVMNG-3539
p2643
aVMNG-3538
p2644
aVMNG-3537
p2645
aVMNG-3536
p2646
aVMNG-3535
p2647
aVMNG-3534
p2648
aVMNG-3533
p2649
aVMNG-3530
p2650
aVMNG-3529
p2651
aVMNG-3528
p2652
aVMNG-3527
p2653
aVMNG-3526
p2654
aVMNG-3525
p2655
aVMNG-3524
p2656
aVMNG-3523
p2657
aVMNG-3522
p2658
aVMNG-3521
p2659
aVMNG-3520
p2660
aVMNG-3519
p2661
aVMNG-3518
p2662
aVMNG-3517
p2663
aVMNG-3516
p2664
aVMNG-3515
p2665
aVMNG-3514
p2666
aVMNG-3513
p2667
aVMNG-3512
p2668
aVMNG-3511
p2669
aVMNG-3510
p2670
aVMNG-3509
p2671
aVMNG-3508
p2672
aVMNG-3507
p2673
aVMNG-3506
p2674
aVMNG-3505
p2675
aVMNG-3504
p2676
aVMNG-3503
p2677
aVMNG-3502
p2678
aVMNG-3500
p2679
aVMNG-3499
p2680
aVMNG-3498
p2681
aVMNG-3497
p2682
aVMNG-3496
p2683
aVMNG-3495
p2684
aVMNG-3494
p2685
aVMNG-3493
p2686
aVMNG-3492
p2687
aVMNG-3491
p2688
aVMNG-3490
p2689
aVMNG-3487
p2690
aVMNG-3486
p2691
aVMNG-3485
p2692
aVMNG-3484
p2693
aVMNG-3483
p2694
aVMNG-3482
p2695
aVMNG-3481
p2696
aVMNG-3480
p2697
aVMNG-3479
p2698
aVMNG-3478
p2699
aVMNG-3477
p2700
aVMNG-3475
p2701
aVMNG-3474
p2702
aVMNG-3473
p2703
aVMNG-3472
p2704
aVMNG-3471
p2705
aVMNG-3470
p2706
aVMNG-3469
p2707
aVMNG-3468
p2708
aVMNG-3467
p2709
aVMNG-3464
p2710
aVMNG-3463
p2711
aVMNG-3462
p2712
aVMNG-3461
p2713
aVMNG-3460
p2714
aVMNG-3458
p2715
aVMNG-3457
p2716
aVMNG-3456
p2717
aVMNG-3455
p2718
aVMNG-3454
p2719
aVMNG-3452
p2720
aVMNG-3451
p2721
aVMNG-3450
p2722
aVMNG-3449
p2723
aVMNG-3448
p2724
aVMNG-3447
p2725
aVMNG-3443
p2726
aVMNG-3442
p2727
aVMNG-3441
p2728
aVMNG-3440
p2729
aVMNG-3439
p2730
aVMNG-3438
p2731
aVMNG-3437
p2732
aVMNG-3436
p2733
aVMNG-3435
p2734
aVMNG-3434
p2735
aVMNG-3433
p2736
aVMNG-3432
p2737
aVMNG-3431
p2738
aVMNG-3430
p2739
aVMNG-3429
p2740
aVMNG-3428
p2741
aVMNG-3427
p2742
aVMNG-3426
p2743
aVMNG-3425
p2744
aVMNG-3424
p2745
aVMNG-3423
p2746
aVMNG-3422
p2747
aVMNG-3421
p2748
aVMNG-3420
p2749
aVMNG-3419
p2750
aVMNG-3418
p2751
aVMNG-3416
p2752
aVMNG-3415
p2753
aVMNG-3414
p2754
aVMNG-3413
p2755
aVMNG-3412
p2756
aVMNG-3411
p2757
aVMNG-3410
p2758
aVMNG-3409
p2759
aVMNG-3408
p2760
aVMNG-3407
p2761
aVMNG-3406
p2762
aVMNG-3405
p2763
aVMNG-3403
p2764
aVMNG-3402
p2765
aVMNG-3401
p2766
aVMNG-3400
p2767
aVMNG-3399
p2768
aVMNG-3398
p2769
aVMNG-3397
p2770
aVMNG-3396
p2771
aVMNG-3395
p2772
aVMNG-3394
p2773
aVMNG-3393
p2774
aVMNG-3392
p2775
aVMNG-3391
p2776
aVMNG-3390
p2777
aVMNG-3389
p2778
aVMNG-3388
p2779
aVMNG-3387
p2780
aVMNG-3386
p2781
aVMNG-3385
p2782
aVMNG-3384
p2783
aVMNG-3383
p2784
aVMNG-3382
p2785
aVMNG-3381
p2786
aVMNG-3380
p2787
aVMNG-3379
p2788
aVMNG-3378
p2789
aVMNG-3377
p2790
aVMNG-3376
p2791
aVMNG-3375
p2792
aVMNG-3373
p2793
aVMNG-3372
p2794
aVMNG-3369
p2795
aVMNG-3368
p2796
aVMNG-3367
p2797
aVMNG-3366
p2798
aVMNG-3365
p2799
aVMNG-3364
p2800
aVMNG-3363
p2801
aVMNG-3362
p2802
aVMNG-3360
p2803
aVMNG-3358
p2804
aVMNG-3356
p2805
aVMNG-3355
p2806
aVMNG-3354
p2807
aVMNG-3353
p2808
aVMNG-3352
p2809
aVMNG-3350
p2810
aVMNG-3349
p2811
aVMNG-3348
p2812
aVMNG-3347
p2813
aVMNG-3344
p2814
aVMNG-3341
p2815
aVMNG-3340
p2816
aVMNG-3339
p2817
aVMNG-3338
p2818
aVMNG-3337
p2819
aVMNG-3336
p2820
aVMNG-3335
p2821
aVMNG-3333
p2822
aVMNG-3331
p2823
aVMNG-3330
p2824
aVMNG-3328
p2825
aVMNG-3327
p2826
aVMNG-3326
p2827
aVMNG-3325
p2828
aVMNG-3323
p2829
aVMNG-3322
p2830
aVMNG-3321
p2831
aVMNG-3320
p2832
aVMNG-3319
p2833
aVMNG-3318
p2834
aVMNG-3317
p2835
aVMNG-3316
p2836
aVMNG-3315
p2837
aVMNG-3314
p2838
aVMNG-3312
p2839
aVMNG-3311
p2840
aVMNG-3310
p2841
aVMNG-3309
p2842
aVMNG-3308
p2843
aVMNG-3307
p2844
aVMNG-3305
p2845
aVMNG-3303
p2846
aVMNG-3301
p2847
aVMNG-3300
p2848
aVMNG-3299
p2849
aVMNG-3297
p2850
aVMNG-3296
p2851
aVMNG-3295
p2852
aVMNG-3293
p2853
aVMNG-3291
p2854
aVMNG-3290
p2855
aVMNG-3289
p2856
aVMNG-3288
p2857
aVMNG-3287
p2858
aVMNG-3286
p2859
aVMNG-3285
p2860
aVMNG-3284
p2861
aVMNG-3283
p2862
aVMNG-3282
p2863
aVMNG-3281
p2864
aVMNG-3280
p2865
aVMNG-3279
p2866
aVMNG-3278
p2867
aVMNG-3277
p2868
aVMNG-3276
p2869
aVMNG-3275
p2870
aVMNG-3274
p2871
aVMNG-3272
p2872
aVMNG-3271
p2873
aVMNG-3270
p2874
aVMNG-3269
p2875
aVMNG-3268
p2876
aVMNG-3267
p2877
aVMNG-3266
p2878
aVMNG-3265
p2879
aVMNG-3263
p2880
aVMNG-3262
p2881
aVMNG-3261
p2882
aVMNG-3260
p2883
aVMNG-3259
p2884
aVMNG-3258
p2885
aVMNG-3257
p2886
aVMNG-3255
p2887
aVMNG-3254
p2888
aVMNG-3253
p2889
aVMNG-3252
p2890
aVMNG-3251
p2891
aVMNG-3250
p2892
aVMNG-3249
p2893
aVMNG-3248
p2894
aVMNG-3247
p2895
aVMNG-3246
p2896
aVMNG-3245
p2897
aVMNG-3244
p2898
aVMNG-3243
p2899
aVMNG-3242
p2900
aVMNG-3241
p2901
aVMNG-3240
p2902
aVMNG-3238
p2903
aVMNG-3237
p2904
aVMNG-3235
p2905
aVMNG-3234
p2906
aVMNG-3232
p2907
aVMNG-3231
p2908
aVMNG-3230
p2909
aVMNG-3229
p2910
aVMNG-3228
p2911
aVMNG-3227
p2912
aVMNG-3226
p2913
aVMNG-3224
p2914
aVMNG-3223
p2915
aVMNG-3222
p2916
aVMNG-3221
p2917
aVMNG-3220
p2918
aVMNG-3219
p2919
aVMNG-3218
p2920
aVMNG-3217
p2921
aVMNG-3215
p2922
aVMNG-3214
p2923
aVMNG-3213
p2924
aVMNG-3212
p2925
aVMNG-3211
p2926
aVMNG-3209
p2927
aVMNG-3208
p2928
aVMNG-3207
p2929
aVMNG-3206
p2930
aVMNG-3205
p2931
aVMNG-3204
p2932
aVMNG-3203
p2933
aVMNG-3202
p2934
aVMNG-3201
p2935
aVMNG-3200
p2936
aVMNG-3199
p2937
aVMNG-3198
p2938
aVMNG-3197
p2939
aVMNG-3196
p2940
aVMNG-3194
p2941
aVMNG-3193
p2942
aVMNG-3192
p2943
aVMNG-3191
p2944
aVMNG-3190
p2945
aVMNG-3188
p2946
aVMNG-3187
p2947
aVMNG-3186
p2948
aVMNG-3185
p2949
aVMNG-3184
p2950
aVMNG-3183
p2951
aVMNG-3182
p2952
aVMNG-3181
p2953
aVMNG-3180
p2954
aVMNG-3179
p2955
aVMNG-3178
p2956
aVMNG-3177
p2957
aVMNG-3176
p2958
aVMNG-3175
p2959
aVMNG-3173
p2960
aVMNG-3172
p2961
aVMNG-3170
p2962
aVMNG-3169
p2963
aVMNG-3168
p2964
aVMNG-3166
p2965
aVMNG-3165
p2966
aVMNG-3164
p2967
aVMNG-3163
p2968
aVMNG-3162
p2969
aVMNG-3161
p2970
aVMNG-3160
p2971
aVMNG-3159
p2972
aVMNG-3158
p2973
aVMNG-3157
p2974
aVMNG-3156
p2975
aVMNG-3153
p2976
aVMNG-3152
p2977
aVMNG-3151
p2978
aVMNG-3150
p2979
aVMNG-3148
p2980
aVMNG-3147
p2981
aVMNG-3146
p2982
aVMNG-3144
p2983
aVMNG-3142
p2984
aVMNG-3141
p2985
aVMNG-3140
p2986
aVMNG-3139
p2987
aVMNG-3138
p2988
aVMNG-3137
p2989
aVMNG-3136
p2990
aVMNG-3134
p2991
aVMNG-3133
p2992
aVMNG-3132
p2993
aVMNG-3131
p2994
aVMNG-3130
p2995
aVMNG-3128
p2996
aVMNG-3127
p2997
aVMNG-3126
p2998
aVMNG-3125
p2999
aVMNG-3124
p3000
aVMNG-3123
p3001
aVMNG-3122
p3002
aVMNG-3121
p3003
aVMNG-3120
p3004
aVMNG-3119
p3005
aVMNG-3118
p3006
aVMNG-3116
p3007
aVMNG-3115
p3008
aVMNG-3113
p3009
aVMNG-3112
p3010
aVMNG-3111
p3011
aVMNG-3109
p3012
aVMNG-3106
p3013
aVMNG-3104
p3014
aVMNG-3102
p3015
aVMNG-3099
p3016
aVMNG-3097
p3017
aVMNG-3092
p3018
aVMNG-3091
p3019
aVMNG-3090
p3020
aVMNG-3089
p3021
aVMNG-3088
p3022
aVMNG-3087
p3023
aVMNG-3086
p3024
aVMNG-3085
p3025
aVMNG-3084
p3026
aVMNG-3078
p3027
aVMNG-3077
p3028
aVMNG-3076
p3029
aVMNG-3075
p3030
aVMNG-3074
p3031
aVMNG-3073
p3032
aVMNG-3072
p3033
aVMNG-3071
p3034
aVMNG-3070
p3035
aVMNG-3069
p3036
aVMNG-3068
p3037
aVMNG-3067
p3038
aVMNG-3066
p3039
aVMNG-3065
p3040
aVMNG-3064
p3041
aVMNG-3063
p3042
aVMNG-3062
p3043
aVMNG-3061
p3044
aVMNG-3060
p3045
aVMNG-3059
p3046
aVMNG-3058
p3047
aVMNG-3057
p3048
aVMNG-3056
p3049
aVMNG-3055
p3050
aVMNG-3054
p3051
aVMNG-3053
p3052
aVMNG-3052
p3053
aVMNG-3051
p3054
aVMNG-3049
p3055
aVMNG-3047
p3056
aVMNG-3046
p3057
aVMNG-3044
p3058
aVMNG-3043
p3059
aVMNG-3041
p3060
aVMNG-3040
p3061
aVMNG-3039
p3062
aVMNG-3038
p3063
aVMNG-3037
p3064
aVMNG-3036
p3065
aVMNG-3035
p3066
aVMNG-3034
p3067
aVMNG-3033
p3068
aVMNG-3031
p3069
aVMNG-3030
p3070
aVMNG-3028
p3071
aVMNG-3027
p3072
aVMNG-3024
p3073
aVMNG-3023
p3074
aVMNG-3022
p3075
aVMNG-3021
p3076
aVMNG-3020
p3077
aVMNG-3018
p3078
aVMNG-3017
p3079
aVMNG-3014
p3080
aVMNG-3013
p3081
aVMNG-3012
p3082
aVMNG-3011
p3083
aVMNG-3010
p3084
aVMNG-3009
p3085
aVMNG-3008
p3086
aVMNG-3007
p3087
aVMNG-3006
p3088
aVMNG-3005
p3089
aVMNG-3004
p3090
aVMNG-3003
p3091
aVMNG-3001
p3092
aVMNG-3000
p3093
aVMNG-2999
p3094
aVMNG-2997
p3095
aVMNG-2996
p3096
aVMNG-2994
p3097
aVMNG-2993
p3098
aVMNG-2992
p3099
aVMNG-2991
p3100
aVMNG-2990
p3101
aVMNG-2989
p3102
aVMNG-2988
p3103
aVMNG-2987
p3104
aVMNG-2985
p3105
aVMNG-2984
p3106
aVMNG-2983
p3107
aVMNG-2982
p3108
aVMNG-2980
p3109
aVMNG-2979
p3110
aVMNG-2978
p3111
aVMNG-2977
p3112
aVMNG-2975
p3113
aVMNG-2974
p3114
aVMNG-2973
p3115
aVMNG-2972
p3116
aVMNG-2971
p3117
aVMNG-2970
p3118
aVMNG-2969
p3119
aVMNG-2968
p3120
aVMNG-2967
p3121
aVMNG-2966
p3122
aVMNG-2965
p3123
aVMNG-2964
p3124
aVMNG-2963
p3125
aVMNG-2962
p3126
aVMNG-2961
p3127
aVMNG-2960
p3128
aVMNG-2959
p3129
aVMNG-2958
p3130
aVMNG-2957
p3131
aVMNG-2954
p3132
aVMNG-2953
p3133
aVMNG-2951
p3134
aVMNG-2949
p3135
aVMNG-2947
p3136
aVMNG-2946
p3137
aVMNG-2944
p3138
aVMNG-2943
p3139
aVMNG-2942
p3140
aVMNG-2941
p3141
aVMNG-2940
p3142
aVMNG-2939
p3143
aVMNG-2938
p3144
aVMNG-2937
p3145
aVMNG-2936
p3146
aVMNG-2935
p3147
aVMNG-2934
p3148
aVMNG-2933
p3149
aVMNG-2932
p3150
aVMNG-2931
p3151
aVMNG-2930
p3152
aVMNG-2929
p3153
aVMNG-2928
p3154
aVMNG-2926
p3155
aVMNG-2925
p3156
aVMNG-2923
p3157
aVMNG-2922
p3158
aVMNG-2921
p3159
aVMNG-2919
p3160
aVMNG-2918
p3161
aVMNG-2917
p3162
aVMNG-2916
p3163
aVMNG-2914
p3164
aVMNG-2913
p3165
aVMNG-2909
p3166
aVMNG-2906
p3167
aVMNG-2905
p3168
aVMNG-2904
p3169
aVMNG-2903
p3170
aVMNG-2902
p3171
aVMNG-2901
p3172
aVMNG-2900
p3173
aVMNG-2899
p3174
aVMNG-2898
p3175
aVMNG-2897
p3176
aVMNG-2896
p3177
aVMNG-2894
p3178
aVMNG-2893
p3179
aVMNG-2892
p3180
aVMNG-2891
p3181
aVMNG-2890
p3182
aVMNG-2889
p3183
aVMNG-2888
p3184
aVMNG-2886
p3185
aVMNG-2885
p3186
aVMNG-2884
p3187
aVMNG-2883
p3188
aVMNG-2881
p3189
aVMNG-2880
p3190
aVMNG-2879
p3191
aVMNG-2878
p3192
aVMNG-2877
p3193
aVMNG-2876
p3194
aVMNG-2875
p3195
aVMNG-2874
p3196
aVMNG-2873
p3197
aVMNG-2872
p3198
aVMNG-2871
p3199
aVMNG-2870
p3200
aVMNG-2869
p3201
aVMNG-2868
p3202
aVMNG-2867
p3203
aVMNG-2866
p3204
aVMNG-2865
p3205
aVMNG-2864
p3206
aVMNG-2863
p3207
aVMNG-2861
p3208
aVMNG-2860
p3209
aVMNG-2858
p3210
aVMNG-2857
p3211
aVMNG-2856
p3212
aVMNG-2853
p3213
aVMNG-2852
p3214
aVMNG-2851
p3215
aVMNG-2849
p3216
aVMNG-2848
p3217
aVMNG-2847
p3218
aVMNG-2846
p3219
aVMNG-2845
p3220
aVMNG-2844
p3221
aVMNG-2843
p3222
aVMNG-2841
p3223
aVMNG-2839
p3224
aVMNG-2837
p3225
aVMNG-2836
p3226
aVMNG-2835
p3227
aVMNG-2834
p3228
aVMNG-2831
p3229
aVMNG-2829
p3230
aVMNG-2828
p3231
aVMNG-2827
p3232
aVMNG-2826
p3233
aVMNG-2825
p3234
aVMNG-2824
p3235
aVMNG-2823
p3236
aVMNG-2822
p3237
aVMNG-2820
p3238
aVMNG-2819
p3239
aVMNG-2818
p3240
aVMNG-2817
p3241
aVMNG-2816
p3242
aVMNG-2815
p3243
aVMNG-2814
p3244
aVMNG-2813
p3245
aVMNG-2812
p3246
aVMNG-2811
p3247
aVMNG-2810
p3248
aVMNG-2809
p3249
aVMNG-2808
p3250
aVMNG-2807
p3251
aVMNG-2806
p3252
aVMNG-2805
p3253
aVMNG-2804
p3254
aVMNG-2803
p3255
aVMNG-2802
p3256
aVMNG-2801
p3257
aVMNG-2800
p3258
aVMNG-2797
p3259
aVMNG-2796
p3260
aVMNG-2795
p3261
aVMNG-2794
p3262
aVMNG-2793
p3263
aVMNG-2792
p3264
aVMNG-2791
p3265
aVMNG-2790
p3266
aVMNG-2788
p3267
aVMNG-2787
p3268
aVMNG-2786
p3269
aVMNG-2785
p3270
aVMNG-2784
p3271
aVMNG-2783
p3272
aVMNG-2782
p3273
aVMNG-2781
p3274
aVMNG-2780
p3275
aVMNG-2779
p3276
aVMNG-2778
p3277
aVMNG-2777
p3278
aVMNG-2776
p3279
aVMNG-2774
p3280
aVMNG-2773
p3281
aVMNG-2771
p3282
aVMNG-2770
p3283
aVMNG-2769
p3284
aVMNG-2767
p3285
aVMNG-2766
p3286
aVMNG-2765
p3287
aVMNG-2764
p3288
aVMNG-2763
p3289
aVMNG-2760
p3290
aVMNG-2759
p3291
aVMNG-2758
p3292
aVMNG-2757
p3293
aVMNG-2756
p3294
aVMNG-2755
p3295
aVMNG-2754
p3296
aVMNG-2753
p3297
aVMNG-2751
p3298
aVMNG-2750
p3299
aVMNG-2749
p3300
aVMNG-2747
p3301
aVMNG-2746
p3302
aVMNG-2745
p3303
aVMNG-2744
p3304
aVMNG-2743
p3305
aVMNG-2742
p3306
aVMNG-2741
p3307
aVMNG-2740
p3308
aVMNG-2739
p3309
aVMNG-2738
p3310
aVMNG-2737
p3311
aVMNG-2736
p3312
aVMNG-2735
p3313
aVMNG-2734
p3314
aVMNG-2733
p3315
aVMNG-2732
p3316
aVMNG-2731
p3317
aVMNG-2730
p3318
aVMNG-2729
p3319
aVMNG-2728
p3320
aVMNG-2727
p3321
aVMNG-2726
p3322
aVMNG-2725
p3323
aVMNG-2724
p3324
aVMNG-2723
p3325
aVMNG-2722
p3326
aVMNG-2721
p3327
aVMNG-2720
p3328
aVMNG-2719
p3329
aVMNG-2717
p3330
aVMNG-2716
p3331
aVMNG-2715
p3332
aVMNG-2714
p3333
aVMNG-2713
p3334
aVMNG-2712
p3335
aVMNG-2711
p3336
aVMNG-2710
p3337
aVMNG-2709
p3338
aVMNG-2706
p3339
aVMNG-2705
p3340
aVMNG-2704
p3341
aVMNG-2703
p3342
aVMNG-2701
p3343
aVMNG-2700
p3344
aVMNG-2699
p3345
aVMNG-2698
p3346
aVMNG-2696
p3347
aVMNG-2695
p3348
aVMNG-2694
p3349
aVMNG-2693
p3350
aVMNG-2692
p3351
aVMNG-2691
p3352
aVMNG-2690
p3353
aVMNG-2689
p3354
aVMNG-2688
p3355
aVMNG-2687
p3356
aVMNG-2686
p3357
aVMNG-2685
p3358
aVMNG-2683
p3359
aVMNG-2682
p3360
aVMNG-2681
p3361
aVMNG-2680
p3362
aVMNG-2678
p3363
aVMNG-2677
p3364
aVMNG-2676
p3365
aVMNG-2675
p3366
aVMNG-2674
p3367
aVMNG-2673
p3368
aVMNG-2672
p3369
aVMNG-2671
p3370
aVMNG-2670
p3371
aVMNG-2668
p3372
aVMNG-2667
p3373
aVMNG-2664
p3374
aVMNG-2663
p3375
aVMNG-2662
p3376
aVMNG-2661
p3377
aVMNG-2659
p3378
aVMNG-2658
p3379
aVMNG-2657
p3380
aVMNG-2656
p3381
aVMNG-2654
p3382
aVMNG-2653
p3383
aVMNG-2652
p3384
aVMNG-2651
p3385
aVMNG-2650
p3386
aVMNG-2649
p3387
aVMNG-2648
p3388
aVMNG-2647
p3389
aVMNG-2646
p3390
aVMNG-2645
p3391
aVMNG-2643
p3392
aVMNG-2640
p3393
aVMNG-2639
p3394
aVMNG-2638
p3395
aVMNG-2637
p3396
aVMNG-2636
p3397
aVMNG-2635
p3398
aVMNG-2633
p3399
aVMNG-2632
p3400
aVMNG-2631
p3401
aVMNG-2630
p3402
aVMNG-2628
p3403
aVMNG-2627
p3404
aVMNG-2626
p3405
aVMNG-2624
p3406
aVMNG-2623
p3407
aVMNG-2620
p3408
aVMNG-2619
p3409
aVMNG-2618
p3410
aVMNG-2617
p3411
aVMNG-2616
p3412
aVMNG-2615
p3413
aVMNG-2614
p3414
aVMNG-2613
p3415
aVMNG-2612
p3416
aVMNG-2611
p3417
aVMNG-2609
p3418
aVMNG-2608
p3419
aVMNG-2607
p3420
aVMNG-2606
p3421
aVMNG-2605
p3422
aVMNG-2604
p3423
aVMNG-2603
p3424
aVMNG-2601
p3425
aVMNG-2599
p3426
aVMNG-2598
p3427
aVMNG-2597
p3428
aVMNG-2596
p3429
aVMNG-2595
p3430
aVMNG-2594
p3431
aVMNG-2593
p3432
aVMNG-2591
p3433
aVMNG-2590
p3434
aVMNG-2589
p3435
aVMNG-2586
p3436
aVMNG-2585
p3437
aVMNG-2584
p3438
aVMNG-2583
p3439
aVMNG-2582
p3440
aVMNG-2581
p3441
aVMNG-2580
p3442
aVMNG-2578
p3443
aVMNG-2577
p3444
aVMNG-2576
p3445
aVMNG-2575
p3446
aVMNG-2573
p3447
aVMNG-2572
p3448
aVMNG-2571
p3449
aVMNG-2570
p3450
aVMNG-2569
p3451
aVMNG-2565
p3452
aVMNG-2564
p3453
aVMNG-2562
p3454
aVMNG-2561
p3455
aVMNG-2560
p3456
aVMNG-2559
p3457
aVMNG-2558
p3458
aVMNG-2557
p3459
aVMNG-2556
p3460
aVMNG-2555
p3461
aVMNG-2554
p3462
aVMNG-2553
p3463
aVMNG-2551
p3464
aVMNG-2550
p3465
aVMNG-2548
p3466
aVMNG-2546
p3467
aVMNG-2541
p3468
aVMNG-2540
p3469
aVMNG-2539
p3470
aVMNG-2538
p3471
aVMNG-2537
p3472
aVMNG-2536
p3473
aVMNG-2535
p3474
aVMNG-2534
p3475
aVMNG-2532
p3476
aVMNG-2531
p3477
aVMNG-2529
p3478
aVMNG-2528
p3479
aVMNG-2526
p3480
aVMNG-2525
p3481
aVMNG-2524
p3482
aVMNG-2523
p3483
aVMNG-2522
p3484
aVMNG-2521
p3485
aVMNG-2520
p3486
aVMNG-2519
p3487
aVMNG-2518
p3488
aVMNG-2517
p3489
aVMNG-2516
p3490
aVMNG-2515
p3491
aVMNG-2513
p3492
aVMNG-2511
p3493
aVMNG-2510
p3494
aVMNG-2508
p3495
aVMNG-2507
p3496
aVMNG-2506
p3497
aVMNG-2504
p3498
aVMNG-2503
p3499
aVMNG-2502
p3500
aVMNG-2500
p3501
aVMNG-2499
p3502
aVMNG-2496
p3503
aVMNG-2495
p3504
aVMNG-2494
p3505
aVMNG-2493
p3506
aVMNG-2491
p3507
aVMNG-2490
p3508
aVMNG-2489
p3509
aVMNG-2488
p3510
aVMNG-2486
p3511
aVMNG-2485
p3512
aVMNG-2484
p3513
aVMNG-2483
p3514
aVMNG-2481
p3515
aVMNG-2480
p3516
aVMNG-2479
p3517
aVMNG-2478
p3518
aVMNG-2477
p3519
aVMNG-2476
p3520
aVMNG-2475
p3521
aVMNG-2474
p3522
aVMNG-2472
p3523
aVMNG-2471
p3524
aVMNG-2470
p3525
aVMNG-2469
p3526
aVMNG-2468
p3527
aVMNG-2466
p3528
aVMNG-2465
p3529
aVMNG-2464
p3530
aVMNG-2463
p3531
aVMNG-2462
p3532
aVMNG-2461
p3533
aVMNG-2460
p3534
aVMNG-2457
p3535
aVMNG-2455
p3536
aVMNG-2454
p3537
aVMNG-2452
p3538
aVMNG-2449
p3539
aVMNG-2448
p3540
aVMNG-2447
p3541
aVMNG-2446
p3542
aVMNG-2445
p3543
aVMNG-2444
p3544
aVMNG-2443
p3545
aVMNG-2442
p3546
aVMNG-2441
p3547
aVMNG-2440
p3548
aVMNG-2438
p3549
aVMNG-2436
p3550
aVMNG-2435
p3551
aVMNG-2434
p3552
aVMNG-2433
p3553
aVMNG-2432
p3554
aVMNG-2431
p3555
aVMNG-2430
p3556
aVMNG-2429
p3557
aVMNG-2427
p3558
aVMNG-2426
p3559
aVMNG-2425
p3560
aVMNG-2424
p3561
aVMNG-2423
p3562
aVMNG-2422
p3563
aVMNG-2420
p3564
aVMNG-2419
p3565
aVMNG-2418
p3566
aVMNG-2415
p3567
aVMNG-2413
p3568
aVMNG-2412
p3569
aVMNG-2411
p3570
aVMNG-2410
p3571
aVMNG-2409
p3572
aVMNG-2408
p3573
aVMNG-2407
p3574
aVMNG-2406
p3575
aVMNG-2405
p3576
aVMNG-2400
p3577
aVMNG-2399
p3578
aVMNG-2398
p3579
aVMNG-2396
p3580
aVMNG-2395
p3581
aVMNG-2393
p3582
aVMNG-2392
p3583
aVMNG-2391
p3584
aVMNG-2390
p3585
aVMNG-2388
p3586
aVMNG-2387
p3587
aVMNG-2386
p3588
aVMNG-2385
p3589
aVMNG-2384
p3590
aVMNG-2383
p3591
aVMNG-2382
p3592
aVMNG-2381
p3593
aVMNG-2379
p3594
aVMNG-2378
p3595
aVMNG-2377
p3596
aVMNG-2376
p3597
aVMNG-2375
p3598
aVMNG-2373
p3599
aVMNG-2368
p3600
aVMNG-2366
p3601
aVMNG-2365
p3602
aVMNG-2364
p3603
aVMNG-2363
p3604
aVMNG-2362
p3605
aVMNG-2359
p3606
aVMNG-2357
p3607
aVMNG-2356
p3608
aVMNG-2355
p3609
aVMNG-2354
p3610
aVMNG-2353
p3611
aVMNG-2352
p3612
aVMNG-2351
p3613
aVMNG-2349
p3614
aVMNG-2348
p3615
aVMNG-2347
p3616
aVMNG-2346
p3617
aVMNG-2345
p3618
aVMNG-2344
p3619
aVMNG-2343
p3620
aVMNG-2342
p3621
aVMNG-2341
p3622
aVMNG-2340
p3623
aVMNG-2339
p3624
aVMNG-2337
p3625
aVMNG-2334
p3626
aVMNG-2333
p3627
aVMNG-2331
p3628
aVMNG-2330
p3629
aVMNG-2328
p3630
aVMNG-2326
p3631
aVMNG-2324
p3632
aVMNG-2323
p3633
aVMNG-2322
p3634
aVMNG-2321
p3635
aVMNG-2318
p3636
aVMNG-2317
p3637
aVMNG-2316
p3638
aVMNG-2315
p3639
aVMNG-2314
p3640
aVMNG-2312
p3641
aVMNG-2311
p3642
aVMNG-2310
p3643
aVMNG-2309
p3644
aVMNG-2308
p3645
aVMNG-2307
p3646
aVMNG-2306
p3647
aVMNG-2305
p3648
aVMNG-2303
p3649
aVMNG-2302
p3650
aVMNG-2301
p3651
aVMNG-2300
p3652
aVMNG-2299
p3653
aVMNG-2297
p3654
aVMNG-2296
p3655
aVMNG-2295
p3656
aVMNG-2294
p3657
aVMNG-2293
p3658
aVMNG-2292
p3659
aVMNG-2291
p3660
aVMNG-2290
p3661
aVMNG-2289
p3662
aVMNG-2287
p3663
aVMNG-2286
p3664
aVMNG-2285
p3665
aVMNG-2284
p3666
aVMNG-2282
p3667
aVMNG-2281
p3668
aVMNG-2280
p3669
aVMNG-2278
p3670
aVMNG-2277
p3671
aVMNG-2276
p3672
aVMNG-2275
p3673
aVMNG-2274
p3674
aVMNG-2270
p3675
aVMNG-2267
p3676
aVMNG-2266
p3677
aVMNG-2263
p3678
aVMNG-2262
p3679
aVMNG-2259
p3680
aVMNG-2258
p3681
aVMNG-2257
p3682
aVMNG-2256
p3683
aVMNG-2255
p3684
aVMNG-2254
p3685
aVMNG-2253
p3686
aVMNG-2252
p3687
aVMNG-2251
p3688
aVMNG-2250
p3689
aVMNG-2248
p3690
aVMNG-2247
p3691
aVMNG-2246
p3692
aVMNG-2244
p3693
aVMNG-2243
p3694
aVMNG-2242
p3695
aVMNG-2241
p3696
aVMNG-2240
p3697
aVMNG-2239
p3698
aVMNG-2238
p3699
aVMNG-2237
p3700
aVMNG-2236
p3701
aVMNG-2235
p3702
aVMNG-2234
p3703
aVMNG-2233
p3704
aVMNG-2230
p3705
aVMNG-2229
p3706
aVMNG-2228
p3707
aVMNG-2227
p3708
aVMNG-2226
p3709
aVMNG-2225
p3710
aVMNG-2223
p3711
aVMNG-2222
p3712
aVMNG-2221
p3713
aVMNG-2220
p3714
aVMNG-2219
p3715
aVMNG-2218
p3716
aVMNG-2217
p3717
aVMNG-2216
p3718
aVMNG-2215
p3719
aVMNG-2214
p3720
aVMNG-2213
p3721
aVMNG-2212
p3722
aVMNG-2211
p3723
aVMNG-2210
p3724
aVMNG-2209
p3725
aVMNG-2208
p3726
aVMNG-2207
p3727
aVMNG-2206
p3728
aVMNG-2205
p3729
aVMNG-2204
p3730
aVMNG-2203
p3731
aVMNG-2202
p3732
aVMNG-2201
p3733
aVMNG-2200
p3734
aVMNG-2199
p3735
aVMNG-2198
p3736
aVMNG-2197
p3737
aVMNG-2196
p3738
aVMNG-2195
p3739
aVMNG-2194
p3740
aVMNG-2192
p3741
aVMNG-2191
p3742
aVMNG-2190
p3743
aVMNG-2188
p3744
aVMNG-2187
p3745
aVMNG-2186
p3746
aVMNG-2185
p3747
aVMNG-2184
p3748
aVMNG-2182
p3749
aVMNG-2181
p3750
aVMNG-2180
p3751
aVMNG-2179
p3752
aVMNG-2178
p3753
aVMNG-2177
p3754
aVMNG-2176
p3755
aVMNG-2175
p3756
aVMNG-2174
p3757
aVMNG-2173
p3758
aVMNG-2172
p3759
aVMNG-2171
p3760
aVMNG-2170
p3761
aVMNG-2169
p3762
aVMNG-2167
p3763
aVMNG-2166
p3764
aVMNG-2165
p3765
aVMNG-2164
p3766
aVMNG-2163
p3767
aVMNG-2162
p3768
aVMNG-2161
p3769
aVMNG-2160
p3770
aVMNG-2159
p3771
aVMNG-2158
p3772
aVMNG-2157
p3773
aVMNG-2155
p3774
aVMNG-2154
p3775
aVMNG-2153
p3776
aVMNG-2152
p3777
aVMNG-2151
p3778
aVMNG-2150
p3779
aVMNG-2149
p3780
aVMNG-2147
p3781
aVMNG-2146
p3782
aVMNG-2145
p3783
aVMNG-2144
p3784
aVMNG-2143
p3785
aVMNG-2142
p3786
aVMNG-2141
p3787
aVMNG-2140
p3788
aVMNG-2137
p3789
aVMNG-2136
p3790
aVMNG-2135
p3791
aVMNG-2134
p3792
aVMNG-2133
p3793
aVMNG-2132
p3794
aVMNG-2131
p3795
aVMNG-2130
p3796
aVMNG-2129
p3797
aVMNG-2127
p3798
aVMNG-2126
p3799
aVMNG-2125
p3800
aVMNG-2124
p3801
aVMNG-2123
p3802
aVMNG-2122
p3803
aVMNG-2121
p3804
aVMNG-2120
p3805
aVMNG-2118
p3806
aVMNG-2117
p3807
aVMNG-2116
p3808
aVMNG-2115
p3809
aVMNG-2114
p3810
aVMNG-2112
p3811
aVMNG-2111
p3812
aVMNG-2110
p3813
aVMNG-2109
p3814
aVMNG-2107
p3815
aVMNG-2106
p3816
aVMNG-2105
p3817
aVMNG-2104
p3818
aVMNG-2103
p3819
aVMNG-2101
p3820
aVMNG-2098
p3821
aVMNG-2097
p3822
aVMNG-2096
p3823
aVMNG-2095
p3824
aVMNG-2094
p3825
aVMNG-2091
p3826
aVMNG-2090
p3827
aVMNG-2088
p3828
aVMNG-2087
p3829
aVMNG-2086
p3830
aVMNG-2085
p3831
aVMNG-2084
p3832
aVMNG-2083
p3833
aVMNG-2082
p3834
aVMNG-2081
p3835
aVMNG-2079
p3836
aVMNG-2078
p3837
aVMNG-2077
p3838
aVMNG-2074
p3839
aVMNG-2073
p3840
aVMNG-2071
p3841
aVMNG-2070
p3842
aVMNG-2069
p3843
aVMNG-2068
p3844
aVMNG-2067
p3845
aVMNG-2066
p3846
aVMNG-2064
p3847
aVMNG-2063
p3848
aVMNG-2062
p3849
aVMNG-2061
p3850
aVMNG-2059
p3851
aVMNG-2057
p3852
aVMNG-2056
p3853
aVMNG-2055
p3854
aVMNG-2054
p3855
aVMNG-2053
p3856
aVMNG-2052
p3857
aVMNG-2051
p3858
aVMNG-2049
p3859
aVMNG-2048
p3860
aVMNG-2047
p3861
aVMNG-2046
p3862
aVMNG-2045
p3863
aVMNG-2044
p3864
aVMNG-2042
p3865
aVMNG-2041
p3866
aVMNG-2040
p3867
aVMNG-2038
p3868
aVMNG-2037
p3869
aVMNG-2036
p3870
aVMNG-2035
p3871
aVMNG-2033
p3872
aVMNG-2032
p3873
aVMNG-2031
p3874
aVMNG-2030
p3875
aVMNG-2029
p3876
aVMNG-2028
p3877
aVMNG-2027
p3878
aVMNG-2026
p3879
aVMNG-2025
p3880
aVMNG-2022
p3881
aVMNG-2021
p3882
aVMNG-2020
p3883
aVMNG-2018
p3884
aVMNG-2017
p3885
aVMNG-2016
p3886
aVMNG-2015
p3887
aVMNG-2014
p3888
aVMNG-2013
p3889
aVMNG-2012
p3890
aVMNG-2011
p3891
aVMNG-2010
p3892
aVMNG-2009
p3893
aVMNG-2008
p3894
aVMNG-2006
p3895
aVMNG-2005
p3896
aVMNG-2004
p3897
aVMNG-2003
p3898
aVMNG-2002
p3899
aVMNG-2000
p3900
aVMNG-1999
p3901
aVMNG-1998
p3902
aVMNG-1997
p3903
aVMNG-1996
p3904
aVMNG-1995
p3905
aVMNG-1994
p3906
aVMNG-1992
p3907
aVMNG-1991
p3908
aVMNG-1988
p3909
aVMNG-1987
p3910
aVMNG-1985
p3911
aVMNG-1984
p3912
aVMNG-1982
p3913
aVMNG-1981
p3914
aVMNG-1979
p3915
aVMNG-1978
p3916
aVMNG-1977
p3917
aVMNG-1976
p3918
aVMNG-1975
p3919
aVMNG-1974
p3920
aVMNG-1972
p3921
aVMNG-1971
p3922
aVMNG-1969
p3923
aVMNG-1968
p3924
aVMNG-1967
p3925
aVMNG-1961
p3926
aVMNG-1960
p3927
aVMNG-1958
p3928
aVMNG-1957
p3929
aVMNG-1956
p3930
aVMNG-1955
p3931
aVMNG-1954
p3932
aVMNG-1953
p3933
aVMNG-1952
p3934
aVMNG-1950
p3935
aVMNG-1949
p3936
aVMNG-1945
p3937
aVMNG-1944
p3938
aVMNG-1943
p3939
aVMNG-1942
p3940
aVMNG-1941
p3941
aVMNG-1940
p3942
aVMNG-1939
p3943
aVMNG-1938
p3944
aVMNG-1937
p3945
aVMNG-1936
p3946
aVMNG-1934
p3947
aVMNG-1933
p3948
aVMNG-1932
p3949
aVMNG-1929
p3950
aVMNG-1928
p3951
aVMNG-1927
p3952
aVMNG-1925
p3953
aVMNG-1924
p3954
aVMNG-1923
p3955
aVMNG-1922
p3956
aVMNG-1921
p3957
aVMNG-1919
p3958
aVMNG-1916
p3959
aVMNG-1915
p3960
aVMNG-1914
p3961
aVMNG-1913
p3962
aVMNG-1912
p3963
aVMNG-1911
p3964
aVMNG-1910
p3965
aVMNG-1908
p3966
aVMNG-1907
p3967
aVMNG-1906
p3968
aVMNG-1905
p3969
aVMNG-1904
p3970
aVMNG-1903
p3971
aVMNG-1902
p3972
aVMNG-1900
p3973
aVMNG-1899
p3974
aVMNG-1898
p3975
aVMNG-1896
p3976
aVMNG-1895
p3977
aVMNG-1894
p3978
aVMNG-1893
p3979
aVMNG-1892
p3980
aVMNG-1891
p3981
aVMNG-1890
p3982
aVMNG-1888
p3983
aVMNG-1887
p3984
aVMNG-1886
p3985
aVMNG-1885
p3986
aVMNG-1884
p3987
aVMNG-1883
p3988
aVMNG-1882
p3989
aVMNG-1880
p3990
aVMNG-1879
p3991
aVMNG-1876
p3992
aVMNG-1875
p3993
aVMNG-1872
p3994
aVMNG-1867
p3995
aVMNG-1862
p3996
aVMNG-1859
p3997
aVMNG-1856
p3998
aVMNG-1849
p3999
aVMNG-1848
p4000
aVMNG-1847
p4001
aVMNG-1843
p4002
aVMNG-1842
p4003
aVMNG-1840
p4004
aVMNG-1837
p4005
aVMNG-1836
p4006
aVMNG-1834
p4007
aVMNG-1832
p4008
aVMNG-1830
p4009
aVMNG-1827
p4010
aVMNG-1823
p4011
aVMNG-1819
p4012
aVMNG-1817
p4013
aVMNG-1810
p4014
aVMNG-1804
p4015
aVMNG-1803
p4016
aVMNG-1797
p4017
aVMNG-1792
p4018
aVMNG-1791
p4019
aVMNG-1789
p4020
aVMNG-1788
p4021
aVMNG-1787
p4022
aVMNG-1784
p4023
aVMNG-1778
p4024
aVMNG-1777
p4025
aVMNG-1776
p4026
aVMNG-1775
p4027
aVMNG-1774
p4028
aVMNG-1760
p4029
aVMNG-1755
p4030
aVMNG-1753
p4031
aVMNG-1751
p4032
aVMNG-1746
p4033
aVMNG-1744
p4034
aVMNG-1742
p4035
aVMNG-1741
p4036
aVMNG-1740
p4037
aVMNG-1732
p4038
aVMNG-1731
p4039
aVMNG-1725
p4040
aVMNG-1718
p4041
aVMNG-1716
p4042
aVMNG-1715
p4043
aVMNG-1712
p4044
aVMNG-1709
p4045
aVMNG-1703
p4046
aVMNG-1701
p4047
aVMNG-1697
p4048
aVMNG-1694
p4049
aVMNG-1692
p4050
aVMNG-1689
p4051
aVMNG-1686
p4052
aVMNG-1683
p4053
aVMNG-1682
p4054
aVMNG-1679
p4055
aVMNG-1678
p4056
aVMNG-1677
p4057
aVMNG-1676
p4058
aVMNG-1673
p4059
aVMNG-1671
p4060
aVMNG-1670
p4061
aVMNG-1667
p4062
aVMNG-1666
p4063
aVMNG-1665
p4064
aVMNG-1664
p4065
aVMNG-1661
p4066
aVMNG-1659
p4067
aVMNG-1658
p4068
aVMNG-1656
p4069
aVMNG-1653
p4070
aVMNG-1650
p4071
aVMNG-1649
p4072
aVMNG-1646
p4073
aVMNG-1645
p4074
aVMNG-1644
p4075
aVMNG-1642
p4076
aVMNG-1638
p4077
aVMNG-1637
p4078
aVMNG-1636
p4079
aVMNG-1635
p4080
aVMNG-1634
p4081
aVMNG-1630
p4082
aVMNG-1629
p4083
aVMNG-1628
p4084
aVMNG-1621
p4085
aVMNG-1620
p4086
aVMNG-1619
p4087
aVMNG-1617
p4088
aVMNG-1609
p4089
aVMNG-1607
p4090
aVMNG-1603
p4091
aVMNG-1600
p4092
aVMNG-1598
p4093
aVMNG-1597
p4094
aVMNG-1594
p4095
aVMNG-1593
p4096
aVMNG-1592
p4097
aVMNG-1590
p4098
aVMNG-1586
p4099
aVMNG-1585
p4100
aVMNG-1584
p4101
aVMNG-1583
p4102
aVMNG-1582
p4103
aVMNG-1580
p4104
aVMNG-1577
p4105
aVMNG-1573
p4106
aVMNG-1571
p4107
aVMNG-1569
p4108
aVMNG-1568
p4109
aVMNG-1567
p4110
aVMNG-1564
p4111
aVMNG-1563
p4112
aVMNG-1562
p4113
aVMNG-1560
p4114
aVMNG-1559
p4115
aVMNG-1557
p4116
aVMNG-1552
p4117
aVMNG-1550
p4118
aVMNG-1549
p4119
aVMNG-1548
p4120
aVMNG-1546
p4121
aVMNG-1545
p4122
aVMNG-1540
p4123
aVMNG-1530
p4124
aVMNG-1529
p4125
aVMNG-1527
p4126
aVMNG-1525
p4127
aVMNG-1522
p4128
aVMNG-1521
p4129
aVMNG-1517
p4130
aVMNG-1509
p4131
aVMNG-1508
p4132
aVMNG-1505
p4133
aVMNG-1502
p4134
aVMNG-1500
p4135
aVMNG-1499
p4136
aVMNG-1498
p4137
aVMNG-1497
p4138
aVMNG-1495
p4139
aVMNG-1494
p4140
aVMNG-1493
p4141
aVMNG-1492
p4142
aVMNG-1491
p4143
aVMNG-1489
p4144
aVMNG-1486
p4145
aVMNG-1485
p4146
aVMNG-1484
p4147
aVMNG-1483
p4148
aVMNG-1482
p4149
aVMNG-1479
p4150
aVMNG-1478
p4151
aVMNG-1474
p4152
aVMNG-1470
p4153
aVMNG-1468
p4154
aVMNG-1465
p4155
aVMNG-1463
p4156
aVMNG-1460
p4157
aVMNG-1459
p4158
aVMNG-1458
p4159
aVMNG-1457
p4160
aVMNG-1456
p4161
aVMNG-1453
p4162
aVMNG-1452
p4163
aVMNG-1450
p4164
aVMNG-1448
p4165
aVMNG-1447
p4166
aVMNG-1446
p4167
aVMNG-1445
p4168
aVMNG-1443
p4169
aVMNG-1441
p4170
aVMNG-1440
p4171
aVMNG-1439
p4172
aVMNG-1438
p4173
aVMNG-1437
p4174
aVMNG-1436
p4175
aVMNG-1434
p4176
aVMNG-1432
p4177
aVMNG-1427
p4178
aVMNG-1425
p4179
aVMNG-1424
p4180
aVMNG-1423
p4181
aVMNG-1421
p4182
aVMNG-1420
p4183
aVMNG-1419
p4184
aVMNG-1418
p4185
aVMNG-1417
p4186
aVMNG-1416
p4187
aVMNG-1415
p4188
aVMNG-1414
p4189
aVMNG-1413
p4190
aVMNG-1412
p4191
aVMNG-1405
p4192
aVMNG-1404
p4193
aVMNG-1403
p4194
aVMNG-1395
p4195
aVMNG-1394
p4196
aVMNG-1393
p4197
aVMNG-1390
p4198
aVMNG-1388
p4199
aVMNG-1385
p4200
aVMNG-1384
p4201
aVMNG-1381
p4202
aVMNG-1379
p4203
aVMNG-1378
p4204
aVMNG-1373
p4205
aVMNG-1372
p4206
aVMNG-1370
p4207
aVMNG-1369
p4208
aVMNG-1368
p4209
aVMNG-1367
p4210
aVMNG-1366
p4211
aVMNG-1365
p4212
aVMNG-1364
p4213
aVMNG-1363
p4214
aVMNG-1362
p4215
aVMNG-1361
p4216
aVMNG-1357
p4217
aVMNG-1356
p4218
aVMNG-1355
p4219
aVMNG-1354
p4220
aVMNG-1353
p4221
aVMNG-1352
p4222
aVMNG-1351
p4223
aVMNG-1349
p4224
aVMNG-1348
p4225
aVMNG-1343
p4226
aVMNG-1341
p4227
aVMNG-1339
p4228
aVMNG-1337
p4229
aVMNG-1335
p4230
aVMNG-1333
p4231
aVMNG-1330
p4232
aVMNG-1326
p4233
aVMNG-1325
p4234
aVMNG-1323
p4235
aVMNG-1320
p4236
aVMNG-1318
p4237
aVMNG-1317
p4238
aVMNG-1311
p4239
aVMNG-1308
p4240
aVMNG-1307
p4241
aVMNG-1306
p4242
aVMNG-1304
p4243
aVMNG-1302
p4244
aVMNG-1301
p4245
aVMNG-1300
p4246
aVMNG-1299
p4247
aVMNG-1297
p4248
aVMNG-1291
p4249
aVMNG-1290
p4250
aVMNG-1289
p4251
aVMNG-1287
p4252
aVMNG-1286
p4253
aVMNG-1281
p4254
aVMNG-1278
p4255
aVMNG-1277
p4256
aVMNG-1276
p4257
aVMNG-1273
p4258
aVMNG-1271
p4259
aVMNG-1270
p4260
aVMNG-1268
p4261
aVMNG-1267
p4262
aVMNG-1266
p4263
aVMNG-1265
p4264
aVMNG-1262
p4265
aVMNG-1261
p4266
aVMNG-1260
p4267
aVMNG-1259
p4268
aVMNG-1258
p4269
aVMNG-1254
p4270
aVMNG-1251
p4271
aVMNG-1250
p4272
aVMNG-1249
p4273
aVMNG-1248
p4274
aVMNG-1247
p4275
aVMNG-1246
p4276
aVMNG-1245
p4277
aVMNG-1244
p4278
aVMNG-1243
p4279
aVMNG-1242
p4280
aVMNG-1241
p4281
aVMNG-1240
p4282
aVMNG-1235
p4283
aVMNG-1233
p4284
aVMNG-1232
p4285
aVMNG-1231
p4286
aVMNG-1227
p4287
aVMNG-1223
p4288
aVMNG-1220
p4289
aVMNG-1218
p4290
aVMNG-1217
p4291
aVMNG-1214
p4292
aVMNG-1213
p4293
aVMNG-1212
p4294
aVMNG-1208
p4295
aVMNG-1207
p4296
aVMNG-1205
p4297
aVMNG-1204
p4298
aVMNG-1203
p4299
aVMNG-1201
p4300
aVMNG-1198
p4301
aVMNG-1191
p4302
aVMNG-1187
p4303
aVMNG-1184
p4304
aVMNG-1183
p4305
aVMNG-1182
p4306
aVMNG-1181
p4307
aVMNG-1179
p4308
aVMNG-1178
p4309
aVMNG-1177
p4310
aVMNG-1175
p4311
aVMNG-1173
p4312
aVMNG-1171
p4313
aVMNG-1167
p4314
aVMNG-1159
p4315
aVMNG-1157
p4316
aVMNG-1153
p4317
aVMNG-1150
p4318
aVMNG-1146
p4319
aVMNG-1145
p4320
aVMNG-1144
p4321
aVMNG-1143
p4322
aVMNG-1142
p4323
aVMNG-1141
p4324
aVMNG-1140
p4325
aVMNG-1139
p4326
aVMNG-1138
p4327
aVMNG-1137
p4328
aVMNG-1131
p4329
aVMNG-1127
p4330
aVMNG-1126
p4331
aVMNG-1125
p4332
aVMNG-1124
p4333
aVMNG-1123
p4334
aVMNG-1122
p4335
aVMNG-1121
p4336
aVMNG-1120
p4337
aVMNG-1119
p4338
aVMNG-1118
p4339
aVMNG-1117
p4340
aVMNG-1112
p4341
aVMNG-1110
p4342
aVMNG-1109
p4343
aVMNG-1108
p4344
aVMNG-1107
p4345
aVMNG-1106
p4346
aVMNG-1098
p4347
aVMNG-1097
p4348
aVMNG-1094
p4349
aVMNG-1092
p4350
aVMNG-1090
p4351
aVMNG-1088
p4352
aVMNG-1086
p4353
aVMNG-1085
p4354
aVMNG-1084
p4355
aVMNG-1083
p4356
aVMNG-1079
p4357
aVMNG-1073
p4358
aVMNG-1072
p4359
aVMNG-1070
p4360
aVMNG-1069
p4361
aVMNG-1068
p4362
aVMNG-1067
p4363
aVMNG-1066
p4364
aVMNG-1065
p4365
aVMNG-1064
p4366
aVMNG-1059
p4367
aVMNG-1058
p4368
aVMNG-1057
p4369
aVMNG-1056
p4370
aVMNG-1055
p4371
aVMNG-1053
p4372
aVMNG-1052
p4373
aVMNG-1050
p4374
aVMNG-1049
p4375
aVMNG-1048
p4376
aVMNG-1045
p4377
aVMNG-1044
p4378
aVMNG-1041
p4379
aVMNG-1036
p4380
aVMNG-1033
p4381
aVMNG-1032
p4382
aVMNG-1031
p4383
aVMNG-1027
p4384
aVMNG-1026
p4385
aVMNG-1024
p4386
aVMNG-1022
p4387
aVMNG-1021
p4388
aVMNG-1015
p4389
aVMNG-1012
p4390
aVMNG-1011
p4391
aVMNG-1009
p4392
aVMNG-1008
p4393
aVMNG-1007
p4394
aVMNG-1005
p4395
aVMNG-988
p4396
aVMNG-985
p4397
aVMNG-980
p4398
aVMNG-977
p4399
aVMNG-971
p4400
aVMNG-967
p4401
aVMNG-966
p4402
aVMNG-962
p4403
aVMNG-961
p4404
aVMNG-953
p4405
aVMNG-952
p4406
aVMNG-951
p4407
aVMNG-950
p4408
aVMNG-949
p4409
aVMNG-948
p4410
aVMNG-947
p4411
aVMNG-946
p4412
aVMNG-944
p4413
aVMNG-943
p4414
aVMNG-942
p4415
aVMNG-941
p4416
aVMNG-939
p4417
aVMNG-938
p4418
aVMNG-936
p4419
aVMNG-935
p4420
aVMNG-934
p4421
aVMNG-931
p4422
aVMNG-929
p4423
aVMNG-925
p4424
aVMNG-922
p4425
aVMNG-919
p4426
aVMNG-918
p4427
aVMNG-916
p4428
aVMNG-915
p4429
aVMNG-914
p4430
aVMNG-913
p4431
aVMNG-910
p4432
aVMNG-908
p4433
aVMNG-906
p4434
aVMNG-905
p4435
aVMNG-900
p4436
aVMNG-899
p4437
aVMNG-897
p4438
aVMNG-895
p4439
aVMNG-894
p4440
aVMNG-893
p4441
aVMNG-891
p4442
aVMNG-889
p4443
aVMNG-888
p4444
aVMNG-885
p4445
aVMNG-875
p4446
aVMNG-874
p4447
aVMNG-872
p4448
aVMNG-871
p4449
aVMNG-870
p4450
aVMNG-869
p4451
aVMNG-868
p4452
aVMNG-866
p4453
aVMNG-865
p4454
aVMNG-864
p4455
aVMNG-861
p4456
aVMNG-860
p4457
aVMNG-859
p4458
aVMNG-858
p4459
aVMNG-857
p4460
aVMNG-856
p4461
aVMNG-855
p4462
aVMNG-854
p4463
aVMNG-853
p4464
aVMNG-852
p4465
aVMNG-851
p4466
aVMNG-850
p4467
aVMNG-849
p4468
aVMNG-848
p4469
aVMNG-847
p4470
aVMNG-846
p4471
aVMNG-845
p4472
aVMNG-844
p4473
aVMNG-841
p4474
aVMNG-840
p4475
aVMNG-838
p4476
aVMNG-837
p4477
aVMNG-836
p4478
aVMNG-835
p4479
aVMNG-834
p4480
aVMNG-833
p4481
aVMNG-832
p4482
aVMNG-831
p4483
aVMNG-830
p4484
aVMNG-829
p4485
aVMNG-828
p4486
aVMNG-825
p4487
aVMNG-823
p4488
aVMNG-821
p4489
aVMNG-820
p4490
aVMNG-818
p4491
aVMNG-817
p4492
aVMNG-816
p4493
aVMNG-815
p4494
aVMNG-814
p4495
aVMNG-813
p4496
aVMNG-812
p4497
aVMNG-811
p4498
aVMNG-809
p4499
aVMNG-808
p4500
aVMNG-807
p4501
aVMNG-806
p4502
aVMNG-805
p4503
aVMNG-804
p4504
aVMNG-803
p4505
aVMNG-802
p4506
aVMNG-801
p4507
aVMNG-800
p4508
aVMNG-799
p4509
aVMNG-798
p4510
aVMNG-797
p4511
aVMNG-794
p4512
aVMNG-792
p4513
aVMNG-790
p4514
aVMNG-789
p4515
aVMNG-787
p4516
aVMNG-786
p4517
aVMNG-785
p4518
aVMNG-783
p4519
aVMNG-782
p4520
aVMNG-781
p4521
aVMNG-780
p4522
aVMNG-776
p4523
aVMNG-773
p4524
aVMNG-772
p4525
aVMNG-770
p4526
aVMNG-769
p4527
aVMNG-768
p4528
aVMNG-767
p4529
aVMNG-766
p4530
aVMNG-764
p4531
aVMNG-763
p4532
aVMNG-762
p4533
aVMNG-761
p4534
aVMNG-760
p4535
aVMNG-759
p4536
aVMNG-758
p4537
aVMNG-757
p4538
aVMNG-756
p4539
aVMNG-755
p4540
aVMNG-754
p4541
aVMNG-753
p4542
aVMNG-748
p4543
aVMNG-747
p4544
aVMNG-746
p4545
aVMNG-745
p4546
aVMNG-742
p4547
aVMNG-741
p4548
aVMNG-740
p4549
aVMNG-739
p4550
aVMNG-738
p4551
aVMNG-737
p4552
aVMNG-736
p4553
aVMNG-734
p4554
aVMNG-733
p4555
aVMNG-732
p4556
aVMNG-731
p4557
aVMNG-730
p4558
aVMNG-729
p4559
aVMNG-728
p4560
aVMNG-727
p4561
aVMNG-726
p4562
aVMNG-725
p4563
aVMNG-724
p4564
aVMNG-723
p4565
aVMNG-722
p4566
aVMNG-721
p4567
aVMNG-720
p4568
aVMNG-719
p4569
aVMNG-718
p4570
aVMNG-717
p4571
aVMNG-716
p4572
aVMNG-715
p4573
aVMNG-714
p4574
aVMNG-713
p4575
aVMNG-712
p4576
aVMNG-711
p4577
aVMNG-710
p4578
aVMNG-709
p4579
aVMNG-708
p4580
aVMNG-707
p4581
aVMNG-705
p4582
aVMNG-702
p4583
aVMNG-701
p4584
aVMNG-700
p4585
aVMNG-699
p4586
aVMNG-697
p4587
aVMNG-696
p4588
aVMNG-695
p4589
aVMNG-693
p4590
aVMNG-692
p4591
aVMNG-689
p4592
aVMNG-687
p4593
aVMNG-686
p4594
aVMNG-685
p4595
aVMNG-684
p4596
aVMNG-683
p4597
aVMNG-681
p4598
aVMNG-680
p4599
aVMNG-679
p4600
aVMNG-677
p4601
aVMNG-676
p4602
aVMNG-675
p4603
aVMNG-674
p4604
aVMNG-673
p4605
aVMNG-672
p4606
aVMNG-671
p4607
aVMNG-670
p4608
aVMNG-669
p4609
aVMNG-666
p4610
aVMNG-665
p4611
aVMNG-664
p4612
aVMNG-663
p4613
aVMNG-662
p4614
aVMNG-660
p4615
aVMNG-659
p4616
aVMNG-658
p4617
aVMNG-657
p4618
aVMNG-656
p4619
aVMNG-655
p4620
aVMNG-654
p4621
aVMNG-653
p4622
aVMNG-652
p4623
aVMNG-651
p4624
aVMNG-650
p4625
aVMNG-649
p4626
aVMNG-648
p4627
aVMNG-647
p4628
aVMNG-646
p4629
aVMNG-645
p4630
aVMNG-644
p4631
aVMNG-643
p4632
aVMNG-642
p4633
aVMNG-641
p4634
aVMNG-640
p4635
aVMNG-639
p4636
aVMNG-638
p4637
aVMNG-637
p4638
aVMNG-636
p4639
aVMNG-635
p4640
aVMNG-633
p4641
aVMNG-632
p4642
aVMNG-631
p4643
aVMNG-629
p4644
aVMNG-628
p4645
aVMNG-627
p4646
aVMNG-626
p4647
aVMNG-625
p4648
aVMNG-624
p4649
aVMNG-623
p4650
aVMNG-622
p4651
aVMNG-621
p4652
aVMNG-619
p4653
aVMNG-616
p4654
aVMNG-615
p4655
aVMNG-614
p4656
aVMNG-613
p4657
aVMNG-612
p4658
aVMNG-611
p4659
aVMNG-610
p4660
aVMNG-609
p4661
aVMNG-608
p4662
aVMNG-607
p4663
aVMNG-606
p4664
aVMNG-605
p4665
aVMNG-604
p4666
aVMNG-603
p4667
aVMNG-602
p4668
aVMNG-601
p4669
aVMNG-600
p4670
aVMNG-599
p4671
aVMNG-598
p4672
aVMNG-597
p4673
aVMNG-596
p4674
aVMNG-595
p4675
aVMNG-593
p4676
aVMNG-592
p4677
aVMNG-591
p4678
aVMNG-590
p4679
aVMNG-588
p4680
aVMNG-585
p4681
aVMNG-584
p4682
aVMNG-583
p4683
aVMNG-582
p4684
aVMNG-581
p4685
aVMNG-580
p4686
aVMNG-579
p4687
aVMNG-576
p4688
aVMNG-575
p4689
aVMNG-574
p4690
aVMNG-573
p4691
aVMNG-572
p4692
aVMNG-571
p4693
aVMNG-569
p4694
aVMNG-568
p4695
aVMNG-567
p4696
aVMNG-566
p4697
aVMNG-565
p4698
aVMNG-564
p4699
aVMNG-563
p4700
aVMNG-562
p4701
aVMNG-561
p4702
aVMNG-560
p4703
aVMNG-559
p4704
aVMNG-558
p4705
aVMNG-557
p4706
aVMNG-556
p4707
aVMNG-555
p4708
aVMNG-553
p4709
aVMNG-551
p4710
aVMNG-550
p4711
aVMNG-549
p4712
aVMNG-548
p4713
aVMNG-547
p4714
aVMNG-546
p4715
aVMNG-545
p4716
aVMNG-544
p4717
aVMNG-543
p4718
aVMNG-542
p4719
aVMNG-541
p4720
aVMNG-540
p4721
aVMNG-539
p4722
aVMNG-538
p4723
aVMNG-537
p4724
aVMNG-534
p4725
aVMNG-533
p4726
aVMNG-532
p4727
aVMNG-531
p4728
aVMNG-530
p4729
aVMNG-529
p4730
aVMNG-528
p4731
aVMNG-527
p4732
aVMNG-526
p4733
aVMNG-525
p4734
aVMNG-524
p4735
aVMNG-523
p4736
aVMNG-522
p4737
aVMNG-521
p4738
aVMNG-520
p4739
aVMNG-519
p4740
aVMNG-518
p4741
aVMNG-517
p4742
aVMNG-516
p4743
aVMNG-515
p4744
aVMNG-513
p4745
aVMNG-512
p4746
aVMNG-511
p4747
aVMNG-510
p4748
aVMNG-509
p4749
aVMNG-508
p4750
aVMNG-507
p4751
aVMNG-506
p4752
aVMNG-505
p4753
aVMNG-502
p4754
aVMNG-500
p4755
aVMNG-499
p4756
aVMNG-498
p4757
aVMNG-497
p4758
aVMNG-496
p4759
aVMNG-495
p4760
aVMNG-494
p4761
aVMNG-493
p4762
aVMNG-492
p4763
aVMNG-491
p4764
aVMNG-490
p4765
aVMNG-489
p4766
aVMNG-488
p4767
aVMNG-487
p4768
aVMNG-486
p4769
aVMNG-485
p4770
aVMNG-483
p4771
aVMNG-482
p4772
aVMNG-481
p4773
aVMNG-480
p4774
aVMNG-479
p4775
aVMNG-478
p4776
aVMNG-477
p4777
aVMNG-476
p4778
aVMNG-475
p4779
aVMNG-474
p4780
aVMNG-473
p4781
aVMNG-472
p4782
aVMNG-471
p4783
aVMNG-470
p4784
aVMNG-469
p4785
aVMNG-468
p4786
aVMNG-467
p4787
aVMNG-465
p4788
aVMNG-464
p4789
aVMNG-463
p4790
aVMNG-462
p4791
aVMNG-461
p4792
aVMNG-459
p4793
aVMNG-456
p4794
aVMNG-455
p4795
aVMNG-454
p4796
aVMNG-453
p4797
aVMNG-452
p4798
aVMNG-451
p4799
aVMNG-450
p4800
aVMNG-449
p4801
aVMNG-448
p4802
aVMNG-447
p4803
aVMNG-446
p4804
aVMNG-445
p4805
aVMNG-444
p4806
aVMNG-443
p4807
aVMNG-442
p4808
aVMNG-439
p4809
aVMNG-438
p4810
aVMNG-437
p4811
aVMNG-436
p4812
aVMNG-434
p4813
aVMNG-433
p4814
aVMNG-432
p4815
aVMNG-431
p4816
aVMNG-429
p4817
aVMNG-428
p4818
aVMNG-427
p4819
aVMNG-426
p4820
aVMNG-425
p4821
aVMNG-424
p4822
aVMNG-423
p4823
aVMNG-422
p4824
aVMNG-421
p4825
aVMNG-420
p4826
aVMNG-419
p4827
aVMNG-418
p4828
aVMNG-416
p4829
aVMNG-415
p4830
aVMNG-414
p4831
aVMNG-413
p4832
aVMNG-412
p4833
aVMNG-411
p4834
aVMNG-410
p4835
aVMNG-409
p4836
aVMNG-407
p4837
aVMNG-406
p4838
aVMNG-404
p4839
aVMNG-401
p4840
aVMNG-400
p4841
aVMNG-399
p4842
aVMNG-398
p4843
aVMNG-397
p4844
aVMNG-396
p4845
aVMNG-395
p4846
aVMNG-393
p4847
aVMNG-392
p4848
aVMNG-391
p4849
aVMNG-390
p4850
aVMNG-389
p4851
aVMNG-388
p4852
aVMNG-386
p4853
aVMNG-385
p4854
aVMNG-383
p4855
aVMNG-382
p4856
aVMNG-380
p4857
aVMNG-379
p4858
aVMNG-378
p4859
aVMNG-377
p4860
aVMNG-375
p4861
aVMNG-374
p4862
aVMNG-373
p4863
aVMNG-372
p4864
aVMNG-371
p4865
aVMNG-370
p4866
aVMNG-369
p4867
aVMNG-368
p4868
aVMNG-367
p4869
aVMNG-366
p4870
aVMNG-365
p4871
aVMNG-363
p4872
aVMNG-362
p4873
aVMNG-361
p4874
aVMNG-359
p4875
aVMNG-358
p4876
aVMNG-357
p4877
aVMNG-356
p4878
aVMNG-355
p4879
aVMNG-354
p4880
aVMNG-353
p4881
aVMNG-352
p4882
aVMNG-351
p4883
aVMNG-350
p4884
aVMNG-348
p4885
aVMNG-347
p4886
aVMNG-346
p4887
aVMNG-345
p4888
aVMNG-344
p4889
aVMNG-343
p4890
aVMNG-342
p4891
aVMNG-341
p4892
aVMNG-340
p4893
aVMNG-339
p4894
aVMNG-338
p4895
aVMNG-337
p4896
aVMNG-336
p4897
aVMNG-335
p4898
aVMNG-334
p4899
aVMNG-333
p4900
aVMNG-332
p4901
aVMNG-331
p4902
aVMNG-330
p4903
aVMNG-329
p4904
aVMNG-328
p4905
aVMNG-327
p4906
aVMNG-326
p4907
aVMNG-325
p4908
aVMNG-324
p4909
aVMNG-323
p4910
aVMNG-322
p4911
aVMNG-321
p4912
aVMNG-320
p4913
aVMNG-319
p4914
aVMNG-318
p4915
aVMNG-317
p4916
aVMNG-316
p4917
aVMNG-315
p4918
aVMNG-314
p4919
aVMNG-313
p4920
aVMNG-312
p4921
aVMNG-311
p4922
aVMNG-310
p4923
aVMNG-309
p4924
aVMNG-308
p4925
aVMNG-307
p4926
aVMNG-306
p4927
aVMNG-305
p4928
aVMNG-304
p4929
aVMNG-303
p4930
aVMNG-302
p4931
aVMNG-301
p4932
aVMNG-300
p4933
aVMNG-299
p4934
aVMNG-298
p4935
aVMNG-297
p4936
aVMNG-296
p4937
aVMNG-295
p4938
aVMNG-294
p4939
aVMNG-293
p4940
aVMNG-292
p4941
aVMNG-291
p4942
aVMNG-290
p4943
aVMNG-289
p4944
aVMNG-288
p4945
aVMNG-287
p4946
aVMNG-285
p4947
aVMNG-284
p4948
aVMNG-283
p4949
aVMNG-282
p4950
aVMNG-281
p4951
aVMNG-280
p4952
aVMNG-279
p4953
aVMNG-278
p4954
aVMNG-277
p4955
aVMNG-276
p4956
aVMNG-275
p4957
aVMNG-273
p4958
aVMNG-272
p4959
aVMNG-271
p4960
aVMNG-270
p4961
aVMNG-269
p4962
aVMNG-268
p4963
aVMNG-267
p4964
aVMNG-266
p4965
aVMNG-265
p4966
aVMNG-264
p4967
aVMNG-263
p4968
aVMNG-262
p4969
aVMNG-261
p4970
aVMNG-260
p4971
aVMNG-258
p4972
aVMNG-257
p4973
aVMNG-256
p4974
aVMNG-255
p4975
aVMNG-254
p4976
aVMNG-253
p4977
aVMNG-252
p4978
aVMNG-250
p4979
aVMNG-249
p4980
aVMNG-248
p4981
aVMNG-247
p4982
aVMNG-246
p4983
aVMNG-245
p4984
aVMNG-244
p4985
aVMNG-243
p4986
aVMNG-242
p4987
aVMNG-240
p4988
aVMNG-239
p4989
aVMNG-238
p4990
aVMNG-236
p4991
aVMNG-233
p4992
aVMNG-232
p4993
aVMNG-231
p4994
aVMNG-230
p4995
aVMNG-229
p4996
aVMNG-228
p4997
aVMNG-227
p4998
aVMNG-226
p4999
aVMNG-225
p5000
aVMNG-224
p5001
aVMNG-223
p5002
aVMNG-222
p5003
aVMNG-221
p5004
aVMNG-220
p5005
aVMNG-219
p5006
aVMNG-218
p5007
aVMNG-217
p5008
aVMNG-216
p5009
aVMNG-215
p5010
aVMNG-214
p5011
aVMNG-213
p5012
aVMNG-212
p5013
aVMNG-210
p5014
aVMNG-209
p5015
aVMNG-208
p5016
aVMNG-207
p5017
aVMNG-206
p5018
aVMNG-205
p5019
aVMNG-204
p5020
aVMNG-203
p5021
aVMNG-199
p5022
aVMNG-198
p5023
aVMNG-197
p5024
aVMNG-196
p5025
aVMNG-195
p5026
aVMNG-194
p5027
aVMNG-193
p5028
aVMNG-192
p5029
aVMNG-191
p5030
aVMNG-190
p5031
aVMNG-189
p5032
aVMNG-188
p5033
aVMNG-187
p5034
aVMNG-186
p5035
aVMNG-185
p5036
aVMNG-184
p5037
aVMNG-183
p5038
aVMNG-182
p5039
aVMNG-181
p5040
aVMNG-180
p5041
aVMNG-179
p5042
aVMNG-178
p5043
aVMNG-177
p5044
aVMNG-176
p5045
aVMNG-175
p5046
aVMNG-174
p5047
aVMNG-173
p5048
aVMNG-172
p5049
aVMNG-171
p5050
aVMNG-170
p5051
aVMNG-169
p5052
aVMNG-168
p5053
aVMNG-167
p5054
aVMNG-166
p5055
aVMNG-165
p5056
aVMNG-164
p5057
aVMNG-163
p5058
aVMNG-162
p5059
aVMNG-161
p5060
aVMNG-160
p5061
aVMNG-159
p5062
aVMNG-158
p5063
aVMNG-157
p5064
aVMNG-156
p5065
aVMNG-155
p5066
aVMNG-154
p5067
aVMNG-153
p5068
aVMNG-151
p5069
aVMNG-150
p5070
aVMNG-149
p5071
aVMNG-148
p5072
aVMNG-147
p5073
aVMNG-146
p5074
aVMNG-145
p5075
aVMNG-144
p5076
aVMNG-143
p5077
aVMNG-142
p5078
aVMNG-141
p5079
aVMNG-140
p5080
aVMNG-139
p5081
aVMNG-138
p5082
aVMNG-137
p5083
aVMNG-136
p5084
aVMNG-135
p5085
aVMNG-134
p5086
aVMNG-130
p5087
aVMNG-129
p5088
aVMNG-128
p5089
aVMNG-127
p5090
aVMNG-126
p5091
aVMNG-125
p5092
aVMNG-123
p5093
aVMNG-122
p5094
aVMNG-121
p5095
aVMNG-120
p5096
aVMNG-119
p5097
aVMNG-118
p5098
aVMNG-117
p5099
aVMNG-116
p5100
aVMNG-115
p5101
aVMNG-114
p5102
aVMNG-113
p5103
aVMNG-112
p5104
aVMNG-111
p5105
aVMNG-110
p5106
aVMNG-109
p5107
aVMNG-107
p5108
aVMNG-106
p5109
aVMNG-105
p5110
aVMNG-104
p5111
aVMNG-103
p5112
aVMNG-102
p5113
aVMNG-101
p5114
aVMNG-100
p5115
aVMNG-99
p5116
aVMNG-98
p5117
aVMNG-97
p5118
aVMNG-96
p5119
aVMNG-95
p5120
aVMNG-94
p5121
aVMNG-93
p5122
aVMNG-92
p5123
aVMNG-91
p5124
aVMNG-90
p5125
aVMNG-88
p5126
aVMNG-87
p5127
aVMNG-86
p5128
aVMNG-84
p5129
aVMNG-82
p5130
aVMNG-81
p5131
aVMNG-80
p5132
aVMNG-78
p5133
aVMNG-77
p5134
aVMNG-75
p5135
aVMNG-74
p5136
aVMNG-73
p5137
aVMNG-72
p5138
aVMNG-71
p5139
aVMNG-70
p5140
aVMNG-69
p5141
aVMNG-68
p5142
aVMNG-67
p5143
aVMNG-66
p5144
aVMNG-64
p5145
aVMNG-63
p5146
aVMNG-62
p5147
aVMNG-61
p5148
aVMNG-60
p5149
aVMNG-59
p5150
aVMNG-58
p5151
aVMNG-57
p5152
aVMNG-56
p5153
aVMNG-55
p5154
aVMNG-54
p5155
aVMNG-53
p5156
aVMNG-52
p5157
aVMNG-51
p5158
aVMNG-50
p5159
aVMNG-49
p5160
aVMNG-48
p5161
aVMNG-47
p5162
aVMNG-46
p5163
aVMNG-45
p5164
aVMNG-44
p5165
aVMNG-43
p5166
aVMNG-42
p5167
aVMNG-40
p5168
aVMNG-39
p5169
aVMNG-38
p5170
aVMNG-37
p5171
aVMNG-36
p5172
aVMNG-35
p5173
aVMNG-34
p5174
aVMNG-33
p5175
aVMNG-32
p5176
aVMNG-29
p5177
aVMNG-28
p5178
aVMNG-27
p5179
aVMNG-26
p5180
aVMNG-24
p5181
aVMNG-23
p5182
aVMNG-21
p5183
aVMNG-20
p5184
aVMNG-19
p5185
aVMNG-18
p5186
aVMNG-17
p5187
aVMNG-16
p5188
aVMNG-15
p5189
aVMNG-13
p5190
aVMNG-12
p5191
aVMNG-11
p5192
aVMNG-9
p5193
aVMNG-8
p5194
aVMNG-7
p5195
aVMNG-5
p5196
aVMNG-4
p5197
aVMNG-3
p5198
aVMNG-1
p5199
a.