(lp0
VMPATCH-20
p1
aVMPATCH-19
p2
aVMPATCH-18
p3
aVMPATCH-17
p4
aVMPATCH-16
p5
aVMPATCH-15
p6
aVMPATCH-14
p7
aVMPATCH-13
p8
aVMPATCH-12
p9
aVMPATCH-11
p10
aVMPATCH-5
p11
aVMPATCH-3
p12
aVMPATCH-2
p13
aVMPATCH-1
p14
a.