(lp0
VMPDF-91
p1
aVMPDF-90
p2
aVMPDF-89
p3
aVMPDF-88
p4
aVMPDF-87
p5
aVMPDF-86
p6
aVMPDF-85
p7
aVMPDF-84
p8
aVMPDF-83
p9
aVMPDF-82
p10
aVMPDF-81
p11
aVMPDF-80
p12
aVMPDF-79
p13
aVMPDF-78
p14
aVMPDF-77
p15
aVMPDF-76
p16
aVMPDF-75
p17
aVMPDF-74
p18
aVMPDF-73
p19
aVMPDF-72
p20
aVMPDF-71
p21
aVMPDF-70
p22
aVMPDF-69
p23
aVMPDF-68
p24
aVMPDF-67
p25
aVMPDF-66
p26
aVMPDF-65
p27
aVMPDF-64
p28
aVMPDF-63
p29
aVMPDF-62
p30
aVMPDF-61
p31
aVMPDF-60
p32
aVMPDF-59
p33
aVMPDF-58
p34
aVMPDF-57
p35
aVMPDF-56
p36
aVMPDF-55
p37
aVMPDF-54
p38
aVMPDF-53
p39
aVMPDF-52
p40
aVMPDF-51
p41
aVMPDF-50
p42
aVMPDF-49
p43
aVMPDF-48
p44
aVMPDF-47
p45
aVMPDF-46
p46
aVMPDF-45
p47
aVMPDF-44
p48
aVMPDF-42
p49
aVMPDF-41
p50
aVMPDF-40
p51
aVMPDF-39
p52
aVMPDF-38
p53
aVMPDF-37
p54
aVMPDF-36
p55
aVMPDF-35
p56
aVMPDF-34
p57
aVMPDF-33
p58
aVMPDF-32
p59
aVMPDF-31
p60
aVMPDF-30
p61
aVMPDF-29
p62
aVMPDF-28
p63
aVMPDF-27
p64
aVMPDF-26
p65
aVMPDF-25
p66
aVMPDF-24
p67
aVMPDF-23
p68
aVMPDF-17
p69
aVMPDF-16
p70
aVMPDF-15
p71
aVMPDF-14
p72
aVMPDF-13
p73
aVMPDF-12
p74
aVMPDF-11
p75
aVMPDF-10
p76
aVMPDF-9
p77
aVMPDF-8
p78
aVMPDF-7
p79
aVMPDF-6
p80
aVMPDF-5
p81
aVMPDF-4
p82
aVMPDF-3
p83
aVMPDF-2
p84
aVMPDF-1
p85
a.