(lp0
VMPH-154
p1
aVMPH-153
p2
aVMPH-152
p3
aVMPH-151
p4
aVMPH-150
p5
aVMPH-149
p6
aVMPH-148
p7
aVMPH-147
p8
aVMPH-146
p9
aVMPH-145
p10
aVMPH-144
p11
aVMPH-143
p12
aVMPH-142
p13
aVMPH-141
p14
aVMPH-140
p15
aVMPH-139
p16
aVMPH-138
p17
aVMPH-137
p18
aVMPH-136
p19
aVMPH-135
p20
aVMPH-134
p21
aVMPH-133
p22
aVMPH-132
p23
aVMPH-131
p24
aVMPH-130
p25
aVMPH-129
p26
aVMPH-128
p27
aVMPH-127
p28
aVMPH-126
p29
aVMPH-125
p30
aVMPH-124
p31
aVMPH-123
p32
aVMPH-122
p33
aVMPH-121
p34
aVMPH-120
p35
aVMPH-119
p36
aVMPH-118
p37
aVMPH-117
p38
aVMPH-116
p39
aVMPH-114
p40
aVMPH-113
p41
aVMPH-112
p42
aVMPH-111
p43
aVMPH-110
p44
aVMPH-109
p45
aVMPH-108
p46
aVMPH-107
p47
aVMPH-106
p48
aVMPH-105
p49
aVMPH-104
p50
aVMPH-103
p51
aVMPH-102
p52
aVMPH-101
p53
aVMPH-99
p54
aVMPH-98
p55
aVMPH-97
p56
aVMPH-95
p57
aVMPH-94
p58
aVMPH-93
p59
aVMPH-92
p60
aVMPH-91
p61
aVMPH-90
p62
aVMPH-89
p63
aVMPH-88
p64
aVMPH-87
p65
aVMPH-86
p66
aVMPH-85
p67
aVMPH-83
p68
aVMPH-82
p69
aVMPH-81
p70
aVMPH-80
p71
aVMPH-79
p72
aVMPH-78
p73
aVMPH-77
p74
aVMPH-76
p75
aVMPH-75
p76
aVMPH-74
p77
aVMPH-73
p78
aVMPH-72
p79
aVMPH-71
p80
aVMPH-70
p81
aVMPH-69
p82
aVMPH-67
p83
aVMPH-60
p84
aVMPH-59
p85
aVMPH-58
p86
aVMPH-57
p87
aVMPH-56
p88
aVMPH-55
p89
aVMPH-54
p90
aVMPH-53
p91
aVMPH-52
p92
aVMPH-51
p93
aVMPH-50
p94
aVMPH-49
p95
aVMPH-48
p96
aVMPH-47
p97
aVMPH-46
p98
aVMPH-45
p99
aVMPH-44
p100
aVMPH-43
p101
aVMPH-42
p102
aVMPH-41
p103
aVMPH-40
p104
aVMPH-39
p105
aVMPH-38
p106
aVMPH-37
p107
aVMPH-36
p108
aVMPH-35
p109
aVMPH-34
p110
aVMPH-33
p111
aVMPH-32
p112
aVMPH-31
p113
aVMPH-30
p114
aVMPH-29
p115
aVMPH-28
p116
aVMPH-27
p117
aVMPH-26
p118
aVMPH-25
p119
aVMPH-24
p120
aVMPH-23
p121
aVMPH-22
p122
aVMPH-21
p123
aVMPH-19
p124
aVMPH-18
p125
aVMPH-17
p126
aVMPH-16
p127
aVMPH-15
p128
aVMPH-14
p129
aVMPH-13
p130
aVMPH-12
p131
aVMPH-11
p132
aVMPH-10
p133
aVMPH-9
p134
aVMPH-8
p135
aVMPH-7
p136
aVMPH-6
p137
aVMPH-5
p138
aVMPH-4
p139
aVMPH-3
p140
aVMPH-2
p141
aVMPH-1
p142
a.