(lp0
VMPIR-374
p1
aVMPIR-373
p2
aVMPIR-372
p3
aVMPIR-371
p4
aVMPIR-370
p5
aVMPIR-369
p6
aVMPIR-368
p7
aVMPIR-367
p8
aVMPIR-366
p9
aVMPIR-365
p10
aVMPIR-364
p11
aVMPIR-363
p12
aVMPIR-362
p13
aVMPIR-361
p14
aVMPIR-360
p15
aVMPIR-359
p16
aVMPIR-358
p17
aVMPIR-357
p18
aVMPIR-356
p19
aVMPIR-355
p20
aVMPIR-354
p21
aVMPIR-353
p22
aVMPIR-352
p23
aVMPIR-351
p24
aVMPIR-350
p25
aVMPIR-349
p26
aVMPIR-348
p27
aVMPIR-347
p28
aVMPIR-346
p29
aVMPIR-345
p30
aVMPIR-344
p31
aVMPIR-343
p32
aVMPIR-342
p33
aVMPIR-341
p34
aVMPIR-340
p35
aVMPIR-339
p36
aVMPIR-338
p37
aVMPIR-337
p38
aVMPIR-336
p39
aVMPIR-335
p40
aVMPIR-334
p41
aVMPIR-333
p42
aVMPIR-332
p43
aVMPIR-331
p44
aVMPIR-330
p45
aVMPIR-329
p46
aVMPIR-327
p47
aVMPIR-326
p48
aVMPIR-325
p49
aVMPIR-324
p50
aVMPIR-323
p51
aVMPIR-322
p52
aVMPIR-321
p53
aVMPIR-319
p54
aVMPIR-318
p55
aVMPIR-317
p56
aVMPIR-316
p57
aVMPIR-315
p58
aVMPIR-314
p59
aVMPIR-313
p60
aVMPIR-311
p61
aVMPIR-310
p62
aVMPIR-309
p63
aVMPIR-308
p64
aVMPIR-306
p65
aVMPIR-305
p66
aVMPIR-304
p67
aVMPIR-303
p68
aVMPIR-302
p69
aVMPIR-301
p70
aVMPIR-300
p71
aVMPIR-299
p72
aVMPIR-298
p73
aVMPIR-297
p74
aVMPIR-296
p75
aVMPIR-295
p76
aVMPIR-294
p77
aVMPIR-293
p78
aVMPIR-292
p79
aVMPIR-291
p80
aVMPIR-290
p81
aVMPIR-289
p82
aVMPIR-288
p83
aVMPIR-287
p84
aVMPIR-286
p85
aVMPIR-285
p86
aVMPIR-284
p87
aVMPIR-283
p88
aVMPIR-282
p89
aVMPIR-281
p90
aVMPIR-280
p91
aVMPIR-279
p92
aVMPIR-278
p93
aVMPIR-277
p94
aVMPIR-276
p95
aVMPIR-275
p96
aVMPIR-274
p97
aVMPIR-273
p98
aVMPIR-272
p99
aVMPIR-271
p100
aVMPIR-269
p101
aVMPIR-268
p102
aVMPIR-267
p103
aVMPIR-266
p104
aVMPIR-265
p105
aVMPIR-264
p106
aVMPIR-263
p107
aVMPIR-262
p108
aVMPIR-261
p109
aVMPIR-260
p110
aVMPIR-259
p111
aVMPIR-258
p112
aVMPIR-257
p113
aVMPIR-255
p114
aVMPIR-254
p115
aVMPIR-253
p116
aVMPIR-252
p117
aVMPIR-251
p118
aVMPIR-250
p119
aVMPIR-249
p120
aVMPIR-248
p121
aVMPIR-247
p122
aVMPIR-246
p123
aVMPIR-245
p124
aVMPIR-244
p125
aVMPIR-243
p126
aVMPIR-242
p127
aVMPIR-241
p128
aVMPIR-240
p129
aVMPIR-239
p130
aVMPIR-238
p131
aVMPIR-237
p132
aVMPIR-236
p133
aVMPIR-235
p134
aVMPIR-234
p135
aVMPIR-233
p136
aVMPIR-232
p137
aVMPIR-230
p138
aVMPIR-229
p139
aVMPIR-228
p140
aVMPIR-227
p141
aVMPIR-226
p142
aVMPIR-225
p143
aVMPIR-224
p144
aVMPIR-223
p145
aVMPIR-222
p146
aVMPIR-221
p147
aVMPIR-220
p148
aVMPIR-219
p149
aVMPIR-218
p150
aVMPIR-217
p151
aVMPIR-216
p152
aVMPIR-215
p153
aVMPIR-214
p154
aVMPIR-213
p155
aVMPIR-212
p156
aVMPIR-211
p157
aVMPIR-210
p158
aVMPIR-209
p159
aVMPIR-208
p160
aVMPIR-207
p161
aVMPIR-206
p162
aVMPIR-205
p163
aVMPIR-204
p164
aVMPIR-203
p165
aVMPIR-202
p166
aVMPIR-201
p167
aVMPIR-200
p168
aVMPIR-199
p169
aVMPIR-198
p170
aVMPIR-197
p171
aVMPIR-196
p172
aVMPIR-195
p173
aVMPIR-194
p174
aVMPIR-193
p175
aVMPIR-191
p176
aVMPIR-190
p177
aVMPIR-189
p178
aVMPIR-188
p179
aVMPIR-187
p180
aVMPIR-186
p181
aVMPIR-185
p182
aVMPIR-184
p183
aVMPIR-183
p184
aVMPIR-182
p185
aVMPIR-181
p186
aVMPIR-180
p187
aVMPIR-179
p188
aVMPIR-178
p189
aVMPIR-177
p190
aVMPIR-176
p191
aVMPIR-175
p192
aVMPIR-174
p193
aVMPIR-173
p194
aVMPIR-172
p195
aVMPIR-171
p196
aVMPIR-170
p197
aVMPIR-165
p198
aVMPIR-164
p199
aVMPIR-163
p200
aVMPIR-162
p201
aVMPIR-161
p202
aVMPIR-160
p203
aVMPIR-159
p204
aVMPIR-158
p205
aVMPIR-157
p206
aVMPIR-156
p207
aVMPIR-155
p208
aVMPIR-154
p209
aVMPIR-153
p210
aVMPIR-152
p211
aVMPIR-151
p212
aVMPIR-150
p213
aVMPIR-149
p214
aVMPIR-148
p215
aVMPIR-147
p216
aVMPIR-146
p217
aVMPIR-144
p218
aVMPIR-143
p219
aVMPIR-142
p220
aVMPIR-141
p221
aVMPIR-140
p222
aVMPIR-138
p223
aVMPIR-137
p224
aVMPIR-136
p225
aVMPIR-135
p226
aVMPIR-134
p227
aVMPIR-133
p228
aVMPIR-132
p229
aVMPIR-131
p230
aVMPIR-130
p231
aVMPIR-129
p232
aVMPIR-128
p233
aVMPIR-127
p234
aVMPIR-126
p235
aVMPIR-125
p236
aVMPIR-124
p237
aVMPIR-123
p238
aVMPIR-122
p239
aVMPIR-121
p240
aVMPIR-120
p241
aVMPIR-119
p242
aVMPIR-118
p243
aVMPIR-117
p244
aVMPIR-116
p245
aVMPIR-115
p246
aVMPIR-114
p247
aVMPIR-113
p248
aVMPIR-112
p249
aVMPIR-111
p250
aVMPIR-110
p251
aVMPIR-109
p252
aVMPIR-108
p253
aVMPIR-107
p254
aVMPIR-106
p255
aVMPIR-105
p256
aVMPIR-104
p257
aVMPIR-103
p258
aVMPIR-102
p259
aVMPIR-101
p260
aVMPIR-100
p261
aVMPIR-99
p262
aVMPIR-98
p263
aVMPIR-97
p264
aVMPIR-96
p265
aVMPIR-95
p266
aVMPIR-94
p267
aVMPIR-92
p268
aVMPIR-91
p269
aVMPIR-90
p270
aVMPIR-89
p271
aVMPIR-88
p272
aVMPIR-87
p273
aVMPIR-86
p274
aVMPIR-85
p275
aVMPIR-84
p276
aVMPIR-83
p277
aVMPIR-82
p278
aVMPIR-81
p279
aVMPIR-80
p280
aVMPIR-79
p281
aVMPIR-78
p282
aVMPIR-77
p283
aVMPIR-76
p284
aVMPIR-75
p285
aVMPIR-73
p286
aVMPIR-72
p287
aVMPIR-71
p288
aVMPIR-70
p289
aVMPIR-69
p290
aVMPIR-68
p291
aVMPIR-67
p292
aVMPIR-66
p293
aVMPIR-65
p294
aVMPIR-64
p295
aVMPIR-63
p296
aVMPIR-62
p297
aVMPIR-61
p298
aVMPIR-60
p299
aVMPIR-59
p300
aVMPIR-58
p301
aVMPIR-57
p302
aVMPIR-56
p303
aVMPIR-55
p304
aVMPIR-54
p305
aVMPIR-53
p306
aVMPIR-52
p307
aVMPIR-50
p308
aVMPIR-49
p309
aVMPIR-48
p310
aVMPIR-47
p311
aVMPIR-46
p312
aVMPIR-45
p313
aVMPIR-43
p314
aVMPIR-42
p315
aVMPIR-41
p316
aVMPIR-40
p317
aVMPIR-39
p318
aVMPIR-38
p319
aVMPIR-37
p320
aVMPIR-36
p321
aVMPIR-35
p322
aVMPIR-34
p323
aVMPIR-33
p324
aVMPIR-32
p325
aVMPIR-31
p326
aVMPIR-30
p327
aVMPIR-29
p328
aVMPIR-28
p329
aVMPIR-27
p330
aVMPIR-26
p331
aVMPIR-25
p332
aVMPIR-24
p333
aVMPIR-23
p334
aVMPIR-22
p335
aVMPIR-21
p336
aVMPIR-20
p337
aVMPIR-19
p338
aVMPIR-18
p339
aVMPIR-17
p340
aVMPIR-16
p341
aVMPIR-15
p342
aVMPIR-14
p343
aVMPIR-13
p344
aVMPIR-12
p345
aVMPIR-11
p346
aVMPIR-10
p347
aVMPIR-9
p348
aVMPIR-8
p349
aVMPIR-7
p350
aVMPIR-6
p351
aVMPIR-5
p352
aVMPIR-4
p353
aVMPIR-3
p354
aVMPIR-2
p355
aVMPIR-1
p356
a.