(lp0
VMPLUGIN-341
p1
aVMPLUGIN-340
p2
aVMPLUGIN-339
p3
aVMPLUGIN-338
p4
aVMPLUGIN-337
p5
aVMPLUGIN-336
p6
aVMPLUGIN-335
p7
aVMPLUGIN-334
p8
aVMPLUGIN-333
p9
aVMPLUGIN-332
p10
aVMPLUGIN-331
p11
aVMPLUGIN-330
p12
aVMPLUGIN-329
p13
aVMPLUGIN-328
p14
aVMPLUGIN-327
p15
aVMPLUGIN-326
p16
aVMPLUGIN-325
p17
aVMPLUGIN-324
p18
aVMPLUGIN-323
p19
aVMPLUGIN-322
p20
aVMPLUGIN-321
p21
aVMPLUGIN-320
p22
aVMPLUGIN-319
p23
aVMPLUGIN-318
p24
aVMPLUGIN-317
p25
aVMPLUGIN-316
p26
aVMPLUGIN-315
p27
aVMPLUGIN-314
p28
aVMPLUGIN-313
p29
aVMPLUGIN-312
p30
aVMPLUGIN-311
p31
aVMPLUGIN-310
p32
aVMPLUGIN-309
p33
aVMPLUGIN-308
p34
aVMPLUGIN-307
p35
aVMPLUGIN-306
p36
aVMPLUGIN-305
p37
aVMPLUGIN-304
p38
aVMPLUGIN-303
p39
aVMPLUGIN-302
p40
aVMPLUGIN-301
p41
aVMPLUGIN-300
p42
aVMPLUGIN-299
p43
aVMPLUGIN-298
p44
aVMPLUGIN-297
p45
aVMPLUGIN-296
p46
aVMPLUGIN-295
p47
aVMPLUGIN-294
p48
aVMPLUGIN-293
p49
aVMPLUGIN-292
p50
aVMPLUGIN-291
p51
aVMPLUGIN-290
p52
aVMPLUGIN-289
p53
aVMPLUGIN-288
p54
aVMPLUGIN-287
p55
aVMPLUGIN-286
p56
aVMPLUGIN-285
p57
aVMPLUGIN-284
p58
aVMPLUGIN-283
p59
aVMPLUGIN-282
p60
aVMPLUGIN-281
p61
aVMPLUGIN-280
p62
aVMPLUGIN-279
p63
aVMPLUGIN-278
p64
aVMPLUGIN-277
p65
aVMPLUGIN-276
p66
aVMPLUGIN-275
p67
aVMPLUGIN-274
p68
aVMPLUGIN-273
p69
aVMPLUGIN-272
p70
aVMPLUGIN-271
p71
aVMPLUGIN-270
p72
aVMPLUGIN-269
p73
aVMPLUGIN-268
p74
aVMPLUGIN-267
p75
aVMPLUGIN-266
p76
aVMPLUGIN-265
p77
aVMPLUGIN-264
p78
aVMPLUGIN-263
p79
aVMPLUGIN-262
p80
aVMPLUGIN-261
p81
aVMPLUGIN-260
p82
aVMPLUGIN-259
p83
aVMPLUGIN-258
p84
aVMPLUGIN-257
p85
aVMPLUGIN-256
p86
aVMPLUGIN-255
p87
aVMPLUGIN-254
p88
aVMPLUGIN-253
p89
aVMPLUGIN-252
p90
aVMPLUGIN-251
p91
aVMPLUGIN-250
p92
aVMPLUGIN-249
p93
aVMPLUGIN-248
p94
aVMPLUGIN-247
p95
aVMPLUGIN-246
p96
aVMPLUGIN-245
p97
aVMPLUGIN-244
p98
aVMPLUGIN-243
p99
aVMPLUGIN-242
p100
aVMPLUGIN-241
p101
aVMPLUGIN-240
p102
aVMPLUGIN-239
p103
aVMPLUGIN-238
p104
aVMPLUGIN-237
p105
aVMPLUGIN-236
p106
aVMPLUGIN-235
p107
aVMPLUGIN-234
p108
aVMPLUGIN-233
p109
aVMPLUGIN-232
p110
aVMPLUGIN-231
p111
aVMPLUGIN-230
p112
aVMPLUGIN-229
p113
aVMPLUGIN-228
p114
aVMPLUGIN-227
p115
aVMPLUGIN-226
p116
aVMPLUGIN-225
p117
aVMPLUGIN-224
p118
aVMPLUGIN-223
p119
aVMPLUGIN-222
p120
aVMPLUGIN-221
p121
aVMPLUGIN-220
p122
aVMPLUGIN-219
p123
aVMPLUGIN-218
p124
aVMPLUGIN-217
p125
aVMPLUGIN-216
p126
aVMPLUGIN-215
p127
aVMPLUGIN-214
p128
aVMPLUGIN-213
p129
aVMPLUGIN-211
p130
aVMPLUGIN-210
p131
aVMPLUGIN-209
p132
aVMPLUGIN-208
p133
aVMPLUGIN-207
p134
aVMPLUGIN-206
p135
aVMPLUGIN-205
p136
aVMPLUGIN-204
p137
aVMPLUGIN-203
p138
aVMPLUGIN-202
p139
aVMPLUGIN-201
p140
aVMPLUGIN-200
p141
aVMPLUGIN-199
p142
aVMPLUGIN-198
p143
aVMPLUGIN-197
p144
aVMPLUGIN-196
p145
aVMPLUGIN-195
p146
aVMPLUGIN-194
p147
aVMPLUGIN-193
p148
aVMPLUGIN-192
p149
aVMPLUGIN-191
p150
aVMPLUGIN-190
p151
aVMPLUGIN-189
p152
aVMPLUGIN-188
p153
aVMPLUGIN-187
p154
aVMPLUGIN-186
p155
aVMPLUGIN-185
p156
aVMPLUGIN-184
p157
aVMPLUGIN-183
p158
aVMPLUGIN-182
p159
aVMPLUGIN-181
p160
aVMPLUGIN-180
p161
aVMPLUGIN-179
p162
aVMPLUGIN-178
p163
aVMPLUGIN-177
p164
aVMPLUGIN-176
p165
aVMPLUGIN-175
p166
aVMPLUGIN-174
p167
aVMPLUGIN-173
p168
aVMPLUGIN-172
p169
aVMPLUGIN-171
p170
aVMPLUGIN-170
p171
aVMPLUGIN-169
p172
aVMPLUGIN-168
p173
aVMPLUGIN-166
p174
aVMPLUGIN-165
p175
aVMPLUGIN-164
p176
aVMPLUGIN-163
p177
aVMPLUGIN-162
p178
aVMPLUGIN-161
p179
aVMPLUGIN-160
p180
aVMPLUGIN-159
p181
aVMPLUGIN-158
p182
aVMPLUGIN-157
p183
aVMPLUGIN-156
p184
aVMPLUGIN-152
p185
aVMPLUGIN-151
p186
aVMPLUGIN-150
p187
aVMPLUGIN-149
p188
aVMPLUGIN-148
p189
aVMPLUGIN-146
p190
aVMPLUGIN-145
p191
aVMPLUGIN-144
p192
aVMPLUGIN-143
p193
aVMPLUGIN-142
p194
aVMPLUGIN-141
p195
aVMPLUGIN-140
p196
aVMPLUGIN-138
p197
aVMPLUGIN-137
p198
aVMPLUGIN-136
p199
aVMPLUGIN-135
p200
aVMPLUGIN-134
p201
aVMPLUGIN-133
p202
aVMPLUGIN-132
p203
aVMPLUGIN-131
p204
aVMPLUGIN-130
p205
aVMPLUGIN-129
p206
aVMPLUGIN-128
p207
aVMPLUGIN-127
p208
aVMPLUGIN-126
p209
aVMPLUGIN-125
p210
aVMPLUGIN-124
p211
aVMPLUGIN-123
p212
aVMPLUGIN-121
p213
aVMPLUGIN-120
p214
aVMPLUGIN-119
p215
aVMPLUGIN-118
p216
aVMPLUGIN-117
p217
aVMPLUGIN-116
p218
aVMPLUGIN-115
p219
aVMPLUGIN-114
p220
aVMPLUGIN-113
p221
aVMPLUGIN-112
p222
aVMPLUGIN-111
p223
aVMPLUGIN-110
p224
aVMPLUGIN-109
p225
aVMPLUGIN-108
p226
aVMPLUGIN-107
p227
aVMPLUGIN-106
p228
aVMPLUGIN-105
p229
aVMPLUGIN-104
p230
aVMPLUGIN-103
p231
aVMPLUGIN-102
p232
aVMPLUGIN-101
p233
aVMPLUGIN-100
p234
aVMPLUGIN-99
p235
aVMPLUGIN-98
p236
aVMPLUGIN-97
p237
aVMPLUGIN-96
p238
aVMPLUGIN-95
p239
aVMPLUGIN-94
p240
aVMPLUGIN-93
p241
aVMPLUGIN-92
p242
aVMPLUGIN-91
p243
aVMPLUGIN-90
p244
aVMPLUGIN-89
p245
aVMPLUGIN-88
p246
aVMPLUGIN-87
p247
aVMPLUGIN-86
p248
aVMPLUGIN-85
p249
aVMPLUGIN-84
p250
aVMPLUGIN-83
p251
aVMPLUGIN-82
p252
aVMPLUGIN-81
p253
aVMPLUGIN-80
p254
aVMPLUGIN-79
p255
aVMPLUGIN-78
p256
aVMPLUGIN-77
p257
aVMPLUGIN-76
p258
aVMPLUGIN-75
p259
aVMPLUGIN-74
p260
aVMPLUGIN-73
p261
aVMPLUGIN-72
p262
aVMPLUGIN-71
p263
aVMPLUGIN-70
p264
aVMPLUGIN-69
p265
aVMPLUGIN-68
p266
aVMPLUGIN-67
p267
aVMPLUGIN-66
p268
aVMPLUGIN-65
p269
aVMPLUGIN-64
p270
aVMPLUGIN-63
p271
aVMPLUGIN-62
p272
aVMPLUGIN-61
p273
aVMPLUGIN-60
p274
aVMPLUGIN-59
p275
aVMPLUGIN-58
p276
aVMPLUGIN-57
p277
aVMPLUGIN-56
p278
aVMPLUGIN-55
p279
aVMPLUGIN-54
p280
aVMPLUGIN-53
p281
aVMPLUGIN-52
p282
aVMPLUGIN-51
p283
aVMPLUGIN-50
p284
aVMPLUGIN-47
p285
aVMPLUGIN-46
p286
aVMPLUGIN-45
p287
aVMPLUGIN-43
p288
aVMPLUGIN-42
p289
aVMPLUGIN-41
p290
aVMPLUGIN-40
p291
aVMPLUGIN-39
p292
aVMPLUGIN-38
p293
aVMPLUGIN-37
p294
aVMPLUGIN-36
p295
aVMPLUGIN-35
p296
aVMPLUGIN-34
p297
aVMPLUGIN-33
p298
aVMPLUGIN-32
p299
aVMPLUGIN-31
p300
aVMPLUGIN-30
p301
aVMPLUGIN-29
p302
aVMPLUGIN-28
p303
aVMPLUGIN-26
p304
aVMPLUGIN-25
p305
aVMPLUGIN-24
p306
aVMPLUGIN-23
p307
aVMPLUGIN-22
p308
aVMPLUGIN-21
p309
aVMPLUGIN-20
p310
aVMPLUGIN-19
p311
aVMPLUGIN-18
p312
aVMPLUGIN-17
p313
aVMPLUGIN-15
p314
aVMPLUGIN-13
p315
aVMPLUGIN-11
p316
aVMPLUGIN-9
p317
aVMPLUGIN-8
p318
aVMPLUGIN-7
p319
aVMPLUGIN-6
p320
aVMPLUGIN-5
p321
aVMPLUGIN-4
p322
aVMPLUGIN-3
p323
aVMPLUGIN-2
p324
aVMPLUGIN-1
p325
a.