(lp0
VMPLUGINTESTING-59
p1
aVMPLUGINTESTING-58
p2
aVMPLUGINTESTING-57
p3
aVMPLUGINTESTING-56
p4
aVMPLUGINTESTING-55
p5
aVMPLUGINTESTING-54
p6
aVMPLUGINTESTING-53
p7
aVMPLUGINTESTING-52
p8
aVMPLUGINTESTING-51
p9
aVMPLUGINTESTING-50
p10
aVMPLUGINTESTING-49
p11
aVMPLUGINTESTING-48
p12
aVMPLUGINTESTING-47
p13
aVMPLUGINTESTING-46
p14
aVMPLUGINTESTING-45
p15
aVMPLUGINTESTING-44
p16
aVMPLUGINTESTING-43
p17
aVMPLUGINTESTING-42
p18
aVMPLUGINTESTING-41
p19
aVMPLUGINTESTING-40
p20
aVMPLUGINTESTING-39
p21
aVMPLUGINTESTING-38
p22
aVMPLUGINTESTING-37
p23
aVMPLUGINTESTING-36
p24
aVMPLUGINTESTING-35
p25
aVMPLUGINTESTING-34
p26
aVMPLUGINTESTING-33
p27
aVMPLUGINTESTING-32
p28
aVMPLUGINTESTING-31
p29
aVMPLUGINTESTING-30
p30
aVMPLUGINTESTING-29
p31
aVMPLUGINTESTING-28
p32
aVMPLUGINTESTING-27
p33
aVMPLUGINTESTING-26
p34
aVMPLUGINTESTING-25
p35
aVMPLUGINTESTING-24
p36
aVMPLUGINTESTING-23
p37
aVMPLUGINTESTING-22
p38
aVMPLUGINTESTING-21
p39
aVMPLUGINTESTING-20
p40
aVMPLUGINTESTING-19
p41
aVMPLUGINTESTING-18
p42
aVMPLUGINTESTING-17
p43
aVMPLUGINTESTING-16
p44
aVMPLUGINTESTING-11
p45
aVMPLUGINTESTING-10
p46
aVMPLUGINTESTING-9
p47
aVMPLUGINTESTING-8
p48
aVMPLUGINTESTING-7
p49
aVMPLUGINTESTING-6
p50
aVMPLUGINTESTING-5
p51
aVMPLUGINTESTING-4
p52
aVMPLUGINTESTING-3
p53
aVMPLUGINTESTING-2
p54
aVMPLUGINTESTING-1
p55
a.