(lp0
VMPMD-269
p1
aVMPMD-268
p2
aVMPMD-267
p3
aVMPMD-266
p4
aVMPMD-265
p5
aVMPMD-264
p6
aVMPMD-263
p7
aVMPMD-262
p8
aVMPMD-261
p9
aVMPMD-260
p10
aVMPMD-259
p11
aVMPMD-258
p12
aVMPMD-257
p13
aVMPMD-256
p14
aVMPMD-255
p15
aVMPMD-254
p16
aVMPMD-253
p17
aVMPMD-252
p18
aVMPMD-251
p19
aVMPMD-250
p20
aVMPMD-249
p21
aVMPMD-248
p22
aVMPMD-247
p23
aVMPMD-246
p24
aVMPMD-245
p25
aVMPMD-244
p26
aVMPMD-243
p27
aVMPMD-242
p28
aVMPMD-241
p29
aVMPMD-240
p30
aVMPMD-239
p31
aVMPMD-238
p32
aVMPMD-237
p33
aVMPMD-236
p34
aVMPMD-235
p35
aVMPMD-234
p36
aVMPMD-233
p37
aVMPMD-232
p38
aVMPMD-231
p39
aVMPMD-230
p40
aVMPMD-229
p41
aVMPMD-228
p42
aVMPMD-227
p43
aVMPMD-226
p44
aVMPMD-225
p45
aVMPMD-224
p46
aVMPMD-223
p47
aVMPMD-222
p48
aVMPMD-221
p49
aVMPMD-220
p50
aVMPMD-219
p51
aVMPMD-218
p52
aVMPMD-217
p53
aVMPMD-216
p54
aVMPMD-215
p55
aVMPMD-214
p56
aVMPMD-213
p57
aVMPMD-212
p58
aVMPMD-211
p59
aVMPMD-210
p60
aVMPMD-209
p61
aVMPMD-208
p62
aVMPMD-207
p63
aVMPMD-206
p64
aVMPMD-205
p65
aVMPMD-204
p66
aVMPMD-203
p67
aVMPMD-202
p68
aVMPMD-201
p69
aVMPMD-200
p70
aVMPMD-199
p71
aVMPMD-198
p72
aVMPMD-197
p73
aVMPMD-196
p74
aVMPMD-195
p75
aVMPMD-194
p76
aVMPMD-193
p77
aVMPMD-192
p78
aVMPMD-191
p79
aVMPMD-190
p80
aVMPMD-189
p81
aVMPMD-188
p82
aVMPMD-187
p83
aVMPMD-186
p84
aVMPMD-184
p85
aVMPMD-183
p86
aVMPMD-182
p87
aVMPMD-181
p88
aVMPMD-180
p89
aVMPMD-179
p90
aVMPMD-178
p91
aVMPMD-177
p92
aVMPMD-176
p93
aVMPMD-175
p94
aVMPMD-174
p95
aVMPMD-173
p96
aVMPMD-172
p97
aVMPMD-171
p98
aVMPMD-170
p99
aVMPMD-169
p100
aVMPMD-168
p101
aVMPMD-167
p102
aVMPMD-166
p103
aVMPMD-165
p104
aVMPMD-164
p105
aVMPMD-163
p106
aVMPMD-162
p107
aVMPMD-161
p108
aVMPMD-160
p109
aVMPMD-159
p110
aVMPMD-158
p111
aVMPMD-157
p112
aVMPMD-156
p113
aVMPMD-155
p114
aVMPMD-154
p115
aVMPMD-153
p116
aVMPMD-152
p117
aVMPMD-151
p118
aVMPMD-150
p119
aVMPMD-149
p120
aVMPMD-148
p121
aVMPMD-147
p122
aVMPMD-146
p123
aVMPMD-145
p124
aVMPMD-144
p125
aVMPMD-143
p126
aVMPMD-142
p127
aVMPMD-141
p128
aVMPMD-140
p129
aVMPMD-139
p130
aVMPMD-138
p131
aVMPMD-137
p132
aVMPMD-136
p133
aVMPMD-135
p134
aVMPMD-134
p135
aVMPMD-133
p136
aVMPMD-132
p137
aVMPMD-131
p138
aVMPMD-130
p139
aVMPMD-129
p140
aVMPMD-128
p141
aVMPMD-127
p142
aVMPMD-126
p143
aVMPMD-125
p144
aVMPMD-124
p145
aVMPMD-123
p146
aVMPMD-122
p147
aVMPMD-121
p148
aVMPMD-120
p149
aVMPMD-119
p150
aVMPMD-118
p151
aVMPMD-117
p152
aVMPMD-116
p153
aVMPMD-115
p154
aVMPMD-114
p155
aVMPMD-113
p156
aVMPMD-112
p157
aVMPMD-111
p158
aVMPMD-110
p159
aVMPMD-109
p160
aVMPMD-108
p161
aVMPMD-107
p162
aVMPMD-106
p163
aVMPMD-105
p164
aVMPMD-104
p165
aVMPMD-103
p166
aVMPMD-102
p167
aVMPMD-101
p168
aVMPMD-99
p169
aVMPMD-98
p170
aVMPMD-97
p171
aVMPMD-96
p172
aVMPMD-95
p173
aVMPMD-94
p174
aVMPMD-93
p175
aVMPMD-92
p176
aVMPMD-91
p177
aVMPMD-90
p178
aVMPMD-89
p179
aVMPMD-88
p180
aVMPMD-87
p181
aVMPMD-86
p182
aVMPMD-85
p183
aVMPMD-84
p184
aVMPMD-83
p185
aVMPMD-82
p186
aVMPMD-81
p187
aVMPMD-80
p188
aVMPMD-79
p189
aVMPMD-78
p190
aVMPMD-77
p191
aVMPMD-76
p192
aVMPMD-75
p193
aVMPMD-74
p194
aVMPMD-73
p195
aVMPMD-72
p196
aVMPMD-71
p197
aVMPMD-70
p198
aVMPMD-69
p199
aVMPMD-68
p200
aVMPMD-67
p201
aVMPMD-66
p202
aVMPMD-65
p203
aVMPMD-64
p204
aVMPMD-63
p205
aVMPMD-62
p206
aVMPMD-61
p207
aVMPMD-60
p208
aVMPMD-59
p209
aVMPMD-58
p210
aVMPMD-57
p211
aVMPMD-56
p212
aVMPMD-55
p213
aVMPMD-54
p214
aVMPMD-53
p215
aVMPMD-52
p216
aVMPMD-51
p217
aVMPMD-50
p218
aVMPMD-49
p219
aVMPMD-47
p220
aVMPMD-46
p221
aVMPMD-45
p222
aVMPMD-44
p223
aVMPMD-43
p224
aVMPMD-41
p225
aVMPMD-40
p226
aVMPMD-39
p227
aVMPMD-38
p228
aVMPMD-37
p229
aVMPMD-36
p230
aVMPMD-35
p231
aVMPMD-34
p232
aVMPMD-33
p233
aVMPMD-32
p234
aVMPMD-31
p235
aVMPMD-30
p236
aVMPMD-29
p237
aVMPMD-28
p238
aVMPMD-27
p239
aVMPMD-26
p240
aVMPMD-25
p241
aVMPMD-24
p242
aVMPMD-23
p243
aVMPMD-22
p244
aVMPMD-21
p245
aVMPMD-20
p246
aVMPMD-19
p247
aVMPMD-18
p248
aVMPMD-17
p249
aVMPMD-16
p250
aVMPMD-15
p251
aVMPMD-14
p252
aVMPMD-13
p253
aVMPMD-12
p254
aVMPMD-11
p255
aVMPMD-10
p256
aVMPMD-9
p257
aVMPMD-8
p258
aVMPMD-7
p259
aVMPMD-6
p260
aVMPMD-5
p261
aVMPMD-4
p262
aVMPMD-3
p263
aVMPMD-2
p264
aVMPMD-1
p265
a.