(lp0
VMRAR-79
p1
aVMRAR-78
p2
aVMRAR-77
p3
aVMRAR-76
p4
aVMRAR-75
p5
aVMRAR-74
p6
aVMRAR-73
p7
aVMRAR-72
p8
aVMRAR-71
p9
aVMRAR-70
p10
aVMRAR-69
p11
aVMRAR-68
p12
aVMRAR-67
p13
aVMRAR-66
p14
aVMRAR-65
p15
aVMRAR-64
p16
aVMRAR-63
p17
aVMRAR-62
p18
aVMRAR-61
p19
aVMRAR-59
p20
aVMRAR-58
p21
aVMRAR-57
p22
aVMRAR-56
p23
aVMRAR-55
p24
aVMRAR-54
p25
aVMRAR-53
p26
aVMRAR-52
p27
aVMRAR-51
p28
aVMRAR-50
p29
aVMRAR-49
p30
aVMRAR-48
p31
aVMRAR-47
p32
aVMRAR-46
p33
aVMRAR-45
p34
aVMRAR-44
p35
aVMRAR-43
p36
aVMRAR-42
p37
aVMRAR-41
p38
aVMRAR-40
p39
aVMRAR-39
p40
aVMRAR-38
p41
aVMRAR-37
p42
aVMRAR-36
p43
aVMRAR-35
p44
aVMRAR-34
p45
aVMRAR-33
p46
aVMRAR-32
p47
aVMRAR-31
p48
aVMRAR-30
p49
aVMRAR-29
p50
aVMRAR-28
p51
aVMRAR-27
p52
aVMRAR-23
p53
aVMRAR-22
p54
aVMRAR-21
p55
aVMRAR-20
p56
aVMRAR-19
p57
aVMRAR-18
p58
aVMRAR-17
p59
aVMRAR-15
p60
aVMRAR-14
p61
aVMRAR-13
p62
aVMRAR-12
p63
aVMRAR-11
p64
aVMRAR-10
p65
aVMRAR-9
p66
aVMRAR-8
p67
aVMRAR-7
p68
aVMRAR-6
p69
aVMRAR-5
p70
aVMRAR-4
p71
aVMRAR-3
p72
aVMRAR-2
p73
aVMRAR-1
p74
a.