(lp0
VMREPOSITORY-44
p1
aVMREPOSITORY-43
p2
aVMREPOSITORY-42
p3
aVMREPOSITORY-41
p4
aVMREPOSITORY-40
p5
aVMREPOSITORY-39
p6
aVMREPOSITORY-38
p7
aVMREPOSITORY-37
p8
aVMREPOSITORY-36
p9
aVMREPOSITORY-35
p10
aVMREPOSITORY-34
p11
aVMREPOSITORY-33
p12
aVMREPOSITORY-32
p13
aVMREPOSITORY-31
p14
aVMREPOSITORY-30
p15
aVMREPOSITORY-29
p16
aVMREPOSITORY-28
p17
aVMREPOSITORY-27
p18
aVMREPOSITORY-26
p19
aVMREPOSITORY-25
p20
aVMREPOSITORY-24
p21
aVMREPOSITORY-23
p22
aVMREPOSITORY-22
p23
aVMREPOSITORY-21
p24
aVMREPOSITORY-20
p25
aVMREPOSITORY-19
p26
aVMREPOSITORY-18
p27
aVMREPOSITORY-13
p28
aVMREPOSITORY-12
p29
aVMREPOSITORY-11
p30
aVMREPOSITORY-10
p31
aVMREPOSITORY-7
p32
aVMREPOSITORY-6
p33
aVMREPOSITORY-5
p34
aVMREPOSITORY-4
p35
aVMREPOSITORY-3
p36
aVMREPOSITORY-2
p37
aVMREPOSITORY-1
p38
a.