(lp0
VMRESOLVER-52
p1
aVMRESOLVER-51
p2
aVMRESOLVER-50
p3
aVMRESOLVER-49
p4
aVMRESOLVER-48
p5
aVMRESOLVER-47
p6
aVMRESOLVER-46
p7
aVMRESOLVER-45
p8
aVMRESOLVER-44
p9
aVMRESOLVER-43
p10
aVMRESOLVER-42
p11
aVMRESOLVER-41
p12
aVMRESOLVER-40
p13
aVMRESOLVER-39
p14
aVMRESOLVER-38
p15
aVMRESOLVER-37
p16
aVMRESOLVER-36
p17
aVMRESOLVER-35
p18
aVMRESOLVER-34
p19
aVMRESOLVER-33
p20
aVMRESOLVER-32
p21
aVMRESOLVER-31
p22
aVMRESOLVER-30
p23
aVMRESOLVER-29
p24
aVMRESOLVER-28
p25
aVMRESOLVER-27
p26
aVMRESOLVER-26
p27
aVMRESOLVER-25
p28
aVMRESOLVER-24
p29
aVMRESOLVER-23
p30
aVMRESOLVER-22
p31
aVMRESOLVER-21
p32
aVMRESOLVER-20
p33
aVMRESOLVER-19
p34
aVMRESOLVER-18
p35
aVMRESOLVER-17
p36
aVMRESOLVER-16
p37
aVMRESOLVER-15
p38
aVMRESOLVER-14
p39
aVMRESOLVER-13
p40
aVMRESOLVER-12
p41
aVMRESOLVER-11
p42
aVMRESOLVER-10
p43
aVMRESOLVER-9
p44
aVMRESOLVER-8
p45
aVMRESOLVER-7
p46
aVMRESOLVER-6
p47
aVMRESOLVER-5
p48
aVMRESOLVER-4
p49
aVMRESOLVER-3
p50
aVMRESOLVER-2
p51
aVMRESOLVER-1
p52
a.