(lp0
VMRESOURCES-249
p1
aVMRESOURCES-248
p2
aVMRESOURCES-247
p3
aVMRESOURCES-246
p4
aVMRESOURCES-245
p5
aVMRESOURCES-244
p6
aVMRESOURCES-243
p7
aVMRESOURCES-242
p8
aVMRESOURCES-241
p9
aVMRESOURCES-240
p10
aVMRESOURCES-239
p11
aVMRESOURCES-238
p12
aVMRESOURCES-237
p13
aVMRESOURCES-236
p14
aVMRESOURCES-235
p15
aVMRESOURCES-234
p16
aVMRESOURCES-233
p17
aVMRESOURCES-232
p18
aVMRESOURCES-231
p19
aVMRESOURCES-230
p20
aVMRESOURCES-229
p21
aVMRESOURCES-227
p22
aVMRESOURCES-226
p23
aVMRESOURCES-225
p24
aVMRESOURCES-223
p25
aVMRESOURCES-222
p26
aVMRESOURCES-221
p27
aVMRESOURCES-220
p28
aVMRESOURCES-219
p29
aVMRESOURCES-218
p30
aVMRESOURCES-217
p31
aVMRESOURCES-216
p32
aVMRESOURCES-215
p33
aVMRESOURCES-214
p34
aVMRESOURCES-213
p35
aVMRESOURCES-212
p36
aVMRESOURCES-211
p37
aVMRESOURCES-210
p38
aVMRESOURCES-209
p39
aVMRESOURCES-208
p40
aVMRESOURCES-207
p41
aVMRESOURCES-206
p42
aVMRESOURCES-205
p43
aVMRESOURCES-204
p44
aVMRESOURCES-203
p45
aVMRESOURCES-202
p46
aVMRESOURCES-201
p47
aVMRESOURCES-199
p48
aVMRESOURCES-197
p49
aVMRESOURCES-195
p50
aVMRESOURCES-194
p51
aVMRESOURCES-193
p52
aVMRESOURCES-192
p53
aVMRESOURCES-191
p54
aVMRESOURCES-190
p55
aVMRESOURCES-189
p56
aVMRESOURCES-188
p57
aVMRESOURCES-187
p58
aVMRESOURCES-186
p59
aVMRESOURCES-185
p60
aVMRESOURCES-184
p61
aVMRESOURCES-183
p62
aVMRESOURCES-182
p63
aVMRESOURCES-181
p64
aVMRESOURCES-180
p65
aVMRESOURCES-179
p66
aVMRESOURCES-178
p67
aVMRESOURCES-177
p68
aVMRESOURCES-176
p69
aVMRESOURCES-175
p70
aVMRESOURCES-174
p71
aVMRESOURCES-173
p72
aVMRESOURCES-172
p73
aVMRESOURCES-171
p74
aVMRESOURCES-170
p75
aVMRESOURCES-169
p76
aVMRESOURCES-168
p77
aVMRESOURCES-167
p78
aVMRESOURCES-166
p79
aVMRESOURCES-165
p80
aVMRESOURCES-163
p81
aVMRESOURCES-162
p82
aVMRESOURCES-161
p83
aVMRESOURCES-160
p84
aVMRESOURCES-159
p85
aVMRESOURCES-158
p86
aVMRESOURCES-157
p87
aVMRESOURCES-156
p88
aVMRESOURCES-155
p89
aVMRESOURCES-154
p90
aVMRESOURCES-153
p91
aVMRESOURCES-152
p92
aVMRESOURCES-151
p93
aVMRESOURCES-150
p94
aVMRESOURCES-148
p95
aVMRESOURCES-147
p96
aVMRESOURCES-146
p97
aVMRESOURCES-145
p98
aVMRESOURCES-143
p99
aVMRESOURCES-142
p100
aVMRESOURCES-141
p101
aVMRESOURCES-140
p102
aVMRESOURCES-139
p103
aVMRESOURCES-138
p104
aVMRESOURCES-137
p105
aVMRESOURCES-136
p106
aVMRESOURCES-135
p107
aVMRESOURCES-134
p108
aVMRESOURCES-133
p109
aVMRESOURCES-132
p110
aVMRESOURCES-131
p111
aVMRESOURCES-130
p112
aVMRESOURCES-129
p113
aVMRESOURCES-128
p114
aVMRESOURCES-127
p115
aVMRESOURCES-126
p116
aVMRESOURCES-125
p117
aVMRESOURCES-124
p118
aVMRESOURCES-123
p119
aVMRESOURCES-122
p120
aVMRESOURCES-121
p121
aVMRESOURCES-120
p122
aVMRESOURCES-119
p123
aVMRESOURCES-118
p124
aVMRESOURCES-117
p125
aVMRESOURCES-116
p126
aVMRESOURCES-115
p127
aVMRESOURCES-114
p128
aVMRESOURCES-113
p129
aVMRESOURCES-112
p130
aVMRESOURCES-111
p131
aVMRESOURCES-110
p132
aVMRESOURCES-109
p133
aVMRESOURCES-108
p134
aVMRESOURCES-107
p135
aVMRESOURCES-106
p136
aVMRESOURCES-105
p137
aVMRESOURCES-104
p138
aVMRESOURCES-103
p139
aVMRESOURCES-102
p140
aVMRESOURCES-101
p141
aVMRESOURCES-100
p142
aVMRESOURCES-99
p143
aVMRESOURCES-98
p144
aVMRESOURCES-93
p145
aVMRESOURCES-92
p146
aVMRESOURCES-91
p147
aVMRESOURCES-90
p148
aVMRESOURCES-89
p149
aVMRESOURCES-88
p150
aVMRESOURCES-87
p151
aVMRESOURCES-86
p152
aVMRESOURCES-85
p153
aVMRESOURCES-84
p154
aVMRESOURCES-83
p155
aVMRESOURCES-82
p156
aVMRESOURCES-81
p157
aVMRESOURCES-80
p158
aVMRESOURCES-79
p159
aVMRESOURCES-78
p160
aVMRESOURCES-77
p161
aVMRESOURCES-75
p162
aVMRESOURCES-74
p163
aVMRESOURCES-71
p164
aVMRESOURCES-70
p165
aVMRESOURCES-69
p166
aVMRESOURCES-68
p167
aVMRESOURCES-67
p168
aVMRESOURCES-66
p169
aVMRESOURCES-65
p170
aVMRESOURCES-64
p171
aVMRESOURCES-62
p172
aVMRESOURCES-61
p173
aVMRESOURCES-60
p174
aVMRESOURCES-59
p175
aVMRESOURCES-58
p176
aVMRESOURCES-57
p177
aVMRESOURCES-56
p178
aVMRESOURCES-55
p179
aVMRESOURCES-54
p180
aVMRESOURCES-52
p181
aVMRESOURCES-51
p182
aVMRESOURCES-50
p183
aVMRESOURCES-49
p184
aVMRESOURCES-48
p185
aVMRESOURCES-47
p186
aVMRESOURCES-46
p187
aVMRESOURCES-45
p188
aVMRESOURCES-44
p189
aVMRESOURCES-43
p190
aVMRESOURCES-42
p191
aVMRESOURCES-41
p192
aVMRESOURCES-40
p193
aVMRESOURCES-39
p194
aVMRESOURCES-37
p195
aVMRESOURCES-36
p196
aVMRESOURCES-34
p197
aVMRESOURCES-33
p198
aVMRESOURCES-32
p199
aVMRESOURCES-31
p200
aVMRESOURCES-30
p201
aVMRESOURCES-29
p202
aVMRESOURCES-28
p203
aVMRESOURCES-27
p204
aVMRESOURCES-26
p205
aVMRESOURCES-25
p206
aVMRESOURCES-24
p207
aVMRESOURCES-23
p208
aVMRESOURCES-22
p209
aVMRESOURCES-21
p210
aVMRESOURCES-20
p211
aVMRESOURCES-19
p212
aVMRESOURCES-18
p213
aVMRESOURCES-17
p214
aVMRESOURCES-16
p215
aVMRESOURCES-15
p216
aVMRESOURCES-14
p217
aVMRESOURCES-13
p218
aVMRESOURCES-12
p219
aVMRESOURCES-11
p220
aVMRESOURCES-10
p221
aVMRESOURCES-8
p222
aVMRESOURCES-7
p223
aVMRESOURCES-6
p224
aVMRESOURCES-5
p225
aVMRESOURCES-4
p226
aVMRESOURCES-3
p227
aVMRESOURCES-2
p228
aVMRESOURCES-1
p229
a.