(lp0
VMRM-1983
p1
aVMRM-1982
p2
aVMRM-1981
p3
aVMRM-1980
p4
aVMRM-1979
p5
aVMRM-1978
p6
aVMRM-1977
p7
aVMRM-1976
p8
aVMRM-1975
p9
aVMRM-1974
p10
aVMRM-1973
p11
aVMRM-1972
p12
aVMRM-1971
p13
aVMRM-1970
p14
aVMRM-1969
p15
aVMRM-1968
p16
aVMRM-1967
p17
aVMRM-1966
p18
aVMRM-1965
p19
aVMRM-1964
p20
aVMRM-1963
p21
aVMRM-1962
p22
aVMRM-1961
p23
aVMRM-1960
p24
aVMRM-1959
p25
aVMRM-1958
p26
aVMRM-1957
p27
aVMRM-1956
p28
aVMRM-1955
p29
aVMRM-1954
p30
aVMRM-1953
p31
aVMRM-1952
p32
aVMRM-1951
p33
aVMRM-1950
p34
aVMRM-1949
p35
aVMRM-1948
p36
aVMRM-1947
p37
aVMRM-1946
p38
aVMRM-1945
p39
aVMRM-1944
p40
aVMRM-1943
p41
aVMRM-1942
p42
aVMRM-1941
p43
aVMRM-1940
p44
aVMRM-1939
p45
aVMRM-1938
p46
aVMRM-1937
p47
aVMRM-1936
p48
aVMRM-1935
p49
aVMRM-1934
p50
aVMRM-1933
p51
aVMRM-1932
p52
aVMRM-1931
p53
aVMRM-1930
p54
aVMRM-1929
p55
aVMRM-1928
p56
aVMRM-1927
p57
aVMRM-1926
p58
aVMRM-1925
p59
aVMRM-1924
p60
aVMRM-1923
p61
aVMRM-1922
p62
aVMRM-1921
p63
aVMRM-1920
p64
aVMRM-1919
p65
aVMRM-1918
p66
aVMRM-1917
p67
aVMRM-1916
p68
aVMRM-1915
p69
aVMRM-1914
p70
aVMRM-1913
p71
aVMRM-1912
p72
aVMRM-1911
p73
aVMRM-1910
p74
aVMRM-1909
p75
aVMRM-1908
p76
aVMRM-1907
p77
aVMRM-1906
p78
aVMRM-1905
p79
aVMRM-1904
p80
aVMRM-1903
p81
aVMRM-1902
p82
aVMRM-1901
p83
aVMRM-1900
p84
aVMRM-1899
p85
aVMRM-1898
p86
aVMRM-1897
p87
aVMRM-1896
p88
aVMRM-1895
p89
aVMRM-1894
p90
aVMRM-1893
p91
aVMRM-1892
p92
aVMRM-1891
p93
aVMRM-1890
p94
aVMRM-1889
p95
aVMRM-1888
p96
aVMRM-1887
p97
aVMRM-1886
p98
aVMRM-1885
p99
aVMRM-1884
p100
aVMRM-1883
p101
aVMRM-1882
p102
aVMRM-1881
p103
aVMRM-1880
p104
aVMRM-1879
p105
aVMRM-1878
p106
aVMRM-1877
p107
aVMRM-1876
p108
aVMRM-1875
p109
aVMRM-1874
p110
aVMRM-1873
p111
aVMRM-1872
p112
aVMRM-1871
p113
aVMRM-1870
p114
aVMRM-1869
p115
aVMRM-1868
p116
aVMRM-1867
p117
aVMRM-1866
p118
aVMRM-1865
p119
aVMRM-1864
p120
aVMRM-1863
p121
aVMRM-1862
p122
aVMRM-1861
p123
aVMRM-1860
p124
aVMRM-1859
p125
aVMRM-1858
p126
aVMRM-1857
p127
aVMRM-1856
p128
aVMRM-1855
p129
aVMRM-1854
p130
aVMRM-1853
p131
aVMRM-1852
p132
aVMRM-1851
p133
aVMRM-1850
p134
aVMRM-1849
p135
aVMRM-1848
p136
aVMRM-1847
p137
aVMRM-1846
p138
aVMRM-1845
p139
aVMRM-1844
p140
aVMRM-1843
p141
aVMRM-1842
p142
aVMRM-1841
p143
aVMRM-1840
p144
aVMRM-1839
p145
aVMRM-1838
p146
aVMRM-1837
p147
aVMRM-1836
p148
aVMRM-1835
p149
aVMRM-1834
p150
aVMRM-1833
p151
aVMRM-1832
p152
aVMRM-1831
p153
aVMRM-1830
p154
aVMRM-1829
p155
aVMRM-1828
p156
aVMRM-1827
p157
aVMRM-1826
p158
aVMRM-1825
p159
aVMRM-1824
p160
aVMRM-1823
p161
aVMRM-1822
p162
aVMRM-1821
p163
aVMRM-1820
p164
aVMRM-1819
p165
aVMRM-1818
p166
aVMRM-1817
p167
aVMRM-1816
p168
aVMRM-1815
p169
aVMRM-1814
p170
aVMRM-1813
p171
aVMRM-1812
p172
aVMRM-1811
p173
aVMRM-1810
p174
aVMRM-1809
p175
aVMRM-1808
p176
aVMRM-1807
p177
aVMRM-1806
p178
aVMRM-1805
p179
aVMRM-1804
p180
aVMRM-1803
p181
aVMRM-1802
p182
aVMRM-1801
p183
aVMRM-1800
p184
aVMRM-1799
p185
aVMRM-1798
p186
aVMRM-1797
p187
aVMRM-1796
p188
aVMRM-1795
p189
aVMRM-1794
p190
aVMRM-1793
p191
aVMRM-1792
p192
aVMRM-1791
p193
aVMRM-1790
p194
aVMRM-1789
p195
aVMRM-1788
p196
aVMRM-1787
p197
aVMRM-1786
p198
aVMRM-1785
p199
aVMRM-1784
p200
aVMRM-1783
p201
aVMRM-1782
p202
aVMRM-1781
p203
aVMRM-1780
p204
aVMRM-1779
p205
aVMRM-1778
p206
aVMRM-1777
p207
aVMRM-1776
p208
aVMRM-1775
p209
aVMRM-1774
p210
aVMRM-1773
p211
aVMRM-1772
p212
aVMRM-1771
p213
aVMRM-1770
p214
aVMRM-1769
p215
aVMRM-1768
p216
aVMRM-1767
p217
aVMRM-1766
p218
aVMRM-1765
p219
aVMRM-1764
p220
aVMRM-1763
p221
aVMRM-1762
p222
aVMRM-1761
p223
aVMRM-1760
p224
aVMRM-1759
p225
aVMRM-1758
p226
aVMRM-1757
p227
aVMRM-1756
p228
aVMRM-1755
p229
aVMRM-1754
p230
aVMRM-1753
p231
aVMRM-1752
p232
aVMRM-1751
p233
aVMRM-1750
p234
aVMRM-1749
p235
aVMRM-1748
p236
aVMRM-1747
p237
aVMRM-1746
p238
aVMRM-1745
p239
aVMRM-1744
p240
aVMRM-1743
p241
aVMRM-1742
p242
aVMRM-1741
p243
aVMRM-1740
p244
aVMRM-1739
p245
aVMRM-1738
p246
aVMRM-1737
p247
aVMRM-1736
p248
aVMRM-1735
p249
aVMRM-1734
p250
aVMRM-1733
p251
aVMRM-1732
p252
aVMRM-1731
p253
aVMRM-1730
p254
aVMRM-1729
p255
aVMRM-1728
p256
aVMRM-1727
p257
aVMRM-1726
p258
aVMRM-1725
p259
aVMRM-1724
p260
aVMRM-1723
p261
aVMRM-1722
p262
aVMRM-1721
p263
aVMRM-1720
p264
aVMRM-1719
p265
aVMRM-1718
p266
aVMRM-1717
p267
aVMRM-1716
p268
aVMRM-1715
p269
aVMRM-1714
p270
aVMRM-1713
p271
aVMRM-1712
p272
aVMRM-1711
p273
aVMRM-1710
p274
aVMRM-1709
p275
aVMRM-1708
p276
aVMRM-1707
p277
aVMRM-1706
p278
aVMRM-1705
p279
aVMRM-1704
p280
aVMRM-1703
p281
aVMRM-1702
p282
aVMRM-1701
p283
aVMRM-1700
p284
aVMRM-1699
p285
aVMRM-1698
p286
aVMRM-1697
p287
aVMRM-1696
p288
aVMRM-1695
p289
aVMRM-1694
p290
aVMRM-1693
p291
aVMRM-1692
p292
aVMRM-1691
p293
aVMRM-1690
p294
aVMRM-1689
p295
aVMRM-1688
p296
aVMRM-1687
p297
aVMRM-1686
p298
aVMRM-1685
p299
aVMRM-1684
p300
aVMRM-1683
p301
aVMRM-1682
p302
aVMRM-1681
p303
aVMRM-1680
p304
aVMRM-1679
p305
aVMRM-1678
p306
aVMRM-1677
p307
aVMRM-1676
p308
aVMRM-1675
p309
aVMRM-1674
p310
aVMRM-1673
p311
aVMRM-1672
p312
aVMRM-1671
p313
aVMRM-1670
p314
aVMRM-1669
p315
aVMRM-1668
p316
aVMRM-1667
p317
aVMRM-1666
p318
aVMRM-1665
p319
aVMRM-1664
p320
aVMRM-1663
p321
aVMRM-1662
p322
aVMRM-1661
p323
aVMRM-1660
p324
aVMRM-1659
p325
aVMRM-1658
p326
aVMRM-1657
p327
aVMRM-1656
p328
aVMRM-1655
p329
aVMRM-1654
p330
aVMRM-1653
p331
aVMRM-1652
p332
aVMRM-1651
p333
aVMRM-1650
p334
aVMRM-1649
p335
aVMRM-1647
p336
aVMRM-1646
p337
aVMRM-1645
p338
aVMRM-1644
p339
aVMRM-1643
p340
aVMRM-1642
p341
aVMRM-1641
p342
aVMRM-1640
p343
aVMRM-1639
p344
aVMRM-1638
p345
aVMRM-1637
p346
aVMRM-1636
p347
aVMRM-1635
p348
aVMRM-1634
p349
aVMRM-1633
p350
aVMRM-1632
p351
aVMRM-1631
p352
aVMRM-1630
p353
aVMRM-1629
p354
aVMRM-1628
p355
aVMRM-1627
p356
aVMRM-1626
p357
aVMRM-1625
p358
aVMRM-1624
p359
aVMRM-1623
p360
aVMRM-1622
p361
aVMRM-1621
p362
aVMRM-1620
p363
aVMRM-1619
p364
aVMRM-1618
p365
aVMRM-1617
p366
aVMRM-1616
p367
aVMRM-1615
p368
aVMRM-1614
p369
aVMRM-1613
p370
aVMRM-1612
p371
aVMRM-1611
p372
aVMRM-1610
p373
aVMRM-1609
p374
aVMRM-1608
p375
aVMRM-1607
p376
aVMRM-1606
p377
aVMRM-1605
p378
aVMRM-1604
p379
aVMRM-1603
p380
aVMRM-1602
p381
aVMRM-1601
p382
aVMRM-1600
p383
aVMRM-1599
p384
aVMRM-1598
p385
aVMRM-1597
p386
aVMRM-1596
p387
aVMRM-1595
p388
aVMRM-1594
p389
aVMRM-1593
p390
aVMRM-1592
p391
aVMRM-1591
p392
aVMRM-1590
p393
aVMRM-1589
p394
aVMRM-1588
p395
aVMRM-1587
p396
aVMRM-1586
p397
aVMRM-1585
p398
aVMRM-1584
p399
aVMRM-1583
p400
aVMRM-1582
p401
aVMRM-1581
p402
aVMRM-1580
p403
aVMRM-1579
p404
aVMRM-1578
p405
aVMRM-1577
p406
aVMRM-1576
p407
aVMRM-1575
p408
aVMRM-1574
p409
aVMRM-1573
p410
aVMRM-1572
p411
aVMRM-1571
p412
aVMRM-1570
p413
aVMRM-1569
p414
aVMRM-1568
p415
aVMRM-1567
p416
aVMRM-1566
p417
aVMRM-1565
p418
aVMRM-1564
p419
aVMRM-1563
p420
aVMRM-1562
p421
aVMRM-1561
p422
aVMRM-1560
p423
aVMRM-1559
p424
aVMRM-1558
p425
aVMRM-1557
p426
aVMRM-1556
p427
aVMRM-1555
p428
aVMRM-1553
p429
aVMRM-1552
p430
aVMRM-1551
p431
aVMRM-1550
p432
aVMRM-1549
p433
aVMRM-1548
p434
aVMRM-1547
p435
aVMRM-1546
p436
aVMRM-1545
p437
aVMRM-1544
p438
aVMRM-1543
p439
aVMRM-1542
p440
aVMRM-1541
p441
aVMRM-1540
p442
aVMRM-1539
p443
aVMRM-1538
p444
aVMRM-1537
p445
aVMRM-1536
p446
aVMRM-1535
p447
aVMRM-1534
p448
aVMRM-1533
p449
aVMRM-1532
p450
aVMRM-1531
p451
aVMRM-1530
p452
aVMRM-1529
p453
aVMRM-1528
p454
aVMRM-1527
p455
aVMRM-1526
p456
aVMRM-1525
p457
aVMRM-1524
p458
aVMRM-1523
p459
aVMRM-1522
p460
aVMRM-1521
p461
aVMRM-1520
p462
aVMRM-1519
p463
aVMRM-1518
p464
aVMRM-1517
p465
aVMRM-1516
p466
aVMRM-1515
p467
aVMRM-1514
p468
aVMRM-1513
p469
aVMRM-1512
p470
aVMRM-1511
p471
aVMRM-1510
p472
aVMRM-1509
p473
aVMRM-1508
p474
aVMRM-1507
p475
aVMRM-1506
p476
aVMRM-1505
p477
aVMRM-1504
p478
aVMRM-1503
p479
aVMRM-1502
p480
aVMRM-1501
p481
aVMRM-1500
p482
aVMRM-1498
p483
aVMRM-1497
p484
aVMRM-1496
p485
aVMRM-1495
p486
aVMRM-1494
p487
aVMRM-1493
p488
aVMRM-1492
p489
aVMRM-1491
p490
aVMRM-1490
p491
aVMRM-1489
p492
aVMRM-1488
p493
aVMRM-1487
p494
aVMRM-1486
p495
aVMRM-1485
p496
aVMRM-1484
p497
aVMRM-1483
p498
aVMRM-1482
p499
aVMRM-1481
p500
aVMRM-1480
p501
aVMRM-1479
p502
aVMRM-1478
p503
aVMRM-1477
p504
aVMRM-1476
p505
aVMRM-1475
p506
aVMRM-1474
p507
aVMRM-1473
p508
aVMRM-1472
p509
aVMRM-1471
p510
aVMRM-1470
p511
aVMRM-1469
p512
aVMRM-1468
p513
aVMRM-1467
p514
aVMRM-1466
p515
aVMRM-1465
p516
aVMRM-1464
p517
aVMRM-1463
p518
aVMRM-1462
p519
aVMRM-1461
p520
aVMRM-1460
p521
aVMRM-1459
p522
aVMRM-1458
p523
aVMRM-1457
p524
aVMRM-1456
p525
aVMRM-1455
p526
aVMRM-1453
p527
aVMRM-1452
p528
aVMRM-1451
p529
aVMRM-1450
p530
aVMRM-1449
p531
aVMRM-1448
p532
aVMRM-1447
p533
aVMRM-1446
p534
aVMRM-1445
p535
aVMRM-1444
p536
aVMRM-1443
p537
aVMRM-1442
p538
aVMRM-1441
p539
aVMRM-1440
p540
aVMRM-1439
p541
aVMRM-1438
p542
aVMRM-1437
p543
aVMRM-1436
p544
aVMRM-1435
p545
aVMRM-1434
p546
aVMRM-1433
p547
aVMRM-1432
p548
aVMRM-1431
p549
aVMRM-1430
p550
aVMRM-1429
p551
aVMRM-1428
p552
aVMRM-1427
p553
aVMRM-1426
p554
aVMRM-1425
p555
aVMRM-1424
p556
aVMRM-1423
p557
aVMRM-1422
p558
aVMRM-1421
p559
aVMRM-1420
p560
aVMRM-1419
p561
aVMRM-1418
p562
aVMRM-1417
p563
aVMRM-1416
p564
aVMRM-1415
p565
aVMRM-1414
p566
aVMRM-1413
p567
aVMRM-1412
p568
aVMRM-1411
p569
aVMRM-1410
p570
aVMRM-1409
p571
aVMRM-1408
p572
aVMRM-1407
p573
aVMRM-1406
p574
aVMRM-1405
p575
aVMRM-1404
p576
aVMRM-1403
p577
aVMRM-1402
p578
aVMRM-1401
p579
aVMRM-1400
p580
aVMRM-1399
p581
aVMRM-1398
p582
aVMRM-1397
p583
aVMRM-1396
p584
aVMRM-1395
p585
aVMRM-1394
p586
aVMRM-1393
p587
aVMRM-1392
p588
aVMRM-1391
p589
aVMRM-1390
p590
aVMRM-1389
p591
aVMRM-1388
p592
aVMRM-1387
p593
aVMRM-1386
p594
aVMRM-1385
p595
aVMRM-1384
p596
aVMRM-1383
p597
aVMRM-1382
p598
aVMRM-1381
p599
aVMRM-1380
p600
aVMRM-1379
p601
aVMRM-1378
p602
aVMRM-1374
p603
aVMRM-1373
p604
aVMRM-1372
p605
aVMRM-1371
p606
aVMRM-1370
p607
aVMRM-1369
p608
aVMRM-1368
p609
aVMRM-1367
p610
aVMRM-1366
p611
aVMRM-1365
p612
aVMRM-1364
p613
aVMRM-1363
p614
aVMRM-1362
p615
aVMRM-1361
p616
aVMRM-1360
p617
aVMRM-1359
p618
aVMRM-1358
p619
aVMRM-1357
p620
aVMRM-1356
p621
aVMRM-1355
p622
aVMRM-1354
p623
aVMRM-1353
p624
aVMRM-1352
p625
aVMRM-1351
p626
aVMRM-1350
p627
aVMRM-1349
p628
aVMRM-1348
p629
aVMRM-1347
p630
aVMRM-1346
p631
aVMRM-1345
p632
aVMRM-1344
p633
aVMRM-1343
p634
aVMRM-1342
p635
aVMRM-1341
p636
aVMRM-1340
p637
aVMRM-1339
p638
aVMRM-1338
p639
aVMRM-1337
p640
aVMRM-1336
p641
aVMRM-1335
p642
aVMRM-1334
p643
aVMRM-1333
p644
aVMRM-1332
p645
aVMRM-1331
p646
aVMRM-1330
p647
aVMRM-1329
p648
aVMRM-1328
p649
aVMRM-1327
p650
aVMRM-1326
p651
aVMRM-1325
p652
aVMRM-1324
p653
aVMRM-1323
p654
aVMRM-1322
p655
aVMRM-1321
p656
aVMRM-1320
p657
aVMRM-1319
p658
aVMRM-1318
p659
aVMRM-1317
p660
aVMRM-1316
p661
aVMRM-1315
p662
aVMRM-1314
p663
aVMRM-1313
p664
aVMRM-1312
p665
aVMRM-1311
p666
aVMRM-1310
p667
aVMRM-1309
p668
aVMRM-1308
p669
aVMRM-1307
p670
aVMRM-1306
p671
aVMRM-1305
p672
aVMRM-1304
p673
aVMRM-1303
p674
aVMRM-1302
p675
aVMRM-1301
p676
aVMRM-1300
p677
aVMRM-1299
p678
aVMRM-1298
p679
aVMRM-1297
p680
aVMRM-1296
p681
aVMRM-1295
p682
aVMRM-1294
p683
aVMRM-1293
p684
aVMRM-1292
p685
aVMRM-1291
p686
aVMRM-1290
p687
aVMRM-1289
p688
aVMRM-1288
p689
aVMRM-1287
p690
aVMRM-1286
p691
aVMRM-1285
p692
aVMRM-1284
p693
aVMRM-1283
p694
aVMRM-1282
p695
aVMRM-1281
p696
aVMRM-1280
p697
aVMRM-1279
p698
aVMRM-1278
p699
aVMRM-1277
p700
aVMRM-1276
p701
aVMRM-1275
p702
aVMRM-1274
p703
aVMRM-1273
p704
aVMRM-1272
p705
aVMRM-1270
p706
aVMRM-1269
p707
aVMRM-1268
p708
aVMRM-1267
p709
aVMRM-1266
p710
aVMRM-1265
p711
aVMRM-1264
p712
aVMRM-1263
p713
aVMRM-1262
p714
aVMRM-1261
p715
aVMRM-1260
p716
aVMRM-1259
p717
aVMRM-1258
p718
aVMRM-1257
p719
aVMRM-1256
p720
aVMRM-1255
p721
aVMRM-1254
p722
aVMRM-1253
p723
aVMRM-1252
p724
aVMRM-1251
p725
aVMRM-1250
p726
aVMRM-1249
p727
aVMRM-1248
p728
aVMRM-1247
p729
aVMRM-1246
p730
aVMRM-1245
p731
aVMRM-1244
p732
aVMRM-1243
p733
aVMRM-1242
p734
aVMRM-1241
p735
aVMRM-1240
p736
aVMRM-1239
p737
aVMRM-1238
p738
aVMRM-1237
p739
aVMRM-1236
p740
aVMRM-1235
p741
aVMRM-1234
p742
aVMRM-1232
p743
aVMRM-1231
p744
aVMRM-1230
p745
aVMRM-1229
p746
aVMRM-1228
p747
aVMRM-1227
p748
aVMRM-1226
p749
aVMRM-1225
p750
aVMRM-1220
p751
aVMRM-1219
p752
aVMRM-1218
p753
aVMRM-1217
p754
aVMRM-1216
p755
aVMRM-1215
p756
aVMRM-1214
p757
aVMRM-1213
p758
aVMRM-1212
p759
aVMRM-1211
p760
aVMRM-1210
p761
aVMRM-1209
p762
aVMRM-1208
p763
aVMRM-1207
p764
aVMRM-1206
p765
aVMRM-1205
p766
aVMRM-1204
p767
aVMRM-1203
p768
aVMRM-1202
p769
aVMRM-1201
p770
aVMRM-1200
p771
aVMRM-1199
p772
aVMRM-1198
p773
aVMRM-1197
p774
aVMRM-1196
p775
aVMRM-1195
p776
aVMRM-1194
p777
aVMRM-1193
p778
aVMRM-1192
p779
aVMRM-1191
p780
aVMRM-1190
p781
aVMRM-1189
p782
aVMRM-1188
p783
aVMRM-1187
p784
aVMRM-1186
p785
aVMRM-1185
p786
aVMRM-1184
p787
aVMRM-1183
p788
aVMRM-1182
p789
aVMRM-1181
p790
aVMRM-1180
p791
aVMRM-1179
p792
aVMRM-1178
p793
aVMRM-1177
p794
aVMRM-1176
p795
aVMRM-1175
p796
aVMRM-1174
p797
aVMRM-1173
p798
aVMRM-1172
p799
aVMRM-1171
p800
aVMRM-1170
p801
aVMRM-1169
p802
aVMRM-1168
p803
aVMRM-1167
p804
aVMRM-1166
p805
aVMRM-1165
p806
aVMRM-1164
p807
aVMRM-1163
p808
aVMRM-1162
p809
aVMRM-1161
p810
aVMRM-1160
p811
aVMRM-1159
p812
aVMRM-1158
p813
aVMRM-1157
p814
aVMRM-1156
p815
aVMRM-1155
p816
aVMRM-1154
p817
aVMRM-1153
p818
aVMRM-1152
p819
aVMRM-1151
p820
aVMRM-1150
p821
aVMRM-1149
p822
aVMRM-1148
p823
aVMRM-1147
p824
aVMRM-1146
p825
aVMRM-1145
p826
aVMRM-1144
p827
aVMRM-1143
p828
aVMRM-1142
p829
aVMRM-1141
p830
aVMRM-1140
p831
aVMRM-1139
p832
aVMRM-1138
p833
aVMRM-1137
p834
aVMRM-1136
p835
aVMRM-1135
p836
aVMRM-1134
p837
aVMRM-1133
p838
aVMRM-1132
p839
aVMRM-1131
p840
aVMRM-1130
p841
aVMRM-1129
p842
aVMRM-1128
p843
aVMRM-1127
p844
aVMRM-1126
p845
aVMRM-1125
p846
aVMRM-1124
p847
aVMRM-1123
p848
aVMRM-1122
p849
aVMRM-1121
p850
aVMRM-1120
p851
aVMRM-1119
p852
aVMRM-1118
p853
aVMRM-1117
p854
aVMRM-1116
p855
aVMRM-1115
p856
aVMRM-1114
p857
aVMRM-1113
p858
aVMRM-1112
p859
aVMRM-1111
p860
aVMRM-1110
p861
aVMRM-1109
p862
aVMRM-1108
p863
aVMRM-1107
p864
aVMRM-1106
p865
aVMRM-1105
p866
aVMRM-1104
p867
aVMRM-1103
p868
aVMRM-1102
p869
aVMRM-1101
p870
aVMRM-1100
p871
aVMRM-1099
p872
aVMRM-1098
p873
aVMRM-1097
p874
aVMRM-1096
p875
aVMRM-1095
p876
aVMRM-1094
p877
aVMRM-1093
p878
aVMRM-1092
p879
aVMRM-1091
p880
aVMRM-1090
p881
aVMRM-1089
p882
aVMRM-1088
p883
aVMRM-1087
p884
aVMRM-1086
p885
aVMRM-1085
p886
aVMRM-1084
p887
aVMRM-1083
p888
aVMRM-1082
p889
aVMRM-1081
p890
aVMRM-1080
p891
aVMRM-1079
p892
aVMRM-1078
p893
aVMRM-1077
p894
aVMRM-1076
p895
aVMRM-1075
p896
aVMRM-1074
p897
aVMRM-1073
p898
aVMRM-1072
p899
aVMRM-1071
p900
aVMRM-1070
p901
aVMRM-1069
p902
aVMRM-1068
p903
aVMRM-1067
p904
aVMRM-1066
p905
aVMRM-1065
p906
aVMRM-1064
p907
aVMRM-1063
p908
aVMRM-1062
p909
aVMRM-1061
p910
aVMRM-1060
p911
aVMRM-1059
p912
aVMRM-1058
p913
aVMRM-1057
p914
aVMRM-1056
p915
aVMRM-1055
p916
aVMRM-1054
p917
aVMRM-1053
p918
aVMRM-1052
p919
aVMRM-1051
p920
aVMRM-1050
p921
aVMRM-1049
p922
aVMRM-1048
p923
aVMRM-1047
p924
aVMRM-1046
p925
aVMRM-1044
p926
aVMRM-1043
p927
aVMRM-1042
p928
aVMRM-1041
p929
aVMRM-1040
p930
aVMRM-1039
p931
aVMRM-1038
p932
aVMRM-1037
p933
aVMRM-1036
p934
aVMRM-1035
p935
aVMRM-1034
p936
aVMRM-1033
p937
aVMRM-1032
p938
aVMRM-1031
p939
aVMRM-1030
p940
aVMRM-1029
p941
aVMRM-1028
p942
aVMRM-1027
p943
aVMRM-1026
p944
aVMRM-1025
p945
aVMRM-1024
p946
aVMRM-1023
p947
aVMRM-1022
p948
aVMRM-1021
p949
aVMRM-1020
p950
aVMRM-1019
p951
aVMRM-1018
p952
aVMRM-1017
p953
aVMRM-1016
p954
aVMRM-1015
p955
aVMRM-1014
p956
aVMRM-1013
p957
aVMRM-1012
p958
aVMRM-1011
p959
aVMRM-1010
p960
aVMRM-1009
p961
aVMRM-1008
p962
aVMRM-1007
p963
aVMRM-1006
p964
aVMRM-1005
p965
aVMRM-1004
p966
aVMRM-1003
p967
aVMRM-1002
p968
aVMRM-1001
p969
aVMRM-1000
p970
aVMRM-999
p971
aVMRM-998
p972
aVMRM-997
p973
aVMRM-996
p974
aVMRM-995
p975
aVMRM-994
p976
aVMRM-993
p977
aVMRM-992
p978
aVMRM-991
p979
aVMRM-990
p980
aVMRM-989
p981
aVMRM-988
p982
aVMRM-987
p983
aVMRM-986
p984
aVMRM-985
p985
aVMRM-984
p986
aVMRM-983
p987
aVMRM-982
p988
aVMRM-981
p989
aVMRM-980
p990
aVMRM-979
p991
aVMRM-978
p992
aVMRM-977
p993
aVMRM-976
p994
aVMRM-975
p995
aVMRM-974
p996
aVMRM-973
p997
aVMRM-971
p998
aVMRM-970
p999
aVMRM-969
p1000
aVMRM-967
p1001
aVMRM-966
p1002
aVMRM-965
p1003
aVMRM-964
p1004
aVMRM-963
p1005
aVMRM-962
p1006
aVMRM-961
p1007
aVMRM-960
p1008
aVMRM-959
p1009
aVMRM-958
p1010
aVMRM-957
p1011
aVMRM-956
p1012
aVMRM-955
p1013
aVMRM-954
p1014
aVMRM-953
p1015
aVMRM-952
p1016
aVMRM-951
p1017
aVMRM-950
p1018
aVMRM-949
p1019
aVMRM-948
p1020
aVMRM-947
p1021
aVMRM-946
p1022
aVMRM-945
p1023
aVMRM-944
p1024
aVMRM-943
p1025
aVMRM-942
p1026
aVMRM-941
p1027
aVMRM-940
p1028
aVMRM-939
p1029
aVMRM-938
p1030
aVMRM-937
p1031
aVMRM-936
p1032
aVMRM-935
p1033
aVMRM-934
p1034
aVMRM-933
p1035
aVMRM-932
p1036
aVMRM-931
p1037
aVMRM-930
p1038
aVMRM-929
p1039
aVMRM-928
p1040
aVMRM-927
p1041
aVMRM-926
p1042
aVMRM-925
p1043
aVMRM-924
p1044
aVMRM-923
p1045
aVMRM-922
p1046
aVMRM-921
p1047
aVMRM-920
p1048
aVMRM-919
p1049
aVMRM-918
p1050
aVMRM-917
p1051
aVMRM-916
p1052
aVMRM-915
p1053
aVMRM-914
p1054
aVMRM-913
p1055
aVMRM-912
p1056
aVMRM-911
p1057
aVMRM-910
p1058
aVMRM-909
p1059
aVMRM-908
p1060
aVMRM-907
p1061
aVMRM-906
p1062
aVMRM-905
p1063
aVMRM-904
p1064
aVMRM-903
p1065
aVMRM-902
p1066
aVMRM-901
p1067
aVMRM-900
p1068
aVMRM-899
p1069
aVMRM-898
p1070
aVMRM-897
p1071
aVMRM-896
p1072
aVMRM-895
p1073
aVMRM-894
p1074
aVMRM-893
p1075
aVMRM-892
p1076
aVMRM-891
p1077
aVMRM-890
p1078
aVMRM-889
p1079
aVMRM-888
p1080
aVMRM-887
p1081
aVMRM-886
p1082
aVMRM-885
p1083
aVMRM-884
p1084
aVMRM-883
p1085
aVMRM-882
p1086
aVMRM-881
p1087
aVMRM-880
p1088
aVMRM-879
p1089
aVMRM-878
p1090
aVMRM-877
p1091
aVMRM-876
p1092
aVMRM-875
p1093
aVMRM-874
p1094
aVMRM-873
p1095
aVMRM-872
p1096
aVMRM-871
p1097
aVMRM-870
p1098
aVMRM-869
p1099
aVMRM-868
p1100
aVMRM-867
p1101
aVMRM-866
p1102
aVMRM-865
p1103
aVMRM-864
p1104
aVMRM-863
p1105
aVMRM-862
p1106
aVMRM-861
p1107
aVMRM-860
p1108
aVMRM-859
p1109
aVMRM-858
p1110
aVMRM-857
p1111
aVMRM-856
p1112
aVMRM-855
p1113
aVMRM-854
p1114
aVMRM-853
p1115
aVMRM-852
p1116
aVMRM-851
p1117
aVMRM-850
p1118
aVMRM-848
p1119
aVMRM-847
p1120
aVMRM-846
p1121
aVMRM-845
p1122
aVMRM-844
p1123
aVMRM-843
p1124
aVMRM-842
p1125
aVMRM-841
p1126
aVMRM-840
p1127
aVMRM-839
p1128
aVMRM-838
p1129
aVMRM-837
p1130
aVMRM-836
p1131
aVMRM-835
p1132
aVMRM-834
p1133
aVMRM-833
p1134
aVMRM-832
p1135
aVMRM-831
p1136
aVMRM-830
p1137
aVMRM-829
p1138
aVMRM-828
p1139
aVMRM-827
p1140
aVMRM-826
p1141
aVMRM-825
p1142
aVMRM-824
p1143
aVMRM-823
p1144
aVMRM-822
p1145
aVMRM-821
p1146
aVMRM-820
p1147
aVMRM-819
p1148
aVMRM-818
p1149
aVMRM-817
p1150
aVMRM-816
p1151
aVMRM-815
p1152
aVMRM-814
p1153
aVMRM-813
p1154
aVMRM-812
p1155
aVMRM-811
p1156
aVMRM-810
p1157
aVMRM-809
p1158
aVMRM-808
p1159
aVMRM-807
p1160
aVMRM-806
p1161
aVMRM-805
p1162
aVMRM-804
p1163
aVMRM-803
p1164
aVMRM-802
p1165
aVMRM-801
p1166
aVMRM-800
p1167
aVMRM-799
p1168
aVMRM-798
p1169
aVMRM-797
p1170
aVMRM-796
p1171
aVMRM-795
p1172
aVMRM-794
p1173
aVMRM-793
p1174
aVMRM-792
p1175
aVMRM-791
p1176
aVMRM-790
p1177
aVMRM-789
p1178
aVMRM-788
p1179
aVMRM-787
p1180
aVMRM-786
p1181
aVMRM-785
p1182
aVMRM-784
p1183
aVMRM-783
p1184
aVMRM-782
p1185
aVMRM-781
p1186
aVMRM-780
p1187
aVMRM-779
p1188
aVMRM-778
p1189
aVMRM-777
p1190
aVMRM-776
p1191
aVMRM-775
p1192
aVMRM-774
p1193
aVMRM-773
p1194
aVMRM-772
p1195
aVMRM-771
p1196
aVMRM-770
p1197
aVMRM-769
p1198
aVMRM-768
p1199
aVMRM-767
p1200
aVMRM-766
p1201
aVMRM-765
p1202
aVMRM-764
p1203
aVMRM-763
p1204
aVMRM-762
p1205
aVMRM-761
p1206
aVMRM-760
p1207
aVMRM-759
p1208
aVMRM-758
p1209
aVMRM-757
p1210
aVMRM-756
p1211
aVMRM-755
p1212
aVMRM-754
p1213
aVMRM-753
p1214
aVMRM-752
p1215
aVMRM-751
p1216
aVMRM-750
p1217
aVMRM-749
p1218
aVMRM-748
p1219
aVMRM-747
p1220
aVMRM-746
p1221
aVMRM-745
p1222
aVMRM-744
p1223
aVMRM-743
p1224
aVMRM-742
p1225
aVMRM-741
p1226
aVMRM-740
p1227
aVMRM-739
p1228
aVMRM-738
p1229
aVMRM-737
p1230
aVMRM-735
p1231
aVMRM-734
p1232
aVMRM-733
p1233
aVMRM-732
p1234
aVMRM-731
p1235
aVMRM-730
p1236
aVMRM-729
p1237
aVMRM-728
p1238
aVMRM-727
p1239
aVMRM-726
p1240
aVMRM-725
p1241
aVMRM-724
p1242
aVMRM-723
p1243
aVMRM-722
p1244
aVMRM-721
p1245
aVMRM-720
p1246
aVMRM-719
p1247
aVMRM-718
p1248
aVMRM-717
p1249
aVMRM-716
p1250
aVMRM-715
p1251
aVMRM-714
p1252
aVMRM-713
p1253
aVMRM-712
p1254
aVMRM-711
p1255
aVMRM-710
p1256
aVMRM-709
p1257
aVMRM-708
p1258
aVMRM-707
p1259
aVMRM-706
p1260
aVMRM-705
p1261
aVMRM-704
p1262
aVMRM-703
p1263
aVMRM-702
p1264
aVMRM-701
p1265
aVMRM-700
p1266
aVMRM-699
p1267
aVMRM-698
p1268
aVMRM-697
p1269
aVMRM-696
p1270
aVMRM-695
p1271
aVMRM-694
p1272
aVMRM-693
p1273
aVMRM-692
p1274
aVMRM-691
p1275
aVMRM-690
p1276
aVMRM-689
p1277
aVMRM-688
p1278
aVMRM-687
p1279
aVMRM-686
p1280
aVMRM-685
p1281
aVMRM-684
p1282
aVMRM-683
p1283
aVMRM-682
p1284
aVMRM-681
p1285
aVMRM-680
p1286
aVMRM-679
p1287
aVMRM-678
p1288
aVMRM-677
p1289
aVMRM-676
p1290
aVMRM-675
p1291
aVMRM-674
p1292
aVMRM-673
p1293
aVMRM-672
p1294
aVMRM-671
p1295
aVMRM-670
p1296
aVMRM-669
p1297
aVMRM-668
p1298
aVMRM-667
p1299
aVMRM-666
p1300
aVMRM-665
p1301
aVMRM-664
p1302
aVMRM-663
p1303
aVMRM-662
p1304
aVMRM-661
p1305
aVMRM-660
p1306
aVMRM-659
p1307
aVMRM-658
p1308
aVMRM-657
p1309
aVMRM-656
p1310
aVMRM-655
p1311
aVMRM-654
p1312
aVMRM-653
p1313
aVMRM-652
p1314
aVMRM-651
p1315
aVMRM-650
p1316
aVMRM-649
p1317
aVMRM-648
p1318
aVMRM-647
p1319
aVMRM-646
p1320
aVMRM-645
p1321
aVMRM-644
p1322
aVMRM-643
p1323
aVMRM-642
p1324
aVMRM-641
p1325
aVMRM-640
p1326
aVMRM-639
p1327
aVMRM-638
p1328
aVMRM-637
p1329
aVMRM-636
p1330
aVMRM-635
p1331
aVMRM-634
p1332
aVMRM-633
p1333
aVMRM-632
p1334
aVMRM-631
p1335
aVMRM-630
p1336
aVMRM-629
p1337
aVMRM-628
p1338
aVMRM-627
p1339
aVMRM-626
p1340
aVMRM-625
p1341
aVMRM-624
p1342
aVMRM-623
p1343
aVMRM-622
p1344
aVMRM-621
p1345
aVMRM-620
p1346
aVMRM-619
p1347
aVMRM-618
p1348
aVMRM-617
p1349
aVMRM-616
p1350
aVMRM-615
p1351
aVMRM-614
p1352
aVMRM-613
p1353
aVMRM-612
p1354
aVMRM-611
p1355
aVMRM-610
p1356
aVMRM-609
p1357
aVMRM-608
p1358
aVMRM-607
p1359
aVMRM-606
p1360
aVMRM-605
p1361
aVMRM-604
p1362
aVMRM-603
p1363
aVMRM-602
p1364
aVMRM-601
p1365
aVMRM-600
p1366
aVMRM-599
p1367
aVMRM-598
p1368
aVMRM-597
p1369
aVMRM-596
p1370
aVMRM-595
p1371
aVMRM-594
p1372
aVMRM-593
p1373
aVMRM-592
p1374
aVMRM-591
p1375
aVMRM-590
p1376
aVMRM-589
p1377
aVMRM-588
p1378
aVMRM-587
p1379
aVMRM-586
p1380
aVMRM-585
p1381
aVMRM-584
p1382
aVMRM-583
p1383
aVMRM-582
p1384
aVMRM-581
p1385
aVMRM-580
p1386
aVMRM-579
p1387
aVMRM-578
p1388
aVMRM-577
p1389
aVMRM-576
p1390
aVMRM-575
p1391
aVMRM-574
p1392
aVMRM-573
p1393
aVMRM-572
p1394
aVMRM-571
p1395
aVMRM-570
p1396
aVMRM-569
p1397
aVMRM-568
p1398
aVMRM-567
p1399
aVMRM-566
p1400
aVMRM-565
p1401
aVMRM-564
p1402
aVMRM-563
p1403
aVMRM-562
p1404
aVMRM-561
p1405
aVMRM-560
p1406
aVMRM-559
p1407
aVMRM-558
p1408
aVMRM-557
p1409
aVMRM-556
p1410
aVMRM-555
p1411
aVMRM-554
p1412
aVMRM-553
p1413
aVMRM-552
p1414
aVMRM-551
p1415
aVMRM-550
p1416
aVMRM-549
p1417
aVMRM-548
p1418
aVMRM-547
p1419
aVMRM-546
p1420
aVMRM-545
p1421
aVMRM-544
p1422
aVMRM-543
p1423
aVMRM-542
p1424
aVMRM-541
p1425
aVMRM-540
p1426
aVMRM-539
p1427
aVMRM-538
p1428
aVMRM-537
p1429
aVMRM-536
p1430
aVMRM-535
p1431
aVMRM-534
p1432
aVMRM-533
p1433
aVMRM-532
p1434
aVMRM-531
p1435
aVMRM-530
p1436
aVMRM-529
p1437
aVMRM-528
p1438
aVMRM-527
p1439
aVMRM-526
p1440
aVMRM-525
p1441
aVMRM-524
p1442
aVMRM-523
p1443
aVMRM-522
p1444
aVMRM-521
p1445
aVMRM-520
p1446
aVMRM-519
p1447
aVMRM-518
p1448
aVMRM-517
p1449
aVMRM-516
p1450
aVMRM-515
p1451
aVMRM-514
p1452
aVMRM-513
p1453
aVMRM-512
p1454
aVMRM-511
p1455
aVMRM-510
p1456
aVMRM-509
p1457
aVMRM-508
p1458
aVMRM-506
p1459
aVMRM-505
p1460
aVMRM-504
p1461
aVMRM-503
p1462
aVMRM-502
p1463
aVMRM-501
p1464
aVMRM-500
p1465
aVMRM-499
p1466
aVMRM-498
p1467
aVMRM-497
p1468
aVMRM-496
p1469
aVMRM-495
p1470
aVMRM-494
p1471
aVMRM-493
p1472
aVMRM-492
p1473
aVMRM-491
p1474
aVMRM-490
p1475
aVMRM-489
p1476
aVMRM-488
p1477
aVMRM-487
p1478
aVMRM-486
p1479
aVMRM-485
p1480
aVMRM-484
p1481
aVMRM-483
p1482
aVMRM-482
p1483
aVMRM-481
p1484
aVMRM-479
p1485
aVMRM-478
p1486
aVMRM-477
p1487
aVMRM-476
p1488
aVMRM-475
p1489
aVMRM-474
p1490
aVMRM-473
p1491
aVMRM-472
p1492
aVMRM-471
p1493
aVMRM-470
p1494
aVMRM-469
p1495
aVMRM-467
p1496
aVMRM-466
p1497
aVMRM-465
p1498
aVMRM-464
p1499
aVMRM-463
p1500
aVMRM-462
p1501
aVMRM-461
p1502
aVMRM-460
p1503
aVMRM-459
p1504
aVMRM-458
p1505
aVMRM-457
p1506
aVMRM-456
p1507
aVMRM-455
p1508
aVMRM-454
p1509
aVMRM-453
p1510
aVMRM-452
p1511
aVMRM-451
p1512
aVMRM-450
p1513
aVMRM-449
p1514
aVMRM-448
p1515
aVMRM-447
p1516
aVMRM-446
p1517
aVMRM-445
p1518
aVMRM-444
p1519
aVMRM-443
p1520
aVMRM-442
p1521
aVMRM-441
p1522
aVMRM-440
p1523
aVMRM-438
p1524
aVMRM-437
p1525
aVMRM-436
p1526
aVMRM-435
p1527
aVMRM-434
p1528
aVMRM-433
p1529
aVMRM-432
p1530
aVMRM-431
p1531
aVMRM-430
p1532
aVMRM-429
p1533
aVMRM-428
p1534
aVMRM-427
p1535
aVMRM-426
p1536
aVMRM-425
p1537
aVMRM-424
p1538
aVMRM-423
p1539
aVMRM-422
p1540
aVMRM-421
p1541
aVMRM-420
p1542
aVMRM-419
p1543
aVMRM-418
p1544
aVMRM-417
p1545
aVMRM-416
p1546
aVMRM-415
p1547
aVMRM-414
p1548
aVMRM-413
p1549
aVMRM-412
p1550
aVMRM-410
p1551
aVMRM-409
p1552
aVMRM-408
p1553
aVMRM-407
p1554
aVMRM-406
p1555
aVMRM-405
p1556
aVMRM-404
p1557
aVMRM-403
p1558
aVMRM-402
p1559
aVMRM-401
p1560
aVMRM-400
p1561
aVMRM-399
p1562
aVMRM-398
p1563
aVMRM-397
p1564
aVMRM-396
p1565
aVMRM-395
p1566
aVMRM-394
p1567
aVMRM-393
p1568
aVMRM-392
p1569
aVMRM-391
p1570
aVMRM-388
p1571
aVMRM-387
p1572
aVMRM-385
p1573
aVMRM-384
p1574
aVMRM-383
p1575
aVMRM-382
p1576
aVMRM-381
p1577
aVMRM-380
p1578
aVMRM-379
p1579
aVMRM-378
p1580
aVMRM-377
p1581
aVMRM-376
p1582
aVMRM-375
p1583
aVMRM-374
p1584
aVMRM-373
p1585
aVMRM-372
p1586
aVMRM-371
p1587
aVMRM-370
p1588
aVMRM-369
p1589
aVMRM-368
p1590
aVMRM-367
p1591
aVMRM-366
p1592
aVMRM-365
p1593
aVMRM-364
p1594
aVMRM-363
p1595
aVMRM-362
p1596
aVMRM-361
p1597
aVMRM-360
p1598
aVMRM-359
p1599
aVMRM-358
p1600
aVMRM-357
p1601
aVMRM-356
p1602
aVMRM-355
p1603
aVMRM-354
p1604
aVMRM-353
p1605
aVMRM-352
p1606
aVMRM-351
p1607
aVMRM-350
p1608
aVMRM-349
p1609
aVMRM-348
p1610
aVMRM-347
p1611
aVMRM-346
p1612
aVMRM-345
p1613
aVMRM-344
p1614
aVMRM-343
p1615
aVMRM-342
p1616
aVMRM-341
p1617
aVMRM-340
p1618
aVMRM-339
p1619
aVMRM-338
p1620
aVMRM-337
p1621
aVMRM-336
p1622
aVMRM-335
p1623
aVMRM-334
p1624
aVMRM-333
p1625
aVMRM-332
p1626
aVMRM-331
p1627
aVMRM-330
p1628
aVMRM-329
p1629
aVMRM-328
p1630
aVMRM-327
p1631
aVMRM-326
p1632
aVMRM-325
p1633
aVMRM-324
p1634
aVMRM-323
p1635
aVMRM-322
p1636
aVMRM-321
p1637
aVMRM-320
p1638
aVMRM-319
p1639
aVMRM-318
p1640
aVMRM-317
p1641
aVMRM-316
p1642
aVMRM-315
p1643
aVMRM-314
p1644
aVMRM-313
p1645
aVMRM-312
p1646
aVMRM-311
p1647
aVMRM-310
p1648
aVMRM-309
p1649
aVMRM-308
p1650
aVMRM-307
p1651
aVMRM-306
p1652
aVMRM-305
p1653
aVMRM-304
p1654
aVMRM-303
p1655
aVMRM-302
p1656
aVMRM-301
p1657
aVMRM-300
p1658
aVMRM-299
p1659
aVMRM-297
p1660
aVMRM-296
p1661
aVMRM-295
p1662
aVMRM-294
p1663
aVMRM-293
p1664
aVMRM-292
p1665
aVMRM-291
p1666
aVMRM-290
p1667
aVMRM-289
p1668
aVMRM-288
p1669
aVMRM-287
p1670
aVMRM-286
p1671
aVMRM-285
p1672
aVMRM-284
p1673
aVMRM-283
p1674
aVMRM-282
p1675
aVMRM-281
p1676
aVMRM-280
p1677
aVMRM-279
p1678
aVMRM-278
p1679
aVMRM-277
p1680
aVMRM-276
p1681
aVMRM-275
p1682
aVMRM-274
p1683
aVMRM-273
p1684
aVMRM-272
p1685
aVMRM-270
p1686
aVMRM-269
p1687
aVMRM-268
p1688
aVMRM-267
p1689
aVMRM-266
p1690
aVMRM-265
p1691
aVMRM-264
p1692
aVMRM-263
p1693
aVMRM-262
p1694
aVMRM-261
p1695
aVMRM-260
p1696
aVMRM-259
p1697
aVMRM-258
p1698
aVMRM-257
p1699
aVMRM-256
p1700
aVMRM-255
p1701
aVMRM-254
p1702
aVMRM-253
p1703
aVMRM-252
p1704
aVMRM-251
p1705
aVMRM-250
p1706
aVMRM-248
p1707
aVMRM-247
p1708
aVMRM-246
p1709
aVMRM-245
p1710
aVMRM-244
p1711
aVMRM-243
p1712
aVMRM-242
p1713
aVMRM-241
p1714
aVMRM-240
p1715
aVMRM-239
p1716
aVMRM-238
p1717
aVMRM-237
p1718
aVMRM-236
p1719
aVMRM-235
p1720
aVMRM-234
p1721
aVMRM-233
p1722
aVMRM-232
p1723
aVMRM-231
p1724
aVMRM-230
p1725
aVMRM-228
p1726
aVMRM-227
p1727
aVMRM-226
p1728
aVMRM-225
p1729
aVMRM-224
p1730
aVMRM-223
p1731
aVMRM-222
p1732
aVMRM-221
p1733
aVMRM-220
p1734
aVMRM-219
p1735
aVMRM-218
p1736
aVMRM-217
p1737
aVMRM-216
p1738
aVMRM-215
p1739
aVMRM-214
p1740
aVMRM-213
p1741
aVMRM-212
p1742
aVMRM-211
p1743
aVMRM-210
p1744
aVMRM-209
p1745
aVMRM-208
p1746
aVMRM-207
p1747
aVMRM-206
p1748
aVMRM-205
p1749
aVMRM-204
p1750
aVMRM-203
p1751
aVMRM-202
p1752
aVMRM-201
p1753
aVMRM-200
p1754
aVMRM-199
p1755
aVMRM-198
p1756
aVMRM-197
p1757
aVMRM-196
p1758
aVMRM-195
p1759
aVMRM-194
p1760
aVMRM-193
p1761
aVMRM-192
p1762
aVMRM-191
p1763
aVMRM-190
p1764
aVMRM-189
p1765
aVMRM-188
p1766
aVMRM-187
p1767
aVMRM-186
p1768
aVMRM-185
p1769
aVMRM-184
p1770
aVMRM-183
p1771
aVMRM-182
p1772
aVMRM-181
p1773
aVMRM-180
p1774
aVMRM-179
p1775
aVMRM-178
p1776
aVMRM-177
p1777
aVMRM-176
p1778
aVMRM-175
p1779
aVMRM-174
p1780
aVMRM-173
p1781
aVMRM-172
p1782
aVMRM-171
p1783
aVMRM-170
p1784
aVMRM-169
p1785
aVMRM-167
p1786
aVMRM-166
p1787
aVMRM-165
p1788
aVMRM-164
p1789
aVMRM-163
p1790
aVMRM-162
p1791
aVMRM-161
p1792
aVMRM-160
p1793
aVMRM-159
p1794
aVMRM-158
p1795
aVMRM-157
p1796
aVMRM-156
p1797
aVMRM-155
p1798
aVMRM-154
p1799
aVMRM-153
p1800
aVMRM-152
p1801
aVMRM-151
p1802
aVMRM-150
p1803
aVMRM-149
p1804
aVMRM-148
p1805
aVMRM-147
p1806
aVMRM-146
p1807
aVMRM-145
p1808
aVMRM-144
p1809
aVMRM-143
p1810
aVMRM-142
p1811
aVMRM-141
p1812
aVMRM-140
p1813
aVMRM-139
p1814
aVMRM-138
p1815
aVMRM-137
p1816
aVMRM-136
p1817
aVMRM-135
p1818
aVMRM-134
p1819
aVMRM-133
p1820
aVMRM-132
p1821
aVMRM-131
p1822
aVMRM-130
p1823
aVMRM-129
p1824
aVMRM-128
p1825
aVMRM-127
p1826
aVMRM-125
p1827
aVMRM-124
p1828
aVMRM-123
p1829
aVMRM-122
p1830
aVMRM-121
p1831
aVMRM-120
p1832
aVMRM-119
p1833
aVMRM-118
p1834
aVMRM-117
p1835
aVMRM-116
p1836
aVMRM-115
p1837
aVMRM-114
p1838
aVMRM-113
p1839
aVMRM-112
p1840
aVMRM-111
p1841
aVMRM-110
p1842
aVMRM-109
p1843
aVMRM-108
p1844
aVMRM-107
p1845
aVMRM-106
p1846
aVMRM-105
p1847
aVMRM-104
p1848
aVMRM-103
p1849
aVMRM-102
p1850
aVMRM-101
p1851
aVMRM-100
p1852
aVMRM-99
p1853
aVMRM-98
p1854
aVMRM-97
p1855
aVMRM-96
p1856
aVMRM-95
p1857
aVMRM-94
p1858
aVMRM-93
p1859
aVMRM-92
p1860
aVMRM-91
p1861
aVMRM-90
p1862
aVMRM-89
p1863
aVMRM-88
p1864
aVMRM-87
p1865
aVMRM-86
p1866
aVMRM-85
p1867
aVMRM-84
p1868
aVMRM-83
p1869
aVMRM-82
p1870
aVMRM-81
p1871
aVMRM-80
p1872
aVMRM-79
p1873
aVMRM-78
p1874
aVMRM-77
p1875
aVMRM-76
p1876
aVMRM-75
p1877
aVMRM-74
p1878
aVMRM-73
p1879
aVMRM-72
p1880
aVMRM-70
p1881
aVMRM-69
p1882
aVMRM-68
p1883
aVMRM-67
p1884
aVMRM-66
p1885
aVMRM-65
p1886
aVMRM-64
p1887
aVMRM-63
p1888
aVMRM-62
p1889
aVMRM-61
p1890
aVMRM-60
p1891
aVMRM-59
p1892
aVMRM-58
p1893
aVMRM-57
p1894
aVMRM-56
p1895
aVMRM-55
p1896
aVMRM-54
p1897
aVMRM-53
p1898
aVMRM-52
p1899
aVMRM-51
p1900
aVMRM-50
p1901
aVMRM-49
p1902
aVMRM-48
p1903
aVMRM-47
p1904
aVMRM-46
p1905
aVMRM-45
p1906
aVMRM-44
p1907
aVMRM-43
p1908
aVMRM-42
p1909
aVMRM-41
p1910
aVMRM-40
p1911
aVMRM-39
p1912
aVMRM-38
p1913
aVMRM-37
p1914
aVMRM-36
p1915
aVMRM-35
p1916
aVMRM-34
p1917
aVMRM-33
p1918
aVMRM-32
p1919
aVMRM-31
p1920
aVMRM-30
p1921
aVMRM-29
p1922
aVMRM-28
p1923
aVMRM-27
p1924
aVMRM-26
p1925
aVMRM-25
p1926
aVMRM-23
p1927
aVMRM-22
p1928
aVMRM-21
p1929
aVMRM-20
p1930
aVMRM-19
p1931
aVMRM-17
p1932
aVMRM-16
p1933
aVMRM-15
p1934
aVMRM-14
p1935
aVMRM-13
p1936
aVMRM-12
p1937
aVMRM-11
p1938
aVMRM-10
p1939
aVMRM-9
p1940
aVMRM-8
p1941
aVMRM-7
p1942
aVMRM-6
p1943
aVMRM-5
p1944
aVMRM-4
p1945
aVMRM-3
p1946
aVMRM-2
p1947
aVMRM-1
p1948
a.