(lp0
VMRRESOURCES-106
p1
aVMRRESOURCES-105
p2
aVMRRESOURCES-104
p3
aVMRRESOURCES-103
p4
aVMRRESOURCES-102
p5
aVMRRESOURCES-101
p6
aVMRRESOURCES-100
p7
aVMRRESOURCES-99
p8
aVMRRESOURCES-98
p9
aVMRRESOURCES-97
p10
aVMRRESOURCES-96
p11
aVMRRESOURCES-95
p12
aVMRRESOURCES-94
p13
aVMRRESOURCES-93
p14
aVMRRESOURCES-92
p15
aVMRRESOURCES-91
p16
aVMRRESOURCES-90
p17
aVMRRESOURCES-89
p18
aVMRRESOURCES-88
p19
aVMRRESOURCES-87
p20
aVMRRESOURCES-86
p21
aVMRRESOURCES-85
p22
aVMRRESOURCES-84
p23
aVMRRESOURCES-83
p24
aVMRRESOURCES-82
p25
aVMRRESOURCES-81
p26
aVMRRESOURCES-80
p27
aVMRRESOURCES-79
p28
aVMRRESOURCES-78
p29
aVMRRESOURCES-77
p30
aVMRRESOURCES-76
p31
aVMRRESOURCES-75
p32
aVMRRESOURCES-74
p33
aVMRRESOURCES-73
p34
aVMRRESOURCES-72
p35
aVMRRESOURCES-71
p36
aVMRRESOURCES-70
p37
aVMRRESOURCES-69
p38
aVMRRESOURCES-68
p39
aVMRRESOURCES-67
p40
aVMRRESOURCES-66
p41
aVMRRESOURCES-65
p42
aVMRRESOURCES-64
p43
aVMRRESOURCES-63
p44
aVMRRESOURCES-62
p45
aVMRRESOURCES-61
p46
aVMRRESOURCES-60
p47
aVMRRESOURCES-59
p48
aVMRRESOURCES-58
p49
aVMRRESOURCES-57
p50
aVMRRESOURCES-56
p51
aVMRRESOURCES-55
p52
aVMRRESOURCES-54
p53
aVMRRESOURCES-53
p54
aVMRRESOURCES-52
p55
aVMRRESOURCES-51
p56
aVMRRESOURCES-50
p57
aVMRRESOURCES-49
p58
aVMRRESOURCES-48
p59
aVMRRESOURCES-47
p60
aVMRRESOURCES-46
p61
aVMRRESOURCES-45
p62
aVMRRESOURCES-44
p63
aVMRRESOURCES-43
p64
aVMRRESOURCES-42
p65
aVMRRESOURCES-41
p66
aVMRRESOURCES-39
p67
aVMRRESOURCES-38
p68
aVMRRESOURCES-37
p69
aVMRRESOURCES-36
p70
aVMRRESOURCES-35
p71
aVMRRESOURCES-34
p72
aVMRRESOURCES-33
p73
aVMRRESOURCES-32
p74
aVMRRESOURCES-31
p75
aVMRRESOURCES-30
p76
aVMRRESOURCES-29
p77
aVMRRESOURCES-28
p78
aVMRRESOURCES-27
p79
aVMRRESOURCES-26
p80
aVMRRESOURCES-25
p81
aVMRRESOURCES-24
p82
aVMRRESOURCES-23
p83
aVMRRESOURCES-22
p84
aVMRRESOURCES-21
p85
aVMRRESOURCES-20
p86
aVMRRESOURCES-19
p87
aVMRRESOURCES-18
p88
aVMRRESOURCES-17
p89
aVMRRESOURCES-16
p90
aVMRRESOURCES-15
p91
aVMRRESOURCES-14
p92
aVMRRESOURCES-13
p93
aVMRRESOURCES-12
p94
aVMRRESOURCES-11
p95
aVMRRESOURCES-10
p96
aVMRRESOURCES-9
p97
aVMRRESOURCES-8
p98
aVMRRESOURCES-7
p99
aVMRRESOURCES-6
p100
aVMRRESOURCES-5
p101
aVMRRESOURCES-4
p102
aVMRRESOURCES-3
p103
aVMRRESOURCES-2
p104
aVMRRESOURCES-1
p105
a.