(lp0
VMRUNIT-225
p1
aVMRUNIT-224
p2
aVMRUNIT-223
p3
aVMRUNIT-222
p4
aVMRUNIT-221
p5
aVMRUNIT-220
p6
aVMRUNIT-219
p7
aVMRUNIT-218
p8
aVMRUNIT-217
p9
aVMRUNIT-216
p10
aVMRUNIT-215
p11
aVMRUNIT-214
p12
aVMRUNIT-213
p13
aVMRUNIT-212
p14
aVMRUNIT-211
p15
aVMRUNIT-210
p16
aVMRUNIT-209
p17
aVMRUNIT-208
p18
aVMRUNIT-207
p19
aVMRUNIT-206
p20
aVMRUNIT-205
p21
aVMRUNIT-204
p22
aVMRUNIT-203
p23
aVMRUNIT-202
p24
aVMRUNIT-201
p25
aVMRUNIT-200
p26
aVMRUNIT-199
p27
aVMRUNIT-198
p28
aVMRUNIT-197
p29
aVMRUNIT-196
p30
aVMRUNIT-195
p31
aVMRUNIT-194
p32
aVMRUNIT-193
p33
aVMRUNIT-192
p34
aVMRUNIT-191
p35
aVMRUNIT-190
p36
aVMRUNIT-189
p37
aVMRUNIT-188
p38
aVMRUNIT-187
p39
aVMRUNIT-186
p40
aVMRUNIT-185
p41
aVMRUNIT-184
p42
aVMRUNIT-183
p43
aVMRUNIT-182
p44
aVMRUNIT-181
p45
aVMRUNIT-180
p46
aVMRUNIT-179
p47
aVMRUNIT-178
p48
aVMRUNIT-176
p49
aVMRUNIT-175
p50
aVMRUNIT-174
p51
aVMRUNIT-173
p52
aVMRUNIT-172
p53
aVMRUNIT-171
p54
aVMRUNIT-170
p55
aVMRUNIT-169
p56
aVMRUNIT-168
p57
aVMRUNIT-167
p58
aVMRUNIT-166
p59
aVMRUNIT-165
p60
aVMRUNIT-164
p61
aVMRUNIT-163
p62
aVMRUNIT-162
p63
aVMRUNIT-161
p64
aVMRUNIT-160
p65
aVMRUNIT-159
p66
aVMRUNIT-158
p67
aVMRUNIT-157
p68
aVMRUNIT-156
p69
aVMRUNIT-155
p70
aVMRUNIT-154
p71
aVMRUNIT-153
p72
aVMRUNIT-152
p73
aVMRUNIT-151
p74
aVMRUNIT-150
p75
aVMRUNIT-149
p76
aVMRUNIT-148
p77
aVMRUNIT-147
p78
aVMRUNIT-146
p79
aVMRUNIT-145
p80
aVMRUNIT-144
p81
aVMRUNIT-143
p82
aVMRUNIT-142
p83
aVMRUNIT-141
p84
aVMRUNIT-140
p85
aVMRUNIT-139
p86
aVMRUNIT-138
p87
aVMRUNIT-137
p88
aVMRUNIT-136
p89
aVMRUNIT-135
p90
aVMRUNIT-134
p91
aVMRUNIT-133
p92
aVMRUNIT-132
p93
aVMRUNIT-131
p94
aVMRUNIT-130
p95
aVMRUNIT-129
p96
aVMRUNIT-128
p97
aVMRUNIT-127
p98
aVMRUNIT-126
p99
aVMRUNIT-125
p100
aVMRUNIT-124
p101
aVMRUNIT-123
p102
aVMRUNIT-122
p103
aVMRUNIT-121
p104
aVMRUNIT-120
p105
aVMRUNIT-119
p106
aVMRUNIT-118
p107
aVMRUNIT-117
p108
aVMRUNIT-116
p109
aVMRUNIT-115
p110
aVMRUNIT-114
p111
aVMRUNIT-113
p112
aVMRUNIT-112
p113
aVMRUNIT-111
p114
aVMRUNIT-110
p115
aVMRUNIT-109
p116
aVMRUNIT-108
p117
aVMRUNIT-107
p118
aVMRUNIT-106
p119
aVMRUNIT-105
p120
aVMRUNIT-104
p121
aVMRUNIT-103
p122
aVMRUNIT-102
p123
aVMRUNIT-101
p124
aVMRUNIT-100
p125
aVMRUNIT-99
p126
aVMRUNIT-98
p127
aVMRUNIT-97
p128
aVMRUNIT-96
p129
aVMRUNIT-95
p130
aVMRUNIT-94
p131
aVMRUNIT-93
p132
aVMRUNIT-92
p133
aVMRUNIT-91
p134
aVMRUNIT-90
p135
aVMRUNIT-89
p136
aVMRUNIT-88
p137
aVMRUNIT-87
p138
aVMRUNIT-86
p139
aVMRUNIT-85
p140
aVMRUNIT-84
p141
aVMRUNIT-83
p142
aVMRUNIT-82
p143
aVMRUNIT-81
p144
aVMRUNIT-80
p145
aVMRUNIT-79
p146
aVMRUNIT-78
p147
aVMRUNIT-77
p148
aVMRUNIT-76
p149
aVMRUNIT-75
p150
aVMRUNIT-74
p151
aVMRUNIT-73
p152
aVMRUNIT-72
p153
aVMRUNIT-71
p154
aVMRUNIT-70
p155
aVMRUNIT-69
p156
aVMRUNIT-68
p157
aVMRUNIT-67
p158
aVMRUNIT-66
p159
aVMRUNIT-65
p160
aVMRUNIT-64
p161
aVMRUNIT-63
p162
aVMRUNIT-62
p163
aVMRUNIT-61
p164
aVMRUNIT-60
p165
aVMRUNIT-59
p166
aVMRUNIT-58
p167
aVMRUNIT-57
p168
aVMRUNIT-56
p169
aVMRUNIT-55
p170
aVMRUNIT-54
p171
aVMRUNIT-53
p172
aVMRUNIT-52
p173
aVMRUNIT-51
p174
aVMRUNIT-50
p175
aVMRUNIT-49
p176
aVMRUNIT-48
p177
aVMRUNIT-47
p178
aVMRUNIT-46
p179
aVMRUNIT-45
p180
aVMRUNIT-44
p181
aVMRUNIT-43
p182
aVMRUNIT-42
p183
aVMRUNIT-41
p184
aVMRUNIT-40
p185
aVMRUNIT-39
p186
aVMRUNIT-38
p187
aVMRUNIT-37
p188
aVMRUNIT-36
p189
aVMRUNIT-35
p190
aVMRUNIT-34
p191
aVMRUNIT-33
p192
aVMRUNIT-32
p193
aVMRUNIT-31
p194
aVMRUNIT-30
p195
aVMRUNIT-29
p196
aVMRUNIT-28
p197
aVMRUNIT-27
p198
aVMRUNIT-26
p199
aVMRUNIT-25
p200
aVMRUNIT-24
p201
aVMRUNIT-23
p202
aVMRUNIT-22
p203
aVMRUNIT-21
p204
aVMRUNIT-20
p205
aVMRUNIT-19
p206
aVMRUNIT-18
p207
aVMRUNIT-17
p208
aVMRUNIT-16
p209
aVMRUNIT-15
p210
aVMRUNIT-14
p211
aVMRUNIT-13
p212
aVMRUNIT-12
p213
aVMRUNIT-11
p214
aVMRUNIT-10
p215
aVMRUNIT-9
p216
aVMRUNIT-8
p217
aVMRUNIT-7
p218
aVMRUNIT-6
p219
aVMRUNIT-5
p220
aVMRUNIT-4
p221
aVMRUNIT-3
p222
aVMRUNIT-2
p223
aVMRUNIT-1
p224
a.