(lp0
VMSCMPUB-38
p1
aVMSCMPUB-37
p2
aVMSCMPUB-36
p3
aVMSCMPUB-35
p4
aVMSCMPUB-34
p5
aVMSCMPUB-33
p6
aVMSCMPUB-32
p7
aVMSCMPUB-31
p8
aVMSCMPUB-30
p9
aVMSCMPUB-29
p10
aVMSCMPUB-27
p11
aVMSCMPUB-26
p12
aVMSCMPUB-25
p13
aVMSCMPUB-24
p14
aVMSCMPUB-23
p15
aVMSCMPUB-22
p16
aVMSCMPUB-21
p17
aVMSCMPUB-20
p18
aVMSCMPUB-19
p19
aVMSCMPUB-18
p20
aVMSCMPUB-16
p21
aVMSCMPUB-15
p22
aVMSCMPUB-14
p23
aVMSCMPUB-13
p24
aVMSCMPUB-12
p25
aVMSCMPUB-11
p26
aVMSCMPUB-10
p27
aVMSCMPUB-9
p28
aVMSCMPUB-8
p29
aVMSCMPUB-7
p30
aVMSCMPUB-6
p31
aVMSCMPUB-5
p32
aVMSCMPUB-4
p33
aVMSCMPUB-3
p34
aVMSCMPUB-2
p35
aVMSCMPUB-1
p36
a.