(lp0
VMSHADE-295
p1
aVMSHADE-294
p2
aVMSHADE-293
p3
aVMSHADE-292
p4
aVMSHADE-291
p5
aVMSHADE-290
p6
aVMSHADE-289
p7
aVMSHADE-288
p8
aVMSHADE-287
p9
aVMSHADE-286
p10
aVMSHADE-285
p11
aVMSHADE-284
p12
aVMSHADE-283
p13
aVMSHADE-282
p14
aVMSHADE-281
p15
aVMSHADE-280
p16
aVMSHADE-279
p17
aVMSHADE-278
p18
aVMSHADE-277
p19
aVMSHADE-276
p20
aVMSHADE-275
p21
aVMSHADE-274
p22
aVMSHADE-273
p23
aVMSHADE-272
p24
aVMSHADE-271
p25
aVMSHADE-270
p26
aVMSHADE-269
p27
aVMSHADE-268
p28
aVMSHADE-267
p29
aVMSHADE-266
p30
aVMSHADE-265
p31
aVMSHADE-264
p32
aVMSHADE-263
p33
aVMSHADE-262
p34
aVMSHADE-261
p35
aVMSHADE-260
p36
aVMSHADE-259
p37
aVMSHADE-258
p38
aVMSHADE-257
p39
aVMSHADE-256
p40
aVMSHADE-255
p41
aVMSHADE-254
p42
aVMSHADE-253
p43
aVMSHADE-252
p44
aVMSHADE-251
p45
aVMSHADE-250
p46
aVMSHADE-249
p47
aVMSHADE-248
p48
aVMSHADE-247
p49
aVMSHADE-246
p50
aVMSHADE-245
p51
aVMSHADE-244
p52
aVMSHADE-243
p53
aVMSHADE-242
p54
aVMSHADE-241
p55
aVMSHADE-240
p56
aVMSHADE-239
p57
aVMSHADE-238
p58
aVMSHADE-237
p59
aVMSHADE-236
p60
aVMSHADE-235
p61
aVMSHADE-234
p62
aVMSHADE-233
p63
aVMSHADE-232
p64
aVMSHADE-231
p65
aVMSHADE-230
p66
aVMSHADE-229
p67
aVMSHADE-228
p68
aVMSHADE-227
p69
aVMSHADE-226
p70
aVMSHADE-225
p71
aVMSHADE-224
p72
aVMSHADE-223
p73
aVMSHADE-222
p74
aVMSHADE-221
p75
aVMSHADE-220
p76
aVMSHADE-219
p77
aVMSHADE-218
p78
aVMSHADE-217
p79
aVMSHADE-216
p80
aVMSHADE-215
p81
aVMSHADE-214
p82
aVMSHADE-213
p83
aVMSHADE-212
p84
aVMSHADE-211
p85
aVMSHADE-210
p86
aVMSHADE-209
p87
aVMSHADE-208
p88
aVMSHADE-207
p89
aVMSHADE-206
p90
aVMSHADE-205
p91
aVMSHADE-204
p92
aVMSHADE-203
p93
aVMSHADE-202
p94
aVMSHADE-201
p95
aVMSHADE-200
p96
aVMSHADE-199
p97
aVMSHADE-198
p98
aVMSHADE-197
p99
aVMSHADE-196
p100
aVMSHADE-195
p101
aVMSHADE-194
p102
aVMSHADE-193
p103
aVMSHADE-192
p104
aVMSHADE-191
p105
aVMSHADE-190
p106
aVMSHADE-189
p107
aVMSHADE-188
p108
aVMSHADE-187
p109
aVMSHADE-186
p110
aVMSHADE-185
p111
aVMSHADE-184
p112
aVMSHADE-183
p113
aVMSHADE-182
p114
aVMSHADE-181
p115
aVMSHADE-180
p116
aVMSHADE-179
p117
aVMSHADE-178
p118
aVMSHADE-177
p119
aVMSHADE-176
p120
aVMSHADE-175
p121
aVMSHADE-174
p122
aVMSHADE-173
p123
aVMSHADE-172
p124
aVMSHADE-171
p125
aVMSHADE-170
p126
aVMSHADE-169
p127
aVMSHADE-168
p128
aVMSHADE-167
p129
aVMSHADE-166
p130
aVMSHADE-165
p131
aVMSHADE-164
p132
aVMSHADE-163
p133
aVMSHADE-162
p134
aVMSHADE-161
p135
aVMSHADE-160
p136
aVMSHADE-159
p137
aVMSHADE-158
p138
aVMSHADE-157
p139
aVMSHADE-156
p140
aVMSHADE-155
p141
aVMSHADE-154
p142
aVMSHADE-153
p143
aVMSHADE-152
p144
aVMSHADE-151
p145
aVMSHADE-150
p146
aVMSHADE-149
p147
aVMSHADE-148
p148
aVMSHADE-147
p149
aVMSHADE-146
p150
aVMSHADE-145
p151
aVMSHADE-144
p152
aVMSHADE-143
p153
aVMSHADE-142
p154
aVMSHADE-141
p155
aVMSHADE-140
p156
aVMSHADE-139
p157
aVMSHADE-138
p158
aVMSHADE-137
p159
aVMSHADE-136
p160
aVMSHADE-135
p161
aVMSHADE-134
p162
aVMSHADE-133
p163
aVMSHADE-132
p164
aVMSHADE-131
p165
aVMSHADE-130
p166
aVMSHADE-129
p167
aVMSHADE-128
p168
aVMSHADE-127
p169
aVMSHADE-126
p170
aVMSHADE-125
p171
aVMSHADE-124
p172
aVMSHADE-123
p173
aVMSHADE-122
p174
aVMSHADE-121
p175
aVMSHADE-120
p176
aVMSHADE-119
p177
aVMSHADE-118
p178
aVMSHADE-117
p179
aVMSHADE-116
p180
aVMSHADE-115
p181
aVMSHADE-114
p182
aVMSHADE-113
p183
aVMSHADE-112
p184
aVMSHADE-111
p185
aVMSHADE-110
p186
aVMSHADE-109
p187
aVMSHADE-108
p188
aVMSHADE-107
p189
aVMSHADE-106
p190
aVMSHADE-105
p191
aVMSHADE-104
p192
aVMSHADE-103
p193
aVMSHADE-102
p194
aVMSHADE-101
p195
aVMSHADE-100
p196
aVMSHADE-99
p197
aVMSHADE-98
p198
aVMSHADE-97
p199
aVMSHADE-96
p200
aVMSHADE-95
p201
aVMSHADE-94
p202
aVMSHADE-93
p203
aVMSHADE-92
p204
aVMSHADE-91
p205
aVMSHADE-90
p206
aVMSHADE-89
p207
aVMSHADE-88
p208
aVMSHADE-87
p209
aVMSHADE-86
p210
aVMSHADE-85
p211
aVMSHADE-84
p212
aVMSHADE-83
p213
aVMSHADE-82
p214
aVMSHADE-81
p215
aVMSHADE-80
p216
aVMSHADE-79
p217
aVMSHADE-78
p218
aVMSHADE-77
p219
aVMSHADE-76
p220
aVMSHADE-75
p221
aVMSHADE-74
p222
aVMSHADE-73
p223
aVMSHADE-72
p224
aVMSHADE-71
p225
aVMSHADE-70
p226
aVMSHADE-69
p227
aVMSHADE-68
p228
aVMSHADE-67
p229
aVMSHADE-66
p230
aVMSHADE-65
p231
aVMSHADE-64
p232
aVMSHADE-63
p233
aVMSHADE-62
p234
aVMSHADE-61
p235
aVMSHADE-60
p236
aVMSHADE-59
p237
aVMSHADE-58
p238
aVMSHADE-55
p239
aVMSHADE-54
p240
aVMSHADE-53
p241
aVMSHADE-52
p242
aVMSHADE-51
p243
aVMSHADE-50
p244
aVMSHADE-49
p245
aVMSHADE-48
p246
aVMSHADE-47
p247
aVMSHADE-46
p248
aVMSHADE-45
p249
aVMSHADE-44
p250
aVMSHADE-43
p251
aVMSHADE-42
p252
aVMSHADE-41
p253
aVMSHADE-40
p254
aVMSHADE-39
p255
aVMSHADE-38
p256
aVMSHADE-37
p257
aVMSHADE-36
p258
aVMSHADE-35
p259
aVMSHADE-34
p260
aVMSHADE-33
p261
aVMSHADE-32
p262
aVMSHADE-31
p263
aVMSHADE-30
p264
aVMSHADE-29
p265
aVMSHADE-28
p266
aVMSHADE-27
p267
aVMSHADE-26
p268
aVMSHADE-25
p269
aVMSHADE-24
p270
aVMSHADE-23
p271
aVMSHADE-22
p272
aVMSHADE-21
p273
aVMSHADE-20
p274
aVMSHADE-19
p275
aVMSHADE-18
p276
aVMSHADE-17
p277
aVMSHADE-16
p278
aVMSHADE-15
p279
aVMSHADE-14
p280
aVMSHADE-13
p281
aVMSHADE-12
p282
aVMSHADE-11
p283
aVMSHADE-10
p284
aVMSHADE-9
p285
aVMSHADE-8
p286
aVMSHADE-7
p287
aVMSHADE-6
p288
aVMSHADE-5
p289
aVMSHADE-4
p290
aVMSHADE-3
p291
aVMSHADE-2
p292
aVMSHADE-1
p293
a.