(lp0
VMSITE-825
p1
aVMSITE-824
p2
aVMSITE-823
p3
aVMSITE-822
p4
aVMSITE-821
p5
aVMSITE-820
p6
aVMSITE-819
p7
aVMSITE-818
p8
aVMSITE-817
p9
aVMSITE-816
p10
aVMSITE-815
p11
aVMSITE-814
p12
aVMSITE-812
p13
aVMSITE-811
p14
aVMSITE-810
p15
aVMSITE-809
p16
aVMSITE-808
p17
aVMSITE-807
p18
aVMSITE-806
p19
aVMSITE-805
p20
aVMSITE-804
p21
aVMSITE-803
p22
aVMSITE-802
p23
aVMSITE-801
p24
aVMSITE-800
p25
aVMSITE-799
p26
aVMSITE-797
p27
aVMSITE-796
p28
aVMSITE-795
p29
aVMSITE-794
p30
aVMSITE-793
p31
aVMSITE-792
p32
aVMSITE-791
p33
aVMSITE-790
p34
aVMSITE-789
p35
aVMSITE-788
p36
aVMSITE-787
p37
aVMSITE-786
p38
aVMSITE-785
p39
aVMSITE-784
p40
aVMSITE-783
p41
aVMSITE-782
p42
aVMSITE-781
p43
aVMSITE-780
p44
aVMSITE-779
p45
aVMSITE-778
p46
aVMSITE-777
p47
aVMSITE-776
p48
aVMSITE-775
p49
aVMSITE-774
p50
aVMSITE-773
p51
aVMSITE-772
p52
aVMSITE-771
p53
aVMSITE-770
p54
aVMSITE-769
p55
aVMSITE-768
p56
aVMSITE-767
p57
aVMSITE-766
p58
aVMSITE-765
p59
aVMSITE-764
p60
aVMSITE-763
p61
aVMSITE-762
p62
aVMSITE-761
p63
aVMSITE-760
p64
aVMSITE-759
p65
aVMSITE-758
p66
aVMSITE-757
p67
aVMSITE-756
p68
aVMSITE-755
p69
aVMSITE-754
p70
aVMSITE-753
p71
aVMSITE-752
p72
aVMSITE-751
p73
aVMSITE-750
p74
aVMSITE-749
p75
aVMSITE-748
p76
aVMSITE-747
p77
aVMSITE-746
p78
aVMSITE-745
p79
aVMSITE-744
p80
aVMSITE-743
p81
aVMSITE-741
p82
aVMSITE-740
p83
aVMSITE-739
p84
aVMSITE-738
p85
aVMSITE-733
p86
aVMSITE-732
p87
aVMSITE-731
p88
aVMSITE-730
p89
aVMSITE-729
p90
aVMSITE-728
p91
aVMSITE-727
p92
aVMSITE-726
p93
aVMSITE-725
p94
aVMSITE-724
p95
aVMSITE-723
p96
aVMSITE-722
p97
aVMSITE-721
p98
aVMSITE-720
p99
aVMSITE-719
p100
aVMSITE-718
p101
aVMSITE-717
p102
aVMSITE-716
p103
aVMSITE-715
p104
aVMSITE-714
p105
aVMSITE-713
p106
aVMSITE-712
p107
aVMSITE-711
p108
aVMSITE-710
p109
aVMSITE-709
p110
aVMSITE-708
p111
aVMSITE-705
p112
aVMSITE-704
p113
aVMSITE-703
p114
aVMSITE-702
p115
aVMSITE-701
p116
aVMSITE-700
p117
aVMSITE-699
p118
aVMSITE-698
p119
aVMSITE-697
p120
aVMSITE-696
p121
aVMSITE-695
p122
aVMSITE-694
p123
aVMSITE-693
p124
aVMSITE-691
p125
aVMSITE-690
p126
aVMSITE-689
p127
aVMSITE-688
p128
aVMSITE-687
p129
aVMSITE-686
p130
aVMSITE-684
p131
aVMSITE-683
p132
aVMSITE-682
p133
aVMSITE-681
p134
aVMSITE-680
p135
aVMSITE-679
p136
aVMSITE-678
p137
aVMSITE-677
p138
aVMSITE-676
p139
aVMSITE-675
p140
aVMSITE-674
p141
aVMSITE-672
p142
aVMSITE-671
p143
aVMSITE-670
p144
aVMSITE-669
p145
aVMSITE-668
p146
aVMSITE-667
p147
aVMSITE-666
p148
aVMSITE-665
p149
aVMSITE-664
p150
aVMSITE-663
p151
aVMSITE-662
p152
aVMSITE-661
p153
aVMSITE-660
p154
aVMSITE-659
p155
aVMSITE-658
p156
aVMSITE-657
p157
aVMSITE-655
p158
aVMSITE-654
p159
aVMSITE-653
p160
aVMSITE-652
p161
aVMSITE-651
p162
aVMSITE-650
p163
aVMSITE-649
p164
aVMSITE-648
p165
aVMSITE-647
p166
aVMSITE-646
p167
aVMSITE-645
p168
aVMSITE-644
p169
aVMSITE-643
p170
aVMSITE-642
p171
aVMSITE-641
p172
aVMSITE-640
p173
aVMSITE-639
p174
aVMSITE-638
p175
aVMSITE-637
p176
aVMSITE-636
p177
aVMSITE-634
p178
aVMSITE-633
p179
aVMSITE-632
p180
aVMSITE-631
p181
aVMSITE-630
p182
aVMSITE-627
p183
aVMSITE-626
p184
aVMSITE-625
p185
aVMSITE-624
p186
aVMSITE-622
p187
aVMSITE-621
p188
aVMSITE-620
p189
aVMSITE-619
p190
aVMSITE-617
p191
aVMSITE-616
p192
aVMSITE-615
p193
aVMSITE-614
p194
aVMSITE-613
p195
aVMSITE-611
p196
aVMSITE-610
p197
aVMSITE-609
p198
aVMSITE-608
p199
aVMSITE-607
p200
aVMSITE-606
p201
aVMSITE-605
p202
aVMSITE-604
p203
aVMSITE-603
p204
aVMSITE-602
p205
aVMSITE-601
p206
aVMSITE-600
p207
aVMSITE-599
p208
aVMSITE-598
p209
aVMSITE-597
p210
aVMSITE-596
p211
aVMSITE-595
p212
aVMSITE-594
p213
aVMSITE-593
p214
aVMSITE-592
p215
aVMSITE-591
p216
aVMSITE-590
p217
aVMSITE-589
p218
aVMSITE-588
p219
aVMSITE-587
p220
aVMSITE-586
p221
aVMSITE-585
p222
aVMSITE-583
p223
aVMSITE-582
p224
aVMSITE-581
p225
aVMSITE-579
p226
aVMSITE-578
p227
aVMSITE-577
p228
aVMSITE-576
p229
aVMSITE-575
p230
aVMSITE-574
p231
aVMSITE-573
p232
aVMSITE-572
p233
aVMSITE-571
p234
aVMSITE-570
p235
aVMSITE-569
p236
aVMSITE-568
p237
aVMSITE-567
p238
aVMSITE-566
p239
aVMSITE-565
p240
aVMSITE-564
p241
aVMSITE-563
p242
aVMSITE-562
p243
aVMSITE-561
p244
aVMSITE-560
p245
aVMSITE-559
p246
aVMSITE-557
p247
aVMSITE-556
p248
aVMSITE-555
p249
aVMSITE-554
p250
aVMSITE-553
p251
aVMSITE-551
p252
aVMSITE-550
p253
aVMSITE-549
p254
aVMSITE-547
p255
aVMSITE-546
p256
aVMSITE-543
p257
aVMSITE-541
p258
aVMSITE-539
p259
aVMSITE-538
p260
aVMSITE-537
p261
aVMSITE-536
p262
aVMSITE-535
p263
aVMSITE-534
p264
aVMSITE-533
p265
aVMSITE-532
p266
aVMSITE-531
p267
aVMSITE-530
p268
aVMSITE-529
p269
aVMSITE-528
p270
aVMSITE-527
p271
aVMSITE-526
p272
aVMSITE-525
p273
aVMSITE-523
p274
aVMSITE-522
p275
aVMSITE-521
p276
aVMSITE-520
p277
aVMSITE-519
p278
aVMSITE-517
p279
aVMSITE-516
p280
aVMSITE-515
p281
aVMSITE-514
p282
aVMSITE-513
p283
aVMSITE-512
p284
aVMSITE-511
p285
aVMSITE-510
p286
aVMSITE-509
p287
aVMSITE-508
p288
aVMSITE-507
p289
aVMSITE-506
p290
aVMSITE-505
p291
aVMSITE-504
p292
aVMSITE-503
p293
aVMSITE-502
p294
aVMSITE-501
p295
aVMSITE-500
p296
aVMSITE-499
p297
aVMSITE-498
p298
aVMSITE-497
p299
aVMSITE-496
p300
aVMSITE-495
p301
aVMSITE-494
p302
aVMSITE-493
p303
aVMSITE-492
p304
aVMSITE-491
p305
aVMSITE-490
p306
aVMSITE-489
p307
aVMSITE-488
p308
aVMSITE-487
p309
aVMSITE-486
p310
aVMSITE-484
p311
aVMSITE-483
p312
aVMSITE-482
p313
aVMSITE-481
p314
aVMSITE-480
p315
aVMSITE-479
p316
aVMSITE-478
p317
aVMSITE-477
p318
aVMSITE-476
p319
aVMSITE-475
p320
aVMSITE-474
p321
aVMSITE-473
p322
aVMSITE-472
p323
aVMSITE-471
p324
aVMSITE-470
p325
aVMSITE-468
p326
aVMSITE-467
p327
aVMSITE-466
p328
aVMSITE-465
p329
aVMSITE-464
p330
aVMSITE-463
p331
aVMSITE-462
p332
aVMSITE-460
p333
aVMSITE-459
p334
aVMSITE-458
p335
aVMSITE-456
p336
aVMSITE-455
p337
aVMSITE-454
p338
aVMSITE-453
p339
aVMSITE-448
p340
aVMSITE-446
p341
aVMSITE-445
p342
aVMSITE-444
p343
aVMSITE-443
p344
aVMSITE-442
p345
aVMSITE-441
p346
aVMSITE-440
p347
aVMSITE-439
p348
aVMSITE-438
p349
aVMSITE-437
p350
aVMSITE-436
p351
aVMSITE-435
p352
aVMSITE-434
p353
aVMSITE-433
p354
aVMSITE-432
p355
aVMSITE-431
p356
aVMSITE-430
p357
aVMSITE-429
p358
aVMSITE-428
p359
aVMSITE-426
p360
aVMSITE-425
p361
aVMSITE-424
p362
aVMSITE-423
p363
aVMSITE-422
p364
aVMSITE-421
p365
aVMSITE-420
p366
aVMSITE-419
p367
aVMSITE-418
p368
aVMSITE-417
p369
aVMSITE-415
p370
aVMSITE-414
p371
aVMSITE-413
p372
aVMSITE-410
p373
aVMSITE-409
p374
aVMSITE-407
p375
aVMSITE-406
p376
aVMSITE-405
p377
aVMSITE-404
p378
aVMSITE-403
p379
aVMSITE-402
p380
aVMSITE-400
p381
aVMSITE-399
p382
aVMSITE-398
p383
aVMSITE-396
p384
aVMSITE-395
p385
aVMSITE-394
p386
aVMSITE-393
p387
aVMSITE-391
p388
aVMSITE-390
p389
aVMSITE-389
p390
aVMSITE-388
p391
aVMSITE-387
p392
aVMSITE-386
p393
aVMSITE-384
p394
aVMSITE-383
p395
aVMSITE-382
p396
aVMSITE-381
p397
aVMSITE-380
p398
aVMSITE-379
p399
aVMSITE-377
p400
aVMSITE-376
p401
aVMSITE-375
p402
aVMSITE-374
p403
aVMSITE-373
p404
aVMSITE-372
p405
aVMSITE-371
p406
aVMSITE-370
p407
aVMSITE-369
p408
aVMSITE-368
p409
aVMSITE-367
p410
aVMSITE-366
p411
aVMSITE-365
p412
aVMSITE-364
p413
aVMSITE-363
p414
aVMSITE-362
p415
aVMSITE-361
p416
aVMSITE-358
p417
aVMSITE-357
p418
aVMSITE-356
p419
aVMSITE-355
p420
aVMSITE-354
p421
aVMSITE-353
p422
aVMSITE-352
p423
aVMSITE-351
p424
aVMSITE-350
p425
aVMSITE-349
p426
aVMSITE-348
p427
aVMSITE-347
p428
aVMSITE-346
p429
aVMSITE-345
p430
aVMSITE-343
p431
aVMSITE-342
p432
aVMSITE-341
p433
aVMSITE-340
p434
aVMSITE-339
p435
aVMSITE-338
p436
aVMSITE-337
p437
aVMSITE-335
p438
aVMSITE-334
p439
aVMSITE-333
p440
aVMSITE-331
p441
aVMSITE-330
p442
aVMSITE-329
p443
aVMSITE-328
p444
aVMSITE-327
p445
aVMSITE-326
p446
aVMSITE-324
p447
aVMSITE-323
p448
aVMSITE-322
p449
aVMSITE-321
p450
aVMSITE-320
p451
aVMSITE-318
p452
aVMSITE-317
p453
aVMSITE-316
p454
aVMSITE-314
p455
aVMSITE-313
p456
aVMSITE-312
p457
aVMSITE-311
p458
aVMSITE-310
p459
aVMSITE-308
p460
aVMSITE-307
p461
aVMSITE-306
p462
aVMSITE-305
p463
aVMSITE-304
p464
aVMSITE-303
p465
aVMSITE-302
p466
aVMSITE-300
p467
aVMSITE-299
p468
aVMSITE-298
p469
aVMSITE-297
p470
aVMSITE-295
p471
aVMSITE-294
p472
aVMSITE-293
p473
aVMSITE-292
p474
aVMSITE-290
p475
aVMSITE-289
p476
aVMSITE-288
p477
aVMSITE-287
p478
aVMSITE-286
p479
aVMSITE-285
p480
aVMSITE-283
p481
aVMSITE-281
p482
aVMSITE-280
p483
aVMSITE-277
p484
aVMSITE-276
p485
aVMSITE-275
p486
aVMSITE-274
p487
aVMSITE-273
p488
aVMSITE-272
p489
aVMSITE-271
p490
aVMSITE-270
p491
aVMSITE-269
p492
aVMSITE-268
p493
aVMSITE-267
p494
aVMSITE-266
p495
aVMSITE-265
p496
aVMSITE-264
p497
aVMSITE-263
p498
aVMSITE-262
p499
aVMSITE-260
p500
aVMSITE-259
p501
aVMSITE-258
p502
aVMSITE-257
p503
aVMSITE-256
p504
aVMSITE-255
p505
aVMSITE-254
p506
aVMSITE-253
p507
aVMSITE-252
p508
aVMSITE-251
p509
aVMSITE-250
p510
aVMSITE-249
p511
aVMSITE-248
p512
aVMSITE-247
p513
aVMSITE-246
p514
aVMSITE-245
p515
aVMSITE-244
p516
aVMSITE-243
p517
aVMSITE-242
p518
aVMSITE-241
p519
aVMSITE-240
p520
aVMSITE-239
p521
aVMSITE-238
p522
aVMSITE-237
p523
aVMSITE-236
p524
aVMSITE-235
p525
aVMSITE-234
p526
aVMSITE-233
p527
aVMSITE-232
p528
aVMSITE-231
p529
aVMSITE-229
p530
aVMSITE-228
p531
aVMSITE-227
p532
aVMSITE-226
p533
aVMSITE-225
p534
aVMSITE-224
p535
aVMSITE-223
p536
aVMSITE-222
p537
aVMSITE-221
p538
aVMSITE-220
p539
aVMSITE-219
p540
aVMSITE-218
p541
aVMSITE-217
p542
aVMSITE-215
p543
aVMSITE-213
p544
aVMSITE-212
p545
aVMSITE-211
p546
aVMSITE-210
p547
aVMSITE-209
p548
aVMSITE-208
p549
aVMSITE-207
p550
aVMSITE-206
p551
aVMSITE-205
p552
aVMSITE-204
p553
aVMSITE-203
p554
aVMSITE-202
p555
aVMSITE-201
p556
aVMSITE-200
p557
aVMSITE-199
p558
aVMSITE-197
p559
aVMSITE-196
p560
aVMSITE-195
p561
aVMSITE-194
p562
aVMSITE-192
p563
aVMSITE-191
p564
aVMSITE-190
p565
aVMSITE-189
p566
aVMSITE-187
p567
aVMSITE-186
p568
aVMSITE-185
p569
aVMSITE-183
p570
aVMSITE-182
p571
aVMSITE-180
p572
aVMSITE-179
p573
aVMSITE-177
p574
aVMSITE-176
p575
aVMSITE-175
p576
aVMSITE-174
p577
aVMSITE-173
p578
aVMSITE-172
p579
aVMSITE-171
p580
aVMSITE-170
p581
aVMSITE-169
p582
aVMSITE-168
p583
aVMSITE-167
p584
aVMSITE-166
p585
aVMSITE-165
p586
aVMSITE-164
p587
aVMSITE-163
p588
aVMSITE-162
p589
aVMSITE-160
p590
aVMSITE-159
p591
aVMSITE-158
p592
aVMSITE-157
p593
aVMSITE-156
p594
aVMSITE-155
p595
aVMSITE-154
p596
aVMSITE-153
p597
aVMSITE-151
p598
aVMSITE-150
p599
aVMSITE-149
p600
aVMSITE-147
p601
aVMSITE-146
p602
aVMSITE-145
p603
aVMSITE-143
p604
aVMSITE-142
p605
aVMSITE-141
p606
aVMSITE-138
p607
aVMSITE-137
p608
aVMSITE-136
p609
aVMSITE-135
p610
aVMSITE-134
p611
aVMSITE-133
p612
aVMSITE-132
p613
aVMSITE-131
p614
aVMSITE-130
p615
aVMSITE-129
p616
aVMSITE-128
p617
aVMSITE-127
p618
aVMSITE-126
p619
aVMSITE-125
p620
aVMSITE-124
p621
aVMSITE-123
p622
aVMSITE-122
p623
aVMSITE-121
p624
aVMSITE-120
p625
aVMSITE-119
p626
aVMSITE-117
p627
aVMSITE-116
p628
aVMSITE-115
p629
aVMSITE-114
p630
aVMSITE-113
p631
aVMSITE-111
p632
aVMSITE-110
p633
aVMSITE-109
p634
aVMSITE-108
p635
aVMSITE-106
p636
aVMSITE-105
p637
aVMSITE-104
p638
aVMSITE-103
p639
aVMSITE-102
p640
aVMSITE-101
p641
aVMSITE-100
p642
aVMSITE-99
p643
aVMSITE-98
p644
aVMSITE-97
p645
aVMSITE-96
p646
aVMSITE-95
p647
aVMSITE-94
p648
aVMSITE-93
p649
aVMSITE-92
p650
aVMSITE-91
p651
aVMSITE-88
p652
aVMSITE-87
p653
aVMSITE-86
p654
aVMSITE-85
p655
aVMSITE-84
p656
aVMSITE-83
p657
aVMSITE-82
p658
aVMSITE-81
p659
aVMSITE-80
p660
aVMSITE-79
p661
aVMSITE-78
p662
aVMSITE-77
p663
aVMSITE-75
p664
aVMSITE-74
p665
aVMSITE-73
p666
aVMSITE-72
p667
aVMSITE-71
p668
aVMSITE-68
p669
aVMSITE-66
p670
aVMSITE-65
p671
aVMSITE-64
p672
aVMSITE-63
p673
aVMSITE-62
p674
aVMSITE-61
p675
aVMSITE-60
p676
aVMSITE-59
p677
aVMSITE-58
p678
aVMSITE-57
p679
aVMSITE-56
p680
aVMSITE-55
p681
aVMSITE-54
p682
aVMSITE-53
p683
aVMSITE-52
p684
aVMSITE-51
p685
aVMSITE-50
p686
aVMSITE-49
p687
aVMSITE-48
p688
aVMSITE-47
p689
aVMSITE-46
p690
aVMSITE-45
p691
aVMSITE-44
p692
aVMSITE-43
p693
aVMSITE-42
p694
aVMSITE-41
p695
aVMSITE-40
p696
aVMSITE-39
p697
aVMSITE-37
p698
aVMSITE-36
p699
aVMSITE-35
p700
aVMSITE-33
p701
aVMSITE-31
p702
aVMSITE-30
p703
aVMSITE-29
p704
aVMSITE-28
p705
aVMSITE-27
p706
aVMSITE-26
p707
aVMSITE-25
p708
aVMSITE-24
p709
aVMSITE-23
p710
aVMSITE-22
p711
aVMSITE-21
p712
aVMSITE-20
p713
aVMSITE-19
p714
aVMSITE-18
p715
aVMSITE-17
p716
aVMSITE-16
p717
aVMSITE-15
p718
aVMSITE-14
p719
aVMSITE-13
p720
aVMSITE-12
p721
aVMSITE-10
p722
aVMSITE-9
p723
aVMSITE-8
p724
aVMSITE-7
p725
aVMSITE-6
p726
aVMSITE-5
p727
aVMSITE-4
p728
aVMSITE-3
p729
aVMSITE-2
p730
aVMSITE-1
p731
a.