(lp0
VMSOURCES-117
p1
aVMSOURCES-116
p2
aVMSOURCES-115
p3
aVMSOURCES-114
p4
aVMSOURCES-113
p5
aVMSOURCES-112
p6
aVMSOURCES-111
p7
aVMSOURCES-110
p8
aVMSOURCES-109
p9
aVMSOURCES-108
p10
aVMSOURCES-107
p11
aVMSOURCES-106
p12
aVMSOURCES-105
p13
aVMSOURCES-104
p14
aVMSOURCES-103
p15
aVMSOURCES-102
p16
aVMSOURCES-101
p17
aVMSOURCES-100
p18
aVMSOURCES-98
p19
aVMSOURCES-97
p20
aVMSOURCES-96
p21
aVMSOURCES-95
p22
aVMSOURCES-94
p23
aVMSOURCES-93
p24
aVMSOURCES-92
p25
aVMSOURCES-91
p26
aVMSOURCES-90
p27
aVMSOURCES-89
p28
aVMSOURCES-88
p29
aVMSOURCES-87
p30
aVMSOURCES-86
p31
aVMSOURCES-85
p32
aVMSOURCES-84
p33
aVMSOURCES-83
p34
aVMSOURCES-82
p35
aVMSOURCES-81
p36
aVMSOURCES-80
p37
aVMSOURCES-79
p38
aVMSOURCES-78
p39
aVMSOURCES-77
p40
aVMSOURCES-76
p41
aVMSOURCES-75
p42
aVMSOURCES-74
p43
aVMSOURCES-73
p44
aVMSOURCES-72
p45
aVMSOURCES-71
p46
aVMSOURCES-70
p47
aVMSOURCES-69
p48
aVMSOURCES-68
p49
aVMSOURCES-66
p50
aVMSOURCES-65
p51
aVMSOURCES-64
p52
aVMSOURCES-63
p53
aVMSOURCES-62
p54
aVMSOURCES-61
p55
aVMSOURCES-60
p56
aVMSOURCES-59
p57
aVMSOURCES-58
p58
aVMSOURCES-57
p59
aVMSOURCES-56
p60
aVMSOURCES-55
p61
aVMSOURCES-54
p62
aVMSOURCES-53
p63
aVMSOURCES-52
p64
aVMSOURCES-51
p65
aVMSOURCES-50
p66
aVMSOURCES-48
p67
aVMSOURCES-47
p68
aVMSOURCES-46
p69
aVMSOURCES-45
p70
aVMSOURCES-44
p71
aVMSOURCES-43
p72
aVMSOURCES-42
p73
aVMSOURCES-41
p74
aVMSOURCES-40
p75
aVMSOURCES-39
p76
aVMSOURCES-38
p77
aVMSOURCES-37
p78
aVMSOURCES-36
p79
aVMSOURCES-34
p80
aVMSOURCES-33
p81
aVMSOURCES-32
p82
aVMSOURCES-31
p83
aVMSOURCES-30
p84
aVMSOURCES-29
p85
aVMSOURCES-28
p86
aVMSOURCES-27
p87
aVMSOURCES-26
p88
aVMSOURCES-25
p89
aVMSOURCES-24
p90
aVMSOURCES-23
p91
aVMSOURCES-22
p92
aVMSOURCES-21
p93
aVMSOURCES-20
p94
aVMSOURCES-19
p95
aVMSOURCES-18
p96
aVMSOURCES-17
p97
aVMSOURCES-16
p98
aVMSOURCES-15
p99
aVMSOURCES-14
p100
aVMSOURCES-13
p101
aVMSOURCES-12
p102
aVMSOURCES-11
p103
aVMSOURCES-10
p104
aVMSOURCES-9
p105
aVMSOURCES-8
p106
aVMSOURCES-6
p107
aVMSOURCES-5
p108
aVMSOURCES-4
p109
aVMSOURCES-3
p110
aVMSOURCES-2
p111
aVMSOURCES-1
p112
a.