(lp0
VMSTAGE-21
p1
aVMSTAGE-20
p2
aVMSTAGE-19
p3
aVMSTAGE-18
p4
aVMSTAGE-17
p5
aVMSTAGE-16
p6
aVMSTAGE-15
p7
aVMSTAGE-14
p8
aVMSTAGE-13
p9
aVMSTAGE-11
p10
aVMSTAGE-10
p11
aVMSTAGE-9
p12
aVMSTAGE-8
p13
aVMSTAGE-7
p14
aVMSTAGE-6
p15
aVMSTAGE-5
p16
aVMSTAGE-4
p17
aVMSTAGE-3
p18
aVMSTAGE-2
p19
aVMSTAGE-1
p20
a.