(lp0
VMTOOLCHAINS-24
p1
aVMTOOLCHAINS-23
p2
aVMTOOLCHAINS-22
p3
aVMTOOLCHAINS-21
p4
aVMTOOLCHAINS-20
p5
aVMTOOLCHAINS-19
p6
aVMTOOLCHAINS-18
p7
aVMTOOLCHAINS-17
p8
aVMTOOLCHAINS-16
p9
aVMTOOLCHAINS-15
p10
aVMTOOLCHAINS-14
p11
aVMTOOLCHAINS-13
p12
aVMTOOLCHAINS-12
p13
aVMTOOLCHAINS-11
p14
aVMTOOLCHAINS-10
p15
aVMTOOLCHAINS-9
p16
aVMTOOLCHAINS-8
p17
aVMTOOLCHAINS-7
p18
aVMTOOLCHAINS-6
p19
aVMTOOLCHAINS-5
p20
aVMTOOLCHAINS-4
p21
aVMTOOLCHAINS-3
p22
aVMTOOLCHAINS-2
p23
aVMTOOLCHAINS-1
p24
a.