(lp0
VMVERIFIER-31
p1
aVMVERIFIER-30
p2
aVMVERIFIER-28
p3
aVMVERIFIER-27
p4
aVMVERIFIER-26
p5
aVMVERIFIER-25
p6
aVMVERIFIER-24
p7
aVMVERIFIER-23
p8
aVMVERIFIER-22
p9
aVMVERIFIER-21
p10
aVMVERIFIER-20
p11
aVMVERIFIER-19
p12
aVMVERIFIER-18
p13
aVMVERIFIER-17
p14
aVMVERIFIER-16
p15
aVMVERIFIER-15
p16
aVMVERIFIER-13
p17
aVMVERIFIER-12
p18
aVMVERIFIER-11
p19
aVMVERIFIER-10
p20
aVMVERIFIER-9
p21
aVMVERIFIER-8
p22
aVMVERIFIER-4
p23
aVMVERIFIER-3
p24
aVMVERIFIER-2
p25
aVMVERIFIER-1
p26
a.