(lp0
VMWAR-419
p1
aVMWAR-418
p2
aVMWAR-417
p3
aVMWAR-416
p4
aVMWAR-415
p5
aVMWAR-414
p6
aVMWAR-413
p7
aVMWAR-412
p8
aVMWAR-411
p9
aVMWAR-410
p10
aVMWAR-409
p11
aVMWAR-408
p12
aVMWAR-407
p13
aVMWAR-406
p14
aVMWAR-405
p15
aVMWAR-404
p16
aVMWAR-403
p17
aVMWAR-402
p18
aVMWAR-401
p19
aVMWAR-400
p20
aVMWAR-399
p21
aVMWAR-398
p22
aVMWAR-397
p23
aVMWAR-396
p24
aVMWAR-395
p25
aVMWAR-394
p26
aVMWAR-393
p27
aVMWAR-392
p28
aVMWAR-391
p29
aVMWAR-389
p30
aVMWAR-388
p31
aVMWAR-387
p32
aVMWAR-385
p33
aVMWAR-384
p34
aVMWAR-383
p35
aVMWAR-382
p36
aVMWAR-381
p37
aVMWAR-380
p38
aVMWAR-379
p39
aVMWAR-378
p40
aVMWAR-377
p41
aVMWAR-376
p42
aVMWAR-375
p43
aVMWAR-373
p44
aVMWAR-372
p45
aVMWAR-371
p46
aVMWAR-370
p47
aVMWAR-369
p48
aVMWAR-368
p49
aVMWAR-367
p50
aVMWAR-366
p51
aVMWAR-365
p52
aVMWAR-364
p53
aVMWAR-363
p54
aVMWAR-362
p55
aVMWAR-361
p56
aVMWAR-360
p57
aVMWAR-359
p58
aVMWAR-358
p59
aVMWAR-357
p60
aVMWAR-356
p61
aVMWAR-355
p62
aVMWAR-354
p63
aVMWAR-353
p64
aVMWAR-352
p65
aVMWAR-351
p66
aVMWAR-350
p67
aVMWAR-349
p68
aVMWAR-348
p69
aVMWAR-347
p70
aVMWAR-346
p71
aVMWAR-345
p72
aVMWAR-344
p73
aVMWAR-343
p74
aVMWAR-342
p75
aVMWAR-341
p76
aVMWAR-340
p77
aVMWAR-339
p78
aVMWAR-338
p79
aVMWAR-337
p80
aVMWAR-336
p81
aVMWAR-335
p82
aVMWAR-334
p83
aVMWAR-333
p84
aVMWAR-332
p85
aVMWAR-331
p86
aVMWAR-330
p87
aVMWAR-329
p88
aVMWAR-328
p89
aVMWAR-326
p90
aVMWAR-325
p91
aVMWAR-324
p92
aVMWAR-323
p93
aVMWAR-322
p94
aVMWAR-321
p95
aVMWAR-320
p96
aVMWAR-319
p97
aVMWAR-318
p98
aVMWAR-317
p99
aVMWAR-316
p100
aVMWAR-315
p101
aVMWAR-314
p102
aVMWAR-313
p103
aVMWAR-312
p104
aVMWAR-311
p105
aVMWAR-310
p106
aVMWAR-309
p107
aVMWAR-308
p108
aVMWAR-307
p109
aVMWAR-306
p110
aVMWAR-305
p111
aVMWAR-304
p112
aVMWAR-303
p113
aVMWAR-302
p114
aVMWAR-301
p115
aVMWAR-300
p116
aVMWAR-299
p117
aVMWAR-298
p118
aVMWAR-297
p119
aVMWAR-296
p120
aVMWAR-295
p121
aVMWAR-294
p122
aVMWAR-293
p123
aVMWAR-292
p124
aVMWAR-291
p125
aVMWAR-287
p126
aVMWAR-286
p127
aVMWAR-285
p128
aVMWAR-284
p129
aVMWAR-283
p130
aVMWAR-282
p131
aVMWAR-281
p132
aVMWAR-280
p133
aVMWAR-279
p134
aVMWAR-278
p135
aVMWAR-277
p136
aVMWAR-276
p137
aVMWAR-275
p138
aVMWAR-274
p139
aVMWAR-273
p140
aVMWAR-272
p141
aVMWAR-271
p142
aVMWAR-270
p143
aVMWAR-269
p144
aVMWAR-268
p145
aVMWAR-267
p146
aVMWAR-266
p147
aVMWAR-265
p148
aVMWAR-264
p149
aVMWAR-263
p150
aVMWAR-262
p151
aVMWAR-261
p152
aVMWAR-260
p153
aVMWAR-259
p154
aVMWAR-258
p155
aVMWAR-257
p156
aVMWAR-256
p157
aVMWAR-255
p158
aVMWAR-254
p159
aVMWAR-253
p160
aVMWAR-252
p161
aVMWAR-251
p162
aVMWAR-250
p163
aVMWAR-249
p164
aVMWAR-248
p165
aVMWAR-247
p166
aVMWAR-246
p167
aVMWAR-245
p168
aVMWAR-244
p169
aVMWAR-243
p170
aVMWAR-242
p171
aVMWAR-241
p172
aVMWAR-240
p173
aVMWAR-239
p174
aVMWAR-238
p175
aVMWAR-237
p176
aVMWAR-236
p177
aVMWAR-235
p178
aVMWAR-234
p179
aVMWAR-233
p180
aVMWAR-232
p181
aVMWAR-231
p182
aVMWAR-230
p183
aVMWAR-229
p184
aVMWAR-228
p185
aVMWAR-227
p186
aVMWAR-226
p187
aVMWAR-225
p188
aVMWAR-224
p189
aVMWAR-223
p190
aVMWAR-222
p191
aVMWAR-221
p192
aVMWAR-220
p193
aVMWAR-219
p194
aVMWAR-218
p195
aVMWAR-216
p196
aVMWAR-215
p197
aVMWAR-214
p198
aVMWAR-213
p199
aVMWAR-212
p200
aVMWAR-211
p201
aVMWAR-210
p202
aVMWAR-209
p203
aVMWAR-205
p204
aVMWAR-204
p205
aVMWAR-203
p206
aVMWAR-202
p207
aVMWAR-201
p208
aVMWAR-200
p209
aVMWAR-199
p210
aVMWAR-198
p211
aVMWAR-197
p212
aVMWAR-196
p213
aVMWAR-195
p214
aVMWAR-194
p215
aVMWAR-193
p216
aVMWAR-192
p217
aVMWAR-191
p218
aVMWAR-190
p219
aVMWAR-189
p220
aVMWAR-188
p221
aVMWAR-187
p222
aVMWAR-186
p223
aVMWAR-185
p224
aVMWAR-184
p225
aVMWAR-183
p226
aVMWAR-182
p227
aVMWAR-181
p228
aVMWAR-180
p229
aVMWAR-179
p230
aVMWAR-178
p231
aVMWAR-177
p232
aVMWAR-176
p233
aVMWAR-175
p234
aVMWAR-174
p235
aVMWAR-173
p236
aVMWAR-172
p237
aVMWAR-171
p238
aVMWAR-170
p239
aVMWAR-169
p240
aVMWAR-168
p241
aVMWAR-167
p242
aVMWAR-166
p243
aVMWAR-165
p244
aVMWAR-164
p245
aVMWAR-163
p246
aVMWAR-162
p247
aVMWAR-161
p248
aVMWAR-160
p249
aVMWAR-159
p250
aVMWAR-158
p251
aVMWAR-157
p252
aVMWAR-156
p253
aVMWAR-155
p254
aVMWAR-154
p255
aVMWAR-153
p256
aVMWAR-152
p257
aVMWAR-151
p258
aVMWAR-150
p259
aVMWAR-149
p260
aVMWAR-148
p261
aVMWAR-147
p262
aVMWAR-146
p263
aVMWAR-145
p264
aVMWAR-144
p265
aVMWAR-143
p266
aVMWAR-142
p267
aVMWAR-141
p268
aVMWAR-140
p269
aVMWAR-139
p270
aVMWAR-138
p271
aVMWAR-137
p272
aVMWAR-136
p273
aVMWAR-135
p274
aVMWAR-134
p275
aVMWAR-133
p276
aVMWAR-132
p277
aVMWAR-131
p278
aVMWAR-130
p279
aVMWAR-129
p280
aVMWAR-128
p281
aVMWAR-127
p282
aVMWAR-126
p283
aVMWAR-125
p284
aVMWAR-124
p285
aVMWAR-123
p286
aVMWAR-122
p287
aVMWAR-121
p288
aVMWAR-120
p289
aVMWAR-119
p290
aVMWAR-118
p291
aVMWAR-117
p292
aVMWAR-116
p293
aVMWAR-115
p294
aVMWAR-113
p295
aVMWAR-112
p296
aVMWAR-111
p297
aVMWAR-110
p298
aVMWAR-109
p299
aVMWAR-108
p300
aVMWAR-107
p301
aVMWAR-106
p302
aVMWAR-105
p303
aVMWAR-104
p304
aVMWAR-103
p305
aVMWAR-102
p306
aVMWAR-101
p307
aVMWAR-100
p308
aVMWAR-99
p309
aVMWAR-98
p310
aVMWAR-97
p311
aVMWAR-96
p312
aVMWAR-95
p313
aVMWAR-94
p314
aVMWAR-93
p315
aVMWAR-92
p316
aVMWAR-91
p317
aVMWAR-90
p318
aVMWAR-89
p319
aVMWAR-88
p320
aVMWAR-87
p321
aVMWAR-86
p322
aVMWAR-85
p323
aVMWAR-84
p324
aVMWAR-83
p325
aVMWAR-82
p326
aVMWAR-81
p327
aVMWAR-80
p328
aVMWAR-79
p329
aVMWAR-78
p330
aVMWAR-77
p331
aVMWAR-76
p332
aVMWAR-75
p333
aVMWAR-73
p334
aVMWAR-72
p335
aVMWAR-71
p336
aVMWAR-70
p337
aVMWAR-69
p338
aVMWAR-68
p339
aVMWAR-67
p340
aVMWAR-66
p341
aVMWAR-65
p342
aVMWAR-64
p343
aVMWAR-63
p344
aVMWAR-62
p345
aVMWAR-61
p346
aVMWAR-60
p347
aVMWAR-59
p348
aVMWAR-58
p349
aVMWAR-57
p350
aVMWAR-56
p351
aVMWAR-55
p352
aVMWAR-54
p353
aVMWAR-53
p354
aVMWAR-52
p355
aVMWAR-51
p356
aVMWAR-50
p357
aVMWAR-49
p358
aVMWAR-48
p359
aVMWAR-47
p360
aVMWAR-46
p361
aVMWAR-45
p362
aVMWAR-44
p363
aVMWAR-43
p364
aVMWAR-41
p365
aVMWAR-40
p366
aVMWAR-39
p367
aVMWAR-38
p368
aVMWAR-37
p369
aVMWAR-36
p370
aVMWAR-35
p371
aVMWAR-34
p372
aVMWAR-33
p373
aVMWAR-32
p374
aVMWAR-31
p375
aVMWAR-30
p376
aVMWAR-29
p377
aVMWAR-28
p378
aVMWAR-27
p379
aVMWAR-26
p380
aVMWAR-25
p381
aVMWAR-24
p382
aVMWAR-23
p383
aVMWAR-22
p384
aVMWAR-21
p385
aVMWAR-20
p386
aVMWAR-19
p387
aVMWAR-18
p388
aVMWAR-17
p389
aVMWAR-16
p390
aVMWAR-15
p391
aVMWAR-14
p392
aVMWAR-13
p393
aVMWAR-12
p394
aVMWAR-11
p395
aVMWAR-10
p396
aVMWAR-9
p397
aVMWAR-8
p398
aVMWAR-7
p399
aVMWAR-6
p400
aVMWAR-5
p401
aVMWAR-4
p402
aVMWAR-3
p403
aVMWAR-2
p404
aVMWAR-1
p405
a.