(lp0
VMYFACES-4248
p1
aVMYFACES-4247
p2
aVMYFACES-4246
p3
aVMYFACES-4245
p4
aVMYFACES-4244
p5
aVMYFACES-4243
p6
aVMYFACES-4242
p7
aVMYFACES-4241
p8
aVMYFACES-4240
p9
aVMYFACES-4239
p10
aVMYFACES-4238
p11
aVMYFACES-4237
p12
aVMYFACES-4236
p13
aVMYFACES-4235
p14
aVMYFACES-4234
p15
aVMYFACES-4233
p16
aVMYFACES-4232
p17
aVMYFACES-4231
p18
aVMYFACES-4230
p19
aVMYFACES-4229
p20
aVMYFACES-4228
p21
aVMYFACES-4227
p22
aVMYFACES-4226
p23
aVMYFACES-4225
p24
aVMYFACES-4224
p25
aVMYFACES-4223
p26
aVMYFACES-4222
p27
aVMYFACES-4221
p28
aVMYFACES-4220
p29
aVMYFACES-4219
p30
aVMYFACES-4218
p31
aVMYFACES-4217
p32
aVMYFACES-4216
p33
aVMYFACES-4215
p34
aVMYFACES-4214
p35
aVMYFACES-4213
p36
aVMYFACES-4212
p37
aVMYFACES-4211
p38
aVMYFACES-4210
p39
aVMYFACES-4209
p40
aVMYFACES-4208
p41
aVMYFACES-4207
p42
aVMYFACES-4206
p43
aVMYFACES-4205
p44
aVMYFACES-4204
p45
aVMYFACES-4203
p46
aVMYFACES-4202
p47
aVMYFACES-4201
p48
aVMYFACES-4200
p49
aVMYFACES-4199
p50
aVMYFACES-4198
p51
aVMYFACES-4197
p52
aVMYFACES-4196
p53
aVMYFACES-4195
p54
aVMYFACES-4194
p55
aVMYFACES-4193
p56
aVMYFACES-4192
p57
aVMYFACES-4191
p58
aVMYFACES-4190
p59
aVMYFACES-4189
p60
aVMYFACES-4188
p61
aVMYFACES-4187
p62
aVMYFACES-4186
p63
aVMYFACES-4185
p64
aVMYFACES-4184
p65
aVMYFACES-4183
p66
aVMYFACES-4182
p67
aVMYFACES-4181
p68
aVMYFACES-4180
p69
aVMYFACES-4179
p70
aVMYFACES-4178
p71
aVMYFACES-4177
p72
aVMYFACES-4176
p73
aVMYFACES-4175
p74
aVMYFACES-4174
p75
aVMYFACES-4173
p76
aVMYFACES-4172
p77
aVMYFACES-4171
p78
aVMYFACES-4170
p79
aVMYFACES-4169
p80
aVMYFACES-4168
p81
aVMYFACES-4167
p82
aVMYFACES-4166
p83
aVMYFACES-4165
p84
aVMYFACES-4164
p85
aVMYFACES-4163
p86
aVMYFACES-4162
p87
aVMYFACES-4161
p88
aVMYFACES-4160
p89
aVMYFACES-4159
p90
aVMYFACES-4158
p91
aVMYFACES-4157
p92
aVMYFACES-4156
p93
aVMYFACES-4155
p94
aVMYFACES-4154
p95
aVMYFACES-4153
p96
aVMYFACES-4152
p97
aVMYFACES-4151
p98
aVMYFACES-4150
p99
aVMYFACES-4149
p100
aVMYFACES-4148
p101
aVMYFACES-4147
p102
aVMYFACES-4146
p103
aVMYFACES-4145
p104
aVMYFACES-4144
p105
aVMYFACES-4143
p106
aVMYFACES-4142
p107
aVMYFACES-4141
p108
aVMYFACES-4140
p109
aVMYFACES-4139
p110
aVMYFACES-4138
p111
aVMYFACES-4137
p112
aVMYFACES-4136
p113
aVMYFACES-4135
p114
aVMYFACES-4134
p115
aVMYFACES-4133
p116
aVMYFACES-4132
p117
aVMYFACES-4131
p118
aVMYFACES-4130
p119
aVMYFACES-4129
p120
aVMYFACES-4128
p121
aVMYFACES-4127
p122
aVMYFACES-4126
p123
aVMYFACES-4125
p124
aVMYFACES-4124
p125
aVMYFACES-4123
p126
aVMYFACES-4122
p127
aVMYFACES-4121
p128
aVMYFACES-4120
p129
aVMYFACES-4119
p130
aVMYFACES-4118
p131
aVMYFACES-4117
p132
aVMYFACES-4116
p133
aVMYFACES-4115
p134
aVMYFACES-4114
p135
aVMYFACES-4113
p136
aVMYFACES-4112
p137
aVMYFACES-4111
p138
aVMYFACES-4110
p139
aVMYFACES-4109
p140
aVMYFACES-4108
p141
aVMYFACES-4107
p142
aVMYFACES-4106
p143
aVMYFACES-4105
p144
aVMYFACES-4104
p145
aVMYFACES-4103
p146
aVMYFACES-4102
p147
aVMYFACES-4101
p148
aVMYFACES-4100
p149
aVMYFACES-4099
p150
aVMYFACES-4098
p151
aVMYFACES-4097
p152
aVMYFACES-4096
p153
aVMYFACES-4095
p154
aVMYFACES-4094
p155
aVMYFACES-4093
p156
aVMYFACES-4092
p157
aVMYFACES-4091
p158
aVMYFACES-4090
p159
aVMYFACES-4089
p160
aVMYFACES-4088
p161
aVMYFACES-4087
p162
aVMYFACES-4086
p163
aVMYFACES-4085
p164
aVMYFACES-4084
p165
aVMYFACES-4083
p166
aVMYFACES-4082
p167
aVMYFACES-4081
p168
aVMYFACES-4080
p169
aVMYFACES-4079
p170
aVMYFACES-4078
p171
aVMYFACES-4077
p172
aVMYFACES-4076
p173
aVMYFACES-4075
p174
aVMYFACES-4074
p175
aVMYFACES-4073
p176
aVMYFACES-4072
p177
aVMYFACES-4071
p178
aVMYFACES-4070
p179
aVMYFACES-4069
p180
aVMYFACES-4068
p181
aVMYFACES-4067
p182
aVMYFACES-4066
p183
aVMYFACES-4065
p184
aVMYFACES-4064
p185
aVMYFACES-4063
p186
aVMYFACES-4062
p187
aVMYFACES-4061
p188
aVMYFACES-4060
p189
aVMYFACES-4059
p190
aVMYFACES-4058
p191
aVMYFACES-4057
p192
aVMYFACES-4056
p193
aVMYFACES-4055
p194
aVMYFACES-4054
p195
aVMYFACES-4053
p196
aVMYFACES-4052
p197
aVMYFACES-4051
p198
aVMYFACES-4050
p199
aVMYFACES-4049
p200
aVMYFACES-4048
p201
aVMYFACES-4047
p202
aVMYFACES-4046
p203
aVMYFACES-4045
p204
aVMYFACES-4044
p205
aVMYFACES-4043
p206
aVMYFACES-4042
p207
aVMYFACES-4041
p208
aVMYFACES-4040
p209
aVMYFACES-4039
p210
aVMYFACES-4038
p211
aVMYFACES-4037
p212
aVMYFACES-4036
p213
aVMYFACES-4035
p214
aVMYFACES-4034
p215
aVMYFACES-4033
p216
aVMYFACES-4032
p217
aVMYFACES-4031
p218
aVMYFACES-4030
p219
aVMYFACES-4029
p220
aVMYFACES-4028
p221
aVMYFACES-4027
p222
aVMYFACES-4026
p223
aVMYFACES-4025
p224
aVMYFACES-4024
p225
aVMYFACES-4023
p226
aVMYFACES-4022
p227
aVMYFACES-4021
p228
aVMYFACES-4020
p229
aVMYFACES-4019
p230
aVMYFACES-4018
p231
aVMYFACES-4017
p232
aVMYFACES-4016
p233
aVMYFACES-4015
p234
aVMYFACES-4014
p235
aVMYFACES-4013
p236
aVMYFACES-4012
p237
aVMYFACES-4011
p238
aVMYFACES-4010
p239
aVMYFACES-4009
p240
aVMYFACES-4008
p241
aVMYFACES-4007
p242
aVMYFACES-4006
p243
aVMYFACES-4005
p244
aVMYFACES-4004
p245
aVMYFACES-4003
p246
aVMYFACES-4002
p247
aVMYFACES-4001
p248
aVMYFACES-4000
p249
aVMYFACES-3999
p250
aVMYFACES-3998
p251
aVMYFACES-3997
p252
aVMYFACES-3996
p253
aVMYFACES-3995
p254
aVMYFACES-3993
p255
aVMYFACES-3992
p256
aVMYFACES-3991
p257
aVMYFACES-3990
p258
aVMYFACES-3989
p259
aVMYFACES-3988
p260
aVMYFACES-3987
p261
aVMYFACES-3986
p262
aVMYFACES-3985
p263
aVMYFACES-3984
p264
aVMYFACES-3983
p265
aVMYFACES-3982
p266
aVMYFACES-3981
p267
aVMYFACES-3980
p268
aVMYFACES-3979
p269
aVMYFACES-3978
p270
aVMYFACES-3977
p271
aVMYFACES-3976
p272
aVMYFACES-3975
p273
aVMYFACES-3974
p274
aVMYFACES-3973
p275
aVMYFACES-3972
p276
aVMYFACES-3971
p277
aVMYFACES-3970
p278
aVMYFACES-3969
p279
aVMYFACES-3968
p280
aVMYFACES-3967
p281
aVMYFACES-3966
p282
aVMYFACES-3965
p283
aVMYFACES-3964
p284
aVMYFACES-3962
p285
aVMYFACES-3961
p286
aVMYFACES-3960
p287
aVMYFACES-3959
p288
aVMYFACES-3958
p289
aVMYFACES-3957
p290
aVMYFACES-3956
p291
aVMYFACES-3955
p292
aVMYFACES-3954
p293
aVMYFACES-3953
p294
aVMYFACES-3952
p295
aVMYFACES-3951
p296
aVMYFACES-3950
p297
aVMYFACES-3949
p298
aVMYFACES-3948
p299
aVMYFACES-3947
p300
aVMYFACES-3946
p301
aVMYFACES-3945
p302
aVMYFACES-3944
p303
aVMYFACES-3943
p304
aVMYFACES-3942
p305
aVMYFACES-3941
p306
aVMYFACES-3940
p307
aVMYFACES-3939
p308
aVMYFACES-3938
p309
aVMYFACES-3937
p310
aVMYFACES-3936
p311
aVMYFACES-3935
p312
aVMYFACES-3934
p313
aVMYFACES-3933
p314
aVMYFACES-3932
p315
aVMYFACES-3931
p316
aVMYFACES-3930
p317
aVMYFACES-3929
p318
aVMYFACES-3928
p319
aVMYFACES-3927
p320
aVMYFACES-3926
p321
aVMYFACES-3925
p322
aVMYFACES-3924
p323
aVMYFACES-3923
p324
aVMYFACES-3922
p325
aVMYFACES-3921
p326
aVMYFACES-3920
p327
aVMYFACES-3919
p328
aVMYFACES-3918
p329
aVMYFACES-3917
p330
aVMYFACES-3916
p331
aVMYFACES-3915
p332
aVMYFACES-3914
p333
aVMYFACES-3913
p334
aVMYFACES-3912
p335
aVMYFACES-3911
p336
aVMYFACES-3910
p337
aVMYFACES-3909
p338
aVMYFACES-3908
p339
aVMYFACES-3907
p340
aVMYFACES-3906
p341
aVMYFACES-3905
p342
aVMYFACES-3904
p343
aVMYFACES-3903
p344
aVMYFACES-3902
p345
aVMYFACES-3901
p346
aVMYFACES-3900
p347
aVMYFACES-3899
p348
aVMYFACES-3898
p349
aVMYFACES-3897
p350
aVMYFACES-3896
p351
aVMYFACES-3895
p352
aVMYFACES-3894
p353
aVMYFACES-3893
p354
aVMYFACES-3892
p355
aVMYFACES-3891
p356
aVMYFACES-3890
p357
aVMYFACES-3889
p358
aVMYFACES-3888
p359
aVMYFACES-3887
p360
aVMYFACES-3886
p361
aVMYFACES-3885
p362
aVMYFACES-3884
p363
aVMYFACES-3883
p364
aVMYFACES-3882
p365
aVMYFACES-3881
p366
aVMYFACES-3880
p367
aVMYFACES-3879
p368
aVMYFACES-3878
p369
aVMYFACES-3877
p370
aVMYFACES-3876
p371
aVMYFACES-3875
p372
aVMYFACES-3874
p373
aVMYFACES-3873
p374
aVMYFACES-3872
p375
aVMYFACES-3871
p376
aVMYFACES-3870
p377
aVMYFACES-3869
p378
aVMYFACES-3868
p379
aVMYFACES-3867
p380
aVMYFACES-3866
p381
aVMYFACES-3865
p382
aVMYFACES-3864
p383
aVMYFACES-3863
p384
aVMYFACES-3862
p385
aVMYFACES-3861
p386
aVMYFACES-3860
p387
aVMYFACES-3859
p388
aVMYFACES-3858
p389
aVMYFACES-3857
p390
aVMYFACES-3856
p391
aVMYFACES-3855
p392
aVMYFACES-3854
p393
aVMYFACES-3853
p394
aVMYFACES-3852
p395
aVMYFACES-3851
p396
aVMYFACES-3850
p397
aVMYFACES-3849
p398
aVMYFACES-3848
p399
aVMYFACES-3847
p400
aVMYFACES-3846
p401
aVMYFACES-3845
p402
aVMYFACES-3844
p403
aVMYFACES-3843
p404
aVMYFACES-3842
p405
aVMYFACES-3841
p406
aVMYFACES-3840
p407
aVMYFACES-3839
p408
aVMYFACES-3838
p409
aVMYFACES-3837
p410
aVMYFACES-3836
p411
aVMYFACES-3835
p412
aVMYFACES-3834
p413
aVMYFACES-3833
p414
aVMYFACES-3832
p415
aVMYFACES-3831
p416
aVMYFACES-3830
p417
aVMYFACES-3829
p418
aVMYFACES-3828
p419
aVMYFACES-3827
p420
aVMYFACES-3826
p421
aVMYFACES-3825
p422
aVMYFACES-3824
p423
aVMYFACES-3823
p424
aVMYFACES-3822
p425
aVMYFACES-3821
p426
aVMYFACES-3820
p427
aVMYFACES-3819
p428
aVMYFACES-3818
p429
aVMYFACES-3817
p430
aVMYFACES-3816
p431
aVMYFACES-3815
p432
aVMYFACES-3814
p433
aVMYFACES-3813
p434
aVMYFACES-3812
p435
aVMYFACES-3811
p436
aVMYFACES-3810
p437
aVMYFACES-3809
p438
aVMYFACES-3807
p439
aVMYFACES-3806
p440
aVMYFACES-3805
p441
aVMYFACES-3804
p442
aVMYFACES-3803
p443
aVMYFACES-3802
p444
aVMYFACES-3801
p445
aVMYFACES-3800
p446
aVMYFACES-3799
p447
aVMYFACES-3798
p448
aVMYFACES-3797
p449
aVMYFACES-3796
p450
aVMYFACES-3795
p451
aVMYFACES-3794
p452
aVMYFACES-3793
p453
aVMYFACES-3792
p454
aVMYFACES-3791
p455
aVMYFACES-3790
p456
aVMYFACES-3789
p457
aVMYFACES-3788
p458
aVMYFACES-3787
p459
aVMYFACES-3786
p460
aVMYFACES-3785
p461
aVMYFACES-3784
p462
aVMYFACES-3783
p463
aVMYFACES-3782
p464
aVMYFACES-3781
p465
aVMYFACES-3780
p466
aVMYFACES-3779
p467
aVMYFACES-3778
p468
aVMYFACES-3777
p469
aVMYFACES-3776
p470
aVMYFACES-3775
p471
aVMYFACES-3774
p472
aVMYFACES-3773
p473
aVMYFACES-3772
p474
aVMYFACES-3771
p475
aVMYFACES-3770
p476
aVMYFACES-3769
p477
aVMYFACES-3768
p478
aVMYFACES-3767
p479
aVMYFACES-3766
p480
aVMYFACES-3765
p481
aVMYFACES-3764
p482
aVMYFACES-3763
p483
aVMYFACES-3762
p484
aVMYFACES-3761
p485
aVMYFACES-3760
p486
aVMYFACES-3759
p487
aVMYFACES-3758
p488
aVMYFACES-3757
p489
aVMYFACES-3756
p490
aVMYFACES-3755
p491
aVMYFACES-3754
p492
aVMYFACES-3753
p493
aVMYFACES-3752
p494
aVMYFACES-3751
p495
aVMYFACES-3750
p496
aVMYFACES-3749
p497
aVMYFACES-3748
p498
aVMYFACES-3747
p499
aVMYFACES-3746
p500
aVMYFACES-3745
p501
aVMYFACES-3744
p502
aVMYFACES-3743
p503
aVMYFACES-3742
p504
aVMYFACES-3741
p505
aVMYFACES-3740
p506
aVMYFACES-3739
p507
aVMYFACES-3738
p508
aVMYFACES-3737
p509
aVMYFACES-3736
p510
aVMYFACES-3735
p511
aVMYFACES-3734
p512
aVMYFACES-3733
p513
aVMYFACES-3732
p514
aVMYFACES-3731
p515
aVMYFACES-3730
p516
aVMYFACES-3729
p517
aVMYFACES-3728
p518
aVMYFACES-3727
p519
aVMYFACES-3726
p520
aVMYFACES-3725
p521
aVMYFACES-3724
p522
aVMYFACES-3723
p523
aVMYFACES-3722
p524
aVMYFACES-3721
p525
aVMYFACES-3720
p526
aVMYFACES-3719
p527
aVMYFACES-3718
p528
aVMYFACES-3717
p529
aVMYFACES-3716
p530
aVMYFACES-3715
p531
aVMYFACES-3714
p532
aVMYFACES-3713
p533
aVMYFACES-3712
p534
aVMYFACES-3711
p535
aVMYFACES-3710
p536
aVMYFACES-3709
p537
aVMYFACES-3708
p538
aVMYFACES-3707
p539
aVMYFACES-3706
p540
aVMYFACES-3705
p541
aVMYFACES-3704
p542
aVMYFACES-3703
p543
aVMYFACES-3702
p544
aVMYFACES-3701
p545
aVMYFACES-3700
p546
aVMYFACES-3699
p547
aVMYFACES-3698
p548
aVMYFACES-3697
p549
aVMYFACES-3696
p550
aVMYFACES-3695
p551
aVMYFACES-3694
p552
aVMYFACES-3693
p553
aVMYFACES-3692
p554
aVMYFACES-3691
p555
aVMYFACES-3689
p556
aVMYFACES-3688
p557
aVMYFACES-3687
p558
aVMYFACES-3686
p559
aVMYFACES-3685
p560
aVMYFACES-3684
p561
aVMYFACES-3683
p562
aVMYFACES-3682
p563
aVMYFACES-3681
p564
aVMYFACES-3680
p565
aVMYFACES-3679
p566
aVMYFACES-3678
p567
aVMYFACES-3677
p568
aVMYFACES-3676
p569
aVMYFACES-3675
p570
aVMYFACES-3674
p571
aVMYFACES-3673
p572
aVMYFACES-3672
p573
aVMYFACES-3671
p574
aVMYFACES-3670
p575
aVMYFACES-3669
p576
aVMYFACES-3668
p577
aVMYFACES-3667
p578
aVMYFACES-3666
p579
aVMYFACES-3665
p580
aVMYFACES-3664
p581
aVMYFACES-3663
p582
aVMYFACES-3662
p583
aVMYFACES-3661
p584
aVMYFACES-3660
p585
aVMYFACES-3659
p586
aVMYFACES-3658
p587
aVMYFACES-3657
p588
aVMYFACES-3656
p589
aVMYFACES-3655
p590
aVMYFACES-3654
p591
aVMYFACES-3653
p592
aVMYFACES-3652
p593
aVMYFACES-3651
p594
aVMYFACES-3650
p595
aVMYFACES-3649
p596
aVMYFACES-3648
p597
aVMYFACES-3647
p598
aVMYFACES-3646
p599
aVMYFACES-3645
p600
aVMYFACES-3644
p601
aVMYFACES-3643
p602
aVMYFACES-3642
p603
aVMYFACES-3641
p604
aVMYFACES-3640
p605
aVMYFACES-3639
p606
aVMYFACES-3638
p607
aVMYFACES-3637
p608
aVMYFACES-3636
p609
aVMYFACES-3635
p610
aVMYFACES-3634
p611
aVMYFACES-3633
p612
aVMYFACES-3632
p613
aVMYFACES-3631
p614
aVMYFACES-3630
p615
aVMYFACES-3629
p616
aVMYFACES-3628
p617
aVMYFACES-3627
p618
aVMYFACES-3626
p619
aVMYFACES-3625
p620
aVMYFACES-3624
p621
aVMYFACES-3623
p622
aVMYFACES-3622
p623
aVMYFACES-3621
p624
aVMYFACES-3620
p625
aVMYFACES-3619
p626
aVMYFACES-3618
p627
aVMYFACES-3617
p628
aVMYFACES-3616
p629
aVMYFACES-3615
p630
aVMYFACES-3614
p631
aVMYFACES-3613
p632
aVMYFACES-3612
p633
aVMYFACES-3611
p634
aVMYFACES-3610
p635
aVMYFACES-3609
p636
aVMYFACES-3608
p637
aVMYFACES-3607
p638
aVMYFACES-3606
p639
aVMYFACES-3605
p640
aVMYFACES-3604
p641
aVMYFACES-3603
p642
aVMYFACES-3602
p643
aVMYFACES-3601
p644
aVMYFACES-3600
p645
aVMYFACES-3599
p646
aVMYFACES-3598
p647
aVMYFACES-3597
p648
aVMYFACES-3596
p649
aVMYFACES-3595
p650
aVMYFACES-3594
p651
aVMYFACES-3593
p652
aVMYFACES-3592
p653
aVMYFACES-3591
p654
aVMYFACES-3590
p655
aVMYFACES-3589
p656
aVMYFACES-3588
p657
aVMYFACES-3587
p658
aVMYFACES-3586
p659
aVMYFACES-3585
p660
aVMYFACES-3584
p661
aVMYFACES-3583
p662
aVMYFACES-3582
p663
aVMYFACES-3581
p664
aVMYFACES-3580
p665
aVMYFACES-3579
p666
aVMYFACES-3578
p667
aVMYFACES-3577
p668
aVMYFACES-3576
p669
aVMYFACES-3575
p670
aVMYFACES-3574
p671
aVMYFACES-3573
p672
aVMYFACES-3572
p673
aVMYFACES-3571
p674
aVMYFACES-3570
p675
aVMYFACES-3568
p676
aVMYFACES-3567
p677
aVMYFACES-3566
p678
aVMYFACES-3565
p679
aVMYFACES-3564
p680
aVMYFACES-3563
p681
aVMYFACES-3562
p682
aVMYFACES-3561
p683
aVMYFACES-3560
p684
aVMYFACES-3559
p685
aVMYFACES-3558
p686
aVMYFACES-3557
p687
aVMYFACES-3556
p688
aVMYFACES-3555
p689
aVMYFACES-3554
p690
aVMYFACES-3553
p691
aVMYFACES-3552
p692
aVMYFACES-3551
p693
aVMYFACES-3550
p694
aVMYFACES-3549
p695
aVMYFACES-3548
p696
aVMYFACES-3547
p697
aVMYFACES-3546
p698
aVMYFACES-3545
p699
aVMYFACES-3544
p700
aVMYFACES-3543
p701
aVMYFACES-3542
p702
aVMYFACES-3541
p703
aVMYFACES-3540
p704
aVMYFACES-3539
p705
aVMYFACES-3538
p706
aVMYFACES-3537
p707
aVMYFACES-3536
p708
aVMYFACES-3535
p709
aVMYFACES-3534
p710
aVMYFACES-3533
p711
aVMYFACES-3532
p712
aVMYFACES-3531
p713
aVMYFACES-3530
p714
aVMYFACES-3529
p715
aVMYFACES-3528
p716
aVMYFACES-3527
p717
aVMYFACES-3526
p718
aVMYFACES-3525
p719
aVMYFACES-3524
p720
aVMYFACES-3523
p721
aVMYFACES-3522
p722
aVMYFACES-3521
p723
aVMYFACES-3520
p724
aVMYFACES-3519
p725
aVMYFACES-3518
p726
aVMYFACES-3516
p727
aVMYFACES-3515
p728
aVMYFACES-3514
p729
aVMYFACES-3513
p730
aVMYFACES-3512
p731
aVMYFACES-3511
p732
aVMYFACES-3510
p733
aVMYFACES-3509
p734
aVMYFACES-3508
p735
aVMYFACES-3507
p736
aVMYFACES-3506
p737
aVMYFACES-3505
p738
aVMYFACES-3504
p739
aVMYFACES-3503
p740
aVMYFACES-3502
p741
aVMYFACES-3501
p742
aVMYFACES-3500
p743
aVMYFACES-3499
p744
aVMYFACES-3498
p745
aVMYFACES-3497
p746
aVMYFACES-3496
p747
aVMYFACES-3495
p748
aVMYFACES-3494
p749
aVMYFACES-3493
p750
aVMYFACES-3492
p751
aVMYFACES-3491
p752
aVMYFACES-3490
p753
aVMYFACES-3489
p754
aVMYFACES-3488
p755
aVMYFACES-3487
p756
aVMYFACES-3486
p757
aVMYFACES-3485
p758
aVMYFACES-3484
p759
aVMYFACES-3483
p760
aVMYFACES-3482
p761
aVMYFACES-3481
p762
aVMYFACES-3480
p763
aVMYFACES-3479
p764
aVMYFACES-3478
p765
aVMYFACES-3477
p766
aVMYFACES-3476
p767
aVMYFACES-3475
p768
aVMYFACES-3474
p769
aVMYFACES-3473
p770
aVMYFACES-3472
p771
aVMYFACES-3471
p772
aVMYFACES-3470
p773
aVMYFACES-3469
p774
aVMYFACES-3468
p775
aVMYFACES-3467
p776
aVMYFACES-3466
p777
aVMYFACES-3465
p778
aVMYFACES-3464
p779
aVMYFACES-3463
p780
aVMYFACES-3462
p781
aVMYFACES-3461
p782
aVMYFACES-3460
p783
aVMYFACES-3459
p784
aVMYFACES-3458
p785
aVMYFACES-3457
p786
aVMYFACES-3456
p787
aVMYFACES-3455
p788
aVMYFACES-3454
p789
aVMYFACES-3452
p790
aVMYFACES-3451
p791
aVMYFACES-3450
p792
aVMYFACES-3449
p793
aVMYFACES-3448
p794
aVMYFACES-3447
p795
aVMYFACES-3446
p796
aVMYFACES-3445
p797
aVMYFACES-3444
p798
aVMYFACES-3443
p799
aVMYFACES-3442
p800
aVMYFACES-3441
p801
aVMYFACES-3440
p802
aVMYFACES-3439
p803
aVMYFACES-3438
p804
aVMYFACES-3437
p805
aVMYFACES-3436
p806
aVMYFACES-3435
p807
aVMYFACES-3434
p808
aVMYFACES-3433
p809
aVMYFACES-3432
p810
aVMYFACES-3431
p811
aVMYFACES-3430
p812
aVMYFACES-3429
p813
aVMYFACES-3428
p814
aVMYFACES-3427
p815
aVMYFACES-3426
p816
aVMYFACES-3425
p817
aVMYFACES-3424
p818
aVMYFACES-3423
p819
aVMYFACES-3422
p820
aVMYFACES-3421
p821
aVMYFACES-3420
p822
aVMYFACES-3419
p823
aVMYFACES-3418
p824
aVMYFACES-3416
p825
aVMYFACES-3415
p826
aVMYFACES-3414
p827
aVMYFACES-3413
p828
aVMYFACES-3412
p829
aVMYFACES-3411
p830
aVMYFACES-3410
p831
aVMYFACES-3409
p832
aVMYFACES-3408
p833
aVMYFACES-3407
p834
aVMYFACES-3406
p835
aVMYFACES-3405
p836
aVMYFACES-3404
p837
aVMYFACES-3403
p838
aVMYFACES-3402
p839
aVMYFACES-3401
p840
aVMYFACES-3400
p841
aVMYFACES-3399
p842
aVMYFACES-3398
p843
aVMYFACES-3397
p844
aVMYFACES-3396
p845
aVMYFACES-3395
p846
aVMYFACES-3394
p847
aVMYFACES-3393
p848
aVMYFACES-3392
p849
aVMYFACES-3391
p850
aVMYFACES-3390
p851
aVMYFACES-3389
p852
aVMYFACES-3388
p853
aVMYFACES-3387
p854
aVMYFACES-3385
p855
aVMYFACES-3384
p856
aVMYFACES-3383
p857
aVMYFACES-3382
p858
aVMYFACES-3381
p859
aVMYFACES-3380
p860
aVMYFACES-3379
p861
aVMYFACES-3378
p862
aVMYFACES-3377
p863
aVMYFACES-3376
p864
aVMYFACES-3375
p865
aVMYFACES-3374
p866
aVMYFACES-3373
p867
aVMYFACES-3372
p868
aVMYFACES-3371
p869
aVMYFACES-3370
p870
aVMYFACES-3369
p871
aVMYFACES-3368
p872
aVMYFACES-3367
p873
aVMYFACES-3366
p874
aVMYFACES-3365
p875
aVMYFACES-3364
p876
aVMYFACES-3363
p877
aVMYFACES-3361
p878
aVMYFACES-3360
p879
aVMYFACES-3359
p880
aVMYFACES-3358
p881
aVMYFACES-3357
p882
aVMYFACES-3356
p883
aVMYFACES-3355
p884
aVMYFACES-3354
p885
aVMYFACES-3353
p886
aVMYFACES-3352
p887
aVMYFACES-3351
p888
aVMYFACES-3350
p889
aVMYFACES-3349
p890
aVMYFACES-3348
p891
aVMYFACES-3347
p892
aVMYFACES-3346
p893
aVMYFACES-3345
p894
aVMYFACES-3344
p895
aVMYFACES-3343
p896
aVMYFACES-3342
p897
aVMYFACES-3341
p898
aVMYFACES-3340
p899
aVMYFACES-3339
p900
aVMYFACES-3338
p901
aVMYFACES-3337
p902
aVMYFACES-3336
p903
aVMYFACES-3335
p904
aVMYFACES-3334
p905
aVMYFACES-3333
p906
aVMYFACES-3332
p907
aVMYFACES-3331
p908
aVMYFACES-3330
p909
aVMYFACES-3329
p910
aVMYFACES-3328
p911
aVMYFACES-3327
p912
aVMYFACES-3326
p913
aVMYFACES-3325
p914
aVMYFACES-3324
p915
aVMYFACES-3323
p916
aVMYFACES-3322
p917
aVMYFACES-3321
p918
aVMYFACES-3320
p919
aVMYFACES-3319
p920
aVMYFACES-3318
p921
aVMYFACES-3317
p922
aVMYFACES-3316
p923
aVMYFACES-3315
p924
aVMYFACES-3314
p925
aVMYFACES-3313
p926
aVMYFACES-3312
p927
aVMYFACES-3311
p928
aVMYFACES-3310
p929
aVMYFACES-3309
p930
aVMYFACES-3308
p931
aVMYFACES-3307
p932
aVMYFACES-3306
p933
aVMYFACES-3305
p934
aVMYFACES-3304
p935
aVMYFACES-3303
p936
aVMYFACES-3302
p937
aVMYFACES-3301
p938
aVMYFACES-3300
p939
aVMYFACES-3299
p940
aVMYFACES-3298
p941
aVMYFACES-3297
p942
aVMYFACES-3296
p943
aVMYFACES-3295
p944
aVMYFACES-3294
p945
aVMYFACES-3293
p946
aVMYFACES-3292
p947
aVMYFACES-3291
p948
aVMYFACES-3290
p949
aVMYFACES-3289
p950
aVMYFACES-3288
p951
aVMYFACES-3287
p952
aVMYFACES-3286
p953
aVMYFACES-3285
p954
aVMYFACES-3284
p955
aVMYFACES-3283
p956
aVMYFACES-3282
p957
aVMYFACES-3281
p958
aVMYFACES-3280
p959
aVMYFACES-3279
p960
aVMYFACES-3278
p961
aVMYFACES-3277
p962
aVMYFACES-3276
p963
aVMYFACES-3275
p964
aVMYFACES-3274
p965
aVMYFACES-3273
p966
aVMYFACES-3272
p967
aVMYFACES-3271
p968
aVMYFACES-3270
p969
aVMYFACES-3269
p970
aVMYFACES-3268
p971
aVMYFACES-3267
p972
aVMYFACES-3266
p973
aVMYFACES-3265
p974
aVMYFACES-3264
p975
aVMYFACES-3263
p976
aVMYFACES-3262
p977
aVMYFACES-3261
p978
aVMYFACES-3260
p979
aVMYFACES-3259
p980
aVMYFACES-3258
p981
aVMYFACES-3257
p982
aVMYFACES-3256
p983
aVMYFACES-3255
p984
aVMYFACES-3254
p985
aVMYFACES-3253
p986
aVMYFACES-3252
p987
aVMYFACES-3251
p988
aVMYFACES-3250
p989
aVMYFACES-3249
p990
aVMYFACES-3248
p991
aVMYFACES-3247
p992
aVMYFACES-3246
p993
aVMYFACES-3245
p994
aVMYFACES-3244
p995
aVMYFACES-3243
p996
aVMYFACES-3242
p997
aVMYFACES-3241
p998
aVMYFACES-3240
p999
aVMYFACES-3239
p1000
aVMYFACES-3238
p1001
aVMYFACES-3237
p1002
aVMYFACES-3236
p1003
aVMYFACES-3235
p1004
aVMYFACES-3234
p1005
aVMYFACES-3233
p1006
aVMYFACES-3232
p1007
aVMYFACES-3231
p1008
aVMYFACES-3230
p1009
aVMYFACES-3229
p1010
aVMYFACES-3228
p1011
aVMYFACES-3227
p1012
aVMYFACES-3226
p1013
aVMYFACES-3225
p1014
aVMYFACES-3224
p1015
aVMYFACES-3223
p1016
aVMYFACES-3222
p1017
aVMYFACES-3221
p1018
aVMYFACES-3220
p1019
aVMYFACES-3219
p1020
aVMYFACES-3218
p1021
aVMYFACES-3217
p1022
aVMYFACES-3216
p1023
aVMYFACES-3215
p1024
aVMYFACES-3214
p1025
aVMYFACES-3213
p1026
aVMYFACES-3212
p1027
aVMYFACES-3211
p1028
aVMYFACES-3210
p1029
aVMYFACES-3209
p1030
aVMYFACES-3208
p1031
aVMYFACES-3207
p1032
aVMYFACES-3206
p1033
aVMYFACES-3205
p1034
aVMYFACES-3204
p1035
aVMYFACES-3203
p1036
aVMYFACES-3202
p1037
aVMYFACES-3201
p1038
aVMYFACES-3200
p1039
aVMYFACES-3199
p1040
aVMYFACES-3198
p1041
aVMYFACES-3197
p1042
aVMYFACES-3196
p1043
aVMYFACES-3195
p1044
aVMYFACES-3194
p1045
aVMYFACES-3193
p1046
aVMYFACES-3192
p1047
aVMYFACES-3191
p1048
aVMYFACES-3190
p1049
aVMYFACES-3189
p1050
aVMYFACES-3188
p1051
aVMYFACES-3187
p1052
aVMYFACES-3186
p1053
aVMYFACES-3185
p1054
aVMYFACES-3184
p1055
aVMYFACES-3183
p1056
aVMYFACES-3182
p1057
aVMYFACES-3181
p1058
aVMYFACES-3180
p1059
aVMYFACES-3179
p1060
aVMYFACES-3178
p1061
aVMYFACES-3177
p1062
aVMYFACES-3176
p1063
aVMYFACES-3175
p1064
aVMYFACES-3174
p1065
aVMYFACES-3173
p1066
aVMYFACES-3172
p1067
aVMYFACES-3171
p1068
aVMYFACES-3170
p1069
aVMYFACES-3169
p1070
aVMYFACES-3168
p1071
aVMYFACES-3167
p1072
aVMYFACES-3166
p1073
aVMYFACES-3165
p1074
aVMYFACES-3164
p1075
aVMYFACES-3163
p1076
aVMYFACES-3162
p1077
aVMYFACES-3161
p1078
aVMYFACES-3160
p1079
aVMYFACES-3159
p1080
aVMYFACES-3158
p1081
aVMYFACES-3157
p1082
aVMYFACES-3156
p1083
aVMYFACES-3155
p1084
aVMYFACES-3154
p1085
aVMYFACES-3153
p1086
aVMYFACES-3152
p1087
aVMYFACES-3151
p1088
aVMYFACES-3150
p1089
aVMYFACES-3149
p1090
aVMYFACES-3148
p1091
aVMYFACES-3147
p1092
aVMYFACES-3146
p1093
aVMYFACES-3145
p1094
aVMYFACES-3144
p1095
aVMYFACES-3143
p1096
aVMYFACES-3142
p1097
aVMYFACES-3141
p1098
aVMYFACES-3140
p1099
aVMYFACES-3139
p1100
aVMYFACES-3138
p1101
aVMYFACES-3137
p1102
aVMYFACES-3136
p1103
aVMYFACES-3135
p1104
aVMYFACES-3134
p1105
aVMYFACES-3133
p1106
aVMYFACES-3132
p1107
aVMYFACES-3131
p1108
aVMYFACES-3130
p1109
aVMYFACES-3129
p1110
aVMYFACES-3128
p1111
aVMYFACES-3127
p1112
aVMYFACES-3126
p1113
aVMYFACES-3125
p1114
aVMYFACES-3124
p1115
aVMYFACES-3123
p1116
aVMYFACES-3122
p1117
aVMYFACES-3121
p1118
aVMYFACES-3120
p1119
aVMYFACES-3119
p1120
aVMYFACES-3118
p1121
aVMYFACES-3117
p1122
aVMYFACES-3116
p1123
aVMYFACES-3115
p1124
aVMYFACES-3114
p1125
aVMYFACES-3113
p1126
aVMYFACES-3112
p1127
aVMYFACES-3111
p1128
aVMYFACES-3110
p1129
aVMYFACES-3109
p1130
aVMYFACES-3108
p1131
aVMYFACES-3107
p1132
aVMYFACES-3106
p1133
aVMYFACES-3105
p1134
aVMYFACES-3104
p1135
aVMYFACES-3103
p1136
aVMYFACES-3102
p1137
aVMYFACES-3101
p1138
aVMYFACES-3100
p1139
aVMYFACES-3099
p1140
aVMYFACES-3098
p1141
aVMYFACES-3097
p1142
aVMYFACES-3096
p1143
aVMYFACES-3095
p1144
aVMYFACES-3094
p1145
aVMYFACES-3093
p1146
aVMYFACES-3092
p1147
aVMYFACES-3091
p1148
aVMYFACES-3090
p1149
aVMYFACES-3089
p1150
aVMYFACES-3088
p1151
aVMYFACES-3087
p1152
aVMYFACES-3086
p1153
aVMYFACES-3085
p1154
aVMYFACES-3084
p1155
aVMYFACES-3083
p1156
aVMYFACES-3082
p1157
aVMYFACES-3081
p1158
aVMYFACES-3080
p1159
aVMYFACES-3079
p1160
aVMYFACES-3078
p1161
aVMYFACES-3076
p1162
aVMYFACES-3075
p1163
aVMYFACES-3074
p1164
aVMYFACES-3073
p1165
aVMYFACES-3072
p1166
aVMYFACES-3071
p1167
aVMYFACES-3070
p1168
aVMYFACES-3069
p1169
aVMYFACES-3068
p1170
aVMYFACES-3066
p1171
aVMYFACES-3065
p1172
aVMYFACES-3064
p1173
aVMYFACES-3063
p1174
aVMYFACES-3062
p1175
aVMYFACES-3061
p1176
aVMYFACES-3060
p1177
aVMYFACES-3059
p1178
aVMYFACES-3058
p1179
aVMYFACES-3057
p1180
aVMYFACES-3056
p1181
aVMYFACES-3055
p1182
aVMYFACES-3054
p1183
aVMYFACES-3053
p1184
aVMYFACES-3052
p1185
aVMYFACES-3051
p1186
aVMYFACES-3050
p1187
aVMYFACES-3049
p1188
aVMYFACES-3048
p1189
aVMYFACES-3047
p1190
aVMYFACES-3046
p1191
aVMYFACES-3045
p1192
aVMYFACES-3044
p1193
aVMYFACES-3043
p1194
aVMYFACES-3042
p1195
aVMYFACES-3041
p1196
aVMYFACES-3040
p1197
aVMYFACES-3039
p1198
aVMYFACES-3038
p1199
aVMYFACES-3037
p1200
aVMYFACES-3036
p1201
aVMYFACES-3035
p1202
aVMYFACES-3034
p1203
aVMYFACES-3033
p1204
aVMYFACES-3032
p1205
aVMYFACES-3031
p1206
aVMYFACES-3029
p1207
aVMYFACES-3027
p1208
aVMYFACES-3026
p1209
aVMYFACES-3025
p1210
aVMYFACES-3024
p1211
aVMYFACES-3023
p1212
aVMYFACES-3022
p1213
aVMYFACES-3021
p1214
aVMYFACES-3020
p1215
aVMYFACES-3019
p1216
aVMYFACES-3018
p1217
aVMYFACES-3017
p1218
aVMYFACES-3016
p1219
aVMYFACES-3015
p1220
aVMYFACES-3014
p1221
aVMYFACES-3013
p1222
aVMYFACES-3012
p1223
aVMYFACES-3011
p1224
aVMYFACES-3010
p1225
aVMYFACES-3009
p1226
aVMYFACES-3008
p1227
aVMYFACES-3007
p1228
aVMYFACES-3006
p1229
aVMYFACES-3005
p1230
aVMYFACES-3004
p1231
aVMYFACES-3003
p1232
aVMYFACES-3002
p1233
aVMYFACES-3001
p1234
aVMYFACES-3000
p1235
aVMYFACES-2999
p1236
aVMYFACES-2998
p1237
aVMYFACES-2997
p1238
aVMYFACES-2996
p1239
aVMYFACES-2995
p1240
aVMYFACES-2994
p1241
aVMYFACES-2993
p1242
aVMYFACES-2992
p1243
aVMYFACES-2991
p1244
aVMYFACES-2990
p1245
aVMYFACES-2989
p1246
aVMYFACES-2988
p1247
aVMYFACES-2987
p1248
aVMYFACES-2986
p1249
aVMYFACES-2985
p1250
aVMYFACES-2984
p1251
aVMYFACES-2983
p1252
aVMYFACES-2982
p1253
aVMYFACES-2981
p1254
aVMYFACES-2980
p1255
aVMYFACES-2979
p1256
aVMYFACES-2978
p1257
aVMYFACES-2977
p1258
aVMYFACES-2976
p1259
aVMYFACES-2975
p1260
aVMYFACES-2974
p1261
aVMYFACES-2973
p1262
aVMYFACES-2972
p1263
aVMYFACES-2971
p1264
aVMYFACES-2970
p1265
aVMYFACES-2969
p1266
aVMYFACES-2968
p1267
aVMYFACES-2967
p1268
aVMYFACES-2966
p1269
aVMYFACES-2965
p1270
aVMYFACES-2964
p1271
aVMYFACES-2963
p1272
aVMYFACES-2962
p1273
aVMYFACES-2961
p1274
aVMYFACES-2960
p1275
aVMYFACES-2959
p1276
aVMYFACES-2958
p1277
aVMYFACES-2957
p1278
aVMYFACES-2956
p1279
aVMYFACES-2955
p1280
aVMYFACES-2954
p1281
aVMYFACES-2953
p1282
aVMYFACES-2952
p1283
aVMYFACES-2951
p1284
aVMYFACES-2950
p1285
aVMYFACES-2949
p1286
aVMYFACES-2948
p1287
aVMYFACES-2947
p1288
aVMYFACES-2946
p1289
aVMYFACES-2945
p1290
aVMYFACES-2944
p1291
aVMYFACES-2943
p1292
aVMYFACES-2942
p1293
aVMYFACES-2941
p1294
aVMYFACES-2940
p1295
aVMYFACES-2939
p1296
aVMYFACES-2938
p1297
aVMYFACES-2937
p1298
aVMYFACES-2936
p1299
aVMYFACES-2935
p1300
aVMYFACES-2934
p1301
aVMYFACES-2933
p1302
aVMYFACES-2932
p1303
aVMYFACES-2931
p1304
aVMYFACES-2930
p1305
aVMYFACES-2929
p1306
aVMYFACES-2928
p1307
aVMYFACES-2927
p1308
aVMYFACES-2926
p1309
aVMYFACES-2925
p1310
aVMYFACES-2924
p1311
aVMYFACES-2923
p1312
aVMYFACES-2922
p1313
aVMYFACES-2921
p1314
aVMYFACES-2920
p1315
aVMYFACES-2919
p1316
aVMYFACES-2918
p1317
aVMYFACES-2917
p1318
aVMYFACES-2916
p1319
aVMYFACES-2915
p1320
aVMYFACES-2914
p1321
aVMYFACES-2913
p1322
aVMYFACES-2912
p1323
aVMYFACES-2911
p1324
aVMYFACES-2910
p1325
aVMYFACES-2909
p1326
aVMYFACES-2908
p1327
aVMYFACES-2907
p1328
aVMYFACES-2906
p1329
aVMYFACES-2905
p1330
aVMYFACES-2904
p1331
aVMYFACES-2903
p1332
aVMYFACES-2902
p1333
aVMYFACES-2901
p1334
aVMYFACES-2900
p1335
aVMYFACES-2899
p1336
aVMYFACES-2898
p1337
aVMYFACES-2897
p1338
aVMYFACES-2896
p1339
aVMYFACES-2895
p1340
aVMYFACES-2894
p1341
aVMYFACES-2893
p1342
aVMYFACES-2892
p1343
aVMYFACES-2891
p1344
aVMYFACES-2890
p1345
aVMYFACES-2889
p1346
aVMYFACES-2888
p1347
aVMYFACES-2887
p1348
aVMYFACES-2886
p1349
aVMYFACES-2885
p1350
aVMYFACES-2884
p1351
aVMYFACES-2883
p1352
aVMYFACES-2882
p1353
aVMYFACES-2881
p1354
aVMYFACES-2880
p1355
aVMYFACES-2879
p1356
aVMYFACES-2878
p1357
aVMYFACES-2877
p1358
aVMYFACES-2876
p1359
aVMYFACES-2875
p1360
aVMYFACES-2874
p1361
aVMYFACES-2873
p1362
aVMYFACES-2872
p1363
aVMYFACES-2871
p1364
aVMYFACES-2870
p1365
aVMYFACES-2869
p1366
aVMYFACES-2868
p1367
aVMYFACES-2867
p1368
aVMYFACES-2866
p1369
aVMYFACES-2865
p1370
aVMYFACES-2864
p1371
aVMYFACES-2863
p1372
aVMYFACES-2862
p1373
aVMYFACES-2861
p1374
aVMYFACES-2860
p1375
aVMYFACES-2859
p1376
aVMYFACES-2858
p1377
aVMYFACES-2857
p1378
aVMYFACES-2856
p1379
aVMYFACES-2855
p1380
aVMYFACES-2854
p1381
aVMYFACES-2853
p1382
aVMYFACES-2852
p1383
aVMYFACES-2851
p1384
aVMYFACES-2850
p1385
aVMYFACES-2849
p1386
aVMYFACES-2848
p1387
aVMYFACES-2847
p1388
aVMYFACES-2846
p1389
aVMYFACES-2845
p1390
aVMYFACES-2844
p1391
aVMYFACES-2843
p1392
aVMYFACES-2842
p1393
aVMYFACES-2841
p1394
aVMYFACES-2840
p1395
aVMYFACES-2839
p1396
aVMYFACES-2838
p1397
aVMYFACES-2837
p1398
aVMYFACES-2836
p1399
aVMYFACES-2835
p1400
aVMYFACES-2834
p1401
aVMYFACES-2833
p1402
aVMYFACES-2832
p1403
aVMYFACES-2831
p1404
aVMYFACES-2830
p1405
aVMYFACES-2829
p1406
aVMYFACES-2828
p1407
aVMYFACES-2827
p1408
aVMYFACES-2826
p1409
aVMYFACES-2825
p1410
aVMYFACES-2824
p1411
aVMYFACES-2823
p1412
aVMYFACES-2822
p1413
aVMYFACES-2821
p1414
aVMYFACES-2820
p1415
aVMYFACES-2819
p1416
aVMYFACES-2818
p1417
aVMYFACES-2817
p1418
aVMYFACES-2816
p1419
aVMYFACES-2815
p1420
aVMYFACES-2814
p1421
aVMYFACES-2813
p1422
aVMYFACES-2812
p1423
aVMYFACES-2811
p1424
aVMYFACES-2810
p1425
aVMYFACES-2809
p1426
aVMYFACES-2808
p1427
aVMYFACES-2807
p1428
aVMYFACES-2806
p1429
aVMYFACES-2805
p1430
aVMYFACES-2804
p1431
aVMYFACES-2803
p1432
aVMYFACES-2802
p1433
aVMYFACES-2801
p1434
aVMYFACES-2800
p1435
aVMYFACES-2799
p1436
aVMYFACES-2798
p1437
aVMYFACES-2797
p1438
aVMYFACES-2796
p1439
aVMYFACES-2795
p1440
aVMYFACES-2794
p1441
aVMYFACES-2793
p1442
aVMYFACES-2792
p1443
aVMYFACES-2791
p1444
aVMYFACES-2790
p1445
aVMYFACES-2789
p1446
aVMYFACES-2788
p1447
aVMYFACES-2787
p1448
aVMYFACES-2786
p1449
aVMYFACES-2785
p1450
aVMYFACES-2784
p1451
aVMYFACES-2783
p1452
aVMYFACES-2782
p1453
aVMYFACES-2781
p1454
aVMYFACES-2780
p1455
aVMYFACES-2779
p1456
aVMYFACES-2778
p1457
aVMYFACES-2777
p1458
aVMYFACES-2776
p1459
aVMYFACES-2775
p1460
aVMYFACES-2774
p1461
aVMYFACES-2773
p1462
aVMYFACES-2772
p1463
aVMYFACES-2771
p1464
aVMYFACES-2770
p1465
aVMYFACES-2769
p1466
aVMYFACES-2768
p1467
aVMYFACES-2767
p1468
aVMYFACES-2766
p1469
aVMYFACES-2765
p1470
aVMYFACES-2764
p1471
aVMYFACES-2763
p1472
aVMYFACES-2762
p1473
aVMYFACES-2761
p1474
aVMYFACES-2760
p1475
aVMYFACES-2759
p1476
aVMYFACES-2758
p1477
aVMYFACES-2757
p1478
aVMYFACES-2756
p1479
aVMYFACES-2755
p1480
aVMYFACES-2754
p1481
aVMYFACES-2753
p1482
aVMYFACES-2752
p1483
aVMYFACES-2751
p1484
aVMYFACES-2750
p1485
aVMYFACES-2749
p1486
aVMYFACES-2748
p1487
aVMYFACES-2747
p1488
aVMYFACES-2746
p1489
aVMYFACES-2745
p1490
aVMYFACES-2744
p1491
aVMYFACES-2743
p1492
aVMYFACES-2742
p1493
aVMYFACES-2741
p1494
aVMYFACES-2740
p1495
aVMYFACES-2739
p1496
aVMYFACES-2738
p1497
aVMYFACES-2737
p1498
aVMYFACES-2736
p1499
aVMYFACES-2735
p1500
aVMYFACES-2734
p1501
aVMYFACES-2733
p1502
aVMYFACES-2732
p1503
aVMYFACES-2731
p1504
aVMYFACES-2730
p1505
aVMYFACES-2729
p1506
aVMYFACES-2728
p1507
aVMYFACES-2727
p1508
aVMYFACES-2726
p1509
aVMYFACES-2725
p1510
aVMYFACES-2724
p1511
aVMYFACES-2723
p1512
aVMYFACES-2722
p1513
aVMYFACES-2721
p1514
aVMYFACES-2720
p1515
aVMYFACES-2719
p1516
aVMYFACES-2718
p1517
aVMYFACES-2717
p1518
aVMYFACES-2716
p1519
aVMYFACES-2715
p1520
aVMYFACES-2714
p1521
aVMYFACES-2713
p1522
aVMYFACES-2712
p1523
aVMYFACES-2711
p1524
aVMYFACES-2710
p1525
aVMYFACES-2709
p1526
aVMYFACES-2708
p1527
aVMYFACES-2707
p1528
aVMYFACES-2706
p1529
aVMYFACES-2705
p1530
aVMYFACES-2704
p1531
aVMYFACES-2703
p1532
aVMYFACES-2702
p1533
aVMYFACES-2701
p1534
aVMYFACES-2700
p1535
aVMYFACES-2699
p1536
aVMYFACES-2698
p1537
aVMYFACES-2697
p1538
aVMYFACES-2696
p1539
aVMYFACES-2695
p1540
aVMYFACES-2694
p1541
aVMYFACES-2693
p1542
aVMYFACES-2692
p1543
aVMYFACES-2691
p1544
aVMYFACES-2690
p1545
aVMYFACES-2689
p1546
aVMYFACES-2688
p1547
aVMYFACES-2687
p1548
aVMYFACES-2686
p1549
aVMYFACES-2685
p1550
aVMYFACES-2684
p1551
aVMYFACES-2683
p1552
aVMYFACES-2682
p1553
aVMYFACES-2681
p1554
aVMYFACES-2680
p1555
aVMYFACES-2679
p1556
aVMYFACES-2678
p1557
aVMYFACES-2677
p1558
aVMYFACES-2676
p1559
aVMYFACES-2675
p1560
aVMYFACES-2674
p1561
aVMYFACES-2673
p1562
aVMYFACES-2672
p1563
aVMYFACES-2671
p1564
aVMYFACES-2670
p1565
aVMYFACES-2669
p1566
aVMYFACES-2668
p1567
aVMYFACES-2667
p1568
aVMYFACES-2666
p1569
aVMYFACES-2665
p1570
aVMYFACES-2664
p1571
aVMYFACES-2663
p1572
aVMYFACES-2662
p1573
aVMYFACES-2661
p1574
aVMYFACES-2660
p1575
aVMYFACES-2659
p1576
aVMYFACES-2658
p1577
aVMYFACES-2657
p1578
aVMYFACES-2656
p1579
aVMYFACES-2655
p1580
aVMYFACES-2654
p1581
aVMYFACES-2653
p1582
aVMYFACES-2652
p1583
aVMYFACES-2651
p1584
aVMYFACES-2650
p1585
aVMYFACES-2649
p1586
aVMYFACES-2648
p1587
aVMYFACES-2647
p1588
aVMYFACES-2646
p1589
aVMYFACES-2645
p1590
aVMYFACES-2644
p1591
aVMYFACES-2643
p1592
aVMYFACES-2642
p1593
aVMYFACES-2641
p1594
aVMYFACES-2640
p1595
aVMYFACES-2639
p1596
aVMYFACES-2638
p1597
aVMYFACES-2637
p1598
aVMYFACES-2636
p1599
aVMYFACES-2635
p1600
aVMYFACES-2634
p1601
aVMYFACES-2633
p1602
aVMYFACES-2632
p1603
aVMYFACES-2631
p1604
aVMYFACES-2630
p1605
aVMYFACES-2629
p1606
aVMYFACES-2628
p1607
aVMYFACES-2627
p1608
aVMYFACES-2626
p1609
aVMYFACES-2625
p1610
aVMYFACES-2624
p1611
aVMYFACES-2623
p1612
aVMYFACES-2622
p1613
aVMYFACES-2621
p1614
aVMYFACES-2620
p1615
aVMYFACES-2619
p1616
aVMYFACES-2618
p1617
aVMYFACES-2617
p1618
aVMYFACES-2616
p1619
aVMYFACES-2615
p1620
aVMYFACES-2614
p1621
aVMYFACES-2613
p1622
aVMYFACES-2612
p1623
aVMYFACES-2611
p1624
aVMYFACES-2610
p1625
aVMYFACES-2609
p1626
aVMYFACES-2608
p1627
aVMYFACES-2607
p1628
aVMYFACES-2606
p1629
aVMYFACES-2605
p1630
aVMYFACES-2603
p1631
aVMYFACES-2602
p1632
aVMYFACES-2601
p1633
aVMYFACES-2600
p1634
aVMYFACES-2599
p1635
aVMYFACES-2598
p1636
aVMYFACES-2597
p1637
aVMYFACES-2596
p1638
aVMYFACES-2595
p1639
aVMYFACES-2594
p1640
aVMYFACES-2593
p1641
aVMYFACES-2592
p1642
aVMYFACES-2591
p1643
aVMYFACES-2590
p1644
aVMYFACES-2589
p1645
aVMYFACES-2588
p1646
aVMYFACES-2587
p1647
aVMYFACES-2586
p1648
aVMYFACES-2585
p1649
aVMYFACES-2584
p1650
aVMYFACES-2583
p1651
aVMYFACES-2582
p1652
aVMYFACES-2581
p1653
aVMYFACES-2580
p1654
aVMYFACES-2579
p1655
aVMYFACES-2578
p1656
aVMYFACES-2577
p1657
aVMYFACES-2576
p1658
aVMYFACES-2575
p1659
aVMYFACES-2574
p1660
aVMYFACES-2573
p1661
aVMYFACES-2572
p1662
aVMYFACES-2571
p1663
aVMYFACES-2570
p1664
aVMYFACES-2569
p1665
aVMYFACES-2568
p1666
aVMYFACES-2567
p1667
aVMYFACES-2566
p1668
aVMYFACES-2565
p1669
aVMYFACES-2564
p1670
aVMYFACES-2563
p1671
aVMYFACES-2562
p1672
aVMYFACES-2561
p1673
aVMYFACES-2560
p1674
aVMYFACES-2559
p1675
aVMYFACES-2558
p1676
aVMYFACES-2557
p1677
aVMYFACES-2556
p1678
aVMYFACES-2555
p1679
aVMYFACES-2554
p1680
aVMYFACES-2553
p1681
aVMYFACES-2552
p1682
aVMYFACES-2551
p1683
aVMYFACES-2550
p1684
aVMYFACES-2549
p1685
aVMYFACES-2548
p1686
aVMYFACES-2547
p1687
aVMYFACES-2546
p1688
aVMYFACES-2545
p1689
aVMYFACES-2544
p1690
aVMYFACES-2543
p1691
aVMYFACES-2542
p1692
aVMYFACES-2541
p1693
aVMYFACES-2540
p1694
aVMYFACES-2539
p1695
aVMYFACES-2538
p1696
aVMYFACES-2537
p1697
aVMYFACES-2536
p1698
aVMYFACES-2535
p1699
aVMYFACES-2534
p1700
aVMYFACES-2533
p1701
aVMYFACES-2532
p1702
aVMYFACES-2531
p1703
aVMYFACES-2530
p1704
aVMYFACES-2529
p1705
aVMYFACES-2528
p1706
aVMYFACES-2527
p1707
aVMYFACES-2526
p1708
aVMYFACES-2525
p1709
aVMYFACES-2524
p1710
aVMYFACES-2523
p1711
aVMYFACES-2522
p1712
aVMYFACES-2521
p1713
aVMYFACES-2520
p1714
aVMYFACES-2519
p1715
aVMYFACES-2518
p1716
aVMYFACES-2517
p1717
aVMYFACES-2516
p1718
aVMYFACES-2515
p1719
aVMYFACES-2514
p1720
aVMYFACES-2513
p1721
aVMYFACES-2512
p1722
aVMYFACES-2511
p1723
aVMYFACES-2510
p1724
aVMYFACES-2509
p1725
aVMYFACES-2508
p1726
aVMYFACES-2507
p1727
aVMYFACES-2506
p1728
aVMYFACES-2505
p1729
aVMYFACES-2504
p1730
aVMYFACES-2503
p1731
aVMYFACES-2502
p1732
aVMYFACES-2501
p1733
aVMYFACES-2500
p1734
aVMYFACES-2499
p1735
aVMYFACES-2498
p1736
aVMYFACES-2497
p1737
aVMYFACES-2496
p1738
aVMYFACES-2495
p1739
aVMYFACES-2494
p1740
aVMYFACES-2493
p1741
aVMYFACES-2492
p1742
aVMYFACES-2491
p1743
aVMYFACES-2490
p1744
aVMYFACES-2489
p1745
aVMYFACES-2488
p1746
aVMYFACES-2487
p1747
aVMYFACES-2485
p1748
aVMYFACES-2484
p1749
aVMYFACES-2483
p1750
aVMYFACES-2482
p1751
aVMYFACES-2481
p1752
aVMYFACES-2480
p1753
aVMYFACES-2479
p1754
aVMYFACES-2478
p1755
aVMYFACES-2477
p1756
aVMYFACES-2476
p1757
aVMYFACES-2475
p1758
aVMYFACES-2474
p1759
aVMYFACES-2473
p1760
aVMYFACES-2472
p1761
aVMYFACES-2471
p1762
aVMYFACES-2470
p1763
aVMYFACES-2469
p1764
aVMYFACES-2468
p1765
aVMYFACES-2467
p1766
aVMYFACES-2466
p1767
aVMYFACES-2465
p1768
aVMYFACES-2464
p1769
aVMYFACES-2463
p1770
aVMYFACES-2462
p1771
aVMYFACES-2461
p1772
aVMYFACES-2460
p1773
aVMYFACES-2459
p1774
aVMYFACES-2458
p1775
aVMYFACES-2457
p1776
aVMYFACES-2456
p1777
aVMYFACES-2455
p1778
aVMYFACES-2454
p1779
aVMYFACES-2453
p1780
aVMYFACES-2452
p1781
aVMYFACES-2451
p1782
aVMYFACES-2450
p1783
aVMYFACES-2449
p1784
aVMYFACES-2448
p1785
aVMYFACES-2447
p1786
aVMYFACES-2446
p1787
aVMYFACES-2445
p1788
aVMYFACES-2444
p1789
aVMYFACES-2443
p1790
aVMYFACES-2442
p1791
aVMYFACES-2441
p1792
aVMYFACES-2440
p1793
aVMYFACES-2439
p1794
aVMYFACES-2438
p1795
aVMYFACES-2437
p1796
aVMYFACES-2436
p1797
aVMYFACES-2435
p1798
aVMYFACES-2434
p1799
aVMYFACES-2433
p1800
aVMYFACES-2432
p1801
aVMYFACES-2431
p1802
aVMYFACES-2430
p1803
aVMYFACES-2429
p1804
aVMYFACES-2428
p1805
aVMYFACES-2427
p1806
aVMYFACES-2426
p1807
aVMYFACES-2425
p1808
aVMYFACES-2424
p1809
aVMYFACES-2423
p1810
aVMYFACES-2422
p1811
aVMYFACES-2421
p1812
aVMYFACES-2420
p1813
aVMYFACES-2419
p1814
aVMYFACES-2418
p1815
aVMYFACES-2417
p1816
aVMYFACES-2416
p1817
aVMYFACES-2415
p1818
aVMYFACES-2414
p1819
aVMYFACES-2413
p1820
aVMYFACES-2412
p1821
aVMYFACES-2411
p1822
aVMYFACES-2410
p1823
aVMYFACES-2409
p1824
aVMYFACES-2408
p1825
aVMYFACES-2407
p1826
aVMYFACES-2406
p1827
aVMYFACES-2405
p1828
aVMYFACES-2404
p1829
aVMYFACES-2403
p1830
aVMYFACES-2402
p1831
aVMYFACES-2401
p1832
aVMYFACES-2400
p1833
aVMYFACES-2399
p1834
aVMYFACES-2398
p1835
aVMYFACES-2397
p1836
aVMYFACES-2396
p1837
aVMYFACES-2395
p1838
aVMYFACES-2394
p1839
aVMYFACES-2393
p1840
aVMYFACES-2392
p1841
aVMYFACES-2391
p1842
aVMYFACES-2390
p1843
aVMYFACES-2389
p1844
aVMYFACES-2388
p1845
aVMYFACES-2387
p1846
aVMYFACES-2386
p1847
aVMYFACES-2385
p1848
aVMYFACES-2384
p1849
aVMYFACES-2383
p1850
aVMYFACES-2382
p1851
aVMYFACES-2381
p1852
aVMYFACES-2380
p1853
aVMYFACES-2379
p1854
aVMYFACES-2378
p1855
aVMYFACES-2377
p1856
aVMYFACES-2376
p1857
aVMYFACES-2375
p1858
aVMYFACES-2374
p1859
aVMYFACES-2373
p1860
aVMYFACES-2372
p1861
aVMYFACES-2371
p1862
aVMYFACES-2370
p1863
aVMYFACES-2369
p1864
aVMYFACES-2368
p1865
aVMYFACES-2367
p1866
aVMYFACES-2366
p1867
aVMYFACES-2365
p1868
aVMYFACES-2364
p1869
aVMYFACES-2363
p1870
aVMYFACES-2362
p1871
aVMYFACES-2361
p1872
aVMYFACES-2360
p1873
aVMYFACES-2359
p1874
aVMYFACES-2358
p1875
aVMYFACES-2357
p1876
aVMYFACES-2356
p1877
aVMYFACES-2355
p1878
aVMYFACES-2354
p1879
aVMYFACES-2353
p1880
aVMYFACES-2352
p1881
aVMYFACES-2351
p1882
aVMYFACES-2350
p1883
aVMYFACES-2349
p1884
aVMYFACES-2348
p1885
aVMYFACES-2347
p1886
aVMYFACES-2346
p1887
aVMYFACES-2345
p1888
aVMYFACES-2344
p1889
aVMYFACES-2343
p1890
aVMYFACES-2342
p1891
aVMYFACES-2341
p1892
aVMYFACES-2340
p1893
aVMYFACES-2339
p1894
aVMYFACES-2338
p1895
aVMYFACES-2337
p1896
aVMYFACES-2336
p1897
aVMYFACES-2335
p1898
aVMYFACES-2334
p1899
aVMYFACES-2333
p1900
aVMYFACES-2332
p1901
aVMYFACES-2331
p1902
aVMYFACES-2330
p1903
aVMYFACES-2329
p1904
aVMYFACES-2328
p1905
aVMYFACES-2327
p1906
aVMYFACES-2326
p1907
aVMYFACES-2325
p1908
aVMYFACES-2324
p1909
aVMYFACES-2323
p1910
aVMYFACES-2322
p1911
aVMYFACES-2321
p1912
aVMYFACES-2320
p1913
aVMYFACES-2319
p1914
aVMYFACES-2318
p1915
aVMYFACES-2317
p1916
aVMYFACES-2316
p1917
aVMYFACES-2315
p1918
aVMYFACES-2314
p1919
aVMYFACES-2313
p1920
aVMYFACES-2312
p1921
aVMYFACES-2311
p1922
aVMYFACES-2310
p1923
aVMYFACES-2309
p1924
aVMYFACES-2308
p1925
aVMYFACES-2307
p1926
aVMYFACES-2306
p1927
aVMYFACES-2305
p1928
aVMYFACES-2304
p1929
aVMYFACES-2303
p1930
aVMYFACES-2302
p1931
aVMYFACES-2301
p1932
aVMYFACES-2300
p1933
aVMYFACES-2299
p1934
aVMYFACES-2298
p1935
aVMYFACES-2297
p1936
aVMYFACES-2296
p1937
aVMYFACES-2295
p1938
aVMYFACES-2294
p1939
aVMYFACES-2293
p1940
aVMYFACES-2292
p1941
aVMYFACES-2291
p1942
aVMYFACES-2290
p1943
aVMYFACES-2289
p1944
aVMYFACES-2288
p1945
aVMYFACES-2287
p1946
aVMYFACES-2286
p1947
aVMYFACES-2285
p1948
aVMYFACES-2284
p1949
aVMYFACES-2283
p1950
aVMYFACES-2282
p1951
aVMYFACES-2281
p1952
aVMYFACES-2280
p1953
aVMYFACES-2279
p1954
aVMYFACES-2278
p1955
aVMYFACES-2277
p1956
aVMYFACES-2276
p1957
aVMYFACES-2275
p1958
aVMYFACES-2274
p1959
aVMYFACES-2273
p1960
aVMYFACES-2272
p1961
aVMYFACES-2271
p1962
aVMYFACES-2270
p1963
aVMYFACES-2268
p1964
aVMYFACES-2267
p1965
aVMYFACES-2266
p1966
aVMYFACES-2265
p1967
aVMYFACES-2264
p1968
aVMYFACES-2263
p1969
aVMYFACES-2262
p1970
aVMYFACES-2261
p1971
aVMYFACES-2260
p1972
aVMYFACES-2259
p1973
aVMYFACES-2258
p1974
aVMYFACES-2257
p1975
aVMYFACES-2256
p1976
aVMYFACES-2255
p1977
aVMYFACES-2254
p1978
aVMYFACES-2253
p1979
aVMYFACES-2252
p1980
aVMYFACES-2251
p1981
aVMYFACES-2250
p1982
aVMYFACES-2249
p1983
aVMYFACES-2248
p1984
aVMYFACES-2247
p1985
aVMYFACES-2246
p1986
aVMYFACES-2245
p1987
aVMYFACES-2244
p1988
aVMYFACES-2243
p1989
aVMYFACES-2242
p1990
aVMYFACES-2241
p1991
aVMYFACES-2240
p1992
aVMYFACES-2239
p1993
aVMYFACES-2238
p1994
aVMYFACES-2237
p1995
aVMYFACES-2236
p1996
aVMYFACES-2235
p1997
aVMYFACES-2234
p1998
aVMYFACES-2233
p1999
aVMYFACES-2232
p2000
aVMYFACES-2231
p2001
aVMYFACES-2230
p2002
aVMYFACES-2229
p2003
aVMYFACES-2228
p2004
aVMYFACES-2227
p2005
aVMYFACES-2226
p2006
aVMYFACES-2225
p2007
aVMYFACES-2224
p2008
aVMYFACES-2223
p2009
aVMYFACES-2222
p2010
aVMYFACES-2221
p2011
aVMYFACES-2220
p2012
aVMYFACES-2219
p2013
aVMYFACES-2218
p2014
aVMYFACES-2217
p2015
aVMYFACES-2216
p2016
aVMYFACES-2215
p2017
aVMYFACES-2214
p2018
aVMYFACES-2213
p2019
aVMYFACES-2212
p2020
aVMYFACES-2211
p2021
aVMYFACES-2210
p2022
aVMYFACES-2209
p2023
aVMYFACES-2208
p2024
aVMYFACES-2207
p2025
aVMYFACES-2206
p2026
aVMYFACES-2205
p2027
aVMYFACES-2204
p2028
aVMYFACES-2203
p2029
aVMYFACES-2202
p2030
aVMYFACES-2201
p2031
aVMYFACES-2200
p2032
aVMYFACES-2199
p2033
aVMYFACES-2198
p2034
aVMYFACES-2197
p2035
aVMYFACES-2196
p2036
aVMYFACES-2195
p2037
aVMYFACES-2194
p2038
aVMYFACES-2193
p2039
aVMYFACES-2192
p2040
aVMYFACES-2191
p2041
aVMYFACES-2190
p2042
aVMYFACES-2189
p2043
aVMYFACES-2188
p2044
aVMYFACES-2187
p2045
aVMYFACES-2186
p2046
aVMYFACES-2185
p2047
aVMYFACES-2184
p2048
aVMYFACES-2183
p2049
aVMYFACES-2182
p2050
aVMYFACES-2181
p2051
aVMYFACES-2180
p2052
aVMYFACES-2179
p2053
aVMYFACES-2178
p2054
aVMYFACES-2177
p2055
aVMYFACES-2176
p2056
aVMYFACES-2175
p2057
aVMYFACES-2174
p2058
aVMYFACES-2173
p2059
aVMYFACES-2172
p2060
aVMYFACES-2171
p2061
aVMYFACES-2170
p2062
aVMYFACES-2169
p2063
aVMYFACES-2168
p2064
aVMYFACES-2167
p2065
aVMYFACES-2166
p2066
aVMYFACES-2165
p2067
aVMYFACES-2164
p2068
aVMYFACES-2163
p2069
aVMYFACES-2162
p2070
aVMYFACES-2161
p2071
aVMYFACES-2160
p2072
aVMYFACES-2159
p2073
aVMYFACES-2158
p2074
aVMYFACES-2157
p2075
aVMYFACES-2156
p2076
aVMYFACES-2155
p2077
aVMYFACES-2154
p2078
aVMYFACES-2153
p2079
aVMYFACES-2152
p2080
aVMYFACES-2151
p2081
aVMYFACES-2150
p2082
aVMYFACES-2149
p2083
aVMYFACES-2148
p2084
aVMYFACES-2147
p2085
aVMYFACES-2146
p2086
aVMYFACES-2145
p2087
aVMYFACES-2144
p2088
aVMYFACES-2143
p2089
aVMYFACES-2142
p2090
aVMYFACES-2141
p2091
aVMYFACES-2140
p2092
aVMYFACES-2139
p2093
aVMYFACES-2138
p2094
aVMYFACES-2137
p2095
aVMYFACES-2136
p2096
aVMYFACES-2135
p2097
aVMYFACES-2134
p2098
aVMYFACES-2133
p2099
aVMYFACES-2132
p2100
aVMYFACES-2131
p2101
aVMYFACES-2130
p2102
aVMYFACES-2129
p2103
aVMYFACES-2127
p2104
aVMYFACES-2126
p2105
aVMYFACES-2125
p2106
aVMYFACES-2124
p2107
aVMYFACES-2123
p2108
aVMYFACES-2122
p2109
aVMYFACES-2121
p2110
aVMYFACES-2120
p2111
aVMYFACES-2119
p2112
aVMYFACES-2118
p2113
aVMYFACES-2117
p2114
aVMYFACES-2116
p2115
aVMYFACES-2115
p2116
aVMYFACES-2114
p2117
aVMYFACES-2113
p2118
aVMYFACES-2112
p2119
aVMYFACES-2111
p2120
aVMYFACES-2110
p2121
aVMYFACES-2109
p2122
aVMYFACES-2108
p2123
aVMYFACES-2107
p2124
aVMYFACES-2106
p2125
aVMYFACES-2105
p2126
aVMYFACES-2104
p2127
aVMYFACES-2103
p2128
aVMYFACES-2102
p2129
aVMYFACES-2101
p2130
aVMYFACES-2100
p2131
aVMYFACES-2099
p2132
aVMYFACES-2098
p2133
aVMYFACES-2097
p2134
aVMYFACES-2096
p2135
aVMYFACES-2095
p2136
aVMYFACES-2094
p2137
aVMYFACES-2093
p2138
aVMYFACES-2092
p2139
aVMYFACES-2091
p2140
aVMYFACES-2090
p2141
aVMYFACES-2089
p2142
aVMYFACES-2088
p2143
aVMYFACES-2087
p2144
aVMYFACES-2086
p2145
aVMYFACES-2085
p2146
aVMYFACES-2084
p2147
aVMYFACES-2083
p2148
aVMYFACES-2082
p2149
aVMYFACES-2081
p2150
aVMYFACES-2080
p2151
aVMYFACES-2079
p2152
aVMYFACES-2078
p2153
aVMYFACES-2077
p2154
aVMYFACES-2076
p2155
aVMYFACES-2075
p2156
aVMYFACES-2074
p2157
aVMYFACES-2073
p2158
aVMYFACES-2072
p2159
aVMYFACES-2071
p2160
aVMYFACES-2070
p2161
aVMYFACES-2069
p2162
aVMYFACES-2068
p2163
aVMYFACES-2067
p2164
aVMYFACES-2066
p2165
aVMYFACES-2065
p2166
aVMYFACES-2064
p2167
aVMYFACES-2063
p2168
aVMYFACES-2062
p2169
aVMYFACES-2061
p2170
aVMYFACES-2060
p2171
aVMYFACES-2059
p2172
aVMYFACES-2058
p2173
aVMYFACES-2057
p2174
aVMYFACES-2056
p2175
aVMYFACES-2055
p2176
aVMYFACES-2054
p2177
aVMYFACES-2053
p2178
aVMYFACES-2052
p2179
aVMYFACES-2051
p2180
aVMYFACES-2050
p2181
aVMYFACES-2049
p2182
aVMYFACES-2048
p2183
aVMYFACES-2047
p2184
aVMYFACES-2046
p2185
aVMYFACES-2045
p2186
aVMYFACES-2044
p2187
aVMYFACES-2043
p2188
aVMYFACES-2042
p2189
aVMYFACES-2041
p2190
aVMYFACES-2040
p2191
aVMYFACES-2039
p2192
aVMYFACES-2038
p2193
aVMYFACES-2037
p2194
aVMYFACES-2036
p2195
aVMYFACES-2035
p2196
aVMYFACES-2034
p2197
aVMYFACES-2033
p2198
aVMYFACES-2032
p2199
aVMYFACES-2031
p2200
aVMYFACES-2030
p2201
aVMYFACES-2029
p2202
aVMYFACES-2028
p2203
aVMYFACES-2027
p2204
aVMYFACES-2026
p2205
aVMYFACES-2025
p2206
aVMYFACES-2024
p2207
aVMYFACES-2023
p2208
aVMYFACES-2022
p2209
aVMYFACES-2021
p2210
aVMYFACES-2020
p2211
aVMYFACES-2019
p2212
aVMYFACES-2018
p2213
aVMYFACES-2017
p2214
aVMYFACES-2016
p2215
aVMYFACES-2015
p2216
aVMYFACES-2014
p2217
aVMYFACES-2013
p2218
aVMYFACES-2012
p2219
aVMYFACES-2011
p2220
aVMYFACES-2010
p2221
aVMYFACES-2009
p2222
aVMYFACES-2008
p2223
aVMYFACES-2007
p2224
aVMYFACES-2006
p2225
aVMYFACES-2005
p2226
aVMYFACES-2004
p2227
aVMYFACES-2003
p2228
aVMYFACES-2002
p2229
aVMYFACES-2001
p2230
aVMYFACES-2000
p2231
aVMYFACES-1999
p2232
aVMYFACES-1998
p2233
aVMYFACES-1997
p2234
aVMYFACES-1996
p2235
aVMYFACES-1995
p2236
aVMYFACES-1994
p2237
aVMYFACES-1993
p2238
aVMYFACES-1992
p2239
aVMYFACES-1991
p2240
aVMYFACES-1990
p2241
aVMYFACES-1989
p2242
aVMYFACES-1988
p2243
aVMYFACES-1987
p2244
aVMYFACES-1986
p2245
aVMYFACES-1985
p2246
aVMYFACES-1984
p2247
aVMYFACES-1983
p2248
aVMYFACES-1982
p2249
aVMYFACES-1981
p2250
aVMYFACES-1980
p2251
aVMYFACES-1979
p2252
aVMYFACES-1978
p2253
aVMYFACES-1977
p2254
aVMYFACES-1976
p2255
aVMYFACES-1975
p2256
aVMYFACES-1974
p2257
aVMYFACES-1973
p2258
aVMYFACES-1972
p2259
aVMYFACES-1971
p2260
aVMYFACES-1970
p2261
aVMYFACES-1969
p2262
aVMYFACES-1968
p2263
aVMYFACES-1967
p2264
aVMYFACES-1966
p2265
aVMYFACES-1965
p2266
aVMYFACES-1964
p2267
aVMYFACES-1963
p2268
aVMYFACES-1962
p2269
aVMYFACES-1961
p2270
aVMYFACES-1960
p2271
aVMYFACES-1959
p2272
aVMYFACES-1958
p2273
aVMYFACES-1957
p2274
aVMYFACES-1956
p2275
aVMYFACES-1955
p2276
aVMYFACES-1954
p2277
aVMYFACES-1953
p2278
aVMYFACES-1952
p2279
aVMYFACES-1951
p2280
aVMYFACES-1950
p2281
aVMYFACES-1949
p2282
aVMYFACES-1948
p2283
aVMYFACES-1947
p2284
aVMYFACES-1946
p2285
aVMYFACES-1945
p2286
aVMYFACES-1944
p2287
aVMYFACES-1943
p2288
aVMYFACES-1942
p2289
aVMYFACES-1941
p2290
aVMYFACES-1940
p2291
aVMYFACES-1939
p2292
aVMYFACES-1938
p2293
aVMYFACES-1937
p2294
aVMYFACES-1936
p2295
aVMYFACES-1935
p2296
aVMYFACES-1934
p2297
aVMYFACES-1933
p2298
aVMYFACES-1932
p2299
aVMYFACES-1931
p2300
aVMYFACES-1930
p2301
aVMYFACES-1929
p2302
aVMYFACES-1928
p2303
aVMYFACES-1927
p2304
aVMYFACES-1926
p2305
aVMYFACES-1925
p2306
aVMYFACES-1924
p2307
aVMYFACES-1923
p2308
aVMYFACES-1922
p2309
aVMYFACES-1921
p2310
aVMYFACES-1920
p2311
aVMYFACES-1919
p2312
aVMYFACES-1918
p2313
aVMYFACES-1917
p2314
aVMYFACES-1916
p2315
aVMYFACES-1915
p2316
aVMYFACES-1914
p2317
aVMYFACES-1913
p2318
aVMYFACES-1912
p2319
aVMYFACES-1911
p2320
aVMYFACES-1910
p2321
aVMYFACES-1908
p2322
aVMYFACES-1907
p2323
aVMYFACES-1906
p2324
aVMYFACES-1905
p2325
aVMYFACES-1904
p2326
aVMYFACES-1903
p2327
aVMYFACES-1902
p2328
aVMYFACES-1901
p2329
aVMYFACES-1900
p2330
aVMYFACES-1899
p2331
aVMYFACES-1898
p2332
aVMYFACES-1897
p2333
aVMYFACES-1896
p2334
aVMYFACES-1895
p2335
aVMYFACES-1894
p2336
aVMYFACES-1893
p2337
aVMYFACES-1892
p2338
aVMYFACES-1891
p2339
aVMYFACES-1890
p2340
aVMYFACES-1889
p2341
aVMYFACES-1888
p2342
aVMYFACES-1887
p2343
aVMYFACES-1886
p2344
aVMYFACES-1885
p2345
aVMYFACES-1884
p2346
aVMYFACES-1883
p2347
aVMYFACES-1882
p2348
aVMYFACES-1881
p2349
aVMYFACES-1880
p2350
aVMYFACES-1879
p2351
aVMYFACES-1878
p2352
aVMYFACES-1877
p2353
aVMYFACES-1876
p2354
aVMYFACES-1875
p2355
aVMYFACES-1874
p2356
aVMYFACES-1873
p2357
aVMYFACES-1871
p2358
aVMYFACES-1870
p2359
aVMYFACES-1869
p2360
aVMYFACES-1868
p2361
aVMYFACES-1867
p2362
aVMYFACES-1866
p2363
aVMYFACES-1865
p2364
aVMYFACES-1864
p2365
aVMYFACES-1863
p2366
aVMYFACES-1862
p2367
aVMYFACES-1861
p2368
aVMYFACES-1860
p2369
aVMYFACES-1859
p2370
aVMYFACES-1858
p2371
aVMYFACES-1857
p2372
aVMYFACES-1856
p2373
aVMYFACES-1855
p2374
aVMYFACES-1854
p2375
aVMYFACES-1853
p2376
aVMYFACES-1852
p2377
aVMYFACES-1851
p2378
aVMYFACES-1850
p2379
aVMYFACES-1849
p2380
aVMYFACES-1848
p2381
aVMYFACES-1847
p2382
aVMYFACES-1846
p2383
aVMYFACES-1845
p2384
aVMYFACES-1844
p2385
aVMYFACES-1843
p2386
aVMYFACES-1842
p2387
aVMYFACES-1841
p2388
aVMYFACES-1840
p2389
aVMYFACES-1839
p2390
aVMYFACES-1838
p2391
aVMYFACES-1837
p2392
aVMYFACES-1836
p2393
aVMYFACES-1835
p2394
aVMYFACES-1834
p2395
aVMYFACES-1833
p2396
aVMYFACES-1832
p2397
aVMYFACES-1831
p2398
aVMYFACES-1830
p2399
aVMYFACES-1829
p2400
aVMYFACES-1828
p2401
aVMYFACES-1827
p2402
aVMYFACES-1826
p2403
aVMYFACES-1825
p2404
aVMYFACES-1823
p2405
aVMYFACES-1822
p2406
aVMYFACES-1821
p2407
aVMYFACES-1820
p2408
aVMYFACES-1819
p2409
aVMYFACES-1818
p2410
aVMYFACES-1817
p2411
aVMYFACES-1816
p2412
aVMYFACES-1815
p2413
aVMYFACES-1814
p2414
aVMYFACES-1812
p2415
aVMYFACES-1811
p2416
aVMYFACES-1810
p2417
aVMYFACES-1809
p2418
aVMYFACES-1808
p2419
aVMYFACES-1807
p2420
aVMYFACES-1805
p2421
aVMYFACES-1804
p2422
aVMYFACES-1803
p2423
aVMYFACES-1802
p2424
aVMYFACES-1801
p2425
aVMYFACES-1800
p2426
aVMYFACES-1799
p2427
aVMYFACES-1798
p2428
aVMYFACES-1797
p2429
aVMYFACES-1796
p2430
aVMYFACES-1795
p2431
aVMYFACES-1794
p2432
aVMYFACES-1793
p2433
aVMYFACES-1792
p2434
aVMYFACES-1791
p2435
aVMYFACES-1790
p2436
aVMYFACES-1789
p2437
aVMYFACES-1788
p2438
aVMYFACES-1787
p2439
aVMYFACES-1786
p2440
aVMYFACES-1785
p2441
aVMYFACES-1784
p2442
aVMYFACES-1783
p2443
aVMYFACES-1782
p2444
aVMYFACES-1781
p2445
aVMYFACES-1780
p2446
aVMYFACES-1779
p2447
aVMYFACES-1778
p2448
aVMYFACES-1777
p2449
aVMYFACES-1776
p2450
aVMYFACES-1775
p2451
aVMYFACES-1774
p2452
aVMYFACES-1773
p2453
aVMYFACES-1772
p2454
aVMYFACES-1771
p2455
aVMYFACES-1770
p2456
aVMYFACES-1769
p2457
aVMYFACES-1768
p2458
aVMYFACES-1767
p2459
aVMYFACES-1766
p2460
aVMYFACES-1765
p2461
aVMYFACES-1764
p2462
aVMYFACES-1762
p2463
aVMYFACES-1761
p2464
aVMYFACES-1760
p2465
aVMYFACES-1759
p2466
aVMYFACES-1758
p2467
aVMYFACES-1757
p2468
aVMYFACES-1756
p2469
aVMYFACES-1755
p2470
aVMYFACES-1754
p2471
aVMYFACES-1753
p2472
aVMYFACES-1752
p2473
aVMYFACES-1751
p2474
aVMYFACES-1750
p2475
aVMYFACES-1749
p2476
aVMYFACES-1748
p2477
aVMYFACES-1747
p2478
aVMYFACES-1746
p2479
aVMYFACES-1745
p2480
aVMYFACES-1744
p2481
aVMYFACES-1743
p2482
aVMYFACES-1742
p2483
aVMYFACES-1741
p2484
aVMYFACES-1740
p2485
aVMYFACES-1739
p2486
aVMYFACES-1738
p2487
aVMYFACES-1737
p2488
aVMYFACES-1736
p2489
aVMYFACES-1735
p2490
aVMYFACES-1734
p2491
aVMYFACES-1733
p2492
aVMYFACES-1732
p2493
aVMYFACES-1731
p2494
aVMYFACES-1730
p2495
aVMYFACES-1729
p2496
aVMYFACES-1728
p2497
aVMYFACES-1727
p2498
aVMYFACES-1726
p2499
aVMYFACES-1725
p2500
aVMYFACES-1724
p2501
aVMYFACES-1723
p2502
aVMYFACES-1722
p2503
aVMYFACES-1721
p2504
aVMYFACES-1720
p2505
aVMYFACES-1719
p2506
aVMYFACES-1718
p2507
aVMYFACES-1717
p2508
aVMYFACES-1716
p2509
aVMYFACES-1715
p2510
aVMYFACES-1714
p2511
aVMYFACES-1713
p2512
aVMYFACES-1712
p2513
aVMYFACES-1711
p2514
aVMYFACES-1710
p2515
aVMYFACES-1709
p2516
aVMYFACES-1708
p2517
aVMYFACES-1707
p2518
aVMYFACES-1706
p2519
aVMYFACES-1705
p2520
aVMYFACES-1704
p2521
aVMYFACES-1703
p2522
aVMYFACES-1702
p2523
aVMYFACES-1701
p2524
aVMYFACES-1700
p2525
aVMYFACES-1699
p2526
aVMYFACES-1698
p2527
aVMYFACES-1697
p2528
aVMYFACES-1695
p2529
aVMYFACES-1694
p2530
aVMYFACES-1693
p2531
aVMYFACES-1692
p2532
aVMYFACES-1691
p2533
aVMYFACES-1690
p2534
aVMYFACES-1689
p2535
aVMYFACES-1688
p2536
aVMYFACES-1687
p2537
aVMYFACES-1686
p2538
aVMYFACES-1685
p2539
aVMYFACES-1684
p2540
aVMYFACES-1683
p2541
aVMYFACES-1682
p2542
aVMYFACES-1681
p2543
aVMYFACES-1680
p2544
aVMYFACES-1679
p2545
aVMYFACES-1678
p2546
aVMYFACES-1677
p2547
aVMYFACES-1676
p2548
aVMYFACES-1674
p2549
aVMYFACES-1673
p2550
aVMYFACES-1672
p2551
aVMYFACES-1671
p2552
aVMYFACES-1670
p2553
aVMYFACES-1669
p2554
aVMYFACES-1668
p2555
aVMYFACES-1667
p2556
aVMYFACES-1666
p2557
aVMYFACES-1665
p2558
aVMYFACES-1664
p2559
aVMYFACES-1663
p2560
aVMYFACES-1662
p2561
aVMYFACES-1661
p2562
aVMYFACES-1660
p2563
aVMYFACES-1659
p2564
aVMYFACES-1658
p2565
aVMYFACES-1657
p2566
aVMYFACES-1656
p2567
aVMYFACES-1655
p2568
aVMYFACES-1654
p2569
aVMYFACES-1653
p2570
aVMYFACES-1652
p2571
aVMYFACES-1651
p2572
aVMYFACES-1650
p2573
aVMYFACES-1649
p2574
aVMYFACES-1648
p2575
aVMYFACES-1647
p2576
aVMYFACES-1646
p2577
aVMYFACES-1645
p2578
aVMYFACES-1644
p2579
aVMYFACES-1643
p2580
aVMYFACES-1642
p2581
aVMYFACES-1641
p2582
aVMYFACES-1640
p2583
aVMYFACES-1639
p2584
aVMYFACES-1638
p2585
aVMYFACES-1637
p2586
aVMYFACES-1636
p2587
aVMYFACES-1635
p2588
aVMYFACES-1634
p2589
aVMYFACES-1633
p2590
aVMYFACES-1632
p2591
aVMYFACES-1631
p2592
aVMYFACES-1630
p2593
aVMYFACES-1629
p2594
aVMYFACES-1628
p2595
aVMYFACES-1626
p2596
aVMYFACES-1625
p2597
aVMYFACES-1624
p2598
aVMYFACES-1623
p2599
aVMYFACES-1622
p2600
aVMYFACES-1621
p2601
aVMYFACES-1620
p2602
aVMYFACES-1619
p2603
aVMYFACES-1618
p2604
aVMYFACES-1617
p2605
aVMYFACES-1616
p2606
aVMYFACES-1615
p2607
aVMYFACES-1614
p2608
aVMYFACES-1613
p2609
aVMYFACES-1612
p2610
aVMYFACES-1611
p2611
aVMYFACES-1610
p2612
aVMYFACES-1609
p2613
aVMYFACES-1608
p2614
aVMYFACES-1607
p2615
aVMYFACES-1606
p2616
aVMYFACES-1605
p2617
aVMYFACES-1604
p2618
aVMYFACES-1603
p2619
aVMYFACES-1602
p2620
aVMYFACES-1601
p2621
aVMYFACES-1600
p2622
aVMYFACES-1599
p2623
aVMYFACES-1598
p2624
aVMYFACES-1597
p2625
aVMYFACES-1596
p2626
aVMYFACES-1595
p2627
aVMYFACES-1594
p2628
aVMYFACES-1593
p2629
aVMYFACES-1592
p2630
aVMYFACES-1591
p2631
aVMYFACES-1590
p2632
aVMYFACES-1589
p2633
aVMYFACES-1588
p2634
aVMYFACES-1586
p2635
aVMYFACES-1585
p2636
aVMYFACES-1584
p2637
aVMYFACES-1583
p2638
aVMYFACES-1582
p2639
aVMYFACES-1581
p2640
aVMYFACES-1580
p2641
aVMYFACES-1579
p2642
aVMYFACES-1578
p2643
aVMYFACES-1577
p2644
aVMYFACES-1576
p2645
aVMYFACES-1575
p2646
aVMYFACES-1574
p2647
aVMYFACES-1573
p2648
aVMYFACES-1572
p2649
aVMYFACES-1571
p2650
aVMYFACES-1570
p2651
aVMYFACES-1569
p2652
aVMYFACES-1568
p2653
aVMYFACES-1567
p2654
aVMYFACES-1566
p2655
aVMYFACES-1565
p2656
aVMYFACES-1564
p2657
aVMYFACES-1563
p2658
aVMYFACES-1562
p2659
aVMYFACES-1561
p2660
aVMYFACES-1560
p2661
aVMYFACES-1559
p2662
aVMYFACES-1558
p2663
aVMYFACES-1557
p2664
aVMYFACES-1556
p2665
aVMYFACES-1555
p2666
aVMYFACES-1554
p2667
aVMYFACES-1553
p2668
aVMYFACES-1552
p2669
aVMYFACES-1551
p2670
aVMYFACES-1550
p2671
aVMYFACES-1549
p2672
aVMYFACES-1548
p2673
aVMYFACES-1547
p2674
aVMYFACES-1546
p2675
aVMYFACES-1545
p2676
aVMYFACES-1544
p2677
aVMYFACES-1543
p2678
aVMYFACES-1542
p2679
aVMYFACES-1541
p2680
aVMYFACES-1540
p2681
aVMYFACES-1539
p2682
aVMYFACES-1537
p2683
aVMYFACES-1536
p2684
aVMYFACES-1535
p2685
aVMYFACES-1534
p2686
aVMYFACES-1533
p2687
aVMYFACES-1532
p2688
aVMYFACES-1531
p2689
aVMYFACES-1530
p2690
aVMYFACES-1528
p2691
aVMYFACES-1527
p2692
aVMYFACES-1526
p2693
aVMYFACES-1525
p2694
aVMYFACES-1524
p2695
aVMYFACES-1523
p2696
aVMYFACES-1522
p2697
aVMYFACES-1521
p2698
aVMYFACES-1520
p2699
aVMYFACES-1519
p2700
aVMYFACES-1518
p2701
aVMYFACES-1517
p2702
aVMYFACES-1516
p2703
aVMYFACES-1515
p2704
aVMYFACES-1514
p2705
aVMYFACES-1513
p2706
aVMYFACES-1512
p2707
aVMYFACES-1511
p2708
aVMYFACES-1510
p2709
aVMYFACES-1509
p2710
aVMYFACES-1508
p2711
aVMYFACES-1507
p2712
aVMYFACES-1506
p2713
aVMYFACES-1505
p2714
aVMYFACES-1504
p2715
aVMYFACES-1503
p2716
aVMYFACES-1502
p2717
aVMYFACES-1501
p2718
aVMYFACES-1500
p2719
aVMYFACES-1499
p2720
aVMYFACES-1498
p2721
aVMYFACES-1497
p2722
aVMYFACES-1496
p2723
aVMYFACES-1495
p2724
aVMYFACES-1494
p2725
aVMYFACES-1493
p2726
aVMYFACES-1492
p2727
aVMYFACES-1491
p2728
aVMYFACES-1490
p2729
aVMYFACES-1489
p2730
aVMYFACES-1488
p2731
aVMYFACES-1487
p2732
aVMYFACES-1486
p2733
aVMYFACES-1485
p2734
aVMYFACES-1484
p2735
aVMYFACES-1483
p2736
aVMYFACES-1482
p2737
aVMYFACES-1481
p2738
aVMYFACES-1480
p2739
aVMYFACES-1479
p2740
aVMYFACES-1478
p2741
aVMYFACES-1477
p2742
aVMYFACES-1476
p2743
aVMYFACES-1475
p2744
aVMYFACES-1474
p2745
aVMYFACES-1473
p2746
aVMYFACES-1472
p2747
aVMYFACES-1471
p2748
aVMYFACES-1470
p2749
aVMYFACES-1469
p2750
aVMYFACES-1468
p2751
aVMYFACES-1467
p2752
aVMYFACES-1466
p2753
aVMYFACES-1465
p2754
aVMYFACES-1464
p2755
aVMYFACES-1463
p2756
aVMYFACES-1462
p2757
aVMYFACES-1461
p2758
aVMYFACES-1460
p2759
aVMYFACES-1459
p2760
aVMYFACES-1458
p2761
aVMYFACES-1457
p2762
aVMYFACES-1456
p2763
aVMYFACES-1455
p2764
aVMYFACES-1454
p2765
aVMYFACES-1453
p2766
aVMYFACES-1452
p2767
aVMYFACES-1451
p2768
aVMYFACES-1450
p2769
aVMYFACES-1449
p2770
aVMYFACES-1448
p2771
aVMYFACES-1447
p2772
aVMYFACES-1446
p2773
aVMYFACES-1445
p2774
aVMYFACES-1444
p2775
aVMYFACES-1443
p2776
aVMYFACES-1442
p2777
aVMYFACES-1441
p2778
aVMYFACES-1440
p2779
aVMYFACES-1439
p2780
aVMYFACES-1438
p2781
aVMYFACES-1437
p2782
aVMYFACES-1436
p2783
aVMYFACES-1435
p2784
aVMYFACES-1434
p2785
aVMYFACES-1433
p2786
aVMYFACES-1432
p2787
aVMYFACES-1431
p2788
aVMYFACES-1430
p2789
aVMYFACES-1429
p2790
aVMYFACES-1428
p2791
aVMYFACES-1427
p2792
aVMYFACES-1426
p2793
aVMYFACES-1425
p2794
aVMYFACES-1424
p2795
aVMYFACES-1423
p2796
aVMYFACES-1422
p2797
aVMYFACES-1421
p2798
aVMYFACES-1420
p2799
aVMYFACES-1419
p2800
aVMYFACES-1418
p2801
aVMYFACES-1417
p2802
aVMYFACES-1416
p2803
aVMYFACES-1415
p2804
aVMYFACES-1414
p2805
aVMYFACES-1413
p2806
aVMYFACES-1412
p2807
aVMYFACES-1411
p2808
aVMYFACES-1410
p2809
aVMYFACES-1409
p2810
aVMYFACES-1408
p2811
aVMYFACES-1407
p2812
aVMYFACES-1406
p2813
aVMYFACES-1405
p2814
aVMYFACES-1404
p2815
aVMYFACES-1403
p2816
aVMYFACES-1402
p2817
aVMYFACES-1401
p2818
aVMYFACES-1400
p2819
aVMYFACES-1399
p2820
aVMYFACES-1397
p2821
aVMYFACES-1396
p2822
aVMYFACES-1395
p2823
aVMYFACES-1394
p2824
aVMYFACES-1393
p2825
aVMYFACES-1392
p2826
aVMYFACES-1391
p2827
aVMYFACES-1390
p2828
aVMYFACES-1389
p2829
aVMYFACES-1388
p2830
aVMYFACES-1387
p2831
aVMYFACES-1386
p2832
aVMYFACES-1385
p2833
aVMYFACES-1384
p2834
aVMYFACES-1383
p2835
aVMYFACES-1382
p2836
aVMYFACES-1381
p2837
aVMYFACES-1380
p2838
aVMYFACES-1379
p2839
aVMYFACES-1378
p2840
aVMYFACES-1377
p2841
aVMYFACES-1376
p2842
aVMYFACES-1374
p2843
aVMYFACES-1373
p2844
aVMYFACES-1372
p2845
aVMYFACES-1371
p2846
aVMYFACES-1370
p2847
aVMYFACES-1368
p2848
aVMYFACES-1366
p2849
aVMYFACES-1365
p2850
aVMYFACES-1364
p2851
aVMYFACES-1363
p2852
aVMYFACES-1362
p2853
aVMYFACES-1361
p2854
aVMYFACES-1360
p2855
aVMYFACES-1359
p2856
aVMYFACES-1358
p2857
aVMYFACES-1357
p2858
aVMYFACES-1356
p2859
aVMYFACES-1355
p2860
aVMYFACES-1354
p2861
aVMYFACES-1353
p2862
aVMYFACES-1351
p2863
aVMYFACES-1350
p2864
aVMYFACES-1349
p2865
aVMYFACES-1348
p2866
aVMYFACES-1347
p2867
aVMYFACES-1346
p2868
aVMYFACES-1344
p2869
aVMYFACES-1342
p2870
aVMYFACES-1340
p2871
aVMYFACES-1339
p2872
aVMYFACES-1338
p2873
aVMYFACES-1337
p2874
aVMYFACES-1336
p2875
aVMYFACES-1335
p2876
aVMYFACES-1334
p2877
aVMYFACES-1333
p2878
aVMYFACES-1332
p2879
aVMYFACES-1331
p2880
aVMYFACES-1330
p2881
aVMYFACES-1329
p2882
aVMYFACES-1328
p2883
aVMYFACES-1327
p2884
aVMYFACES-1326
p2885
aVMYFACES-1325
p2886
aVMYFACES-1324
p2887
aVMYFACES-1323
p2888
aVMYFACES-1322
p2889
aVMYFACES-1321
p2890
aVMYFACES-1320
p2891
aVMYFACES-1319
p2892
aVMYFACES-1318
p2893
aVMYFACES-1317
p2894
aVMYFACES-1316
p2895
aVMYFACES-1315
p2896
aVMYFACES-1314
p2897
aVMYFACES-1312
p2898
aVMYFACES-1311
p2899
aVMYFACES-1310
p2900
aVMYFACES-1309
p2901
aVMYFACES-1308
p2902
aVMYFACES-1307
p2903
aVMYFACES-1306
p2904
aVMYFACES-1305
p2905
aVMYFACES-1304
p2906
aVMYFACES-1303
p2907
aVMYFACES-1302
p2908
aVMYFACES-1301
p2909
aVMYFACES-1300
p2910
aVMYFACES-1299
p2911
aVMYFACES-1297
p2912
aVMYFACES-1296
p2913
aVMYFACES-1295
p2914
aVMYFACES-1294
p2915
aVMYFACES-1293
p2916
aVMYFACES-1292
p2917
aVMYFACES-1291
p2918
aVMYFACES-1290
p2919
aVMYFACES-1289
p2920
aVMYFACES-1288
p2921
aVMYFACES-1287
p2922
aVMYFACES-1285
p2923
aVMYFACES-1284
p2924
aVMYFACES-1281
p2925
aVMYFACES-1280
p2926
aVMYFACES-1279
p2927
aVMYFACES-1278
p2928
aVMYFACES-1276
p2929
aVMYFACES-1275
p2930
aVMYFACES-1274
p2931
aVMYFACES-1273
p2932
aVMYFACES-1272
p2933
aVMYFACES-1271
p2934
aVMYFACES-1270
p2935
aVMYFACES-1269
p2936
aVMYFACES-1268
p2937
aVMYFACES-1267
p2938
aVMYFACES-1266
p2939
aVMYFACES-1265
p2940
aVMYFACES-1264
p2941
aVMYFACES-1263
p2942
aVMYFACES-1262
p2943
aVMYFACES-1261
p2944
aVMYFACES-1260
p2945
aVMYFACES-1259
p2946
aVMYFACES-1258
p2947
aVMYFACES-1257
p2948
aVMYFACES-1256
p2949
aVMYFACES-1255
p2950
aVMYFACES-1254
p2951
aVMYFACES-1253
p2952
aVMYFACES-1252
p2953
aVMYFACES-1251
p2954
aVMYFACES-1250
p2955
aVMYFACES-1249
p2956
aVMYFACES-1248
p2957
aVMYFACES-1247
p2958
aVMYFACES-1246
p2959
aVMYFACES-1245
p2960
aVMYFACES-1244
p2961
aVMYFACES-1243
p2962
aVMYFACES-1242
p2963
aVMYFACES-1241
p2964
aVMYFACES-1240
p2965
aVMYFACES-1239
p2966
aVMYFACES-1238
p2967
aVMYFACES-1237
p2968
aVMYFACES-1236
p2969
aVMYFACES-1235
p2970
aVMYFACES-1234
p2971
aVMYFACES-1233
p2972
aVMYFACES-1232
p2973
aVMYFACES-1231
p2974
aVMYFACES-1230
p2975
aVMYFACES-1229
p2976
aVMYFACES-1228
p2977
aVMYFACES-1227
p2978
aVMYFACES-1226
p2979
aVMYFACES-1225
p2980
aVMYFACES-1224
p2981
aVMYFACES-1223
p2982
aVMYFACES-1222
p2983
aVMYFACES-1221
p2984
aVMYFACES-1220
p2985
aVMYFACES-1219
p2986
aVMYFACES-1218
p2987
aVMYFACES-1217
p2988
aVMYFACES-1216
p2989
aVMYFACES-1215
p2990
aVMYFACES-1214
p2991
aVMYFACES-1213
p2992
aVMYFACES-1212
p2993
aVMYFACES-1211
p2994
aVMYFACES-1210
p2995
aVMYFACES-1209
p2996
aVMYFACES-1208
p2997
aVMYFACES-1207
p2998
aVMYFACES-1206
p2999
aVMYFACES-1205
p3000
aVMYFACES-1204
p3001
aVMYFACES-1203
p3002
aVMYFACES-1202
p3003
aVMYFACES-1201
p3004
aVMYFACES-1200
p3005
aVMYFACES-1199
p3006
aVMYFACES-1198
p3007
aVMYFACES-1197
p3008
aVMYFACES-1196
p3009
aVMYFACES-1195
p3010
aVMYFACES-1194
p3011
aVMYFACES-1193
p3012
aVMYFACES-1192
p3013
aVMYFACES-1190
p3014
aVMYFACES-1189
p3015
aVMYFACES-1188
p3016
aVMYFACES-1187
p3017
aVMYFACES-1186
p3018
aVMYFACES-1184
p3019
aVMYFACES-1183
p3020
aVMYFACES-1182
p3021
aVMYFACES-1180
p3022
aVMYFACES-1179
p3023
aVMYFACES-1178
p3024
aVMYFACES-1177
p3025
aVMYFACES-1176
p3026
aVMYFACES-1175
p3027
aVMYFACES-1174
p3028
aVMYFACES-1173
p3029
aVMYFACES-1172
p3030
aVMYFACES-1171
p3031
aVMYFACES-1170
p3032
aVMYFACES-1169
p3033
aVMYFACES-1168
p3034
aVMYFACES-1167
p3035
aVMYFACES-1166
p3036
aVMYFACES-1165
p3037
aVMYFACES-1164
p3038
aVMYFACES-1163
p3039
aVMYFACES-1162
p3040
aVMYFACES-1161
p3041
aVMYFACES-1160
p3042
aVMYFACES-1159
p3043
aVMYFACES-1158
p3044
aVMYFACES-1157
p3045
aVMYFACES-1156
p3046
aVMYFACES-1155
p3047
aVMYFACES-1154
p3048
aVMYFACES-1153
p3049
aVMYFACES-1152
p3050
aVMYFACES-1151
p3051
aVMYFACES-1149
p3052
aVMYFACES-1148
p3053
aVMYFACES-1147
p3054
aVMYFACES-1130
p3055
aVMYFACES-1129
p3056
aVMYFACES-1128
p3057
aVMYFACES-1127
p3058
aVMYFACES-1125
p3059
aVMYFACES-1123
p3060
aVMYFACES-1121
p3061
aVMYFACES-1120
p3062
aVMYFACES-1119
p3063
aVMYFACES-1112
p3064
aVMYFACES-1110
p3065
aVMYFACES-1108
p3066
aVMYFACES-1104
p3067
aVMYFACES-1103
p3068
aVMYFACES-1097
p3069
aVMYFACES-1092
p3070
aVMYFACES-1091
p3071
aVMYFACES-1089
p3072
aVMYFACES-1088
p3073
aVMYFACES-1087
p3074
aVMYFACES-1086
p3075
aVMYFACES-1085
p3076
aVMYFACES-1083
p3077
aVMYFACES-1082
p3078
aVMYFACES-1081
p3079
aVMYFACES-1080
p3080
aVMYFACES-1079
p3081
aVMYFACES-1075
p3082
aVMYFACES-1074
p3083
aVMYFACES-1071
p3084
aVMYFACES-1070
p3085
aVMYFACES-1065
p3086
aVMYFACES-1060
p3087
aVMYFACES-1058
p3088
aVMYFACES-1056
p3089
aVMYFACES-1054
p3090
aVMYFACES-1049
p3091
aVMYFACES-1046
p3092
aVMYFACES-1034
p3093
aVMYFACES-1033
p3094
aVMYFACES-1032
p3095
aVMYFACES-1031
p3096
aVMYFACES-1029
p3097
aVMYFACES-1028
p3098
aVMYFACES-1027
p3099
aVMYFACES-1026
p3100
aVMYFACES-1025
p3101
aVMYFACES-1022
p3102
aVMYFACES-1021
p3103
aVMYFACES-1019
p3104
aVMYFACES-1018
p3105
aVMYFACES-1017
p3106
aVMYFACES-1016
p3107
aVMYFACES-1015
p3108
aVMYFACES-1010
p3109
aVMYFACES-1008
p3110
aVMYFACES-1007
p3111
aVMYFACES-1006
p3112
aVMYFACES-1002
p3113
aVMYFACES-1001
p3114
aVMYFACES-1000
p3115
aVMYFACES-999
p3116
aVMYFACES-998
p3117
aVMYFACES-994
p3118
aVMYFACES-990
p3119
aVMYFACES-987
p3120
aVMYFACES-986
p3121
aVMYFACES-985
p3122
aVMYFACES-983
p3123
aVMYFACES-982
p3124
aVMYFACES-981
p3125
aVMYFACES-980
p3126
aVMYFACES-979
p3127
aVMYFACES-976
p3128
aVMYFACES-973
p3129
aVMYFACES-971
p3130
aVMYFACES-970
p3131
aVMYFACES-968
p3132
aVMYFACES-965
p3133
aVMYFACES-957
p3134
aVMYFACES-954
p3135
aVMYFACES-949
p3136
aVMYFACES-943
p3137
aVMYFACES-942
p3138
aVMYFACES-934
p3139
aVMYFACES-931
p3140
aVMYFACES-928
p3141
aVMYFACES-921
p3142
aVMYFACES-920
p3143
aVMYFACES-919
p3144
aVMYFACES-918
p3145
aVMYFACES-912
p3146
aVMYFACES-910
p3147
aVMYFACES-907
p3148
aVMYFACES-901
p3149
aVMYFACES-899
p3150
aVMYFACES-898
p3151
aVMYFACES-897
p3152
aVMYFACES-895
p3153
aVMYFACES-894
p3154
aVMYFACES-893
p3155
aVMYFACES-892
p3156
aVMYFACES-891
p3157
aVMYFACES-889
p3158
aVMYFACES-888
p3159
aVMYFACES-887
p3160
aVMYFACES-886
p3161
aVMYFACES-885
p3162
aVMYFACES-883
p3163
aVMYFACES-882
p3164
aVMYFACES-881
p3165
aVMYFACES-880
p3166
aVMYFACES-879
p3167
aVMYFACES-874
p3168
aVMYFACES-872
p3169
aVMYFACES-871
p3170
aVMYFACES-868
p3171
aVMYFACES-866
p3172
aVMYFACES-865
p3173
aVMYFACES-864
p3174
aVMYFACES-863
p3175
aVMYFACES-861
p3176
aVMYFACES-858
p3177
aVMYFACES-857
p3178
aVMYFACES-856
p3179
aVMYFACES-855
p3180
aVMYFACES-852
p3181
aVMYFACES-847
p3182
aVMYFACES-845
p3183
aVMYFACES-840
p3184
aVMYFACES-839
p3185
aVMYFACES-837
p3186
aVMYFACES-836
p3187
aVMYFACES-833
p3188
aVMYFACES-832
p3189
aVMYFACES-830
p3190
aVMYFACES-829
p3191
aVMYFACES-828
p3192
aVMYFACES-826
p3193
aVMYFACES-824
p3194
aVMYFACES-821
p3195
aVMYFACES-820
p3196
aVMYFACES-819
p3197
aVMYFACES-816
p3198
aVMYFACES-815
p3199
aVMYFACES-813
p3200
aVMYFACES-811
p3201
aVMYFACES-809
p3202
aVMYFACES-803
p3203
aVMYFACES-802
p3204
aVMYFACES-800
p3205
aVMYFACES-798
p3206
aVMYFACES-796
p3207
aVMYFACES-795
p3208
aVMYFACES-791
p3209
aVMYFACES-790
p3210
aVMYFACES-789
p3211
aVMYFACES-788
p3212
aVMYFACES-787
p3213
aVMYFACES-785
p3214
aVMYFACES-782
p3215
aVMYFACES-781
p3216
aVMYFACES-778
p3217
aVMYFACES-774
p3218
aVMYFACES-771
p3219
aVMYFACES-770
p3220
aVMYFACES-769
p3221
aVMYFACES-768
p3222
aVMYFACES-767
p3223
aVMYFACES-766
p3224
aVMYFACES-763
p3225
aVMYFACES-762
p3226
aVMYFACES-761
p3227
aVMYFACES-759
p3228
aVMYFACES-757
p3229
aVMYFACES-755
p3230
aVMYFACES-754
p3231
aVMYFACES-752
p3232
aVMYFACES-750
p3233
aVMYFACES-749
p3234
aVMYFACES-747
p3235
aVMYFACES-746
p3236
aVMYFACES-742
p3237
aVMYFACES-741
p3238
aVMYFACES-739
p3239
aVMYFACES-738
p3240
aVMYFACES-736
p3241
aVMYFACES-734
p3242
aVMYFACES-733
p3243
aVMYFACES-732
p3244
aVMYFACES-731
p3245
aVMYFACES-730
p3246
aVMYFACES-728
p3247
aVMYFACES-726
p3248
aVMYFACES-723
p3249
aVMYFACES-722
p3250
aVMYFACES-721
p3251
aVMYFACES-720
p3252
aVMYFACES-719
p3253
aVMYFACES-718
p3254
aVMYFACES-715
p3255
aVMYFACES-714
p3256
aVMYFACES-709
p3257
aVMYFACES-707
p3258
aVMYFACES-706
p3259
aVMYFACES-704
p3260
aVMYFACES-703
p3261
aVMYFACES-702
p3262
aVMYFACES-699
p3263
aVMYFACES-694
p3264
aVMYFACES-693
p3265
aVMYFACES-689
p3266
aVMYFACES-688
p3267
aVMYFACES-686
p3268
aVMYFACES-680
p3269
aVMYFACES-678
p3270
aVMYFACES-677
p3271
aVMYFACES-675
p3272
aVMYFACES-674
p3273
aVMYFACES-673
p3274
aVMYFACES-672
p3275
aVMYFACES-671
p3276
aVMYFACES-670
p3277
aVMYFACES-669
p3278
aVMYFACES-667
p3279
aVMYFACES-666
p3280
aVMYFACES-665
p3281
aVMYFACES-664
p3282
aVMYFACES-663
p3283
aVMYFACES-662
p3284
aVMYFACES-660
p3285
aVMYFACES-659
p3286
aVMYFACES-658
p3287
aVMYFACES-657
p3288
aVMYFACES-656
p3289
aVMYFACES-655
p3290
aVMYFACES-654
p3291
aVMYFACES-653
p3292
aVMYFACES-652
p3293
aVMYFACES-651
p3294
aVMYFACES-650
p3295
aVMYFACES-649
p3296
aVMYFACES-646
p3297
aVMYFACES-645
p3298
aVMYFACES-641
p3299
aVMYFACES-639
p3300
aVMYFACES-636
p3301
aVMYFACES-634
p3302
aVMYFACES-633
p3303
aVMYFACES-632
p3304
aVMYFACES-631
p3305
aVMYFACES-630
p3306
aVMYFACES-629
p3307
aVMYFACES-628
p3308
aVMYFACES-627
p3309
aVMYFACES-626
p3310
aVMYFACES-625
p3311
aVMYFACES-624
p3312
aVMYFACES-623
p3313
aVMYFACES-622
p3314
aVMYFACES-621
p3315
aVMYFACES-620
p3316
aVMYFACES-619
p3317
aVMYFACES-617
p3318
aVMYFACES-615
p3319
aVMYFACES-614
p3320
aVMYFACES-613
p3321
aVMYFACES-612
p3322
aVMYFACES-611
p3323
aVMYFACES-610
p3324
aVMYFACES-608
p3325
aVMYFACES-607
p3326
aVMYFACES-606
p3327
aVMYFACES-605
p3328
aVMYFACES-604
p3329
aVMYFACES-603
p3330
aVMYFACES-602
p3331
aVMYFACES-601
p3332
aVMYFACES-600
p3333
aVMYFACES-599
p3334
aVMYFACES-598
p3335
aVMYFACES-597
p3336
aVMYFACES-596
p3337
aVMYFACES-595
p3338
aVMYFACES-594
p3339
aVMYFACES-593
p3340
aVMYFACES-592
p3341
aVMYFACES-588
p3342
aVMYFACES-587
p3343
aVMYFACES-586
p3344
aVMYFACES-585
p3345
aVMYFACES-584
p3346
aVMYFACES-583
p3347
aVMYFACES-581
p3348
aVMYFACES-580
p3349
aVMYFACES-579
p3350
aVMYFACES-578
p3351
aVMYFACES-577
p3352
aVMYFACES-576
p3353
aVMYFACES-575
p3354
aVMYFACES-574
p3355
aVMYFACES-573
p3356
aVMYFACES-572
p3357
aVMYFACES-571
p3358
aVMYFACES-570
p3359
aVMYFACES-569
p3360
aVMYFACES-567
p3361
aVMYFACES-566
p3362
aVMYFACES-565
p3363
aVMYFACES-564
p3364
aVMYFACES-563
p3365
aVMYFACES-561
p3366
aVMYFACES-560
p3367
aVMYFACES-559
p3368
aVMYFACES-558
p3369
aVMYFACES-557
p3370
aVMYFACES-556
p3371
aVMYFACES-555
p3372
aVMYFACES-554
p3373
aVMYFACES-553
p3374
aVMYFACES-549
p3375
aVMYFACES-544
p3376
aVMYFACES-543
p3377
aVMYFACES-542
p3378
aVMYFACES-540
p3379
aVMYFACES-539
p3380
aVMYFACES-538
p3381
aVMYFACES-536
p3382
aVMYFACES-535
p3383
aVMYFACES-534
p3384
aVMYFACES-532
p3385
aVMYFACES-531
p3386
aVMYFACES-530
p3387
aVMYFACES-529
p3388
aVMYFACES-528
p3389
aVMYFACES-527
p3390
aVMYFACES-526
p3391
aVMYFACES-525
p3392
aVMYFACES-524
p3393
aVMYFACES-523
p3394
aVMYFACES-522
p3395
aVMYFACES-521
p3396
aVMYFACES-520
p3397
aVMYFACES-519
p3398
aVMYFACES-518
p3399
aVMYFACES-517
p3400
aVMYFACES-515
p3401
aVMYFACES-514
p3402
aVMYFACES-513
p3403
aVMYFACES-512
p3404
aVMYFACES-511
p3405
aVMYFACES-510
p3406
aVMYFACES-509
p3407
aVMYFACES-508
p3408
aVMYFACES-507
p3409
aVMYFACES-506
p3410
aVMYFACES-505
p3411
aVMYFACES-504
p3412
aVMYFACES-503
p3413
aVMYFACES-502
p3414
aVMYFACES-501
p3415
aVMYFACES-500
p3416
aVMYFACES-499
p3417
aVMYFACES-498
p3418
aVMYFACES-497
p3419
aVMYFACES-496
p3420
aVMYFACES-495
p3421
aVMYFACES-494
p3422
aVMYFACES-493
p3423
aVMYFACES-492
p3424
aVMYFACES-491
p3425
aVMYFACES-490
p3426
aVMYFACES-489
p3427
aVMYFACES-488
p3428
aVMYFACES-487
p3429
aVMYFACES-486
p3430
aVMYFACES-485
p3431
aVMYFACES-484
p3432
aVMYFACES-483
p3433
aVMYFACES-482
p3434
aVMYFACES-481
p3435
aVMYFACES-480
p3436
aVMYFACES-479
p3437
aVMYFACES-478
p3438
aVMYFACES-477
p3439
aVMYFACES-476
p3440
aVMYFACES-475
p3441
aVMYFACES-474
p3442
aVMYFACES-472
p3443
aVMYFACES-471
p3444
aVMYFACES-470
p3445
aVMYFACES-469
p3446
aVMYFACES-468
p3447
aVMYFACES-466
p3448
aVMYFACES-465
p3449
aVMYFACES-464
p3450
aVMYFACES-463
p3451
aVMYFACES-462
p3452
aVMYFACES-461
p3453
aVMYFACES-460
p3454
aVMYFACES-459
p3455
aVMYFACES-458
p3456
aVMYFACES-457
p3457
aVMYFACES-456
p3458
aVMYFACES-455
p3459
aVMYFACES-454
p3460
aVMYFACES-452
p3461
aVMYFACES-451
p3462
aVMYFACES-450
p3463
aVMYFACES-449
p3464
aVMYFACES-448
p3465
aVMYFACES-447
p3466
aVMYFACES-446
p3467
aVMYFACES-445
p3468
aVMYFACES-444
p3469
aVMYFACES-443
p3470
aVMYFACES-442
p3471
aVMYFACES-441
p3472
aVMYFACES-440
p3473
aVMYFACES-439
p3474
aVMYFACES-437
p3475
aVMYFACES-436
p3476
aVMYFACES-435
p3477
aVMYFACES-434
p3478
aVMYFACES-433
p3479
aVMYFACES-432
p3480
aVMYFACES-431
p3481
aVMYFACES-429
p3482
aVMYFACES-427
p3483
aVMYFACES-425
p3484
aVMYFACES-424
p3485
aVMYFACES-423
p3486
aVMYFACES-421
p3487
aVMYFACES-420
p3488
aVMYFACES-419
p3489
aVMYFACES-418
p3490
aVMYFACES-417
p3491
aVMYFACES-416
p3492
aVMYFACES-415
p3493
aVMYFACES-414
p3494
aVMYFACES-413
p3495
aVMYFACES-412
p3496
aVMYFACES-411
p3497
aVMYFACES-410
p3498
aVMYFACES-409
p3499
aVMYFACES-408
p3500
aVMYFACES-406
p3501
aVMYFACES-405
p3502
aVMYFACES-404
p3503
aVMYFACES-403
p3504
aVMYFACES-402
p3505
aVMYFACES-401
p3506
aVMYFACES-400
p3507
aVMYFACES-397
p3508
aVMYFACES-396
p3509
aVMYFACES-394
p3510
aVMYFACES-392
p3511
aVMYFACES-391
p3512
aVMYFACES-390
p3513
aVMYFACES-389
p3514
aVMYFACES-388
p3515
aVMYFACES-387
p3516
aVMYFACES-385
p3517
aVMYFACES-384
p3518
aVMYFACES-383
p3519
aVMYFACES-382
p3520
aVMYFACES-381
p3521
aVMYFACES-380
p3522
aVMYFACES-379
p3523
aVMYFACES-378
p3524
aVMYFACES-377
p3525
aVMYFACES-376
p3526
aVMYFACES-375
p3527
aVMYFACES-374
p3528
aVMYFACES-373
p3529
aVMYFACES-372
p3530
aVMYFACES-371
p3531
aVMYFACES-370
p3532
aVMYFACES-369
p3533
aVMYFACES-368
p3534
aVMYFACES-367
p3535
aVMYFACES-366
p3536
aVMYFACES-365
p3537
aVMYFACES-364
p3538
aVMYFACES-363
p3539
aVMYFACES-362
p3540
aVMYFACES-361
p3541
aVMYFACES-360
p3542
aVMYFACES-359
p3543
aVMYFACES-358
p3544
aVMYFACES-357
p3545
aVMYFACES-356
p3546
aVMYFACES-355
p3547
aVMYFACES-354
p3548
aVMYFACES-353
p3549
aVMYFACES-350
p3550
aVMYFACES-349
p3551
aVMYFACES-348
p3552
aVMYFACES-347
p3553
aVMYFACES-346
p3554
aVMYFACES-344
p3555
aVMYFACES-343
p3556
aVMYFACES-341
p3557
aVMYFACES-340
p3558
aVMYFACES-339
p3559
aVMYFACES-338
p3560
aVMYFACES-337
p3561
aVMYFACES-336
p3562
aVMYFACES-335
p3563
aVMYFACES-334
p3564
aVMYFACES-333
p3565
aVMYFACES-332
p3566
aVMYFACES-331
p3567
aVMYFACES-330
p3568
aVMYFACES-329
p3569
aVMYFACES-328
p3570
aVMYFACES-327
p3571
aVMYFACES-326
p3572
aVMYFACES-325
p3573
aVMYFACES-324
p3574
aVMYFACES-323
p3575
aVMYFACES-322
p3576
aVMYFACES-321
p3577
aVMYFACES-320
p3578
aVMYFACES-319
p3579
aVMYFACES-317
p3580
aVMYFACES-316
p3581
aVMYFACES-315
p3582
aVMYFACES-313
p3583
aVMYFACES-312
p3584
aVMYFACES-310
p3585
aVMYFACES-309
p3586
aVMYFACES-308
p3587
aVMYFACES-307
p3588
aVMYFACES-306
p3589
aVMYFACES-305
p3590
aVMYFACES-304
p3591
aVMYFACES-303
p3592
aVMYFACES-302
p3593
aVMYFACES-301
p3594
aVMYFACES-300
p3595
aVMYFACES-299
p3596
aVMYFACES-298
p3597
aVMYFACES-297
p3598
aVMYFACES-296
p3599
aVMYFACES-295
p3600
aVMYFACES-294
p3601
aVMYFACES-293
p3602
aVMYFACES-292
p3603
aVMYFACES-291
p3604
aVMYFACES-289
p3605
aVMYFACES-288
p3606
aVMYFACES-287
p3607
aVMYFACES-286
p3608
aVMYFACES-285
p3609
aVMYFACES-284
p3610
aVMYFACES-283
p3611
aVMYFACES-282
p3612
aVMYFACES-281
p3613
aVMYFACES-279
p3614
aVMYFACES-278
p3615
aVMYFACES-277
p3616
aVMYFACES-276
p3617
aVMYFACES-275
p3618
aVMYFACES-274
p3619
aVMYFACES-273
p3620
aVMYFACES-272
p3621
aVMYFACES-271
p3622
aVMYFACES-270
p3623
aVMYFACES-269
p3624
aVMYFACES-268
p3625
aVMYFACES-267
p3626
aVMYFACES-266
p3627
aVMYFACES-265
p3628
aVMYFACES-264
p3629
aVMYFACES-263
p3630
aVMYFACES-262
p3631
aVMYFACES-261
p3632
aVMYFACES-260
p3633
aVMYFACES-259
p3634
aVMYFACES-258
p3635
aVMYFACES-257
p3636
aVMYFACES-255
p3637
aVMYFACES-254
p3638
aVMYFACES-253
p3639
aVMYFACES-252
p3640
aVMYFACES-251
p3641
aVMYFACES-250
p3642
aVMYFACES-249
p3643
aVMYFACES-247
p3644
aVMYFACES-246
p3645
aVMYFACES-245
p3646
aVMYFACES-244
p3647
aVMYFACES-243
p3648
aVMYFACES-242
p3649
aVMYFACES-241
p3650
aVMYFACES-240
p3651
aVMYFACES-239
p3652
aVMYFACES-237
p3653
aVMYFACES-236
p3654
aVMYFACES-235
p3655
aVMYFACES-234
p3656
aVMYFACES-232
p3657
aVMYFACES-231
p3658
aVMYFACES-230
p3659
aVMYFACES-229
p3660
aVMYFACES-228
p3661
aVMYFACES-227
p3662
aVMYFACES-226
p3663
aVMYFACES-225
p3664
aVMYFACES-224
p3665
aVMYFACES-223
p3666
aVMYFACES-222
p3667
aVMYFACES-221
p3668
aVMYFACES-220
p3669
aVMYFACES-219
p3670
aVMYFACES-218
p3671
aVMYFACES-217
p3672
aVMYFACES-216
p3673
aVMYFACES-215
p3674
aVMYFACES-214
p3675
aVMYFACES-213
p3676
aVMYFACES-212
p3677
aVMYFACES-211
p3678
aVMYFACES-210
p3679
aVMYFACES-209
p3680
aVMYFACES-208
p3681
aVMYFACES-207
p3682
aVMYFACES-206
p3683
aVMYFACES-205
p3684
aVMYFACES-204
p3685
aVMYFACES-203
p3686
aVMYFACES-202
p3687
aVMYFACES-201
p3688
aVMYFACES-200
p3689
aVMYFACES-199
p3690
aVMYFACES-198
p3691
aVMYFACES-197
p3692
aVMYFACES-196
p3693
aVMYFACES-195
p3694
aVMYFACES-194
p3695
aVMYFACES-193
p3696
aVMYFACES-192
p3697
aVMYFACES-191
p3698
aVMYFACES-190
p3699
aVMYFACES-189
p3700
aVMYFACES-188
p3701
aVMYFACES-187
p3702
aVMYFACES-186
p3703
aVMYFACES-185
p3704
aVMYFACES-184
p3705
aVMYFACES-183
p3706
aVMYFACES-182
p3707
aVMYFACES-181
p3708
aVMYFACES-180
p3709
aVMYFACES-179
p3710
aVMYFACES-178
p3711
aVMYFACES-177
p3712
aVMYFACES-176
p3713
aVMYFACES-175
p3714
aVMYFACES-174
p3715
aVMYFACES-173
p3716
aVMYFACES-172
p3717
aVMYFACES-171
p3718
aVMYFACES-170
p3719
aVMYFACES-169
p3720
aVMYFACES-167
p3721
aVMYFACES-166
p3722
aVMYFACES-165
p3723
aVMYFACES-164
p3724
aVMYFACES-163
p3725
aVMYFACES-162
p3726
aVMYFACES-161
p3727
aVMYFACES-160
p3728
aVMYFACES-159
p3729
aVMYFACES-158
p3730
aVMYFACES-157
p3731
aVMYFACES-156
p3732
aVMYFACES-155
p3733
aVMYFACES-154
p3734
aVMYFACES-153
p3735
aVMYFACES-152
p3736
aVMYFACES-151
p3737
aVMYFACES-150
p3738
aVMYFACES-149
p3739
aVMYFACES-148
p3740
aVMYFACES-147
p3741
aVMYFACES-146
p3742
aVMYFACES-145
p3743
aVMYFACES-144
p3744
aVMYFACES-143
p3745
aVMYFACES-142
p3746
aVMYFACES-141
p3747
aVMYFACES-140
p3748
aVMYFACES-139
p3749
aVMYFACES-138
p3750
aVMYFACES-137
p3751
aVMYFACES-136
p3752
aVMYFACES-135
p3753
aVMYFACES-134
p3754
aVMYFACES-133
p3755
aVMYFACES-132
p3756
aVMYFACES-131
p3757
aVMYFACES-130
p3758
aVMYFACES-129
p3759
aVMYFACES-128
p3760
aVMYFACES-127
p3761
aVMYFACES-126
p3762
aVMYFACES-125
p3763
aVMYFACES-124
p3764
aVMYFACES-123
p3765
aVMYFACES-122
p3766
aVMYFACES-121
p3767
aVMYFACES-120
p3768
aVMYFACES-119
p3769
aVMYFACES-118
p3770
aVMYFACES-117
p3771
aVMYFACES-116
p3772
aVMYFACES-115
p3773
aVMYFACES-114
p3774
aVMYFACES-113
p3775
aVMYFACES-112
p3776
aVMYFACES-111
p3777
aVMYFACES-110
p3778
aVMYFACES-109
p3779
aVMYFACES-108
p3780
aVMYFACES-107
p3781
aVMYFACES-106
p3782
aVMYFACES-105
p3783
aVMYFACES-104
p3784
aVMYFACES-103
p3785
aVMYFACES-102
p3786
aVMYFACES-101
p3787
aVMYFACES-100
p3788
aVMYFACES-99
p3789
aVMYFACES-98
p3790
aVMYFACES-97
p3791
aVMYFACES-96
p3792
aVMYFACES-95
p3793
aVMYFACES-94
p3794
aVMYFACES-93
p3795
aVMYFACES-92
p3796
aVMYFACES-91
p3797
aVMYFACES-90
p3798
aVMYFACES-89
p3799
aVMYFACES-88
p3800
aVMYFACES-86
p3801
aVMYFACES-85
p3802
aVMYFACES-84
p3803
aVMYFACES-83
p3804
aVMYFACES-82
p3805
aVMYFACES-81
p3806
aVMYFACES-80
p3807
aVMYFACES-79
p3808
aVMYFACES-78
p3809
aVMYFACES-77
p3810
aVMYFACES-76
p3811
aVMYFACES-75
p3812
aVMYFACES-74
p3813
aVMYFACES-73
p3814
aVMYFACES-72
p3815
aVMYFACES-71
p3816
aVMYFACES-70
p3817
aVMYFACES-69
p3818
aVMYFACES-68
p3819
aVMYFACES-67
p3820
aVMYFACES-66
p3821
aVMYFACES-65
p3822
aVMYFACES-64
p3823
aVMYFACES-63
p3824
aVMYFACES-62
p3825
aVMYFACES-61
p3826
aVMYFACES-60
p3827
aVMYFACES-59
p3828
aVMYFACES-58
p3829
aVMYFACES-57
p3830
aVMYFACES-56
p3831
aVMYFACES-55
p3832
aVMYFACES-54
p3833
aVMYFACES-53
p3834
aVMYFACES-52
p3835
aVMYFACES-51
p3836
aVMYFACES-50
p3837
aVMYFACES-49
p3838
aVMYFACES-48
p3839
aVMYFACES-47
p3840
aVMYFACES-46
p3841
aVMYFACES-45
p3842
aVMYFACES-44
p3843
aVMYFACES-43
p3844
aVMYFACES-42
p3845
aVMYFACES-40
p3846
aVMYFACES-39
p3847
aVMYFACES-38
p3848
aVMYFACES-37
p3849
aVMYFACES-36
p3850
aVMYFACES-35
p3851
aVMYFACES-34
p3852
aVMYFACES-32
p3853
aVMYFACES-31
p3854
aVMYFACES-30
p3855
aVMYFACES-29
p3856
aVMYFACES-28
p3857
aVMYFACES-26
p3858
aVMYFACES-25
p3859
aVMYFACES-24
p3860
aVMYFACES-22
p3861
aVMYFACES-21
p3862
aVMYFACES-20
p3863
aVMYFACES-18
p3864
aVMYFACES-17
p3865
aVMYFACES-16
p3866
aVMYFACES-14
p3867
aVMYFACES-13
p3868
aVMYFACES-12
p3869
aVMYFACES-11
p3870
aVMYFACES-10
p3871
aVMYFACES-9
p3872
aVMYFACES-8
p3873
aVMYFACES-7
p3874
aVMYFACES-6
p3875
aVMYFACES-2
p3876
aVMYFACES-1
p3877
a.