(lp0
VMYFACESTEST-72
p1
aVMYFACESTEST-71
p2
aVMYFACESTEST-70
p3
aVMYFACESTEST-69
p4
aVMYFACESTEST-68
p5
aVMYFACESTEST-67
p6
aVMYFACESTEST-66
p7
aVMYFACESTEST-65
p8
aVMYFACESTEST-64
p9
aVMYFACESTEST-63
p10
aVMYFACESTEST-62
p11
aVMYFACESTEST-61
p12
aVMYFACESTEST-60
p13
aVMYFACESTEST-59
p14
aVMYFACESTEST-58
p15
aVMYFACESTEST-57
p16
aVMYFACESTEST-56
p17
aVMYFACESTEST-55
p18
aVMYFACESTEST-54
p19
aVMYFACESTEST-53
p20
aVMYFACESTEST-52
p21
aVMYFACESTEST-51
p22
aVMYFACESTEST-50
p23
aVMYFACESTEST-49
p24
aVMYFACESTEST-48
p25
aVMYFACESTEST-47
p26
aVMYFACESTEST-46
p27
aVMYFACESTEST-45
p28
aVMYFACESTEST-44
p29
aVMYFACESTEST-43
p30
aVMYFACESTEST-42
p31
aVMYFACESTEST-41
p32
aVMYFACESTEST-40
p33
aVMYFACESTEST-39
p34
aVMYFACESTEST-38
p35
aVMYFACESTEST-37
p36
aVMYFACESTEST-36
p37
aVMYFACESTEST-35
p38
aVMYFACESTEST-34
p39
aVMYFACESTEST-33
p40
aVMYFACESTEST-32
p41
aVMYFACESTEST-31
p42
aVMYFACESTEST-30
p43
aVMYFACESTEST-29
p44
aVMYFACESTEST-28
p45
aVMYFACESTEST-27
p46
aVMYFACESTEST-26
p47
aVMYFACESTEST-25
p48
aVMYFACESTEST-24
p49
aVMYFACESTEST-23
p50
aVMYFACESTEST-22
p51
aVMYFACESTEST-21
p52
aVMYFACESTEST-20
p53
aVMYFACESTEST-19
p54
aVMYFACESTEST-18
p55
aVMYFACESTEST-17
p56
aVMYFACESTEST-16
p57
aVMYFACESTEST-15
p58
aVMYFACESTEST-14
p59
aVMYFACESTEST-13
p60
aVMYFACESTEST-12
p61
aVMYFACESTEST-11
p62
aVMYFACESTEST-10
p63
aVMYFACESTEST-9
p64
aVMYFACESTEST-8
p65
aVMYFACESTEST-7
p66
aVMYFACESTEST-6
p67
aVMYFACESTEST-5
p68
aVMYFACESTEST-4
p69
aVMYFACESTEST-3
p70
aVMYFACESTEST-2
p71
aVMYFACESTEST-1
p72
a.