(lp0
VNET-661
p1
aVNET-660
p2
aVNET-659
p3
aVNET-658
p4
aVNET-657
p5
aVNET-656
p6
aVNET-655
p7
aVNET-654
p8
aVNET-652
p9
aVNET-651
p10
aVNET-650
p11
aVNET-649
p12
aVNET-648
p13
aVNET-647
p14
aVNET-646
p15
aVNET-645
p16
aVNET-644
p17
aVNET-643
p18
aVNET-642
p19
aVNET-641
p20
aVNET-640
p21
aVNET-639
p22
aVNET-638
p23
aVNET-637
p24
aVNET-636
p25
aVNET-635
p26
aVNET-634
p27
aVNET-633
p28
aVNET-632
p29
aVNET-631
p30
aVNET-630
p31
aVNET-629
p32
aVNET-628
p33
aVNET-627
p34
aVNET-626
p35
aVNET-625
p36
aVNET-624
p37
aVNET-623
p38
aVNET-622
p39
aVNET-621
p40
aVNET-620
p41
aVNET-619
p42
aVNET-618
p43
aVNET-617
p44
aVNET-616
p45
aVNET-615
p46
aVNET-614
p47
aVNET-613
p48
aVNET-612
p49
aVNET-611
p50
aVNET-610
p51
aVNET-609
p52
aVNET-608
p53
aVNET-607
p54
aVNET-606
p55
aVNET-605
p56
aVNET-604
p57
aVNET-602
p58
aVNET-601
p59
aVNET-600
p60
aVNET-599
p61
aVNET-598
p62
aVNET-597
p63
aVNET-596
p64
aVNET-595
p65
aVNET-594
p66
aVNET-593
p67
aVNET-592
p68
aVNET-591
p69
aVNET-590
p70
aVNET-589
p71
aVNET-588
p72
aVNET-587
p73
aVNET-586
p74
aVNET-585
p75
aVNET-584
p76
aVNET-583
p77
aVNET-582
p78
aVNET-581
p79
aVNET-580
p80
aVNET-579
p81
aVNET-578
p82
aVNET-577
p83
aVNET-576
p84
aVNET-575
p85
aVNET-574
p86
aVNET-573
p87
aVNET-572
p88
aVNET-571
p89
aVNET-570
p90
aVNET-569
p91
aVNET-568
p92
aVNET-567
p93
aVNET-566
p94
aVNET-565
p95
aVNET-564
p96
aVNET-563
p97
aVNET-562
p98
aVNET-561
p99
aVNET-560
p100
aVNET-559
p101
aVNET-558
p102
aVNET-557
p103
aVNET-556
p104
aVNET-555
p105
aVNET-554
p106
aVNET-553
p107
aVNET-552
p108
aVNET-551
p109
aVNET-550
p110
aVNET-549
p111
aVNET-548
p112
aVNET-547
p113
aVNET-546
p114
aVNET-545
p115
aVNET-544
p116
aVNET-543
p117
aVNET-542
p118
aVNET-541
p119
aVNET-540
p120
aVNET-539
p121
aVNET-538
p122
aVNET-537
p123
aVNET-536
p124
aVNET-535
p125
aVNET-534
p126
aVNET-533
p127
aVNET-532
p128
aVNET-531
p129
aVNET-530
p130
aVNET-529
p131
aVNET-528
p132
aVNET-527
p133
aVNET-526
p134
aVNET-525
p135
aVNET-523
p136
aVNET-522
p137
aVNET-521
p138
aVNET-520
p139
aVNET-519
p140
aVNET-518
p141
aVNET-517
p142
aVNET-516
p143
aVNET-515
p144
aVNET-514
p145
aVNET-513
p146
aVNET-512
p147
aVNET-511
p148
aVNET-510
p149
aVNET-509
p150
aVNET-508
p151
aVNET-507
p152
aVNET-506
p153
aVNET-505
p154
aVNET-504
p155
aVNET-503
p156
aVNET-502
p157
aVNET-501
p158
aVNET-500
p159
aVNET-499
p160
aVNET-498
p161
aVNET-497
p162
aVNET-496
p163
aVNET-495
p164
aVNET-494
p165
aVNET-493
p166
aVNET-492
p167
aVNET-491
p168
aVNET-490
p169
aVNET-489
p170
aVNET-488
p171
aVNET-487
p172
aVNET-486
p173
aVNET-485
p174
aVNET-484
p175
aVNET-483
p176
aVNET-482
p177
aVNET-481
p178
aVNET-480
p179
aVNET-479
p180
aVNET-478
p181
aVNET-477
p182
aVNET-476
p183
aVNET-475
p184
aVNET-474
p185
aVNET-473
p186
aVNET-472
p187
aVNET-471
p188
aVNET-470
p189
aVNET-469
p190
aVNET-468
p191
aVNET-467
p192
aVNET-466
p193
aVNET-465
p194
aVNET-464
p195
aVNET-463
p196
aVNET-462
p197
aVNET-461
p198
aVNET-460
p199
aVNET-459
p200
aVNET-458
p201
aVNET-457
p202
aVNET-456
p203
aVNET-455
p204
aVNET-454
p205
aVNET-451
p206
aVNET-450
p207
aVNET-449
p208
aVNET-448
p209
aVNET-447
p210
aVNET-446
p211
aVNET-445
p212
aVNET-444
p213
aVNET-443
p214
aVNET-442
p215
aVNET-441
p216
aVNET-440
p217
aVNET-438
p218
aVNET-437
p219
aVNET-436
p220
aVNET-435
p221
aVNET-434
p222
aVNET-433
p223
aVNET-432
p224
aVNET-431
p225
aVNET-430
p226
aVNET-429
p227
aVNET-428
p228
aVNET-427
p229
aVNET-426
p230
aVNET-425
p231
aVNET-424
p232
aVNET-423
p233
aVNET-422
p234
aVNET-421
p235
aVNET-420
p236
aVNET-419
p237
aVNET-418
p238
aVNET-417
p239
aVNET-416
p240
aVNET-415
p241
aVNET-414
p242
aVNET-413
p243
aVNET-412
p244
aVNET-411
p245
aVNET-410
p246
aVNET-409
p247
aVNET-408
p248
aVNET-407
p249
aVNET-406
p250
aVNET-405
p251
aVNET-404
p252
aVNET-403
p253
aVNET-402
p254
aVNET-401
p255
aVNET-400
p256
aVNET-399
p257
aVNET-398
p258
aVNET-397
p259
aVNET-396
p260
aVNET-395
p261
aVNET-394
p262
aVNET-393
p263
aVNET-392
p264
aVNET-391
p265
aVNET-390
p266
aVNET-389
p267
aVNET-388
p268
aVNET-387
p269
aVNET-386
p270
aVNET-385
p271
aVNET-384
p272
aVNET-383
p273
aVNET-382
p274
aVNET-381
p275
aVNET-379
p276
aVNET-378
p277
aVNET-377
p278
aVNET-376
p279
aVNET-375
p280
aVNET-374
p281
aVNET-373
p282
aVNET-372
p283
aVNET-371
p284
aVNET-370
p285
aVNET-369
p286
aVNET-368
p287
aVNET-367
p288
aVNET-366
p289
aVNET-365
p290
aVNET-364
p291
aVNET-363
p292
aVNET-362
p293
aVNET-361
p294
aVNET-360
p295
aVNET-359
p296
aVNET-358
p297
aVNET-357
p298
aVNET-356
p299
aVNET-355
p300
aVNET-354
p301
aVNET-353
p302
aVNET-352
p303
aVNET-351
p304
aVNET-350
p305
aVNET-349
p306
aVNET-348
p307
aVNET-347
p308
aVNET-346
p309
aVNET-345
p310
aVNET-344
p311
aVNET-343
p312
aVNET-342
p313
aVNET-341
p314
aVNET-340
p315
aVNET-339
p316
aVNET-338
p317
aVNET-337
p318
aVNET-336
p319
aVNET-335
p320
aVNET-334
p321
aVNET-333
p322
aVNET-332
p323
aVNET-331
p324
aVNET-330
p325
aVNET-329
p326
aVNET-328
p327
aVNET-327
p328
aVNET-326
p329
aVNET-325
p330
aVNET-324
p331
aVNET-323
p332
aVNET-322
p333
aVNET-321
p334
aVNET-320
p335
aVNET-319
p336
aVNET-318
p337
aVNET-317
p338
aVNET-316
p339
aVNET-315
p340
aVNET-314
p341
aVNET-313
p342
aVNET-312
p343
aVNET-311
p344
aVNET-310
p345
aVNET-309
p346
aVNET-308
p347
aVNET-307
p348
aVNET-306
p349
aVNET-305
p350
aVNET-304
p351
aVNET-303
p352
aVNET-302
p353
aVNET-301
p354
aVNET-300
p355
aVNET-299
p356
aVNET-298
p357
aVNET-297
p358
aVNET-296
p359
aVNET-295
p360
aVNET-294
p361
aVNET-293
p362
aVNET-292
p363
aVNET-291
p364
aVNET-290
p365
aVNET-289
p366
aVNET-288
p367
aVNET-287
p368
aVNET-286
p369
aVNET-285
p370
aVNET-284
p371
aVNET-283
p372
aVNET-282
p373
aVNET-281
p374
aVNET-280
p375
aVNET-279
p376
aVNET-278
p377
aVNET-277
p378
aVNET-276
p379
aVNET-275
p380
aVNET-274
p381
aVNET-273
p382
aVNET-272
p383
aVNET-271
p384
aVNET-270
p385
aVNET-269
p386
aVNET-268
p387
aVNET-267
p388
aVNET-266
p389
aVNET-265
p390
aVNET-264
p391
aVNET-263
p392
aVNET-262
p393
aVNET-261
p394
aVNET-260
p395
aVNET-259
p396
aVNET-258
p397
aVNET-257
p398
aVNET-256
p399
aVNET-255
p400
aVNET-254
p401
aVNET-253
p402
aVNET-252
p403
aVNET-251
p404
aVNET-250
p405
aVNET-249
p406
aVNET-248
p407
aVNET-247
p408
aVNET-246
p409
aVNET-245
p410
aVNET-244
p411
aVNET-243
p412
aVNET-242
p413
aVNET-241
p414
aVNET-240
p415
aVNET-239
p416
aVNET-238
p417
aVNET-237
p418
aVNET-236
p419
aVNET-235
p420
aVNET-234
p421
aVNET-233
p422
aVNET-232
p423
aVNET-231
p424
aVNET-230
p425
aVNET-229
p426
aVNET-228
p427
aVNET-227
p428
aVNET-226
p429
aVNET-225
p430
aVNET-224
p431
aVNET-223
p432
aVNET-222
p433
aVNET-221
p434
aVNET-220
p435
aVNET-219
p436
aVNET-218
p437
aVNET-217
p438
aVNET-216
p439
aVNET-215
p440
aVNET-214
p441
aVNET-213
p442
aVNET-212
p443
aVNET-211
p444
aVNET-210
p445
aVNET-209
p446
aVNET-208
p447
aVNET-207
p448
aVNET-206
p449
aVNET-205
p450
aVNET-204
p451
aVNET-203
p452
aVNET-202
p453
aVNET-201
p454
aVNET-200
p455
aVNET-199
p456
aVNET-198
p457
aVNET-197
p458
aVNET-196
p459
aVNET-195
p460
aVNET-194
p461
aVNET-193
p462
aVNET-192
p463
aVNET-191
p464
aVNET-190
p465
aVNET-189
p466
aVNET-188
p467
aVNET-187
p468
aVNET-186
p469
aVNET-185
p470
aVNET-184
p471
aVNET-183
p472
aVNET-182
p473
aVNET-181
p474
aVNET-180
p475
aVNET-179
p476
aVNET-178
p477
aVNET-177
p478
aVNET-176
p479
aVNET-175
p480
aVNET-174
p481
aVNET-173
p482
aVNET-172
p483
aVNET-171
p484
aVNET-170
p485
aVNET-169
p486
aVNET-168
p487
aVNET-167
p488
aVNET-166
p489
aVNET-165
p490
aVNET-164
p491
aVNET-163
p492
aVNET-162
p493
aVNET-161
p494
aVNET-160
p495
aVNET-159
p496
aVNET-158
p497
aVNET-157
p498
aVNET-156
p499
aVNET-155
p500
aVNET-154
p501
aVNET-153
p502
aVNET-152
p503
aVNET-151
p504
aVNET-150
p505
aVNET-149
p506
aVNET-148
p507
aVNET-147
p508
aVNET-146
p509
aVNET-145
p510
aVNET-144
p511
aVNET-143
p512
aVNET-142
p513
aVNET-141
p514
aVNET-140
p515
aVNET-139
p516
aVNET-138
p517
aVNET-137
p518
aVNET-136
p519
aVNET-135
p520
aVNET-134
p521
aVNET-133
p522
aVNET-132
p523
aVNET-131
p524
aVNET-130
p525
aVNET-129
p526
aVNET-128
p527
aVNET-127
p528
aVNET-126
p529
aVNET-125
p530
aVNET-124
p531
aVNET-123
p532
aVNET-122
p533
aVNET-121
p534
aVNET-120
p535
aVNET-119
p536
aVNET-118
p537
aVNET-117
p538
aVNET-116
p539
aVNET-115
p540
aVNET-114
p541
aVNET-113
p542
aVNET-112
p543
aVNET-111
p544
aVNET-110
p545
aVNET-109
p546
aVNET-108
p547
aVNET-107
p548
aVNET-106
p549
aVNET-105
p550
aVNET-104
p551
aVNET-103
p552
aVNET-102
p553
aVNET-101
p554
aVNET-100
p555
aVNET-99
p556
aVNET-98
p557
aVNET-97
p558
aVNET-96
p559
aVNET-95
p560
aVNET-94
p561
aVNET-93
p562
aVNET-92
p563
aVNET-91
p564
aVNET-90
p565
aVNET-89
p566
aVNET-88
p567
aVNET-87
p568
aVNET-86
p569
aVNET-85
p570
aVNET-84
p571
aVNET-83
p572
aVNET-82
p573
aVNET-81
p574
aVNET-80
p575
aVNET-79
p576
aVNET-78
p577
aVNET-77
p578
aVNET-76
p579
aVNET-75
p580
aVNET-74
p581
aVNET-73
p582
aVNET-72
p583
aVNET-71
p584
aVNET-70
p585
aVNET-69
p586
aVNET-68
p587
aVNET-67
p588
aVNET-66
p589
aVNET-65
p590
aVNET-64
p591
aVNET-63
p592
aVNET-62
p593
aVNET-61
p594
aVNET-60
p595
aVNET-59
p596
aVNET-58
p597
aVNET-57
p598
aVNET-56
p599
aVNET-55
p600
aVNET-54
p601
aVNET-53
p602
aVNET-52
p603
aVNET-51
p604
aVNET-50
p605
aVNET-49
p606
aVNET-48
p607
aVNET-47
p608
aVNET-46
p609
aVNET-45
p610
aVNET-44
p611
aVNET-43
p612
aVNET-42
p613
aVNET-41
p614
aVNET-40
p615
aVNET-39
p616
aVNET-38
p617
aVNET-37
p618
aVNET-36
p619
aVNET-35
p620
aVNET-34
p621
aVNET-33
p622
aVNET-32
p623
aVNET-31
p624
aVNET-30
p625
aVNET-29
p626
aVNET-28
p627
aVNET-27
p628
aVNET-26
p629
aVNET-25
p630
aVNET-24
p631
aVNET-23
p632
aVNET-22
p633
aVNET-21
p634
aVNET-20
p635
aVNET-19
p636
aVNET-18
p637
aVNET-17
p638
aVNET-16
p639
aVNET-15
p640
aVNET-14
p641
aVNET-13
p642
aVNET-12
p643
aVNET-11
p644
aVNET-10
p645
aVNET-9
p646
aVNET-8
p647
aVNET-7
p648
aVNET-6
p649
aVNET-5
p650
aVNET-4
p651
aVNET-3
p652
aVNET-2
p653
aVNET-1
p654
a.