(lp0
VNIFIREG-188
p1
aVNIFIREG-187
p2
aVNIFIREG-186
p3
aVNIFIREG-185
p4
aVNIFIREG-184
p5
aVNIFIREG-183
p6
aVNIFIREG-182
p7
aVNIFIREG-181
p8
aVNIFIREG-180
p9
aVNIFIREG-179
p10
aVNIFIREG-178
p11
aVNIFIREG-177
p12
aVNIFIREG-176
p13
aVNIFIREG-175
p14
aVNIFIREG-174
p15
aVNIFIREG-173
p16
aVNIFIREG-172
p17
aVNIFIREG-171
p18
aVNIFIREG-170
p19
aVNIFIREG-169
p20
aVNIFIREG-168
p21
aVNIFIREG-166
p22
aVNIFIREG-165
p23
aVNIFIREG-164
p24
aVNIFIREG-163
p25
aVNIFIREG-162
p26
aVNIFIREG-161
p27
aVNIFIREG-160
p28
aVNIFIREG-159
p29
aVNIFIREG-158
p30
aVNIFIREG-157
p31
aVNIFIREG-156
p32
aVNIFIREG-155
p33
aVNIFIREG-154
p34
aVNIFIREG-153
p35
aVNIFIREG-152
p36
aVNIFIREG-151
p37
aVNIFIREG-150
p38
aVNIFIREG-149
p39
aVNIFIREG-148
p40
aVNIFIREG-147
p41
aVNIFIREG-146
p42
aVNIFIREG-145
p43
aVNIFIREG-144
p44
aVNIFIREG-143
p45
aVNIFIREG-142
p46
aVNIFIREG-141
p47
aVNIFIREG-140
p48
aVNIFIREG-139
p49
aVNIFIREG-138
p50
aVNIFIREG-137
p51
aVNIFIREG-136
p52
aVNIFIREG-135
p53
aVNIFIREG-134
p54
aVNIFIREG-133
p55
aVNIFIREG-132
p56
aVNIFIREG-131
p57
aVNIFIREG-130
p58
aVNIFIREG-129
p59
aVNIFIREG-128
p60
aVNIFIREG-127
p61
aVNIFIREG-126
p62
aVNIFIREG-125
p63
aVNIFIREG-124
p64
aVNIFIREG-123
p65
aVNIFIREG-122
p66
aVNIFIREG-121
p67
aVNIFIREG-120
p68
aVNIFIREG-119
p69
aVNIFIREG-118
p70
aVNIFIREG-117
p71
aVNIFIREG-116
p72
aVNIFIREG-115
p73
aVNIFIREG-114
p74
aVNIFIREG-113
p75
aVNIFIREG-112
p76
aVNIFIREG-111
p77
aVNIFIREG-110
p78
aVNIFIREG-109
p79
aVNIFIREG-108
p80
aVNIFIREG-107
p81
aVNIFIREG-106
p82
aVNIFIREG-105
p83
aVNIFIREG-104
p84
aVNIFIREG-103
p85
aVNIFIREG-102
p86
aVNIFIREG-101
p87
aVNIFIREG-100
p88
aVNIFIREG-99
p89
aVNIFIREG-98
p90
aVNIFIREG-97
p91
aVNIFIREG-96
p92
aVNIFIREG-95
p93
aVNIFIREG-94
p94
aVNIFIREG-93
p95
aVNIFIREG-92
p96
aVNIFIREG-91
p97
aVNIFIREG-90
p98
aVNIFIREG-89
p99
aVNIFIREG-88
p100
aVNIFIREG-87
p101
aVNIFIREG-86
p102
aVNIFIREG-85
p103
aVNIFIREG-84
p104
aVNIFIREG-83
p105
aVNIFIREG-82
p106
aVNIFIREG-81
p107
aVNIFIREG-80
p108
aVNIFIREG-79
p109
aVNIFIREG-78
p110
aVNIFIREG-77
p111
aVNIFIREG-76
p112
aVNIFIREG-75
p113
aVNIFIREG-74
p114
aVNIFIREG-73
p115
aVNIFIREG-72
p116
aVNIFIREG-71
p117
aVNIFIREG-70
p118
aVNIFIREG-69
p119
aVNIFIREG-68
p120
aVNIFIREG-67
p121
aVNIFIREG-66
p122
aVNIFIREG-65
p123
aVNIFIREG-64
p124
aVNIFIREG-63
p125
aVNIFIREG-62
p126
aVNIFIREG-61
p127
aVNIFIREG-60
p128
aVNIFIREG-59
p129
aVNIFIREG-58
p130
aVNIFIREG-57
p131
aVNIFIREG-56
p132
aVNIFIREG-55
p133
aVNIFIREG-54
p134
aVNIFIREG-53
p135
aVNIFIREG-52
p136
aVNIFIREG-51
p137
aVNIFIREG-50
p138
aVNIFIREG-49
p139
aVNIFIREG-48
p140
aVNIFIREG-47
p141
aVNIFIREG-46
p142
aVNIFIREG-45
p143
aVNIFIREG-44
p144
aVNIFIREG-43
p145
aVNIFIREG-42
p146
aVNIFIREG-41
p147
aVNIFIREG-40
p148
aVNIFIREG-39
p149
aVNIFIREG-38
p150
aVNIFIREG-37
p151
aVNIFIREG-36
p152
aVNIFIREG-35
p153
aVNIFIREG-34
p154
aVNIFIREG-33
p155
aVNIFIREG-32
p156
aVNIFIREG-31
p157
aVNIFIREG-30
p158
aVNIFIREG-29
p159
aVNIFIREG-28
p160
aVNIFIREG-27
p161
aVNIFIREG-26
p162
aVNIFIREG-25
p163
aVNIFIREG-24
p164
aVNIFIREG-23
p165
aVNIFIREG-22
p166
aVNIFIREG-21
p167
aVNIFIREG-20
p168
aVNIFIREG-19
p169
aVNIFIREG-18
p170
aVNIFIREG-17
p171
aVNIFIREG-16
p172
aVNIFIREG-15
p173
aVNIFIREG-14
p174
aVNIFIREG-13
p175
aVNIFIREG-12
p176
aVNIFIREG-11
p177
aVNIFIREG-10
p178
aVNIFIREG-9
p179
aVNIFIREG-8
p180
aVNIFIREG-7
p181
aVNIFIREG-6
p182
aVNIFIREG-5
p183
aVNIFIREG-4
p184
aVNIFIREG-3
p185
aVNIFIREG-2
p186
aVNIFIREG-1
p187
a.