(lp0
VNUMBERS-73
p1
aVNUMBERS-72
p2
aVNUMBERS-71
p3
aVNUMBERS-70
p4
aVNUMBERS-69
p5
aVNUMBERS-68
p6
aVNUMBERS-67
p7
aVNUMBERS-66
p8
aVNUMBERS-65
p9
aVNUMBERS-64
p10
aVNUMBERS-63
p11
aVNUMBERS-62
p12
aVNUMBERS-61
p13
aVNUMBERS-60
p14
aVNUMBERS-59
p15
aVNUMBERS-58
p16
aVNUMBERS-57
p17
aVNUMBERS-56
p18
aVNUMBERS-55
p19
aVNUMBERS-54
p20
aVNUMBERS-53
p21
aVNUMBERS-52
p22
aVNUMBERS-51
p23
aVNUMBERS-50
p24
aVNUMBERS-49
p25
aVNUMBERS-48
p26
aVNUMBERS-47
p27
aVNUMBERS-46
p28
aVNUMBERS-45
p29
aVNUMBERS-44
p30
aVNUMBERS-43
p31
aVNUMBERS-42
p32
aVNUMBERS-41
p33
aVNUMBERS-40
p34
aVNUMBERS-39
p35
aVNUMBERS-38
p36
aVNUMBERS-37
p37
aVNUMBERS-36
p38
aVNUMBERS-35
p39
aVNUMBERS-33
p40
aVNUMBERS-32
p41
aVNUMBERS-31
p42
aVNUMBERS-30
p43
aVNUMBERS-29
p44
aVNUMBERS-28
p45
aVNUMBERS-27
p46
aVNUMBERS-26
p47
aVNUMBERS-25
p48
aVNUMBERS-24
p49
aVNUMBERS-23
p50
aVNUMBERS-22
p51
aVNUMBERS-21
p52
aVNUMBERS-20
p53
aVNUMBERS-19
p54
aVNUMBERS-18
p55
aVNUMBERS-17
p56
aVNUMBERS-16
p57
aVNUMBERS-15
p58
aVNUMBERS-14
p59
aVNUMBERS-13
p60
aVNUMBERS-12
p61
aVNUMBERS-11
p62
aVNUMBERS-10
p63
aVNUMBERS-9
p64
aVNUMBERS-8
p65
aVNUMBERS-7
p66
aVNUMBERS-6
p67
aVNUMBERS-5
p68
aVNUMBERS-4
p69
aVNUMBERS-3
p70
aVNUMBERS-2
p71
aVNUMBERS-1
p72
a.