(lp0
VNUTCH-2631
p1
aVNUTCH-2630
p2
aVNUTCH-2629
p3
aVNUTCH-2628
p4
aVNUTCH-2627
p5
aVNUTCH-2626
p6
aVNUTCH-2625
p7
aVNUTCH-2624
p8
aVNUTCH-2623
p9
aVNUTCH-2622
p10
aVNUTCH-2621
p11
aVNUTCH-2620
p12
aVNUTCH-2619
p13
aVNUTCH-2618
p14
aVNUTCH-2617
p15
aVNUTCH-2616
p16
aVNUTCH-2615
p17
aVNUTCH-2614
p18
aVNUTCH-2613
p19
aVNUTCH-2612
p20
aVNUTCH-2611
p21
aVNUTCH-2610
p22
aVNUTCH-2609
p23
aVNUTCH-2608
p24
aVNUTCH-2607
p25
aVNUTCH-2606
p26
aVNUTCH-2605
p27
aVNUTCH-2604
p28
aVNUTCH-2603
p29
aVNUTCH-2602
p30
aVNUTCH-2601
p31
aVNUTCH-2600
p32
aVNUTCH-2599
p33
aVNUTCH-2598
p34
aVNUTCH-2597
p35
aVNUTCH-2596
p36
aVNUTCH-2595
p37
aVNUTCH-2594
p38
aVNUTCH-2593
p39
aVNUTCH-2592
p40
aVNUTCH-2591
p41
aVNUTCH-2590
p42
aVNUTCH-2589
p43
aVNUTCH-2588
p44
aVNUTCH-2587
p45
aVNUTCH-2586
p46
aVNUTCH-2585
p47
aVNUTCH-2584
p48
aVNUTCH-2583
p49
aVNUTCH-2582
p50
aVNUTCH-2581
p51
aVNUTCH-2580
p52
aVNUTCH-2579
p53
aVNUTCH-2578
p54
aVNUTCH-2577
p55
aVNUTCH-2576
p56
aVNUTCH-2575
p57
aVNUTCH-2574
p58
aVNUTCH-2573
p59
aVNUTCH-2572
p60
aVNUTCH-2571
p61
aVNUTCH-2570
p62
aVNUTCH-2569
p63
aVNUTCH-2568
p64
aVNUTCH-2567
p65
aVNUTCH-2566
p66
aVNUTCH-2565
p67
aVNUTCH-2564
p68
aVNUTCH-2563
p69
aVNUTCH-2562
p70
aVNUTCH-2561
p71
aVNUTCH-2560
p72
aVNUTCH-2559
p73
aVNUTCH-2558
p74
aVNUTCH-2557
p75
aVNUTCH-2556
p76
aVNUTCH-2555
p77
aVNUTCH-2554
p78
aVNUTCH-2553
p79
aVNUTCH-2552
p80
aVNUTCH-2551
p81
aVNUTCH-2550
p82
aVNUTCH-2549
p83
aVNUTCH-2548
p84
aVNUTCH-2547
p85
aVNUTCH-2546
p86
aVNUTCH-2545
p87
aVNUTCH-2544
p88
aVNUTCH-2543
p89
aVNUTCH-2542
p90
aVNUTCH-2541
p91
aVNUTCH-2540
p92
aVNUTCH-2539
p93
aVNUTCH-2538
p94
aVNUTCH-2537
p95
aVNUTCH-2536
p96
aVNUTCH-2535
p97
aVNUTCH-2534
p98
aVNUTCH-2533
p99
aVNUTCH-2532
p100
aVNUTCH-2531
p101
aVNUTCH-2530
p102
aVNUTCH-2529
p103
aVNUTCH-2528
p104
aVNUTCH-2527
p105
aVNUTCH-2526
p106
aVNUTCH-2525
p107
aVNUTCH-2524
p108
aVNUTCH-2523
p109
aVNUTCH-2522
p110
aVNUTCH-2521
p111
aVNUTCH-2520
p112
aVNUTCH-2519
p113
aVNUTCH-2518
p114
aVNUTCH-2517
p115
aVNUTCH-2516
p116
aVNUTCH-2515
p117
aVNUTCH-2514
p118
aVNUTCH-2513
p119
aVNUTCH-2512
p120
aVNUTCH-2511
p121
aVNUTCH-2510
p122
aVNUTCH-2509
p123
aVNUTCH-2508
p124
aVNUTCH-2507
p125
aVNUTCH-2506
p126
aVNUTCH-2505
p127
aVNUTCH-2504
p128
aVNUTCH-2503
p129
aVNUTCH-2502
p130
aVNUTCH-2501
p131
aVNUTCH-2500
p132
aVNUTCH-2499
p133
aVNUTCH-2498
p134
aVNUTCH-2497
p135
aVNUTCH-2496
p136
aVNUTCH-2495
p137
aVNUTCH-2494
p138
aVNUTCH-2493
p139
aVNUTCH-2492
p140
aVNUTCH-2491
p141
aVNUTCH-2490
p142
aVNUTCH-2489
p143
aVNUTCH-2488
p144
aVNUTCH-2487
p145
aVNUTCH-2486
p146
aVNUTCH-2485
p147
aVNUTCH-2484
p148
aVNUTCH-2483
p149
aVNUTCH-2482
p150
aVNUTCH-2481
p151
aVNUTCH-2480
p152
aVNUTCH-2479
p153
aVNUTCH-2478
p154
aVNUTCH-2477
p155
aVNUTCH-2476
p156
aVNUTCH-2475
p157
aVNUTCH-2474
p158
aVNUTCH-2473
p159
aVNUTCH-2472
p160
aVNUTCH-2471
p161
aVNUTCH-2470
p162
aVNUTCH-2469
p163
aVNUTCH-2468
p164
aVNUTCH-2467
p165
aVNUTCH-2466
p166
aVNUTCH-2465
p167
aVNUTCH-2464
p168
aVNUTCH-2463
p169
aVNUTCH-2462
p170
aVNUTCH-2461
p171
aVNUTCH-2460
p172
aVNUTCH-2459
p173
aVNUTCH-2458
p174
aVNUTCH-2457
p175
aVNUTCH-2456
p176
aVNUTCH-2455
p177
aVNUTCH-2454
p178
aVNUTCH-2453
p179
aVNUTCH-2452
p180
aVNUTCH-2451
p181
aVNUTCH-2450
p182
aVNUTCH-2449
p183
aVNUTCH-2448
p184
aVNUTCH-2447
p185
aVNUTCH-2446
p186
aVNUTCH-2445
p187
aVNUTCH-2444
p188
aVNUTCH-2443
p189
aVNUTCH-2442
p190
aVNUTCH-2441
p191
aVNUTCH-2440
p192
aVNUTCH-2439
p193
aVNUTCH-2438
p194
aVNUTCH-2437
p195
aVNUTCH-2436
p196
aVNUTCH-2435
p197
aVNUTCH-2434
p198
aVNUTCH-2433
p199
aVNUTCH-2432
p200
aVNUTCH-2431
p201
aVNUTCH-2430
p202
aVNUTCH-2429
p203
aVNUTCH-2428
p204
aVNUTCH-2427
p205
aVNUTCH-2426
p206
aVNUTCH-2425
p207
aVNUTCH-2424
p208
aVNUTCH-2423
p209
aVNUTCH-2422
p210
aVNUTCH-2421
p211
aVNUTCH-2420
p212
aVNUTCH-2419
p213
aVNUTCH-2418
p214
aVNUTCH-2417
p215
aVNUTCH-2416
p216
aVNUTCH-2415
p217
aVNUTCH-2414
p218
aVNUTCH-2413
p219
aVNUTCH-2412
p220
aVNUTCH-2411
p221
aVNUTCH-2410
p222
aVNUTCH-2409
p223
aVNUTCH-2408
p224
aVNUTCH-2407
p225
aVNUTCH-2406
p226
aVNUTCH-2405
p227
aVNUTCH-2404
p228
aVNUTCH-2403
p229
aVNUTCH-2402
p230
aVNUTCH-2401
p231
aVNUTCH-2400
p232
aVNUTCH-2399
p233
aVNUTCH-2398
p234
aVNUTCH-2397
p235
aVNUTCH-2396
p236
aVNUTCH-2395
p237
aVNUTCH-2394
p238
aVNUTCH-2393
p239
aVNUTCH-2392
p240
aVNUTCH-2391
p241
aVNUTCH-2390
p242
aVNUTCH-2389
p243
aVNUTCH-2388
p244
aVNUTCH-2387
p245
aVNUTCH-2386
p246
aVNUTCH-2385
p247
aVNUTCH-2384
p248
aVNUTCH-2383
p249
aVNUTCH-2382
p250
aVNUTCH-2381
p251
aVNUTCH-2380
p252
aVNUTCH-2379
p253
aVNUTCH-2378
p254
aVNUTCH-2377
p255
aVNUTCH-2376
p256
aVNUTCH-2375
p257
aVNUTCH-2374
p258
aVNUTCH-2373
p259
aVNUTCH-2372
p260
aVNUTCH-2371
p261
aVNUTCH-2370
p262
aVNUTCH-2369
p263
aVNUTCH-2368
p264
aVNUTCH-2367
p265
aVNUTCH-2366
p266
aVNUTCH-2365
p267
aVNUTCH-2364
p268
aVNUTCH-2363
p269
aVNUTCH-2362
p270
aVNUTCH-2361
p271
aVNUTCH-2360
p272
aVNUTCH-2359
p273
aVNUTCH-2358
p274
aVNUTCH-2357
p275
aVNUTCH-2356
p276
aVNUTCH-2355
p277
aVNUTCH-2354
p278
aVNUTCH-2353
p279
aVNUTCH-2352
p280
aVNUTCH-2351
p281
aVNUTCH-2350
p282
aVNUTCH-2349
p283
aVNUTCH-2348
p284
aVNUTCH-2347
p285
aVNUTCH-2346
p286
aVNUTCH-2345
p287
aVNUTCH-2344
p288
aVNUTCH-2343
p289
aVNUTCH-2342
p290
aVNUTCH-2341
p291
aVNUTCH-2340
p292
aVNUTCH-2339
p293
aVNUTCH-2338
p294
aVNUTCH-2337
p295
aVNUTCH-2336
p296
aVNUTCH-2335
p297
aVNUTCH-2334
p298
aVNUTCH-2333
p299
aVNUTCH-2332
p300
aVNUTCH-2331
p301
aVNUTCH-2330
p302
aVNUTCH-2329
p303
aVNUTCH-2328
p304
aVNUTCH-2327
p305
aVNUTCH-2326
p306
aVNUTCH-2325
p307
aVNUTCH-2324
p308
aVNUTCH-2323
p309
aVNUTCH-2322
p310
aVNUTCH-2321
p311
aVNUTCH-2320
p312
aVNUTCH-2319
p313
aVNUTCH-2318
p314
aVNUTCH-2317
p315
aVNUTCH-2316
p316
aVNUTCH-2315
p317
aVNUTCH-2314
p318
aVNUTCH-2313
p319
aVNUTCH-2312
p320
aVNUTCH-2311
p321
aVNUTCH-2310
p322
aVNUTCH-2309
p323
aVNUTCH-2308
p324
aVNUTCH-2307
p325
aVNUTCH-2306
p326
aVNUTCH-2305
p327
aVNUTCH-2304
p328
aVNUTCH-2303
p329
aVNUTCH-2302
p330
aVNUTCH-2301
p331
aVNUTCH-2300
p332
aVNUTCH-2299
p333
aVNUTCH-2298
p334
aVNUTCH-2297
p335
aVNUTCH-2296
p336
aVNUTCH-2295
p337
aVNUTCH-2294
p338
aVNUTCH-2293
p339
aVNUTCH-2292
p340
aVNUTCH-2291
p341
aVNUTCH-2290
p342
aVNUTCH-2289
p343
aVNUTCH-2288
p344
aVNUTCH-2287
p345
aVNUTCH-2286
p346
aVNUTCH-2285
p347
aVNUTCH-2284
p348
aVNUTCH-2283
p349
aVNUTCH-2282
p350
aVNUTCH-2281
p351
aVNUTCH-2280
p352
aVNUTCH-2279
p353
aVNUTCH-2278
p354
aVNUTCH-2277
p355
aVNUTCH-2276
p356
aVNUTCH-2275
p357
aVNUTCH-2274
p358
aVNUTCH-2273
p359
aVNUTCH-2272
p360
aVNUTCH-2271
p361
aVNUTCH-2270
p362
aVNUTCH-2269
p363
aVNUTCH-2268
p364
aVNUTCH-2267
p365
aVNUTCH-2266
p366
aVNUTCH-2265
p367
aVNUTCH-2264
p368
aVNUTCH-2263
p369
aVNUTCH-2262
p370
aVNUTCH-2261
p371
aVNUTCH-2260
p372
aVNUTCH-2259
p373
aVNUTCH-2257
p374
aVNUTCH-2256
p375
aVNUTCH-2255
p376
aVNUTCH-2254
p377
aVNUTCH-2253
p378
aVNUTCH-2252
p379
aVNUTCH-2251
p380
aVNUTCH-2250
p381
aVNUTCH-2249
p382
aVNUTCH-2248
p383
aVNUTCH-2247
p384
aVNUTCH-2246
p385
aVNUTCH-2245
p386
aVNUTCH-2244
p387
aVNUTCH-2243
p388
aVNUTCH-2242
p389
aVNUTCH-2241
p390
aVNUTCH-2240
p391
aVNUTCH-2239
p392
aVNUTCH-2238
p393
aVNUTCH-2237
p394
aVNUTCH-2236
p395
aVNUTCH-2235
p396
aVNUTCH-2234
p397
aVNUTCH-2233
p398
aVNUTCH-2232
p399
aVNUTCH-2231
p400
aVNUTCH-2230
p401
aVNUTCH-2229
p402
aVNUTCH-2228
p403
aVNUTCH-2227
p404
aVNUTCH-2226
p405
aVNUTCH-2225
p406
aVNUTCH-2224
p407
aVNUTCH-2223
p408
aVNUTCH-2222
p409
aVNUTCH-2221
p410
aVNUTCH-2220
p411
aVNUTCH-2219
p412
aVNUTCH-2218
p413
aVNUTCH-2217
p414
aVNUTCH-2216
p415
aVNUTCH-2215
p416
aVNUTCH-2214
p417
aVNUTCH-2213
p418
aVNUTCH-2212
p419
aVNUTCH-2211
p420
aVNUTCH-2210
p421
aVNUTCH-2209
p422
aVNUTCH-2208
p423
aVNUTCH-2207
p424
aVNUTCH-2206
p425
aVNUTCH-2205
p426
aVNUTCH-2204
p427
aVNUTCH-2203
p428
aVNUTCH-2202
p429
aVNUTCH-2201
p430
aVNUTCH-2200
p431
aVNUTCH-2199
p432
aVNUTCH-2198
p433
aVNUTCH-2197
p434
aVNUTCH-2196
p435
aVNUTCH-2195
p436
aVNUTCH-2194
p437
aVNUTCH-2193
p438
aVNUTCH-2192
p439
aVNUTCH-2191
p440
aVNUTCH-2190
p441
aVNUTCH-2189
p442
aVNUTCH-2188
p443
aVNUTCH-2187
p444
aVNUTCH-2186
p445
aVNUTCH-2185
p446
aVNUTCH-2184
p447
aVNUTCH-2183
p448
aVNUTCH-2182
p449
aVNUTCH-2181
p450
aVNUTCH-2180
p451
aVNUTCH-2179
p452
aVNUTCH-2178
p453
aVNUTCH-2177
p454
aVNUTCH-2176
p455
aVNUTCH-2175
p456
aVNUTCH-2174
p457
aVNUTCH-2173
p458
aVNUTCH-2172
p459
aVNUTCH-2171
p460
aVNUTCH-2170
p461
aVNUTCH-2169
p462
aVNUTCH-2168
p463
aVNUTCH-2167
p464
aVNUTCH-2166
p465
aVNUTCH-2165
p466
aVNUTCH-2164
p467
aVNUTCH-2163
p468
aVNUTCH-2162
p469
aVNUTCH-2161
p470
aVNUTCH-2160
p471
aVNUTCH-2159
p472
aVNUTCH-2158
p473
aVNUTCH-2157
p474
aVNUTCH-2156
p475
aVNUTCH-2155
p476
aVNUTCH-2154
p477
aVNUTCH-2153
p478
aVNUTCH-2152
p479
aVNUTCH-2151
p480
aVNUTCH-2150
p481
aVNUTCH-2149
p482
aVNUTCH-2148
p483
aVNUTCH-2147
p484
aVNUTCH-2146
p485
aVNUTCH-2145
p486
aVNUTCH-2144
p487
aVNUTCH-2143
p488
aVNUTCH-2142
p489
aVNUTCH-2141
p490
aVNUTCH-2140
p491
aVNUTCH-2139
p492
aVNUTCH-2138
p493
aVNUTCH-2137
p494
aVNUTCH-2136
p495
aVNUTCH-2135
p496
aVNUTCH-2134
p497
aVNUTCH-2133
p498
aVNUTCH-2132
p499
aVNUTCH-2131
p500
aVNUTCH-2130
p501
aVNUTCH-2129
p502
aVNUTCH-2128
p503
aVNUTCH-2127
p504
aVNUTCH-2126
p505
aVNUTCH-2125
p506
aVNUTCH-2124
p507
aVNUTCH-2123
p508
aVNUTCH-2122
p509
aVNUTCH-2121
p510
aVNUTCH-2120
p511
aVNUTCH-2119
p512
aVNUTCH-2118
p513
aVNUTCH-2117
p514
aVNUTCH-2116
p515
aVNUTCH-2115
p516
aVNUTCH-2114
p517
aVNUTCH-2113
p518
aVNUTCH-2112
p519
aVNUTCH-2111
p520
aVNUTCH-2110
p521
aVNUTCH-2109
p522
aVNUTCH-2108
p523
aVNUTCH-2107
p524
aVNUTCH-2106
p525
aVNUTCH-2105
p526
aVNUTCH-2104
p527
aVNUTCH-2103
p528
aVNUTCH-2102
p529
aVNUTCH-2101
p530
aVNUTCH-2100
p531
aVNUTCH-2099
p532
aVNUTCH-2098
p533
aVNUTCH-2097
p534
aVNUTCH-2096
p535
aVNUTCH-2095
p536
aVNUTCH-2094
p537
aVNUTCH-2093
p538
aVNUTCH-2092
p539
aVNUTCH-2091
p540
aVNUTCH-2090
p541
aVNUTCH-2089
p542
aVNUTCH-2088
p543
aVNUTCH-2087
p544
aVNUTCH-2086
p545
aVNUTCH-2085
p546
aVNUTCH-2084
p547
aVNUTCH-2083
p548
aVNUTCH-2082
p549
aVNUTCH-2081
p550
aVNUTCH-2080
p551
aVNUTCH-2079
p552
aVNUTCH-2078
p553
aVNUTCH-2077
p554
aVNUTCH-2076
p555
aVNUTCH-2075
p556
aVNUTCH-2074
p557
aVNUTCH-2073
p558
aVNUTCH-2072
p559
aVNUTCH-2071
p560
aVNUTCH-2070
p561
aVNUTCH-2069
p562
aVNUTCH-2068
p563
aVNUTCH-2067
p564
aVNUTCH-2066
p565
aVNUTCH-2065
p566
aVNUTCH-2064
p567
aVNUTCH-2063
p568
aVNUTCH-2062
p569
aVNUTCH-2061
p570
aVNUTCH-2060
p571
aVNUTCH-2059
p572
aVNUTCH-2058
p573
aVNUTCH-2057
p574
aVNUTCH-2056
p575
aVNUTCH-2055
p576
aVNUTCH-2054
p577
aVNUTCH-2053
p578
aVNUTCH-2052
p579
aVNUTCH-2051
p580
aVNUTCH-2050
p581
aVNUTCH-2049
p582
aVNUTCH-2048
p583
aVNUTCH-2047
p584
aVNUTCH-2046
p585
aVNUTCH-2045
p586
aVNUTCH-2044
p587
aVNUTCH-2043
p588
aVNUTCH-2042
p589
aVNUTCH-2041
p590
aVNUTCH-2040
p591
aVNUTCH-2039
p592
aVNUTCH-2038
p593
aVNUTCH-2037
p594
aVNUTCH-2036
p595
aVNUTCH-2035
p596
aVNUTCH-2034
p597
aVNUTCH-2033
p598
aVNUTCH-2032
p599
aVNUTCH-2031
p600
aVNUTCH-2030
p601
aVNUTCH-2029
p602
aVNUTCH-2028
p603
aVNUTCH-2027
p604
aVNUTCH-2026
p605
aVNUTCH-2025
p606
aVNUTCH-2024
p607
aVNUTCH-2023
p608
aVNUTCH-2022
p609
aVNUTCH-2021
p610
aVNUTCH-2020
p611
aVNUTCH-2019
p612
aVNUTCH-2018
p613
aVNUTCH-2017
p614
aVNUTCH-2016
p615
aVNUTCH-2015
p616
aVNUTCH-2014
p617
aVNUTCH-2013
p618
aVNUTCH-2012
p619
aVNUTCH-2011
p620
aVNUTCH-2010
p621
aVNUTCH-2009
p622
aVNUTCH-2008
p623
aVNUTCH-2007
p624
aVNUTCH-2006
p625
aVNUTCH-2005
p626
aVNUTCH-2004
p627
aVNUTCH-2003
p628
aVNUTCH-2002
p629
aVNUTCH-2001
p630
aVNUTCH-2000
p631
aVNUTCH-1999
p632
aVNUTCH-1998
p633
aVNUTCH-1997
p634
aVNUTCH-1996
p635
aVNUTCH-1995
p636
aVNUTCH-1994
p637
aVNUTCH-1993
p638
aVNUTCH-1992
p639
aVNUTCH-1991
p640
aVNUTCH-1990
p641
aVNUTCH-1989
p642
aVNUTCH-1988
p643
aVNUTCH-1987
p644
aVNUTCH-1986
p645
aVNUTCH-1985
p646
aVNUTCH-1984
p647
aVNUTCH-1983
p648
aVNUTCH-1982
p649
aVNUTCH-1981
p650
aVNUTCH-1980
p651
aVNUTCH-1979
p652
aVNUTCH-1978
p653
aVNUTCH-1977
p654
aVNUTCH-1976
p655
aVNUTCH-1975
p656
aVNUTCH-1974
p657
aVNUTCH-1973
p658
aVNUTCH-1972
p659
aVNUTCH-1971
p660
aVNUTCH-1970
p661
aVNUTCH-1969
p662
aVNUTCH-1968
p663
aVNUTCH-1967
p664
aVNUTCH-1966
p665
aVNUTCH-1965
p666
aVNUTCH-1964
p667
aVNUTCH-1963
p668
aVNUTCH-1962
p669
aVNUTCH-1961
p670
aVNUTCH-1960
p671
aVNUTCH-1959
p672
aVNUTCH-1958
p673
aVNUTCH-1957
p674
aVNUTCH-1956
p675
aVNUTCH-1955
p676
aVNUTCH-1954
p677
aVNUTCH-1953
p678
aVNUTCH-1952
p679
aVNUTCH-1951
p680
aVNUTCH-1950
p681
aVNUTCH-1949
p682
aVNUTCH-1948
p683
aVNUTCH-1947
p684
aVNUTCH-1946
p685
aVNUTCH-1945
p686
aVNUTCH-1944
p687
aVNUTCH-1943
p688
aVNUTCH-1942
p689
aVNUTCH-1941
p690
aVNUTCH-1940
p691
aVNUTCH-1939
p692
aVNUTCH-1938
p693
aVNUTCH-1937
p694
aVNUTCH-1936
p695
aVNUTCH-1935
p696
aVNUTCH-1934
p697
aVNUTCH-1933
p698
aVNUTCH-1932
p699
aVNUTCH-1931
p700
aVNUTCH-1930
p701
aVNUTCH-1929
p702
aVNUTCH-1928
p703
aVNUTCH-1927
p704
aVNUTCH-1926
p705
aVNUTCH-1925
p706
aVNUTCH-1924
p707
aVNUTCH-1923
p708
aVNUTCH-1922
p709
aVNUTCH-1921
p710
aVNUTCH-1920
p711
aVNUTCH-1919
p712
aVNUTCH-1918
p713
aVNUTCH-1917
p714
aVNUTCH-1916
p715
aVNUTCH-1915
p716
aVNUTCH-1914
p717
aVNUTCH-1913
p718
aVNUTCH-1912
p719
aVNUTCH-1911
p720
aVNUTCH-1910
p721
aVNUTCH-1909
p722
aVNUTCH-1908
p723
aVNUTCH-1907
p724
aVNUTCH-1906
p725
aVNUTCH-1905
p726
aVNUTCH-1904
p727
aVNUTCH-1903
p728
aVNUTCH-1902
p729
aVNUTCH-1901
p730
aVNUTCH-1900
p731
aVNUTCH-1899
p732
aVNUTCH-1898
p733
aVNUTCH-1897
p734
aVNUTCH-1896
p735
aVNUTCH-1895
p736
aVNUTCH-1894
p737
aVNUTCH-1893
p738
aVNUTCH-1892
p739
aVNUTCH-1891
p740
aVNUTCH-1890
p741
aVNUTCH-1889
p742
aVNUTCH-1888
p743
aVNUTCH-1887
p744
aVNUTCH-1886
p745
aVNUTCH-1885
p746
aVNUTCH-1884
p747
aVNUTCH-1883
p748
aVNUTCH-1882
p749
aVNUTCH-1881
p750
aVNUTCH-1880
p751
aVNUTCH-1879
p752
aVNUTCH-1878
p753
aVNUTCH-1877
p754
aVNUTCH-1876
p755
aVNUTCH-1875
p756
aVNUTCH-1874
p757
aVNUTCH-1873
p758
aVNUTCH-1872
p759
aVNUTCH-1871
p760
aVNUTCH-1870
p761
aVNUTCH-1869
p762
aVNUTCH-1868
p763
aVNUTCH-1867
p764
aVNUTCH-1866
p765
aVNUTCH-1865
p766
aVNUTCH-1864
p767
aVNUTCH-1863
p768
aVNUTCH-1862
p769
aVNUTCH-1861
p770
aVNUTCH-1860
p771
aVNUTCH-1859
p772
aVNUTCH-1858
p773
aVNUTCH-1857
p774
aVNUTCH-1856
p775
aVNUTCH-1855
p776
aVNUTCH-1854
p777
aVNUTCH-1853
p778
aVNUTCH-1852
p779
aVNUTCH-1851
p780
aVNUTCH-1850
p781
aVNUTCH-1849
p782
aVNUTCH-1848
p783
aVNUTCH-1847
p784
aVNUTCH-1846
p785
aVNUTCH-1845
p786
aVNUTCH-1844
p787
aVNUTCH-1843
p788
aVNUTCH-1842
p789
aVNUTCH-1841
p790
aVNUTCH-1840
p791
aVNUTCH-1839
p792
aVNUTCH-1838
p793
aVNUTCH-1837
p794
aVNUTCH-1836
p795
aVNUTCH-1835
p796
aVNUTCH-1834
p797
aVNUTCH-1833
p798
aVNUTCH-1832
p799
aVNUTCH-1831
p800
aVNUTCH-1830
p801
aVNUTCH-1829
p802
aVNUTCH-1828
p803
aVNUTCH-1827
p804
aVNUTCH-1826
p805
aVNUTCH-1825
p806
aVNUTCH-1824
p807
aVNUTCH-1823
p808
aVNUTCH-1822
p809
aVNUTCH-1821
p810
aVNUTCH-1820
p811
aVNUTCH-1819
p812
aVNUTCH-1818
p813
aVNUTCH-1817
p814
aVNUTCH-1816
p815
aVNUTCH-1815
p816
aVNUTCH-1814
p817
aVNUTCH-1813
p818
aVNUTCH-1812
p819
aVNUTCH-1811
p820
aVNUTCH-1810
p821
aVNUTCH-1809
p822
aVNUTCH-1808
p823
aVNUTCH-1807
p824
aVNUTCH-1806
p825
aVNUTCH-1805
p826
aVNUTCH-1804
p827
aVNUTCH-1803
p828
aVNUTCH-1802
p829
aVNUTCH-1801
p830
aVNUTCH-1800
p831
aVNUTCH-1799
p832
aVNUTCH-1798
p833
aVNUTCH-1797
p834
aVNUTCH-1796
p835
aVNUTCH-1795
p836
aVNUTCH-1794
p837
aVNUTCH-1793
p838
aVNUTCH-1792
p839
aVNUTCH-1791
p840
aVNUTCH-1790
p841
aVNUTCH-1789
p842
aVNUTCH-1788
p843
aVNUTCH-1787
p844
aVNUTCH-1786
p845
aVNUTCH-1785
p846
aVNUTCH-1784
p847
aVNUTCH-1783
p848
aVNUTCH-1782
p849
aVNUTCH-1781
p850
aVNUTCH-1780
p851
aVNUTCH-1779
p852
aVNUTCH-1778
p853
aVNUTCH-1777
p854
aVNUTCH-1776
p855
aVNUTCH-1775
p856
aVNUTCH-1774
p857
aVNUTCH-1773
p858
aVNUTCH-1772
p859
aVNUTCH-1771
p860
aVNUTCH-1770
p861
aVNUTCH-1769
p862
aVNUTCH-1768
p863
aVNUTCH-1767
p864
aVNUTCH-1766
p865
aVNUTCH-1765
p866
aVNUTCH-1764
p867
aVNUTCH-1763
p868
aVNUTCH-1762
p869
aVNUTCH-1761
p870
aVNUTCH-1760
p871
aVNUTCH-1759
p872
aVNUTCH-1758
p873
aVNUTCH-1757
p874
aVNUTCH-1756
p875
aVNUTCH-1755
p876
aVNUTCH-1754
p877
aVNUTCH-1753
p878
aVNUTCH-1752
p879
aVNUTCH-1751
p880
aVNUTCH-1750
p881
aVNUTCH-1749
p882
aVNUTCH-1748
p883
aVNUTCH-1747
p884
aVNUTCH-1746
p885
aVNUTCH-1745
p886
aVNUTCH-1744
p887
aVNUTCH-1743
p888
aVNUTCH-1742
p889
aVNUTCH-1741
p890
aVNUTCH-1740
p891
aVNUTCH-1739
p892
aVNUTCH-1738
p893
aVNUTCH-1737
p894
aVNUTCH-1736
p895
aVNUTCH-1735
p896
aVNUTCH-1734
p897
aVNUTCH-1733
p898
aVNUTCH-1732
p899
aVNUTCH-1731
p900
aVNUTCH-1730
p901
aVNUTCH-1729
p902
aVNUTCH-1728
p903
aVNUTCH-1727
p904
aVNUTCH-1726
p905
aVNUTCH-1725
p906
aVNUTCH-1724
p907
aVNUTCH-1723
p908
aVNUTCH-1722
p909
aVNUTCH-1721
p910
aVNUTCH-1720
p911
aVNUTCH-1719
p912
aVNUTCH-1718
p913
aVNUTCH-1717
p914
aVNUTCH-1716
p915
aVNUTCH-1715
p916
aVNUTCH-1714
p917
aVNUTCH-1713
p918
aVNUTCH-1712
p919
aVNUTCH-1711
p920
aVNUTCH-1710
p921
aVNUTCH-1709
p922
aVNUTCH-1708
p923
aVNUTCH-1707
p924
aVNUTCH-1706
p925
aVNUTCH-1705
p926
aVNUTCH-1704
p927
aVNUTCH-1703
p928
aVNUTCH-1702
p929
aVNUTCH-1701
p930
aVNUTCH-1700
p931
aVNUTCH-1699
p932
aVNUTCH-1698
p933
aVNUTCH-1697
p934
aVNUTCH-1696
p935
aVNUTCH-1695
p936
aVNUTCH-1694
p937
aVNUTCH-1693
p938
aVNUTCH-1692
p939
aVNUTCH-1691
p940
aVNUTCH-1690
p941
aVNUTCH-1689
p942
aVNUTCH-1688
p943
aVNUTCH-1687
p944
aVNUTCH-1686
p945
aVNUTCH-1685
p946
aVNUTCH-1684
p947
aVNUTCH-1683
p948
aVNUTCH-1682
p949
aVNUTCH-1681
p950
aVNUTCH-1680
p951
aVNUTCH-1679
p952
aVNUTCH-1678
p953
aVNUTCH-1677
p954
aVNUTCH-1676
p955
aVNUTCH-1675
p956
aVNUTCH-1674
p957
aVNUTCH-1673
p958
aVNUTCH-1672
p959
aVNUTCH-1671
p960
aVNUTCH-1670
p961
aVNUTCH-1669
p962
aVNUTCH-1668
p963
aVNUTCH-1667
p964
aVNUTCH-1666
p965
aVNUTCH-1665
p966
aVNUTCH-1664
p967
aVNUTCH-1663
p968
aVNUTCH-1662
p969
aVNUTCH-1661
p970
aVNUTCH-1660
p971
aVNUTCH-1659
p972
aVNUTCH-1658
p973
aVNUTCH-1657
p974
aVNUTCH-1656
p975
aVNUTCH-1655
p976
aVNUTCH-1654
p977
aVNUTCH-1653
p978
aVNUTCH-1652
p979
aVNUTCH-1651
p980
aVNUTCH-1650
p981
aVNUTCH-1649
p982
aVNUTCH-1648
p983
aVNUTCH-1647
p984
aVNUTCH-1646
p985
aVNUTCH-1645
p986
aVNUTCH-1644
p987
aVNUTCH-1643
p988
aVNUTCH-1642
p989
aVNUTCH-1641
p990
aVNUTCH-1640
p991
aVNUTCH-1639
p992
aVNUTCH-1638
p993
aVNUTCH-1637
p994
aVNUTCH-1636
p995
aVNUTCH-1635
p996
aVNUTCH-1634
p997
aVNUTCH-1633
p998
aVNUTCH-1632
p999
aVNUTCH-1631
p1000
aVNUTCH-1630
p1001
aVNUTCH-1629
p1002
aVNUTCH-1628
p1003
aVNUTCH-1627
p1004
aVNUTCH-1626
p1005
aVNUTCH-1625
p1006
aVNUTCH-1624
p1007
aVNUTCH-1623
p1008
aVNUTCH-1622
p1009
aVNUTCH-1621
p1010
aVNUTCH-1620
p1011
aVNUTCH-1619
p1012
aVNUTCH-1618
p1013
aVNUTCH-1617
p1014
aVNUTCH-1616
p1015
aVNUTCH-1615
p1016
aVNUTCH-1614
p1017
aVNUTCH-1613
p1018
aVNUTCH-1612
p1019
aVNUTCH-1611
p1020
aVNUTCH-1610
p1021
aVNUTCH-1609
p1022
aVNUTCH-1608
p1023
aVNUTCH-1607
p1024
aVNUTCH-1606
p1025
aVNUTCH-1605
p1026
aVNUTCH-1604
p1027
aVNUTCH-1603
p1028
aVNUTCH-1602
p1029
aVNUTCH-1601
p1030
aVNUTCH-1600
p1031
aVNUTCH-1599
p1032
aVNUTCH-1598
p1033
aVNUTCH-1597
p1034
aVNUTCH-1596
p1035
aVNUTCH-1595
p1036
aVNUTCH-1594
p1037
aVNUTCH-1593
p1038
aVNUTCH-1592
p1039
aVNUTCH-1591
p1040
aVNUTCH-1590
p1041
aVNUTCH-1589
p1042
aVNUTCH-1588
p1043
aVNUTCH-1587
p1044
aVNUTCH-1586
p1045
aVNUTCH-1585
p1046
aVNUTCH-1584
p1047
aVNUTCH-1583
p1048
aVNUTCH-1582
p1049
aVNUTCH-1581
p1050
aVNUTCH-1580
p1051
aVNUTCH-1579
p1052
aVNUTCH-1578
p1053
aVNUTCH-1577
p1054
aVNUTCH-1576
p1055
aVNUTCH-1575
p1056
aVNUTCH-1574
p1057
aVNUTCH-1573
p1058
aVNUTCH-1572
p1059
aVNUTCH-1571
p1060
aVNUTCH-1570
p1061
aVNUTCH-1569
p1062
aVNUTCH-1568
p1063
aVNUTCH-1567
p1064
aVNUTCH-1566
p1065
aVNUTCH-1565
p1066
aVNUTCH-1564
p1067
aVNUTCH-1563
p1068
aVNUTCH-1562
p1069
aVNUTCH-1561
p1070
aVNUTCH-1560
p1071
aVNUTCH-1559
p1072
aVNUTCH-1558
p1073
aVNUTCH-1557
p1074
aVNUTCH-1556
p1075
aVNUTCH-1555
p1076
aVNUTCH-1554
p1077
aVNUTCH-1553
p1078
aVNUTCH-1552
p1079
aVNUTCH-1551
p1080
aVNUTCH-1550
p1081
aVNUTCH-1549
p1082
aVNUTCH-1548
p1083
aVNUTCH-1547
p1084
aVNUTCH-1546
p1085
aVNUTCH-1545
p1086
aVNUTCH-1544
p1087
aVNUTCH-1543
p1088
aVNUTCH-1542
p1089
aVNUTCH-1541
p1090
aVNUTCH-1540
p1091
aVNUTCH-1539
p1092
aVNUTCH-1538
p1093
aVNUTCH-1537
p1094
aVNUTCH-1536
p1095
aVNUTCH-1535
p1096
aVNUTCH-1534
p1097
aVNUTCH-1533
p1098
aVNUTCH-1532
p1099
aVNUTCH-1531
p1100
aVNUTCH-1530
p1101
aVNUTCH-1529
p1102
aVNUTCH-1528
p1103
aVNUTCH-1527
p1104
aVNUTCH-1526
p1105
aVNUTCH-1525
p1106
aVNUTCH-1524
p1107
aVNUTCH-1523
p1108
aVNUTCH-1522
p1109
aVNUTCH-1521
p1110
aVNUTCH-1520
p1111
aVNUTCH-1519
p1112
aVNUTCH-1518
p1113
aVNUTCH-1517
p1114
aVNUTCH-1516
p1115
aVNUTCH-1515
p1116
aVNUTCH-1514
p1117
aVNUTCH-1513
p1118
aVNUTCH-1512
p1119
aVNUTCH-1511
p1120
aVNUTCH-1510
p1121
aVNUTCH-1509
p1122
aVNUTCH-1508
p1123
aVNUTCH-1507
p1124
aVNUTCH-1506
p1125
aVNUTCH-1505
p1126
aVNUTCH-1504
p1127
aVNUTCH-1503
p1128
aVNUTCH-1502
p1129
aVNUTCH-1501
p1130
aVNUTCH-1500
p1131
aVNUTCH-1499
p1132
aVNUTCH-1498
p1133
aVNUTCH-1497
p1134
aVNUTCH-1496
p1135
aVNUTCH-1495
p1136
aVNUTCH-1494
p1137
aVNUTCH-1493
p1138
aVNUTCH-1492
p1139
aVNUTCH-1491
p1140
aVNUTCH-1490
p1141
aVNUTCH-1489
p1142
aVNUTCH-1488
p1143
aVNUTCH-1487
p1144
aVNUTCH-1486
p1145
aVNUTCH-1485
p1146
aVNUTCH-1484
p1147
aVNUTCH-1483
p1148
aVNUTCH-1482
p1149
aVNUTCH-1481
p1150
aVNUTCH-1480
p1151
aVNUTCH-1479
p1152
aVNUTCH-1478
p1153
aVNUTCH-1477
p1154
aVNUTCH-1476
p1155
aVNUTCH-1475
p1156
aVNUTCH-1474
p1157
aVNUTCH-1473
p1158
aVNUTCH-1472
p1159
aVNUTCH-1471
p1160
aVNUTCH-1470
p1161
aVNUTCH-1469
p1162
aVNUTCH-1468
p1163
aVNUTCH-1467
p1164
aVNUTCH-1466
p1165
aVNUTCH-1465
p1166
aVNUTCH-1464
p1167
aVNUTCH-1463
p1168
aVNUTCH-1462
p1169
aVNUTCH-1461
p1170
aVNUTCH-1460
p1171
aVNUTCH-1459
p1172
aVNUTCH-1458
p1173
aVNUTCH-1457
p1174
aVNUTCH-1456
p1175
aVNUTCH-1455
p1176
aVNUTCH-1454
p1177
aVNUTCH-1453
p1178
aVNUTCH-1452
p1179
aVNUTCH-1451
p1180
aVNUTCH-1450
p1181
aVNUTCH-1449
p1182
aVNUTCH-1448
p1183
aVNUTCH-1447
p1184
aVNUTCH-1446
p1185
aVNUTCH-1445
p1186
aVNUTCH-1444
p1187
aVNUTCH-1443
p1188
aVNUTCH-1442
p1189
aVNUTCH-1441
p1190
aVNUTCH-1440
p1191
aVNUTCH-1439
p1192
aVNUTCH-1438
p1193
aVNUTCH-1437
p1194
aVNUTCH-1436
p1195
aVNUTCH-1435
p1196
aVNUTCH-1434
p1197
aVNUTCH-1433
p1198
aVNUTCH-1432
p1199
aVNUTCH-1431
p1200
aVNUTCH-1430
p1201
aVNUTCH-1429
p1202
aVNUTCH-1428
p1203
aVNUTCH-1427
p1204
aVNUTCH-1426
p1205
aVNUTCH-1425
p1206
aVNUTCH-1424
p1207
aVNUTCH-1423
p1208
aVNUTCH-1422
p1209
aVNUTCH-1421
p1210
aVNUTCH-1420
p1211
aVNUTCH-1419
p1212
aVNUTCH-1418
p1213
aVNUTCH-1417
p1214
aVNUTCH-1416
p1215
aVNUTCH-1415
p1216
aVNUTCH-1414
p1217
aVNUTCH-1413
p1218
aVNUTCH-1412
p1219
aVNUTCH-1411
p1220
aVNUTCH-1410
p1221
aVNUTCH-1409
p1222
aVNUTCH-1408
p1223
aVNUTCH-1407
p1224
aVNUTCH-1406
p1225
aVNUTCH-1405
p1226
aVNUTCH-1404
p1227
aVNUTCH-1403
p1228
aVNUTCH-1402
p1229
aVNUTCH-1401
p1230
aVNUTCH-1400
p1231
aVNUTCH-1399
p1232
aVNUTCH-1398
p1233
aVNUTCH-1397
p1234
aVNUTCH-1396
p1235
aVNUTCH-1395
p1236
aVNUTCH-1394
p1237
aVNUTCH-1393
p1238
aVNUTCH-1392
p1239
aVNUTCH-1391
p1240
aVNUTCH-1390
p1241
aVNUTCH-1389
p1242
aVNUTCH-1388
p1243
aVNUTCH-1387
p1244
aVNUTCH-1386
p1245
aVNUTCH-1385
p1246
aVNUTCH-1384
p1247
aVNUTCH-1383
p1248
aVNUTCH-1382
p1249
aVNUTCH-1381
p1250
aVNUTCH-1380
p1251
aVNUTCH-1379
p1252
aVNUTCH-1378
p1253
aVNUTCH-1377
p1254
aVNUTCH-1376
p1255
aVNUTCH-1375
p1256
aVNUTCH-1374
p1257
aVNUTCH-1373
p1258
aVNUTCH-1372
p1259
aVNUTCH-1371
p1260
aVNUTCH-1370
p1261
aVNUTCH-1369
p1262
aVNUTCH-1368
p1263
aVNUTCH-1367
p1264
aVNUTCH-1366
p1265
aVNUTCH-1365
p1266
aVNUTCH-1364
p1267
aVNUTCH-1363
p1268
aVNUTCH-1362
p1269
aVNUTCH-1361
p1270
aVNUTCH-1360
p1271
aVNUTCH-1359
p1272
aVNUTCH-1358
p1273
aVNUTCH-1357
p1274
aVNUTCH-1356
p1275
aVNUTCH-1355
p1276
aVNUTCH-1354
p1277
aVNUTCH-1353
p1278
aVNUTCH-1352
p1279
aVNUTCH-1351
p1280
aVNUTCH-1350
p1281
aVNUTCH-1349
p1282
aVNUTCH-1348
p1283
aVNUTCH-1347
p1284
aVNUTCH-1346
p1285
aVNUTCH-1345
p1286
aVNUTCH-1344
p1287
aVNUTCH-1343
p1288
aVNUTCH-1342
p1289
aVNUTCH-1341
p1290
aVNUTCH-1340
p1291
aVNUTCH-1339
p1292
aVNUTCH-1338
p1293
aVNUTCH-1337
p1294
aVNUTCH-1336
p1295
aVNUTCH-1335
p1296
aVNUTCH-1334
p1297
aVNUTCH-1333
p1298
aVNUTCH-1332
p1299
aVNUTCH-1331
p1300
aVNUTCH-1330
p1301
aVNUTCH-1329
p1302
aVNUTCH-1328
p1303
aVNUTCH-1327
p1304
aVNUTCH-1326
p1305
aVNUTCH-1325
p1306
aVNUTCH-1324
p1307
aVNUTCH-1323
p1308
aVNUTCH-1322
p1309
aVNUTCH-1321
p1310
aVNUTCH-1320
p1311
aVNUTCH-1319
p1312
aVNUTCH-1318
p1313
aVNUTCH-1317
p1314
aVNUTCH-1316
p1315
aVNUTCH-1315
p1316
aVNUTCH-1314
p1317
aVNUTCH-1313
p1318
aVNUTCH-1312
p1319
aVNUTCH-1311
p1320
aVNUTCH-1310
p1321
aVNUTCH-1309
p1322
aVNUTCH-1308
p1323
aVNUTCH-1307
p1324
aVNUTCH-1306
p1325
aVNUTCH-1305
p1326
aVNUTCH-1304
p1327
aVNUTCH-1303
p1328
aVNUTCH-1302
p1329
aVNUTCH-1301
p1330
aVNUTCH-1300
p1331
aVNUTCH-1299
p1332
aVNUTCH-1298
p1333
aVNUTCH-1297
p1334
aVNUTCH-1296
p1335
aVNUTCH-1295
p1336
aVNUTCH-1294
p1337
aVNUTCH-1293
p1338
aVNUTCH-1292
p1339
aVNUTCH-1291
p1340
aVNUTCH-1290
p1341
aVNUTCH-1289
p1342
aVNUTCH-1288
p1343
aVNUTCH-1287
p1344
aVNUTCH-1286
p1345
aVNUTCH-1285
p1346
aVNUTCH-1284
p1347
aVNUTCH-1283
p1348
aVNUTCH-1282
p1349
aVNUTCH-1281
p1350
aVNUTCH-1280
p1351
aVNUTCH-1279
p1352
aVNUTCH-1278
p1353
aVNUTCH-1277
p1354
aVNUTCH-1276
p1355
aVNUTCH-1275
p1356
aVNUTCH-1274
p1357
aVNUTCH-1273
p1358
aVNUTCH-1272
p1359
aVNUTCH-1271
p1360
aVNUTCH-1270
p1361
aVNUTCH-1269
p1362
aVNUTCH-1268
p1363
aVNUTCH-1267
p1364
aVNUTCH-1266
p1365
aVNUTCH-1265
p1366
aVNUTCH-1264
p1367
aVNUTCH-1263
p1368
aVNUTCH-1262
p1369
aVNUTCH-1261
p1370
aVNUTCH-1260
p1371
aVNUTCH-1259
p1372
aVNUTCH-1258
p1373
aVNUTCH-1257
p1374
aVNUTCH-1256
p1375
aVNUTCH-1255
p1376
aVNUTCH-1254
p1377
aVNUTCH-1253
p1378
aVNUTCH-1252
p1379
aVNUTCH-1251
p1380
aVNUTCH-1250
p1381
aVNUTCH-1249
p1382
aVNUTCH-1248
p1383
aVNUTCH-1247
p1384
aVNUTCH-1246
p1385
aVNUTCH-1245
p1386
aVNUTCH-1244
p1387
aVNUTCH-1243
p1388
aVNUTCH-1242
p1389
aVNUTCH-1241
p1390
aVNUTCH-1240
p1391
aVNUTCH-1239
p1392
aVNUTCH-1238
p1393
aVNUTCH-1237
p1394
aVNUTCH-1236
p1395
aVNUTCH-1235
p1396
aVNUTCH-1234
p1397
aVNUTCH-1233
p1398
aVNUTCH-1232
p1399
aVNUTCH-1231
p1400
aVNUTCH-1230
p1401
aVNUTCH-1229
p1402
aVNUTCH-1228
p1403
aVNUTCH-1227
p1404
aVNUTCH-1226
p1405
aVNUTCH-1225
p1406
aVNUTCH-1224
p1407
aVNUTCH-1223
p1408
aVNUTCH-1222
p1409
aVNUTCH-1221
p1410
aVNUTCH-1220
p1411
aVNUTCH-1219
p1412
aVNUTCH-1218
p1413
aVNUTCH-1217
p1414
aVNUTCH-1216
p1415
aVNUTCH-1215
p1416
aVNUTCH-1214
p1417
aVNUTCH-1213
p1418
aVNUTCH-1212
p1419
aVNUTCH-1211
p1420
aVNUTCH-1210
p1421
aVNUTCH-1209
p1422
aVNUTCH-1208
p1423
aVNUTCH-1207
p1424
aVNUTCH-1206
p1425
aVNUTCH-1205
p1426
aVNUTCH-1204
p1427
aVNUTCH-1203
p1428
aVNUTCH-1202
p1429
aVNUTCH-1201
p1430
aVNUTCH-1200
p1431
aVNUTCH-1199
p1432
aVNUTCH-1198
p1433
aVNUTCH-1197
p1434
aVNUTCH-1196
p1435
aVNUTCH-1195
p1436
aVNUTCH-1194
p1437
aVNUTCH-1193
p1438
aVNUTCH-1192
p1439
aVNUTCH-1191
p1440
aVNUTCH-1190
p1441
aVNUTCH-1189
p1442
aVNUTCH-1188
p1443
aVNUTCH-1187
p1444
aVNUTCH-1186
p1445
aVNUTCH-1185
p1446
aVNUTCH-1184
p1447
aVNUTCH-1183
p1448
aVNUTCH-1182
p1449
aVNUTCH-1181
p1450
aVNUTCH-1180
p1451
aVNUTCH-1179
p1452
aVNUTCH-1178
p1453
aVNUTCH-1177
p1454
aVNUTCH-1176
p1455
aVNUTCH-1175
p1456
aVNUTCH-1174
p1457
aVNUTCH-1173
p1458
aVNUTCH-1172
p1459
aVNUTCH-1171
p1460
aVNUTCH-1170
p1461
aVNUTCH-1169
p1462
aVNUTCH-1168
p1463
aVNUTCH-1167
p1464
aVNUTCH-1166
p1465
aVNUTCH-1165
p1466
aVNUTCH-1164
p1467
aVNUTCH-1163
p1468
aVNUTCH-1162
p1469
aVNUTCH-1161
p1470
aVNUTCH-1160
p1471
aVNUTCH-1159
p1472
aVNUTCH-1158
p1473
aVNUTCH-1157
p1474
aVNUTCH-1156
p1475
aVNUTCH-1155
p1476
aVNUTCH-1154
p1477
aVNUTCH-1153
p1478
aVNUTCH-1152
p1479
aVNUTCH-1151
p1480
aVNUTCH-1150
p1481
aVNUTCH-1149
p1482
aVNUTCH-1148
p1483
aVNUTCH-1147
p1484
aVNUTCH-1146
p1485
aVNUTCH-1145
p1486
aVNUTCH-1144
p1487
aVNUTCH-1143
p1488
aVNUTCH-1142
p1489
aVNUTCH-1141
p1490
aVNUTCH-1140
p1491
aVNUTCH-1139
p1492
aVNUTCH-1138
p1493
aVNUTCH-1137
p1494
aVNUTCH-1136
p1495
aVNUTCH-1135
p1496
aVNUTCH-1134
p1497
aVNUTCH-1133
p1498
aVNUTCH-1132
p1499
aVNUTCH-1131
p1500
aVNUTCH-1130
p1501
aVNUTCH-1129
p1502
aVNUTCH-1128
p1503
aVNUTCH-1127
p1504
aVNUTCH-1126
p1505
aVNUTCH-1125
p1506
aVNUTCH-1124
p1507
aVNUTCH-1123
p1508
aVNUTCH-1122
p1509
aVNUTCH-1121
p1510
aVNUTCH-1120
p1511
aVNUTCH-1119
p1512
aVNUTCH-1118
p1513
aVNUTCH-1117
p1514
aVNUTCH-1116
p1515
aVNUTCH-1115
p1516
aVNUTCH-1114
p1517
aVNUTCH-1113
p1518
aVNUTCH-1112
p1519
aVNUTCH-1111
p1520
aVNUTCH-1110
p1521
aVNUTCH-1109
p1522
aVNUTCH-1108
p1523
aVNUTCH-1107
p1524
aVNUTCH-1106
p1525
aVNUTCH-1105
p1526
aVNUTCH-1104
p1527
aVNUTCH-1103
p1528
aVNUTCH-1102
p1529
aVNUTCH-1101
p1530
aVNUTCH-1100
p1531
aVNUTCH-1099
p1532
aVNUTCH-1098
p1533
aVNUTCH-1097
p1534
aVNUTCH-1096
p1535
aVNUTCH-1095
p1536
aVNUTCH-1094
p1537
aVNUTCH-1093
p1538
aVNUTCH-1092
p1539
aVNUTCH-1091
p1540
aVNUTCH-1090
p1541
aVNUTCH-1089
p1542
aVNUTCH-1088
p1543
aVNUTCH-1087
p1544
aVNUTCH-1086
p1545
aVNUTCH-1085
p1546
aVNUTCH-1084
p1547
aVNUTCH-1083
p1548
aVNUTCH-1082
p1549
aVNUTCH-1081
p1550
aVNUTCH-1080
p1551
aVNUTCH-1079
p1552
aVNUTCH-1078
p1553
aVNUTCH-1077
p1554
aVNUTCH-1076
p1555
aVNUTCH-1075
p1556
aVNUTCH-1074
p1557
aVNUTCH-1073
p1558
aVNUTCH-1072
p1559
aVNUTCH-1071
p1560
aVNUTCH-1070
p1561
aVNUTCH-1069
p1562
aVNUTCH-1068
p1563
aVNUTCH-1067
p1564
aVNUTCH-1066
p1565
aVNUTCH-1065
p1566
aVNUTCH-1064
p1567
aVNUTCH-1063
p1568
aVNUTCH-1062
p1569
aVNUTCH-1061
p1570
aVNUTCH-1060
p1571
aVNUTCH-1059
p1572
aVNUTCH-1058
p1573
aVNUTCH-1057
p1574
aVNUTCH-1056
p1575
aVNUTCH-1055
p1576
aVNUTCH-1054
p1577
aVNUTCH-1053
p1578
aVNUTCH-1052
p1579
aVNUTCH-1051
p1580
aVNUTCH-1050
p1581
aVNUTCH-1049
p1582
aVNUTCH-1048
p1583
aVNUTCH-1047
p1584
aVNUTCH-1046
p1585
aVNUTCH-1045
p1586
aVNUTCH-1044
p1587
aVNUTCH-1043
p1588
aVNUTCH-1042
p1589
aVNUTCH-1041
p1590
aVNUTCH-1040
p1591
aVNUTCH-1039
p1592
aVNUTCH-1038
p1593
aVNUTCH-1037
p1594
aVNUTCH-1036
p1595
aVNUTCH-1035
p1596
aVNUTCH-1034
p1597
aVNUTCH-1033
p1598
aVNUTCH-1032
p1599
aVNUTCH-1031
p1600
aVNUTCH-1030
p1601
aVNUTCH-1029
p1602
aVNUTCH-1028
p1603
aVNUTCH-1027
p1604
aVNUTCH-1026
p1605
aVNUTCH-1025
p1606
aVNUTCH-1024
p1607
aVNUTCH-1023
p1608
aVNUTCH-1022
p1609
aVNUTCH-1021
p1610
aVNUTCH-1020
p1611
aVNUTCH-1019
p1612
aVNUTCH-1018
p1613
aVNUTCH-1017
p1614
aVNUTCH-1016
p1615
aVNUTCH-1015
p1616
aVNUTCH-1014
p1617
aVNUTCH-1013
p1618
aVNUTCH-1012
p1619
aVNUTCH-1011
p1620
aVNUTCH-1010
p1621
aVNUTCH-1009
p1622
aVNUTCH-1008
p1623
aVNUTCH-1007
p1624
aVNUTCH-1006
p1625
aVNUTCH-1005
p1626
aVNUTCH-1004
p1627
aVNUTCH-1003
p1628
aVNUTCH-1002
p1629
aVNUTCH-1001
p1630
aVNUTCH-1000
p1631
aVNUTCH-999
p1632
aVNUTCH-998
p1633
aVNUTCH-997
p1634
aVNUTCH-996
p1635
aVNUTCH-995
p1636
aVNUTCH-994
p1637
aVNUTCH-993
p1638
aVNUTCH-992
p1639
aVNUTCH-991
p1640
aVNUTCH-990
p1641
aVNUTCH-989
p1642
aVNUTCH-988
p1643
aVNUTCH-987
p1644
aVNUTCH-986
p1645
aVNUTCH-985
p1646
aVNUTCH-984
p1647
aVNUTCH-983
p1648
aVNUTCH-982
p1649
aVNUTCH-981
p1650
aVNUTCH-980
p1651
aVNUTCH-979
p1652
aVNUTCH-978
p1653
aVNUTCH-977
p1654
aVNUTCH-976
p1655
aVNUTCH-975
p1656
aVNUTCH-974
p1657
aVNUTCH-973
p1658
aVNUTCH-972
p1659
aVNUTCH-971
p1660
aVNUTCH-970
p1661
aVNUTCH-969
p1662
aVNUTCH-968
p1663
aVNUTCH-967
p1664
aVNUTCH-966
p1665
aVNUTCH-965
p1666
aVNUTCH-964
p1667
aVNUTCH-963
p1668
aVNUTCH-962
p1669
aVNUTCH-961
p1670
aVNUTCH-960
p1671
aVNUTCH-959
p1672
aVNUTCH-958
p1673
aVNUTCH-957
p1674
aVNUTCH-956
p1675
aVNUTCH-955
p1676
aVNUTCH-954
p1677
aVNUTCH-953
p1678
aVNUTCH-952
p1679
aVNUTCH-951
p1680
aVNUTCH-950
p1681
aVNUTCH-949
p1682
aVNUTCH-948
p1683
aVNUTCH-947
p1684
aVNUTCH-946
p1685
aVNUTCH-945
p1686
aVNUTCH-944
p1687
aVNUTCH-943
p1688
aVNUTCH-942
p1689
aVNUTCH-941
p1690
aVNUTCH-940
p1691
aVNUTCH-939
p1692
aVNUTCH-938
p1693
aVNUTCH-937
p1694
aVNUTCH-936
p1695
aVNUTCH-935
p1696
aVNUTCH-934
p1697
aVNUTCH-933
p1698
aVNUTCH-932
p1699
aVNUTCH-931
p1700
aVNUTCH-930
p1701
aVNUTCH-929
p1702
aVNUTCH-928
p1703
aVNUTCH-927
p1704
aVNUTCH-926
p1705
aVNUTCH-925
p1706
aVNUTCH-924
p1707
aVNUTCH-923
p1708
aVNUTCH-922
p1709
aVNUTCH-921
p1710
aVNUTCH-920
p1711
aVNUTCH-919
p1712
aVNUTCH-918
p1713
aVNUTCH-917
p1714
aVNUTCH-916
p1715
aVNUTCH-915
p1716
aVNUTCH-914
p1717
aVNUTCH-913
p1718
aVNUTCH-912
p1719
aVNUTCH-911
p1720
aVNUTCH-910
p1721
aVNUTCH-909
p1722
aVNUTCH-908
p1723
aVNUTCH-907
p1724
aVNUTCH-906
p1725
aVNUTCH-905
p1726
aVNUTCH-904
p1727
aVNUTCH-903
p1728
aVNUTCH-902
p1729
aVNUTCH-901
p1730
aVNUTCH-900
p1731
aVNUTCH-899
p1732
aVNUTCH-898
p1733
aVNUTCH-897
p1734
aVNUTCH-896
p1735
aVNUTCH-895
p1736
aVNUTCH-894
p1737
aVNUTCH-893
p1738
aVNUTCH-892
p1739
aVNUTCH-891
p1740
aVNUTCH-890
p1741
aVNUTCH-889
p1742
aVNUTCH-888
p1743
aVNUTCH-887
p1744
aVNUTCH-886
p1745
aVNUTCH-885
p1746
aVNUTCH-884
p1747
aVNUTCH-883
p1748
aVNUTCH-882
p1749
aVNUTCH-881
p1750
aVNUTCH-880
p1751
aVNUTCH-879
p1752
aVNUTCH-878
p1753
aVNUTCH-877
p1754
aVNUTCH-876
p1755
aVNUTCH-875
p1756
aVNUTCH-874
p1757
aVNUTCH-873
p1758
aVNUTCH-872
p1759
aVNUTCH-871
p1760
aVNUTCH-870
p1761
aVNUTCH-869
p1762
aVNUTCH-868
p1763
aVNUTCH-867
p1764
aVNUTCH-866
p1765
aVNUTCH-865
p1766
aVNUTCH-864
p1767
aVNUTCH-863
p1768
aVNUTCH-862
p1769
aVNUTCH-861
p1770
aVNUTCH-860
p1771
aVNUTCH-859
p1772
aVNUTCH-858
p1773
aVNUTCH-857
p1774
aVNUTCH-856
p1775
aVNUTCH-855
p1776
aVNUTCH-854
p1777
aVNUTCH-853
p1778
aVNUTCH-852
p1779
aVNUTCH-851
p1780
aVNUTCH-850
p1781
aVNUTCH-849
p1782
aVNUTCH-848
p1783
aVNUTCH-847
p1784
aVNUTCH-846
p1785
aVNUTCH-845
p1786
aVNUTCH-844
p1787
aVNUTCH-843
p1788
aVNUTCH-842
p1789
aVNUTCH-841
p1790
aVNUTCH-840
p1791
aVNUTCH-839
p1792
aVNUTCH-838
p1793
aVNUTCH-837
p1794
aVNUTCH-836
p1795
aVNUTCH-835
p1796
aVNUTCH-834
p1797
aVNUTCH-833
p1798
aVNUTCH-832
p1799
aVNUTCH-831
p1800
aVNUTCH-830
p1801
aVNUTCH-829
p1802
aVNUTCH-828
p1803
aVNUTCH-827
p1804
aVNUTCH-826
p1805
aVNUTCH-825
p1806
aVNUTCH-824
p1807
aVNUTCH-823
p1808
aVNUTCH-822
p1809
aVNUTCH-821
p1810
aVNUTCH-820
p1811
aVNUTCH-819
p1812
aVNUTCH-818
p1813
aVNUTCH-817
p1814
aVNUTCH-816
p1815
aVNUTCH-815
p1816
aVNUTCH-814
p1817
aVNUTCH-813
p1818
aVNUTCH-812
p1819
aVNUTCH-811
p1820
aVNUTCH-810
p1821
aVNUTCH-809
p1822
aVNUTCH-808
p1823
aVNUTCH-807
p1824
aVNUTCH-806
p1825
aVNUTCH-805
p1826
aVNUTCH-804
p1827
aVNUTCH-803
p1828
aVNUTCH-802
p1829
aVNUTCH-801
p1830
aVNUTCH-800
p1831
aVNUTCH-799
p1832
aVNUTCH-798
p1833
aVNUTCH-797
p1834
aVNUTCH-796
p1835
aVNUTCH-795
p1836
aVNUTCH-794
p1837
aVNUTCH-793
p1838
aVNUTCH-792
p1839
aVNUTCH-791
p1840
aVNUTCH-790
p1841
aVNUTCH-789
p1842
aVNUTCH-788
p1843
aVNUTCH-787
p1844
aVNUTCH-786
p1845
aVNUTCH-785
p1846
aVNUTCH-784
p1847
aVNUTCH-783
p1848
aVNUTCH-782
p1849
aVNUTCH-781
p1850
aVNUTCH-780
p1851
aVNUTCH-779
p1852
aVNUTCH-778
p1853
aVNUTCH-777
p1854
aVNUTCH-776
p1855
aVNUTCH-775
p1856
aVNUTCH-774
p1857
aVNUTCH-773
p1858
aVNUTCH-772
p1859
aVNUTCH-771
p1860
aVNUTCH-770
p1861
aVNUTCH-769
p1862
aVNUTCH-768
p1863
aVNUTCH-767
p1864
aVNUTCH-766
p1865
aVNUTCH-765
p1866
aVNUTCH-764
p1867
aVNUTCH-763
p1868
aVNUTCH-762
p1869
aVNUTCH-761
p1870
aVNUTCH-760
p1871
aVNUTCH-759
p1872
aVNUTCH-758
p1873
aVNUTCH-757
p1874
aVNUTCH-756
p1875
aVNUTCH-755
p1876
aVNUTCH-754
p1877
aVNUTCH-753
p1878
aVNUTCH-752
p1879
aVNUTCH-751
p1880
aVNUTCH-750
p1881
aVNUTCH-749
p1882
aVNUTCH-748
p1883
aVNUTCH-747
p1884
aVNUTCH-746
p1885
aVNUTCH-745
p1886
aVNUTCH-744
p1887
aVNUTCH-743
p1888
aVNUTCH-742
p1889
aVNUTCH-741
p1890
aVNUTCH-740
p1891
aVNUTCH-739
p1892
aVNUTCH-738
p1893
aVNUTCH-737
p1894
aVNUTCH-736
p1895
aVNUTCH-735
p1896
aVNUTCH-734
p1897
aVNUTCH-733
p1898
aVNUTCH-732
p1899
aVNUTCH-731
p1900
aVNUTCH-730
p1901
aVNUTCH-729
p1902
aVNUTCH-728
p1903
aVNUTCH-727
p1904
aVNUTCH-726
p1905
aVNUTCH-725
p1906
aVNUTCH-724
p1907
aVNUTCH-723
p1908
aVNUTCH-722
p1909
aVNUTCH-721
p1910
aVNUTCH-720
p1911
aVNUTCH-719
p1912
aVNUTCH-718
p1913
aVNUTCH-717
p1914
aVNUTCH-716
p1915
aVNUTCH-715
p1916
aVNUTCH-714
p1917
aVNUTCH-713
p1918
aVNUTCH-712
p1919
aVNUTCH-711
p1920
aVNUTCH-710
p1921
aVNUTCH-709
p1922
aVNUTCH-708
p1923
aVNUTCH-707
p1924
aVNUTCH-706
p1925
aVNUTCH-705
p1926
aVNUTCH-704
p1927
aVNUTCH-703
p1928
aVNUTCH-702
p1929
aVNUTCH-701
p1930
aVNUTCH-700
p1931
aVNUTCH-699
p1932
aVNUTCH-698
p1933
aVNUTCH-697
p1934
aVNUTCH-696
p1935
aVNUTCH-695
p1936
aVNUTCH-694
p1937
aVNUTCH-693
p1938
aVNUTCH-692
p1939
aVNUTCH-691
p1940
aVNUTCH-690
p1941
aVNUTCH-689
p1942
aVNUTCH-688
p1943
aVNUTCH-687
p1944
aVNUTCH-686
p1945
aVNUTCH-685
p1946
aVNUTCH-684
p1947
aVNUTCH-683
p1948
aVNUTCH-682
p1949
aVNUTCH-681
p1950
aVNUTCH-680
p1951
aVNUTCH-679
p1952
aVNUTCH-678
p1953
aVNUTCH-677
p1954
aVNUTCH-676
p1955
aVNUTCH-675
p1956
aVNUTCH-674
p1957
aVNUTCH-673
p1958
aVNUTCH-672
p1959
aVNUTCH-671
p1960
aVNUTCH-670
p1961
aVNUTCH-669
p1962
aVNUTCH-668
p1963
aVNUTCH-667
p1964
aVNUTCH-666
p1965
aVNUTCH-665
p1966
aVNUTCH-664
p1967
aVNUTCH-663
p1968
aVNUTCH-662
p1969
aVNUTCH-661
p1970
aVNUTCH-660
p1971
aVNUTCH-659
p1972
aVNUTCH-658
p1973
aVNUTCH-657
p1974
aVNUTCH-656
p1975
aVNUTCH-655
p1976
aVNUTCH-654
p1977
aVNUTCH-653
p1978
aVNUTCH-652
p1979
aVNUTCH-651
p1980
aVNUTCH-650
p1981
aVNUTCH-649
p1982
aVNUTCH-648
p1983
aVNUTCH-647
p1984
aVNUTCH-646
p1985
aVNUTCH-645
p1986
aVNUTCH-644
p1987
aVNUTCH-643
p1988
aVNUTCH-642
p1989
aVNUTCH-641
p1990
aVNUTCH-640
p1991
aVNUTCH-639
p1992
aVNUTCH-638
p1993
aVNUTCH-637
p1994
aVNUTCH-636
p1995
aVNUTCH-635
p1996
aVNUTCH-634
p1997
aVNUTCH-633
p1998
aVNUTCH-632
p1999
aVNUTCH-631
p2000
aVNUTCH-630
p2001
aVNUTCH-629
p2002
aVNUTCH-628
p2003
aVNUTCH-627
p2004
aVNUTCH-626
p2005
aVNUTCH-625
p2006
aVNUTCH-624
p2007
aVNUTCH-623
p2008
aVNUTCH-622
p2009
aVNUTCH-621
p2010
aVNUTCH-620
p2011
aVNUTCH-619
p2012
aVNUTCH-618
p2013
aVNUTCH-617
p2014
aVNUTCH-616
p2015
aVNUTCH-615
p2016
aVNUTCH-614
p2017
aVNUTCH-613
p2018
aVNUTCH-612
p2019
aVNUTCH-611
p2020
aVNUTCH-610
p2021
aVNUTCH-609
p2022
aVNUTCH-608
p2023
aVNUTCH-607
p2024
aVNUTCH-606
p2025
aVNUTCH-605
p2026
aVNUTCH-604
p2027
aVNUTCH-603
p2028
aVNUTCH-602
p2029
aVNUTCH-601
p2030
aVNUTCH-600
p2031
aVNUTCH-599
p2032
aVNUTCH-598
p2033
aVNUTCH-597
p2034
aVNUTCH-596
p2035
aVNUTCH-595
p2036
aVNUTCH-594
p2037
aVNUTCH-593
p2038
aVNUTCH-592
p2039
aVNUTCH-591
p2040
aVNUTCH-590
p2041
aVNUTCH-589
p2042
aVNUTCH-588
p2043
aVNUTCH-587
p2044
aVNUTCH-586
p2045
aVNUTCH-585
p2046
aVNUTCH-584
p2047
aVNUTCH-583
p2048
aVNUTCH-582
p2049
aVNUTCH-581
p2050
aVNUTCH-580
p2051
aVNUTCH-579
p2052
aVNUTCH-578
p2053
aVNUTCH-577
p2054
aVNUTCH-576
p2055
aVNUTCH-575
p2056
aVNUTCH-574
p2057
aVNUTCH-573
p2058
aVNUTCH-572
p2059
aVNUTCH-571
p2060
aVNUTCH-570
p2061
aVNUTCH-569
p2062
aVNUTCH-568
p2063
aVNUTCH-567
p2064
aVNUTCH-566
p2065
aVNUTCH-565
p2066
aVNUTCH-564
p2067
aVNUTCH-563
p2068
aVNUTCH-562
p2069
aVNUTCH-561
p2070
aVNUTCH-560
p2071
aVNUTCH-559
p2072
aVNUTCH-558
p2073
aVNUTCH-557
p2074
aVNUTCH-556
p2075
aVNUTCH-555
p2076
aVNUTCH-554
p2077
aVNUTCH-553
p2078
aVNUTCH-552
p2079
aVNUTCH-551
p2080
aVNUTCH-550
p2081
aVNUTCH-549
p2082
aVNUTCH-548
p2083
aVNUTCH-547
p2084
aVNUTCH-546
p2085
aVNUTCH-545
p2086
aVNUTCH-544
p2087
aVNUTCH-543
p2088
aVNUTCH-542
p2089
aVNUTCH-541
p2090
aVNUTCH-540
p2091
aVNUTCH-539
p2092
aVNUTCH-538
p2093
aVNUTCH-537
p2094
aVNUTCH-536
p2095
aVNUTCH-535
p2096
aVNUTCH-534
p2097
aVNUTCH-533
p2098
aVNUTCH-532
p2099
aVNUTCH-531
p2100
aVNUTCH-530
p2101
aVNUTCH-529
p2102
aVNUTCH-528
p2103
aVNUTCH-527
p2104
aVNUTCH-526
p2105
aVNUTCH-525
p2106
aVNUTCH-524
p2107
aVNUTCH-523
p2108
aVNUTCH-522
p2109
aVNUTCH-521
p2110
aVNUTCH-520
p2111
aVNUTCH-519
p2112
aVNUTCH-518
p2113
aVNUTCH-517
p2114
aVNUTCH-516
p2115
aVNUTCH-515
p2116
aVNUTCH-514
p2117
aVNUTCH-513
p2118
aVNUTCH-512
p2119
aVNUTCH-511
p2120
aVNUTCH-510
p2121
aVNUTCH-509
p2122
aVNUTCH-508
p2123
aVNUTCH-507
p2124
aVNUTCH-506
p2125
aVNUTCH-505
p2126
aVNUTCH-504
p2127
aVNUTCH-503
p2128
aVNUTCH-502
p2129
aVNUTCH-501
p2130
aVNUTCH-500
p2131
aVNUTCH-499
p2132
aVNUTCH-498
p2133
aVNUTCH-497
p2134
aVNUTCH-496
p2135
aVNUTCH-495
p2136
aVNUTCH-494
p2137
aVNUTCH-493
p2138
aVNUTCH-492
p2139
aVNUTCH-491
p2140
aVNUTCH-490
p2141
aVNUTCH-489
p2142
aVNUTCH-488
p2143
aVNUTCH-487
p2144
aVNUTCH-486
p2145
aVNUTCH-485
p2146
aVNUTCH-484
p2147
aVNUTCH-483
p2148
aVNUTCH-482
p2149
aVNUTCH-481
p2150
aVNUTCH-480
p2151
aVNUTCH-479
p2152
aVNUTCH-478
p2153
aVNUTCH-477
p2154
aVNUTCH-476
p2155
aVNUTCH-475
p2156
aVNUTCH-474
p2157
aVNUTCH-473
p2158
aVNUTCH-472
p2159
aVNUTCH-471
p2160
aVNUTCH-470
p2161
aVNUTCH-469
p2162
aVNUTCH-468
p2163
aVNUTCH-467
p2164
aVNUTCH-466
p2165
aVNUTCH-465
p2166
aVNUTCH-464
p2167
aVNUTCH-463
p2168
aVNUTCH-462
p2169
aVNUTCH-461
p2170
aVNUTCH-460
p2171
aVNUTCH-459
p2172
aVNUTCH-458
p2173
aVNUTCH-457
p2174
aVNUTCH-456
p2175
aVNUTCH-455
p2176
aVNUTCH-454
p2177
aVNUTCH-453
p2178
aVNUTCH-452
p2179
aVNUTCH-451
p2180
aVNUTCH-450
p2181
aVNUTCH-449
p2182
aVNUTCH-448
p2183
aVNUTCH-447
p2184
aVNUTCH-446
p2185
aVNUTCH-445
p2186
aVNUTCH-444
p2187
aVNUTCH-443
p2188
aVNUTCH-442
p2189
aVNUTCH-441
p2190
aVNUTCH-440
p2191
aVNUTCH-439
p2192
aVNUTCH-438
p2193
aVNUTCH-437
p2194
aVNUTCH-436
p2195
aVNUTCH-435
p2196
aVNUTCH-434
p2197
aVNUTCH-433
p2198
aVNUTCH-432
p2199
aVNUTCH-431
p2200
aVNUTCH-430
p2201
aVNUTCH-429
p2202
aVNUTCH-428
p2203
aVNUTCH-427
p2204
aVNUTCH-426
p2205
aVNUTCH-425
p2206
aVNUTCH-424
p2207
aVNUTCH-423
p2208
aVNUTCH-422
p2209
aVNUTCH-421
p2210
aVNUTCH-420
p2211
aVNUTCH-419
p2212
aVNUTCH-418
p2213
aVNUTCH-417
p2214
aVNUTCH-416
p2215
aVNUTCH-415
p2216
aVNUTCH-414
p2217
aVNUTCH-413
p2218
aVNUTCH-412
p2219
aVNUTCH-411
p2220
aVNUTCH-410
p2221
aVNUTCH-409
p2222
aVNUTCH-408
p2223
aVNUTCH-407
p2224
aVNUTCH-406
p2225
aVNUTCH-405
p2226
aVNUTCH-404
p2227
aVNUTCH-403
p2228
aVNUTCH-402
p2229
aVNUTCH-401
p2230
aVNUTCH-400
p2231
aVNUTCH-399
p2232
aVNUTCH-398
p2233
aVNUTCH-397
p2234
aVNUTCH-396
p2235
aVNUTCH-395
p2236
aVNUTCH-394
p2237
aVNUTCH-393
p2238
aVNUTCH-392
p2239
aVNUTCH-391
p2240
aVNUTCH-390
p2241
aVNUTCH-389
p2242
aVNUTCH-388
p2243
aVNUTCH-387
p2244
aVNUTCH-386
p2245
aVNUTCH-385
p2246
aVNUTCH-384
p2247
aVNUTCH-383
p2248
aVNUTCH-382
p2249
aVNUTCH-381
p2250
aVNUTCH-380
p2251
aVNUTCH-379
p2252
aVNUTCH-378
p2253
aVNUTCH-377
p2254
aVNUTCH-376
p2255
aVNUTCH-375
p2256
aVNUTCH-374
p2257
aVNUTCH-373
p2258
aVNUTCH-372
p2259
aVNUTCH-371
p2260
aVNUTCH-370
p2261
aVNUTCH-369
p2262
aVNUTCH-368
p2263
aVNUTCH-367
p2264
aVNUTCH-366
p2265
aVNUTCH-365
p2266
aVNUTCH-364
p2267
aVNUTCH-363
p2268
aVNUTCH-362
p2269
aVNUTCH-361
p2270
aVNUTCH-360
p2271
aVNUTCH-359
p2272
aVNUTCH-358
p2273
aVNUTCH-357
p2274
aVNUTCH-356
p2275
aVNUTCH-355
p2276
aVNUTCH-354
p2277
aVNUTCH-353
p2278
aVNUTCH-352
p2279
aVNUTCH-351
p2280
aVNUTCH-350
p2281
aVNUTCH-349
p2282
aVNUTCH-348
p2283
aVNUTCH-347
p2284
aVNUTCH-346
p2285
aVNUTCH-345
p2286
aVNUTCH-344
p2287
aVNUTCH-343
p2288
aVNUTCH-342
p2289
aVNUTCH-341
p2290
aVNUTCH-340
p2291
aVNUTCH-339
p2292
aVNUTCH-338
p2293
aVNUTCH-337
p2294
aVNUTCH-336
p2295
aVNUTCH-335
p2296
aVNUTCH-334
p2297
aVNUTCH-333
p2298
aVNUTCH-332
p2299
aVNUTCH-331
p2300
aVNUTCH-330
p2301
aVNUTCH-329
p2302
aVNUTCH-328
p2303
aVNUTCH-327
p2304
aVNUTCH-326
p2305
aVNUTCH-325
p2306
aVNUTCH-324
p2307
aVNUTCH-323
p2308
aVNUTCH-322
p2309
aVNUTCH-321
p2310
aVNUTCH-320
p2311
aVNUTCH-319
p2312
aVNUTCH-318
p2313
aVNUTCH-317
p2314
aVNUTCH-316
p2315
aVNUTCH-315
p2316
aVNUTCH-314
p2317
aVNUTCH-313
p2318
aVNUTCH-312
p2319
aVNUTCH-311
p2320
aVNUTCH-310
p2321
aVNUTCH-309
p2322
aVNUTCH-308
p2323
aVNUTCH-307
p2324
aVNUTCH-306
p2325
aVNUTCH-305
p2326
aVNUTCH-304
p2327
aVNUTCH-303
p2328
aVNUTCH-302
p2329
aVNUTCH-301
p2330
aVNUTCH-300
p2331
aVNUTCH-299
p2332
aVNUTCH-298
p2333
aVNUTCH-297
p2334
aVNUTCH-296
p2335
aVNUTCH-295
p2336
aVNUTCH-294
p2337
aVNUTCH-293
p2338
aVNUTCH-292
p2339
aVNUTCH-291
p2340
aVNUTCH-290
p2341
aVNUTCH-289
p2342
aVNUTCH-288
p2343
aVNUTCH-287
p2344
aVNUTCH-286
p2345
aVNUTCH-285
p2346
aVNUTCH-284
p2347
aVNUTCH-283
p2348
aVNUTCH-282
p2349
aVNUTCH-281
p2350
aVNUTCH-280
p2351
aVNUTCH-279
p2352
aVNUTCH-278
p2353
aVNUTCH-277
p2354
aVNUTCH-276
p2355
aVNUTCH-275
p2356
aVNUTCH-274
p2357
aVNUTCH-273
p2358
aVNUTCH-272
p2359
aVNUTCH-271
p2360
aVNUTCH-270
p2361
aVNUTCH-269
p2362
aVNUTCH-268
p2363
aVNUTCH-267
p2364
aVNUTCH-266
p2365
aVNUTCH-265
p2366
aVNUTCH-264
p2367
aVNUTCH-263
p2368
aVNUTCH-262
p2369
aVNUTCH-261
p2370
aVNUTCH-260
p2371
aVNUTCH-259
p2372
aVNUTCH-258
p2373
aVNUTCH-257
p2374
aVNUTCH-256
p2375
aVNUTCH-255
p2376
aVNUTCH-254
p2377
aVNUTCH-253
p2378
aVNUTCH-252
p2379
aVNUTCH-251
p2380
aVNUTCH-250
p2381
aVNUTCH-249
p2382
aVNUTCH-248
p2383
aVNUTCH-247
p2384
aVNUTCH-246
p2385
aVNUTCH-245
p2386
aVNUTCH-244
p2387
aVNUTCH-243
p2388
aVNUTCH-242
p2389
aVNUTCH-240
p2390
aVNUTCH-239
p2391
aVNUTCH-238
p2392
aVNUTCH-237
p2393
aVNUTCH-236
p2394
aVNUTCH-235
p2395
aVNUTCH-234
p2396
aVNUTCH-233
p2397
aVNUTCH-232
p2398
aVNUTCH-231
p2399
aVNUTCH-230
p2400
aVNUTCH-229
p2401
aVNUTCH-228
p2402
aVNUTCH-227
p2403
aVNUTCH-226
p2404
aVNUTCH-225
p2405
aVNUTCH-224
p2406
aVNUTCH-223
p2407
aVNUTCH-222
p2408
aVNUTCH-221
p2409
aVNUTCH-220
p2410
aVNUTCH-219
p2411
aVNUTCH-218
p2412
aVNUTCH-217
p2413
aVNUTCH-216
p2414
aVNUTCH-215
p2415
aVNUTCH-214
p2416
aVNUTCH-213
p2417
aVNUTCH-212
p2418
aVNUTCH-211
p2419
aVNUTCH-210
p2420
aVNUTCH-209
p2421
aVNUTCH-208
p2422
aVNUTCH-207
p2423
aVNUTCH-206
p2424
aVNUTCH-205
p2425
aVNUTCH-204
p2426
aVNUTCH-203
p2427
aVNUTCH-201
p2428
aVNUTCH-200
p2429
aVNUTCH-198
p2430
aVNUTCH-197
p2431
aVNUTCH-196
p2432
aVNUTCH-194
p2433
aVNUTCH-193
p2434
aVNUTCH-192
p2435
aVNUTCH-190
p2436
aVNUTCH-189
p2437
aVNUTCH-188
p2438
aVNUTCH-187
p2439
aVNUTCH-186
p2440
aVNUTCH-185
p2441
aVNUTCH-184
p2442
aVNUTCH-182
p2443
aVNUTCH-180
p2444
aVNUTCH-179
p2445
aVNUTCH-178
p2446
aVNUTCH-177
p2447
aVNUTCH-176
p2448
aVNUTCH-175
p2449
aVNUTCH-174
p2450
aVNUTCH-173
p2451
aVNUTCH-172
p2452
aVNUTCH-171
p2453
aVNUTCH-169
p2454
aVNUTCH-168
p2455
aVNUTCH-167
p2456
aVNUTCH-166
p2457
aVNUTCH-165
p2458
aVNUTCH-164
p2459
aVNUTCH-163
p2460
aVNUTCH-162
p2461
aVNUTCH-161
p2462
aVNUTCH-160
p2463
aVNUTCH-159
p2464
aVNUTCH-158
p2465
aVNUTCH-157
p2466
aVNUTCH-156
p2467
aVNUTCH-155
p2468
aVNUTCH-154
p2469
aVNUTCH-153
p2470
aVNUTCH-152
p2471
aVNUTCH-151
p2472
aVNUTCH-150
p2473
aVNUTCH-149
p2474
aVNUTCH-148
p2475
aVNUTCH-147
p2476
aVNUTCH-146
p2477
aVNUTCH-145
p2478
aVNUTCH-144
p2479
aVNUTCH-143
p2480
aVNUTCH-142
p2481
aVNUTCH-141
p2482
aVNUTCH-140
p2483
aVNUTCH-139
p2484
aVNUTCH-138
p2485
aVNUTCH-137
p2486
aVNUTCH-136
p2487
aVNUTCH-135
p2488
aVNUTCH-134
p2489
aVNUTCH-133
p2490
aVNUTCH-132
p2491
aVNUTCH-131
p2492
aVNUTCH-130
p2493
aVNUTCH-129
p2494
aVNUTCH-128
p2495
aVNUTCH-127
p2496
aVNUTCH-126
p2497
aVNUTCH-125
p2498
aVNUTCH-124
p2499
aVNUTCH-123
p2500
aVNUTCH-122
p2501
aVNUTCH-121
p2502
aVNUTCH-120
p2503
aVNUTCH-119
p2504
aVNUTCH-118
p2505
aVNUTCH-117
p2506
aVNUTCH-116
p2507
aVNUTCH-115
p2508
aVNUTCH-114
p2509
aVNUTCH-113
p2510
aVNUTCH-112
p2511
aVNUTCH-110
p2512
aVNUTCH-109
p2513
aVNUTCH-108
p2514
aVNUTCH-107
p2515
aVNUTCH-105
p2516
aVNUTCH-104
p2517
aVNUTCH-103
p2518
aVNUTCH-102
p2519
aVNUTCH-101
p2520
aVNUTCH-100
p2521
aVNUTCH-99
p2522
aVNUTCH-98
p2523
aVNUTCH-97
p2524
aVNUTCH-96
p2525
aVNUTCH-95
p2526
aVNUTCH-94
p2527
aVNUTCH-93
p2528
aVNUTCH-92
p2529
aVNUTCH-91
p2530
aVNUTCH-90
p2531
aVNUTCH-89
p2532
aVNUTCH-88
p2533
aVNUTCH-87
p2534
aVNUTCH-86
p2535
aVNUTCH-85
p2536
aVNUTCH-84
p2537
aVNUTCH-83
p2538
aVNUTCH-82
p2539
aVNUTCH-81
p2540
aVNUTCH-80
p2541
aVNUTCH-79
p2542
aVNUTCH-78
p2543
aVNUTCH-77
p2544
aVNUTCH-75
p2545
aVNUTCH-74
p2546
aVNUTCH-73
p2547
aVNUTCH-72
p2548
aVNUTCH-71
p2549
aVNUTCH-70
p2550
aVNUTCH-69
p2551
aVNUTCH-68
p2552
aVNUTCH-67
p2553
aVNUTCH-66
p2554
aVNUTCH-65
p2555
aVNUTCH-64
p2556
aVNUTCH-63
p2557
aVNUTCH-62
p2558
aVNUTCH-61
p2559
aVNUTCH-60
p2560
aVNUTCH-59
p2561
aVNUTCH-58
p2562
aVNUTCH-57
p2563
aVNUTCH-56
p2564
aVNUTCH-55
p2565
aVNUTCH-54
p2566
aVNUTCH-53
p2567
aVNUTCH-52
p2568
aVNUTCH-51
p2569
aVNUTCH-50
p2570
aVNUTCH-49
p2571
aVNUTCH-48
p2572
aVNUTCH-47
p2573
aVNUTCH-46
p2574
aVNUTCH-45
p2575
aVNUTCH-44
p2576
aVNUTCH-43
p2577
aVNUTCH-42
p2578
aVNUTCH-41
p2579
aVNUTCH-40
p2580
aVNUTCH-39
p2581
aVNUTCH-38
p2582
aVNUTCH-37
p2583
aVNUTCH-36
p2584
aVNUTCH-35
p2585
aVNUTCH-34
p2586
aVNUTCH-33
p2587
aVNUTCH-32
p2588
aVNUTCH-31
p2589
aVNUTCH-30
p2590
aVNUTCH-29
p2591
aVNUTCH-28
p2592
aVNUTCH-27
p2593
aVNUTCH-26
p2594
aVNUTCH-25
p2595
aVNUTCH-24
p2596
aVNUTCH-23
p2597
aVNUTCH-22
p2598
aVNUTCH-21
p2599
aVNUTCH-20
p2600
aVNUTCH-19
p2601
aVNUTCH-18
p2602
aVNUTCH-17
p2603
aVNUTCH-16
p2604
aVNUTCH-15
p2605
aVNUTCH-14
p2606
aVNUTCH-13
p2607
aVNUTCH-12
p2608
aVNUTCH-11
p2609
aVNUTCH-10
p2610
aVNUTCH-9
p2611
aVNUTCH-8
p2612
aVNUTCH-7
p2613
aVNUTCH-6
p2614
aVNUTCH-5
p2615
aVNUTCH-4
p2616
aVNUTCH-3
p2617
aVNUTCH-2
p2618
aVNUTCH-1
p2619
a.