(lp0
VNUVEM-24
p1
aVNUVEM-23
p2
aVNUVEM-22
p3
aVNUVEM-21
p4
aVNUVEM-20
p5
aVNUVEM-19
p6
aVNUVEM-18
p7
aVNUVEM-17
p8
aVNUVEM-16
p9
aVNUVEM-15
p10
aVNUVEM-14
p11
aVNUVEM-13
p12
aVNUVEM-12
p13
aVNUVEM-11
p14
aVNUVEM-10
p15
aVNUVEM-9
p16
aVNUVEM-8
p17
aVNUVEM-7
p18
aVNUVEM-6
p19
aVNUVEM-5
p20
aVNUVEM-4
p21
aVNUVEM-3
p22
aVNUVEM-2
p23
aVNUVEM-1
p24
a.