(lp0
VOAK-7676
p1
aVOAK-7675
p2
aVOAK-7674
p3
aVOAK-7673
p4
aVOAK-7672
p5
aVOAK-7671
p6
aVOAK-7670
p7
aVOAK-7669
p8
aVOAK-7668
p9
aVOAK-7667
p10
aVOAK-7666
p11
aVOAK-7665
p12
aVOAK-7664
p13
aVOAK-7663
p14
aVOAK-7662
p15
aVOAK-7661
p16
aVOAK-7660
p17
aVOAK-7659
p18
aVOAK-7658
p19
aVOAK-7657
p20
aVOAK-7656
p21
aVOAK-7655
p22
aVOAK-7654
p23
aVOAK-7653
p24
aVOAK-7652
p25
aVOAK-7651
p26
aVOAK-7650
p27
aVOAK-7649
p28
aVOAK-7648
p29
aVOAK-7647
p30
aVOAK-7646
p31
aVOAK-7645
p32
aVOAK-7644
p33
aVOAK-7643
p34
aVOAK-7642
p35
aVOAK-7641
p36
aVOAK-7640
p37
aVOAK-7639
p38
aVOAK-7638
p39
aVOAK-7637
p40
aVOAK-7636
p41
aVOAK-7635
p42
aVOAK-7634
p43
aVOAK-7633
p44
aVOAK-7632
p45
aVOAK-7631
p46
aVOAK-7630
p47
aVOAK-7629
p48
aVOAK-7628
p49
aVOAK-7627
p50
aVOAK-7626
p51
aVOAK-7625
p52
aVOAK-7624
p53
aVOAK-7623
p54
aVOAK-7622
p55
aVOAK-7621
p56
aVOAK-7620
p57
aVOAK-7618
p58
aVOAK-7617
p59
aVOAK-7616
p60
aVOAK-7615
p61
aVOAK-7614
p62
aVOAK-7613
p63
aVOAK-7612
p64
aVOAK-7611
p65
aVOAK-7610
p66
aVOAK-7609
p67
aVOAK-7608
p68
aVOAK-7607
p69
aVOAK-7606
p70
aVOAK-7605
p71
aVOAK-7604
p72
aVOAK-7603
p73
aVOAK-7602
p74
aVOAK-7601
p75
aVOAK-7600
p76
aVOAK-7599
p77
aVOAK-7598
p78
aVOAK-7597
p79
aVOAK-7596
p80
aVOAK-7595
p81
aVOAK-7594
p82
aVOAK-7593
p83
aVOAK-7592
p84
aVOAK-7591
p85
aVOAK-7590
p86
aVOAK-7589
p87
aVOAK-7588
p88
aVOAK-7587
p89
aVOAK-7586
p90
aVOAK-7585
p91
aVOAK-7584
p92
aVOAK-7583
p93
aVOAK-7582
p94
aVOAK-7581
p95
aVOAK-7580
p96
aVOAK-7579
p97
aVOAK-7578
p98
aVOAK-7577
p99
aVOAK-7576
p100
aVOAK-7575
p101
aVOAK-7574
p102
aVOAK-7573
p103
aVOAK-7572
p104
aVOAK-7571
p105
aVOAK-7570
p106
aVOAK-7569
p107
aVOAK-7568
p108
aVOAK-7567
p109
aVOAK-7566
p110
aVOAK-7565
p111
aVOAK-7564
p112
aVOAK-7563
p113
aVOAK-7562
p114
aVOAK-7561
p115
aVOAK-7560
p116
aVOAK-7559
p117
aVOAK-7557
p118
aVOAK-7556
p119
aVOAK-7555
p120
aVOAK-7554
p121
aVOAK-7553
p122
aVOAK-7552
p123
aVOAK-7551
p124
aVOAK-7550
p125
aVOAK-7549
p126
aVOAK-7548
p127
aVOAK-7547
p128
aVOAK-7546
p129
aVOAK-7545
p130
aVOAK-7544
p131
aVOAK-7543
p132
aVOAK-7542
p133
aVOAK-7541
p134
aVOAK-7540
p135
aVOAK-7539
p136
aVOAK-7538
p137
aVOAK-7537
p138
aVOAK-7536
p139
aVOAK-7535
p140
aVOAK-7534
p141
aVOAK-7533
p142
aVOAK-7532
p143
aVOAK-7531
p144
aVOAK-7530
p145
aVOAK-7529
p146
aVOAK-7528
p147
aVOAK-7527
p148
aVOAK-7526
p149
aVOAK-7525
p150
aVOAK-7524
p151
aVOAK-7523
p152
aVOAK-7522
p153
aVOAK-7521
p154
aVOAK-7520
p155
aVOAK-7519
p156
aVOAK-7518
p157
aVOAK-7517
p158
aVOAK-7516
p159
aVOAK-7515
p160
aVOAK-7514
p161
aVOAK-7513
p162
aVOAK-7512
p163
aVOAK-7511
p164
aVOAK-7510
p165
aVOAK-7509
p166
aVOAK-7508
p167
aVOAK-7507
p168
aVOAK-7506
p169
aVOAK-7505
p170
aVOAK-7504
p171
aVOAK-7503
p172
aVOAK-7502
p173
aVOAK-7501
p174
aVOAK-7500
p175
aVOAK-7499
p176
aVOAK-7498
p177
aVOAK-7497
p178
aVOAK-7496
p179
aVOAK-7495
p180
aVOAK-7494
p181
aVOAK-7493
p182
aVOAK-7492
p183
aVOAK-7491
p184
aVOAK-7490
p185
aVOAK-7489
p186
aVOAK-7488
p187
aVOAK-7487
p188
aVOAK-7486
p189
aVOAK-7485
p190
aVOAK-7484
p191
aVOAK-7483
p192
aVOAK-7482
p193
aVOAK-7481
p194
aVOAK-7480
p195
aVOAK-7479
p196
aVOAK-7478
p197
aVOAK-7477
p198
aVOAK-7476
p199
aVOAK-7475
p200
aVOAK-7474
p201
aVOAK-7473
p202
aVOAK-7472
p203
aVOAK-7471
p204
aVOAK-7470
p205
aVOAK-7469
p206
aVOAK-7468
p207
aVOAK-7467
p208
aVOAK-7466
p209
aVOAK-7465
p210
aVOAK-7464
p211
aVOAK-7463
p212
aVOAK-7462
p213
aVOAK-7461
p214
aVOAK-7460
p215
aVOAK-7459
p216
aVOAK-7458
p217
aVOAK-7457
p218
aVOAK-7456
p219
aVOAK-7455
p220
aVOAK-7454
p221
aVOAK-7453
p222
aVOAK-7452
p223
aVOAK-7451
p224
aVOAK-7450
p225
aVOAK-7449
p226
aVOAK-7448
p227
aVOAK-7447
p228
aVOAK-7446
p229
aVOAK-7445
p230
aVOAK-7444
p231
aVOAK-7443
p232
aVOAK-7442
p233
aVOAK-7441
p234
aVOAK-7440
p235
aVOAK-7439
p236
aVOAK-7438
p237
aVOAK-7437
p238
aVOAK-7436
p239
aVOAK-7435
p240
aVOAK-7434
p241
aVOAK-7433
p242
aVOAK-7432
p243
aVOAK-7431
p244
aVOAK-7430
p245
aVOAK-7429
p246
aVOAK-7428
p247
aVOAK-7427
p248
aVOAK-7426
p249
aVOAK-7425
p250
aVOAK-7424
p251
aVOAK-7423
p252
aVOAK-7422
p253
aVOAK-7421
p254
aVOAK-7420
p255
aVOAK-7419
p256
aVOAK-7418
p257
aVOAK-7417
p258
aVOAK-7416
p259
aVOAK-7415
p260
aVOAK-7414
p261
aVOAK-7413
p262
aVOAK-7412
p263
aVOAK-7411
p264
aVOAK-7410
p265
aVOAK-7409
p266
aVOAK-7408
p267
aVOAK-7407
p268
aVOAK-7406
p269
aVOAK-7405
p270
aVOAK-7404
p271
aVOAK-7403
p272
aVOAK-7402
p273
aVOAK-7401
p274
aVOAK-7400
p275
aVOAK-7399
p276
aVOAK-7398
p277
aVOAK-7397
p278
aVOAK-7396
p279
aVOAK-7395
p280
aVOAK-7394
p281
aVOAK-7393
p282
aVOAK-7392
p283
aVOAK-7391
p284
aVOAK-7390
p285
aVOAK-7389
p286
aVOAK-7388
p287
aVOAK-7387
p288
aVOAK-7386
p289
aVOAK-7385
p290
aVOAK-7384
p291
aVOAK-7383
p292
aVOAK-7382
p293
aVOAK-7381
p294
aVOAK-7380
p295
aVOAK-7379
p296
aVOAK-7378
p297
aVOAK-7377
p298
aVOAK-7376
p299
aVOAK-7375
p300
aVOAK-7374
p301
aVOAK-7373
p302
aVOAK-7372
p303
aVOAK-7371
p304
aVOAK-7370
p305
aVOAK-7369
p306
aVOAK-7368
p307
aVOAK-7367
p308
aVOAK-7366
p309
aVOAK-7365
p310
aVOAK-7364
p311
aVOAK-7363
p312
aVOAK-7362
p313
aVOAK-7361
p314
aVOAK-7360
p315
aVOAK-7359
p316
aVOAK-7358
p317
aVOAK-7357
p318
aVOAK-7356
p319
aVOAK-7355
p320
aVOAK-7354
p321
aVOAK-7353
p322
aVOAK-7352
p323
aVOAK-7350
p324
aVOAK-7349
p325
aVOAK-7347
p326
aVOAK-7346
p327
aVOAK-7345
p328
aVOAK-7344
p329
aVOAK-7343
p330
aVOAK-7342
p331
aVOAK-7341
p332
aVOAK-7340
p333
aVOAK-7339
p334
aVOAK-7338
p335
aVOAK-7337
p336
aVOAK-7336
p337
aVOAK-7335
p338
aVOAK-7334
p339
aVOAK-7333
p340
aVOAK-7332
p341
aVOAK-7331
p342
aVOAK-7330
p343
aVOAK-7329
p344
aVOAK-7328
p345
aVOAK-7327
p346
aVOAK-7326
p347
aVOAK-7325
p348
aVOAK-7324
p349
aVOAK-7323
p350
aVOAK-7322
p351
aVOAK-7321
p352
aVOAK-7320
p353
aVOAK-7318
p354
aVOAK-7317
p355
aVOAK-7316
p356
aVOAK-7315
p357
aVOAK-7314
p358
aVOAK-7313
p359
aVOAK-7312
p360
aVOAK-7311
p361
aVOAK-7310
p362
aVOAK-7309
p363
aVOAK-7308
p364
aVOAK-7307
p365
aVOAK-7306
p366
aVOAK-7305
p367
aVOAK-7304
p368
aVOAK-7303
p369
aVOAK-7302
p370
aVOAK-7301
p371
aVOAK-7300
p372
aVOAK-7299
p373
aVOAK-7298
p374
aVOAK-7297
p375
aVOAK-7296
p376
aVOAK-7295
p377
aVOAK-7294
p378
aVOAK-7293
p379
aVOAK-7292
p380
aVOAK-7291
p381
aVOAK-7290
p382
aVOAK-7289
p383
aVOAK-7288
p384
aVOAK-7287
p385
aVOAK-7286
p386
aVOAK-7285
p387
aVOAK-7284
p388
aVOAK-7283
p389
aVOAK-7282
p390
aVOAK-7281
p391
aVOAK-7280
p392
aVOAK-7279
p393
aVOAK-7277
p394
aVOAK-7276
p395
aVOAK-7275
p396
aVOAK-7274
p397
aVOAK-7273
p398
aVOAK-7272
p399
aVOAK-7271
p400
aVOAK-7270
p401
aVOAK-7269
p402
aVOAK-7268
p403
aVOAK-7267
p404
aVOAK-7266
p405
aVOAK-7265
p406
aVOAK-7264
p407
aVOAK-7263
p408
aVOAK-7262
p409
aVOAK-7261
p410
aVOAK-7260
p411
aVOAK-7259
p412
aVOAK-7258
p413
aVOAK-7257
p414
aVOAK-7256
p415
aVOAK-7255
p416
aVOAK-7254
p417
aVOAK-7253
p418
aVOAK-7252
p419
aVOAK-7251
p420
aVOAK-7250
p421
aVOAK-7249
p422
aVOAK-7248
p423
aVOAK-7247
p424
aVOAK-7246
p425
aVOAK-7245
p426
aVOAK-7244
p427
aVOAK-7243
p428
aVOAK-7242
p429
aVOAK-7241
p430
aVOAK-7240
p431
aVOAK-7239
p432
aVOAK-7238
p433
aVOAK-7237
p434
aVOAK-7236
p435
aVOAK-7235
p436
aVOAK-7234
p437
aVOAK-7233
p438
aVOAK-7232
p439
aVOAK-7231
p440
aVOAK-7230
p441
aVOAK-7229
p442
aVOAK-7228
p443
aVOAK-7227
p444
aVOAK-7226
p445
aVOAK-7225
p446
aVOAK-7224
p447
aVOAK-7223
p448
aVOAK-7222
p449
aVOAK-7221
p450
aVOAK-7220
p451
aVOAK-7219
p452
aVOAK-7218
p453
aVOAK-7217
p454
aVOAK-7216
p455
aVOAK-7215
p456
aVOAK-7214
p457
aVOAK-7213
p458
aVOAK-7212
p459
aVOAK-7211
p460
aVOAK-7210
p461
aVOAK-7209
p462
aVOAK-7208
p463
aVOAK-7207
p464
aVOAK-7206
p465
aVOAK-7205
p466
aVOAK-7204
p467
aVOAK-7203
p468
aVOAK-7202
p469
aVOAK-7201
p470
aVOAK-7200
p471
aVOAK-7199
p472
aVOAK-7198
p473
aVOAK-7197
p474
aVOAK-7196
p475
aVOAK-7195
p476
aVOAK-7194
p477
aVOAK-7193
p478
aVOAK-7192
p479
aVOAK-7191
p480
aVOAK-7190
p481
aVOAK-7189
p482
aVOAK-7188
p483
aVOAK-7187
p484
aVOAK-7186
p485
aVOAK-7185
p486
aVOAK-7184
p487
aVOAK-7183
p488
aVOAK-7182
p489
aVOAK-7181
p490
aVOAK-7180
p491
aVOAK-7179
p492
aVOAK-7178
p493
aVOAK-7177
p494
aVOAK-7176
p495
aVOAK-7175
p496
aVOAK-7174
p497
aVOAK-7173
p498
aVOAK-7172
p499
aVOAK-7171
p500
aVOAK-7170
p501
aVOAK-7169
p502
aVOAK-7168
p503
aVOAK-7167
p504
aVOAK-7166
p505
aVOAK-7165
p506
aVOAK-7164
p507
aVOAK-7163
p508
aVOAK-7162
p509
aVOAK-7161
p510
aVOAK-7160
p511
aVOAK-7159
p512
aVOAK-7158
p513
aVOAK-7157
p514
aVOAK-7156
p515
aVOAK-7155
p516
aVOAK-7154
p517
aVOAK-7153
p518
aVOAK-7152
p519
aVOAK-7151
p520
aVOAK-7150
p521
aVOAK-7149
p522
aVOAK-7148
p523
aVOAK-7147
p524
aVOAK-7146
p525
aVOAK-7145
p526
aVOAK-7144
p527
aVOAK-7143
p528
aVOAK-7142
p529
aVOAK-7141
p530
aVOAK-7140
p531
aVOAK-7139
p532
aVOAK-7138
p533
aVOAK-7137
p534
aVOAK-7136
p535
aVOAK-7135
p536
aVOAK-7134
p537
aVOAK-7133
p538
aVOAK-7132
p539
aVOAK-7131
p540
aVOAK-7130
p541
aVOAK-7129
p542
aVOAK-7128
p543
aVOAK-7127
p544
aVOAK-7126
p545
aVOAK-7125
p546
aVOAK-7124
p547
aVOAK-7123
p548
aVOAK-7122
p549
aVOAK-7121
p550
aVOAK-7120
p551
aVOAK-7119
p552
aVOAK-7118
p553
aVOAK-7117
p554
aVOAK-7116
p555
aVOAK-7115
p556
aVOAK-7114
p557
aVOAK-7113
p558
aVOAK-7112
p559
aVOAK-7111
p560
aVOAK-7110
p561
aVOAK-7109
p562
aVOAK-7108
p563
aVOAK-7107
p564
aVOAK-7106
p565
aVOAK-7105
p566
aVOAK-7104
p567
aVOAK-7103
p568
aVOAK-7102
p569
aVOAK-7101
p570
aVOAK-7100
p571
aVOAK-7099
p572
aVOAK-7098
p573
aVOAK-7097
p574
aVOAK-7096
p575
aVOAK-7095
p576
aVOAK-7094
p577
aVOAK-7093
p578
aVOAK-7092
p579
aVOAK-7091
p580
aVOAK-7090
p581
aVOAK-7089
p582
aVOAK-7088
p583
aVOAK-7087
p584
aVOAK-7086
p585
aVOAK-7085
p586
aVOAK-7084
p587
aVOAK-7083
p588
aVOAK-7082
p589
aVOAK-7081
p590
aVOAK-7080
p591
aVOAK-7079
p592
aVOAK-7078
p593
aVOAK-7077
p594
aVOAK-7076
p595
aVOAK-7075
p596
aVOAK-7074
p597
aVOAK-7073
p598
aVOAK-7072
p599
aVOAK-7071
p600
aVOAK-7070
p601
aVOAK-7069
p602
aVOAK-7068
p603
aVOAK-7067
p604
aVOAK-7066
p605
aVOAK-7065
p606
aVOAK-7064
p607
aVOAK-7063
p608
aVOAK-7062
p609
aVOAK-7061
p610
aVOAK-7060
p611
aVOAK-7059
p612
aVOAK-7058
p613
aVOAK-7057
p614
aVOAK-7056
p615
aVOAK-7055
p616
aVOAK-7054
p617
aVOAK-7053
p618
aVOAK-7052
p619
aVOAK-7051
p620
aVOAK-7050
p621
aVOAK-7049
p622
aVOAK-7048
p623
aVOAK-7047
p624
aVOAK-7046
p625
aVOAK-7045
p626
aVOAK-7044
p627
aVOAK-7043
p628
aVOAK-7042
p629
aVOAK-7041
p630
aVOAK-7040
p631
aVOAK-7039
p632
aVOAK-7038
p633
aVOAK-7037
p634
aVOAK-7036
p635
aVOAK-7035
p636
aVOAK-7034
p637
aVOAK-7033
p638
aVOAK-7032
p639
aVOAK-7031
p640
aVOAK-7030
p641
aVOAK-7029
p642
aVOAK-7028
p643
aVOAK-7027
p644
aVOAK-7026
p645
aVOAK-7025
p646
aVOAK-7024
p647
aVOAK-7023
p648
aVOAK-7022
p649
aVOAK-7021
p650
aVOAK-7020
p651
aVOAK-7019
p652
aVOAK-7018
p653
aVOAK-7017
p654
aVOAK-7016
p655
aVOAK-7015
p656
aVOAK-7014
p657
aVOAK-7013
p658
aVOAK-7012
p659
aVOAK-7011
p660
aVOAK-7010
p661
aVOAK-7009
p662
aVOAK-7008
p663
aVOAK-7007
p664
aVOAK-7006
p665
aVOAK-7005
p666
aVOAK-7004
p667
aVOAK-7003
p668
aVOAK-7002
p669
aVOAK-7001
p670
aVOAK-7000
p671
aVOAK-6999
p672
aVOAK-6998
p673
aVOAK-6997
p674
aVOAK-6996
p675
aVOAK-6995
p676
aVOAK-6994
p677
aVOAK-6993
p678
aVOAK-6992
p679
aVOAK-6991
p680
aVOAK-6990
p681
aVOAK-6989
p682
aVOAK-6988
p683
aVOAK-6987
p684
aVOAK-6986
p685
aVOAK-6985
p686
aVOAK-6984
p687
aVOAK-6983
p688
aVOAK-6982
p689
aVOAK-6981
p690
aVOAK-6980
p691
aVOAK-6979
p692
aVOAK-6978
p693
aVOAK-6977
p694
aVOAK-6976
p695
aVOAK-6975
p696
aVOAK-6974
p697
aVOAK-6973
p698
aVOAK-6972
p699
aVOAK-6971
p700
aVOAK-6970
p701
aVOAK-6969
p702
aVOAK-6968
p703
aVOAK-6967
p704
aVOAK-6966
p705
aVOAK-6965
p706
aVOAK-6964
p707
aVOAK-6963
p708
aVOAK-6962
p709
aVOAK-6961
p710
aVOAK-6960
p711
aVOAK-6959
p712
aVOAK-6958
p713
aVOAK-6957
p714
aVOAK-6956
p715
aVOAK-6955
p716
aVOAK-6954
p717
aVOAK-6953
p718
aVOAK-6952
p719
aVOAK-6951
p720
aVOAK-6950
p721
aVOAK-6949
p722
aVOAK-6948
p723
aVOAK-6947
p724
aVOAK-6946
p725
aVOAK-6945
p726
aVOAK-6944
p727
aVOAK-6943
p728
aVOAK-6942
p729
aVOAK-6941
p730
aVOAK-6940
p731
aVOAK-6939
p732
aVOAK-6938
p733
aVOAK-6937
p734
aVOAK-6936
p735
aVOAK-6935
p736
aVOAK-6934
p737
aVOAK-6933
p738
aVOAK-6932
p739
aVOAK-6931
p740
aVOAK-6930
p741
aVOAK-6929
p742
aVOAK-6928
p743
aVOAK-6927
p744
aVOAK-6926
p745
aVOAK-6925
p746
aVOAK-6924
p747
aVOAK-6923
p748
aVOAK-6922
p749
aVOAK-6921
p750
aVOAK-6920
p751
aVOAK-6919
p752
aVOAK-6918
p753
aVOAK-6917
p754
aVOAK-6916
p755
aVOAK-6915
p756
aVOAK-6914
p757
aVOAK-6913
p758
aVOAK-6912
p759
aVOAK-6911
p760
aVOAK-6910
p761
aVOAK-6909
p762
aVOAK-6908
p763
aVOAK-6907
p764
aVOAK-6906
p765
aVOAK-6905
p766
aVOAK-6904
p767
aVOAK-6903
p768
aVOAK-6902
p769
aVOAK-6901
p770
aVOAK-6900
p771
aVOAK-6899
p772
aVOAK-6898
p773
aVOAK-6897
p774
aVOAK-6896
p775
aVOAK-6895
p776
aVOAK-6894
p777
aVOAK-6893
p778
aVOAK-6892
p779
aVOAK-6891
p780
aVOAK-6890
p781
aVOAK-6889
p782
aVOAK-6888
p783
aVOAK-6887
p784
aVOAK-6886
p785
aVOAK-6885
p786
aVOAK-6884
p787
aVOAK-6883
p788
aVOAK-6882
p789
aVOAK-6881
p790
aVOAK-6880
p791
aVOAK-6879
p792
aVOAK-6878
p793
aVOAK-6877
p794
aVOAK-6876
p795
aVOAK-6875
p796
aVOAK-6874
p797
aVOAK-6873
p798
aVOAK-6872
p799
aVOAK-6871
p800
aVOAK-6870
p801
aVOAK-6869
p802
aVOAK-6868
p803
aVOAK-6867
p804
aVOAK-6866
p805
aVOAK-6865
p806
aVOAK-6864
p807
aVOAK-6863
p808
aVOAK-6862
p809
aVOAK-6861
p810
aVOAK-6860
p811
aVOAK-6859
p812
aVOAK-6858
p813
aVOAK-6857
p814
aVOAK-6856
p815
aVOAK-6855
p816
aVOAK-6854
p817
aVOAK-6853
p818
aVOAK-6852
p819
aVOAK-6851
p820
aVOAK-6850
p821
aVOAK-6849
p822
aVOAK-6848
p823
aVOAK-6847
p824
aVOAK-6846
p825
aVOAK-6845
p826
aVOAK-6844
p827
aVOAK-6843
p828
aVOAK-6842
p829
aVOAK-6841
p830
aVOAK-6840
p831
aVOAK-6839
p832
aVOAK-6838
p833
aVOAK-6837
p834
aVOAK-6836
p835
aVOAK-6835
p836
aVOAK-6834
p837
aVOAK-6833
p838
aVOAK-6832
p839
aVOAK-6831
p840
aVOAK-6830
p841
aVOAK-6829
p842
aVOAK-6828
p843
aVOAK-6827
p844
aVOAK-6826
p845
aVOAK-6825
p846
aVOAK-6824
p847
aVOAK-6823
p848
aVOAK-6822
p849
aVOAK-6821
p850
aVOAK-6820
p851
aVOAK-6819
p852
aVOAK-6818
p853
aVOAK-6817
p854
aVOAK-6816
p855
aVOAK-6815
p856
aVOAK-6814
p857
aVOAK-6813
p858
aVOAK-6812
p859
aVOAK-6811
p860
aVOAK-6810
p861
aVOAK-6809
p862
aVOAK-6808
p863
aVOAK-6807
p864
aVOAK-6806
p865
aVOAK-6805
p866
aVOAK-6804
p867
aVOAK-6803
p868
aVOAK-6802
p869
aVOAK-6801
p870
aVOAK-6800
p871
aVOAK-6799
p872
aVOAK-6798
p873
aVOAK-6797
p874
aVOAK-6796
p875
aVOAK-6795
p876
aVOAK-6794
p877
aVOAK-6793
p878
aVOAK-6792
p879
aVOAK-6791
p880
aVOAK-6790
p881
aVOAK-6789
p882
aVOAK-6788
p883
aVOAK-6787
p884
aVOAK-6786
p885
aVOAK-6785
p886
aVOAK-6784
p887
aVOAK-6783
p888
aVOAK-6782
p889
aVOAK-6781
p890
aVOAK-6780
p891
aVOAK-6779
p892
aVOAK-6778
p893
aVOAK-6777
p894
aVOAK-6776
p895
aVOAK-6775
p896
aVOAK-6774
p897
aVOAK-6773
p898
aVOAK-6772
p899
aVOAK-6770
p900
aVOAK-6769
p901
aVOAK-6768
p902
aVOAK-6767
p903
aVOAK-6766
p904
aVOAK-6765
p905
aVOAK-6764
p906
aVOAK-6763
p907
aVOAK-6762
p908
aVOAK-6761
p909
aVOAK-6760
p910
aVOAK-6759
p911
aVOAK-6758
p912
aVOAK-6757
p913
aVOAK-6756
p914
aVOAK-6755
p915
aVOAK-6754
p916
aVOAK-6753
p917
aVOAK-6752
p918
aVOAK-6751
p919
aVOAK-6750
p920
aVOAK-6749
p921
aVOAK-6748
p922
aVOAK-6747
p923
aVOAK-6746
p924
aVOAK-6745
p925
aVOAK-6744
p926
aVOAK-6743
p927
aVOAK-6742
p928
aVOAK-6741
p929
aVOAK-6740
p930
aVOAK-6739
p931
aVOAK-6738
p932
aVOAK-6737
p933
aVOAK-6736
p934
aVOAK-6735
p935
aVOAK-6734
p936
aVOAK-6733
p937
aVOAK-6732
p938
aVOAK-6731
p939
aVOAK-6730
p940
aVOAK-6729
p941
aVOAK-6728
p942
aVOAK-6727
p943
aVOAK-6726
p944
aVOAK-6725
p945
aVOAK-6724
p946
aVOAK-6723
p947
aVOAK-6722
p948
aVOAK-6721
p949
aVOAK-6720
p950
aVOAK-6719
p951
aVOAK-6718
p952
aVOAK-6717
p953
aVOAK-6716
p954
aVOAK-6715
p955
aVOAK-6714
p956
aVOAK-6713
p957
aVOAK-6712
p958
aVOAK-6711
p959
aVOAK-6710
p960
aVOAK-6709
p961
aVOAK-6708
p962
aVOAK-6707
p963
aVOAK-6706
p964
aVOAK-6705
p965
aVOAK-6704
p966
aVOAK-6703
p967
aVOAK-6702
p968
aVOAK-6701
p969
aVOAK-6700
p970
aVOAK-6699
p971
aVOAK-6698
p972
aVOAK-6697
p973
aVOAK-6696
p974
aVOAK-6695
p975
aVOAK-6694
p976
aVOAK-6693
p977
aVOAK-6692
p978
aVOAK-6691
p979
aVOAK-6690
p980
aVOAK-6689
p981
aVOAK-6688
p982
aVOAK-6687
p983
aVOAK-6686
p984
aVOAK-6685
p985
aVOAK-6684
p986
aVOAK-6683
p987
aVOAK-6682
p988
aVOAK-6681
p989
aVOAK-6680
p990
aVOAK-6679
p991
aVOAK-6678
p992
aVOAK-6677
p993
aVOAK-6676
p994
aVOAK-6675
p995
aVOAK-6674
p996
aVOAK-6673
p997
aVOAK-6672
p998
aVOAK-6671
p999
aVOAK-6670
p1000
aVOAK-6669
p1001
aVOAK-6668
p1002
aVOAK-6667
p1003
aVOAK-6666
p1004
aVOAK-6665
p1005
aVOAK-6664
p1006
aVOAK-6663
p1007
aVOAK-6662
p1008
aVOAK-6661
p1009
aVOAK-6660
p1010
aVOAK-6659
p1011
aVOAK-6658
p1012
aVOAK-6657
p1013
aVOAK-6656
p1014
aVOAK-6655
p1015
aVOAK-6654
p1016
aVOAK-6653
p1017
aVOAK-6652
p1018
aVOAK-6650
p1019
aVOAK-6649
p1020
aVOAK-6648
p1021
aVOAK-6647
p1022
aVOAK-6646
p1023
aVOAK-6645
p1024
aVOAK-6644
p1025
aVOAK-6643
p1026
aVOAK-6642
p1027
aVOAK-6641
p1028
aVOAK-6640
p1029
aVOAK-6639
p1030
aVOAK-6638
p1031
aVOAK-6637
p1032
aVOAK-6636
p1033
aVOAK-6635
p1034
aVOAK-6634
p1035
aVOAK-6633
p1036
aVOAK-6632
p1037
aVOAK-6631
p1038
aVOAK-6630
p1039
aVOAK-6629
p1040
aVOAK-6628
p1041
aVOAK-6627
p1042
aVOAK-6626
p1043
aVOAK-6625
p1044
aVOAK-6624
p1045
aVOAK-6623
p1046
aVOAK-6622
p1047
aVOAK-6621
p1048
aVOAK-6620
p1049
aVOAK-6619
p1050
aVOAK-6618
p1051
aVOAK-6617
p1052
aVOAK-6616
p1053
aVOAK-6615
p1054
aVOAK-6614
p1055
aVOAK-6613
p1056
aVOAK-6612
p1057
aVOAK-6611
p1058
aVOAK-6610
p1059
aVOAK-6609
p1060
aVOAK-6607
p1061
aVOAK-6606
p1062
aVOAK-6605
p1063
aVOAK-6604
p1064
aVOAK-6603
p1065
aVOAK-6602
p1066
aVOAK-6601
p1067
aVOAK-6600
p1068
aVOAK-6599
p1069
aVOAK-6598
p1070
aVOAK-6597
p1071
aVOAK-6596
p1072
aVOAK-6595
p1073
aVOAK-6594
p1074
aVOAK-6593
p1075
aVOAK-6592
p1076
aVOAK-6591
p1077
aVOAK-6590
p1078
aVOAK-6589
p1079
aVOAK-6588
p1080
aVOAK-6587
p1081
aVOAK-6586
p1082
aVOAK-6585
p1083
aVOAK-6584
p1084
aVOAK-6582
p1085
aVOAK-6581
p1086
aVOAK-6580
p1087
aVOAK-6579
p1088
aVOAK-6578
p1089
aVOAK-6577
p1090
aVOAK-6576
p1091
aVOAK-6575
p1092
aVOAK-6574
p1093
aVOAK-6573
p1094
aVOAK-6572
p1095
aVOAK-6571
p1096
aVOAK-6570
p1097
aVOAK-6569
p1098
aVOAK-6568
p1099
aVOAK-6567
p1100
aVOAK-6566
p1101
aVOAK-6565
p1102
aVOAK-6564
p1103
aVOAK-6563
p1104
aVOAK-6562
p1105
aVOAK-6561
p1106
aVOAK-6560
p1107
aVOAK-6559
p1108
aVOAK-6558
p1109
aVOAK-6557
p1110
aVOAK-6556
p1111
aVOAK-6555
p1112
aVOAK-6554
p1113
aVOAK-6553
p1114
aVOAK-6552
p1115
aVOAK-6551
p1116
aVOAK-6550
p1117
aVOAK-6549
p1118
aVOAK-6548
p1119
aVOAK-6547
p1120
aVOAK-6546
p1121
aVOAK-6545
p1122
aVOAK-6544
p1123
aVOAK-6543
p1124
aVOAK-6542
p1125
aVOAK-6541
p1126
aVOAK-6540
p1127
aVOAK-6539
p1128
aVOAK-6538
p1129
aVOAK-6537
p1130
aVOAK-6536
p1131
aVOAK-6535
p1132
aVOAK-6534
p1133
aVOAK-6533
p1134
aVOAK-6532
p1135
aVOAK-6531
p1136
aVOAK-6530
p1137
aVOAK-6529
p1138
aVOAK-6528
p1139
aVOAK-6527
p1140
aVOAK-6526
p1141
aVOAK-6525
p1142
aVOAK-6524
p1143
aVOAK-6523
p1144
aVOAK-6522
p1145
aVOAK-6521
p1146
aVOAK-6520
p1147
aVOAK-6519
p1148
aVOAK-6518
p1149
aVOAK-6517
p1150
aVOAK-6516
p1151
aVOAK-6515
p1152
aVOAK-6514
p1153
aVOAK-6513
p1154
aVOAK-6512
p1155
aVOAK-6511
p1156
aVOAK-6510
p1157
aVOAK-6509
p1158
aVOAK-6508
p1159
aVOAK-6507
p1160
aVOAK-6506
p1161
aVOAK-6505
p1162
aVOAK-6504
p1163
aVOAK-6503
p1164
aVOAK-6502
p1165
aVOAK-6501
p1166
aVOAK-6500
p1167
aVOAK-6499
p1168
aVOAK-6498
p1169
aVOAK-6497
p1170
aVOAK-6496
p1171
aVOAK-6495
p1172
aVOAK-6494
p1173
aVOAK-6493
p1174
aVOAK-6492
p1175
aVOAK-6491
p1176
aVOAK-6490
p1177
aVOAK-6489
p1178
aVOAK-6488
p1179
aVOAK-6487
p1180
aVOAK-6486
p1181
aVOAK-6485
p1182
aVOAK-6484
p1183
aVOAK-6483
p1184
aVOAK-6482
p1185
aVOAK-6481
p1186
aVOAK-6480
p1187
aVOAK-6479
p1188
aVOAK-6478
p1189
aVOAK-6477
p1190
aVOAK-6476
p1191
aVOAK-6475
p1192
aVOAK-6474
p1193
aVOAK-6473
p1194
aVOAK-6472
p1195
aVOAK-6471
p1196
aVOAK-6470
p1197
aVOAK-6469
p1198
aVOAK-6468
p1199
aVOAK-6467
p1200
aVOAK-6466
p1201
aVOAK-6465
p1202
aVOAK-6464
p1203
aVOAK-6463
p1204
aVOAK-6462
p1205
aVOAK-6461
p1206
aVOAK-6460
p1207
aVOAK-6459
p1208
aVOAK-6458
p1209
aVOAK-6457
p1210
aVOAK-6456
p1211
aVOAK-6455
p1212
aVOAK-6454
p1213
aVOAK-6453
p1214
aVOAK-6452
p1215
aVOAK-6451
p1216
aVOAK-6450
p1217
aVOAK-6449
p1218
aVOAK-6448
p1219
aVOAK-6447
p1220
aVOAK-6446
p1221
aVOAK-6445
p1222
aVOAK-6444
p1223
aVOAK-6443
p1224
aVOAK-6442
p1225
aVOAK-6441
p1226
aVOAK-6440
p1227
aVOAK-6439
p1228
aVOAK-6438
p1229
aVOAK-6437
p1230
aVOAK-6436
p1231
aVOAK-6435
p1232
aVOAK-6434
p1233
aVOAK-6433
p1234
aVOAK-6432
p1235
aVOAK-6431
p1236
aVOAK-6430
p1237
aVOAK-6429
p1238
aVOAK-6428
p1239
aVOAK-6427
p1240
aVOAK-6426
p1241
aVOAK-6425
p1242
aVOAK-6424
p1243
aVOAK-6423
p1244
aVOAK-6422
p1245
aVOAK-6421
p1246
aVOAK-6420
p1247
aVOAK-6419
p1248
aVOAK-6418
p1249
aVOAK-6417
p1250
aVOAK-6416
p1251
aVOAK-6415
p1252
aVOAK-6414
p1253
aVOAK-6413
p1254
aVOAK-6412
p1255
aVOAK-6411
p1256
aVOAK-6410
p1257
aVOAK-6409
p1258
aVOAK-6408
p1259
aVOAK-6407
p1260
aVOAK-6406
p1261
aVOAK-6405
p1262
aVOAK-6404
p1263
aVOAK-6403
p1264
aVOAK-6402
p1265
aVOAK-6401
p1266
aVOAK-6400
p1267
aVOAK-6399
p1268
aVOAK-6398
p1269
aVOAK-6397
p1270
aVOAK-6396
p1271
aVOAK-6395
p1272
aVOAK-6394
p1273
aVOAK-6393
p1274
aVOAK-6392
p1275
aVOAK-6391
p1276
aVOAK-6390
p1277
aVOAK-6389
p1278
aVOAK-6388
p1279
aVOAK-6387
p1280
aVOAK-6386
p1281
aVOAK-6385
p1282
aVOAK-6384
p1283
aVOAK-6383
p1284
aVOAK-6382
p1285
aVOAK-6381
p1286
aVOAK-6380
p1287
aVOAK-6379
p1288
aVOAK-6378
p1289
aVOAK-6377
p1290
aVOAK-6376
p1291
aVOAK-6375
p1292
aVOAK-6374
p1293
aVOAK-6373
p1294
aVOAK-6372
p1295
aVOAK-6371
p1296
aVOAK-6370
p1297
aVOAK-6369
p1298
aVOAK-6368
p1299
aVOAK-6367
p1300
aVOAK-6366
p1301
aVOAK-6365
p1302
aVOAK-6364
p1303
aVOAK-6363
p1304
aVOAK-6362
p1305
aVOAK-6361
p1306
aVOAK-6360
p1307
aVOAK-6359
p1308
aVOAK-6358
p1309
aVOAK-6357
p1310
aVOAK-6356
p1311
aVOAK-6355
p1312
aVOAK-6354
p1313
aVOAK-6353
p1314
aVOAK-6352
p1315
aVOAK-6351
p1316
aVOAK-6350
p1317
aVOAK-6349
p1318
aVOAK-6348
p1319
aVOAK-6347
p1320
aVOAK-6346
p1321
aVOAK-6345
p1322
aVOAK-6344
p1323
aVOAK-6343
p1324
aVOAK-6342
p1325
aVOAK-6341
p1326
aVOAK-6340
p1327
aVOAK-6339
p1328
aVOAK-6338
p1329
aVOAK-6337
p1330
aVOAK-6336
p1331
aVOAK-6335
p1332
aVOAK-6334
p1333
aVOAK-6333
p1334
aVOAK-6332
p1335
aVOAK-6331
p1336
aVOAK-6330
p1337
aVOAK-6329
p1338
aVOAK-6328
p1339
aVOAK-6327
p1340
aVOAK-6326
p1341
aVOAK-6325
p1342
aVOAK-6324
p1343
aVOAK-6323
p1344
aVOAK-6322
p1345
aVOAK-6321
p1346
aVOAK-6320
p1347
aVOAK-6319
p1348
aVOAK-6318
p1349
aVOAK-6317
p1350
aVOAK-6316
p1351
aVOAK-6315
p1352
aVOAK-6314
p1353
aVOAK-6313
p1354
aVOAK-6312
p1355
aVOAK-6311
p1356
aVOAK-6310
p1357
aVOAK-6309
p1358
aVOAK-6308
p1359
aVOAK-6307
p1360
aVOAK-6306
p1361
aVOAK-6305
p1362
aVOAK-6304
p1363
aVOAK-6303
p1364
aVOAK-6302
p1365
aVOAK-6301
p1366
aVOAK-6300
p1367
aVOAK-6299
p1368
aVOAK-6298
p1369
aVOAK-6297
p1370
aVOAK-6296
p1371
aVOAK-6295
p1372
aVOAK-6294
p1373
aVOAK-6293
p1374
aVOAK-6292
p1375
aVOAK-6291
p1376
aVOAK-6290
p1377
aVOAK-6289
p1378
aVOAK-6288
p1379
aVOAK-6287
p1380
aVOAK-6286
p1381
aVOAK-6285
p1382
aVOAK-6284
p1383
aVOAK-6283
p1384
aVOAK-6282
p1385
aVOAK-6281
p1386
aVOAK-6280
p1387
aVOAK-6279
p1388
aVOAK-6278
p1389
aVOAK-6277
p1390
aVOAK-6276
p1391
aVOAK-6275
p1392
aVOAK-6274
p1393
aVOAK-6273
p1394
aVOAK-6272
p1395
aVOAK-6271
p1396
aVOAK-6270
p1397
aVOAK-6269
p1398
aVOAK-6268
p1399
aVOAK-6267
p1400
aVOAK-6266
p1401
aVOAK-6265
p1402
aVOAK-6264
p1403
aVOAK-6263
p1404
aVOAK-6262
p1405
aVOAK-6261
p1406
aVOAK-6260
p1407
aVOAK-6259
p1408
aVOAK-6258
p1409
aVOAK-6257
p1410
aVOAK-6256
p1411
aVOAK-6255
p1412
aVOAK-6254
p1413
aVOAK-6253
p1414
aVOAK-6252
p1415
aVOAK-6251
p1416
aVOAK-6250
p1417
aVOAK-6249
p1418
aVOAK-6248
p1419
aVOAK-6247
p1420
aVOAK-6246
p1421
aVOAK-6245
p1422
aVOAK-6244
p1423
aVOAK-6243
p1424
aVOAK-6242
p1425
aVOAK-6241
p1426
aVOAK-6240
p1427
aVOAK-6239
p1428
aVOAK-6238
p1429
aVOAK-6237
p1430
aVOAK-6236
p1431
aVOAK-6235
p1432
aVOAK-6234
p1433
aVOAK-6233
p1434
aVOAK-6232
p1435
aVOAK-6231
p1436
aVOAK-6230
p1437
aVOAK-6229
p1438
aVOAK-6228
p1439
aVOAK-6227
p1440
aVOAK-6226
p1441
aVOAK-6225
p1442
aVOAK-6224
p1443
aVOAK-6223
p1444
aVOAK-6222
p1445
aVOAK-6221
p1446
aVOAK-6220
p1447
aVOAK-6219
p1448
aVOAK-6218
p1449
aVOAK-6217
p1450
aVOAK-6216
p1451
aVOAK-6215
p1452
aVOAK-6214
p1453
aVOAK-6213
p1454
aVOAK-6212
p1455
aVOAK-6211
p1456
aVOAK-6210
p1457
aVOAK-6209
p1458
aVOAK-6208
p1459
aVOAK-6207
p1460
aVOAK-6206
p1461
aVOAK-6205
p1462
aVOAK-6204
p1463
aVOAK-6203
p1464
aVOAK-6202
p1465
aVOAK-6201
p1466
aVOAK-6200
p1467
aVOAK-6199
p1468
aVOAK-6198
p1469
aVOAK-6197
p1470
aVOAK-6196
p1471
aVOAK-6195
p1472
aVOAK-6194
p1473
aVOAK-6193
p1474
aVOAK-6192
p1475
aVOAK-6191
p1476
aVOAK-6190
p1477
aVOAK-6189
p1478
aVOAK-6188
p1479
aVOAK-6187
p1480
aVOAK-6186
p1481
aVOAK-6185
p1482
aVOAK-6184
p1483
aVOAK-6183
p1484
aVOAK-6182
p1485
aVOAK-6181
p1486
aVOAK-6180
p1487
aVOAK-6179
p1488
aVOAK-6178
p1489
aVOAK-6177
p1490
aVOAK-6176
p1491
aVOAK-6175
p1492
aVOAK-6174
p1493
aVOAK-6173
p1494
aVOAK-6172
p1495
aVOAK-6171
p1496
aVOAK-6170
p1497
aVOAK-6169
p1498
aVOAK-6168
p1499
aVOAK-6167
p1500
aVOAK-6166
p1501
aVOAK-6165
p1502
aVOAK-6164
p1503
aVOAK-6163
p1504
aVOAK-6162
p1505
aVOAK-6161
p1506
aVOAK-6160
p1507
aVOAK-6159
p1508
aVOAK-6158
p1509
aVOAK-6157
p1510
aVOAK-6156
p1511
aVOAK-6155
p1512
aVOAK-6154
p1513
aVOAK-6153
p1514
aVOAK-6152
p1515
aVOAK-6151
p1516
aVOAK-6150
p1517
aVOAK-6149
p1518
aVOAK-6148
p1519
aVOAK-6147
p1520
aVOAK-6146
p1521
aVOAK-6145
p1522
aVOAK-6144
p1523
aVOAK-6143
p1524
aVOAK-6142
p1525
aVOAK-6141
p1526
aVOAK-6140
p1527
aVOAK-6139
p1528
aVOAK-6138
p1529
aVOAK-6137
p1530
aVOAK-6136
p1531
aVOAK-6135
p1532
aVOAK-6134
p1533
aVOAK-6133
p1534
aVOAK-6132
p1535
aVOAK-6131
p1536
aVOAK-6130
p1537
aVOAK-6129
p1538
aVOAK-6128
p1539
aVOAK-6127
p1540
aVOAK-6126
p1541
aVOAK-6125
p1542
aVOAK-6124
p1543
aVOAK-6123
p1544
aVOAK-6122
p1545
aVOAK-6121
p1546
aVOAK-6120
p1547
aVOAK-6119
p1548
aVOAK-6118
p1549
aVOAK-6117
p1550
aVOAK-6116
p1551
aVOAK-6115
p1552
aVOAK-6114
p1553
aVOAK-6113
p1554
aVOAK-6112
p1555
aVOAK-6111
p1556
aVOAK-6110
p1557
aVOAK-6109
p1558
aVOAK-6108
p1559
aVOAK-6107
p1560
aVOAK-6106
p1561
aVOAK-6105
p1562
aVOAK-6104
p1563
aVOAK-6103
p1564
aVOAK-6102
p1565
aVOAK-6101
p1566
aVOAK-6100
p1567
aVOAK-6099
p1568
aVOAK-6098
p1569
aVOAK-6097
p1570
aVOAK-6096
p1571
aVOAK-6095
p1572
aVOAK-6094
p1573
aVOAK-6093
p1574
aVOAK-6092
p1575
aVOAK-6091
p1576
aVOAK-6090
p1577
aVOAK-6089
p1578
aVOAK-6088
p1579
aVOAK-6087
p1580
aVOAK-6086
p1581
aVOAK-6085
p1582
aVOAK-6084
p1583
aVOAK-6083
p1584
aVOAK-6082
p1585
aVOAK-6081
p1586
aVOAK-6080
p1587
aVOAK-6079
p1588
aVOAK-6078
p1589
aVOAK-6077
p1590
aVOAK-6076
p1591
aVOAK-6075
p1592
aVOAK-6074
p1593
aVOAK-6073
p1594
aVOAK-6072
p1595
aVOAK-6071
p1596
aVOAK-6070
p1597
aVOAK-6069
p1598
aVOAK-6068
p1599
aVOAK-6067
p1600
aVOAK-6066
p1601
aVOAK-6065
p1602
aVOAK-6064
p1603
aVOAK-6063
p1604
aVOAK-6062
p1605
aVOAK-6061
p1606
aVOAK-6060
p1607
aVOAK-6059
p1608
aVOAK-6058
p1609
aVOAK-6057
p1610
aVOAK-6056
p1611
aVOAK-6055
p1612
aVOAK-6054
p1613
aVOAK-6053
p1614
aVOAK-6052
p1615
aVOAK-6051
p1616
aVOAK-6050
p1617
aVOAK-6049
p1618
aVOAK-6048
p1619
aVOAK-6047
p1620
aVOAK-6046
p1621
aVOAK-6045
p1622
aVOAK-6044
p1623
aVOAK-6043
p1624
aVOAK-6042
p1625
aVOAK-6041
p1626
aVOAK-6040
p1627
aVOAK-6039
p1628
aVOAK-6038
p1629
aVOAK-6037
p1630
aVOAK-6036
p1631
aVOAK-6035
p1632
aVOAK-6034
p1633
aVOAK-6033
p1634
aVOAK-6032
p1635
aVOAK-6031
p1636
aVOAK-6030
p1637
aVOAK-6029
p1638
aVOAK-6028
p1639
aVOAK-6027
p1640
aVOAK-6026
p1641
aVOAK-6025
p1642
aVOAK-6024
p1643
aVOAK-6023
p1644
aVOAK-6022
p1645
aVOAK-6021
p1646
aVOAK-6020
p1647
aVOAK-6019
p1648
aVOAK-6018
p1649
aVOAK-6017
p1650
aVOAK-6016
p1651
aVOAK-6015
p1652
aVOAK-6014
p1653
aVOAK-6013
p1654
aVOAK-6012
p1655
aVOAK-6011
p1656
aVOAK-6010
p1657
aVOAK-6009
p1658
aVOAK-6008
p1659
aVOAK-6007
p1660
aVOAK-6006
p1661
aVOAK-6005
p1662
aVOAK-6004
p1663
aVOAK-6003
p1664
aVOAK-6002
p1665
aVOAK-6001
p1666
aVOAK-6000
p1667
aVOAK-5999
p1668
aVOAK-5998
p1669
aVOAK-5997
p1670
aVOAK-5996
p1671
aVOAK-5995
p1672
aVOAK-5994
p1673
aVOAK-5993
p1674
aVOAK-5992
p1675
aVOAK-5991
p1676
aVOAK-5990
p1677
aVOAK-5989
p1678
aVOAK-5988
p1679
aVOAK-5987
p1680
aVOAK-5986
p1681
aVOAK-5985
p1682
aVOAK-5984
p1683
aVOAK-5983
p1684
aVOAK-5982
p1685
aVOAK-5981
p1686
aVOAK-5980
p1687
aVOAK-5979
p1688
aVOAK-5978
p1689
aVOAK-5977
p1690
aVOAK-5976
p1691
aVOAK-5975
p1692
aVOAK-5974
p1693
aVOAK-5973
p1694
aVOAK-5972
p1695
aVOAK-5971
p1696
aVOAK-5970
p1697
aVOAK-5969
p1698
aVOAK-5968
p1699
aVOAK-5967
p1700
aVOAK-5966
p1701
aVOAK-5965
p1702
aVOAK-5964
p1703
aVOAK-5963
p1704
aVOAK-5962
p1705
aVOAK-5961
p1706
aVOAK-5960
p1707
aVOAK-5959
p1708
aVOAK-5958
p1709
aVOAK-5957
p1710
aVOAK-5956
p1711
aVOAK-5955
p1712
aVOAK-5954
p1713
aVOAK-5953
p1714
aVOAK-5952
p1715
aVOAK-5951
p1716
aVOAK-5950
p1717
aVOAK-5949
p1718
aVOAK-5948
p1719
aVOAK-5947
p1720
aVOAK-5946
p1721
aVOAK-5945
p1722
aVOAK-5944
p1723
aVOAK-5943
p1724
aVOAK-5942
p1725
aVOAK-5941
p1726
aVOAK-5940
p1727
aVOAK-5939
p1728
aVOAK-5938
p1729
aVOAK-5937
p1730
aVOAK-5936
p1731
aVOAK-5935
p1732
aVOAK-5934
p1733
aVOAK-5933
p1734
aVOAK-5932
p1735
aVOAK-5931
p1736
aVOAK-5930
p1737
aVOAK-5929
p1738
aVOAK-5928
p1739
aVOAK-5927
p1740
aVOAK-5926
p1741
aVOAK-5925
p1742
aVOAK-5924
p1743
aVOAK-5923
p1744
aVOAK-5922
p1745
aVOAK-5921
p1746
aVOAK-5920
p1747
aVOAK-5919
p1748
aVOAK-5918
p1749
aVOAK-5917
p1750
aVOAK-5916
p1751
aVOAK-5915
p1752
aVOAK-5914
p1753
aVOAK-5913
p1754
aVOAK-5912
p1755
aVOAK-5911
p1756
aVOAK-5910
p1757
aVOAK-5909
p1758
aVOAK-5908
p1759
aVOAK-5907
p1760
aVOAK-5906
p1761
aVOAK-5905
p1762
aVOAK-5904
p1763
aVOAK-5903
p1764
aVOAK-5902
p1765
aVOAK-5901
p1766
aVOAK-5900
p1767
aVOAK-5899
p1768
aVOAK-5898
p1769
aVOAK-5897
p1770
aVOAK-5896
p1771
aVOAK-5895
p1772
aVOAK-5894
p1773
aVOAK-5893
p1774
aVOAK-5892
p1775
aVOAK-5891
p1776
aVOAK-5890
p1777
aVOAK-5889
p1778
aVOAK-5888
p1779
aVOAK-5887
p1780
aVOAK-5886
p1781
aVOAK-5885
p1782
aVOAK-5884
p1783
aVOAK-5883
p1784
aVOAK-5882
p1785
aVOAK-5881
p1786
aVOAK-5880
p1787
aVOAK-5879
p1788
aVOAK-5878
p1789
aVOAK-5877
p1790
aVOAK-5876
p1791
aVOAK-5875
p1792
aVOAK-5874
p1793
aVOAK-5873
p1794
aVOAK-5872
p1795
aVOAK-5871
p1796
aVOAK-5870
p1797
aVOAK-5869
p1798
aVOAK-5868
p1799
aVOAK-5867
p1800
aVOAK-5866
p1801
aVOAK-5865
p1802
aVOAK-5864
p1803
aVOAK-5863
p1804
aVOAK-5862
p1805
aVOAK-5861
p1806
aVOAK-5860
p1807
aVOAK-5859
p1808
aVOAK-5858
p1809
aVOAK-5857
p1810
aVOAK-5856
p1811
aVOAK-5855
p1812
aVOAK-5854
p1813
aVOAK-5853
p1814
aVOAK-5852
p1815
aVOAK-5851
p1816
aVOAK-5850
p1817
aVOAK-5849
p1818
aVOAK-5848
p1819
aVOAK-5847
p1820
aVOAK-5846
p1821
aVOAK-5845
p1822
aVOAK-5844
p1823
aVOAK-5843
p1824
aVOAK-5842
p1825
aVOAK-5841
p1826
aVOAK-5840
p1827
aVOAK-5839
p1828
aVOAK-5838
p1829
aVOAK-5837
p1830
aVOAK-5836
p1831
aVOAK-5835
p1832
aVOAK-5834
p1833
aVOAK-5833
p1834
aVOAK-5832
p1835
aVOAK-5831
p1836
aVOAK-5830
p1837
aVOAK-5829
p1838
aVOAK-5828
p1839
aVOAK-5827
p1840
aVOAK-5826
p1841
aVOAK-5825
p1842
aVOAK-5824
p1843
aVOAK-5810
p1844
aVOAK-5809
p1845
aVOAK-5808
p1846
aVOAK-5807
p1847
aVOAK-5806
p1848
aVOAK-5805
p1849
aVOAK-5802
p1850
aVOAK-5801
p1851
aVOAK-5800
p1852
aVOAK-5799
p1853
aVOAK-5798
p1854
aVOAK-5797
p1855
aVOAK-5796
p1856
aVOAK-5795
p1857
aVOAK-5794
p1858
aVOAK-5793
p1859
aVOAK-5792
p1860
aVOAK-5791
p1861
aVOAK-5790
p1862
aVOAK-5789
p1863
aVOAK-5788
p1864
aVOAK-5787
p1865
aVOAK-5786
p1866
aVOAK-5785
p1867
aVOAK-5784
p1868
aVOAK-5783
p1869
aVOAK-5782
p1870
aVOAK-5781
p1871
aVOAK-5780
p1872
aVOAK-5779
p1873
aVOAK-5778
p1874
aVOAK-5777
p1875
aVOAK-5776
p1876
aVOAK-5775
p1877
aVOAK-5774
p1878
aVOAK-5773
p1879
aVOAK-5772
p1880
aVOAK-5771
p1881
aVOAK-5770
p1882
aVOAK-5769
p1883
aVOAK-5768
p1884
aVOAK-5767
p1885
aVOAK-5766
p1886
aVOAK-5765
p1887
aVOAK-5764
p1888
aVOAK-5763
p1889
aVOAK-5762
p1890
aVOAK-5761
p1891
aVOAK-5760
p1892
aVOAK-5759
p1893
aVOAK-5758
p1894
aVOAK-5757
p1895
aVOAK-5756
p1896
aVOAK-5755
p1897
aVOAK-5754
p1898
aVOAK-5753
p1899
aVOAK-5752
p1900
aVOAK-5751
p1901
aVOAK-5750
p1902
aVOAK-5749
p1903
aVOAK-5748
p1904
aVOAK-5747
p1905
aVOAK-5746
p1906
aVOAK-5745
p1907
aVOAK-5744
p1908
aVOAK-5743
p1909
aVOAK-5742
p1910
aVOAK-5741
p1911
aVOAK-5740
p1912
aVOAK-5739
p1913
aVOAK-5738
p1914
aVOAK-5737
p1915
aVOAK-5736
p1916
aVOAK-5735
p1917
aVOAK-5734
p1918
aVOAK-5733
p1919
aVOAK-5732
p1920
aVOAK-5731
p1921
aVOAK-5730
p1922
aVOAK-5729
p1923
aVOAK-5728
p1924
aVOAK-5727
p1925
aVOAK-5726
p1926
aVOAK-5725
p1927
aVOAK-5724
p1928
aVOAK-5723
p1929
aVOAK-5722
p1930
aVOAK-5721
p1931
aVOAK-5720
p1932
aVOAK-5719
p1933
aVOAK-5718
p1934
aVOAK-5717
p1935
aVOAK-5716
p1936
aVOAK-5715
p1937
aVOAK-5714
p1938
aVOAK-5713
p1939
aVOAK-5712
p1940
aVOAK-5711
p1941
aVOAK-5710
p1942
aVOAK-5709
p1943
aVOAK-5708
p1944
aVOAK-5707
p1945
aVOAK-5706
p1946
aVOAK-5705
p1947
aVOAK-5704
p1948
aVOAK-5703
p1949
aVOAK-5702
p1950
aVOAK-5701
p1951
aVOAK-5700
p1952
aVOAK-5699
p1953
aVOAK-5698
p1954
aVOAK-5697
p1955
aVOAK-5696
p1956
aVOAK-5695
p1957
aVOAK-5694
p1958
aVOAK-5693
p1959
aVOAK-5692
p1960
aVOAK-5691
p1961
aVOAK-5690
p1962
aVOAK-5689
p1963
aVOAK-5688
p1964
aVOAK-5687
p1965
aVOAK-5686
p1966
aVOAK-5685
p1967
aVOAK-5684
p1968
aVOAK-5683
p1969
aVOAK-5682
p1970
aVOAK-5681
p1971
aVOAK-5680
p1972
aVOAK-5679
p1973
aVOAK-5678
p1974
aVOAK-5677
p1975
aVOAK-5676
p1976
aVOAK-5675
p1977
aVOAK-5674
p1978
aVOAK-5673
p1979
aVOAK-5672
p1980
aVOAK-5671
p1981
aVOAK-5670
p1982
aVOAK-5669
p1983
aVOAK-5668
p1984
aVOAK-5667
p1985
aVOAK-5666
p1986
aVOAK-5665
p1987
aVOAK-5664
p1988
aVOAK-5663
p1989
aVOAK-5662
p1990
aVOAK-5661
p1991
aVOAK-5660
p1992
aVOAK-5659
p1993
aVOAK-5658
p1994
aVOAK-5657
p1995
aVOAK-5656
p1996
aVOAK-5655
p1997
aVOAK-5654
p1998
aVOAK-5653
p1999
aVOAK-5652
p2000
aVOAK-5651
p2001
aVOAK-5650
p2002
aVOAK-5649
p2003
aVOAK-5648
p2004
aVOAK-5647
p2005
aVOAK-5646
p2006
aVOAK-5645
p2007
aVOAK-5644
p2008
aVOAK-5643
p2009
aVOAK-5642
p2010
aVOAK-5641
p2011
aVOAK-5640
p2012
aVOAK-5639
p2013
aVOAK-5638
p2014
aVOAK-5637
p2015
aVOAK-5636
p2016
aVOAK-5635
p2017
aVOAK-5634
p2018
aVOAK-5633
p2019
aVOAK-5632
p2020
aVOAK-5631
p2021
aVOAK-5630
p2022
aVOAK-5629
p2023
aVOAK-5628
p2024
aVOAK-5627
p2025
aVOAK-5626
p2026
aVOAK-5625
p2027
aVOAK-5624
p2028
aVOAK-5623
p2029
aVOAK-5622
p2030
aVOAK-5621
p2031
aVOAK-5620
p2032
aVOAK-5619
p2033
aVOAK-5618
p2034
aVOAK-5617
p2035
aVOAK-5616
p2036
aVOAK-5615
p2037
aVOAK-5614
p2038
aVOAK-5613
p2039
aVOAK-5612
p2040
aVOAK-5611
p2041
aVOAK-5610
p2042
aVOAK-5609
p2043
aVOAK-5608
p2044
aVOAK-5607
p2045
aVOAK-5606
p2046
aVOAK-5605
p2047
aVOAK-5604
p2048
aVOAK-5603
p2049
aVOAK-5602
p2050
aVOAK-5601
p2051
aVOAK-5600
p2052
aVOAK-5599
p2053
aVOAK-5598
p2054
aVOAK-5597
p2055
aVOAK-5596
p2056
aVOAK-5595
p2057
aVOAK-5594
p2058
aVOAK-5593
p2059
aVOAK-5592
p2060
aVOAK-5591
p2061
aVOAK-5590
p2062
aVOAK-5589
p2063
aVOAK-5588
p2064
aVOAK-5587
p2065
aVOAK-5586
p2066
aVOAK-5585
p2067
aVOAK-5584
p2068
aVOAK-5583
p2069
aVOAK-5582
p2070
aVOAK-5581
p2071
aVOAK-5580
p2072
aVOAK-5579
p2073
aVOAK-5578
p2074
aVOAK-5577
p2075
aVOAK-5576
p2076
aVOAK-5575
p2077
aVOAK-5574
p2078
aVOAK-5573
p2079
aVOAK-5572
p2080
aVOAK-5571
p2081
aVOAK-5570
p2082
aVOAK-5569
p2083
aVOAK-5568
p2084
aVOAK-5567
p2085
aVOAK-5566
p2086
aVOAK-5565
p2087
aVOAK-5564
p2088
aVOAK-5563
p2089
aVOAK-5562
p2090
aVOAK-5561
p2091
aVOAK-5560
p2092
aVOAK-5559
p2093
aVOAK-5558
p2094
aVOAK-5557
p2095
aVOAK-5556
p2096
aVOAK-5555
p2097
aVOAK-5554
p2098
aVOAK-5553
p2099
aVOAK-5552
p2100
aVOAK-5551
p2101
aVOAK-5550
p2102
aVOAK-5549
p2103
aVOAK-5548
p2104
aVOAK-5547
p2105
aVOAK-5546
p2106
aVOAK-5545
p2107
aVOAK-5544
p2108
aVOAK-5543
p2109
aVOAK-5542
p2110
aVOAK-5541
p2111
aVOAK-5540
p2112
aVOAK-5539
p2113
aVOAK-5538
p2114
aVOAK-5537
p2115
aVOAK-5536
p2116
aVOAK-5535
p2117
aVOAK-5534
p2118
aVOAK-5533
p2119
aVOAK-5532
p2120
aVOAK-5531
p2121
aVOAK-5530
p2122
aVOAK-5529
p2123
aVOAK-5528
p2124
aVOAK-5525
p2125
aVOAK-5524
p2126
aVOAK-5523
p2127
aVOAK-5522
p2128
aVOAK-5521
p2129
aVOAK-5520
p2130
aVOAK-5519
p2131
aVOAK-5518
p2132
aVOAK-5517
p2133
aVOAK-5516
p2134
aVOAK-5515
p2135
aVOAK-5514
p2136
aVOAK-5513
p2137
aVOAK-5512
p2138
aVOAK-5511
p2139
aVOAK-5510
p2140
aVOAK-5509
p2141
aVOAK-5508
p2142
aVOAK-5507
p2143
aVOAK-5506
p2144
aVOAK-5505
p2145
aVOAK-5504
p2146
aVOAK-5503
p2147
aVOAK-5502
p2148
aVOAK-5501
p2149
aVOAK-5500
p2150
aVOAK-5499
p2151
aVOAK-5498
p2152
aVOAK-5497
p2153
aVOAK-5496
p2154
aVOAK-5495
p2155
aVOAK-5494
p2156
aVOAK-5493
p2157
aVOAK-5492
p2158
aVOAK-5491
p2159
aVOAK-5490
p2160
aVOAK-5489
p2161
aVOAK-5488
p2162
aVOAK-5487
p2163
aVOAK-5486
p2164
aVOAK-5485
p2165
aVOAK-5484
p2166
aVOAK-5483
p2167
aVOAK-5482
p2168
aVOAK-5481
p2169
aVOAK-5480
p2170
aVOAK-5479
p2171
aVOAK-5478
p2172
aVOAK-5477
p2173
aVOAK-5476
p2174
aVOAK-5475
p2175
aVOAK-5474
p2176
aVOAK-5473
p2177
aVOAK-5472
p2178
aVOAK-5471
p2179
aVOAK-5470
p2180
aVOAK-5469
p2181
aVOAK-5468
p2182
aVOAK-5467
p2183
aVOAK-5466
p2184
aVOAK-5465
p2185
aVOAK-5464
p2186
aVOAK-5463
p2187
aVOAK-5462
p2188
aVOAK-5461
p2189
aVOAK-5460
p2190
aVOAK-5459
p2191
aVOAK-5458
p2192
aVOAK-5457
p2193
aVOAK-5456
p2194
aVOAK-5455
p2195
aVOAK-5454
p2196
aVOAK-5453
p2197
aVOAK-5452
p2198
aVOAK-5451
p2199
aVOAK-5450
p2200
aVOAK-5449
p2201
aVOAK-5448
p2202
aVOAK-5447
p2203
aVOAK-5446
p2204
aVOAK-5445
p2205
aVOAK-5444
p2206
aVOAK-5443
p2207
aVOAK-5442
p2208
aVOAK-5441
p2209
aVOAK-5440
p2210
aVOAK-5439
p2211
aVOAK-5438
p2212
aVOAK-5437
p2213
aVOAK-5436
p2214
aVOAK-5435
p2215
aVOAK-5434
p2216
aVOAK-5433
p2217
aVOAK-5432
p2218
aVOAK-5431
p2219
aVOAK-5430
p2220
aVOAK-5429
p2221
aVOAK-5428
p2222
aVOAK-5427
p2223
aVOAK-5426
p2224
aVOAK-5425
p2225
aVOAK-5424
p2226
aVOAK-5423
p2227
aVOAK-5422
p2228
aVOAK-5421
p2229
aVOAK-5420
p2230
aVOAK-5419
p2231
aVOAK-5418
p2232
aVOAK-5417
p2233
aVOAK-5416
p2234
aVOAK-5415
p2235
aVOAK-5414
p2236
aVOAK-5413
p2237
aVOAK-5412
p2238
aVOAK-5411
p2239
aVOAK-5410
p2240
aVOAK-5409
p2241
aVOAK-5408
p2242
aVOAK-5407
p2243
aVOAK-5406
p2244
aVOAK-5405
p2245
aVOAK-5404
p2246
aVOAK-5403
p2247
aVOAK-5402
p2248
aVOAK-5401
p2249
aVOAK-5400
p2250
aVOAK-5399
p2251
aVOAK-5398
p2252
aVOAK-5397
p2253
aVOAK-5396
p2254
aVOAK-5395
p2255
aVOAK-5394
p2256
aVOAK-5393
p2257
aVOAK-5392
p2258
aVOAK-5391
p2259
aVOAK-5390
p2260
aVOAK-5389
p2261
aVOAK-5388
p2262
aVOAK-5387
p2263
aVOAK-5386
p2264
aVOAK-5385
p2265
aVOAK-5384
p2266
aVOAK-5383
p2267
aVOAK-5382
p2268
aVOAK-5381
p2269
aVOAK-5380
p2270
aVOAK-5379
p2271
aVOAK-5378
p2272
aVOAK-5377
p2273
aVOAK-5376
p2274
aVOAK-5375
p2275
aVOAK-5374
p2276
aVOAK-5373
p2277
aVOAK-5372
p2278
aVOAK-5371
p2279
aVOAK-5370
p2280
aVOAK-5369
p2281
aVOAK-5368
p2282
aVOAK-5367
p2283
aVOAK-5366
p2284
aVOAK-5365
p2285
aVOAK-5364
p2286
aVOAK-5363
p2287
aVOAK-5362
p2288
aVOAK-5361
p2289
aVOAK-5360
p2290
aVOAK-5359
p2291
aVOAK-5358
p2292
aVOAK-5357
p2293
aVOAK-5356
p2294
aVOAK-5355
p2295
aVOAK-5354
p2296
aVOAK-5353
p2297
aVOAK-5352
p2298
aVOAK-5351
p2299
aVOAK-5350
p2300
aVOAK-5349
p2301
aVOAK-5348
p2302
aVOAK-5347
p2303
aVOAK-5346
p2304
aVOAK-5345
p2305
aVOAK-5344
p2306
aVOAK-5343
p2307
aVOAK-5342
p2308
aVOAK-5341
p2309
aVOAK-5340
p2310
aVOAK-5339
p2311
aVOAK-5338
p2312
aVOAK-5337
p2313
aVOAK-5336
p2314
aVOAK-5335
p2315
aVOAK-5334
p2316
aVOAK-5333
p2317
aVOAK-5332
p2318
aVOAK-5331
p2319
aVOAK-5330
p2320
aVOAK-5329
p2321
aVOAK-5328
p2322
aVOAK-5327
p2323
aVOAK-5326
p2324
aVOAK-5325
p2325
aVOAK-5324
p2326
aVOAK-5323
p2327
aVOAK-5322
p2328
aVOAK-5321
p2329
aVOAK-5320
p2330
aVOAK-5319
p2331
aVOAK-5318
p2332
aVOAK-5317
p2333
aVOAK-5316
p2334
aVOAK-5315
p2335
aVOAK-5314
p2336
aVOAK-5313
p2337
aVOAK-5312
p2338
aVOAK-5311
p2339
aVOAK-5310
p2340
aVOAK-5309
p2341
aVOAK-5308
p2342
aVOAK-5307
p2343
aVOAK-5306
p2344
aVOAK-5305
p2345
aVOAK-5304
p2346
aVOAK-5303
p2347
aVOAK-5302
p2348
aVOAK-5301
p2349
aVOAK-5300
p2350
aVOAK-5299
p2351
aVOAK-5298
p2352
aVOAK-5297
p2353
aVOAK-5296
p2354
aVOAK-5295
p2355
aVOAK-5294
p2356
aVOAK-5293
p2357
aVOAK-5292
p2358
aVOAK-5291
p2359
aVOAK-5290
p2360
aVOAK-5289
p2361
aVOAK-5288
p2362
aVOAK-5287
p2363
aVOAK-5286
p2364
aVOAK-5285
p2365
aVOAK-5284
p2366
aVOAK-5283
p2367
aVOAK-5282
p2368
aVOAK-5281
p2369
aVOAK-5280
p2370
aVOAK-5279
p2371
aVOAK-5278
p2372
aVOAK-5277
p2373
aVOAK-5276
p2374
aVOAK-5275
p2375
aVOAK-5274
p2376
aVOAK-5273
p2377
aVOAK-5272
p2378
aVOAK-5271
p2379
aVOAK-5270
p2380
aVOAK-5269
p2381
aVOAK-5268
p2382
aVOAK-5267
p2383
aVOAK-5266
p2384
aVOAK-5265
p2385
aVOAK-5264
p2386
aVOAK-5263
p2387
aVOAK-5262
p2388
aVOAK-5261
p2389
aVOAK-5260
p2390
aVOAK-5259
p2391
aVOAK-5258
p2392
aVOAK-5257
p2393
aVOAK-5256
p2394
aVOAK-5255
p2395
aVOAK-5254
p2396
aVOAK-5253
p2397
aVOAK-5252
p2398
aVOAK-5251
p2399
aVOAK-5250
p2400
aVOAK-5249
p2401
aVOAK-5248
p2402
aVOAK-5247
p2403
aVOAK-5246
p2404
aVOAK-5245
p2405
aVOAK-5244
p2406
aVOAK-5243
p2407
aVOAK-5242
p2408
aVOAK-5241
p2409
aVOAK-5240
p2410
aVOAK-5239
p2411
aVOAK-5238
p2412
aVOAK-5237
p2413
aVOAK-5236
p2414
aVOAK-5235
p2415
aVOAK-5234
p2416
aVOAK-5233
p2417
aVOAK-5232
p2418
aVOAK-5231
p2419
aVOAK-5230
p2420
aVOAK-5229
p2421
aVOAK-5228
p2422
aVOAK-5227
p2423
aVOAK-5226
p2424
aVOAK-5225
p2425
aVOAK-5224
p2426
aVOAK-5223
p2427
aVOAK-5222
p2428
aVOAK-5221
p2429
aVOAK-5220
p2430
aVOAK-5219
p2431
aVOAK-5218
p2432
aVOAK-5217
p2433
aVOAK-5216
p2434
aVOAK-5215
p2435
aVOAK-5214
p2436
aVOAK-5213
p2437
aVOAK-5212
p2438
aVOAK-5211
p2439
aVOAK-5210
p2440
aVOAK-5209
p2441
aVOAK-5208
p2442
aVOAK-5207
p2443
aVOAK-5206
p2444
aVOAK-5205
p2445
aVOAK-5204
p2446
aVOAK-5203
p2447
aVOAK-5202
p2448
aVOAK-5201
p2449
aVOAK-5200
p2450
aVOAK-5199
p2451
aVOAK-5198
p2452
aVOAK-5197
p2453
aVOAK-5196
p2454
aVOAK-5195
p2455
aVOAK-5194
p2456
aVOAK-5193
p2457
aVOAK-5192
p2458
aVOAK-5191
p2459
aVOAK-5190
p2460
aVOAK-5189
p2461
aVOAK-5188
p2462
aVOAK-5187
p2463
aVOAK-5186
p2464
aVOAK-5185
p2465
aVOAK-5184
p2466
aVOAK-5183
p2467
aVOAK-5182
p2468
aVOAK-5181
p2469
aVOAK-5180
p2470
aVOAK-5179
p2471
aVOAK-5178
p2472
aVOAK-5177
p2473
aVOAK-5176
p2474
aVOAK-5175
p2475
aVOAK-5174
p2476
aVOAK-5173
p2477
aVOAK-5172
p2478
aVOAK-5171
p2479
aVOAK-5170
p2480
aVOAK-5169
p2481
aVOAK-5168
p2482
aVOAK-5167
p2483
aVOAK-5166
p2484
aVOAK-5165
p2485
aVOAK-5164
p2486
aVOAK-5163
p2487
aVOAK-5162
p2488
aVOAK-5161
p2489
aVOAK-5160
p2490
aVOAK-5159
p2491
aVOAK-5158
p2492
aVOAK-5157
p2493
aVOAK-5156
p2494
aVOAK-5155
p2495
aVOAK-5154
p2496
aVOAK-5153
p2497
aVOAK-5152
p2498
aVOAK-5151
p2499
aVOAK-5150
p2500
aVOAK-5149
p2501
aVOAK-5148
p2502
aVOAK-5147
p2503
aVOAK-5146
p2504
aVOAK-5145
p2505
aVOAK-5144
p2506
aVOAK-5143
p2507
aVOAK-5142
p2508
aVOAK-5141
p2509
aVOAK-5140
p2510
aVOAK-5139
p2511
aVOAK-5138
p2512
aVOAK-5137
p2513
aVOAK-5136
p2514
aVOAK-5135
p2515
aVOAK-5134
p2516
aVOAK-5133
p2517
aVOAK-5132
p2518
aVOAK-5131
p2519
aVOAK-5130
p2520
aVOAK-5129
p2521
aVOAK-5128
p2522
aVOAK-5127
p2523
aVOAK-5126
p2524
aVOAK-5125
p2525
aVOAK-5124
p2526
aVOAK-5123
p2527
aVOAK-5122
p2528
aVOAK-5121
p2529
aVOAK-5120
p2530
aVOAK-5119
p2531
aVOAK-5118
p2532
aVOAK-5117
p2533
aVOAK-5116
p2534
aVOAK-5115
p2535
aVOAK-5114
p2536
aVOAK-5113
p2537
aVOAK-5112
p2538
aVOAK-5111
p2539
aVOAK-5110
p2540
aVOAK-5109
p2541
aVOAK-5108
p2542
aVOAK-5107
p2543
aVOAK-5106
p2544
aVOAK-5105
p2545
aVOAK-5104
p2546
aVOAK-5103
p2547
aVOAK-5102
p2548
aVOAK-5101
p2549
aVOAK-5100
p2550
aVOAK-5099
p2551
aVOAK-5098
p2552
aVOAK-5097
p2553
aVOAK-5096
p2554
aVOAK-5095
p2555
aVOAK-5094
p2556
aVOAK-5093
p2557
aVOAK-5092
p2558
aVOAK-5091
p2559
aVOAK-5090
p2560
aVOAK-5089
p2561
aVOAK-5088
p2562
aVOAK-5087
p2563
aVOAK-5086
p2564
aVOAK-5085
p2565
aVOAK-5084
p2566
aVOAK-5083
p2567
aVOAK-5082
p2568
aVOAK-5081
p2569
aVOAK-5080
p2570
aVOAK-5079
p2571
aVOAK-5078
p2572
aVOAK-5077
p2573
aVOAK-5076
p2574
aVOAK-5075
p2575
aVOAK-5074
p2576
aVOAK-5073
p2577
aVOAK-5072
p2578
aVOAK-5071
p2579
aVOAK-5070
p2580
aVOAK-5069
p2581
aVOAK-5068
p2582
aVOAK-5067
p2583
aVOAK-5066
p2584
aVOAK-5065
p2585
aVOAK-5064
p2586
aVOAK-5063
p2587
aVOAK-5062
p2588
aVOAK-5061
p2589
aVOAK-5060
p2590
aVOAK-5059
p2591
aVOAK-5058
p2592
aVOAK-5057
p2593
aVOAK-5056
p2594
aVOAK-5055
p2595
aVOAK-5054
p2596
aVOAK-5053
p2597
aVOAK-5052
p2598
aVOAK-5051
p2599
aVOAK-5050
p2600
aVOAK-5049
p2601
aVOAK-5048
p2602
aVOAK-5047
p2603
aVOAK-5046
p2604
aVOAK-5045
p2605
aVOAK-5044
p2606
aVOAK-5043
p2607
aVOAK-5042
p2608
aVOAK-5041
p2609
aVOAK-5040
p2610
aVOAK-5039
p2611
aVOAK-5038
p2612
aVOAK-5037
p2613
aVOAK-5036
p2614
aVOAK-5035
p2615
aVOAK-5034
p2616
aVOAK-5033
p2617
aVOAK-5032
p2618
aVOAK-5031
p2619
aVOAK-5030
p2620
aVOAK-5029
p2621
aVOAK-5028
p2622
aVOAK-5027
p2623
aVOAK-5026
p2624
aVOAK-5025
p2625
aVOAK-5024
p2626
aVOAK-5023
p2627
aVOAK-5022
p2628
aVOAK-5021
p2629
aVOAK-5020
p2630
aVOAK-5019
p2631
aVOAK-5018
p2632
aVOAK-5017
p2633
aVOAK-5016
p2634
aVOAK-5015
p2635
aVOAK-5014
p2636
aVOAK-5013
p2637
aVOAK-5012
p2638
aVOAK-5011
p2639
aVOAK-5010
p2640
aVOAK-5009
p2641
aVOAK-5008
p2642
aVOAK-5007
p2643
aVOAK-5006
p2644
aVOAK-5005
p2645
aVOAK-5004
p2646
aVOAK-5003
p2647
aVOAK-5002
p2648
aVOAK-5001
p2649
aVOAK-5000
p2650
aVOAK-4999
p2651
aVOAK-4998
p2652
aVOAK-4997
p2653
aVOAK-4996
p2654
aVOAK-4995
p2655
aVOAK-4994
p2656
aVOAK-4993
p2657
aVOAK-4992
p2658
aVOAK-4991
p2659
aVOAK-4990
p2660
aVOAK-4989
p2661
aVOAK-4988
p2662
aVOAK-4987
p2663
aVOAK-4986
p2664
aVOAK-4985
p2665
aVOAK-4984
p2666
aVOAK-4983
p2667
aVOAK-4982
p2668
aVOAK-4981
p2669
aVOAK-4980
p2670
aVOAK-4979
p2671
aVOAK-4978
p2672
aVOAK-4977
p2673
aVOAK-4976
p2674
aVOAK-4975
p2675
aVOAK-4974
p2676
aVOAK-4973
p2677
aVOAK-4972
p2678
aVOAK-4971
p2679
aVOAK-4970
p2680
aVOAK-4969
p2681
aVOAK-4968
p2682
aVOAK-4967
p2683
aVOAK-4966
p2684
aVOAK-4965
p2685
aVOAK-4964
p2686
aVOAK-4963
p2687
aVOAK-4962
p2688
aVOAK-4961
p2689
aVOAK-4960
p2690
aVOAK-4959
p2691
aVOAK-4958
p2692
aVOAK-4957
p2693
aVOAK-4956
p2694
aVOAK-4955
p2695
aVOAK-4954
p2696
aVOAK-4953
p2697
aVOAK-4952
p2698
aVOAK-4951
p2699
aVOAK-4950
p2700
aVOAK-4949
p2701
aVOAK-4948
p2702
aVOAK-4947
p2703
aVOAK-4946
p2704
aVOAK-4945
p2705
aVOAK-4944
p2706
aVOAK-4943
p2707
aVOAK-4942
p2708
aVOAK-4941
p2709
aVOAK-4940
p2710
aVOAK-4939
p2711
aVOAK-4938
p2712
aVOAK-4937
p2713
aVOAK-4936
p2714
aVOAK-4935
p2715
aVOAK-4934
p2716
aVOAK-4933
p2717
aVOAK-4932
p2718
aVOAK-4931
p2719
aVOAK-4930
p2720
aVOAK-4929
p2721
aVOAK-4928
p2722
aVOAK-4927
p2723
aVOAK-4926
p2724
aVOAK-4925
p2725
aVOAK-4924
p2726
aVOAK-4923
p2727
aVOAK-4922
p2728
aVOAK-4921
p2729
aVOAK-4920
p2730
aVOAK-4919
p2731
aVOAK-4918
p2732
aVOAK-4917
p2733
aVOAK-4916
p2734
aVOAK-4915
p2735
aVOAK-4914
p2736
aVOAK-4913
p2737
aVOAK-4912
p2738
aVOAK-4911
p2739
aVOAK-4910
p2740
aVOAK-4909
p2741
aVOAK-4908
p2742
aVOAK-4907
p2743
aVOAK-4906
p2744
aVOAK-4905
p2745
aVOAK-4904
p2746
aVOAK-4903
p2747
aVOAK-4902
p2748
aVOAK-4901
p2749
aVOAK-4900
p2750
aVOAK-4899
p2751
aVOAK-4898
p2752
aVOAK-4897
p2753
aVOAK-4896
p2754
aVOAK-4895
p2755
aVOAK-4894
p2756
aVOAK-4893
p2757
aVOAK-4892
p2758
aVOAK-4891
p2759
aVOAK-4890
p2760
aVOAK-4889
p2761
aVOAK-4888
p2762
aVOAK-4887
p2763
aVOAK-4886
p2764
aVOAK-4885
p2765
aVOAK-4884
p2766
aVOAK-4883
p2767
aVOAK-4882
p2768
aVOAK-4881
p2769
aVOAK-4880
p2770
aVOAK-4879
p2771
aVOAK-4878
p2772
aVOAK-4877
p2773
aVOAK-4876
p2774
aVOAK-4875
p2775
aVOAK-4874
p2776
aVOAK-4873
p2777
aVOAK-4872
p2778
aVOAK-4871
p2779
aVOAK-4870
p2780
aVOAK-4869
p2781
aVOAK-4868
p2782
aVOAK-4867
p2783
aVOAK-4866
p2784
aVOAK-4865
p2785
aVOAK-4864
p2786
aVOAK-4863
p2787
aVOAK-4862
p2788
aVOAK-4861
p2789
aVOAK-4860
p2790
aVOAK-4859
p2791
aVOAK-4858
p2792
aVOAK-4857
p2793
aVOAK-4856
p2794
aVOAK-4855
p2795
aVOAK-4854
p2796
aVOAK-4853
p2797
aVOAK-4852
p2798
aVOAK-4851
p2799
aVOAK-4850
p2800
aVOAK-4849
p2801
aVOAK-4848
p2802
aVOAK-4847
p2803
aVOAK-4846
p2804
aVOAK-4845
p2805
aVOAK-4844
p2806
aVOAK-4843
p2807
aVOAK-4842
p2808
aVOAK-4841
p2809
aVOAK-4840
p2810
aVOAK-4839
p2811
aVOAK-4838
p2812
aVOAK-4837
p2813
aVOAK-4836
p2814
aVOAK-4835
p2815
aVOAK-4834
p2816
aVOAK-4833
p2817
aVOAK-4832
p2818
aVOAK-4831
p2819
aVOAK-4830
p2820
aVOAK-4829
p2821
aVOAK-4828
p2822
aVOAK-4827
p2823
aVOAK-4826
p2824
aVOAK-4825
p2825
aVOAK-4824
p2826
aVOAK-4823
p2827
aVOAK-4822
p2828
aVOAK-4821
p2829
aVOAK-4820
p2830
aVOAK-4819
p2831
aVOAK-4818
p2832
aVOAK-4817
p2833
aVOAK-4816
p2834
aVOAK-4815
p2835
aVOAK-4814
p2836
aVOAK-4813
p2837
aVOAK-4812
p2838
aVOAK-4811
p2839
aVOAK-4810
p2840
aVOAK-4809
p2841
aVOAK-4808
p2842
aVOAK-4807
p2843
aVOAK-4806
p2844
aVOAK-4805
p2845
aVOAK-4804
p2846
aVOAK-4803
p2847
aVOAK-4802
p2848
aVOAK-4801
p2849
aVOAK-4800
p2850
aVOAK-4799
p2851
aVOAK-4798
p2852
aVOAK-4797
p2853
aVOAK-4796
p2854
aVOAK-4795
p2855
aVOAK-4794
p2856
aVOAK-4793
p2857
aVOAK-4792
p2858
aVOAK-4791
p2859
aVOAK-4790
p2860
aVOAK-4789
p2861
aVOAK-4788
p2862
aVOAK-4787
p2863
aVOAK-4786
p2864
aVOAK-4785
p2865
aVOAK-4784
p2866
aVOAK-4783
p2867
aVOAK-4782
p2868
aVOAK-4781
p2869
aVOAK-4780
p2870
aVOAK-4779
p2871
aVOAK-4778
p2872
aVOAK-4777
p2873
aVOAK-4776
p2874
aVOAK-4775
p2875
aVOAK-4774
p2876
aVOAK-4773
p2877
aVOAK-4772
p2878
aVOAK-4771
p2879
aVOAK-4770
p2880
aVOAK-4769
p2881
aVOAK-4768
p2882
aVOAK-4767
p2883
aVOAK-4766
p2884
aVOAK-4765
p2885
aVOAK-4764
p2886
aVOAK-4763
p2887
aVOAK-4762
p2888
aVOAK-4761
p2889
aVOAK-4760
p2890
aVOAK-4759
p2891
aVOAK-4758
p2892
aVOAK-4757
p2893
aVOAK-4756
p2894
aVOAK-4755
p2895
aVOAK-4754
p2896
aVOAK-4753
p2897
aVOAK-4752
p2898
aVOAK-4751
p2899
aVOAK-4750
p2900
aVOAK-4749
p2901
aVOAK-4748
p2902
aVOAK-4747
p2903
aVOAK-4746
p2904
aVOAK-4745
p2905
aVOAK-4744
p2906
aVOAK-4743
p2907
aVOAK-4742
p2908
aVOAK-4741
p2909
aVOAK-4740
p2910
aVOAK-4739
p2911
aVOAK-4738
p2912
aVOAK-4737
p2913
aVOAK-4736
p2914
aVOAK-4735
p2915
aVOAK-4734
p2916
aVOAK-4733
p2917
aVOAK-4732
p2918
aVOAK-4731
p2919
aVOAK-4730
p2920
aVOAK-4729
p2921
aVOAK-4728
p2922
aVOAK-4727
p2923
aVOAK-4726
p2924
aVOAK-4725
p2925
aVOAK-4724
p2926
aVOAK-4723
p2927
aVOAK-4722
p2928
aVOAK-4721
p2929
aVOAK-4720
p2930
aVOAK-4719
p2931
aVOAK-4718
p2932
aVOAK-4717
p2933
aVOAK-4716
p2934
aVOAK-4715
p2935
aVOAK-4714
p2936
aVOAK-4713
p2937
aVOAK-4712
p2938
aVOAK-4711
p2939
aVOAK-4710
p2940
aVOAK-4709
p2941
aVOAK-4708
p2942
aVOAK-4707
p2943
aVOAK-4706
p2944
aVOAK-4705
p2945
aVOAK-4704
p2946
aVOAK-4703
p2947
aVOAK-4702
p2948
aVOAK-4701
p2949
aVOAK-4700
p2950
aVOAK-4699
p2951
aVOAK-4698
p2952
aVOAK-4697
p2953
aVOAK-4696
p2954
aVOAK-4695
p2955
aVOAK-4694
p2956
aVOAK-4693
p2957
aVOAK-4692
p2958
aVOAK-4691
p2959
aVOAK-4690
p2960
aVOAK-4689
p2961
aVOAK-4688
p2962
aVOAK-4687
p2963
aVOAK-4686
p2964
aVOAK-4685
p2965
aVOAK-4684
p2966
aVOAK-4683
p2967
aVOAK-4682
p2968
aVOAK-4681
p2969
aVOAK-4680
p2970
aVOAK-4679
p2971
aVOAK-4678
p2972
aVOAK-4677
p2973
aVOAK-4676
p2974
aVOAK-4675
p2975
aVOAK-4674
p2976
aVOAK-4673
p2977
aVOAK-4672
p2978
aVOAK-4671
p2979
aVOAK-4670
p2980
aVOAK-4669
p2981
aVOAK-4668
p2982
aVOAK-4667
p2983
aVOAK-4666
p2984
aVOAK-4665
p2985
aVOAK-4664
p2986
aVOAK-4663
p2987
aVOAK-4662
p2988
aVOAK-4661
p2989
aVOAK-4660
p2990
aVOAK-4659
p2991
aVOAK-4658
p2992
aVOAK-4657
p2993
aVOAK-4656
p2994
aVOAK-4655
p2995
aVOAK-4654
p2996
aVOAK-4653
p2997
aVOAK-4652
p2998
aVOAK-4651
p2999
aVOAK-4650
p3000
aVOAK-4649
p3001
aVOAK-4648
p3002
aVOAK-4647
p3003
aVOAK-4646
p3004
aVOAK-4645
p3005
aVOAK-4644
p3006
aVOAK-4643
p3007
aVOAK-4642
p3008
aVOAK-4641
p3009
aVOAK-4640
p3010
aVOAK-4639
p3011
aVOAK-4638
p3012
aVOAK-4637
p3013
aVOAK-4636
p3014
aVOAK-4635
p3015
aVOAK-4634
p3016
aVOAK-4633
p3017
aVOAK-4632
p3018
aVOAK-4631
p3019
aVOAK-4630
p3020
aVOAK-4629
p3021
aVOAK-4628
p3022
aVOAK-4627
p3023
aVOAK-4626
p3024
aVOAK-4625
p3025
aVOAK-4624
p3026
aVOAK-4623
p3027
aVOAK-4622
p3028
aVOAK-4621
p3029
aVOAK-4620
p3030
aVOAK-4619
p3031
aVOAK-4618
p3032
aVOAK-4617
p3033
aVOAK-4616
p3034
aVOAK-4615
p3035
aVOAK-4614
p3036
aVOAK-4613
p3037
aVOAK-4612
p3038
aVOAK-4611
p3039
aVOAK-4610
p3040
aVOAK-4609
p3041
aVOAK-4608
p3042
aVOAK-4607
p3043
aVOAK-4606
p3044
aVOAK-4605
p3045
aVOAK-4604
p3046
aVOAK-4603
p3047
aVOAK-4602
p3048
aVOAK-4601
p3049
aVOAK-4600
p3050
aVOAK-4599
p3051
aVOAK-4598
p3052
aVOAK-4597
p3053
aVOAK-4596
p3054
aVOAK-4595
p3055
aVOAK-4594
p3056
aVOAK-4593
p3057
aVOAK-4592
p3058
aVOAK-4591
p3059
aVOAK-4590
p3060
aVOAK-4589
p3061
aVOAK-4588
p3062
aVOAK-4587
p3063
aVOAK-4586
p3064
aVOAK-4585
p3065
aVOAK-4584
p3066
aVOAK-4583
p3067
aVOAK-4582
p3068
aVOAK-4581
p3069
aVOAK-4580
p3070
aVOAK-4579
p3071
aVOAK-4578
p3072
aVOAK-4577
p3073
aVOAK-4576
p3074
aVOAK-4575
p3075
aVOAK-4574
p3076
aVOAK-4573
p3077
aVOAK-4572
p3078
aVOAK-4571
p3079
aVOAK-4570
p3080
aVOAK-4569
p3081
aVOAK-4568
p3082
aVOAK-4567
p3083
aVOAK-4566
p3084
aVOAK-4565
p3085
aVOAK-4564
p3086
aVOAK-4563
p3087
aVOAK-4562
p3088
aVOAK-4561
p3089
aVOAK-4560
p3090
aVOAK-4559
p3091
aVOAK-4558
p3092
aVOAK-4557
p3093
aVOAK-4556
p3094
aVOAK-4555
p3095
aVOAK-4554
p3096
aVOAK-4553
p3097
aVOAK-4552
p3098
aVOAK-4551
p3099
aVOAK-4550
p3100
aVOAK-4548
p3101
aVOAK-4547
p3102
aVOAK-4546
p3103
aVOAK-4545
p3104
aVOAK-4544
p3105
aVOAK-4543
p3106
aVOAK-4542
p3107
aVOAK-4541
p3108
aVOAK-4540
p3109
aVOAK-4539
p3110
aVOAK-4538
p3111
aVOAK-4537
p3112
aVOAK-4536
p3113
aVOAK-4535
p3114
aVOAK-4534
p3115
aVOAK-4533
p3116
aVOAK-4532
p3117
aVOAK-4531
p3118
aVOAK-4530
p3119
aVOAK-4529
p3120
aVOAK-4528
p3121
aVOAK-4527
p3122
aVOAK-4526
p3123
aVOAK-4525
p3124
aVOAK-4524
p3125
aVOAK-4523
p3126
aVOAK-4522
p3127
aVOAK-4521
p3128
aVOAK-4520
p3129
aVOAK-4519
p3130
aVOAK-4518
p3131
aVOAK-4517
p3132
aVOAK-4516
p3133
aVOAK-4515
p3134
aVOAK-4514
p3135
aVOAK-4513
p3136
aVOAK-4512
p3137
aVOAK-4511
p3138
aVOAK-4510
p3139
aVOAK-4509
p3140
aVOAK-4508
p3141
aVOAK-4507
p3142
aVOAK-4506
p3143
aVOAK-4505
p3144
aVOAK-4504
p3145
aVOAK-4503
p3146
aVOAK-4502
p3147
aVOAK-4501
p3148
aVOAK-4500
p3149
aVOAK-4499
p3150
aVOAK-4498
p3151
aVOAK-4497
p3152
aVOAK-4496
p3153
aVOAK-4495
p3154
aVOAK-4494
p3155
aVOAK-4493
p3156
aVOAK-4492
p3157
aVOAK-4491
p3158
aVOAK-4490
p3159
aVOAK-4489
p3160
aVOAK-4488
p3161
aVOAK-4487
p3162
aVOAK-4486
p3163
aVOAK-4485
p3164
aVOAK-4484
p3165
aVOAK-4483
p3166
aVOAK-4482
p3167
aVOAK-4481
p3168
aVOAK-4480
p3169
aVOAK-4479
p3170
aVOAK-4478
p3171
aVOAK-4477
p3172
aVOAK-4476
p3173
aVOAK-4475
p3174
aVOAK-4474
p3175
aVOAK-4473
p3176
aVOAK-4472
p3177
aVOAK-4471
p3178
aVOAK-4470
p3179
aVOAK-4469
p3180
aVOAK-4468
p3181
aVOAK-4467
p3182
aVOAK-4466
p3183
aVOAK-4465
p3184
aVOAK-4464
p3185
aVOAK-4463
p3186
aVOAK-4462
p3187
aVOAK-4461
p3188
aVOAK-4460
p3189
aVOAK-4459
p3190
aVOAK-4458
p3191
aVOAK-4457
p3192
aVOAK-4456
p3193
aVOAK-4455
p3194
aVOAK-4454
p3195
aVOAK-4453
p3196
aVOAK-4452
p3197
aVOAK-4451
p3198
aVOAK-4450
p3199
aVOAK-4449
p3200
aVOAK-4448
p3201
aVOAK-4447
p3202
aVOAK-4446
p3203
aVOAK-4445
p3204
aVOAK-4444
p3205
aVOAK-4443
p3206
aVOAK-4442
p3207
aVOAK-4441
p3208
aVOAK-4440
p3209
aVOAK-4439
p3210
aVOAK-4438
p3211
aVOAK-4437
p3212
aVOAK-4436
p3213
aVOAK-4435
p3214
aVOAK-4434
p3215
aVOAK-4433
p3216
aVOAK-4432
p3217
aVOAK-4431
p3218
aVOAK-4430
p3219
aVOAK-4429
p3220
aVOAK-4428
p3221
aVOAK-4427
p3222
aVOAK-4426
p3223
aVOAK-4425
p3224
aVOAK-4424
p3225
aVOAK-4423
p3226
aVOAK-4422
p3227
aVOAK-4421
p3228
aVOAK-4420
p3229
aVOAK-4419
p3230
aVOAK-4418
p3231
aVOAK-4417
p3232
aVOAK-4416
p3233
aVOAK-4415
p3234
aVOAK-4414
p3235
aVOAK-4413
p3236
aVOAK-4412
p3237
aVOAK-4411
p3238
aVOAK-4410
p3239
aVOAK-4409
p3240
aVOAK-4408
p3241
aVOAK-4407
p3242
aVOAK-4406
p3243
aVOAK-4405
p3244
aVOAK-4404
p3245
aVOAK-4403
p3246
aVOAK-4402
p3247
aVOAK-4401
p3248
aVOAK-4400
p3249
aVOAK-4399
p3250
aVOAK-4398
p3251
aVOAK-4397
p3252
aVOAK-4396
p3253
aVOAK-4395
p3254
aVOAK-4394
p3255
aVOAK-4393
p3256
aVOAK-4392
p3257
aVOAK-4391
p3258
aVOAK-4390
p3259
aVOAK-4389
p3260
aVOAK-4388
p3261
aVOAK-4387
p3262
aVOAK-4386
p3263
aVOAK-4385
p3264
aVOAK-4384
p3265
aVOAK-4383
p3266
aVOAK-4382
p3267
aVOAK-4381
p3268
aVOAK-4380
p3269
aVOAK-4379
p3270
aVOAK-4378
p3271
aVOAK-4377
p3272
aVOAK-4376
p3273
aVOAK-4375
p3274
aVOAK-4374
p3275
aVOAK-4373
p3276
aVOAK-4372
p3277
aVOAK-4371
p3278
aVOAK-4370
p3279
aVOAK-4369
p3280
aVOAK-4368
p3281
aVOAK-4367
p3282
aVOAK-4366
p3283
aVOAK-4365
p3284
aVOAK-4364
p3285
aVOAK-4363
p3286
aVOAK-4362
p3287
aVOAK-4361
p3288
aVOAK-4360
p3289
aVOAK-4359
p3290
aVOAK-4358
p3291
aVOAK-4357
p3292
aVOAK-4356
p3293
aVOAK-4355
p3294
aVOAK-4354
p3295
aVOAK-4353
p3296
aVOAK-4352
p3297
aVOAK-4351
p3298
aVOAK-4350
p3299
aVOAK-4349
p3300
aVOAK-4348
p3301
aVOAK-4347
p3302
aVOAK-4346
p3303
aVOAK-4345
p3304
aVOAK-4344
p3305
aVOAK-4343
p3306
aVOAK-4342
p3307
aVOAK-4341
p3308
aVOAK-4340
p3309
aVOAK-4339
p3310
aVOAK-4338
p3311
aVOAK-4337
p3312
aVOAK-4336
p3313
aVOAK-4335
p3314
aVOAK-4334
p3315
aVOAK-4333
p3316
aVOAK-4332
p3317
aVOAK-4331
p3318
aVOAK-4330
p3319
aVOAK-4329
p3320
aVOAK-4328
p3321
aVOAK-4327
p3322
aVOAK-4326
p3323
aVOAK-4325
p3324
aVOAK-4324
p3325
aVOAK-4323
p3326
aVOAK-4322
p3327
aVOAK-4321
p3328
aVOAK-4320
p3329
aVOAK-4319
p3330
aVOAK-4318
p3331
aVOAK-4317
p3332
aVOAK-4316
p3333
aVOAK-4315
p3334
aVOAK-4314
p3335
aVOAK-4313
p3336
aVOAK-4312
p3337
aVOAK-4311
p3338
aVOAK-4310
p3339
aVOAK-4309
p3340
aVOAK-4308
p3341
aVOAK-4307
p3342
aVOAK-4306
p3343
aVOAK-4305
p3344
aVOAK-4304
p3345
aVOAK-4303
p3346
aVOAK-4302
p3347
aVOAK-4301
p3348
aVOAK-4300
p3349
aVOAK-4299
p3350
aVOAK-4298
p3351
aVOAK-4297
p3352
aVOAK-4296
p3353
aVOAK-4295
p3354
aVOAK-4294
p3355
aVOAK-4293
p3356
aVOAK-4292
p3357
aVOAK-4291
p3358
aVOAK-4290
p3359
aVOAK-4289
p3360
aVOAK-4288
p3361
aVOAK-4287
p3362
aVOAK-4286
p3363
aVOAK-4285
p3364
aVOAK-4284
p3365
aVOAK-4283
p3366
aVOAK-4282
p3367
aVOAK-4281
p3368
aVOAK-4280
p3369
aVOAK-4279
p3370
aVOAK-4278
p3371
aVOAK-4277
p3372
aVOAK-4276
p3373
aVOAK-4275
p3374
aVOAK-4274
p3375
aVOAK-4273
p3376
aVOAK-4272
p3377
aVOAK-4271
p3378
aVOAK-4270
p3379
aVOAK-4269
p3380
aVOAK-4268
p3381
aVOAK-4267
p3382
aVOAK-4266
p3383
aVOAK-4265
p3384
aVOAK-4264
p3385
aVOAK-4263
p3386
aVOAK-4262
p3387
aVOAK-4261
p3388
aVOAK-4260
p3389
aVOAK-4259
p3390
aVOAK-4258
p3391
aVOAK-4257
p3392
aVOAK-4256
p3393
aVOAK-4255
p3394
aVOAK-4254
p3395
aVOAK-4253
p3396
aVOAK-4252
p3397
aVOAK-4251
p3398
aVOAK-4250
p3399
aVOAK-4249
p3400
aVOAK-4248
p3401
aVOAK-4247
p3402
aVOAK-4246
p3403
aVOAK-4245
p3404
aVOAK-4244
p3405
aVOAK-4243
p3406
aVOAK-4242
p3407
aVOAK-4241
p3408
aVOAK-4240
p3409
aVOAK-4239
p3410
aVOAK-4238
p3411
aVOAK-4237
p3412
aVOAK-4236
p3413
aVOAK-4235
p3414
aVOAK-4234
p3415
aVOAK-4233
p3416
aVOAK-4232
p3417
aVOAK-4231
p3418
aVOAK-4230
p3419
aVOAK-4229
p3420
aVOAK-4228
p3421
aVOAK-4227
p3422
aVOAK-4226
p3423
aVOAK-4225
p3424
aVOAK-4224
p3425
aVOAK-4223
p3426
aVOAK-4222
p3427
aVOAK-4221
p3428
aVOAK-4220
p3429
aVOAK-4219
p3430
aVOAK-4218
p3431
aVOAK-4217
p3432
aVOAK-4216
p3433
aVOAK-4215
p3434
aVOAK-4214
p3435
aVOAK-4213
p3436
aVOAK-4212
p3437
aVOAK-4211
p3438
aVOAK-4210
p3439
aVOAK-4209
p3440
aVOAK-4208
p3441
aVOAK-4207
p3442
aVOAK-4206
p3443
aVOAK-4205
p3444
aVOAK-4204
p3445
aVOAK-4203
p3446
aVOAK-4202
p3447
aVOAK-4201
p3448
aVOAK-4200
p3449
aVOAK-4199
p3450
aVOAK-4198
p3451
aVOAK-4197
p3452
aVOAK-4196
p3453
aVOAK-4195
p3454
aVOAK-4194
p3455
aVOAK-4193
p3456
aVOAK-4192
p3457
aVOAK-4191
p3458
aVOAK-4190
p3459
aVOAK-4189
p3460
aVOAK-4188
p3461
aVOAK-4187
p3462
aVOAK-4186
p3463
aVOAK-4185
p3464
aVOAK-4184
p3465
aVOAK-4183
p3466
aVOAK-4182
p3467
aVOAK-4181
p3468
aVOAK-4180
p3469
aVOAK-4179
p3470
aVOAK-4178
p3471
aVOAK-4177
p3472
aVOAK-4176
p3473
aVOAK-4175
p3474
aVOAK-4174
p3475
aVOAK-4173
p3476
aVOAK-4172
p3477
aVOAK-4171
p3478
aVOAK-4170
p3479
aVOAK-4169
p3480
aVOAK-4168
p3481
aVOAK-4167
p3482
aVOAK-4166
p3483
aVOAK-4165
p3484
aVOAK-4164
p3485
aVOAK-4163
p3486
aVOAK-4162
p3487
aVOAK-4161
p3488
aVOAK-4160
p3489
aVOAK-4159
p3490
aVOAK-4158
p3491
aVOAK-4157
p3492
aVOAK-4156
p3493
aVOAK-4155
p3494
aVOAK-4154
p3495
aVOAK-4153
p3496
aVOAK-4152
p3497
aVOAK-4151
p3498
aVOAK-4150
p3499
aVOAK-4149
p3500
aVOAK-4148
p3501
aVOAK-4147
p3502
aVOAK-4146
p3503
aVOAK-4145
p3504
aVOAK-4144
p3505
aVOAK-4143
p3506
aVOAK-4142
p3507
aVOAK-4141
p3508
aVOAK-4140
p3509
aVOAK-4139
p3510
aVOAK-4138
p3511
aVOAK-4137
p3512
aVOAK-4136
p3513
aVOAK-4135
p3514
aVOAK-4134
p3515
aVOAK-4133
p3516
aVOAK-4132
p3517
aVOAK-4131
p3518
aVOAK-4130
p3519
aVOAK-4129
p3520
aVOAK-4128
p3521
aVOAK-4127
p3522
aVOAK-4126
p3523
aVOAK-4125
p3524
aVOAK-4124
p3525
aVOAK-4123
p3526
aVOAK-4122
p3527
aVOAK-4121
p3528
aVOAK-4120
p3529
aVOAK-4119
p3530
aVOAK-4118
p3531
aVOAK-4117
p3532
aVOAK-4116
p3533
aVOAK-4115
p3534
aVOAK-4114
p3535
aVOAK-4113
p3536
aVOAK-4112
p3537
aVOAK-4111
p3538
aVOAK-4110
p3539
aVOAK-4109
p3540
aVOAK-4108
p3541
aVOAK-4107
p3542
aVOAK-4106
p3543
aVOAK-4105
p3544
aVOAK-4104
p3545
aVOAK-4103
p3546
aVOAK-4102
p3547
aVOAK-4101
p3548
aVOAK-4100
p3549
aVOAK-4099
p3550
aVOAK-4098
p3551
aVOAK-4097
p3552
aVOAK-4096
p3553
aVOAK-4095
p3554
aVOAK-4094
p3555
aVOAK-4093
p3556
aVOAK-4092
p3557
aVOAK-4091
p3558
aVOAK-4090
p3559
aVOAK-4089
p3560
aVOAK-4088
p3561
aVOAK-4087
p3562
aVOAK-4086
p3563
aVOAK-4085
p3564
aVOAK-4084
p3565
aVOAK-4083
p3566
aVOAK-4082
p3567
aVOAK-4081
p3568
aVOAK-4080
p3569
aVOAK-4079
p3570
aVOAK-4078
p3571
aVOAK-4077
p3572
aVOAK-4076
p3573
aVOAK-4075
p3574
aVOAK-4074
p3575
aVOAK-4073
p3576
aVOAK-4072
p3577
aVOAK-4071
p3578
aVOAK-4070
p3579
aVOAK-4069
p3580
aVOAK-4068
p3581
aVOAK-4067
p3582
aVOAK-4066
p3583
aVOAK-4065
p3584
aVOAK-4064
p3585
aVOAK-4063
p3586
aVOAK-4062
p3587
aVOAK-4061
p3588
aVOAK-4060
p3589
aVOAK-4059
p3590
aVOAK-4058
p3591
aVOAK-4057
p3592
aVOAK-4056
p3593
aVOAK-4055
p3594
aVOAK-4054
p3595
aVOAK-4053
p3596
aVOAK-4052
p3597
aVOAK-4051
p3598
aVOAK-4050
p3599
aVOAK-4049
p3600
aVOAK-4048
p3601
aVOAK-4047
p3602
aVOAK-4046
p3603
aVOAK-4045
p3604
aVOAK-4044
p3605
aVOAK-4043
p3606
aVOAK-4042
p3607
aVOAK-4041
p3608
aVOAK-4040
p3609
aVOAK-4039
p3610
aVOAK-4038
p3611
aVOAK-4037
p3612
aVOAK-4036
p3613
aVOAK-4035
p3614
aVOAK-4034
p3615
aVOAK-4033
p3616
aVOAK-4032
p3617
aVOAK-4031
p3618
aVOAK-4030
p3619
aVOAK-4029
p3620
aVOAK-4028
p3621
aVOAK-4027
p3622
aVOAK-4026
p3623
aVOAK-4025
p3624
aVOAK-4024
p3625
aVOAK-4023
p3626
aVOAK-4022
p3627
aVOAK-4021
p3628
aVOAK-4020
p3629
aVOAK-4019
p3630
aVOAK-4018
p3631
aVOAK-4017
p3632
aVOAK-4016
p3633
aVOAK-4015
p3634
aVOAK-4014
p3635
aVOAK-4013
p3636
aVOAK-4012
p3637
aVOAK-4011
p3638
aVOAK-4010
p3639
aVOAK-4009
p3640
aVOAK-4008
p3641
aVOAK-4007
p3642
aVOAK-4006
p3643
aVOAK-4005
p3644
aVOAK-4004
p3645
aVOAK-4003
p3646
aVOAK-4002
p3647
aVOAK-4001
p3648
aVOAK-4000
p3649
aVOAK-3999
p3650
aVOAK-3998
p3651
aVOAK-3997
p3652
aVOAK-3996
p3653
aVOAK-3995
p3654
aVOAK-3994
p3655
aVOAK-3993
p3656
aVOAK-3992
p3657
aVOAK-3991
p3658
aVOAK-3990
p3659
aVOAK-3989
p3660
aVOAK-3988
p3661
aVOAK-3987
p3662
aVOAK-3986
p3663
aVOAK-3985
p3664
aVOAK-3984
p3665
aVOAK-3983
p3666
aVOAK-3982
p3667
aVOAK-3981
p3668
aVOAK-3980
p3669
aVOAK-3979
p3670
aVOAK-3978
p3671
aVOAK-3977
p3672
aVOAK-3976
p3673
aVOAK-3975
p3674
aVOAK-3974
p3675
aVOAK-3973
p3676
aVOAK-3972
p3677
aVOAK-3971
p3678
aVOAK-3970
p3679
aVOAK-3969
p3680
aVOAK-3968
p3681
aVOAK-3967
p3682
aVOAK-3966
p3683
aVOAK-3965
p3684
aVOAK-3964
p3685
aVOAK-3963
p3686
aVOAK-3962
p3687
aVOAK-3961
p3688
aVOAK-3960
p3689
aVOAK-3959
p3690
aVOAK-3958
p3691
aVOAK-3957
p3692
aVOAK-3956
p3693
aVOAK-3955
p3694
aVOAK-3954
p3695
aVOAK-3953
p3696
aVOAK-3952
p3697
aVOAK-3951
p3698
aVOAK-3950
p3699
aVOAK-3949
p3700
aVOAK-3948
p3701
aVOAK-3947
p3702
aVOAK-3946
p3703
aVOAK-3945
p3704
aVOAK-3944
p3705
aVOAK-3943
p3706
aVOAK-3942
p3707
aVOAK-3941
p3708
aVOAK-3940
p3709
aVOAK-3939
p3710
aVOAK-3938
p3711
aVOAK-3937
p3712
aVOAK-3936
p3713
aVOAK-3935
p3714
aVOAK-3934
p3715
aVOAK-3933
p3716
aVOAK-3932
p3717
aVOAK-3931
p3718
aVOAK-3930
p3719
aVOAK-3929
p3720
aVOAK-3928
p3721
aVOAK-3927
p3722
aVOAK-3926
p3723
aVOAK-3925
p3724
aVOAK-3924
p3725
aVOAK-3923
p3726
aVOAK-3922
p3727
aVOAK-3921
p3728
aVOAK-3920
p3729
aVOAK-3919
p3730
aVOAK-3918
p3731
aVOAK-3917
p3732
aVOAK-3916
p3733
aVOAK-3915
p3734
aVOAK-3914
p3735
aVOAK-3913
p3736
aVOAK-3912
p3737
aVOAK-3911
p3738
aVOAK-3910
p3739
aVOAK-3909
p3740
aVOAK-3908
p3741
aVOAK-3907
p3742
aVOAK-3906
p3743
aVOAK-3905
p3744
aVOAK-3904
p3745
aVOAK-3903
p3746
aVOAK-3902
p3747
aVOAK-3901
p3748
aVOAK-3900
p3749
aVOAK-3899
p3750
aVOAK-3898
p3751
aVOAK-3897
p3752
aVOAK-3896
p3753
aVOAK-3895
p3754
aVOAK-3894
p3755
aVOAK-3893
p3756
aVOAK-3892
p3757
aVOAK-3891
p3758
aVOAK-3890
p3759
aVOAK-3889
p3760
aVOAK-3888
p3761
aVOAK-3887
p3762
aVOAK-3886
p3763
aVOAK-3885
p3764
aVOAK-3884
p3765
aVOAK-3883
p3766
aVOAK-3882
p3767
aVOAK-3881
p3768
aVOAK-3880
p3769
aVOAK-3879
p3770
aVOAK-3878
p3771
aVOAK-3877
p3772
aVOAK-3876
p3773
aVOAK-3875
p3774
aVOAK-3874
p3775
aVOAK-3873
p3776
aVOAK-3872
p3777
aVOAK-3871
p3778
aVOAK-3870
p3779
aVOAK-3869
p3780
aVOAK-3868
p3781
aVOAK-3867
p3782
aVOAK-3866
p3783
aVOAK-3865
p3784
aVOAK-3864
p3785
aVOAK-3863
p3786
aVOAK-3862
p3787
aVOAK-3861
p3788
aVOAK-3860
p3789
aVOAK-3859
p3790
aVOAK-3858
p3791
aVOAK-3857
p3792
aVOAK-3856
p3793
aVOAK-3855
p3794
aVOAK-3854
p3795
aVOAK-3853
p3796
aVOAK-3852
p3797
aVOAK-3851
p3798
aVOAK-3850
p3799
aVOAK-3849
p3800
aVOAK-3848
p3801
aVOAK-3847
p3802
aVOAK-3846
p3803
aVOAK-3845
p3804
aVOAK-3844
p3805
aVOAK-3843
p3806
aVOAK-3842
p3807
aVOAK-3841
p3808
aVOAK-3840
p3809
aVOAK-3839
p3810
aVOAK-3838
p3811
aVOAK-3837
p3812
aVOAK-3836
p3813
aVOAK-3835
p3814
aVOAK-3834
p3815
aVOAK-3833
p3816
aVOAK-3832
p3817
aVOAK-3831
p3818
aVOAK-3830
p3819
aVOAK-3829
p3820
aVOAK-3828
p3821
aVOAK-3827
p3822
aVOAK-3826
p3823
aVOAK-3825
p3824
aVOAK-3824
p3825
aVOAK-3823
p3826
aVOAK-3822
p3827
aVOAK-3821
p3828
aVOAK-3820
p3829
aVOAK-3819
p3830
aVOAK-3818
p3831
aVOAK-3817
p3832
aVOAK-3816
p3833
aVOAK-3815
p3834
aVOAK-3814
p3835
aVOAK-3813
p3836
aVOAK-3812
p3837
aVOAK-3811
p3838
aVOAK-3810
p3839
aVOAK-3809
p3840
aVOAK-3808
p3841
aVOAK-3807
p3842
aVOAK-3806
p3843
aVOAK-3805
p3844
aVOAK-3804
p3845
aVOAK-3803
p3846
aVOAK-3802
p3847
aVOAK-3801
p3848
aVOAK-3800
p3849
aVOAK-3799
p3850
aVOAK-3798
p3851
aVOAK-3797
p3852
aVOAK-3796
p3853
aVOAK-3795
p3854
aVOAK-3794
p3855
aVOAK-3793
p3856
aVOAK-3792
p3857
aVOAK-3791
p3858
aVOAK-3790
p3859
aVOAK-3789
p3860
aVOAK-3788
p3861
aVOAK-3787
p3862
aVOAK-3786
p3863
aVOAK-3785
p3864
aVOAK-3784
p3865
aVOAK-3783
p3866
aVOAK-3782
p3867
aVOAK-3781
p3868
aVOAK-3780
p3869
aVOAK-3779
p3870
aVOAK-3778
p3871
aVOAK-3777
p3872
aVOAK-3776
p3873
aVOAK-3775
p3874
aVOAK-3774
p3875
aVOAK-3773
p3876
aVOAK-3772
p3877
aVOAK-3771
p3878
aVOAK-3770
p3879
aVOAK-3769
p3880
aVOAK-3768
p3881
aVOAK-3767
p3882
aVOAK-3766
p3883
aVOAK-3765
p3884
aVOAK-3764
p3885
aVOAK-3763
p3886
aVOAK-3762
p3887
aVOAK-3761
p3888
aVOAK-3760
p3889
aVOAK-3759
p3890
aVOAK-3758
p3891
aVOAK-3757
p3892
aVOAK-3756
p3893
aVOAK-3755
p3894
aVOAK-3754
p3895
aVOAK-3753
p3896
aVOAK-3752
p3897
aVOAK-3751
p3898
aVOAK-3750
p3899
aVOAK-3749
p3900
aVOAK-3748
p3901
aVOAK-3747
p3902
aVOAK-3746
p3903
aVOAK-3745
p3904
aVOAK-3744
p3905
aVOAK-3743
p3906
aVOAK-3742
p3907
aVOAK-3741
p3908
aVOAK-3740
p3909
aVOAK-3739
p3910
aVOAK-3738
p3911
aVOAK-3737
p3912
aVOAK-3736
p3913
aVOAK-3735
p3914
aVOAK-3734
p3915
aVOAK-3733
p3916
aVOAK-3732
p3917
aVOAK-3731
p3918
aVOAK-3730
p3919
aVOAK-3729
p3920
aVOAK-3728
p3921
aVOAK-3727
p3922
aVOAK-3726
p3923
aVOAK-3725
p3924
aVOAK-3724
p3925
aVOAK-3723
p3926
aVOAK-3722
p3927
aVOAK-3721
p3928
aVOAK-3720
p3929
aVOAK-3719
p3930
aVOAK-3718
p3931
aVOAK-3717
p3932
aVOAK-3716
p3933
aVOAK-3715
p3934
aVOAK-3714
p3935
aVOAK-3713
p3936
aVOAK-3712
p3937
aVOAK-3711
p3938
aVOAK-3710
p3939
aVOAK-3709
p3940
aVOAK-3708
p3941
aVOAK-3707
p3942
aVOAK-3706
p3943
aVOAK-3705
p3944
aVOAK-3704
p3945
aVOAK-3703
p3946
aVOAK-3702
p3947
aVOAK-3701
p3948
aVOAK-3700
p3949
aVOAK-3699
p3950
aVOAK-3698
p3951
aVOAK-3697
p3952
aVOAK-3696
p3953
aVOAK-3695
p3954
aVOAK-3694
p3955
aVOAK-3693
p3956
aVOAK-3692
p3957
aVOAK-3691
p3958
aVOAK-3690
p3959
aVOAK-3689
p3960
aVOAK-3688
p3961
aVOAK-3687
p3962
aVOAK-3686
p3963
aVOAK-3685
p3964
aVOAK-3684
p3965
aVOAK-3683
p3966
aVOAK-3682
p3967
aVOAK-3681
p3968
aVOAK-3680
p3969
aVOAK-3679
p3970
aVOAK-3678
p3971
aVOAK-3677
p3972
aVOAK-3676
p3973
aVOAK-3675
p3974
aVOAK-3674
p3975
aVOAK-3673
p3976
aVOAK-3672
p3977
aVOAK-3671
p3978
aVOAK-3670
p3979
aVOAK-3669
p3980
aVOAK-3668
p3981
aVOAK-3667
p3982
aVOAK-3666
p3983
aVOAK-3665
p3984
aVOAK-3664
p3985
aVOAK-3663
p3986
aVOAK-3662
p3987
aVOAK-3661
p3988
aVOAK-3660
p3989
aVOAK-3659
p3990
aVOAK-3658
p3991
aVOAK-3657
p3992
aVOAK-3656
p3993
aVOAK-3655
p3994
aVOAK-3654
p3995
aVOAK-3653
p3996
aVOAK-3652
p3997
aVOAK-3651
p3998
aVOAK-3650
p3999
aVOAK-3649
p4000
aVOAK-3648
p4001
aVOAK-3647
p4002
aVOAK-3646
p4003
aVOAK-3645
p4004
aVOAK-3644
p4005
aVOAK-3643
p4006
aVOAK-3642
p4007
aVOAK-3641
p4008
aVOAK-3640
p4009
aVOAK-3639
p4010
aVOAK-3638
p4011
aVOAK-3637
p4012
aVOAK-3636
p4013
aVOAK-3635
p4014
aVOAK-3634
p4015
aVOAK-3633
p4016
aVOAK-3632
p4017
aVOAK-3631
p4018
aVOAK-3630
p4019
aVOAK-3629
p4020
aVOAK-3628
p4021
aVOAK-3627
p4022
aVOAK-3626
p4023
aVOAK-3625
p4024
aVOAK-3624
p4025
aVOAK-3623
p4026
aVOAK-3622
p4027
aVOAK-3621
p4028
aVOAK-3620
p4029
aVOAK-3619
p4030
aVOAK-3618
p4031
aVOAK-3617
p4032
aVOAK-3616
p4033
aVOAK-3615
p4034
aVOAK-3614
p4035
aVOAK-3613
p4036
aVOAK-3612
p4037
aVOAK-3611
p4038
aVOAK-3610
p4039
aVOAK-3609
p4040
aVOAK-3608
p4041
aVOAK-3607
p4042
aVOAK-3606
p4043
aVOAK-3605
p4044
aVOAK-3604
p4045
aVOAK-3603
p4046
aVOAK-3602
p4047
aVOAK-3601
p4048
aVOAK-3600
p4049
aVOAK-3599
p4050
aVOAK-3598
p4051
aVOAK-3597
p4052
aVOAK-3596
p4053
aVOAK-3595
p4054
aVOAK-3594
p4055
aVOAK-3593
p4056
aVOAK-3592
p4057
aVOAK-3591
p4058
aVOAK-3590
p4059
aVOAK-3589
p4060
aVOAK-3588
p4061
aVOAK-3587
p4062
aVOAK-3586
p4063
aVOAK-3585
p4064
aVOAK-3584
p4065
aVOAK-3583
p4066
aVOAK-3582
p4067
aVOAK-3581
p4068
aVOAK-3580
p4069
aVOAK-3579
p4070
aVOAK-3578
p4071
aVOAK-3577
p4072
aVOAK-3576
p4073
aVOAK-3575
p4074
aVOAK-3574
p4075
aVOAK-3573
p4076
aVOAK-3572
p4077
aVOAK-3571
p4078
aVOAK-3570
p4079
aVOAK-3569
p4080
aVOAK-3568
p4081
aVOAK-3567
p4082
aVOAK-3566
p4083
aVOAK-3565
p4084
aVOAK-3564
p4085
aVOAK-3563
p4086
aVOAK-3562
p4087
aVOAK-3561
p4088
aVOAK-3560
p4089
aVOAK-3559
p4090
aVOAK-3558
p4091
aVOAK-3557
p4092
aVOAK-3556
p4093
aVOAK-3555
p4094
aVOAK-3554
p4095
aVOAK-3553
p4096
aVOAK-3552
p4097
aVOAK-3551
p4098
aVOAK-3550
p4099
aVOAK-3549
p4100
aVOAK-3548
p4101
aVOAK-3547
p4102
aVOAK-3546
p4103
aVOAK-3545
p4104
aVOAK-3544
p4105
aVOAK-3543
p4106
aVOAK-3542
p4107
aVOAK-3541
p4108
aVOAK-3540
p4109
aVOAK-3539
p4110
aVOAK-3538
p4111
aVOAK-3537
p4112
aVOAK-3536
p4113
aVOAK-3535
p4114
aVOAK-3534
p4115
aVOAK-3533
p4116
aVOAK-3532
p4117
aVOAK-3531
p4118
aVOAK-3530
p4119
aVOAK-3529
p4120
aVOAK-3528
p4121
aVOAK-3527
p4122
aVOAK-3526
p4123
aVOAK-3525
p4124
aVOAK-3524
p4125
aVOAK-3523
p4126
aVOAK-3522
p4127
aVOAK-3521
p4128
aVOAK-3520
p4129
aVOAK-3519
p4130
aVOAK-3518
p4131
aVOAK-3517
p4132
aVOAK-3516
p4133
aVOAK-3515
p4134
aVOAK-3514
p4135
aVOAK-3513
p4136
aVOAK-3512
p4137
aVOAK-3511
p4138
aVOAK-3510
p4139
aVOAK-3509
p4140
aVOAK-3508
p4141
aVOAK-3507
p4142
aVOAK-3506
p4143
aVOAK-3505
p4144
aVOAK-3504
p4145
aVOAK-3503
p4146
aVOAK-3502
p4147
aVOAK-3501
p4148
aVOAK-3500
p4149
aVOAK-3499
p4150
aVOAK-3498
p4151
aVOAK-3497
p4152
aVOAK-3496
p4153
aVOAK-3495
p4154
aVOAK-3494
p4155
aVOAK-3493
p4156
aVOAK-3492
p4157
aVOAK-3491
p4158
aVOAK-3490
p4159
aVOAK-3489
p4160
aVOAK-3488
p4161
aVOAK-3487
p4162
aVOAK-3486
p4163
aVOAK-3485
p4164
aVOAK-3484
p4165
aVOAK-3483
p4166
aVOAK-3482
p4167
aVOAK-3481
p4168
aVOAK-3480
p4169
aVOAK-3479
p4170
aVOAK-3478
p4171
aVOAK-3477
p4172
aVOAK-3476
p4173
aVOAK-3475
p4174
aVOAK-3474
p4175
aVOAK-3473
p4176
aVOAK-3472
p4177
aVOAK-3471
p4178
aVOAK-3470
p4179
aVOAK-3469
p4180
aVOAK-3468
p4181
aVOAK-3467
p4182
aVOAK-3466
p4183
aVOAK-3465
p4184
aVOAK-3464
p4185
aVOAK-3463
p4186
aVOAK-3462
p4187
aVOAK-3461
p4188
aVOAK-3460
p4189
aVOAK-3459
p4190
aVOAK-3458
p4191
aVOAK-3457
p4192
aVOAK-3456
p4193
aVOAK-3455
p4194
aVOAK-3454
p4195
aVOAK-3453
p4196
aVOAK-3452
p4197
aVOAK-3451
p4198
aVOAK-3450
p4199
aVOAK-3449
p4200
aVOAK-3448
p4201
aVOAK-3447
p4202
aVOAK-3446
p4203
aVOAK-3445
p4204
aVOAK-3444
p4205
aVOAK-3443
p4206
aVOAK-3442
p4207
aVOAK-3441
p4208
aVOAK-3440
p4209
aVOAK-3439
p4210
aVOAK-3438
p4211
aVOAK-3437
p4212
aVOAK-3436
p4213
aVOAK-3435
p4214
aVOAK-3434
p4215
aVOAK-3433
p4216
aVOAK-3432
p4217
aVOAK-3431
p4218
aVOAK-3430
p4219
aVOAK-3429
p4220
aVOAK-3428
p4221
aVOAK-3427
p4222
aVOAK-3426
p4223
aVOAK-3425
p4224
aVOAK-3424
p4225
aVOAK-3423
p4226
aVOAK-3422
p4227
aVOAK-3421
p4228
aVOAK-3420
p4229
aVOAK-3419
p4230
aVOAK-3418
p4231
aVOAK-3417
p4232
aVOAK-3416
p4233
aVOAK-3415
p4234
aVOAK-3414
p4235
aVOAK-3413
p4236
aVOAK-3412
p4237
aVOAK-3411
p4238
aVOAK-3410
p4239
aVOAK-3409
p4240
aVOAK-3408
p4241
aVOAK-3407
p4242
aVOAK-3406
p4243
aVOAK-3405
p4244
aVOAK-3404
p4245
aVOAK-3403
p4246
aVOAK-3402
p4247
aVOAK-3401
p4248
aVOAK-3400
p4249
aVOAK-3399
p4250
aVOAK-3398
p4251
aVOAK-3397
p4252
aVOAK-3396
p4253
aVOAK-3395
p4254
aVOAK-3394
p4255
aVOAK-3393
p4256
aVOAK-3392
p4257
aVOAK-3391
p4258
aVOAK-3390
p4259
aVOAK-3389
p4260
aVOAK-3388
p4261
aVOAK-3387
p4262
aVOAK-3386
p4263
aVOAK-3385
p4264
aVOAK-3384
p4265
aVOAK-3383
p4266
aVOAK-3382
p4267
aVOAK-3381
p4268
aVOAK-3380
p4269
aVOAK-3379
p4270
aVOAK-3378
p4271
aVOAK-3377
p4272
aVOAK-3376
p4273
aVOAK-3375
p4274
aVOAK-3374
p4275
aVOAK-3373
p4276
aVOAK-3372
p4277
aVOAK-3371
p4278
aVOAK-3370
p4279
aVOAK-3369
p4280
aVOAK-3368
p4281
aVOAK-3367
p4282
aVOAK-3366
p4283
aVOAK-3365
p4284
aVOAK-3364
p4285
aVOAK-3363
p4286
aVOAK-3362
p4287
aVOAK-3361
p4288
aVOAK-3360
p4289
aVOAK-3359
p4290
aVOAK-3358
p4291
aVOAK-3357
p4292
aVOAK-3356
p4293
aVOAK-3355
p4294
aVOAK-3354
p4295
aVOAK-3353
p4296
aVOAK-3352
p4297
aVOAK-3351
p4298
aVOAK-3350
p4299
aVOAK-3349
p4300
aVOAK-3348
p4301
aVOAK-3347
p4302
aVOAK-3346
p4303
aVOAK-3345
p4304
aVOAK-3344
p4305
aVOAK-3343
p4306
aVOAK-3342
p4307
aVOAK-3341
p4308
aVOAK-3340
p4309
aVOAK-3339
p4310
aVOAK-3338
p4311
aVOAK-3337
p4312
aVOAK-3336
p4313
aVOAK-3335
p4314
aVOAK-3334
p4315
aVOAK-3333
p4316
aVOAK-3332
p4317
aVOAK-3331
p4318
aVOAK-3330
p4319
aVOAK-3329
p4320
aVOAK-3328
p4321
aVOAK-3327
p4322
aVOAK-3326
p4323
aVOAK-3325
p4324
aVOAK-3324
p4325
aVOAK-3323
p4326
aVOAK-3322
p4327
aVOAK-3321
p4328
aVOAK-3320
p4329
aVOAK-3319
p4330
aVOAK-3318
p4331
aVOAK-3317
p4332
aVOAK-3316
p4333
aVOAK-3315
p4334
aVOAK-3314
p4335
aVOAK-3313
p4336
aVOAK-3312
p4337
aVOAK-3311
p4338
aVOAK-3310
p4339
aVOAK-3309
p4340
aVOAK-3308
p4341
aVOAK-3307
p4342
aVOAK-3306
p4343
aVOAK-3305
p4344
aVOAK-3304
p4345
aVOAK-3303
p4346
aVOAK-3302
p4347
aVOAK-3301
p4348
aVOAK-3300
p4349
aVOAK-3299
p4350
aVOAK-3298
p4351
aVOAK-3297
p4352
aVOAK-3296
p4353
aVOAK-3295
p4354
aVOAK-3294
p4355
aVOAK-3293
p4356
aVOAK-3292
p4357
aVOAK-3291
p4358
aVOAK-3290
p4359
aVOAK-3289
p4360
aVOAK-3288
p4361
aVOAK-3287
p4362
aVOAK-3286
p4363
aVOAK-3285
p4364
aVOAK-3284
p4365
aVOAK-3283
p4366
aVOAK-3282
p4367
aVOAK-3281
p4368
aVOAK-3280
p4369
aVOAK-3279
p4370
aVOAK-3278
p4371
aVOAK-3277
p4372
aVOAK-3276
p4373
aVOAK-3275
p4374
aVOAK-3274
p4375
aVOAK-3273
p4376
aVOAK-3272
p4377
aVOAK-3271
p4378
aVOAK-3270
p4379
aVOAK-3269
p4380
aVOAK-3268
p4381
aVOAK-3267
p4382
aVOAK-3266
p4383
aVOAK-3265
p4384
aVOAK-3264
p4385
aVOAK-3263
p4386
aVOAK-3262
p4387
aVOAK-3261
p4388
aVOAK-3260
p4389
aVOAK-3259
p4390
aVOAK-3258
p4391
aVOAK-3257
p4392
aVOAK-3256
p4393
aVOAK-3255
p4394
aVOAK-3254
p4395
aVOAK-3253
p4396
aVOAK-3252
p4397
aVOAK-3251
p4398
aVOAK-3250
p4399
aVOAK-3249
p4400
aVOAK-3248
p4401
aVOAK-3247
p4402
aVOAK-3246
p4403
aVOAK-3245
p4404
aVOAK-3244
p4405
aVOAK-3243
p4406
aVOAK-3242
p4407
aVOAK-3241
p4408
aVOAK-3240
p4409
aVOAK-3239
p4410
aVOAK-3238
p4411
aVOAK-3237
p4412
aVOAK-3236
p4413
aVOAK-3235
p4414
aVOAK-3234
p4415
aVOAK-3233
p4416
aVOAK-3232
p4417
aVOAK-3231
p4418
aVOAK-3230
p4419
aVOAK-3229
p4420
aVOAK-3228
p4421
aVOAK-3227
p4422
aVOAK-3226
p4423
aVOAK-3225
p4424
aVOAK-3224
p4425
aVOAK-3223
p4426
aVOAK-3222
p4427
aVOAK-3221
p4428
aVOAK-3220
p4429
aVOAK-3219
p4430
aVOAK-3218
p4431
aVOAK-3217
p4432
aVOAK-3216
p4433
aVOAK-3215
p4434
aVOAK-3214
p4435
aVOAK-3213
p4436
aVOAK-3212
p4437
aVOAK-3211
p4438
aVOAK-3210
p4439
aVOAK-3209
p4440
aVOAK-3208
p4441
aVOAK-3207
p4442
aVOAK-3206
p4443
aVOAK-3205
p4444
aVOAK-3204
p4445
aVOAK-3203
p4446
aVOAK-3202
p4447
aVOAK-3201
p4448
aVOAK-3200
p4449
aVOAK-3199
p4450
aVOAK-3198
p4451
aVOAK-3197
p4452
aVOAK-3196
p4453
aVOAK-3195
p4454
aVOAK-3194
p4455
aVOAK-3193
p4456
aVOAK-3192
p4457
aVOAK-3191
p4458
aVOAK-3190
p4459
aVOAK-3189
p4460
aVOAK-3188
p4461
aVOAK-3187
p4462
aVOAK-3186
p4463
aVOAK-3185
p4464
aVOAK-3184
p4465
aVOAK-3183
p4466
aVOAK-3182
p4467
aVOAK-3181
p4468
aVOAK-3180
p4469
aVOAK-3179
p4470
aVOAK-3178
p4471
aVOAK-3177
p4472
aVOAK-3176
p4473
aVOAK-3175
p4474
aVOAK-3174
p4475
aVOAK-3173
p4476
aVOAK-3172
p4477
aVOAK-3171
p4478
aVOAK-3170
p4479
aVOAK-3169
p4480
aVOAK-3168
p4481
aVOAK-3167
p4482
aVOAK-3166
p4483
aVOAK-3165
p4484
aVOAK-3164
p4485
aVOAK-3163
p4486
aVOAK-3162
p4487
aVOAK-3161
p4488
aVOAK-3160
p4489
aVOAK-3159
p4490
aVOAK-3158
p4491
aVOAK-3157
p4492
aVOAK-3156
p4493
aVOAK-3155
p4494
aVOAK-3154
p4495
aVOAK-3153
p4496
aVOAK-3152
p4497
aVOAK-3151
p4498
aVOAK-3150
p4499
aVOAK-3149
p4500
aVOAK-3148
p4501
aVOAK-3147
p4502
aVOAK-3146
p4503
aVOAK-3145
p4504
aVOAK-3144
p4505
aVOAK-3143
p4506
aVOAK-3142
p4507
aVOAK-3141
p4508
aVOAK-3140
p4509
aVOAK-3139
p4510
aVOAK-3138
p4511
aVOAK-3137
p4512
aVOAK-3136
p4513
aVOAK-3135
p4514
aVOAK-3134
p4515
aVOAK-3133
p4516
aVOAK-3132
p4517
aVOAK-3131
p4518
aVOAK-3130
p4519
aVOAK-3129
p4520
aVOAK-3128
p4521
aVOAK-3127
p4522
aVOAK-3126
p4523
aVOAK-3125
p4524
aVOAK-3124
p4525
aVOAK-3123
p4526
aVOAK-3122
p4527
aVOAK-3121
p4528
aVOAK-3120
p4529
aVOAK-3119
p4530
aVOAK-3118
p4531
aVOAK-3117
p4532
aVOAK-3116
p4533
aVOAK-3115
p4534
aVOAK-3114
p4535
aVOAK-3113
p4536
aVOAK-3112
p4537
aVOAK-3111
p4538
aVOAK-3110
p4539
aVOAK-3109
p4540
aVOAK-3108
p4541
aVOAK-3107
p4542
aVOAK-3106
p4543
aVOAK-3105
p4544
aVOAK-3104
p4545
aVOAK-3103
p4546
aVOAK-3102
p4547
aVOAK-3101
p4548
aVOAK-3100
p4549
aVOAK-3099
p4550
aVOAK-3098
p4551
aVOAK-3097
p4552
aVOAK-3096
p4553
aVOAK-3095
p4554
aVOAK-3094
p4555
aVOAK-3093
p4556
aVOAK-3092
p4557
aVOAK-3091
p4558
aVOAK-3090
p4559
aVOAK-3089
p4560
aVOAK-3088
p4561
aVOAK-3087
p4562
aVOAK-3086
p4563
aVOAK-3085
p4564
aVOAK-3084
p4565
aVOAK-3083
p4566
aVOAK-3082
p4567
aVOAK-3081
p4568
aVOAK-3080
p4569
aVOAK-3079
p4570
aVOAK-3078
p4571
aVOAK-3077
p4572
aVOAK-3076
p4573
aVOAK-3075
p4574
aVOAK-3074
p4575
aVOAK-3073
p4576
aVOAK-3072
p4577
aVOAK-3071
p4578
aVOAK-3070
p4579
aVOAK-3069
p4580
aVOAK-3068
p4581
aVOAK-3067
p4582
aVOAK-3066
p4583
aVOAK-3065
p4584
aVOAK-3064
p4585
aVOAK-3063
p4586
aVOAK-3062
p4587
aVOAK-3061
p4588
aVOAK-3060
p4589
aVOAK-3059
p4590
aVOAK-3058
p4591
aVOAK-3057
p4592
aVOAK-3056
p4593
aVOAK-3055
p4594
aVOAK-3054
p4595
aVOAK-3053
p4596
aVOAK-3052
p4597
aVOAK-3051
p4598
aVOAK-3050
p4599
aVOAK-3049
p4600
aVOAK-3048
p4601
aVOAK-3047
p4602
aVOAK-3046
p4603
aVOAK-3045
p4604
aVOAK-3044
p4605
aVOAK-3043
p4606
aVOAK-3042
p4607
aVOAK-3041
p4608
aVOAK-3040
p4609
aVOAK-3039
p4610
aVOAK-3038
p4611
aVOAK-3037
p4612
aVOAK-3036
p4613
aVOAK-3035
p4614
aVOAK-3034
p4615
aVOAK-3033
p4616
aVOAK-3032
p4617
aVOAK-3031
p4618
aVOAK-3030
p4619
aVOAK-3029
p4620
aVOAK-3028
p4621
aVOAK-3027
p4622
aVOAK-3026
p4623
aVOAK-3025
p4624
aVOAK-3024
p4625
aVOAK-3023
p4626
aVOAK-3022
p4627
aVOAK-3021
p4628
aVOAK-3020
p4629
aVOAK-3019
p4630
aVOAK-3018
p4631
aVOAK-3017
p4632
aVOAK-3016
p4633
aVOAK-3015
p4634
aVOAK-3014
p4635
aVOAK-3013
p4636
aVOAK-3012
p4637
aVOAK-3011
p4638
aVOAK-3010
p4639
aVOAK-3009
p4640
aVOAK-3008
p4641
aVOAK-3007
p4642
aVOAK-3006
p4643
aVOAK-3005
p4644
aVOAK-3004
p4645
aVOAK-3003
p4646
aVOAK-3002
p4647
aVOAK-3001
p4648
aVOAK-3000
p4649
aVOAK-2999
p4650
aVOAK-2998
p4651
aVOAK-2997
p4652
aVOAK-2996
p4653
aVOAK-2995
p4654
aVOAK-2994
p4655
aVOAK-2993
p4656
aVOAK-2992
p4657
aVOAK-2991
p4658
aVOAK-2990
p4659
aVOAK-2989
p4660
aVOAK-2988
p4661
aVOAK-2987
p4662
aVOAK-2986
p4663
aVOAK-2985
p4664
aVOAK-2984
p4665
aVOAK-2983
p4666
aVOAK-2982
p4667
aVOAK-2981
p4668
aVOAK-2980
p4669
aVOAK-2979
p4670
aVOAK-2978
p4671
aVOAK-2977
p4672
aVOAK-2976
p4673
aVOAK-2975
p4674
aVOAK-2974
p4675
aVOAK-2973
p4676
aVOAK-2972
p4677
aVOAK-2971
p4678
aVOAK-2970
p4679
aVOAK-2969
p4680
aVOAK-2968
p4681
aVOAK-2967
p4682
aVOAK-2966
p4683
aVOAK-2965
p4684
aVOAK-2964
p4685
aVOAK-2963
p4686
aVOAK-2962
p4687
aVOAK-2961
p4688
aVOAK-2960
p4689
aVOAK-2959
p4690
aVOAK-2958
p4691
aVOAK-2957
p4692
aVOAK-2956
p4693
aVOAK-2955
p4694
aVOAK-2954
p4695
aVOAK-2953
p4696
aVOAK-2952
p4697
aVOAK-2951
p4698
aVOAK-2950
p4699
aVOAK-2949
p4700
aVOAK-2948
p4701
aVOAK-2947
p4702
aVOAK-2946
p4703
aVOAK-2945
p4704
aVOAK-2944
p4705
aVOAK-2943
p4706
aVOAK-2942
p4707
aVOAK-2941
p4708
aVOAK-2940
p4709
aVOAK-2939
p4710
aVOAK-2938
p4711
aVOAK-2937
p4712
aVOAK-2936
p4713
aVOAK-2935
p4714
aVOAK-2934
p4715
aVOAK-2933
p4716
aVOAK-2932
p4717
aVOAK-2931
p4718
aVOAK-2930
p4719
aVOAK-2929
p4720
aVOAK-2928
p4721
aVOAK-2927
p4722
aVOAK-2926
p4723
aVOAK-2925
p4724
aVOAK-2924
p4725
aVOAK-2923
p4726
aVOAK-2922
p4727
aVOAK-2921
p4728
aVOAK-2920
p4729
aVOAK-2919
p4730
aVOAK-2918
p4731
aVOAK-2917
p4732
aVOAK-2916
p4733
aVOAK-2915
p4734
aVOAK-2914
p4735
aVOAK-2913
p4736
aVOAK-2912
p4737
aVOAK-2911
p4738
aVOAK-2910
p4739
aVOAK-2909
p4740
aVOAK-2908
p4741
aVOAK-2907
p4742
aVOAK-2906
p4743
aVOAK-2905
p4744
aVOAK-2904
p4745
aVOAK-2903
p4746
aVOAK-2902
p4747
aVOAK-2901
p4748
aVOAK-2900
p4749
aVOAK-2899
p4750
aVOAK-2898
p4751
aVOAK-2897
p4752
aVOAK-2896
p4753
aVOAK-2895
p4754
aVOAK-2894
p4755
aVOAK-2893
p4756
aVOAK-2892
p4757
aVOAK-2891
p4758
aVOAK-2890
p4759
aVOAK-2889
p4760
aVOAK-2888
p4761
aVOAK-2887
p4762
aVOAK-2886
p4763
aVOAK-2885
p4764
aVOAK-2884
p4765
aVOAK-2883
p4766
aVOAK-2882
p4767
aVOAK-2881
p4768
aVOAK-2880
p4769
aVOAK-2879
p4770
aVOAK-2878
p4771
aVOAK-2877
p4772
aVOAK-2876
p4773
aVOAK-2875
p4774
aVOAK-2874
p4775
aVOAK-2873
p4776
aVOAK-2872
p4777
aVOAK-2871
p4778
aVOAK-2870
p4779
aVOAK-2869
p4780
aVOAK-2868
p4781
aVOAK-2867
p4782
aVOAK-2866
p4783
aVOAK-2865
p4784
aVOAK-2864
p4785
aVOAK-2863
p4786
aVOAK-2862
p4787
aVOAK-2861
p4788
aVOAK-2860
p4789
aVOAK-2859
p4790
aVOAK-2858
p4791
aVOAK-2857
p4792
aVOAK-2856
p4793
aVOAK-2855
p4794
aVOAK-2854
p4795
aVOAK-2853
p4796
aVOAK-2852
p4797
aVOAK-2851
p4798
aVOAK-2850
p4799
aVOAK-2849
p4800
aVOAK-2847
p4801
aVOAK-2846
p4802
aVOAK-2845
p4803
aVOAK-2844
p4804
aVOAK-2843
p4805
aVOAK-2842
p4806
aVOAK-2841
p4807
aVOAK-2840
p4808
aVOAK-2839
p4809
aVOAK-2838
p4810
aVOAK-2837
p4811
aVOAK-2836
p4812
aVOAK-2835
p4813
aVOAK-2834
p4814
aVOAK-2833
p4815
aVOAK-2832
p4816
aVOAK-2831
p4817
aVOAK-2830
p4818
aVOAK-2829
p4819
aVOAK-2828
p4820
aVOAK-2827
p4821
aVOAK-2826
p4822
aVOAK-2825
p4823
aVOAK-2824
p4824
aVOAK-2823
p4825
aVOAK-2822
p4826
aVOAK-2821
p4827
aVOAK-2820
p4828
aVOAK-2819
p4829
aVOAK-2818
p4830
aVOAK-2817
p4831
aVOAK-2816
p4832
aVOAK-2815
p4833
aVOAK-2814
p4834
aVOAK-2813
p4835
aVOAK-2812
p4836
aVOAK-2811
p4837
aVOAK-2810
p4838
aVOAK-2809
p4839
aVOAK-2808
p4840
aVOAK-2807
p4841
aVOAK-2806
p4842
aVOAK-2805
p4843
aVOAK-2804
p4844
aVOAK-2803
p4845
aVOAK-2802
p4846
aVOAK-2801
p4847
aVOAK-2800
p4848
aVOAK-2799
p4849
aVOAK-2798
p4850
aVOAK-2797
p4851
aVOAK-2796
p4852
aVOAK-2795
p4853
aVOAK-2794
p4854
aVOAK-2793
p4855
aVOAK-2792
p4856
aVOAK-2791
p4857
aVOAK-2790
p4858
aVOAK-2789
p4859
aVOAK-2788
p4860
aVOAK-2787
p4861
aVOAK-2786
p4862
aVOAK-2785
p4863
aVOAK-2784
p4864
aVOAK-2783
p4865
aVOAK-2782
p4866
aVOAK-2781
p4867
aVOAK-2780
p4868
aVOAK-2779
p4869
aVOAK-2778
p4870
aVOAK-2777
p4871
aVOAK-2776
p4872
aVOAK-2775
p4873
aVOAK-2774
p4874
aVOAK-2773
p4875
aVOAK-2772
p4876
aVOAK-2771
p4877
aVOAK-2770
p4878
aVOAK-2769
p4879
aVOAK-2768
p4880
aVOAK-2767
p4881
aVOAK-2766
p4882
aVOAK-2765
p4883
aVOAK-2764
p4884
aVOAK-2763
p4885
aVOAK-2762
p4886
aVOAK-2761
p4887
aVOAK-2760
p4888
aVOAK-2759
p4889
aVOAK-2758
p4890
aVOAK-2757
p4891
aVOAK-2756
p4892
aVOAK-2755
p4893
aVOAK-2754
p4894
aVOAK-2753
p4895
aVOAK-2752
p4896
aVOAK-2751
p4897
aVOAK-2750
p4898
aVOAK-2749
p4899
aVOAK-2748
p4900
aVOAK-2747
p4901
aVOAK-2746
p4902
aVOAK-2745
p4903
aVOAK-2744
p4904
aVOAK-2743
p4905
aVOAK-2742
p4906
aVOAK-2741
p4907
aVOAK-2740
p4908
aVOAK-2739
p4909
aVOAK-2738
p4910
aVOAK-2737
p4911
aVOAK-2736
p4912
aVOAK-2735
p4913
aVOAK-2734
p4914
aVOAK-2733
p4915
aVOAK-2732
p4916
aVOAK-2731
p4917
aVOAK-2730
p4918
aVOAK-2729
p4919
aVOAK-2728
p4920
aVOAK-2727
p4921
aVOAK-2726
p4922
aVOAK-2725
p4923
aVOAK-2723
p4924
aVOAK-2722
p4925
aVOAK-2721
p4926
aVOAK-2720
p4927
aVOAK-2719
p4928
aVOAK-2718
p4929
aVOAK-2717
p4930
aVOAK-2716
p4931
aVOAK-2715
p4932
aVOAK-2714
p4933
aVOAK-2713
p4934
aVOAK-2712
p4935
aVOAK-2711
p4936
aVOAK-2710
p4937
aVOAK-2709
p4938
aVOAK-2708
p4939
aVOAK-2707
p4940
aVOAK-2706
p4941
aVOAK-2705
p4942
aVOAK-2704
p4943
aVOAK-2702
p4944
aVOAK-2701
p4945
aVOAK-2700
p4946
aVOAK-2699
p4947
aVOAK-2698
p4948
aVOAK-2697
p4949
aVOAK-2696
p4950
aVOAK-2695
p4951
aVOAK-2694
p4952
aVOAK-2693
p4953
aVOAK-2692
p4954
aVOAK-2691
p4955
aVOAK-2690
p4956
aVOAK-2689
p4957
aVOAK-2688
p4958
aVOAK-2687
p4959
aVOAK-2686
p4960
aVOAK-2685
p4961
aVOAK-2684
p4962
aVOAK-2683
p4963
aVOAK-2682
p4964
aVOAK-2681
p4965
aVOAK-2680
p4966
aVOAK-2679
p4967
aVOAK-2678
p4968
aVOAK-2677
p4969
aVOAK-2676
p4970
aVOAK-2675
p4971
aVOAK-2674
p4972
aVOAK-2673
p4973
aVOAK-2672
p4974
aVOAK-2671
p4975
aVOAK-2670
p4976
aVOAK-2669
p4977
aVOAK-2668
p4978
aVOAK-2667
p4979
aVOAK-2666
p4980
aVOAK-2665
p4981
aVOAK-2664
p4982
aVOAK-2663
p4983
aVOAK-2662
p4984
aVOAK-2661
p4985
aVOAK-2660
p4986
aVOAK-2659
p4987
aVOAK-2658
p4988
aVOAK-2657
p4989
aVOAK-2656
p4990
aVOAK-2655
p4991
aVOAK-2654
p4992
aVOAK-2653
p4993
aVOAK-2652
p4994
aVOAK-2651
p4995
aVOAK-2650
p4996
aVOAK-2649
p4997
aVOAK-2648
p4998
aVOAK-2647
p4999
aVOAK-2646
p5000
aVOAK-2645
p5001
aVOAK-2644
p5002
aVOAK-2643
p5003
aVOAK-2642
p5004
aVOAK-2641
p5005
aVOAK-2640
p5006
aVOAK-2639
p5007
aVOAK-2638
p5008
aVOAK-2637
p5009
aVOAK-2636
p5010
aVOAK-2635
p5011
aVOAK-2634
p5012
aVOAK-2633
p5013
aVOAK-2632
p5014
aVOAK-2631
p5015
aVOAK-2630
p5016
aVOAK-2629
p5017
aVOAK-2628
p5018
aVOAK-2627
p5019
aVOAK-2626
p5020
aVOAK-2625
p5021
aVOAK-2624
p5022
aVOAK-2623
p5023
aVOAK-2622
p5024
aVOAK-2621
p5025
aVOAK-2620
p5026
aVOAK-2619
p5027
aVOAK-2618
p5028
aVOAK-2617
p5029
aVOAK-2616
p5030
aVOAK-2615
p5031
aVOAK-2614
p5032
aVOAK-2613
p5033
aVOAK-2612
p5034
aVOAK-2611
p5035
aVOAK-2610
p5036
aVOAK-2609
p5037
aVOAK-2608
p5038
aVOAK-2607
p5039
aVOAK-2606
p5040
aVOAK-2605
p5041
aVOAK-2604
p5042
aVOAK-2603
p5043
aVOAK-2602
p5044
aVOAK-2601
p5045
aVOAK-2600
p5046
aVOAK-2599
p5047
aVOAK-2598
p5048
aVOAK-2597
p5049
aVOAK-2596
p5050
aVOAK-2595
p5051
aVOAK-2594
p5052
aVOAK-2593
p5053
aVOAK-2592
p5054
aVOAK-2591
p5055
aVOAK-2590
p5056
aVOAK-2589
p5057
aVOAK-2588
p5058
aVOAK-2587
p5059
aVOAK-2586
p5060
aVOAK-2585
p5061
aVOAK-2584
p5062
aVOAK-2583
p5063
aVOAK-2582
p5064
aVOAK-2581
p5065
aVOAK-2580
p5066
aVOAK-2579
p5067
aVOAK-2578
p5068
aVOAK-2577
p5069
aVOAK-2576
p5070
aVOAK-2575
p5071
aVOAK-2574
p5072
aVOAK-2573
p5073
aVOAK-2572
p5074
aVOAK-2571
p5075
aVOAK-2570
p5076
aVOAK-2569
p5077
aVOAK-2568
p5078
aVOAK-2567
p5079
aVOAK-2566
p5080
aVOAK-2565
p5081
aVOAK-2564
p5082
aVOAK-2563
p5083
aVOAK-2562
p5084
aVOAK-2561
p5085
aVOAK-2560
p5086
aVOAK-2559
p5087
aVOAK-2558
p5088
aVOAK-2557
p5089
aVOAK-2556
p5090
aVOAK-2555
p5091
aVOAK-2554
p5092
aVOAK-2553
p5093
aVOAK-2552
p5094
aVOAK-2551
p5095
aVOAK-2550
p5096
aVOAK-2549
p5097
aVOAK-2548
p5098
aVOAK-2547
p5099
aVOAK-2546
p5100
aVOAK-2545
p5101
aVOAK-2544
p5102
aVOAK-2543
p5103
aVOAK-2542
p5104
aVOAK-2541
p5105
aVOAK-2540
p5106
aVOAK-2539
p5107
aVOAK-2538
p5108
aVOAK-2537
p5109
aVOAK-2536
p5110
aVOAK-2535
p5111
aVOAK-2534
p5112
aVOAK-2533
p5113
aVOAK-2532
p5114
aVOAK-2531
p5115
aVOAK-2530
p5116
aVOAK-2529
p5117
aVOAK-2528
p5118
aVOAK-2527
p5119
aVOAK-2526
p5120
aVOAK-2525
p5121
aVOAK-2524
p5122
aVOAK-2523
p5123
aVOAK-2522
p5124
aVOAK-2521
p5125
aVOAK-2520
p5126
aVOAK-2519
p5127
aVOAK-2518
p5128
aVOAK-2517
p5129
aVOAK-2516
p5130
aVOAK-2515
p5131
aVOAK-2514
p5132
aVOAK-2513
p5133
aVOAK-2512
p5134
aVOAK-2511
p5135
aVOAK-2510
p5136
aVOAK-2509
p5137
aVOAK-2508
p5138
aVOAK-2507
p5139
aVOAK-2506
p5140
aVOAK-2505
p5141
aVOAK-2504
p5142
aVOAK-2503
p5143
aVOAK-2502
p5144
aVOAK-2501
p5145
aVOAK-2500
p5146
aVOAK-2499
p5147
aVOAK-2498
p5148
aVOAK-2497
p5149
aVOAK-2496
p5150
aVOAK-2495
p5151
aVOAK-2494
p5152
aVOAK-2493
p5153
aVOAK-2492
p5154
aVOAK-2491
p5155
aVOAK-2490
p5156
aVOAK-2489
p5157
aVOAK-2488
p5158
aVOAK-2487
p5159
aVOAK-2486
p5160
aVOAK-2485
p5161
aVOAK-2484
p5162
aVOAK-2483
p5163
aVOAK-2482
p5164
aVOAK-2481
p5165
aVOAK-2480
p5166
aVOAK-2479
p5167
aVOAK-2478
p5168
aVOAK-2477
p5169
aVOAK-2476
p5170
aVOAK-2475
p5171
aVOAK-2474
p5172
aVOAK-2473
p5173
aVOAK-2472
p5174
aVOAK-2471
p5175
aVOAK-2470
p5176
aVOAK-2469
p5177
aVOAK-2468
p5178
aVOAK-2467
p5179
aVOAK-2466
p5180
aVOAK-2465
p5181
aVOAK-2464
p5182
aVOAK-2463
p5183
aVOAK-2462
p5184
aVOAK-2461
p5185
aVOAK-2460
p5186
aVOAK-2459
p5187
aVOAK-2458
p5188
aVOAK-2457
p5189
aVOAK-2456
p5190
aVOAK-2455
p5191
aVOAK-2454
p5192
aVOAK-2453
p5193
aVOAK-2452
p5194
aVOAK-2451
p5195
aVOAK-2450
p5196
aVOAK-2449
p5197
aVOAK-2448
p5198
aVOAK-2447
p5199
aVOAK-2446
p5200
aVOAK-2445
p5201
aVOAK-2444
p5202
aVOAK-2443
p5203
aVOAK-2442
p5204
aVOAK-2441
p5205
aVOAK-2440
p5206
aVOAK-2439
p5207
aVOAK-2438
p5208
aVOAK-2437
p5209
aVOAK-2436
p5210
aVOAK-2435
p5211
aVOAK-2434
p5212
aVOAK-2433
p5213
aVOAK-2432
p5214
aVOAK-2431
p5215
aVOAK-2430
p5216
aVOAK-2429
p5217
aVOAK-2428
p5218
aVOAK-2427
p5219
aVOAK-2426
p5220
aVOAK-2425
p5221
aVOAK-2424
p5222
aVOAK-2423
p5223
aVOAK-2422
p5224
aVOAK-2421
p5225
aVOAK-2420
p5226
aVOAK-2419
p5227
aVOAK-2418
p5228
aVOAK-2417
p5229
aVOAK-2416
p5230
aVOAK-2415
p5231
aVOAK-2414
p5232
aVOAK-2413
p5233
aVOAK-2412
p5234
aVOAK-2411
p5235
aVOAK-2410
p5236
aVOAK-2409
p5237
aVOAK-2408
p5238
aVOAK-2407
p5239
aVOAK-2406
p5240
aVOAK-2405
p5241
aVOAK-2404
p5242
aVOAK-2403
p5243
aVOAK-2402
p5244
aVOAK-2401
p5245
aVOAK-2400
p5246
aVOAK-2399
p5247
aVOAK-2398
p5248
aVOAK-2397
p5249
aVOAK-2396
p5250
aVOAK-2395
p5251
aVOAK-2394
p5252
aVOAK-2393
p5253
aVOAK-2392
p5254
aVOAK-2391
p5255
aVOAK-2390
p5256
aVOAK-2389
p5257
aVOAK-2388
p5258
aVOAK-2387
p5259
aVOAK-2386
p5260
aVOAK-2385
p5261
aVOAK-2384
p5262
aVOAK-2383
p5263
aVOAK-2382
p5264
aVOAK-2381
p5265
aVOAK-2380
p5266
aVOAK-2379
p5267
aVOAK-2378
p5268
aVOAK-2377
p5269
aVOAK-2376
p5270
aVOAK-2375
p5271
aVOAK-2374
p5272
aVOAK-2373
p5273
aVOAK-2372
p5274
aVOAK-2371
p5275
aVOAK-2370
p5276
aVOAK-2369
p5277
aVOAK-2368
p5278
aVOAK-2367
p5279
aVOAK-2366
p5280
aVOAK-2365
p5281
aVOAK-2364
p5282
aVOAK-2363
p5283
aVOAK-2362
p5284
aVOAK-2361
p5285
aVOAK-2360
p5286
aVOAK-2359
p5287
aVOAK-2358
p5288
aVOAK-2357
p5289
aVOAK-2356
p5290
aVOAK-2355
p5291
aVOAK-2354
p5292
aVOAK-2353
p5293
aVOAK-2352
p5294
aVOAK-2351
p5295
aVOAK-2350
p5296
aVOAK-2349
p5297
aVOAK-2348
p5298
aVOAK-2347
p5299
aVOAK-2346
p5300
aVOAK-2345
p5301
aVOAK-2344
p5302
aVOAK-2343
p5303
aVOAK-2342
p5304
aVOAK-2341
p5305
aVOAK-2340
p5306
aVOAK-2339
p5307
aVOAK-2338
p5308
aVOAK-2337
p5309
aVOAK-2336
p5310
aVOAK-2335
p5311
aVOAK-2334
p5312
aVOAK-2333
p5313
aVOAK-2332
p5314
aVOAK-2331
p5315
aVOAK-2330
p5316
aVOAK-2329
p5317
aVOAK-2328
p5318
aVOAK-2327
p5319
aVOAK-2326
p5320
aVOAK-2325
p5321
aVOAK-2324
p5322
aVOAK-2323
p5323
aVOAK-2322
p5324
aVOAK-2321
p5325
aVOAK-2320
p5326
aVOAK-2319
p5327
aVOAK-2318
p5328
aVOAK-2317
p5329
aVOAK-2316
p5330
aVOAK-2315
p5331
aVOAK-2314
p5332
aVOAK-2313
p5333
aVOAK-2312
p5334
aVOAK-2311
p5335
aVOAK-2310
p5336
aVOAK-2309
p5337
aVOAK-2308
p5338
aVOAK-2307
p5339
aVOAK-2306
p5340
aVOAK-2305
p5341
aVOAK-2304
p5342
aVOAK-2303
p5343
aVOAK-2302
p5344
aVOAK-2301
p5345
aVOAK-2300
p5346
aVOAK-2299
p5347
aVOAK-2298
p5348
aVOAK-2297
p5349
aVOAK-2296
p5350
aVOAK-2295
p5351
aVOAK-2294
p5352
aVOAK-2293
p5353
aVOAK-2292
p5354
aVOAK-2291
p5355
aVOAK-2290
p5356
aVOAK-2289
p5357
aVOAK-2288
p5358
aVOAK-2287
p5359
aVOAK-2286
p5360
aVOAK-2285
p5361
aVOAK-2284
p5362
aVOAK-2283
p5363
aVOAK-2282
p5364
aVOAK-2281
p5365
aVOAK-2280
p5366
aVOAK-2279
p5367
aVOAK-2278
p5368
aVOAK-2277
p5369
aVOAK-2276
p5370
aVOAK-2275
p5371
aVOAK-2274
p5372
aVOAK-2273
p5373
aVOAK-2272
p5374
aVOAK-2271
p5375
aVOAK-2270
p5376
aVOAK-2269
p5377
aVOAK-2268
p5378
aVOAK-2267
p5379
aVOAK-2266
p5380
aVOAK-2265
p5381
aVOAK-2264
p5382
aVOAK-2263
p5383
aVOAK-2262
p5384
aVOAK-2261
p5385
aVOAK-2260
p5386
aVOAK-2259
p5387
aVOAK-2258
p5388
aVOAK-2257
p5389
aVOAK-2256
p5390
aVOAK-2255
p5391
aVOAK-2254
p5392
aVOAK-2253
p5393
aVOAK-2252
p5394
aVOAK-2251
p5395
aVOAK-2250
p5396
aVOAK-2249
p5397
aVOAK-2248
p5398
aVOAK-2247
p5399
aVOAK-2246
p5400
aVOAK-2245
p5401
aVOAK-2244
p5402
aVOAK-2243
p5403
aVOAK-2242
p5404
aVOAK-2241
p5405
aVOAK-2240
p5406
aVOAK-2239
p5407
aVOAK-2238
p5408
aVOAK-2237
p5409
aVOAK-2236
p5410
aVOAK-2235
p5411
aVOAK-2234
p5412
aVOAK-2233
p5413
aVOAK-2232
p5414
aVOAK-2231
p5415
aVOAK-2230
p5416
aVOAK-2229
p5417
aVOAK-2228
p5418
aVOAK-2227
p5419
aVOAK-2226
p5420
aVOAK-2225
p5421
aVOAK-2224
p5422
aVOAK-2223
p5423
aVOAK-2222
p5424
aVOAK-2221
p5425
aVOAK-2220
p5426
aVOAK-2219
p5427
aVOAK-2218
p5428
aVOAK-2217
p5429
aVOAK-2216
p5430
aVOAK-2215
p5431
aVOAK-2214
p5432
aVOAK-2213
p5433
aVOAK-2212
p5434
aVOAK-2211
p5435
aVOAK-2210
p5436
aVOAK-2209
p5437
aVOAK-2208
p5438
aVOAK-2207
p5439
aVOAK-2206
p5440
aVOAK-2205
p5441
aVOAK-2204
p5442
aVOAK-2203
p5443
aVOAK-2202
p5444
aVOAK-2201
p5445
aVOAK-2200
p5446
aVOAK-2199
p5447
aVOAK-2198
p5448
aVOAK-2197
p5449
aVOAK-2196
p5450
aVOAK-2195
p5451
aVOAK-2194
p5452
aVOAK-2193
p5453
aVOAK-2192
p5454
aVOAK-2191
p5455
aVOAK-2190
p5456
aVOAK-2189
p5457
aVOAK-2188
p5458
aVOAK-2187
p5459
aVOAK-2186
p5460
aVOAK-2185
p5461
aVOAK-2184
p5462
aVOAK-2183
p5463
aVOAK-2182
p5464
aVOAK-2181
p5465
aVOAK-2180
p5466
aVOAK-2179
p5467
aVOAK-2178
p5468
aVOAK-2177
p5469
aVOAK-2176
p5470
aVOAK-2175
p5471
aVOAK-2174
p5472
aVOAK-2173
p5473
aVOAK-2172
p5474
aVOAK-2171
p5475
aVOAK-2170
p5476
aVOAK-2169
p5477
aVOAK-2168
p5478
aVOAK-2167
p5479
aVOAK-2166
p5480
aVOAK-2165
p5481
aVOAK-2164
p5482
aVOAK-2163
p5483
aVOAK-2162
p5484
aVOAK-2161
p5485
aVOAK-2160
p5486
aVOAK-2159
p5487
aVOAK-2158
p5488
aVOAK-2157
p5489
aVOAK-2156
p5490
aVOAK-2155
p5491
aVOAK-2154
p5492
aVOAK-2153
p5493
aVOAK-2152
p5494
aVOAK-2151
p5495
aVOAK-2150
p5496
aVOAK-2149
p5497
aVOAK-2148
p5498
aVOAK-2147
p5499
aVOAK-2146
p5500
aVOAK-2145
p5501
aVOAK-2144
p5502
aVOAK-2143
p5503
aVOAK-2142
p5504
aVOAK-2141
p5505
aVOAK-2140
p5506
aVOAK-2139
p5507
aVOAK-2138
p5508
aVOAK-2137
p5509
aVOAK-2136
p5510
aVOAK-2135
p5511
aVOAK-2134
p5512
aVOAK-2133
p5513
aVOAK-2132
p5514
aVOAK-2131
p5515
aVOAK-2130
p5516
aVOAK-2129
p5517
aVOAK-2128
p5518
aVOAK-2127
p5519
aVOAK-2126
p5520
aVOAK-2125
p5521
aVOAK-2124
p5522
aVOAK-2123
p5523
aVOAK-2122
p5524
aVOAK-2121
p5525
aVOAK-2120
p5526
aVOAK-2119
p5527
aVOAK-2118
p5528
aVOAK-2117
p5529
aVOAK-2116
p5530
aVOAK-2115
p5531
aVOAK-2114
p5532
aVOAK-2113
p5533
aVOAK-2112
p5534
aVOAK-2111
p5535
aVOAK-2110
p5536
aVOAK-2109
p5537
aVOAK-2108
p5538
aVOAK-2107
p5539
aVOAK-2106
p5540
aVOAK-2105
p5541
aVOAK-2104
p5542
aVOAK-2103
p5543
aVOAK-2102
p5544
aVOAK-2101
p5545
aVOAK-2100
p5546
aVOAK-2099
p5547
aVOAK-2098
p5548
aVOAK-2097
p5549
aVOAK-2096
p5550
aVOAK-2095
p5551
aVOAK-2094
p5552
aVOAK-2093
p5553
aVOAK-2092
p5554
aVOAK-2091
p5555
aVOAK-2090
p5556
aVOAK-2089
p5557
aVOAK-2088
p5558
aVOAK-2087
p5559
aVOAK-2086
p5560
aVOAK-2085
p5561
aVOAK-2084
p5562
aVOAK-2083
p5563
aVOAK-2082
p5564
aVOAK-2081
p5565
aVOAK-2080
p5566
aVOAK-2079
p5567
aVOAK-2078
p5568
aVOAK-2077
p5569
aVOAK-2076
p5570
aVOAK-2075
p5571
aVOAK-2074
p5572
aVOAK-2073
p5573
aVOAK-2072
p5574
aVOAK-2071
p5575
aVOAK-2070
p5576
aVOAK-2069
p5577
aVOAK-2068
p5578
aVOAK-2067
p5579
aVOAK-2066
p5580
aVOAK-2065
p5581
aVOAK-2064
p5582
aVOAK-2063
p5583
aVOAK-2062
p5584
aVOAK-2061
p5585
aVOAK-2060
p5586
aVOAK-2059
p5587
aVOAK-2058
p5588
aVOAK-2057
p5589
aVOAK-2056
p5590
aVOAK-2055
p5591
aVOAK-2054
p5592
aVOAK-2053
p5593
aVOAK-2052
p5594
aVOAK-2051
p5595
aVOAK-2050
p5596
aVOAK-2049
p5597
aVOAK-2048
p5598
aVOAK-2047
p5599
aVOAK-2046
p5600
aVOAK-2045
p5601
aVOAK-2044
p5602
aVOAK-2043
p5603
aVOAK-2042
p5604
aVOAK-2041
p5605
aVOAK-2040
p5606
aVOAK-2039
p5607
aVOAK-2038
p5608
aVOAK-2037
p5609
aVOAK-2036
p5610
aVOAK-2035
p5611
aVOAK-2034
p5612
aVOAK-2033
p5613
aVOAK-2032
p5614
aVOAK-2031
p5615
aVOAK-2030
p5616
aVOAK-2029
p5617
aVOAK-2028
p5618
aVOAK-2027
p5619
aVOAK-2026
p5620
aVOAK-2025
p5621
aVOAK-2024
p5622
aVOAK-2023
p5623
aVOAK-2022
p5624
aVOAK-2021
p5625
aVOAK-2020
p5626
aVOAK-2019
p5627
aVOAK-2018
p5628
aVOAK-2017
p5629
aVOAK-2016
p5630
aVOAK-2015
p5631
aVOAK-2014
p5632
aVOAK-2013
p5633
aVOAK-2012
p5634
aVOAK-2011
p5635
aVOAK-2010
p5636
aVOAK-2009
p5637
aVOAK-2008
p5638
aVOAK-2007
p5639
aVOAK-2006
p5640
aVOAK-2005
p5641
aVOAK-2004
p5642
aVOAK-2003
p5643
aVOAK-2002
p5644
aVOAK-2001
p5645
aVOAK-2000
p5646
aVOAK-1999
p5647
aVOAK-1998
p5648
aVOAK-1997
p5649
aVOAK-1996
p5650
aVOAK-1995
p5651
aVOAK-1994
p5652
aVOAK-1993
p5653
aVOAK-1992
p5654
aVOAK-1991
p5655
aVOAK-1990
p5656
aVOAK-1989
p5657
aVOAK-1988
p5658
aVOAK-1987
p5659
aVOAK-1986
p5660
aVOAK-1985
p5661
aVOAK-1984
p5662
aVOAK-1983
p5663
aVOAK-1982
p5664
aVOAK-1981
p5665
aVOAK-1980
p5666
aVOAK-1979
p5667
aVOAK-1978
p5668
aVOAK-1977
p5669
aVOAK-1976
p5670
aVOAK-1975
p5671
aVOAK-1974
p5672
aVOAK-1973
p5673
aVOAK-1972
p5674
aVOAK-1971
p5675
aVOAK-1970
p5676
aVOAK-1969
p5677
aVOAK-1968
p5678
aVOAK-1967
p5679
aVOAK-1966
p5680
aVOAK-1965
p5681
aVOAK-1964
p5682
aVOAK-1963
p5683
aVOAK-1962
p5684
aVOAK-1961
p5685
aVOAK-1960
p5686
aVOAK-1959
p5687
aVOAK-1958
p5688
aVOAK-1957
p5689
aVOAK-1956
p5690
aVOAK-1955
p5691
aVOAK-1954
p5692
aVOAK-1953
p5693
aVOAK-1952
p5694
aVOAK-1951
p5695
aVOAK-1950
p5696
aVOAK-1949
p5697
aVOAK-1948
p5698
aVOAK-1947
p5699
aVOAK-1946
p5700
aVOAK-1945
p5701
aVOAK-1944
p5702
aVOAK-1943
p5703
aVOAK-1942
p5704
aVOAK-1941
p5705
aVOAK-1940
p5706
aVOAK-1939
p5707
aVOAK-1938
p5708
aVOAK-1937
p5709
aVOAK-1936
p5710
aVOAK-1935
p5711
aVOAK-1934
p5712
aVOAK-1933
p5713
aVOAK-1932
p5714
aVOAK-1931
p5715
aVOAK-1930
p5716
aVOAK-1929
p5717
aVOAK-1928
p5718
aVOAK-1927
p5719
aVOAK-1926
p5720
aVOAK-1925
p5721
aVOAK-1924
p5722
aVOAK-1923
p5723
aVOAK-1922
p5724
aVOAK-1921
p5725
aVOAK-1920
p5726
aVOAK-1919
p5727
aVOAK-1918
p5728
aVOAK-1917
p5729
aVOAK-1916
p5730
aVOAK-1915
p5731
aVOAK-1914
p5732
aVOAK-1913
p5733
aVOAK-1912
p5734
aVOAK-1911
p5735
aVOAK-1910
p5736
aVOAK-1909
p5737
aVOAK-1908
p5738
aVOAK-1907
p5739
aVOAK-1906
p5740
aVOAK-1905
p5741
aVOAK-1904
p5742
aVOAK-1903
p5743
aVOAK-1902
p5744
aVOAK-1901
p5745
aVOAK-1900
p5746
aVOAK-1899
p5747
aVOAK-1898
p5748
aVOAK-1897
p5749
aVOAK-1896
p5750
aVOAK-1895
p5751
aVOAK-1894
p5752
aVOAK-1893
p5753
aVOAK-1892
p5754
aVOAK-1891
p5755
aVOAK-1890
p5756
aVOAK-1889
p5757
aVOAK-1888
p5758
aVOAK-1887
p5759
aVOAK-1886
p5760
aVOAK-1885
p5761
aVOAK-1884
p5762
aVOAK-1883
p5763
aVOAK-1882
p5764
aVOAK-1881
p5765
aVOAK-1880
p5766
aVOAK-1879
p5767
aVOAK-1878
p5768
aVOAK-1877
p5769
aVOAK-1876
p5770
aVOAK-1875
p5771
aVOAK-1874
p5772
aVOAK-1873
p5773
aVOAK-1872
p5774
aVOAK-1871
p5775
aVOAK-1870
p5776
aVOAK-1869
p5777
aVOAK-1868
p5778
aVOAK-1867
p5779
aVOAK-1866
p5780
aVOAK-1865
p5781
aVOAK-1864
p5782
aVOAK-1863
p5783
aVOAK-1862
p5784
aVOAK-1861
p5785
aVOAK-1860
p5786
aVOAK-1859
p5787
aVOAK-1858
p5788
aVOAK-1857
p5789
aVOAK-1856
p5790
aVOAK-1855
p5791
aVOAK-1854
p5792
aVOAK-1853
p5793
aVOAK-1852
p5794
aVOAK-1851
p5795
aVOAK-1850
p5796
aVOAK-1849
p5797
aVOAK-1848
p5798
aVOAK-1847
p5799
aVOAK-1846
p5800
aVOAK-1845
p5801
aVOAK-1844
p5802
aVOAK-1843
p5803
aVOAK-1842
p5804
aVOAK-1841
p5805
aVOAK-1840
p5806
aVOAK-1839
p5807
aVOAK-1838
p5808
aVOAK-1837
p5809
aVOAK-1836
p5810
aVOAK-1835
p5811
aVOAK-1834
p5812
aVOAK-1833
p5813
aVOAK-1832
p5814
aVOAK-1831
p5815
aVOAK-1830
p5816
aVOAK-1829
p5817
aVOAK-1828
p5818
aVOAK-1827
p5819
aVOAK-1826
p5820
aVOAK-1825
p5821
aVOAK-1824
p5822
aVOAK-1823
p5823
aVOAK-1822
p5824
aVOAK-1821
p5825
aVOAK-1820
p5826
aVOAK-1819
p5827
aVOAK-1818
p5828
aVOAK-1817
p5829
aVOAK-1816
p5830
aVOAK-1815
p5831
aVOAK-1814
p5832
aVOAK-1813
p5833
aVOAK-1812
p5834
aVOAK-1811
p5835
aVOAK-1810
p5836
aVOAK-1809
p5837
aVOAK-1808
p5838
aVOAK-1807
p5839
aVOAK-1806
p5840
aVOAK-1805
p5841
aVOAK-1804
p5842
aVOAK-1803
p5843
aVOAK-1802
p5844
aVOAK-1801
p5845
aVOAK-1800
p5846
aVOAK-1799
p5847
aVOAK-1798
p5848
aVOAK-1797
p5849
aVOAK-1796
p5850
aVOAK-1795
p5851
aVOAK-1794
p5852
aVOAK-1793
p5853
aVOAK-1792
p5854
aVOAK-1791
p5855
aVOAK-1790
p5856
aVOAK-1789
p5857
aVOAK-1788
p5858
aVOAK-1787
p5859
aVOAK-1786
p5860
aVOAK-1785
p5861
aVOAK-1784
p5862
aVOAK-1783
p5863
aVOAK-1782
p5864
aVOAK-1781
p5865
aVOAK-1780
p5866
aVOAK-1779
p5867
aVOAK-1778
p5868
aVOAK-1777
p5869
aVOAK-1776
p5870
aVOAK-1775
p5871
aVOAK-1774
p5872
aVOAK-1773
p5873
aVOAK-1772
p5874
aVOAK-1771
p5875
aVOAK-1770
p5876
aVOAK-1769
p5877
aVOAK-1768
p5878
aVOAK-1767
p5879
aVOAK-1766
p5880
aVOAK-1765
p5881
aVOAK-1764
p5882
aVOAK-1763
p5883
aVOAK-1762
p5884
aVOAK-1761
p5885
aVOAK-1760
p5886
aVOAK-1759
p5887
aVOAK-1758
p5888
aVOAK-1757
p5889
aVOAK-1756
p5890
aVOAK-1755
p5891
aVOAK-1754
p5892
aVOAK-1753
p5893
aVOAK-1752
p5894
aVOAK-1751
p5895
aVOAK-1750
p5896
aVOAK-1749
p5897
aVOAK-1748
p5898
aVOAK-1747
p5899
aVOAK-1746
p5900
aVOAK-1745
p5901
aVOAK-1744
p5902
aVOAK-1743
p5903
aVOAK-1742
p5904
aVOAK-1741
p5905
aVOAK-1740
p5906
aVOAK-1739
p5907
aVOAK-1738
p5908
aVOAK-1737
p5909
aVOAK-1736
p5910
aVOAK-1735
p5911
aVOAK-1734
p5912
aVOAK-1733
p5913
aVOAK-1732
p5914
aVOAK-1731
p5915
aVOAK-1730
p5916
aVOAK-1729
p5917
aVOAK-1728
p5918
aVOAK-1727
p5919
aVOAK-1726
p5920
aVOAK-1725
p5921
aVOAK-1724
p5922
aVOAK-1723
p5923
aVOAK-1722
p5924
aVOAK-1721
p5925
aVOAK-1720
p5926
aVOAK-1719
p5927
aVOAK-1718
p5928
aVOAK-1717
p5929
aVOAK-1716
p5930
aVOAK-1715
p5931
aVOAK-1714
p5932
aVOAK-1713
p5933
aVOAK-1712
p5934
aVOAK-1711
p5935
aVOAK-1710
p5936
aVOAK-1709
p5937
aVOAK-1708
p5938
aVOAK-1707
p5939
aVOAK-1706
p5940
aVOAK-1705
p5941
aVOAK-1704
p5942
aVOAK-1703
p5943
aVOAK-1702
p5944
aVOAK-1701
p5945
aVOAK-1700
p5946
aVOAK-1699
p5947
aVOAK-1698
p5948
aVOAK-1697
p5949
aVOAK-1696
p5950
aVOAK-1695
p5951
aVOAK-1694
p5952
aVOAK-1693
p5953
aVOAK-1692
p5954
aVOAK-1691
p5955
aVOAK-1690
p5956
aVOAK-1689
p5957
aVOAK-1688
p5958
aVOAK-1687
p5959
aVOAK-1686
p5960
aVOAK-1685
p5961
aVOAK-1684
p5962
aVOAK-1683
p5963
aVOAK-1682
p5964
aVOAK-1681
p5965
aVOAK-1680
p5966
aVOAK-1679
p5967
aVOAK-1678
p5968
aVOAK-1677
p5969
aVOAK-1676
p5970
aVOAK-1675
p5971
aVOAK-1674
p5972
aVOAK-1673
p5973
aVOAK-1672
p5974
aVOAK-1671
p5975
aVOAK-1670
p5976
aVOAK-1669
p5977
aVOAK-1668
p5978
aVOAK-1667
p5979
aVOAK-1666
p5980
aVOAK-1665
p5981
aVOAK-1664
p5982
aVOAK-1663
p5983
aVOAK-1662
p5984
aVOAK-1661
p5985
aVOAK-1660
p5986
aVOAK-1659
p5987
aVOAK-1658
p5988
aVOAK-1657
p5989
aVOAK-1656
p5990
aVOAK-1655
p5991
aVOAK-1654
p5992
aVOAK-1653
p5993
aVOAK-1652
p5994
aVOAK-1651
p5995
aVOAK-1650
p5996
aVOAK-1649
p5997
aVOAK-1648
p5998
aVOAK-1647
p5999
aVOAK-1646
p6000
aVOAK-1645
p6001
aVOAK-1644
p6002
aVOAK-1643
p6003
aVOAK-1642
p6004
aVOAK-1641
p6005
aVOAK-1640
p6006
aVOAK-1639
p6007
aVOAK-1638
p6008
aVOAK-1637
p6009
aVOAK-1636
p6010
aVOAK-1635
p6011
aVOAK-1634
p6012
aVOAK-1633
p6013
aVOAK-1632
p6014
aVOAK-1631
p6015
aVOAK-1630
p6016
aVOAK-1629
p6017
aVOAK-1628
p6018
aVOAK-1627
p6019
aVOAK-1626
p6020
aVOAK-1625
p6021
aVOAK-1624
p6022
aVOAK-1623
p6023
aVOAK-1622
p6024
aVOAK-1621
p6025
aVOAK-1620
p6026
aVOAK-1619
p6027
aVOAK-1618
p6028
aVOAK-1617
p6029
aVOAK-1616
p6030
aVOAK-1615
p6031
aVOAK-1614
p6032
aVOAK-1613
p6033
aVOAK-1612
p6034
aVOAK-1611
p6035
aVOAK-1610
p6036
aVOAK-1609
p6037
aVOAK-1608
p6038
aVOAK-1607
p6039
aVOAK-1606
p6040
aVOAK-1605
p6041
aVOAK-1604
p6042
aVOAK-1603
p6043
aVOAK-1602
p6044
aVOAK-1601
p6045
aVOAK-1600
p6046
aVOAK-1599
p6047
aVOAK-1598
p6048
aVOAK-1597
p6049
aVOAK-1596
p6050
aVOAK-1595
p6051
aVOAK-1594
p6052
aVOAK-1593
p6053
aVOAK-1592
p6054
aVOAK-1591
p6055
aVOAK-1590
p6056
aVOAK-1589
p6057
aVOAK-1588
p6058
aVOAK-1587
p6059
aVOAK-1586
p6060
aVOAK-1585
p6061
aVOAK-1584
p6062
aVOAK-1583
p6063
aVOAK-1582
p6064
aVOAK-1581
p6065
aVOAK-1580
p6066
aVOAK-1579
p6067
aVOAK-1578
p6068
aVOAK-1577
p6069
aVOAK-1576
p6070
aVOAK-1575
p6071
aVOAK-1574
p6072
aVOAK-1573
p6073
aVOAK-1572
p6074
aVOAK-1571
p6075
aVOAK-1570
p6076
aVOAK-1569
p6077
aVOAK-1568
p6078
aVOAK-1567
p6079
aVOAK-1566
p6080
aVOAK-1565
p6081
aVOAK-1564
p6082
aVOAK-1563
p6083
aVOAK-1562
p6084
aVOAK-1561
p6085
aVOAK-1560
p6086
aVOAK-1559
p6087
aVOAK-1558
p6088
aVOAK-1557
p6089
aVOAK-1556
p6090
aVOAK-1555
p6091
aVOAK-1554
p6092
aVOAK-1553
p6093
aVOAK-1552
p6094
aVOAK-1551
p6095
aVOAK-1550
p6096
aVOAK-1549
p6097
aVOAK-1548
p6098
aVOAK-1547
p6099
aVOAK-1546
p6100
aVOAK-1545
p6101
aVOAK-1544
p6102
aVOAK-1543
p6103
aVOAK-1541
p6104
aVOAK-1540
p6105
aVOAK-1539
p6106
aVOAK-1538
p6107
aVOAK-1537
p6108
aVOAK-1536
p6109
aVOAK-1535
p6110
aVOAK-1534
p6111
aVOAK-1533
p6112
aVOAK-1532
p6113
aVOAK-1531
p6114
aVOAK-1530
p6115
aVOAK-1529
p6116
aVOAK-1528
p6117
aVOAK-1527
p6118
aVOAK-1526
p6119
aVOAK-1525
p6120
aVOAK-1524
p6121
aVOAK-1523
p6122
aVOAK-1522
p6123
aVOAK-1521
p6124
aVOAK-1520
p6125
aVOAK-1519
p6126
aVOAK-1518
p6127
aVOAK-1517
p6128
aVOAK-1516
p6129
aVOAK-1515
p6130
aVOAK-1514
p6131
aVOAK-1513
p6132
aVOAK-1512
p6133
aVOAK-1511
p6134
aVOAK-1510
p6135
aVOAK-1509
p6136
aVOAK-1508
p6137
aVOAK-1507
p6138
aVOAK-1506
p6139
aVOAK-1505
p6140
aVOAK-1504
p6141
aVOAK-1503
p6142
aVOAK-1502
p6143
aVOAK-1501
p6144
aVOAK-1500
p6145
aVOAK-1499
p6146
aVOAK-1498
p6147
aVOAK-1497
p6148
aVOAK-1496
p6149
aVOAK-1495
p6150
aVOAK-1494
p6151
aVOAK-1493
p6152
aVOAK-1492
p6153
aVOAK-1491
p6154
aVOAK-1490
p6155
aVOAK-1489
p6156
aVOAK-1488
p6157
aVOAK-1487
p6158
aVOAK-1486
p6159
aVOAK-1485
p6160
aVOAK-1484
p6161
aVOAK-1483
p6162
aVOAK-1482
p6163
aVOAK-1481
p6164
aVOAK-1480
p6165
aVOAK-1479
p6166
aVOAK-1478
p6167
aVOAK-1477
p6168
aVOAK-1476
p6169
aVOAK-1475
p6170
aVOAK-1474
p6171
aVOAK-1473
p6172
aVOAK-1472
p6173
aVOAK-1471
p6174
aVOAK-1470
p6175
aVOAK-1469
p6176
aVOAK-1468
p6177
aVOAK-1467
p6178
aVOAK-1466
p6179
aVOAK-1465
p6180
aVOAK-1464
p6181
aVOAK-1463
p6182
aVOAK-1462
p6183
aVOAK-1461
p6184
aVOAK-1460
p6185
aVOAK-1459
p6186
aVOAK-1458
p6187
aVOAK-1457
p6188
aVOAK-1456
p6189
aVOAK-1455
p6190
aVOAK-1454
p6191
aVOAK-1453
p6192
aVOAK-1452
p6193
aVOAK-1451
p6194
aVOAK-1450
p6195
aVOAK-1449
p6196
aVOAK-1448
p6197
aVOAK-1447
p6198
aVOAK-1446
p6199
aVOAK-1445
p6200
aVOAK-1444
p6201
aVOAK-1443
p6202
aVOAK-1442
p6203
aVOAK-1441
p6204
aVOAK-1440
p6205
aVOAK-1439
p6206
aVOAK-1438
p6207
aVOAK-1437
p6208
aVOAK-1436
p6209
aVOAK-1435
p6210
aVOAK-1434
p6211
aVOAK-1433
p6212
aVOAK-1432
p6213
aVOAK-1431
p6214
aVOAK-1430
p6215
aVOAK-1429
p6216
aVOAK-1428
p6217
aVOAK-1427
p6218
aVOAK-1426
p6219
aVOAK-1425
p6220
aVOAK-1424
p6221
aVOAK-1423
p6222
aVOAK-1422
p6223
aVOAK-1421
p6224
aVOAK-1420
p6225
aVOAK-1419
p6226
aVOAK-1418
p6227
aVOAK-1417
p6228
aVOAK-1416
p6229
aVOAK-1415
p6230
aVOAK-1414
p6231
aVOAK-1413
p6232
aVOAK-1412
p6233
aVOAK-1411
p6234
aVOAK-1410
p6235
aVOAK-1409
p6236
aVOAK-1408
p6237
aVOAK-1407
p6238
aVOAK-1406
p6239
aVOAK-1405
p6240
aVOAK-1404
p6241
aVOAK-1403
p6242
aVOAK-1402
p6243
aVOAK-1401
p6244
aVOAK-1400
p6245
aVOAK-1399
p6246
aVOAK-1398
p6247
aVOAK-1397
p6248
aVOAK-1396
p6249
aVOAK-1395
p6250
aVOAK-1394
p6251
aVOAK-1393
p6252
aVOAK-1392
p6253
aVOAK-1391
p6254
aVOAK-1390
p6255
aVOAK-1389
p6256
aVOAK-1388
p6257
aVOAK-1387
p6258
aVOAK-1386
p6259
aVOAK-1385
p6260
aVOAK-1384
p6261
aVOAK-1383
p6262
aVOAK-1382
p6263
aVOAK-1381
p6264
aVOAK-1380
p6265
aVOAK-1379
p6266
aVOAK-1378
p6267
aVOAK-1377
p6268
aVOAK-1376
p6269
aVOAK-1375
p6270
aVOAK-1374
p6271
aVOAK-1373
p6272
aVOAK-1372
p6273
aVOAK-1371
p6274
aVOAK-1370
p6275
aVOAK-1369
p6276
aVOAK-1368
p6277
aVOAK-1367
p6278
aVOAK-1366
p6279
aVOAK-1365
p6280
aVOAK-1364
p6281
aVOAK-1363
p6282
aVOAK-1362
p6283
aVOAK-1361
p6284
aVOAK-1360
p6285
aVOAK-1359
p6286
aVOAK-1358
p6287
aVOAK-1357
p6288
aVOAK-1356
p6289
aVOAK-1355
p6290
aVOAK-1354
p6291
aVOAK-1353
p6292
aVOAK-1352
p6293
aVOAK-1351
p6294
aVOAK-1350
p6295
aVOAK-1349
p6296
aVOAK-1348
p6297
aVOAK-1347
p6298
aVOAK-1346
p6299
aVOAK-1345
p6300
aVOAK-1344
p6301
aVOAK-1343
p6302
aVOAK-1342
p6303
aVOAK-1341
p6304
aVOAK-1340
p6305
aVOAK-1339
p6306
aVOAK-1338
p6307
aVOAK-1337
p6308
aVOAK-1336
p6309
aVOAK-1335
p6310
aVOAK-1334
p6311
aVOAK-1333
p6312
aVOAK-1332
p6313
aVOAK-1331
p6314
aVOAK-1330
p6315
aVOAK-1329
p6316
aVOAK-1328
p6317
aVOAK-1327
p6318
aVOAK-1326
p6319
aVOAK-1325
p6320
aVOAK-1324
p6321
aVOAK-1323
p6322
aVOAK-1322
p6323
aVOAK-1321
p6324
aVOAK-1320
p6325
aVOAK-1319
p6326
aVOAK-1318
p6327
aVOAK-1317
p6328
aVOAK-1316
p6329
aVOAK-1315
p6330
aVOAK-1314
p6331
aVOAK-1313
p6332
aVOAK-1312
p6333
aVOAK-1311
p6334
aVOAK-1310
p6335
aVOAK-1309
p6336
aVOAK-1308
p6337
aVOAK-1307
p6338
aVOAK-1306
p6339
aVOAK-1305
p6340
aVOAK-1304
p6341
aVOAK-1303
p6342
aVOAK-1302
p6343
aVOAK-1301
p6344
aVOAK-1300
p6345
aVOAK-1299
p6346
aVOAK-1298
p6347
aVOAK-1297
p6348
aVOAK-1296
p6349
aVOAK-1295
p6350
aVOAK-1294
p6351
aVOAK-1293
p6352
aVOAK-1292
p6353
aVOAK-1291
p6354
aVOAK-1290
p6355
aVOAK-1289
p6356
aVOAK-1288
p6357
aVOAK-1287
p6358
aVOAK-1286
p6359
aVOAK-1285
p6360
aVOAK-1284
p6361
aVOAK-1283
p6362
aVOAK-1282
p6363
aVOAK-1281
p6364
aVOAK-1280
p6365
aVOAK-1279
p6366
aVOAK-1278
p6367
aVOAK-1277
p6368
aVOAK-1276
p6369
aVOAK-1275
p6370
aVOAK-1274
p6371
aVOAK-1273
p6372
aVOAK-1272
p6373
aVOAK-1271
p6374
aVOAK-1270
p6375
aVOAK-1269
p6376
aVOAK-1268
p6377
aVOAK-1267
p6378
aVOAK-1266
p6379
aVOAK-1265
p6380
aVOAK-1264
p6381
aVOAK-1263
p6382
aVOAK-1262
p6383
aVOAK-1261
p6384
aVOAK-1260
p6385
aVOAK-1259
p6386
aVOAK-1258
p6387
aVOAK-1257
p6388
aVOAK-1256
p6389
aVOAK-1255
p6390
aVOAK-1254
p6391
aVOAK-1253
p6392
aVOAK-1252
p6393
aVOAK-1251
p6394
aVOAK-1250
p6395
aVOAK-1249
p6396
aVOAK-1248
p6397
aVOAK-1247
p6398
aVOAK-1246
p6399
aVOAK-1245
p6400
aVOAK-1244
p6401
aVOAK-1243
p6402
aVOAK-1242
p6403
aVOAK-1241
p6404
aVOAK-1240
p6405
aVOAK-1239
p6406
aVOAK-1238
p6407
aVOAK-1237
p6408
aVOAK-1236
p6409
aVOAK-1235
p6410
aVOAK-1234
p6411
aVOAK-1233
p6412
aVOAK-1232
p6413
aVOAK-1231
p6414
aVOAK-1230
p6415
aVOAK-1229
p6416
aVOAK-1228
p6417
aVOAK-1227
p6418
aVOAK-1226
p6419
aVOAK-1225
p6420
aVOAK-1224
p6421
aVOAK-1223
p6422
aVOAK-1222
p6423
aVOAK-1221
p6424
aVOAK-1220
p6425
aVOAK-1219
p6426
aVOAK-1218
p6427
aVOAK-1217
p6428
aVOAK-1216
p6429
aVOAK-1215
p6430
aVOAK-1214
p6431
aVOAK-1213
p6432
aVOAK-1212
p6433
aVOAK-1211
p6434
aVOAK-1210
p6435
aVOAK-1209
p6436
aVOAK-1208
p6437
aVOAK-1207
p6438
aVOAK-1206
p6439
aVOAK-1205
p6440
aVOAK-1204
p6441
aVOAK-1203
p6442
aVOAK-1202
p6443
aVOAK-1201
p6444
aVOAK-1200
p6445
aVOAK-1199
p6446
aVOAK-1198
p6447
aVOAK-1197
p6448
aVOAK-1196
p6449
aVOAK-1195
p6450
aVOAK-1194
p6451
aVOAK-1193
p6452
aVOAK-1192
p6453
aVOAK-1191
p6454
aVOAK-1190
p6455
aVOAK-1189
p6456
aVOAK-1188
p6457
aVOAK-1187
p6458
aVOAK-1186
p6459
aVOAK-1185
p6460
aVOAK-1184
p6461
aVOAK-1183
p6462
aVOAK-1182
p6463
aVOAK-1181
p6464
aVOAK-1180
p6465
aVOAK-1179
p6466
aVOAK-1178
p6467
aVOAK-1177
p6468
aVOAK-1176
p6469
aVOAK-1175
p6470
aVOAK-1174
p6471
aVOAK-1173
p6472
aVOAK-1172
p6473
aVOAK-1171
p6474
aVOAK-1170
p6475
aVOAK-1169
p6476
aVOAK-1168
p6477
aVOAK-1167
p6478
aVOAK-1166
p6479
aVOAK-1165
p6480
aVOAK-1164
p6481
aVOAK-1163
p6482
aVOAK-1162
p6483
aVOAK-1161
p6484
aVOAK-1160
p6485
aVOAK-1159
p6486
aVOAK-1158
p6487
aVOAK-1157
p6488
aVOAK-1156
p6489
aVOAK-1155
p6490
aVOAK-1154
p6491
aVOAK-1153
p6492
aVOAK-1152
p6493
aVOAK-1151
p6494
aVOAK-1150
p6495
aVOAK-1149
p6496
aVOAK-1148
p6497
aVOAK-1147
p6498
aVOAK-1146
p6499
aVOAK-1145
p6500
aVOAK-1144
p6501
aVOAK-1143
p6502
aVOAK-1142
p6503
aVOAK-1141
p6504
aVOAK-1140
p6505
aVOAK-1139
p6506
aVOAK-1138
p6507
aVOAK-1137
p6508
aVOAK-1136
p6509
aVOAK-1135
p6510
aVOAK-1134
p6511
aVOAK-1133
p6512
aVOAK-1132
p6513
aVOAK-1131
p6514
aVOAK-1130
p6515
aVOAK-1129
p6516
aVOAK-1128
p6517
aVOAK-1127
p6518
aVOAK-1126
p6519
aVOAK-1125
p6520
aVOAK-1124
p6521
aVOAK-1123
p6522
aVOAK-1122
p6523
aVOAK-1121
p6524
aVOAK-1120
p6525
aVOAK-1119
p6526
aVOAK-1118
p6527
aVOAK-1117
p6528
aVOAK-1116
p6529
aVOAK-1115
p6530
aVOAK-1114
p6531
aVOAK-1113
p6532
aVOAK-1112
p6533
aVOAK-1111
p6534
aVOAK-1110
p6535
aVOAK-1109
p6536
aVOAK-1108
p6537
aVOAK-1107
p6538
aVOAK-1106
p6539
aVOAK-1105
p6540
aVOAK-1104
p6541
aVOAK-1103
p6542
aVOAK-1102
p6543
aVOAK-1101
p6544
aVOAK-1100
p6545
aVOAK-1099
p6546
aVOAK-1098
p6547
aVOAK-1097
p6548
aVOAK-1096
p6549
aVOAK-1095
p6550
aVOAK-1094
p6551
aVOAK-1093
p6552
aVOAK-1092
p6553
aVOAK-1091
p6554
aVOAK-1090
p6555
aVOAK-1089
p6556
aVOAK-1088
p6557
aVOAK-1087
p6558
aVOAK-1086
p6559
aVOAK-1085
p6560
aVOAK-1084
p6561
aVOAK-1083
p6562
aVOAK-1082
p6563
aVOAK-1081
p6564
aVOAK-1080
p6565
aVOAK-1079
p6566
aVOAK-1078
p6567
aVOAK-1077
p6568
aVOAK-1076
p6569
aVOAK-1075
p6570
aVOAK-1074
p6571
aVOAK-1073
p6572
aVOAK-1072
p6573
aVOAK-1071
p6574
aVOAK-1067
p6575
aVOAK-1066
p6576
aVOAK-1064
p6577
aVOAK-1063
p6578
aVOAK-1062
p6579
aVOAK-1061
p6580
aVOAK-1060
p6581
aVOAK-1059
p6582
aVOAK-1058
p6583
aVOAK-1057
p6584
aVOAK-1056
p6585
aVOAK-1055
p6586
aVOAK-1054
p6587
aVOAK-1053
p6588
aVOAK-1052
p6589
aVOAK-1051
p6590
aVOAK-1050
p6591
aVOAK-1049
p6592
aVOAK-1048
p6593
aVOAK-1047
p6594
aVOAK-1046
p6595
aVOAK-1045
p6596
aVOAK-1044
p6597
aVOAK-1043
p6598
aVOAK-1042
p6599
aVOAK-1041
p6600
aVOAK-1040
p6601
aVOAK-1039
p6602
aVOAK-1038
p6603
aVOAK-1037
p6604
aVOAK-1036
p6605
aVOAK-1035
p6606
aVOAK-1034
p6607
aVOAK-1033
p6608
aVOAK-1032
p6609
aVOAK-1031
p6610
aVOAK-1030
p6611
aVOAK-1029
p6612
aVOAK-1028
p6613
aVOAK-1027
p6614
aVOAK-1026
p6615
aVOAK-1025
p6616
aVOAK-1024
p6617
aVOAK-1023
p6618
aVOAK-1022
p6619
aVOAK-1021
p6620
aVOAK-1020
p6621
aVOAK-1019
p6622
aVOAK-1018
p6623
aVOAK-1017
p6624
aVOAK-1016
p6625
aVOAK-1015
p6626
aVOAK-1014
p6627
aVOAK-1013
p6628
aVOAK-1012
p6629
aVOAK-1011
p6630
aVOAK-1010
p6631
aVOAK-1009
p6632
aVOAK-1008
p6633
aVOAK-1007
p6634
aVOAK-1006
p6635
aVOAK-1005
p6636
aVOAK-1004
p6637
aVOAK-1003
p6638
aVOAK-1002
p6639
aVOAK-1001
p6640
aVOAK-1000
p6641
aVOAK-999
p6642
aVOAK-998
p6643
aVOAK-997
p6644
aVOAK-996
p6645
aVOAK-995
p6646
aVOAK-994
p6647
aVOAK-993
p6648
aVOAK-992
p6649
aVOAK-991
p6650
aVOAK-990
p6651
aVOAK-989
p6652
aVOAK-988
p6653
aVOAK-987
p6654
aVOAK-986
p6655
aVOAK-985
p6656
aVOAK-984
p6657
aVOAK-983
p6658
aVOAK-982
p6659
aVOAK-981
p6660
aVOAK-980
p6661
aVOAK-979
p6662
aVOAK-978
p6663
aVOAK-977
p6664
aVOAK-976
p6665
aVOAK-975
p6666
aVOAK-974
p6667
aVOAK-972
p6668
aVOAK-971
p6669
aVOAK-970
p6670
aVOAK-969
p6671
aVOAK-968
p6672
aVOAK-967
p6673
aVOAK-966
p6674
aVOAK-965
p6675
aVOAK-964
p6676
aVOAK-963
p6677
aVOAK-962
p6678
aVOAK-961
p6679
aVOAK-960
p6680
aVOAK-959
p6681
aVOAK-958
p6682
aVOAK-957
p6683
aVOAK-956
p6684
aVOAK-955
p6685
aVOAK-954
p6686
aVOAK-953
p6687
aVOAK-952
p6688
aVOAK-951
p6689
aVOAK-950
p6690
aVOAK-949
p6691
aVOAK-948
p6692
aVOAK-947
p6693
aVOAK-946
p6694
aVOAK-945
p6695
aVOAK-944
p6696
aVOAK-943
p6697
aVOAK-942
p6698
aVOAK-941
p6699
aVOAK-940
p6700
aVOAK-939
p6701
aVOAK-938
p6702
aVOAK-937
p6703
aVOAK-936
p6704
aVOAK-935
p6705
aVOAK-934
p6706
aVOAK-933
p6707
aVOAK-932
p6708
aVOAK-931
p6709
aVOAK-930
p6710
aVOAK-929
p6711
aVOAK-928
p6712
aVOAK-927
p6713
aVOAK-926
p6714
aVOAK-925
p6715
aVOAK-924
p6716
aVOAK-923
p6717
aVOAK-922
p6718
aVOAK-921
p6719
aVOAK-920
p6720
aVOAK-919
p6721
aVOAK-918
p6722
aVOAK-917
p6723
aVOAK-916
p6724
aVOAK-915
p6725
aVOAK-914
p6726
aVOAK-913
p6727
aVOAK-912
p6728
aVOAK-911
p6729
aVOAK-910
p6730
aVOAK-909
p6731
aVOAK-908
p6732
aVOAK-907
p6733
aVOAK-906
p6734
aVOAK-905
p6735
aVOAK-904
p6736
aVOAK-903
p6737
aVOAK-902
p6738
aVOAK-901
p6739
aVOAK-900
p6740
aVOAK-899
p6741
aVOAK-898
p6742
aVOAK-897
p6743
aVOAK-896
p6744
aVOAK-895
p6745
aVOAK-894
p6746
aVOAK-893
p6747
aVOAK-892
p6748
aVOAK-891
p6749
aVOAK-890
p6750
aVOAK-889
p6751
aVOAK-888
p6752
aVOAK-887
p6753
aVOAK-886
p6754
aVOAK-885
p6755
aVOAK-884
p6756
aVOAK-883
p6757
aVOAK-882
p6758
aVOAK-881
p6759
aVOAK-880
p6760
aVOAK-879
p6761
aVOAK-878
p6762
aVOAK-877
p6763
aVOAK-876
p6764
aVOAK-875
p6765
aVOAK-874
p6766
aVOAK-873
p6767
aVOAK-872
p6768
aVOAK-871
p6769
aVOAK-870
p6770
aVOAK-869
p6771
aVOAK-868
p6772
aVOAK-867
p6773
aVOAK-866
p6774
aVOAK-865
p6775
aVOAK-864
p6776
aVOAK-863
p6777
aVOAK-862
p6778
aVOAK-861
p6779
aVOAK-860
p6780
aVOAK-859
p6781
aVOAK-858
p6782
aVOAK-857
p6783
aVOAK-856
p6784
aVOAK-855
p6785
aVOAK-854
p6786
aVOAK-853
p6787
aVOAK-852
p6788
aVOAK-851
p6789
aVOAK-850
p6790
aVOAK-849
p6791
aVOAK-848
p6792
aVOAK-847
p6793
aVOAK-846
p6794
aVOAK-845
p6795
aVOAK-844
p6796
aVOAK-843
p6797
aVOAK-842
p6798
aVOAK-841
p6799
aVOAK-840
p6800
aVOAK-839
p6801
aVOAK-838
p6802
aVOAK-837
p6803
aVOAK-836
p6804
aVOAK-835
p6805
aVOAK-834
p6806
aVOAK-833
p6807
aVOAK-832
p6808
aVOAK-831
p6809
aVOAK-830
p6810
aVOAK-829
p6811
aVOAK-828
p6812
aVOAK-827
p6813
aVOAK-826
p6814
aVOAK-825
p6815
aVOAK-824
p6816
aVOAK-823
p6817
aVOAK-822
p6818
aVOAK-821
p6819
aVOAK-820
p6820
aVOAK-819
p6821
aVOAK-818
p6822
aVOAK-817
p6823
aVOAK-816
p6824
aVOAK-815
p6825
aVOAK-814
p6826
aVOAK-813
p6827
aVOAK-812
p6828
aVOAK-811
p6829
aVOAK-810
p6830
aVOAK-809
p6831
aVOAK-808
p6832
aVOAK-807
p6833
aVOAK-806
p6834
aVOAK-805
p6835
aVOAK-804
p6836
aVOAK-803
p6837
aVOAK-802
p6838
aVOAK-801
p6839
aVOAK-800
p6840
aVOAK-799
p6841
aVOAK-798
p6842
aVOAK-797
p6843
aVOAK-796
p6844
aVOAK-795
p6845
aVOAK-794
p6846
aVOAK-793
p6847
aVOAK-792
p6848
aVOAK-791
p6849
aVOAK-790
p6850
aVOAK-789
p6851
aVOAK-788
p6852
aVOAK-787
p6853
aVOAK-786
p6854
aVOAK-785
p6855
aVOAK-784
p6856
aVOAK-783
p6857
aVOAK-782
p6858
aVOAK-781
p6859
aVOAK-780
p6860
aVOAK-779
p6861
aVOAK-778
p6862
aVOAK-777
p6863
aVOAK-776
p6864
aVOAK-775
p6865
aVOAK-774
p6866
aVOAK-773
p6867
aVOAK-772
p6868
aVOAK-771
p6869
aVOAK-770
p6870
aVOAK-769
p6871
aVOAK-768
p6872
aVOAK-767
p6873
aVOAK-766
p6874
aVOAK-765
p6875
aVOAK-764
p6876
aVOAK-763
p6877
aVOAK-762
p6878
aVOAK-761
p6879
aVOAK-760
p6880
aVOAK-759
p6881
aVOAK-758
p6882
aVOAK-757
p6883
aVOAK-756
p6884
aVOAK-755
p6885
aVOAK-754
p6886
aVOAK-753
p6887
aVOAK-752
p6888
aVOAK-751
p6889
aVOAK-750
p6890
aVOAK-749
p6891
aVOAK-748
p6892
aVOAK-747
p6893
aVOAK-746
p6894
aVOAK-745
p6895
aVOAK-744
p6896
aVOAK-743
p6897
aVOAK-742
p6898
aVOAK-741
p6899
aVOAK-740
p6900
aVOAK-739
p6901
aVOAK-738
p6902
aVOAK-737
p6903
aVOAK-736
p6904
aVOAK-735
p6905
aVOAK-734
p6906
aVOAK-733
p6907
aVOAK-732
p6908
aVOAK-731
p6909
aVOAK-730
p6910
aVOAK-729
p6911
aVOAK-728
p6912
aVOAK-727
p6913
aVOAK-726
p6914
aVOAK-725
p6915
aVOAK-724
p6916
aVOAK-723
p6917
aVOAK-722
p6918
aVOAK-721
p6919
aVOAK-720
p6920
aVOAK-719
p6921
aVOAK-718
p6922
aVOAK-717
p6923
aVOAK-716
p6924
aVOAK-715
p6925
aVOAK-714
p6926
aVOAK-713
p6927
aVOAK-712
p6928
aVOAK-711
p6929
aVOAK-710
p6930
aVOAK-709
p6931
aVOAK-708
p6932
aVOAK-707
p6933
aVOAK-706
p6934
aVOAK-705
p6935
aVOAK-704
p6936
aVOAK-703
p6937
aVOAK-702
p6938
aVOAK-701
p6939
aVOAK-700
p6940
aVOAK-699
p6941
aVOAK-698
p6942
aVOAK-697
p6943
aVOAK-696
p6944
aVOAK-695
p6945
aVOAK-694
p6946
aVOAK-693
p6947
aVOAK-692
p6948
aVOAK-691
p6949
aVOAK-690
p6950
aVOAK-689
p6951
aVOAK-688
p6952
aVOAK-687
p6953
aVOAK-686
p6954
aVOAK-685
p6955
aVOAK-684
p6956
aVOAK-683
p6957
aVOAK-682
p6958
aVOAK-681
p6959
aVOAK-680
p6960
aVOAK-679
p6961
aVOAK-678
p6962
aVOAK-677
p6963
aVOAK-676
p6964
aVOAK-675
p6965
aVOAK-674
p6966
aVOAK-673
p6967
aVOAK-672
p6968
aVOAK-671
p6969
aVOAK-670
p6970
aVOAK-669
p6971
aVOAK-668
p6972
aVOAK-667
p6973
aVOAK-666
p6974
aVOAK-665
p6975
aVOAK-664
p6976
aVOAK-663
p6977
aVOAK-662
p6978
aVOAK-661
p6979
aVOAK-660
p6980
aVOAK-659
p6981
aVOAK-658
p6982
aVOAK-657
p6983
aVOAK-656
p6984
aVOAK-655
p6985
aVOAK-654
p6986
aVOAK-653
p6987
aVOAK-652
p6988
aVOAK-651
p6989
aVOAK-650
p6990
aVOAK-649
p6991
aVOAK-648
p6992
aVOAK-647
p6993
aVOAK-646
p6994
aVOAK-645
p6995
aVOAK-644
p6996
aVOAK-643
p6997
aVOAK-642
p6998
aVOAK-641
p6999
aVOAK-640
p7000
aVOAK-639
p7001
aVOAK-638
p7002
aVOAK-637
p7003
aVOAK-636
p7004
aVOAK-635
p7005
aVOAK-634
p7006
aVOAK-633
p7007
aVOAK-632
p7008
aVOAK-631
p7009
aVOAK-630
p7010
aVOAK-629
p7011
aVOAK-628
p7012
aVOAK-627
p7013
aVOAK-626
p7014
aVOAK-625
p7015
aVOAK-624
p7016
aVOAK-623
p7017
aVOAK-622
p7018
aVOAK-621
p7019
aVOAK-620
p7020
aVOAK-619
p7021
aVOAK-618
p7022
aVOAK-617
p7023
aVOAK-616
p7024
aVOAK-615
p7025
aVOAK-614
p7026
aVOAK-613
p7027
aVOAK-612
p7028
aVOAK-611
p7029
aVOAK-610
p7030
aVOAK-609
p7031
aVOAK-608
p7032
aVOAK-607
p7033
aVOAK-606
p7034
aVOAK-605
p7035
aVOAK-604
p7036
aVOAK-603
p7037
aVOAK-602
p7038
aVOAK-601
p7039
aVOAK-600
p7040
aVOAK-599
p7041
aVOAK-598
p7042
aVOAK-597
p7043
aVOAK-596
p7044
aVOAK-595
p7045
aVOAK-594
p7046
aVOAK-593
p7047
aVOAK-592
p7048
aVOAK-591
p7049
aVOAK-590
p7050
aVOAK-589
p7051
aVOAK-588
p7052
aVOAK-587
p7053
aVOAK-586
p7054
aVOAK-585
p7055
aVOAK-584
p7056
aVOAK-583
p7057
aVOAK-582
p7058
aVOAK-581
p7059
aVOAK-580
p7060
aVOAK-579
p7061
aVOAK-578
p7062
aVOAK-577
p7063
aVOAK-576
p7064
aVOAK-575
p7065
aVOAK-574
p7066
aVOAK-573
p7067
aVOAK-572
p7068
aVOAK-571
p7069
aVOAK-570
p7070
aVOAK-569
p7071
aVOAK-568
p7072
aVOAK-567
p7073
aVOAK-566
p7074
aVOAK-565
p7075
aVOAK-564
p7076
aVOAK-563
p7077
aVOAK-562
p7078
aVOAK-561
p7079
aVOAK-560
p7080
aVOAK-559
p7081
aVOAK-558
p7082
aVOAK-557
p7083
aVOAK-556
p7084
aVOAK-555
p7085
aVOAK-554
p7086
aVOAK-553
p7087
aVOAK-552
p7088
aVOAK-551
p7089
aVOAK-550
p7090
aVOAK-549
p7091
aVOAK-548
p7092
aVOAK-547
p7093
aVOAK-546
p7094
aVOAK-545
p7095
aVOAK-544
p7096
aVOAK-543
p7097
aVOAK-542
p7098
aVOAK-541
p7099
aVOAK-540
p7100
aVOAK-539
p7101
aVOAK-538
p7102
aVOAK-537
p7103
aVOAK-536
p7104
aVOAK-535
p7105
aVOAK-534
p7106
aVOAK-533
p7107
aVOAK-532
p7108
aVOAK-531
p7109
aVOAK-530
p7110
aVOAK-529
p7111
aVOAK-528
p7112
aVOAK-527
p7113
aVOAK-526
p7114
aVOAK-525
p7115
aVOAK-524
p7116
aVOAK-523
p7117
aVOAK-522
p7118
aVOAK-521
p7119
aVOAK-520
p7120
aVOAK-519
p7121
aVOAK-518
p7122
aVOAK-517
p7123
aVOAK-516
p7124
aVOAK-515
p7125
aVOAK-514
p7126
aVOAK-513
p7127
aVOAK-512
p7128
aVOAK-511
p7129
aVOAK-510
p7130
aVOAK-509
p7131
aVOAK-508
p7132
aVOAK-507
p7133
aVOAK-506
p7134
aVOAK-505
p7135
aVOAK-504
p7136
aVOAK-503
p7137
aVOAK-502
p7138
aVOAK-501
p7139
aVOAK-500
p7140
aVOAK-499
p7141
aVOAK-498
p7142
aVOAK-497
p7143
aVOAK-496
p7144
aVOAK-495
p7145
aVOAK-494
p7146
aVOAK-493
p7147
aVOAK-492
p7148
aVOAK-491
p7149
aVOAK-490
p7150
aVOAK-489
p7151
aVOAK-488
p7152
aVOAK-487
p7153
aVOAK-486
p7154
aVOAK-485
p7155
aVOAK-484
p7156
aVOAK-483
p7157
aVOAK-482
p7158
aVOAK-481
p7159
aVOAK-480
p7160
aVOAK-479
p7161
aVOAK-478
p7162
aVOAK-477
p7163
aVOAK-476
p7164
aVOAK-475
p7165
aVOAK-474
p7166
aVOAK-473
p7167
aVOAK-472
p7168
aVOAK-471
p7169
aVOAK-470
p7170
aVOAK-469
p7171
aVOAK-468
p7172
aVOAK-467
p7173
aVOAK-466
p7174
aVOAK-465
p7175
aVOAK-464
p7176
aVOAK-463
p7177
aVOAK-462
p7178
aVOAK-461
p7179
aVOAK-460
p7180
aVOAK-459
p7181
aVOAK-458
p7182
aVOAK-457
p7183
aVOAK-456
p7184
aVOAK-455
p7185
aVOAK-454
p7186
aVOAK-453
p7187
aVOAK-452
p7188
aVOAK-451
p7189
aVOAK-450
p7190
aVOAK-449
p7191
aVOAK-448
p7192
aVOAK-447
p7193
aVOAK-446
p7194
aVOAK-445
p7195
aVOAK-444
p7196
aVOAK-443
p7197
aVOAK-442
p7198
aVOAK-441
p7199
aVOAK-440
p7200
aVOAK-439
p7201
aVOAK-438
p7202
aVOAK-437
p7203
aVOAK-436
p7204
aVOAK-435
p7205
aVOAK-434
p7206
aVOAK-433
p7207
aVOAK-432
p7208
aVOAK-431
p7209
aVOAK-430
p7210
aVOAK-429
p7211
aVOAK-428
p7212
aVOAK-427
p7213
aVOAK-426
p7214
aVOAK-425
p7215
aVOAK-424
p7216
aVOAK-423
p7217
aVOAK-422
p7218
aVOAK-421
p7219
aVOAK-420
p7220
aVOAK-419
p7221
aVOAK-418
p7222
aVOAK-417
p7223
aVOAK-416
p7224
aVOAK-415
p7225
aVOAK-414
p7226
aVOAK-413
p7227
aVOAK-412
p7228
aVOAK-411
p7229
aVOAK-410
p7230
aVOAK-409
p7231
aVOAK-408
p7232
aVOAK-407
p7233
aVOAK-406
p7234
aVOAK-405
p7235
aVOAK-404
p7236
aVOAK-403
p7237
aVOAK-402
p7238
aVOAK-401
p7239
aVOAK-400
p7240
aVOAK-399
p7241
aVOAK-398
p7242
aVOAK-397
p7243
aVOAK-396
p7244
aVOAK-395
p7245
aVOAK-394
p7246
aVOAK-393
p7247
aVOAK-392
p7248
aVOAK-391
p7249
aVOAK-390
p7250
aVOAK-389
p7251
aVOAK-388
p7252
aVOAK-387
p7253
aVOAK-386
p7254
aVOAK-385
p7255
aVOAK-384
p7256
aVOAK-383
p7257
aVOAK-382
p7258
aVOAK-381
p7259
aVOAK-380
p7260
aVOAK-379
p7261
aVOAK-378
p7262
aVOAK-377
p7263
aVOAK-376
p7264
aVOAK-375
p7265
aVOAK-374
p7266
aVOAK-373
p7267
aVOAK-372
p7268
aVOAK-371
p7269
aVOAK-370
p7270
aVOAK-369
p7271
aVOAK-368
p7272
aVOAK-367
p7273
aVOAK-366
p7274
aVOAK-365
p7275
aVOAK-364
p7276
aVOAK-363
p7277
aVOAK-362
p7278
aVOAK-361
p7279
aVOAK-360
p7280
aVOAK-359
p7281
aVOAK-358
p7282
aVOAK-357
p7283
aVOAK-356
p7284
aVOAK-355
p7285
aVOAK-354
p7286
aVOAK-353
p7287
aVOAK-352
p7288
aVOAK-351
p7289
aVOAK-350
p7290
aVOAK-349
p7291
aVOAK-348
p7292
aVOAK-347
p7293
aVOAK-346
p7294
aVOAK-345
p7295
aVOAK-344
p7296
aVOAK-343
p7297
aVOAK-342
p7298
aVOAK-341
p7299
aVOAK-340
p7300
aVOAK-339
p7301
aVOAK-338
p7302
aVOAK-337
p7303
aVOAK-336
p7304
aVOAK-335
p7305
aVOAK-334
p7306
aVOAK-333
p7307
aVOAK-332
p7308
aVOAK-331
p7309
aVOAK-330
p7310
aVOAK-329
p7311
aVOAK-328
p7312
aVOAK-327
p7313
aVOAK-326
p7314
aVOAK-325
p7315
aVOAK-324
p7316
aVOAK-323
p7317
aVOAK-322
p7318
aVOAK-321
p7319
aVOAK-320
p7320
aVOAK-319
p7321
aVOAK-318
p7322
aVOAK-317
p7323
aVOAK-316
p7324
aVOAK-315
p7325
aVOAK-314
p7326
aVOAK-313
p7327
aVOAK-312
p7328
aVOAK-311
p7329
aVOAK-310
p7330
aVOAK-309
p7331
aVOAK-308
p7332
aVOAK-307
p7333
aVOAK-306
p7334
aVOAK-305
p7335
aVOAK-304
p7336
aVOAK-303
p7337
aVOAK-302
p7338
aVOAK-301
p7339
aVOAK-300
p7340
aVOAK-299
p7341
aVOAK-298
p7342
aVOAK-297
p7343
aVOAK-296
p7344
aVOAK-295
p7345
aVOAK-294
p7346
aVOAK-293
p7347
aVOAK-292
p7348
aVOAK-291
p7349
aVOAK-290
p7350
aVOAK-289
p7351
aVOAK-288
p7352
aVOAK-287
p7353
aVOAK-286
p7354
aVOAK-285
p7355
aVOAK-284
p7356
aVOAK-283
p7357
aVOAK-282
p7358
aVOAK-281
p7359
aVOAK-280
p7360
aVOAK-279
p7361
aVOAK-278
p7362
aVOAK-277
p7363
aVOAK-276
p7364
aVOAK-275
p7365
aVOAK-274
p7366
aVOAK-273
p7367
aVOAK-272
p7368
aVOAK-271
p7369
aVOAK-270
p7370
aVOAK-269
p7371
aVOAK-268
p7372
aVOAK-267
p7373
aVOAK-266
p7374
aVOAK-265
p7375
aVOAK-264
p7376
aVOAK-263
p7377
aVOAK-262
p7378
aVOAK-261
p7379
aVOAK-260
p7380
aVOAK-259
p7381
aVOAK-258
p7382
aVOAK-257
p7383
aVOAK-256
p7384
aVOAK-255
p7385
aVOAK-254
p7386
aVOAK-253
p7387
aVOAK-252
p7388
aVOAK-251
p7389
aVOAK-250
p7390
aVOAK-249
p7391
aVOAK-248
p7392
aVOAK-247
p7393
aVOAK-246
p7394
aVOAK-245
p7395
aVOAK-244
p7396
aVOAK-243
p7397
aVOAK-242
p7398
aVOAK-241
p7399
aVOAK-240
p7400
aVOAK-239
p7401
aVOAK-238
p7402
aVOAK-237
p7403
aVOAK-236
p7404
aVOAK-235
p7405
aVOAK-234
p7406
aVOAK-233
p7407
aVOAK-232
p7408
aVOAK-231
p7409
aVOAK-230
p7410
aVOAK-229
p7411
aVOAK-228
p7412
aVOAK-227
p7413
aVOAK-226
p7414
aVOAK-225
p7415
aVOAK-224
p7416
aVOAK-223
p7417
aVOAK-222
p7418
aVOAK-221
p7419
aVOAK-220
p7420
aVOAK-219
p7421
aVOAK-218
p7422
aVOAK-217
p7423
aVOAK-216
p7424
aVOAK-215
p7425
aVOAK-214
p7426
aVOAK-213
p7427
aVOAK-212
p7428
aVOAK-211
p7429
aVOAK-210
p7430
aVOAK-209
p7431
aVOAK-208
p7432
aVOAK-207
p7433
aVOAK-206
p7434
aVOAK-205
p7435
aVOAK-204
p7436
aVOAK-203
p7437
aVOAK-202
p7438
aVOAK-201
p7439
aVOAK-200
p7440
aVOAK-199
p7441
aVOAK-198
p7442
aVOAK-197
p7443
aVOAK-196
p7444
aVOAK-195
p7445
aVOAK-194
p7446
aVOAK-193
p7447
aVOAK-192
p7448
aVOAK-191
p7449
aVOAK-190
p7450
aVOAK-189
p7451
aVOAK-188
p7452
aVOAK-187
p7453
aVOAK-186
p7454
aVOAK-185
p7455
aVOAK-184
p7456
aVOAK-183
p7457
aVOAK-182
p7458
aVOAK-181
p7459
aVOAK-180
p7460
aVOAK-179
p7461
aVOAK-178
p7462
aVOAK-177
p7463
aVOAK-176
p7464
aVOAK-175
p7465
aVOAK-174
p7466
aVOAK-173
p7467
aVOAK-172
p7468
aVOAK-171
p7469
aVOAK-170
p7470
aVOAK-169
p7471
aVOAK-168
p7472
aVOAK-167
p7473
aVOAK-166
p7474
aVOAK-165
p7475
aVOAK-164
p7476
aVOAK-163
p7477
aVOAK-162
p7478
aVOAK-161
p7479
aVOAK-160
p7480
aVOAK-159
p7481
aVOAK-158
p7482
aVOAK-157
p7483
aVOAK-156
p7484
aVOAK-155
p7485
aVOAK-154
p7486
aVOAK-153
p7487
aVOAK-152
p7488
aVOAK-151
p7489
aVOAK-150
p7490
aVOAK-149
p7491
aVOAK-148
p7492
aVOAK-147
p7493
aVOAK-146
p7494
aVOAK-145
p7495
aVOAK-144
p7496
aVOAK-143
p7497
aVOAK-142
p7498
aVOAK-141
p7499
aVOAK-140
p7500
aVOAK-139
p7501
aVOAK-138
p7502
aVOAK-137
p7503
aVOAK-136
p7504
aVOAK-135
p7505
aVOAK-134
p7506
aVOAK-133
p7507
aVOAK-132
p7508
aVOAK-131
p7509
aVOAK-130
p7510
aVOAK-129
p7511
aVOAK-128
p7512
aVOAK-127
p7513
aVOAK-126
p7514
aVOAK-125
p7515
aVOAK-124
p7516
aVOAK-123
p7517
aVOAK-122
p7518
aVOAK-121
p7519
aVOAK-120
p7520
aVOAK-119
p7521
aVOAK-118
p7522
aVOAK-117
p7523
aVOAK-116
p7524
aVOAK-115
p7525
aVOAK-114
p7526
aVOAK-113
p7527
aVOAK-112
p7528
aVOAK-111
p7529
aVOAK-110
p7530
aVOAK-109
p7531
aVOAK-108
p7532
aVOAK-107
p7533
aVOAK-106
p7534
aVOAK-105
p7535
aVOAK-104
p7536
aVOAK-103
p7537
aVOAK-102
p7538
aVOAK-101
p7539
aVOAK-100
p7540
aVOAK-99
p7541
aVOAK-98
p7542
aVOAK-97
p7543
aVOAK-96
p7544
aVOAK-95
p7545
aVOAK-94
p7546
aVOAK-93
p7547
aVOAK-92
p7548
aVOAK-91
p7549
aVOAK-90
p7550
aVOAK-89
p7551
aVOAK-88
p7552
aVOAK-87
p7553
aVOAK-86
p7554
aVOAK-85
p7555
aVOAK-84
p7556
aVOAK-83
p7557
aVOAK-82
p7558
aVOAK-81
p7559
aVOAK-80
p7560
aVOAK-79
p7561
aVOAK-78
p7562
aVOAK-77
p7563
aVOAK-76
p7564
aVOAK-75
p7565
aVOAK-74
p7566
aVOAK-73
p7567
aVOAK-72
p7568
aVOAK-71
p7569
aVOAK-70
p7570
aVOAK-69
p7571
aVOAK-68
p7572
aVOAK-67
p7573
aVOAK-66
p7574
aVOAK-65
p7575
aVOAK-64
p7576
aVOAK-63
p7577
aVOAK-62
p7578
aVOAK-61
p7579
aVOAK-60
p7580
aVOAK-59
p7581
aVOAK-58
p7582
aVOAK-57
p7583
aVOAK-56
p7584
aVOAK-55
p7585
aVOAK-54
p7586
aVOAK-53
p7587
aVOAK-52
p7588
aVOAK-51
p7589
aVOAK-50
p7590
aVOAK-49
p7591
aVOAK-48
p7592
aVOAK-47
p7593
aVOAK-46
p7594
aVOAK-45
p7595
aVOAK-44
p7596
aVOAK-43
p7597
aVOAK-42
p7598
aVOAK-41
p7599
aVOAK-40
p7600
aVOAK-39
p7601
aVOAK-38
p7602
aVOAK-37
p7603
aVOAK-36
p7604
aVOAK-35
p7605
aVOAK-34
p7606
aVOAK-33
p7607
aVOAK-32
p7608
aVOAK-31
p7609
aVOAK-30
p7610
aVOAK-29
p7611
aVOAK-28
p7612
aVOAK-27
p7613
aVOAK-26
p7614
aVOAK-25
p7615
aVOAK-24
p7616
aVOAK-23
p7617
aVOAK-22
p7618
aVOAK-21
p7619
aVOAK-20
p7620
aVOAK-19
p7621
aVOAK-18
p7622
aVOAK-17
p7623
aVOAK-16
p7624
aVOAK-15
p7625
aVOAK-14
p7626
aVOAK-13
p7627
aVOAK-12
p7628
aVOAK-11
p7629
aVOAK-10
p7630
aVOAK-9
p7631
aVOAK-8
p7632
aVOAK-7
p7633
aVOAK-6
p7634
aVOAK-5
p7635
aVOAK-4
p7636
aVOAK-3
p7637
aVOAK-2
p7638
aVOAK-1
p7639
a.