(lp0
VOCM-70
p1
aVOCM-69
p2
aVOCM-68
p3
aVOCM-67
p4
aVOCM-66
p5
aVOCM-65
p6
aVOCM-64
p7
aVOCM-63
p8
aVOCM-62
p9
aVOCM-61
p10
aVOCM-60
p11
aVOCM-59
p12
aVOCM-58
p13
aVOCM-57
p14
aVOCM-56
p15
aVOCM-55
p16
aVOCM-54
p17
aVOCM-53
p18
aVOCM-52
p19
aVOCM-51
p20
aVOCM-50
p21
aVOCM-49
p22
aVOCM-48
p23
aVOCM-47
p24
aVOCM-46
p25
aVOCM-45
p26
aVOCM-44
p27
aVOCM-43
p28
aVOCM-42
p29
aVOCM-41
p30
aVOCM-40
p31
aVOCM-39
p32
aVOCM-38
p33
aVOCM-37
p34
aVOCM-36
p35
aVOCM-35
p36
aVOCM-34
p37
aVOCM-33
p38
aVOCM-32
p39
aVOCM-31
p40
aVOCM-30
p41
aVOCM-29
p42
aVOCM-28
p43
aVOCM-27
p44
aVOCM-26
p45
aVOCM-25
p46
aVOCM-24
p47
aVOCM-23
p48
aVOCM-22
p49
aVOCM-21
p50
aVOCM-20
p51
aVOCM-19
p52
aVOCM-18
p53
aVOCM-17
p54
aVOCM-16
p55
aVOCM-15
p56
aVOCM-14
p57
aVOCM-13
p58
aVOCM-12
p59
aVOCM-11
p60
aVOCM-10
p61
aVOCM-9
p62
aVOCM-8
p63
aVOCM-7
p64
aVOCM-6
p65
aVOCM-5
p66
aVOCM-4
p67
aVOCM-3
p68
aVOCM-2
p69
aVOCM-1
p70
a.