(lp0
VODE-1075
p1
aVODE-1074
p2
aVODE-1073
p3
aVODE-1072
p4
aVODE-1071
p5
aVODE-1070
p6
aVODE-1069
p7
aVODE-1068
p8
aVODE-1067
p9
aVODE-1066
p10
aVODE-1065
p11
aVODE-1064
p12
aVODE-1063
p13
aVODE-1062
p14
aVODE-1061
p15
aVODE-1060
p16
aVODE-1059
p17
aVODE-1058
p18
aVODE-1057
p19
aVODE-1056
p20
aVODE-1055
p21
aVODE-1054
p22
aVODE-1053
p23
aVODE-1052
p24
aVODE-1051
p25
aVODE-1050
p26
aVODE-1049
p27
aVODE-1048
p28
aVODE-1047
p29
aVODE-1046
p30
aVODE-1045
p31
aVODE-1044
p32
aVODE-1043
p33
aVODE-1042
p34
aVODE-1041
p35
aVODE-1040
p36
aVODE-1039
p37
aVODE-1038
p38
aVODE-1037
p39
aVODE-1036
p40
aVODE-1035
p41
aVODE-1034
p42
aVODE-1033
p43
aVODE-1032
p44
aVODE-1031
p45
aVODE-1030
p46
aVODE-1029
p47
aVODE-1028
p48
aVODE-1027
p49
aVODE-1026
p50
aVODE-1025
p51
aVODE-1024
p52
aVODE-1023
p53
aVODE-1022
p54
aVODE-1021
p55
aVODE-1020
p56
aVODE-1019
p57
aVODE-1018
p58
aVODE-1017
p59
aVODE-1016
p60
aVODE-1015
p61
aVODE-1014
p62
aVODE-1013
p63
aVODE-1012
p64
aVODE-1011
p65
aVODE-1010
p66
aVODE-1009
p67
aVODE-1008
p68
aVODE-1007
p69
aVODE-1006
p70
aVODE-1005
p71
aVODE-1004
p72
aVODE-1003
p73
aVODE-1002
p74
aVODE-1001
p75
aVODE-1000
p76
aVODE-999
p77
aVODE-998
p78
aVODE-997
p79
aVODE-996
p80
aVODE-995
p81
aVODE-994
p82
aVODE-993
p83
aVODE-992
p84
aVODE-991
p85
aVODE-990
p86
aVODE-989
p87
aVODE-988
p88
aVODE-987
p89
aVODE-986
p90
aVODE-985
p91
aVODE-984
p92
aVODE-983
p93
aVODE-982
p94
aVODE-981
p95
aVODE-980
p96
aVODE-979
p97
aVODE-978
p98
aVODE-977
p99
aVODE-976
p100
aVODE-975
p101
aVODE-974
p102
aVODE-973
p103
aVODE-972
p104
aVODE-971
p105
aVODE-970
p106
aVODE-969
p107
aVODE-968
p108
aVODE-967
p109
aVODE-966
p110
aVODE-965
p111
aVODE-964
p112
aVODE-963
p113
aVODE-962
p114
aVODE-961
p115
aVODE-960
p116
aVODE-959
p117
aVODE-958
p118
aVODE-957
p119
aVODE-956
p120
aVODE-955
p121
aVODE-954
p122
aVODE-953
p123
aVODE-952
p124
aVODE-951
p125
aVODE-950
p126
aVODE-949
p127
aVODE-948
p128
aVODE-947
p129
aVODE-946
p130
aVODE-945
p131
aVODE-944
p132
aVODE-943
p133
aVODE-942
p134
aVODE-941
p135
aVODE-940
p136
aVODE-939
p137
aVODE-938
p138
aVODE-937
p139
aVODE-936
p140
aVODE-935
p141
aVODE-934
p142
aVODE-933
p143
aVODE-932
p144
aVODE-931
p145
aVODE-930
p146
aVODE-929
p147
aVODE-928
p148
aVODE-927
p149
aVODE-926
p150
aVODE-925
p151
aVODE-924
p152
aVODE-923
p153
aVODE-922
p154
aVODE-921
p155
aVODE-920
p156
aVODE-919
p157
aVODE-918
p158
aVODE-917
p159
aVODE-916
p160
aVODE-915
p161
aVODE-914
p162
aVODE-913
p163
aVODE-912
p164
aVODE-911
p165
aVODE-910
p166
aVODE-909
p167
aVODE-908
p168
aVODE-907
p169
aVODE-906
p170
aVODE-905
p171
aVODE-904
p172
aVODE-903
p173
aVODE-902
p174
aVODE-901
p175
aVODE-900
p176
aVODE-899
p177
aVODE-898
p178
aVODE-897
p179
aVODE-896
p180
aVODE-895
p181
aVODE-894
p182
aVODE-893
p183
aVODE-892
p184
aVODE-891
p185
aVODE-890
p186
aVODE-889
p187
aVODE-888
p188
aVODE-887
p189
aVODE-886
p190
aVODE-885
p191
aVODE-884
p192
aVODE-883
p193
aVODE-882
p194
aVODE-881
p195
aVODE-880
p196
aVODE-879
p197
aVODE-878
p198
aVODE-877
p199
aVODE-876
p200
aVODE-875
p201
aVODE-874
p202
aVODE-873
p203
aVODE-872
p204
aVODE-871
p205
aVODE-870
p206
aVODE-869
p207
aVODE-868
p208
aVODE-867
p209
aVODE-866
p210
aVODE-865
p211
aVODE-864
p212
aVODE-863
p213
aVODE-862
p214
aVODE-861
p215
aVODE-860
p216
aVODE-859
p217
aVODE-858
p218
aVODE-857
p219
aVODE-856
p220
aVODE-855
p221
aVODE-854
p222
aVODE-853
p223
aVODE-852
p224
aVODE-851
p225
aVODE-850
p226
aVODE-849
p227
aVODE-848
p228
aVODE-847
p229
aVODE-846
p230
aVODE-845
p231
aVODE-844
p232
aVODE-843
p233
aVODE-842
p234
aVODE-841
p235
aVODE-840
p236
aVODE-839
p237
aVODE-838
p238
aVODE-837
p239
aVODE-836
p240
aVODE-835
p241
aVODE-834
p242
aVODE-833
p243
aVODE-832
p244
aVODE-831
p245
aVODE-830
p246
aVODE-829
p247
aVODE-828
p248
aVODE-827
p249
aVODE-826
p250
aVODE-825
p251
aVODE-824
p252
aVODE-823
p253
aVODE-822
p254
aVODE-821
p255
aVODE-820
p256
aVODE-819
p257
aVODE-818
p258
aVODE-817
p259
aVODE-816
p260
aVODE-815
p261
aVODE-814
p262
aVODE-813
p263
aVODE-812
p264
aVODE-811
p265
aVODE-810
p266
aVODE-809
p267
aVODE-808
p268
aVODE-807
p269
aVODE-806
p270
aVODE-805
p271
aVODE-804
p272
aVODE-803
p273
aVODE-802
p274
aVODE-801
p275
aVODE-800
p276
aVODE-799
p277
aVODE-798
p278
aVODE-797
p279
aVODE-796
p280
aVODE-795
p281
aVODE-794
p282
aVODE-793
p283
aVODE-792
p284
aVODE-791
p285
aVODE-790
p286
aVODE-789
p287
aVODE-788
p288
aVODE-787
p289
aVODE-786
p290
aVODE-785
p291
aVODE-784
p292
aVODE-783
p293
aVODE-782
p294
aVODE-781
p295
aVODE-780
p296
aVODE-779
p297
aVODE-778
p298
aVODE-777
p299
aVODE-776
p300
aVODE-775
p301
aVODE-774
p302
aVODE-773
p303
aVODE-772
p304
aVODE-771
p305
aVODE-770
p306
aVODE-769
p307
aVODE-768
p308
aVODE-767
p309
aVODE-766
p310
aVODE-765
p311
aVODE-764
p312
aVODE-763
p313
aVODE-762
p314
aVODE-761
p315
aVODE-760
p316
aVODE-759
p317
aVODE-758
p318
aVODE-757
p319
aVODE-756
p320
aVODE-755
p321
aVODE-754
p322
aVODE-753
p323
aVODE-752
p324
aVODE-751
p325
aVODE-750
p326
aVODE-749
p327
aVODE-748
p328
aVODE-747
p329
aVODE-746
p330
aVODE-745
p331
aVODE-744
p332
aVODE-743
p333
aVODE-742
p334
aVODE-741
p335
aVODE-740
p336
aVODE-739
p337
aVODE-738
p338
aVODE-737
p339
aVODE-736
p340
aVODE-735
p341
aVODE-734
p342
aVODE-733
p343
aVODE-732
p344
aVODE-731
p345
aVODE-730
p346
aVODE-729
p347
aVODE-728
p348
aVODE-727
p349
aVODE-726
p350
aVODE-725
p351
aVODE-724
p352
aVODE-723
p353
aVODE-722
p354
aVODE-721
p355
aVODE-720
p356
aVODE-719
p357
aVODE-718
p358
aVODE-717
p359
aVODE-716
p360
aVODE-715
p361
aVODE-714
p362
aVODE-713
p363
aVODE-712
p364
aVODE-711
p365
aVODE-710
p366
aVODE-709
p367
aVODE-708
p368
aVODE-707
p369
aVODE-706
p370
aVODE-705
p371
aVODE-704
p372
aVODE-703
p373
aVODE-702
p374
aVODE-701
p375
aVODE-700
p376
aVODE-699
p377
aVODE-698
p378
aVODE-697
p379
aVODE-696
p380
aVODE-695
p381
aVODE-694
p382
aVODE-693
p383
aVODE-692
p384
aVODE-691
p385
aVODE-690
p386
aVODE-689
p387
aVODE-688
p388
aVODE-687
p389
aVODE-686
p390
aVODE-685
p391
aVODE-684
p392
aVODE-683
p393
aVODE-682
p394
aVODE-681
p395
aVODE-680
p396
aVODE-679
p397
aVODE-678
p398
aVODE-677
p399
aVODE-676
p400
aVODE-675
p401
aVODE-674
p402
aVODE-673
p403
aVODE-672
p404
aVODE-671
p405
aVODE-670
p406
aVODE-669
p407
aVODE-668
p408
aVODE-667
p409
aVODE-666
p410
aVODE-665
p411
aVODE-664
p412
aVODE-663
p413
aVODE-662
p414
aVODE-661
p415
aVODE-660
p416
aVODE-659
p417
aVODE-658
p418
aVODE-657
p419
aVODE-656
p420
aVODE-655
p421
aVODE-654
p422
aVODE-653
p423
aVODE-652
p424
aVODE-651
p425
aVODE-650
p426
aVODE-649
p427
aVODE-648
p428
aVODE-647
p429
aVODE-646
p430
aVODE-645
p431
aVODE-644
p432
aVODE-643
p433
aVODE-642
p434
aVODE-641
p435
aVODE-640
p436
aVODE-639
p437
aVODE-638
p438
aVODE-637
p439
aVODE-636
p440
aVODE-635
p441
aVODE-634
p442
aVODE-633
p443
aVODE-632
p444
aVODE-631
p445
aVODE-630
p446
aVODE-629
p447
aVODE-628
p448
aVODE-627
p449
aVODE-626
p450
aVODE-625
p451
aVODE-624
p452
aVODE-623
p453
aVODE-622
p454
aVODE-621
p455
aVODE-620
p456
aVODE-619
p457
aVODE-618
p458
aVODE-617
p459
aVODE-616
p460
aVODE-615
p461
aVODE-614
p462
aVODE-613
p463
aVODE-612
p464
aVODE-611
p465
aVODE-610
p466
aVODE-609
p467
aVODE-608
p468
aVODE-607
p469
aVODE-606
p470
aVODE-605
p471
aVODE-604
p472
aVODE-603
p473
aVODE-602
p474
aVODE-601
p475
aVODE-600
p476
aVODE-599
p477
aVODE-598
p478
aVODE-597
p479
aVODE-596
p480
aVODE-595
p481
aVODE-594
p482
aVODE-593
p483
aVODE-592
p484
aVODE-591
p485
aVODE-590
p486
aVODE-589
p487
aVODE-588
p488
aVODE-587
p489
aVODE-586
p490
aVODE-585
p491
aVODE-584
p492
aVODE-583
p493
aVODE-582
p494
aVODE-581
p495
aVODE-580
p496
aVODE-579
p497
aVODE-578
p498
aVODE-577
p499
aVODE-576
p500
aVODE-575
p501
aVODE-574
p502
aVODE-573
p503
aVODE-572
p504
aVODE-571
p505
aVODE-570
p506
aVODE-569
p507
aVODE-568
p508
aVODE-567
p509
aVODE-566
p510
aVODE-565
p511
aVODE-564
p512
aVODE-563
p513
aVODE-562
p514
aVODE-561
p515
aVODE-560
p516
aVODE-559
p517
aVODE-558
p518
aVODE-557
p519
aVODE-556
p520
aVODE-555
p521
aVODE-554
p522
aVODE-553
p523
aVODE-552
p524
aVODE-551
p525
aVODE-550
p526
aVODE-549
p527
aVODE-548
p528
aVODE-547
p529
aVODE-546
p530
aVODE-545
p531
aVODE-544
p532
aVODE-543
p533
aVODE-542
p534
aVODE-541
p535
aVODE-540
p536
aVODE-539
p537
aVODE-538
p538
aVODE-537
p539
aVODE-536
p540
aVODE-535
p541
aVODE-534
p542
aVODE-533
p543
aVODE-532
p544
aVODE-531
p545
aVODE-530
p546
aVODE-529
p547
aVODE-528
p548
aVODE-527
p549
aVODE-526
p550
aVODE-525
p551
aVODE-524
p552
aVODE-523
p553
aVODE-522
p554
aVODE-521
p555
aVODE-520
p556
aVODE-519
p557
aVODE-518
p558
aVODE-517
p559
aVODE-516
p560
aVODE-515
p561
aVODE-514
p562
aVODE-513
p563
aVODE-512
p564
aVODE-511
p565
aVODE-510
p566
aVODE-509
p567
aVODE-508
p568
aVODE-507
p569
aVODE-506
p570
aVODE-505
p571
aVODE-504
p572
aVODE-503
p573
aVODE-502
p574
aVODE-501
p575
aVODE-500
p576
aVODE-499
p577
aVODE-498
p578
aVODE-497
p579
aVODE-496
p580
aVODE-495
p581
aVODE-494
p582
aVODE-493
p583
aVODE-492
p584
aVODE-491
p585
aVODE-490
p586
aVODE-489
p587
aVODE-488
p588
aVODE-487
p589
aVODE-485
p590
aVODE-484
p591
aVODE-483
p592
aVODE-482
p593
aVODE-481
p594
aVODE-480
p595
aVODE-479
p596
aVODE-478
p597
aVODE-477
p598
aVODE-476
p599
aVODE-475
p600
aVODE-474
p601
aVODE-473
p602
aVODE-472
p603
aVODE-471
p604
aVODE-470
p605
aVODE-469
p606
aVODE-468
p607
aVODE-467
p608
aVODE-466
p609
aVODE-465
p610
aVODE-464
p611
aVODE-463
p612
aVODE-462
p613
aVODE-461
p614
aVODE-460
p615
aVODE-459
p616
aVODE-458
p617
aVODE-457
p618
aVODE-456
p619
aVODE-455
p620
aVODE-454
p621
aVODE-453
p622
aVODE-452
p623
aVODE-451
p624
aVODE-450
p625
aVODE-449
p626
aVODE-448
p627
aVODE-447
p628
aVODE-446
p629
aVODE-445
p630
aVODE-444
p631
aVODE-443
p632
aVODE-442
p633
aVODE-441
p634
aVODE-440
p635
aVODE-439
p636
aVODE-438
p637
aVODE-437
p638
aVODE-436
p639
aVODE-435
p640
aVODE-434
p641
aVODE-433
p642
aVODE-432
p643
aVODE-431
p644
aVODE-430
p645
aVODE-429
p646
aVODE-428
p647
aVODE-427
p648
aVODE-426
p649
aVODE-425
p650
aVODE-424
p651
aVODE-423
p652
aVODE-422
p653
aVODE-421
p654
aVODE-420
p655
aVODE-419
p656
aVODE-418
p657
aVODE-417
p658
aVODE-416
p659
aVODE-415
p660
aVODE-414
p661
aVODE-413
p662
aVODE-412
p663
aVODE-411
p664
aVODE-410
p665
aVODE-409
p666
aVODE-408
p667
aVODE-407
p668
aVODE-406
p669
aVODE-405
p670
aVODE-404
p671
aVODE-403
p672
aVODE-402
p673
aVODE-401
p674
aVODE-400
p675
aVODE-399
p676
aVODE-398
p677
aVODE-397
p678
aVODE-396
p679
aVODE-395
p680
aVODE-394
p681
aVODE-393
p682
aVODE-392
p683
aVODE-391
p684
aVODE-390
p685
aVODE-389
p686
aVODE-388
p687
aVODE-387
p688
aVODE-386
p689
aVODE-385
p690
aVODE-384
p691
aVODE-383
p692
aVODE-382
p693
aVODE-381
p694
aVODE-380
p695
aVODE-379
p696
aVODE-378
p697
aVODE-377
p698
aVODE-376
p699
aVODE-375
p700
aVODE-374
p701
aVODE-373
p702
aVODE-372
p703
aVODE-371
p704
aVODE-370
p705
aVODE-369
p706
aVODE-368
p707
aVODE-367
p708
aVODE-366
p709
aVODE-365
p710
aVODE-364
p711
aVODE-363
p712
aVODE-362
p713
aVODE-361
p714
aVODE-360
p715
aVODE-359
p716
aVODE-358
p717
aVODE-357
p718
aVODE-356
p719
aVODE-355
p720
aVODE-354
p721
aVODE-353
p722
aVODE-352
p723
aVODE-351
p724
aVODE-350
p725
aVODE-349
p726
aVODE-348
p727
aVODE-347
p728
aVODE-346
p729
aVODE-345
p730
aVODE-344
p731
aVODE-343
p732
aVODE-342
p733
aVODE-341
p734
aVODE-340
p735
aVODE-339
p736
aVODE-338
p737
aVODE-337
p738
aVODE-335
p739
aVODE-334
p740
aVODE-333
p741
aVODE-332
p742
aVODE-331
p743
aVODE-330
p744
aVODE-329
p745
aVODE-328
p746
aVODE-327
p747
aVODE-326
p748
aVODE-325
p749
aVODE-324
p750
aVODE-323
p751
aVODE-322
p752
aVODE-321
p753
aVODE-320
p754
aVODE-319
p755
aVODE-318
p756
aVODE-317
p757
aVODE-316
p758
aVODE-315
p759
aVODE-314
p760
aVODE-313
p761
aVODE-312
p762
aVODE-311
p763
aVODE-310
p764
aVODE-309
p765
aVODE-308
p766
aVODE-307
p767
aVODE-306
p768
aVODE-305
p769
aVODE-304
p770
aVODE-303
p771
aVODE-302
p772
aVODE-301
p773
aVODE-300
p774
aVODE-299
p775
aVODE-298
p776
aVODE-297
p777
aVODE-296
p778
aVODE-295
p779
aVODE-294
p780
aVODE-293
p781
aVODE-292
p782
aVODE-291
p783
aVODE-290
p784
aVODE-289
p785
aVODE-288
p786
aVODE-287
p787
aVODE-286
p788
aVODE-285
p789
aVODE-284
p790
aVODE-283
p791
aVODE-282
p792
aVODE-281
p793
aVODE-280
p794
aVODE-279
p795
aVODE-278
p796
aVODE-277
p797
aVODE-276
p798
aVODE-275
p799
aVODE-274
p800
aVODE-273
p801
aVODE-272
p802
aVODE-271
p803
aVODE-270
p804
aVODE-269
p805
aVODE-268
p806
aVODE-267
p807
aVODE-266
p808
aVODE-265
p809
aVODE-264
p810
aVODE-263
p811
aVODE-262
p812
aVODE-261
p813
aVODE-260
p814
aVODE-259
p815
aVODE-258
p816
aVODE-257
p817
aVODE-256
p818
aVODE-255
p819
aVODE-254
p820
aVODE-253
p821
aVODE-252
p822
aVODE-251
p823
aVODE-250
p824
aVODE-249
p825
aVODE-248
p826
aVODE-247
p827
aVODE-246
p828
aVODE-245
p829
aVODE-244
p830
aVODE-243
p831
aVODE-242
p832
aVODE-241
p833
aVODE-240
p834
aVODE-239
p835
aVODE-238
p836
aVODE-237
p837
aVODE-236
p838
aVODE-235
p839
aVODE-234
p840
aVODE-233
p841
aVODE-232
p842
aVODE-231
p843
aVODE-230
p844
aVODE-229
p845
aVODE-228
p846
aVODE-227
p847
aVODE-226
p848
aVODE-225
p849
aVODE-224
p850
aVODE-223
p851
aVODE-222
p852
aVODE-221
p853
aVODE-220
p854
aVODE-219
p855
aVODE-218
p856
aVODE-217
p857
aVODE-216
p858
aVODE-215
p859
aVODE-214
p860
aVODE-213
p861
aVODE-212
p862
aVODE-211
p863
aVODE-210
p864
aVODE-209
p865
aVODE-208
p866
aVODE-207
p867
aVODE-206
p868
aVODE-205
p869
aVODE-204
p870
aVODE-203
p871
aVODE-202
p872
aVODE-201
p873
aVODE-200
p874
aVODE-199
p875
aVODE-198
p876
aVODE-197
p877
aVODE-196
p878
aVODE-195
p879
aVODE-194
p880
aVODE-193
p881
aVODE-192
p882
aVODE-191
p883
aVODE-190
p884
aVODE-189
p885
aVODE-188
p886
aVODE-187
p887
aVODE-186
p888
aVODE-185
p889
aVODE-184
p890
aVODE-183
p891
aVODE-182
p892
aVODE-181
p893
aVODE-180
p894
aVODE-179
p895
aVODE-178
p896
aVODE-177
p897
aVODE-176
p898
aVODE-175
p899
aVODE-174
p900
aVODE-173
p901
aVODE-172
p902
aVODE-171
p903
aVODE-170
p904
aVODE-169
p905
aVODE-168
p906
aVODE-167
p907
aVODE-166
p908
aVODE-165
p909
aVODE-164
p910
aVODE-163
p911
aVODE-162
p912
aVODE-161
p913
aVODE-160
p914
aVODE-159
p915
aVODE-158
p916
aVODE-157
p917
aVODE-156
p918
aVODE-155
p919
aVODE-154
p920
aVODE-153
p921
aVODE-152
p922
aVODE-151
p923
aVODE-150
p924
aVODE-149
p925
aVODE-148
p926
aVODE-147
p927
aVODE-146
p928
aVODE-145
p929
aVODE-144
p930
aVODE-143
p931
aVODE-142
p932
aVODE-141
p933
aVODE-140
p934
aVODE-139
p935
aVODE-138
p936
aVODE-137
p937
aVODE-136
p938
aVODE-135
p939
aVODE-134
p940
aVODE-133
p941
aVODE-132
p942
aVODE-131
p943
aVODE-130
p944
aVODE-129
p945
aVODE-128
p946
aVODE-127
p947
aVODE-126
p948
aVODE-125
p949
aVODE-124
p950
aVODE-123
p951
aVODE-122
p952
aVODE-121
p953
aVODE-120
p954
aVODE-119
p955
aVODE-118
p956
aVODE-117
p957
aVODE-116
p958
aVODE-115
p959
aVODE-114
p960
aVODE-113
p961
aVODE-112
p962
aVODE-111
p963
aVODE-110
p964
aVODE-109
p965
aVODE-108
p966
aVODE-107
p967
aVODE-106
p968
aVODE-105
p969
aVODE-104
p970
aVODE-103
p971
aVODE-102
p972
aVODE-101
p973
aVODE-100
p974
aVODE-99
p975
aVODE-98
p976
aVODE-97
p977
aVODE-96
p978
aVODE-95
p979
aVODE-94
p980
aVODE-93
p981
aVODE-92
p982
aVODE-91
p983
aVODE-90
p984
aVODE-89
p985
aVODE-88
p986
aVODE-87
p987
aVODE-86
p988
aVODE-85
p989
aVODE-84
p990
aVODE-83
p991
aVODE-82
p992
aVODE-81
p993
aVODE-80
p994
aVODE-79
p995
aVODE-78
p996
aVODE-77
p997
aVODE-76
p998
aVODE-75
p999
aVODE-74
p1000
aVODE-73
p1001
aVODE-72
p1002
aVODE-71
p1003
aVODE-70
p1004
aVODE-69
p1005
aVODE-68
p1006
aVODE-67
p1007
aVODE-66
p1008
aVODE-65
p1009
aVODE-64
p1010
aVODE-63
p1011
aVODE-62
p1012
aVODE-61
p1013
aVODE-60
p1014
aVODE-59
p1015
aVODE-58
p1016
aVODE-57
p1017
aVODE-56
p1018
aVODE-55
p1019
aVODE-54
p1020
aVODE-53
p1021
aVODE-52
p1022
aVODE-51
p1023
aVODE-50
p1024
aVODE-49
p1025
aVODE-48
p1026
aVODE-47
p1027
aVODE-46
p1028
aVODE-45
p1029
aVODE-44
p1030
aVODE-43
p1031
aVODE-42
p1032
aVODE-41
p1033
aVODE-40
p1034
aVODE-39
p1035
aVODE-38
p1036
aVODE-37
p1037
aVODE-36
p1038
aVODE-35
p1039
aVODE-34
p1040
aVODE-33
p1041
aVODE-32
p1042
aVODE-31
p1043
aVODE-30
p1044
aVODE-29
p1045
aVODE-28
p1046
aVODE-27
p1047
aVODE-26
p1048
aVODE-25
p1049
aVODE-24
p1050
aVODE-23
p1051
aVODE-22
p1052
aVODE-21
p1053
aVODE-20
p1054
aVODE-19
p1055
aVODE-18
p1056
aVODE-17
p1057
aVODE-16
p1058
aVODE-15
p1059
aVODE-14
p1060
aVODE-13
p1061
aVODE-12
p1062
aVODE-11
p1063
aVODE-10
p1064
aVODE-9
p1065
aVODE-8
p1066
aVODE-7
p1067
aVODE-6
p1068
aVODE-5
p1069
aVODE-4
p1070
aVODE-3
p1071
aVODE-2
p1072
aVODE-1
p1073
a.