(lp0
VODFTOOLKIT-475
p1
aVODFTOOLKIT-474
p2
aVODFTOOLKIT-473
p3
aVODFTOOLKIT-472
p4
aVODFTOOLKIT-471
p5
aVODFTOOLKIT-470
p6
aVODFTOOLKIT-469
p7
aVODFTOOLKIT-468
p8
aVODFTOOLKIT-467
p9
aVODFTOOLKIT-466
p10
aVODFTOOLKIT-465
p11
aVODFTOOLKIT-464
p12
aVODFTOOLKIT-463
p13
aVODFTOOLKIT-462
p14
aVODFTOOLKIT-461
p15
aVODFTOOLKIT-460
p16
aVODFTOOLKIT-459
p17
aVODFTOOLKIT-458
p18
aVODFTOOLKIT-457
p19
aVODFTOOLKIT-456
p20
aVODFTOOLKIT-455
p21
aVODFTOOLKIT-454
p22
aVODFTOOLKIT-453
p23
aVODFTOOLKIT-452
p24
aVODFTOOLKIT-451
p25
aVODFTOOLKIT-450
p26
aVODFTOOLKIT-449
p27
aVODFTOOLKIT-448
p28
aVODFTOOLKIT-447
p29
aVODFTOOLKIT-446
p30
aVODFTOOLKIT-445
p31
aVODFTOOLKIT-444
p32
aVODFTOOLKIT-443
p33
aVODFTOOLKIT-442
p34
aVODFTOOLKIT-441
p35
aVODFTOOLKIT-440
p36
aVODFTOOLKIT-439
p37
aVODFTOOLKIT-438
p38
aVODFTOOLKIT-437
p39
aVODFTOOLKIT-436
p40
aVODFTOOLKIT-435
p41
aVODFTOOLKIT-434
p42
aVODFTOOLKIT-433
p43
aVODFTOOLKIT-432
p44
aVODFTOOLKIT-431
p45
aVODFTOOLKIT-430
p46
aVODFTOOLKIT-429
p47
aVODFTOOLKIT-428
p48
aVODFTOOLKIT-427
p49
aVODFTOOLKIT-426
p50
aVODFTOOLKIT-425
p51
aVODFTOOLKIT-424
p52
aVODFTOOLKIT-423
p53
aVODFTOOLKIT-422
p54
aVODFTOOLKIT-421
p55
aVODFTOOLKIT-420
p56
aVODFTOOLKIT-419
p57
aVODFTOOLKIT-418
p58
aVODFTOOLKIT-417
p59
aVODFTOOLKIT-416
p60
aVODFTOOLKIT-415
p61
aVODFTOOLKIT-414
p62
aVODFTOOLKIT-413
p63
aVODFTOOLKIT-412
p64
aVODFTOOLKIT-411
p65
aVODFTOOLKIT-410
p66
aVODFTOOLKIT-409
p67
aVODFTOOLKIT-408
p68
aVODFTOOLKIT-407
p69
aVODFTOOLKIT-406
p70
aVODFTOOLKIT-405
p71
aVODFTOOLKIT-404
p72
aVODFTOOLKIT-403
p73
aVODFTOOLKIT-402
p74
aVODFTOOLKIT-401
p75
aVODFTOOLKIT-400
p76
aVODFTOOLKIT-399
p77
aVODFTOOLKIT-398
p78
aVODFTOOLKIT-397
p79
aVODFTOOLKIT-396
p80
aVODFTOOLKIT-395
p81
aVODFTOOLKIT-394
p82
aVODFTOOLKIT-393
p83
aVODFTOOLKIT-392
p84
aVODFTOOLKIT-391
p85
aVODFTOOLKIT-390
p86
aVODFTOOLKIT-389
p87
aVODFTOOLKIT-388
p88
aVODFTOOLKIT-387
p89
aVODFTOOLKIT-386
p90
aVODFTOOLKIT-385
p91
aVODFTOOLKIT-384
p92
aVODFTOOLKIT-383
p93
aVODFTOOLKIT-382
p94
aVODFTOOLKIT-381
p95
aVODFTOOLKIT-380
p96
aVODFTOOLKIT-379
p97
aVODFTOOLKIT-378
p98
aVODFTOOLKIT-377
p99
aVODFTOOLKIT-376
p100
aVODFTOOLKIT-375
p101
aVODFTOOLKIT-374
p102
aVODFTOOLKIT-373
p103
aVODFTOOLKIT-372
p104
aVODFTOOLKIT-371
p105
aVODFTOOLKIT-370
p106
aVODFTOOLKIT-369
p107
aVODFTOOLKIT-368
p108
aVODFTOOLKIT-367
p109
aVODFTOOLKIT-366
p110
aVODFTOOLKIT-365
p111
aVODFTOOLKIT-364
p112
aVODFTOOLKIT-363
p113
aVODFTOOLKIT-362
p114
aVODFTOOLKIT-361
p115
aVODFTOOLKIT-360
p116
aVODFTOOLKIT-359
p117
aVODFTOOLKIT-358
p118
aVODFTOOLKIT-357
p119
aVODFTOOLKIT-356
p120
aVODFTOOLKIT-355
p121
aVODFTOOLKIT-354
p122
aVODFTOOLKIT-353
p123
aVODFTOOLKIT-352
p124
aVODFTOOLKIT-351
p125
aVODFTOOLKIT-350
p126
aVODFTOOLKIT-349
p127
aVODFTOOLKIT-348
p128
aVODFTOOLKIT-347
p129
aVODFTOOLKIT-346
p130
aVODFTOOLKIT-345
p131
aVODFTOOLKIT-344
p132
aVODFTOOLKIT-343
p133
aVODFTOOLKIT-342
p134
aVODFTOOLKIT-341
p135
aVODFTOOLKIT-340
p136
aVODFTOOLKIT-339
p137
aVODFTOOLKIT-338
p138
aVODFTOOLKIT-337
p139
aVODFTOOLKIT-336
p140
aVODFTOOLKIT-335
p141
aVODFTOOLKIT-334
p142
aVODFTOOLKIT-333
p143
aVODFTOOLKIT-332
p144
aVODFTOOLKIT-331
p145
aVODFTOOLKIT-330
p146
aVODFTOOLKIT-329
p147
aVODFTOOLKIT-328
p148
aVODFTOOLKIT-327
p149
aVODFTOOLKIT-326
p150
aVODFTOOLKIT-325
p151
aVODFTOOLKIT-324
p152
aVODFTOOLKIT-323
p153
aVODFTOOLKIT-322
p154
aVODFTOOLKIT-321
p155
aVODFTOOLKIT-320
p156
aVODFTOOLKIT-319
p157
aVODFTOOLKIT-318
p158
aVODFTOOLKIT-317
p159
aVODFTOOLKIT-316
p160
aVODFTOOLKIT-315
p161
aVODFTOOLKIT-314
p162
aVODFTOOLKIT-313
p163
aVODFTOOLKIT-312
p164
aVODFTOOLKIT-311
p165
aVODFTOOLKIT-310
p166
aVODFTOOLKIT-309
p167
aVODFTOOLKIT-308
p168
aVODFTOOLKIT-307
p169
aVODFTOOLKIT-306
p170
aVODFTOOLKIT-305
p171
aVODFTOOLKIT-304
p172
aVODFTOOLKIT-303
p173
aVODFTOOLKIT-302
p174
aVODFTOOLKIT-301
p175
aVODFTOOLKIT-300
p176
aVODFTOOLKIT-299
p177
aVODFTOOLKIT-298
p178
aVODFTOOLKIT-297
p179
aVODFTOOLKIT-296
p180
aVODFTOOLKIT-295
p181
aVODFTOOLKIT-294
p182
aVODFTOOLKIT-293
p183
aVODFTOOLKIT-292
p184
aVODFTOOLKIT-291
p185
aVODFTOOLKIT-290
p186
aVODFTOOLKIT-289
p187
aVODFTOOLKIT-288
p188
aVODFTOOLKIT-287
p189
aVODFTOOLKIT-286
p190
aVODFTOOLKIT-285
p191
aVODFTOOLKIT-284
p192
aVODFTOOLKIT-283
p193
aVODFTOOLKIT-282
p194
aVODFTOOLKIT-281
p195
aVODFTOOLKIT-280
p196
aVODFTOOLKIT-279
p197
aVODFTOOLKIT-278
p198
aVODFTOOLKIT-277
p199
aVODFTOOLKIT-276
p200
aVODFTOOLKIT-275
p201
aVODFTOOLKIT-274
p202
aVODFTOOLKIT-273
p203
aVODFTOOLKIT-272
p204
aVODFTOOLKIT-271
p205
aVODFTOOLKIT-270
p206
aVODFTOOLKIT-269
p207
aVODFTOOLKIT-268
p208
aVODFTOOLKIT-267
p209
aVODFTOOLKIT-266
p210
aVODFTOOLKIT-265
p211
aVODFTOOLKIT-264
p212
aVODFTOOLKIT-263
p213
aVODFTOOLKIT-262
p214
aVODFTOOLKIT-261
p215
aVODFTOOLKIT-260
p216
aVODFTOOLKIT-259
p217
aVODFTOOLKIT-258
p218
aVODFTOOLKIT-257
p219
aVODFTOOLKIT-256
p220
aVODFTOOLKIT-255
p221
aVODFTOOLKIT-254
p222
aVODFTOOLKIT-253
p223
aVODFTOOLKIT-252
p224
aVODFTOOLKIT-251
p225
aVODFTOOLKIT-250
p226
aVODFTOOLKIT-249
p227
aVODFTOOLKIT-248
p228
aVODFTOOLKIT-247
p229
aVODFTOOLKIT-246
p230
aVODFTOOLKIT-245
p231
aVODFTOOLKIT-244
p232
aVODFTOOLKIT-243
p233
aVODFTOOLKIT-242
p234
aVODFTOOLKIT-241
p235
aVODFTOOLKIT-240
p236
aVODFTOOLKIT-239
p237
aVODFTOOLKIT-238
p238
aVODFTOOLKIT-237
p239
aVODFTOOLKIT-236
p240
aVODFTOOLKIT-235
p241
aVODFTOOLKIT-234
p242
aVODFTOOLKIT-233
p243
aVODFTOOLKIT-232
p244
aVODFTOOLKIT-231
p245
aVODFTOOLKIT-230
p246
aVODFTOOLKIT-229
p247
aVODFTOOLKIT-228
p248
aVODFTOOLKIT-227
p249
aVODFTOOLKIT-226
p250
aVODFTOOLKIT-225
p251
aVODFTOOLKIT-224
p252
aVODFTOOLKIT-223
p253
aVODFTOOLKIT-222
p254
aVODFTOOLKIT-221
p255
aVODFTOOLKIT-220
p256
aVODFTOOLKIT-219
p257
aVODFTOOLKIT-218
p258
aVODFTOOLKIT-217
p259
aVODFTOOLKIT-216
p260
aVODFTOOLKIT-215
p261
aVODFTOOLKIT-214
p262
aVODFTOOLKIT-213
p263
aVODFTOOLKIT-212
p264
aVODFTOOLKIT-211
p265
aVODFTOOLKIT-210
p266
aVODFTOOLKIT-209
p267
aVODFTOOLKIT-208
p268
aVODFTOOLKIT-207
p269
aVODFTOOLKIT-206
p270
aVODFTOOLKIT-205
p271
aVODFTOOLKIT-204
p272
aVODFTOOLKIT-203
p273
aVODFTOOLKIT-202
p274
aVODFTOOLKIT-201
p275
aVODFTOOLKIT-200
p276
aVODFTOOLKIT-199
p277
aVODFTOOLKIT-198
p278
aVODFTOOLKIT-197
p279
aVODFTOOLKIT-196
p280
aVODFTOOLKIT-195
p281
aVODFTOOLKIT-194
p282
aVODFTOOLKIT-193
p283
aVODFTOOLKIT-192
p284
aVODFTOOLKIT-191
p285
aVODFTOOLKIT-190
p286
aVODFTOOLKIT-189
p287
aVODFTOOLKIT-188
p288
aVODFTOOLKIT-187
p289
aVODFTOOLKIT-186
p290
aVODFTOOLKIT-185
p291
aVODFTOOLKIT-184
p292
aVODFTOOLKIT-183
p293
aVODFTOOLKIT-182
p294
aVODFTOOLKIT-181
p295
aVODFTOOLKIT-180
p296
aVODFTOOLKIT-179
p297
aVODFTOOLKIT-178
p298
aVODFTOOLKIT-177
p299
aVODFTOOLKIT-176
p300
aVODFTOOLKIT-175
p301
aVODFTOOLKIT-174
p302
aVODFTOOLKIT-173
p303
aVODFTOOLKIT-172
p304
aVODFTOOLKIT-171
p305
aVODFTOOLKIT-170
p306
aVODFTOOLKIT-169
p307
aVODFTOOLKIT-168
p308
aVODFTOOLKIT-167
p309
aVODFTOOLKIT-166
p310
aVODFTOOLKIT-165
p311
aVODFTOOLKIT-164
p312
aVODFTOOLKIT-163
p313
aVODFTOOLKIT-162
p314
aVODFTOOLKIT-161
p315
aVODFTOOLKIT-160
p316
aVODFTOOLKIT-159
p317
aVODFTOOLKIT-158
p318
aVODFTOOLKIT-157
p319
aVODFTOOLKIT-156
p320
aVODFTOOLKIT-155
p321
aVODFTOOLKIT-154
p322
aVODFTOOLKIT-153
p323
aVODFTOOLKIT-152
p324
aVODFTOOLKIT-151
p325
aVODFTOOLKIT-150
p326
aVODFTOOLKIT-149
p327
aVODFTOOLKIT-148
p328
aVODFTOOLKIT-147
p329
aVODFTOOLKIT-146
p330
aVODFTOOLKIT-145
p331
aVODFTOOLKIT-144
p332
aVODFTOOLKIT-143
p333
aVODFTOOLKIT-142
p334
aVODFTOOLKIT-141
p335
aVODFTOOLKIT-140
p336
aVODFTOOLKIT-139
p337
aVODFTOOLKIT-138
p338
aVODFTOOLKIT-137
p339
aVODFTOOLKIT-136
p340
aVODFTOOLKIT-135
p341
aVODFTOOLKIT-134
p342
aVODFTOOLKIT-133
p343
aVODFTOOLKIT-132
p344
aVODFTOOLKIT-131
p345
aVODFTOOLKIT-130
p346
aVODFTOOLKIT-129
p347
aVODFTOOLKIT-128
p348
aVODFTOOLKIT-127
p349
aVODFTOOLKIT-126
p350
aVODFTOOLKIT-125
p351
aVODFTOOLKIT-124
p352
aVODFTOOLKIT-123
p353
aVODFTOOLKIT-122
p354
aVODFTOOLKIT-121
p355
aVODFTOOLKIT-120
p356
aVODFTOOLKIT-119
p357
aVODFTOOLKIT-118
p358
aVODFTOOLKIT-117
p359
aVODFTOOLKIT-116
p360
aVODFTOOLKIT-115
p361
aVODFTOOLKIT-114
p362
aVODFTOOLKIT-113
p363
aVODFTOOLKIT-112
p364
aVODFTOOLKIT-111
p365
aVODFTOOLKIT-110
p366
aVODFTOOLKIT-109
p367
aVODFTOOLKIT-108
p368
aVODFTOOLKIT-107
p369
aVODFTOOLKIT-106
p370
aVODFTOOLKIT-105
p371
aVODFTOOLKIT-104
p372
aVODFTOOLKIT-103
p373
aVODFTOOLKIT-102
p374
aVODFTOOLKIT-101
p375
aVODFTOOLKIT-100
p376
aVODFTOOLKIT-99
p377
aVODFTOOLKIT-98
p378
aVODFTOOLKIT-97
p379
aVODFTOOLKIT-96
p380
aVODFTOOLKIT-95
p381
aVODFTOOLKIT-94
p382
aVODFTOOLKIT-93
p383
aVODFTOOLKIT-92
p384
aVODFTOOLKIT-91
p385
aVODFTOOLKIT-90
p386
aVODFTOOLKIT-89
p387
aVODFTOOLKIT-88
p388
aVODFTOOLKIT-87
p389
aVODFTOOLKIT-86
p390
aVODFTOOLKIT-85
p391
aVODFTOOLKIT-84
p392
aVODFTOOLKIT-83
p393
aVODFTOOLKIT-82
p394
aVODFTOOLKIT-81
p395
aVODFTOOLKIT-80
p396
aVODFTOOLKIT-79
p397
aVODFTOOLKIT-78
p398
aVODFTOOLKIT-77
p399
aVODFTOOLKIT-76
p400
aVODFTOOLKIT-75
p401
aVODFTOOLKIT-74
p402
aVODFTOOLKIT-73
p403
aVODFTOOLKIT-72
p404
aVODFTOOLKIT-71
p405
aVODFTOOLKIT-70
p406
aVODFTOOLKIT-69
p407
aVODFTOOLKIT-68
p408
aVODFTOOLKIT-67
p409
aVODFTOOLKIT-66
p410
aVODFTOOLKIT-65
p411
aVODFTOOLKIT-64
p412
aVODFTOOLKIT-63
p413
aVODFTOOLKIT-62
p414
aVODFTOOLKIT-61
p415
aVODFTOOLKIT-60
p416
aVODFTOOLKIT-59
p417
aVODFTOOLKIT-58
p418
aVODFTOOLKIT-57
p419
aVODFTOOLKIT-56
p420
aVODFTOOLKIT-55
p421
aVODFTOOLKIT-54
p422
aVODFTOOLKIT-53
p423
aVODFTOOLKIT-52
p424
aVODFTOOLKIT-51
p425
aVODFTOOLKIT-50
p426
aVODFTOOLKIT-49
p427
aVODFTOOLKIT-48
p428
aVODFTOOLKIT-47
p429
aVODFTOOLKIT-46
p430
aVODFTOOLKIT-45
p431
aVODFTOOLKIT-44
p432
aVODFTOOLKIT-43
p433
aVODFTOOLKIT-42
p434
aVODFTOOLKIT-41
p435
aVODFTOOLKIT-40
p436
aVODFTOOLKIT-39
p437
aVODFTOOLKIT-38
p438
aVODFTOOLKIT-37
p439
aVODFTOOLKIT-36
p440
aVODFTOOLKIT-35
p441
aVODFTOOLKIT-34
p442
aVODFTOOLKIT-33
p443
aVODFTOOLKIT-32
p444
aVODFTOOLKIT-31
p445
aVODFTOOLKIT-30
p446
aVODFTOOLKIT-29
p447
aVODFTOOLKIT-28
p448
aVODFTOOLKIT-27
p449
aVODFTOOLKIT-26
p450
aVODFTOOLKIT-25
p451
aVODFTOOLKIT-24
p452
aVODFTOOLKIT-23
p453
aVODFTOOLKIT-22
p454
aVODFTOOLKIT-21
p455
aVODFTOOLKIT-20
p456
aVODFTOOLKIT-19
p457
aVODFTOOLKIT-18
p458
aVODFTOOLKIT-17
p459
aVODFTOOLKIT-16
p460
aVODFTOOLKIT-15
p461
aVODFTOOLKIT-14
p462
aVODFTOOLKIT-13
p463
aVODFTOOLKIT-12
p464
aVODFTOOLKIT-11
p465
aVODFTOOLKIT-10
p466
aVODFTOOLKIT-9
p467
aVODFTOOLKIT-8
p468
aVODFTOOLKIT-7
p469
aVODFTOOLKIT-6
p470
aVODFTOOLKIT-5
p471
aVODFTOOLKIT-4
p472
aVODFTOOLKIT-3
p473
aVODFTOOLKIT-2
p474
aVODFTOOLKIT-1
p475
a.