(lp0
VOFBIZ-10505
p1
aVOFBIZ-10504
p2
aVOFBIZ-10503
p3
aVOFBIZ-10502
p4
aVOFBIZ-10501
p5
aVOFBIZ-10500
p6
aVOFBIZ-10499
p7
aVOFBIZ-10498
p8
aVOFBIZ-10497
p9
aVOFBIZ-10496
p10
aVOFBIZ-10495
p11
aVOFBIZ-10494
p12
aVOFBIZ-10493
p13
aVOFBIZ-10492
p14
aVOFBIZ-10491
p15
aVOFBIZ-10490
p16
aVOFBIZ-10489
p17
aVOFBIZ-10488
p18
aVOFBIZ-10487
p19
aVOFBIZ-10486
p20
aVOFBIZ-10485
p21
aVOFBIZ-10484
p22
aVOFBIZ-10483
p23
aVOFBIZ-10482
p24
aVOFBIZ-10481
p25
aVOFBIZ-10480
p26
aVOFBIZ-10479
p27
aVOFBIZ-10478
p28
aVOFBIZ-10477
p29
aVOFBIZ-10476
p30
aVOFBIZ-10475
p31
aVOFBIZ-10474
p32
aVOFBIZ-10473
p33
aVOFBIZ-10472
p34
aVOFBIZ-10471
p35
aVOFBIZ-10470
p36
aVOFBIZ-10469
p37
aVOFBIZ-10468
p38
aVOFBIZ-10467
p39
aVOFBIZ-10466
p40
aVOFBIZ-10465
p41
aVOFBIZ-10464
p42
aVOFBIZ-10463
p43
aVOFBIZ-10462
p44
aVOFBIZ-10461
p45
aVOFBIZ-10460
p46
aVOFBIZ-10459
p47
aVOFBIZ-10458
p48
aVOFBIZ-10457
p49
aVOFBIZ-10456
p50
aVOFBIZ-10455
p51
aVOFBIZ-10454
p52
aVOFBIZ-10453
p53
aVOFBIZ-10452
p54
aVOFBIZ-10451
p55
aVOFBIZ-10450
p56
aVOFBIZ-10449
p57
aVOFBIZ-10448
p58
aVOFBIZ-10447
p59
aVOFBIZ-10446
p60
aVOFBIZ-10445
p61
aVOFBIZ-10444
p62
aVOFBIZ-10443
p63
aVOFBIZ-10442
p64
aVOFBIZ-10441
p65
aVOFBIZ-10440
p66
aVOFBIZ-10439
p67
aVOFBIZ-10438
p68
aVOFBIZ-10437
p69
aVOFBIZ-10436
p70
aVOFBIZ-10435
p71
aVOFBIZ-10434
p72
aVOFBIZ-10433
p73
aVOFBIZ-10432
p74
aVOFBIZ-10431
p75
aVOFBIZ-10430
p76
aVOFBIZ-10429
p77
aVOFBIZ-10428
p78
aVOFBIZ-10427
p79
aVOFBIZ-10426
p80
aVOFBIZ-10425
p81
aVOFBIZ-10424
p82
aVOFBIZ-10423
p83
aVOFBIZ-10422
p84
aVOFBIZ-10421
p85
aVOFBIZ-10420
p86
aVOFBIZ-10419
p87
aVOFBIZ-10418
p88
aVOFBIZ-10417
p89
aVOFBIZ-10416
p90
aVOFBIZ-10415
p91
aVOFBIZ-10414
p92
aVOFBIZ-10413
p93
aVOFBIZ-10412
p94
aVOFBIZ-10411
p95
aVOFBIZ-10410
p96
aVOFBIZ-10409
p97
aVOFBIZ-10408
p98
aVOFBIZ-10407
p99
aVOFBIZ-10406
p100
aVOFBIZ-10405
p101
aVOFBIZ-10404
p102
aVOFBIZ-10403
p103
aVOFBIZ-10402
p104
aVOFBIZ-10401
p105
aVOFBIZ-10400
p106
aVOFBIZ-10399
p107
aVOFBIZ-10398
p108
aVOFBIZ-10397
p109
aVOFBIZ-10396
p110
aVOFBIZ-10395
p111
aVOFBIZ-10394
p112
aVOFBIZ-10393
p113
aVOFBIZ-10392
p114
aVOFBIZ-10391
p115
aVOFBIZ-10390
p116
aVOFBIZ-10389
p117
aVOFBIZ-10388
p118
aVOFBIZ-10387
p119
aVOFBIZ-10386
p120
aVOFBIZ-10385
p121
aVOFBIZ-10384
p122
aVOFBIZ-10383
p123
aVOFBIZ-10382
p124
aVOFBIZ-10381
p125
aVOFBIZ-10380
p126
aVOFBIZ-10379
p127
aVOFBIZ-10378
p128
aVOFBIZ-10377
p129
aVOFBIZ-10376
p130
aVOFBIZ-10375
p131
aVOFBIZ-10374
p132
aVOFBIZ-10373
p133
aVOFBIZ-10372
p134
aVOFBIZ-10371
p135
aVOFBIZ-10370
p136
aVOFBIZ-10369
p137
aVOFBIZ-10368
p138
aVOFBIZ-10367
p139
aVOFBIZ-10366
p140
aVOFBIZ-10365
p141
aVOFBIZ-10364
p142
aVOFBIZ-10363
p143
aVOFBIZ-10362
p144
aVOFBIZ-10361
p145
aVOFBIZ-10360
p146
aVOFBIZ-10359
p147
aVOFBIZ-10358
p148
aVOFBIZ-10357
p149
aVOFBIZ-10356
p150
aVOFBIZ-10355
p151
aVOFBIZ-10354
p152
aVOFBIZ-10353
p153
aVOFBIZ-10352
p154
aVOFBIZ-10351
p155
aVOFBIZ-10350
p156
aVOFBIZ-10349
p157
aVOFBIZ-10348
p158
aVOFBIZ-10347
p159
aVOFBIZ-10346
p160
aVOFBIZ-10345
p161
aVOFBIZ-10344
p162
aVOFBIZ-10343
p163
aVOFBIZ-10342
p164
aVOFBIZ-10341
p165
aVOFBIZ-10340
p166
aVOFBIZ-10339
p167
aVOFBIZ-10338
p168
aVOFBIZ-10337
p169
aVOFBIZ-10336
p170
aVOFBIZ-10335
p171
aVOFBIZ-10334
p172
aVOFBIZ-10333
p173
aVOFBIZ-10332
p174
aVOFBIZ-10331
p175
aVOFBIZ-10330
p176
aVOFBIZ-10329
p177
aVOFBIZ-10328
p178
aVOFBIZ-10327
p179
aVOFBIZ-10326
p180
aVOFBIZ-10325
p181
aVOFBIZ-10324
p182
aVOFBIZ-10323
p183
aVOFBIZ-10322
p184
aVOFBIZ-10321
p185
aVOFBIZ-10320
p186
aVOFBIZ-10319
p187
aVOFBIZ-10318
p188
aVOFBIZ-10317
p189
aVOFBIZ-10316
p190
aVOFBIZ-10315
p191
aVOFBIZ-10314
p192
aVOFBIZ-10313
p193
aVOFBIZ-10312
p194
aVOFBIZ-10311
p195
aVOFBIZ-10310
p196
aVOFBIZ-10309
p197
aVOFBIZ-10308
p198
aVOFBIZ-10307
p199
aVOFBIZ-10306
p200
aVOFBIZ-10304
p201
aVOFBIZ-10303
p202
aVOFBIZ-10302
p203
aVOFBIZ-10301
p204
aVOFBIZ-10300
p205
aVOFBIZ-10299
p206
aVOFBIZ-10298
p207
aVOFBIZ-10297
p208
aVOFBIZ-10296
p209
aVOFBIZ-10295
p210
aVOFBIZ-10294
p211
aVOFBIZ-10293
p212
aVOFBIZ-10292
p213
aVOFBIZ-10291
p214
aVOFBIZ-10290
p215
aVOFBIZ-10289
p216
aVOFBIZ-10288
p217
aVOFBIZ-10287
p218
aVOFBIZ-10286
p219
aVOFBIZ-10285
p220
aVOFBIZ-10284
p221
aVOFBIZ-10283
p222
aVOFBIZ-10282
p223
aVOFBIZ-10281
p224
aVOFBIZ-10280
p225
aVOFBIZ-10279
p226
aVOFBIZ-10278
p227
aVOFBIZ-10277
p228
aVOFBIZ-10276
p229
aVOFBIZ-10275
p230
aVOFBIZ-10274
p231
aVOFBIZ-10273
p232
aVOFBIZ-10272
p233
aVOFBIZ-10271
p234
aVOFBIZ-10270
p235
aVOFBIZ-10269
p236
aVOFBIZ-10268
p237
aVOFBIZ-10267
p238
aVOFBIZ-10266
p239
aVOFBIZ-10265
p240
aVOFBIZ-10264
p241
aVOFBIZ-10263
p242
aVOFBIZ-10262
p243
aVOFBIZ-10261
p244
aVOFBIZ-10260
p245
aVOFBIZ-10259
p246
aVOFBIZ-10258
p247
aVOFBIZ-10257
p248
aVOFBIZ-10256
p249
aVOFBIZ-10255
p250
aVOFBIZ-10254
p251
aVOFBIZ-10253
p252
aVOFBIZ-10252
p253
aVOFBIZ-10251
p254
aVOFBIZ-10250
p255
aVOFBIZ-10249
p256
aVOFBIZ-10248
p257
aVOFBIZ-10247
p258
aVOFBIZ-10246
p259
aVOFBIZ-10245
p260
aVOFBIZ-10244
p261
aVOFBIZ-10243
p262
aVOFBIZ-10242
p263
aVOFBIZ-10241
p264
aVOFBIZ-10240
p265
aVOFBIZ-10239
p266
aVOFBIZ-10238
p267
aVOFBIZ-10237
p268
aVOFBIZ-10236
p269
aVOFBIZ-10235
p270
aVOFBIZ-10234
p271
aVOFBIZ-10233
p272
aVOFBIZ-10232
p273
aVOFBIZ-10231
p274
aVOFBIZ-10230
p275
aVOFBIZ-10228
p276
aVOFBIZ-10227
p277
aVOFBIZ-10226
p278
aVOFBIZ-10225
p279
aVOFBIZ-10224
p280
aVOFBIZ-10223
p281
aVOFBIZ-10222
p282
aVOFBIZ-10221
p283
aVOFBIZ-10220
p284
aVOFBIZ-10219
p285
aVOFBIZ-10218
p286
aVOFBIZ-10217
p287
aVOFBIZ-10216
p288
aVOFBIZ-10215
p289
aVOFBIZ-10214
p290
aVOFBIZ-10213
p291
aVOFBIZ-10212
p292
aVOFBIZ-10211
p293
aVOFBIZ-10210
p294
aVOFBIZ-10209
p295
aVOFBIZ-10208
p296
aVOFBIZ-10207
p297
aVOFBIZ-10206
p298
aVOFBIZ-10205
p299
aVOFBIZ-10204
p300
aVOFBIZ-10203
p301
aVOFBIZ-10202
p302
aVOFBIZ-10201
p303
aVOFBIZ-10200
p304
aVOFBIZ-10199
p305
aVOFBIZ-10198
p306
aVOFBIZ-10197
p307
aVOFBIZ-10196
p308
aVOFBIZ-10195
p309
aVOFBIZ-10194
p310
aVOFBIZ-10193
p311
aVOFBIZ-10192
p312
aVOFBIZ-10191
p313
aVOFBIZ-10190
p314
aVOFBIZ-10189
p315
aVOFBIZ-10188
p316
aVOFBIZ-10187
p317
aVOFBIZ-10186
p318
aVOFBIZ-10185
p319
aVOFBIZ-10184
p320
aVOFBIZ-10183
p321
aVOFBIZ-10182
p322
aVOFBIZ-10181
p323
aVOFBIZ-10180
p324
aVOFBIZ-10179
p325
aVOFBIZ-10178
p326
aVOFBIZ-10177
p327
aVOFBIZ-10176
p328
aVOFBIZ-10175
p329
aVOFBIZ-10174
p330
aVOFBIZ-10173
p331
aVOFBIZ-10172
p332
aVOFBIZ-10171
p333
aVOFBIZ-10170
p334
aVOFBIZ-10169
p335
aVOFBIZ-10168
p336
aVOFBIZ-10167
p337
aVOFBIZ-10166
p338
aVOFBIZ-10165
p339
aVOFBIZ-10164
p340
aVOFBIZ-10163
p341
aVOFBIZ-10162
p342
aVOFBIZ-10161
p343
aVOFBIZ-10160
p344
aVOFBIZ-10159
p345
aVOFBIZ-10158
p346
aVOFBIZ-10157
p347
aVOFBIZ-10156
p348
aVOFBIZ-10155
p349
aVOFBIZ-10154
p350
aVOFBIZ-10153
p351
aVOFBIZ-10152
p352
aVOFBIZ-10151
p353
aVOFBIZ-10150
p354
aVOFBIZ-10149
p355
aVOFBIZ-10148
p356
aVOFBIZ-10147
p357
aVOFBIZ-10146
p358
aVOFBIZ-10145
p359
aVOFBIZ-10144
p360
aVOFBIZ-10143
p361
aVOFBIZ-10142
p362
aVOFBIZ-10141
p363
aVOFBIZ-10140
p364
aVOFBIZ-10139
p365
aVOFBIZ-10138
p366
aVOFBIZ-10137
p367
aVOFBIZ-10136
p368
aVOFBIZ-10135
p369
aVOFBIZ-10134
p370
aVOFBIZ-10133
p371
aVOFBIZ-10132
p372
aVOFBIZ-10131
p373
aVOFBIZ-10130
p374
aVOFBIZ-10129
p375
aVOFBIZ-10128
p376
aVOFBIZ-10127
p377
aVOFBIZ-10126
p378
aVOFBIZ-10125
p379
aVOFBIZ-10124
p380
aVOFBIZ-10123
p381
aVOFBIZ-10122
p382
aVOFBIZ-10121
p383
aVOFBIZ-10120
p384
aVOFBIZ-10119
p385
aVOFBIZ-10118
p386
aVOFBIZ-10117
p387
aVOFBIZ-10116
p388
aVOFBIZ-10115
p389
aVOFBIZ-10114
p390
aVOFBIZ-10113
p391
aVOFBIZ-10112
p392
aVOFBIZ-10111
p393
aVOFBIZ-10110
p394
aVOFBIZ-10109
p395
aVOFBIZ-10108
p396
aVOFBIZ-10107
p397
aVOFBIZ-10106
p398
aVOFBIZ-10105
p399
aVOFBIZ-10104
p400
aVOFBIZ-10103
p401
aVOFBIZ-10102
p402
aVOFBIZ-10101
p403
aVOFBIZ-10100
p404
aVOFBIZ-10099
p405
aVOFBIZ-10098
p406
aVOFBIZ-10097
p407
aVOFBIZ-10096
p408
aVOFBIZ-10095
p409
aVOFBIZ-10094
p410
aVOFBIZ-10093
p411
aVOFBIZ-10092
p412
aVOFBIZ-10091
p413
aVOFBIZ-10090
p414
aVOFBIZ-10089
p415
aVOFBIZ-10088
p416
aVOFBIZ-10087
p417
aVOFBIZ-10086
p418
aVOFBIZ-10085
p419
aVOFBIZ-10084
p420
aVOFBIZ-10083
p421
aVOFBIZ-10082
p422
aVOFBIZ-10081
p423
aVOFBIZ-10080
p424
aVOFBIZ-10079
p425
aVOFBIZ-10078
p426
aVOFBIZ-10077
p427
aVOFBIZ-10076
p428
aVOFBIZ-10075
p429
aVOFBIZ-10074
p430
aVOFBIZ-10073
p431
aVOFBIZ-10072
p432
aVOFBIZ-10071
p433
aVOFBIZ-10070
p434
aVOFBIZ-10069
p435
aVOFBIZ-10068
p436
aVOFBIZ-10067
p437
aVOFBIZ-10066
p438
aVOFBIZ-10065
p439
aVOFBIZ-10064
p440
aVOFBIZ-10063
p441
aVOFBIZ-10062
p442
aVOFBIZ-10061
p443
aVOFBIZ-10060
p444
aVOFBIZ-10059
p445
aVOFBIZ-10058
p446
aVOFBIZ-10057
p447
aVOFBIZ-10056
p448
aVOFBIZ-10055
p449
aVOFBIZ-10054
p450
aVOFBIZ-10053
p451
aVOFBIZ-10052
p452
aVOFBIZ-10051
p453
aVOFBIZ-10050
p454
aVOFBIZ-10049
p455
aVOFBIZ-10048
p456
aVOFBIZ-10047
p457
aVOFBIZ-10046
p458
aVOFBIZ-10045
p459
aVOFBIZ-10044
p460
aVOFBIZ-10043
p461
aVOFBIZ-10042
p462
aVOFBIZ-10041
p463
aVOFBIZ-10040
p464
aVOFBIZ-10039
p465
aVOFBIZ-10038
p466
aVOFBIZ-10037
p467
aVOFBIZ-10036
p468
aVOFBIZ-10035
p469
aVOFBIZ-10034
p470
aVOFBIZ-10033
p471
aVOFBIZ-10032
p472
aVOFBIZ-10031
p473
aVOFBIZ-10030
p474
aVOFBIZ-10029
p475
aVOFBIZ-10028
p476
aVOFBIZ-10027
p477
aVOFBIZ-10026
p478
aVOFBIZ-10025
p479
aVOFBIZ-10024
p480
aVOFBIZ-10023
p481
aVOFBIZ-10022
p482
aVOFBIZ-10021
p483
aVOFBIZ-10020
p484
aVOFBIZ-10019
p485
aVOFBIZ-10018
p486
aVOFBIZ-10017
p487
aVOFBIZ-10016
p488
aVOFBIZ-10015
p489
aVOFBIZ-10014
p490
aVOFBIZ-10013
p491
aVOFBIZ-10012
p492
aVOFBIZ-10011
p493
aVOFBIZ-10010
p494
aVOFBIZ-10009
p495
aVOFBIZ-10008
p496
aVOFBIZ-10007
p497
aVOFBIZ-10006
p498
aVOFBIZ-10005
p499
aVOFBIZ-10004
p500
aVOFBIZ-10003
p501
aVOFBIZ-10002
p502
aVOFBIZ-10001
p503
aVOFBIZ-10000
p504
aVOFBIZ-9999
p505
aVOFBIZ-9998
p506
aVOFBIZ-9997
p507
aVOFBIZ-9996
p508
aVOFBIZ-9995
p509
aVOFBIZ-9994
p510
aVOFBIZ-9993
p511
aVOFBIZ-9992
p512
aVOFBIZ-9991
p513
aVOFBIZ-9990
p514
aVOFBIZ-9989
p515
aVOFBIZ-9988
p516
aVOFBIZ-9987
p517
aVOFBIZ-9986
p518
aVOFBIZ-9985
p519
aVOFBIZ-9984
p520
aVOFBIZ-9983
p521
aVOFBIZ-9982
p522
aVOFBIZ-9981
p523
aVOFBIZ-9980
p524
aVOFBIZ-9979
p525
aVOFBIZ-9978
p526
aVOFBIZ-9977
p527
aVOFBIZ-9976
p528
aVOFBIZ-9975
p529
aVOFBIZ-9974
p530
aVOFBIZ-9973
p531
aVOFBIZ-9972
p532
aVOFBIZ-9971
p533
aVOFBIZ-9970
p534
aVOFBIZ-9969
p535
aVOFBIZ-9968
p536
aVOFBIZ-9967
p537
aVOFBIZ-9966
p538
aVOFBIZ-9965
p539
aVOFBIZ-9964
p540
aVOFBIZ-9963
p541
aVOFBIZ-9962
p542
aVOFBIZ-9961
p543
aVOFBIZ-9960
p544
aVOFBIZ-9959
p545
aVOFBIZ-9958
p546
aVOFBIZ-9957
p547
aVOFBIZ-9956
p548
aVOFBIZ-9955
p549
aVOFBIZ-9954
p550
aVOFBIZ-9953
p551
aVOFBIZ-9952
p552
aVOFBIZ-9951
p553
aVOFBIZ-9950
p554
aVOFBIZ-9949
p555
aVOFBIZ-9948
p556
aVOFBIZ-9947
p557
aVOFBIZ-9946
p558
aVOFBIZ-9945
p559
aVOFBIZ-9944
p560
aVOFBIZ-9943
p561
aVOFBIZ-9942
p562
aVOFBIZ-9941
p563
aVOFBIZ-9940
p564
aVOFBIZ-9939
p565
aVOFBIZ-9938
p566
aVOFBIZ-9937
p567
aVOFBIZ-9936
p568
aVOFBIZ-9935
p569
aVOFBIZ-9934
p570
aVOFBIZ-9933
p571
aVOFBIZ-9932
p572
aVOFBIZ-9931
p573
aVOFBIZ-9930
p574
aVOFBIZ-9929
p575
aVOFBIZ-9928
p576
aVOFBIZ-9927
p577
aVOFBIZ-9926
p578
aVOFBIZ-9925
p579
aVOFBIZ-9924
p580
aVOFBIZ-9923
p581
aVOFBIZ-9922
p582
aVOFBIZ-9921
p583
aVOFBIZ-9919
p584
aVOFBIZ-9918
p585
aVOFBIZ-9917
p586
aVOFBIZ-9916
p587
aVOFBIZ-9915
p588
aVOFBIZ-9914
p589
aVOFBIZ-9913
p590
aVOFBIZ-9912
p591
aVOFBIZ-9911
p592
aVOFBIZ-9910
p593
aVOFBIZ-9909
p594
aVOFBIZ-9908
p595
aVOFBIZ-9907
p596
aVOFBIZ-9906
p597
aVOFBIZ-9905
p598
aVOFBIZ-9904
p599
aVOFBIZ-9903
p600
aVOFBIZ-9902
p601
aVOFBIZ-9901
p602
aVOFBIZ-9900
p603
aVOFBIZ-9899
p604
aVOFBIZ-9898
p605
aVOFBIZ-9897
p606
aVOFBIZ-9896
p607
aVOFBIZ-9895
p608
aVOFBIZ-9894
p609
aVOFBIZ-9893
p610
aVOFBIZ-9892
p611
aVOFBIZ-9891
p612
aVOFBIZ-9890
p613
aVOFBIZ-9889
p614
aVOFBIZ-9888
p615
aVOFBIZ-9887
p616
aVOFBIZ-9886
p617
aVOFBIZ-9885
p618
aVOFBIZ-9884
p619
aVOFBIZ-9883
p620
aVOFBIZ-9882
p621
aVOFBIZ-9881
p622
aVOFBIZ-9880
p623
aVOFBIZ-9879
p624
aVOFBIZ-9878
p625
aVOFBIZ-9877
p626
aVOFBIZ-9876
p627
aVOFBIZ-9875
p628
aVOFBIZ-9874
p629
aVOFBIZ-9873
p630
aVOFBIZ-9872
p631
aVOFBIZ-9871
p632
aVOFBIZ-9870
p633
aVOFBIZ-9869
p634
aVOFBIZ-9868
p635
aVOFBIZ-9867
p636
aVOFBIZ-9866
p637
aVOFBIZ-9865
p638
aVOFBIZ-9864
p639
aVOFBIZ-9863
p640
aVOFBIZ-9862
p641
aVOFBIZ-9861
p642
aVOFBIZ-9860
p643
aVOFBIZ-9859
p644
aVOFBIZ-9858
p645
aVOFBIZ-9857
p646
aVOFBIZ-9856
p647
aVOFBIZ-9855
p648
aVOFBIZ-9854
p649
aVOFBIZ-9853
p650
aVOFBIZ-9852
p651
aVOFBIZ-9851
p652
aVOFBIZ-9850
p653
aVOFBIZ-9849
p654
aVOFBIZ-9848
p655
aVOFBIZ-9847
p656
aVOFBIZ-9846
p657
aVOFBIZ-9845
p658
aVOFBIZ-9844
p659
aVOFBIZ-9843
p660
aVOFBIZ-9842
p661
aVOFBIZ-9841
p662
aVOFBIZ-9840
p663
aVOFBIZ-9839
p664
aVOFBIZ-9838
p665
aVOFBIZ-9837
p666
aVOFBIZ-9836
p667
aVOFBIZ-9835
p668
aVOFBIZ-9834
p669
aVOFBIZ-9833
p670
aVOFBIZ-9832
p671
aVOFBIZ-9831
p672
aVOFBIZ-9830
p673
aVOFBIZ-9829
p674
aVOFBIZ-9828
p675
aVOFBIZ-9827
p676
aVOFBIZ-9826
p677
aVOFBIZ-9825
p678
aVOFBIZ-9824
p679
aVOFBIZ-9823
p680
aVOFBIZ-9822
p681
aVOFBIZ-9821
p682
aVOFBIZ-9820
p683
aVOFBIZ-9819
p684
aVOFBIZ-9818
p685
aVOFBIZ-9817
p686
aVOFBIZ-9816
p687
aVOFBIZ-9815
p688
aVOFBIZ-9814
p689
aVOFBIZ-9813
p690
aVOFBIZ-9812
p691
aVOFBIZ-9811
p692
aVOFBIZ-9810
p693
aVOFBIZ-9809
p694
aVOFBIZ-9808
p695
aVOFBIZ-9807
p696
aVOFBIZ-9806
p697
aVOFBIZ-9805
p698
aVOFBIZ-9804
p699
aVOFBIZ-9803
p700
aVOFBIZ-9802
p701
aVOFBIZ-9801
p702
aVOFBIZ-9800
p703
aVOFBIZ-9799
p704
aVOFBIZ-9798
p705
aVOFBIZ-9797
p706
aVOFBIZ-9796
p707
aVOFBIZ-9795
p708
aVOFBIZ-9794
p709
aVOFBIZ-9793
p710
aVOFBIZ-9792
p711
aVOFBIZ-9791
p712
aVOFBIZ-9790
p713
aVOFBIZ-9789
p714
aVOFBIZ-9788
p715
aVOFBIZ-9787
p716
aVOFBIZ-9786
p717
aVOFBIZ-9785
p718
aVOFBIZ-9784
p719
aVOFBIZ-9783
p720
aVOFBIZ-9782
p721
aVOFBIZ-9781
p722
aVOFBIZ-9780
p723
aVOFBIZ-9779
p724
aVOFBIZ-9778
p725
aVOFBIZ-9777
p726
aVOFBIZ-9776
p727
aVOFBIZ-9775
p728
aVOFBIZ-9774
p729
aVOFBIZ-9773
p730
aVOFBIZ-9772
p731
aVOFBIZ-9771
p732
aVOFBIZ-9770
p733
aVOFBIZ-9769
p734
aVOFBIZ-9768
p735
aVOFBIZ-9767
p736
aVOFBIZ-9766
p737
aVOFBIZ-9765
p738
aVOFBIZ-9764
p739
aVOFBIZ-9763
p740
aVOFBIZ-9762
p741
aVOFBIZ-9761
p742
aVOFBIZ-9760
p743
aVOFBIZ-9759
p744
aVOFBIZ-9758
p745
aVOFBIZ-9757
p746
aVOFBIZ-9756
p747
aVOFBIZ-9755
p748
aVOFBIZ-9754
p749
aVOFBIZ-9753
p750
aVOFBIZ-9752
p751
aVOFBIZ-9751
p752
aVOFBIZ-9750
p753
aVOFBIZ-9749
p754
aVOFBIZ-9748
p755
aVOFBIZ-9747
p756
aVOFBIZ-9746
p757
aVOFBIZ-9745
p758
aVOFBIZ-9744
p759
aVOFBIZ-9743
p760
aVOFBIZ-9742
p761
aVOFBIZ-9741
p762
aVOFBIZ-9740
p763
aVOFBIZ-9739
p764
aVOFBIZ-9738
p765
aVOFBIZ-9737
p766
aVOFBIZ-9736
p767
aVOFBIZ-9735
p768
aVOFBIZ-9734
p769
aVOFBIZ-9733
p770
aVOFBIZ-9732
p771
aVOFBIZ-9731
p772
aVOFBIZ-9730
p773
aVOFBIZ-9729
p774
aVOFBIZ-9728
p775
aVOFBIZ-9727
p776
aVOFBIZ-9726
p777
aVOFBIZ-9725
p778
aVOFBIZ-9724
p779
aVOFBIZ-9723
p780
aVOFBIZ-9722
p781
aVOFBIZ-9721
p782
aVOFBIZ-9720
p783
aVOFBIZ-9719
p784
aVOFBIZ-9718
p785
aVOFBIZ-9717
p786
aVOFBIZ-9716
p787
aVOFBIZ-9715
p788
aVOFBIZ-9714
p789
aVOFBIZ-9713
p790
aVOFBIZ-9712
p791
aVOFBIZ-9711
p792
aVOFBIZ-9710
p793
aVOFBIZ-9709
p794
aVOFBIZ-9708
p795
aVOFBIZ-9707
p796
aVOFBIZ-9706
p797
aVOFBIZ-9705
p798
aVOFBIZ-9704
p799
aVOFBIZ-9703
p800
aVOFBIZ-9702
p801
aVOFBIZ-9701
p802
aVOFBIZ-9700
p803
aVOFBIZ-9699
p804
aVOFBIZ-9698
p805
aVOFBIZ-9697
p806
aVOFBIZ-9696
p807
aVOFBIZ-9695
p808
aVOFBIZ-9694
p809
aVOFBIZ-9693
p810
aVOFBIZ-9692
p811
aVOFBIZ-9691
p812
aVOFBIZ-9690
p813
aVOFBIZ-9689
p814
aVOFBIZ-9688
p815
aVOFBIZ-9687
p816
aVOFBIZ-9686
p817
aVOFBIZ-9685
p818
aVOFBIZ-9684
p819
aVOFBIZ-9683
p820
aVOFBIZ-9682
p821
aVOFBIZ-9681
p822
aVOFBIZ-9680
p823
aVOFBIZ-9679
p824
aVOFBIZ-9678
p825
aVOFBIZ-9677
p826
aVOFBIZ-9676
p827
aVOFBIZ-9675
p828
aVOFBIZ-9674
p829
aVOFBIZ-9673
p830
aVOFBIZ-9672
p831
aVOFBIZ-9671
p832
aVOFBIZ-9670
p833
aVOFBIZ-9669
p834
aVOFBIZ-9668
p835
aVOFBIZ-9667
p836
aVOFBIZ-9666
p837
aVOFBIZ-9665
p838
aVOFBIZ-9664
p839
aVOFBIZ-9663
p840
aVOFBIZ-9662
p841
aVOFBIZ-9661
p842
aVOFBIZ-9660
p843
aVOFBIZ-9659
p844
aVOFBIZ-9658
p845
aVOFBIZ-9657
p846
aVOFBIZ-9656
p847
aVOFBIZ-9655
p848
aVOFBIZ-9654
p849
aVOFBIZ-9653
p850
aVOFBIZ-9652
p851
aVOFBIZ-9651
p852
aVOFBIZ-9650
p853
aVOFBIZ-9649
p854
aVOFBIZ-9648
p855
aVOFBIZ-9647
p856
aVOFBIZ-9646
p857
aVOFBIZ-9645
p858
aVOFBIZ-9644
p859
aVOFBIZ-9643
p860
aVOFBIZ-9642
p861
aVOFBIZ-9641
p862
aVOFBIZ-9640
p863
aVOFBIZ-9639
p864
aVOFBIZ-9638
p865
aVOFBIZ-9637
p866
aVOFBIZ-9636
p867
aVOFBIZ-9635
p868
aVOFBIZ-9634
p869
aVOFBIZ-9633
p870
aVOFBIZ-9632
p871
aVOFBIZ-9631
p872
aVOFBIZ-9630
p873
aVOFBIZ-9629
p874
aVOFBIZ-9628
p875
aVOFBIZ-9627
p876
aVOFBIZ-9626
p877
aVOFBIZ-9625
p878
aVOFBIZ-9624
p879
aVOFBIZ-9623
p880
aVOFBIZ-9622
p881
aVOFBIZ-9621
p882
aVOFBIZ-9620
p883
aVOFBIZ-9619
p884
aVOFBIZ-9618
p885
aVOFBIZ-9617
p886
aVOFBIZ-9616
p887
aVOFBIZ-9615
p888
aVOFBIZ-9614
p889
aVOFBIZ-9613
p890
aVOFBIZ-9612
p891
aVOFBIZ-9611
p892
aVOFBIZ-9610
p893
aVOFBIZ-9609
p894
aVOFBIZ-9608
p895
aVOFBIZ-9607
p896
aVOFBIZ-9606
p897
aVOFBIZ-9605
p898
aVOFBIZ-9604
p899
aVOFBIZ-9603
p900
aVOFBIZ-9602
p901
aVOFBIZ-9601
p902
aVOFBIZ-9600
p903
aVOFBIZ-9599
p904
aVOFBIZ-9598
p905
aVOFBIZ-9597
p906
aVOFBIZ-9596
p907
aVOFBIZ-9595
p908
aVOFBIZ-9594
p909
aVOFBIZ-9593
p910
aVOFBIZ-9592
p911
aVOFBIZ-9591
p912
aVOFBIZ-9590
p913
aVOFBIZ-9589
p914
aVOFBIZ-9588
p915
aVOFBIZ-9587
p916
aVOFBIZ-9586
p917
aVOFBIZ-9585
p918
aVOFBIZ-9584
p919
aVOFBIZ-9583
p920
aVOFBIZ-9582
p921
aVOFBIZ-9581
p922
aVOFBIZ-9580
p923
aVOFBIZ-9579
p924
aVOFBIZ-9578
p925
aVOFBIZ-9577
p926
aVOFBIZ-9576
p927
aVOFBIZ-9575
p928
aVOFBIZ-9574
p929
aVOFBIZ-9573
p930
aVOFBIZ-9572
p931
aVOFBIZ-9571
p932
aVOFBIZ-9570
p933
aVOFBIZ-9569
p934
aVOFBIZ-9568
p935
aVOFBIZ-9567
p936
aVOFBIZ-9566
p937
aVOFBIZ-9565
p938
aVOFBIZ-9564
p939
aVOFBIZ-9563
p940
aVOFBIZ-9562
p941
aVOFBIZ-9561
p942
aVOFBIZ-9560
p943
aVOFBIZ-9559
p944
aVOFBIZ-9558
p945
aVOFBIZ-9557
p946
aVOFBIZ-9556
p947
aVOFBIZ-9555
p948
aVOFBIZ-9554
p949
aVOFBIZ-9553
p950
aVOFBIZ-9552
p951
aVOFBIZ-9551
p952
aVOFBIZ-9550
p953
aVOFBIZ-9549
p954
aVOFBIZ-9548
p955
aVOFBIZ-9547
p956
aVOFBIZ-9546
p957
aVOFBIZ-9545
p958
aVOFBIZ-9544
p959
aVOFBIZ-9543
p960
aVOFBIZ-9542
p961
aVOFBIZ-9541
p962
aVOFBIZ-9540
p963
aVOFBIZ-9539
p964
aVOFBIZ-9538
p965
aVOFBIZ-9537
p966
aVOFBIZ-9536
p967
aVOFBIZ-9535
p968
aVOFBIZ-9534
p969
aVOFBIZ-9533
p970
aVOFBIZ-9532
p971
aVOFBIZ-9531
p972
aVOFBIZ-9530
p973
aVOFBIZ-9529
p974
aVOFBIZ-9528
p975
aVOFBIZ-9527
p976
aVOFBIZ-9526
p977
aVOFBIZ-9525
p978
aVOFBIZ-9524
p979
aVOFBIZ-9523
p980
aVOFBIZ-9522
p981
aVOFBIZ-9521
p982
aVOFBIZ-9520
p983
aVOFBIZ-9519
p984
aVOFBIZ-9518
p985
aVOFBIZ-9517
p986
aVOFBIZ-9516
p987
aVOFBIZ-9515
p988
aVOFBIZ-9514
p989
aVOFBIZ-9513
p990
aVOFBIZ-9512
p991
aVOFBIZ-9511
p992
aVOFBIZ-9510
p993
aVOFBIZ-9509
p994
aVOFBIZ-9508
p995
aVOFBIZ-9507
p996
aVOFBIZ-9506
p997
aVOFBIZ-9505
p998
aVOFBIZ-9504
p999
aVOFBIZ-9503
p1000
aVOFBIZ-9502
p1001
aVOFBIZ-9501
p1002
aVOFBIZ-9500
p1003
aVOFBIZ-9499
p1004
aVOFBIZ-9498
p1005
aVOFBIZ-9497
p1006
aVOFBIZ-9496
p1007
aVOFBIZ-9495
p1008
aVOFBIZ-9494
p1009
aVOFBIZ-9493
p1010
aVOFBIZ-9492
p1011
aVOFBIZ-9491
p1012
aVOFBIZ-9490
p1013
aVOFBIZ-9489
p1014
aVOFBIZ-9488
p1015
aVOFBIZ-9487
p1016
aVOFBIZ-9486
p1017
aVOFBIZ-9485
p1018
aVOFBIZ-9484
p1019
aVOFBIZ-9483
p1020
aVOFBIZ-9482
p1021
aVOFBIZ-9481
p1022
aVOFBIZ-9480
p1023
aVOFBIZ-9479
p1024
aVOFBIZ-9478
p1025
aVOFBIZ-9477
p1026
aVOFBIZ-9476
p1027
aVOFBIZ-9475
p1028
aVOFBIZ-9474
p1029
aVOFBIZ-9473
p1030
aVOFBIZ-9472
p1031
aVOFBIZ-9471
p1032
aVOFBIZ-9470
p1033
aVOFBIZ-9469
p1034
aVOFBIZ-9468
p1035
aVOFBIZ-9467
p1036
aVOFBIZ-9466
p1037
aVOFBIZ-9465
p1038
aVOFBIZ-9464
p1039
aVOFBIZ-9463
p1040
aVOFBIZ-9462
p1041
aVOFBIZ-9461
p1042
aVOFBIZ-9460
p1043
aVOFBIZ-9459
p1044
aVOFBIZ-9458
p1045
aVOFBIZ-9457
p1046
aVOFBIZ-9456
p1047
aVOFBIZ-9455
p1048
aVOFBIZ-9454
p1049
aVOFBIZ-9453
p1050
aVOFBIZ-9452
p1051
aVOFBIZ-9451
p1052
aVOFBIZ-9450
p1053
aVOFBIZ-9449
p1054
aVOFBIZ-9448
p1055
aVOFBIZ-9447
p1056
aVOFBIZ-9446
p1057
aVOFBIZ-9445
p1058
aVOFBIZ-9444
p1059
aVOFBIZ-9443
p1060
aVOFBIZ-9442
p1061
aVOFBIZ-9441
p1062
aVOFBIZ-9440
p1063
aVOFBIZ-9439
p1064
aVOFBIZ-9438
p1065
aVOFBIZ-9437
p1066
aVOFBIZ-9436
p1067
aVOFBIZ-9435
p1068
aVOFBIZ-9434
p1069
aVOFBIZ-9433
p1070
aVOFBIZ-9432
p1071
aVOFBIZ-9431
p1072
aVOFBIZ-9430
p1073
aVOFBIZ-9429
p1074
aVOFBIZ-9428
p1075
aVOFBIZ-9427
p1076
aVOFBIZ-9426
p1077
aVOFBIZ-9425
p1078
aVOFBIZ-9424
p1079
aVOFBIZ-9423
p1080
aVOFBIZ-9422
p1081
aVOFBIZ-9421
p1082
aVOFBIZ-9420
p1083
aVOFBIZ-9419
p1084
aVOFBIZ-9418
p1085
aVOFBIZ-9417
p1086
aVOFBIZ-9416
p1087
aVOFBIZ-9415
p1088
aVOFBIZ-9414
p1089
aVOFBIZ-9413
p1090
aVOFBIZ-9412
p1091
aVOFBIZ-9411
p1092
aVOFBIZ-9410
p1093
aVOFBIZ-9409
p1094
aVOFBIZ-9408
p1095
aVOFBIZ-9407
p1096
aVOFBIZ-9406
p1097
aVOFBIZ-9405
p1098
aVOFBIZ-9404
p1099
aVOFBIZ-9403
p1100
aVOFBIZ-9402
p1101
aVOFBIZ-9401
p1102
aVOFBIZ-9400
p1103
aVOFBIZ-9399
p1104
aVOFBIZ-9398
p1105
aVOFBIZ-9397
p1106
aVOFBIZ-9396
p1107
aVOFBIZ-9395
p1108
aVOFBIZ-9394
p1109
aVOFBIZ-9393
p1110
aVOFBIZ-9392
p1111
aVOFBIZ-9391
p1112
aVOFBIZ-9390
p1113
aVOFBIZ-9389
p1114
aVOFBIZ-9388
p1115
aVOFBIZ-9387
p1116
aVOFBIZ-9386
p1117
aVOFBIZ-9385
p1118
aVOFBIZ-9384
p1119
aVOFBIZ-9383
p1120
aVOFBIZ-9382
p1121
aVOFBIZ-9381
p1122
aVOFBIZ-9380
p1123
aVOFBIZ-9379
p1124
aVOFBIZ-9378
p1125
aVOFBIZ-9377
p1126
aVOFBIZ-9376
p1127
aVOFBIZ-9375
p1128
aVOFBIZ-9374
p1129
aVOFBIZ-9373
p1130
aVOFBIZ-9372
p1131
aVOFBIZ-9371
p1132
aVOFBIZ-9370
p1133
aVOFBIZ-9369
p1134
aVOFBIZ-9368
p1135
aVOFBIZ-9367
p1136
aVOFBIZ-9366
p1137
aVOFBIZ-9365
p1138
aVOFBIZ-9364
p1139
aVOFBIZ-9363
p1140
aVOFBIZ-9362
p1141
aVOFBIZ-9361
p1142
aVOFBIZ-9360
p1143
aVOFBIZ-9359
p1144
aVOFBIZ-9358
p1145
aVOFBIZ-9357
p1146
aVOFBIZ-9356
p1147
aVOFBIZ-9355
p1148
aVOFBIZ-9354
p1149
aVOFBIZ-9353
p1150
aVOFBIZ-9352
p1151
aVOFBIZ-9351
p1152
aVOFBIZ-9350
p1153
aVOFBIZ-9349
p1154
aVOFBIZ-9348
p1155
aVOFBIZ-9347
p1156
aVOFBIZ-9346
p1157
aVOFBIZ-9345
p1158
aVOFBIZ-9344
p1159
aVOFBIZ-9343
p1160
aVOFBIZ-9342
p1161
aVOFBIZ-9341
p1162
aVOFBIZ-9340
p1163
aVOFBIZ-9339
p1164
aVOFBIZ-9338
p1165
aVOFBIZ-9337
p1166
aVOFBIZ-9336
p1167
aVOFBIZ-9335
p1168
aVOFBIZ-9334
p1169
aVOFBIZ-9333
p1170
aVOFBIZ-9332
p1171
aVOFBIZ-9331
p1172
aVOFBIZ-9330
p1173
aVOFBIZ-9329
p1174
aVOFBIZ-9328
p1175
aVOFBIZ-9327
p1176
aVOFBIZ-9326
p1177
aVOFBIZ-9325
p1178
aVOFBIZ-9324
p1179
aVOFBIZ-9323
p1180
aVOFBIZ-9322
p1181
aVOFBIZ-9321
p1182
aVOFBIZ-9320
p1183
aVOFBIZ-9319
p1184
aVOFBIZ-9318
p1185
aVOFBIZ-9317
p1186
aVOFBIZ-9316
p1187
aVOFBIZ-9315
p1188
aVOFBIZ-9314
p1189
aVOFBIZ-9313
p1190
aVOFBIZ-9312
p1191
aVOFBIZ-9311
p1192
aVOFBIZ-9310
p1193
aVOFBIZ-9309
p1194
aVOFBIZ-9308
p1195
aVOFBIZ-9307
p1196
aVOFBIZ-9306
p1197
aVOFBIZ-9305
p1198
aVOFBIZ-9304
p1199
aVOFBIZ-9303
p1200
aVOFBIZ-9302
p1201
aVOFBIZ-9301
p1202
aVOFBIZ-9300
p1203
aVOFBIZ-9299
p1204
aVOFBIZ-9298
p1205
aVOFBIZ-9297
p1206
aVOFBIZ-9296
p1207
aVOFBIZ-9295
p1208
aVOFBIZ-9294
p1209
aVOFBIZ-9293
p1210
aVOFBIZ-9292
p1211
aVOFBIZ-9291
p1212
aVOFBIZ-9290
p1213
aVOFBIZ-9289
p1214
aVOFBIZ-9288
p1215
aVOFBIZ-9287
p1216
aVOFBIZ-9286
p1217
aVOFBIZ-9285
p1218
aVOFBIZ-9284
p1219
aVOFBIZ-9283
p1220
aVOFBIZ-9282
p1221
aVOFBIZ-9281
p1222
aVOFBIZ-9280
p1223
aVOFBIZ-9279
p1224
aVOFBIZ-9278
p1225
aVOFBIZ-9277
p1226
aVOFBIZ-9276
p1227
aVOFBIZ-9275
p1228
aVOFBIZ-9274
p1229
aVOFBIZ-9273
p1230
aVOFBIZ-9272
p1231
aVOFBIZ-9271
p1232
aVOFBIZ-9270
p1233
aVOFBIZ-9269
p1234
aVOFBIZ-9268
p1235
aVOFBIZ-9267
p1236
aVOFBIZ-9266
p1237
aVOFBIZ-9265
p1238
aVOFBIZ-9264
p1239
aVOFBIZ-9263
p1240
aVOFBIZ-9262
p1241
aVOFBIZ-9261
p1242
aVOFBIZ-9260
p1243
aVOFBIZ-9259
p1244
aVOFBIZ-9258
p1245
aVOFBIZ-9257
p1246
aVOFBIZ-9256
p1247
aVOFBIZ-9255
p1248
aVOFBIZ-9254
p1249
aVOFBIZ-9253
p1250
aVOFBIZ-9252
p1251
aVOFBIZ-9251
p1252
aVOFBIZ-9250
p1253
aVOFBIZ-9249
p1254
aVOFBIZ-9248
p1255
aVOFBIZ-9247
p1256
aVOFBIZ-9246
p1257
aVOFBIZ-9245
p1258
aVOFBIZ-9244
p1259
aVOFBIZ-9243
p1260
aVOFBIZ-9242
p1261
aVOFBIZ-9241
p1262
aVOFBIZ-9240
p1263
aVOFBIZ-9239
p1264
aVOFBIZ-9238
p1265
aVOFBIZ-9237
p1266
aVOFBIZ-9236
p1267
aVOFBIZ-9235
p1268
aVOFBIZ-9234
p1269
aVOFBIZ-9233
p1270
aVOFBIZ-9232
p1271
aVOFBIZ-9231
p1272
aVOFBIZ-9230
p1273
aVOFBIZ-9229
p1274
aVOFBIZ-9228
p1275
aVOFBIZ-9227
p1276
aVOFBIZ-9226
p1277
aVOFBIZ-9225
p1278
aVOFBIZ-9224
p1279
aVOFBIZ-9223
p1280
aVOFBIZ-9222
p1281
aVOFBIZ-9221
p1282
aVOFBIZ-9220
p1283
aVOFBIZ-9219
p1284
aVOFBIZ-9218
p1285
aVOFBIZ-9217
p1286
aVOFBIZ-9216
p1287
aVOFBIZ-9215
p1288
aVOFBIZ-9214
p1289
aVOFBIZ-9213
p1290
aVOFBIZ-9212
p1291
aVOFBIZ-9211
p1292
aVOFBIZ-9210
p1293
aVOFBIZ-9209
p1294
aVOFBIZ-9208
p1295
aVOFBIZ-9207
p1296
aVOFBIZ-9206
p1297
aVOFBIZ-9205
p1298
aVOFBIZ-9204
p1299
aVOFBIZ-9203
p1300
aVOFBIZ-9202
p1301
aVOFBIZ-9201
p1302
aVOFBIZ-9200
p1303
aVOFBIZ-9199
p1304
aVOFBIZ-9198
p1305
aVOFBIZ-9197
p1306
aVOFBIZ-9196
p1307
aVOFBIZ-9195
p1308
aVOFBIZ-9194
p1309
aVOFBIZ-9193
p1310
aVOFBIZ-9192
p1311
aVOFBIZ-9191
p1312
aVOFBIZ-9190
p1313
aVOFBIZ-9189
p1314
aVOFBIZ-9188
p1315
aVOFBIZ-9187
p1316
aVOFBIZ-9186
p1317
aVOFBIZ-9185
p1318
aVOFBIZ-9184
p1319
aVOFBIZ-9183
p1320
aVOFBIZ-9182
p1321
aVOFBIZ-9181
p1322
aVOFBIZ-9180
p1323
aVOFBIZ-9179
p1324
aVOFBIZ-9178
p1325
aVOFBIZ-9177
p1326
aVOFBIZ-9176
p1327
aVOFBIZ-9175
p1328
aVOFBIZ-9174
p1329
aVOFBIZ-9173
p1330
aVOFBIZ-9172
p1331
aVOFBIZ-9171
p1332
aVOFBIZ-9170
p1333
aVOFBIZ-9169
p1334
aVOFBIZ-9168
p1335
aVOFBIZ-9167
p1336
aVOFBIZ-9166
p1337
aVOFBIZ-9165
p1338
aVOFBIZ-9164
p1339
aVOFBIZ-9163
p1340
aVOFBIZ-9162
p1341
aVOFBIZ-9161
p1342
aVOFBIZ-9160
p1343
aVOFBIZ-9159
p1344
aVOFBIZ-9158
p1345
aVOFBIZ-9157
p1346
aVOFBIZ-9156
p1347
aVOFBIZ-9155
p1348
aVOFBIZ-9154
p1349
aVOFBIZ-9153
p1350
aVOFBIZ-9152
p1351
aVOFBIZ-9151
p1352
aVOFBIZ-9150
p1353
aVOFBIZ-9149
p1354
aVOFBIZ-9148
p1355
aVOFBIZ-9147
p1356
aVOFBIZ-9146
p1357
aVOFBIZ-9145
p1358
aVOFBIZ-9144
p1359
aVOFBIZ-9143
p1360
aVOFBIZ-9142
p1361
aVOFBIZ-9141
p1362
aVOFBIZ-9140
p1363
aVOFBIZ-9139
p1364
aVOFBIZ-9138
p1365
aVOFBIZ-9137
p1366
aVOFBIZ-9136
p1367
aVOFBIZ-9135
p1368
aVOFBIZ-9134
p1369
aVOFBIZ-9133
p1370
aVOFBIZ-9132
p1371
aVOFBIZ-9131
p1372
aVOFBIZ-9130
p1373
aVOFBIZ-9129
p1374
aVOFBIZ-9128
p1375
aVOFBIZ-9127
p1376
aVOFBIZ-9126
p1377
aVOFBIZ-9125
p1378
aVOFBIZ-9124
p1379
aVOFBIZ-9123
p1380
aVOFBIZ-9122
p1381
aVOFBIZ-9121
p1382
aVOFBIZ-9120
p1383
aVOFBIZ-9119
p1384
aVOFBIZ-9118
p1385
aVOFBIZ-9117
p1386
aVOFBIZ-9116
p1387
aVOFBIZ-9115
p1388
aVOFBIZ-9114
p1389
aVOFBIZ-9113
p1390
aVOFBIZ-9112
p1391
aVOFBIZ-9111
p1392
aVOFBIZ-9110
p1393
aVOFBIZ-9109
p1394
aVOFBIZ-9108
p1395
aVOFBIZ-9107
p1396
aVOFBIZ-9106
p1397
aVOFBIZ-9105
p1398
aVOFBIZ-9104
p1399
aVOFBIZ-9103
p1400
aVOFBIZ-9102
p1401
aVOFBIZ-9101
p1402
aVOFBIZ-9100
p1403
aVOFBIZ-9099
p1404
aVOFBIZ-9098
p1405
aVOFBIZ-9097
p1406
aVOFBIZ-9096
p1407
aVOFBIZ-9095
p1408
aVOFBIZ-9094
p1409
aVOFBIZ-9093
p1410
aVOFBIZ-9092
p1411
aVOFBIZ-9091
p1412
aVOFBIZ-9090
p1413
aVOFBIZ-9089
p1414
aVOFBIZ-9088
p1415
aVOFBIZ-9087
p1416
aVOFBIZ-9086
p1417
aVOFBIZ-9085
p1418
aVOFBIZ-9084
p1419
aVOFBIZ-9083
p1420
aVOFBIZ-9082
p1421
aVOFBIZ-9081
p1422
aVOFBIZ-9080
p1423
aVOFBIZ-9079
p1424
aVOFBIZ-9078
p1425
aVOFBIZ-9077
p1426
aVOFBIZ-9076
p1427
aVOFBIZ-9075
p1428
aVOFBIZ-9074
p1429
aVOFBIZ-9073
p1430
aVOFBIZ-9072
p1431
aVOFBIZ-9071
p1432
aVOFBIZ-9070
p1433
aVOFBIZ-9069
p1434
aVOFBIZ-9068
p1435
aVOFBIZ-9067
p1436
aVOFBIZ-9066
p1437
aVOFBIZ-9065
p1438
aVOFBIZ-9064
p1439
aVOFBIZ-9063
p1440
aVOFBIZ-9062
p1441
aVOFBIZ-9061
p1442
aVOFBIZ-9060
p1443
aVOFBIZ-9059
p1444
aVOFBIZ-9058
p1445
aVOFBIZ-9057
p1446
aVOFBIZ-9056
p1447
aVOFBIZ-9055
p1448
aVOFBIZ-9054
p1449
aVOFBIZ-9053
p1450
aVOFBIZ-9052
p1451
aVOFBIZ-9051
p1452
aVOFBIZ-9050
p1453
aVOFBIZ-9049
p1454
aVOFBIZ-9048
p1455
aVOFBIZ-9047
p1456
aVOFBIZ-9046
p1457
aVOFBIZ-9045
p1458
aVOFBIZ-9044
p1459
aVOFBIZ-9043
p1460
aVOFBIZ-9042
p1461
aVOFBIZ-9041
p1462
aVOFBIZ-9040
p1463
aVOFBIZ-9039
p1464
aVOFBIZ-9038
p1465
aVOFBIZ-9037
p1466
aVOFBIZ-9036
p1467
aVOFBIZ-9035
p1468
aVOFBIZ-9034
p1469
aVOFBIZ-9033
p1470
aVOFBIZ-9032
p1471
aVOFBIZ-9031
p1472
aVOFBIZ-9030
p1473
aVOFBIZ-9029
p1474
aVOFBIZ-9028
p1475
aVOFBIZ-9027
p1476
aVOFBIZ-9026
p1477
aVOFBIZ-9025
p1478
aVOFBIZ-9024
p1479
aVOFBIZ-9023
p1480
aVOFBIZ-9022
p1481
aVOFBIZ-9021
p1482
aVOFBIZ-9020
p1483
aVOFBIZ-9019
p1484
aVOFBIZ-9018
p1485
aVOFBIZ-9017
p1486
aVOFBIZ-9016
p1487
aVOFBIZ-9015
p1488
aVOFBIZ-9014
p1489
aVOFBIZ-9013
p1490
aVOFBIZ-9012
p1491
aVOFBIZ-9011
p1492
aVOFBIZ-9010
p1493
aVOFBIZ-9009
p1494
aVOFBIZ-9008
p1495
aVOFBIZ-9007
p1496
aVOFBIZ-9006
p1497
aVOFBIZ-9005
p1498
aVOFBIZ-9004
p1499
aVOFBIZ-9003
p1500
aVOFBIZ-9002
p1501
aVOFBIZ-9001
p1502
aVOFBIZ-9000
p1503
aVOFBIZ-8999
p1504
aVOFBIZ-8998
p1505
aVOFBIZ-8997
p1506
aVOFBIZ-8996
p1507
aVOFBIZ-8995
p1508
aVOFBIZ-8994
p1509
aVOFBIZ-8993
p1510
aVOFBIZ-8992
p1511
aVOFBIZ-8991
p1512
aVOFBIZ-8990
p1513
aVOFBIZ-8989
p1514
aVOFBIZ-8988
p1515
aVOFBIZ-8987
p1516
aVOFBIZ-8986
p1517
aVOFBIZ-8985
p1518
aVOFBIZ-8984
p1519
aVOFBIZ-8983
p1520
aVOFBIZ-8982
p1521
aVOFBIZ-8981
p1522
aVOFBIZ-8980
p1523
aVOFBIZ-8979
p1524
aVOFBIZ-8978
p1525
aVOFBIZ-8977
p1526
aVOFBIZ-8976
p1527
aVOFBIZ-8975
p1528
aVOFBIZ-8974
p1529
aVOFBIZ-8973
p1530
aVOFBIZ-8972
p1531
aVOFBIZ-8971
p1532
aVOFBIZ-8970
p1533
aVOFBIZ-8969
p1534
aVOFBIZ-8968
p1535
aVOFBIZ-8967
p1536
aVOFBIZ-8966
p1537
aVOFBIZ-8965
p1538
aVOFBIZ-8964
p1539
aVOFBIZ-8963
p1540
aVOFBIZ-8962
p1541
aVOFBIZ-8961
p1542
aVOFBIZ-8960
p1543
aVOFBIZ-8959
p1544
aVOFBIZ-8958
p1545
aVOFBIZ-8957
p1546
aVOFBIZ-8956
p1547
aVOFBIZ-8955
p1548
aVOFBIZ-8954
p1549
aVOFBIZ-8953
p1550
aVOFBIZ-8952
p1551
aVOFBIZ-8951
p1552
aVOFBIZ-8950
p1553
aVOFBIZ-8949
p1554
aVOFBIZ-8948
p1555
aVOFBIZ-8947
p1556
aVOFBIZ-8946
p1557
aVOFBIZ-8945
p1558
aVOFBIZ-8944
p1559
aVOFBIZ-8943
p1560
aVOFBIZ-8942
p1561
aVOFBIZ-8941
p1562
aVOFBIZ-8940
p1563
aVOFBIZ-8939
p1564
aVOFBIZ-8938
p1565
aVOFBIZ-8937
p1566
aVOFBIZ-8936
p1567
aVOFBIZ-8935
p1568
aVOFBIZ-8934
p1569
aVOFBIZ-8933
p1570
aVOFBIZ-8932
p1571
aVOFBIZ-8931
p1572
aVOFBIZ-8930
p1573
aVOFBIZ-8929
p1574
aVOFBIZ-8928
p1575
aVOFBIZ-8927
p1576
aVOFBIZ-8926
p1577
aVOFBIZ-8925
p1578
aVOFBIZ-8924
p1579
aVOFBIZ-8923
p1580
aVOFBIZ-8922
p1581
aVOFBIZ-8921
p1582
aVOFBIZ-8920
p1583
aVOFBIZ-8919
p1584
aVOFBIZ-8918
p1585
aVOFBIZ-8917
p1586
aVOFBIZ-8916
p1587
aVOFBIZ-8915
p1588
aVOFBIZ-8914
p1589
aVOFBIZ-8913
p1590
aVOFBIZ-8912
p1591
aVOFBIZ-8911
p1592
aVOFBIZ-8910
p1593
aVOFBIZ-8909
p1594
aVOFBIZ-8908
p1595
aVOFBIZ-8907
p1596
aVOFBIZ-8906
p1597
aVOFBIZ-8905
p1598
aVOFBIZ-8904
p1599
aVOFBIZ-8903
p1600
aVOFBIZ-8902
p1601
aVOFBIZ-8901
p1602
aVOFBIZ-8900
p1603
aVOFBIZ-8899
p1604
aVOFBIZ-8898
p1605
aVOFBIZ-8897
p1606
aVOFBIZ-8896
p1607
aVOFBIZ-8895
p1608
aVOFBIZ-8894
p1609
aVOFBIZ-8893
p1610
aVOFBIZ-8892
p1611
aVOFBIZ-8891
p1612
aVOFBIZ-8890
p1613
aVOFBIZ-8889
p1614
aVOFBIZ-8888
p1615
aVOFBIZ-8887
p1616
aVOFBIZ-8886
p1617
aVOFBIZ-8885
p1618
aVOFBIZ-8884
p1619
aVOFBIZ-8883
p1620
aVOFBIZ-8882
p1621
aVOFBIZ-8881
p1622
aVOFBIZ-8880
p1623
aVOFBIZ-8879
p1624
aVOFBIZ-8878
p1625
aVOFBIZ-8877
p1626
aVOFBIZ-8876
p1627
aVOFBIZ-8875
p1628
aVOFBIZ-8874
p1629
aVOFBIZ-8873
p1630
aVOFBIZ-8872
p1631
aVOFBIZ-8871
p1632
aVOFBIZ-8870
p1633
aVOFBIZ-8869
p1634
aVOFBIZ-8868
p1635
aVOFBIZ-8867
p1636
aVOFBIZ-8866
p1637
aVOFBIZ-8865
p1638
aVOFBIZ-8864
p1639
aVOFBIZ-8863
p1640
aVOFBIZ-8862
p1641
aVOFBIZ-8861
p1642
aVOFBIZ-8860
p1643
aVOFBIZ-8859
p1644
aVOFBIZ-8858
p1645
aVOFBIZ-8857
p1646
aVOFBIZ-8856
p1647
aVOFBIZ-8855
p1648
aVOFBIZ-8854
p1649
aVOFBIZ-8853
p1650
aVOFBIZ-8852
p1651
aVOFBIZ-8851
p1652
aVOFBIZ-8850
p1653
aVOFBIZ-8849
p1654
aVOFBIZ-8848
p1655
aVOFBIZ-8847
p1656
aVOFBIZ-8846
p1657
aVOFBIZ-8845
p1658
aVOFBIZ-8844
p1659
aVOFBIZ-8843
p1660
aVOFBIZ-8842
p1661
aVOFBIZ-8841
p1662
aVOFBIZ-8840
p1663
aVOFBIZ-8839
p1664
aVOFBIZ-8838
p1665
aVOFBIZ-8837
p1666
aVOFBIZ-8836
p1667
aVOFBIZ-8835
p1668
aVOFBIZ-8834
p1669
aVOFBIZ-8833
p1670
aVOFBIZ-8832
p1671
aVOFBIZ-8831
p1672
aVOFBIZ-8830
p1673
aVOFBIZ-8829
p1674
aVOFBIZ-8828
p1675
aVOFBIZ-8827
p1676
aVOFBIZ-8826
p1677
aVOFBIZ-8825
p1678
aVOFBIZ-8824
p1679
aVOFBIZ-8823
p1680
aVOFBIZ-8822
p1681
aVOFBIZ-8821
p1682
aVOFBIZ-8820
p1683
aVOFBIZ-8819
p1684
aVOFBIZ-8818
p1685
aVOFBIZ-8817
p1686
aVOFBIZ-8816
p1687
aVOFBIZ-8815
p1688
aVOFBIZ-8814
p1689
aVOFBIZ-8813
p1690
aVOFBIZ-8812
p1691
aVOFBIZ-8811
p1692
aVOFBIZ-8810
p1693
aVOFBIZ-8809
p1694
aVOFBIZ-8808
p1695
aVOFBIZ-8807
p1696
aVOFBIZ-8806
p1697
aVOFBIZ-8805
p1698
aVOFBIZ-8804
p1699
aVOFBIZ-8803
p1700
aVOFBIZ-8802
p1701
aVOFBIZ-8801
p1702
aVOFBIZ-8800
p1703
aVOFBIZ-8799
p1704
aVOFBIZ-8798
p1705
aVOFBIZ-8797
p1706
aVOFBIZ-8796
p1707
aVOFBIZ-8795
p1708
aVOFBIZ-8794
p1709
aVOFBIZ-8793
p1710
aVOFBIZ-8792
p1711
aVOFBIZ-8791
p1712
aVOFBIZ-8790
p1713
aVOFBIZ-8789
p1714
aVOFBIZ-8788
p1715
aVOFBIZ-8787
p1716
aVOFBIZ-8786
p1717
aVOFBIZ-8785
p1718
aVOFBIZ-8784
p1719
aVOFBIZ-8783
p1720
aVOFBIZ-8782
p1721
aVOFBIZ-8781
p1722
aVOFBIZ-8780
p1723
aVOFBIZ-8779
p1724
aVOFBIZ-8778
p1725
aVOFBIZ-8777
p1726
aVOFBIZ-8776
p1727
aVOFBIZ-8775
p1728
aVOFBIZ-8774
p1729
aVOFBIZ-8773
p1730
aVOFBIZ-8772
p1731
aVOFBIZ-8771
p1732
aVOFBIZ-8770
p1733
aVOFBIZ-8769
p1734
aVOFBIZ-8768
p1735
aVOFBIZ-8767
p1736
aVOFBIZ-8766
p1737
aVOFBIZ-8765
p1738
aVOFBIZ-8764
p1739
aVOFBIZ-8763
p1740
aVOFBIZ-8762
p1741
aVOFBIZ-8761
p1742
aVOFBIZ-8760
p1743
aVOFBIZ-8759
p1744
aVOFBIZ-8758
p1745
aVOFBIZ-8757
p1746
aVOFBIZ-8756
p1747
aVOFBIZ-8755
p1748
aVOFBIZ-8754
p1749
aVOFBIZ-8753
p1750
aVOFBIZ-8752
p1751
aVOFBIZ-8751
p1752
aVOFBIZ-8750
p1753
aVOFBIZ-8749
p1754
aVOFBIZ-8748
p1755
aVOFBIZ-8747
p1756
aVOFBIZ-8746
p1757
aVOFBIZ-8745
p1758
aVOFBIZ-8744
p1759
aVOFBIZ-8743
p1760
aVOFBIZ-8742
p1761
aVOFBIZ-8741
p1762
aVOFBIZ-8740
p1763
aVOFBIZ-8739
p1764
aVOFBIZ-8738
p1765
aVOFBIZ-8737
p1766
aVOFBIZ-8736
p1767
aVOFBIZ-8735
p1768
aVOFBIZ-8734
p1769
aVOFBIZ-8733
p1770
aVOFBIZ-8732
p1771
aVOFBIZ-8731
p1772
aVOFBIZ-8730
p1773
aVOFBIZ-8729
p1774
aVOFBIZ-8728
p1775
aVOFBIZ-8727
p1776
aVOFBIZ-8726
p1777
aVOFBIZ-8725
p1778
aVOFBIZ-8724
p1779
aVOFBIZ-8723
p1780
aVOFBIZ-8722
p1781
aVOFBIZ-8721
p1782
aVOFBIZ-8720
p1783
aVOFBIZ-8719
p1784
aVOFBIZ-8718
p1785
aVOFBIZ-8717
p1786
aVOFBIZ-8716
p1787
aVOFBIZ-8715
p1788
aVOFBIZ-8714
p1789
aVOFBIZ-8713
p1790
aVOFBIZ-8712
p1791
aVOFBIZ-8711
p1792
aVOFBIZ-8710
p1793
aVOFBIZ-8709
p1794
aVOFBIZ-8708
p1795
aVOFBIZ-8707
p1796
aVOFBIZ-8706
p1797
aVOFBIZ-8705
p1798
aVOFBIZ-8704
p1799
aVOFBIZ-8703
p1800
aVOFBIZ-8702
p1801
aVOFBIZ-8701
p1802
aVOFBIZ-8700
p1803
aVOFBIZ-8699
p1804
aVOFBIZ-8698
p1805
aVOFBIZ-8697
p1806
aVOFBIZ-8696
p1807
aVOFBIZ-8695
p1808
aVOFBIZ-8694
p1809
aVOFBIZ-8693
p1810
aVOFBIZ-8692
p1811
aVOFBIZ-8691
p1812
aVOFBIZ-8690
p1813
aVOFBIZ-8689
p1814
aVOFBIZ-8688
p1815
aVOFBIZ-8687
p1816
aVOFBIZ-8686
p1817
aVOFBIZ-8685
p1818
aVOFBIZ-8684
p1819
aVOFBIZ-8683
p1820
aVOFBIZ-8682
p1821
aVOFBIZ-8681
p1822
aVOFBIZ-8680
p1823
aVOFBIZ-8679
p1824
aVOFBIZ-8678
p1825
aVOFBIZ-8677
p1826
aVOFBIZ-8676
p1827
aVOFBIZ-8675
p1828
aVOFBIZ-8674
p1829
aVOFBIZ-8673
p1830
aVOFBIZ-8672
p1831
aVOFBIZ-8671
p1832
aVOFBIZ-8670
p1833
aVOFBIZ-8669
p1834
aVOFBIZ-8668
p1835
aVOFBIZ-8667
p1836
aVOFBIZ-8666
p1837
aVOFBIZ-8665
p1838
aVOFBIZ-8664
p1839
aVOFBIZ-8663
p1840
aVOFBIZ-8662
p1841
aVOFBIZ-8661
p1842
aVOFBIZ-8660
p1843
aVOFBIZ-8659
p1844
aVOFBIZ-8658
p1845
aVOFBIZ-8657
p1846
aVOFBIZ-8656
p1847
aVOFBIZ-8655
p1848
aVOFBIZ-8654
p1849
aVOFBIZ-8653
p1850
aVOFBIZ-8652
p1851
aVOFBIZ-8651
p1852
aVOFBIZ-8650
p1853
aVOFBIZ-8649
p1854
aVOFBIZ-8648
p1855
aVOFBIZ-8647
p1856
aVOFBIZ-8646
p1857
aVOFBIZ-8645
p1858
aVOFBIZ-8644
p1859
aVOFBIZ-8643
p1860
aVOFBIZ-8642
p1861
aVOFBIZ-8641
p1862
aVOFBIZ-8640
p1863
aVOFBIZ-8639
p1864
aVOFBIZ-8638
p1865
aVOFBIZ-8637
p1866
aVOFBIZ-8636
p1867
aVOFBIZ-8635
p1868
aVOFBIZ-8634
p1869
aVOFBIZ-8633
p1870
aVOFBIZ-8632
p1871
aVOFBIZ-8631
p1872
aVOFBIZ-8630
p1873
aVOFBIZ-8629
p1874
aVOFBIZ-8628
p1875
aVOFBIZ-8627
p1876
aVOFBIZ-8626
p1877
aVOFBIZ-8625
p1878
aVOFBIZ-8624
p1879
aVOFBIZ-8623
p1880
aVOFBIZ-8622
p1881
aVOFBIZ-8621
p1882
aVOFBIZ-8620
p1883
aVOFBIZ-8619
p1884
aVOFBIZ-8618
p1885
aVOFBIZ-8617
p1886
aVOFBIZ-8616
p1887
aVOFBIZ-8615
p1888
aVOFBIZ-8614
p1889
aVOFBIZ-8613
p1890
aVOFBIZ-8612
p1891
aVOFBIZ-8611
p1892
aVOFBIZ-8610
p1893
aVOFBIZ-8609
p1894
aVOFBIZ-8608
p1895
aVOFBIZ-8607
p1896
aVOFBIZ-8606
p1897
aVOFBIZ-8605
p1898
aVOFBIZ-8604
p1899
aVOFBIZ-8603
p1900
aVOFBIZ-8602
p1901
aVOFBIZ-8601
p1902
aVOFBIZ-8600
p1903
aVOFBIZ-8599
p1904
aVOFBIZ-8598
p1905
aVOFBIZ-8597
p1906
aVOFBIZ-8596
p1907
aVOFBIZ-8595
p1908
aVOFBIZ-8594
p1909
aVOFBIZ-8593
p1910
aVOFBIZ-8592
p1911
aVOFBIZ-8591
p1912
aVOFBIZ-8590
p1913
aVOFBIZ-8589
p1914
aVOFBIZ-8588
p1915
aVOFBIZ-8587
p1916
aVOFBIZ-8586
p1917
aVOFBIZ-8585
p1918
aVOFBIZ-8584
p1919
aVOFBIZ-8583
p1920
aVOFBIZ-8582
p1921
aVOFBIZ-8581
p1922
aVOFBIZ-8580
p1923
aVOFBIZ-8579
p1924
aVOFBIZ-8578
p1925
aVOFBIZ-8577
p1926
aVOFBIZ-8576
p1927
aVOFBIZ-8575
p1928
aVOFBIZ-8574
p1929
aVOFBIZ-8573
p1930
aVOFBIZ-8572
p1931
aVOFBIZ-8571
p1932
aVOFBIZ-8570
p1933
aVOFBIZ-8569
p1934
aVOFBIZ-8568
p1935
aVOFBIZ-8567
p1936
aVOFBIZ-8566
p1937
aVOFBIZ-8565
p1938
aVOFBIZ-8564
p1939
aVOFBIZ-8563
p1940
aVOFBIZ-8562
p1941
aVOFBIZ-8561
p1942
aVOFBIZ-8560
p1943
aVOFBIZ-8559
p1944
aVOFBIZ-8558
p1945
aVOFBIZ-8557
p1946
aVOFBIZ-8556
p1947
aVOFBIZ-8555
p1948
aVOFBIZ-8554
p1949
aVOFBIZ-8553
p1950
aVOFBIZ-8552
p1951
aVOFBIZ-8551
p1952
aVOFBIZ-8550
p1953
aVOFBIZ-8549
p1954
aVOFBIZ-8548
p1955
aVOFBIZ-8547
p1956
aVOFBIZ-8546
p1957
aVOFBIZ-8545
p1958
aVOFBIZ-8544
p1959
aVOFBIZ-8543
p1960
aVOFBIZ-8542
p1961
aVOFBIZ-8541
p1962
aVOFBIZ-8540
p1963
aVOFBIZ-8539
p1964
aVOFBIZ-8538
p1965
aVOFBIZ-8537
p1966
aVOFBIZ-8536
p1967
aVOFBIZ-8535
p1968
aVOFBIZ-8534
p1969
aVOFBIZ-8533
p1970
aVOFBIZ-8532
p1971
aVOFBIZ-8531
p1972
aVOFBIZ-8530
p1973
aVOFBIZ-8529
p1974
aVOFBIZ-8528
p1975
aVOFBIZ-8527
p1976
aVOFBIZ-8526
p1977
aVOFBIZ-8525
p1978
aVOFBIZ-8524
p1979
aVOFBIZ-8523
p1980
aVOFBIZ-8522
p1981
aVOFBIZ-8521
p1982
aVOFBIZ-8520
p1983
aVOFBIZ-8519
p1984
aVOFBIZ-8518
p1985
aVOFBIZ-8517
p1986
aVOFBIZ-8516
p1987
aVOFBIZ-8515
p1988
aVOFBIZ-8514
p1989
aVOFBIZ-8513
p1990
aVOFBIZ-8512
p1991
aVOFBIZ-8511
p1992
aVOFBIZ-8510
p1993
aVOFBIZ-8509
p1994
aVOFBIZ-8508
p1995
aVOFBIZ-8507
p1996
aVOFBIZ-8506
p1997
aVOFBIZ-8505
p1998
aVOFBIZ-8504
p1999
aVOFBIZ-8503
p2000
aVOFBIZ-8502
p2001
aVOFBIZ-8501
p2002
aVOFBIZ-8500
p2003
aVOFBIZ-8499
p2004
aVOFBIZ-8498
p2005
aVOFBIZ-8497
p2006
aVOFBIZ-8496
p2007
aVOFBIZ-8495
p2008
aVOFBIZ-8494
p2009
aVOFBIZ-8493
p2010
aVOFBIZ-8492
p2011
aVOFBIZ-8491
p2012
aVOFBIZ-8490
p2013
aVOFBIZ-8489
p2014
aVOFBIZ-8488
p2015
aVOFBIZ-8487
p2016
aVOFBIZ-8486
p2017
aVOFBIZ-8485
p2018
aVOFBIZ-8484
p2019
aVOFBIZ-8483
p2020
aVOFBIZ-8482
p2021
aVOFBIZ-8481
p2022
aVOFBIZ-8480
p2023
aVOFBIZ-8479
p2024
aVOFBIZ-8478
p2025
aVOFBIZ-8477
p2026
aVOFBIZ-8476
p2027
aVOFBIZ-8475
p2028
aVOFBIZ-8474
p2029
aVOFBIZ-8473
p2030
aVOFBIZ-8472
p2031
aVOFBIZ-8471
p2032
aVOFBIZ-8470
p2033
aVOFBIZ-8469
p2034
aVOFBIZ-8468
p2035
aVOFBIZ-8467
p2036
aVOFBIZ-8466
p2037
aVOFBIZ-8465
p2038
aVOFBIZ-8464
p2039
aVOFBIZ-8463
p2040
aVOFBIZ-8462
p2041
aVOFBIZ-8461
p2042
aVOFBIZ-8460
p2043
aVOFBIZ-8459
p2044
aVOFBIZ-8458
p2045
aVOFBIZ-8457
p2046
aVOFBIZ-8456
p2047
aVOFBIZ-8455
p2048
aVOFBIZ-8454
p2049
aVOFBIZ-8453
p2050
aVOFBIZ-8452
p2051
aVOFBIZ-8451
p2052
aVOFBIZ-8450
p2053
aVOFBIZ-8449
p2054
aVOFBIZ-8448
p2055
aVOFBIZ-8447
p2056
aVOFBIZ-8446
p2057
aVOFBIZ-8445
p2058
aVOFBIZ-8444
p2059
aVOFBIZ-8443
p2060
aVOFBIZ-8442
p2061
aVOFBIZ-8441
p2062
aVOFBIZ-8440
p2063
aVOFBIZ-8439
p2064
aVOFBIZ-8438
p2065
aVOFBIZ-8437
p2066
aVOFBIZ-8436
p2067
aVOFBIZ-8435
p2068
aVOFBIZ-8434
p2069
aVOFBIZ-8433
p2070
aVOFBIZ-8432
p2071
aVOFBIZ-8431
p2072
aVOFBIZ-8430
p2073
aVOFBIZ-8429
p2074
aVOFBIZ-8428
p2075
aVOFBIZ-8427
p2076
aVOFBIZ-8426
p2077
aVOFBIZ-8425
p2078
aVOFBIZ-8424
p2079
aVOFBIZ-8423
p2080
aVOFBIZ-8422
p2081
aVOFBIZ-8421
p2082
aVOFBIZ-8420
p2083
aVOFBIZ-8419
p2084
aVOFBIZ-8418
p2085
aVOFBIZ-8417
p2086
aVOFBIZ-8416
p2087
aVOFBIZ-8415
p2088
aVOFBIZ-8414
p2089
aVOFBIZ-8413
p2090
aVOFBIZ-8412
p2091
aVOFBIZ-8411
p2092
aVOFBIZ-8410
p2093
aVOFBIZ-8409
p2094
aVOFBIZ-8408
p2095
aVOFBIZ-8407
p2096
aVOFBIZ-8406
p2097
aVOFBIZ-8405
p2098
aVOFBIZ-8404
p2099
aVOFBIZ-8403
p2100
aVOFBIZ-8402
p2101
aVOFBIZ-8401
p2102
aVOFBIZ-8400
p2103
aVOFBIZ-8399
p2104
aVOFBIZ-8398
p2105
aVOFBIZ-8397
p2106
aVOFBIZ-8396
p2107
aVOFBIZ-8395
p2108
aVOFBIZ-8394
p2109
aVOFBIZ-8393
p2110
aVOFBIZ-8392
p2111
aVOFBIZ-8391
p2112
aVOFBIZ-8390
p2113
aVOFBIZ-8389
p2114
aVOFBIZ-8388
p2115
aVOFBIZ-8387
p2116
aVOFBIZ-8386
p2117
aVOFBIZ-8385
p2118
aVOFBIZ-8384
p2119
aVOFBIZ-8383
p2120
aVOFBIZ-8382
p2121
aVOFBIZ-8381
p2122
aVOFBIZ-8380
p2123
aVOFBIZ-8379
p2124
aVOFBIZ-8378
p2125
aVOFBIZ-8377
p2126
aVOFBIZ-8376
p2127
aVOFBIZ-8375
p2128
aVOFBIZ-8374
p2129
aVOFBIZ-8373
p2130
aVOFBIZ-8372
p2131
aVOFBIZ-8371
p2132
aVOFBIZ-8370
p2133
aVOFBIZ-8369
p2134
aVOFBIZ-8368
p2135
aVOFBIZ-8367
p2136
aVOFBIZ-8366
p2137
aVOFBIZ-8365
p2138
aVOFBIZ-8364
p2139
aVOFBIZ-8363
p2140
aVOFBIZ-8362
p2141
aVOFBIZ-8361
p2142
aVOFBIZ-8360
p2143
aVOFBIZ-8359
p2144
aVOFBIZ-8358
p2145
aVOFBIZ-8357
p2146
aVOFBIZ-8356
p2147
aVOFBIZ-8355
p2148
aVOFBIZ-8354
p2149
aVOFBIZ-8353
p2150
aVOFBIZ-8352
p2151
aVOFBIZ-8351
p2152
aVOFBIZ-8350
p2153
aVOFBIZ-8349
p2154
aVOFBIZ-8348
p2155
aVOFBIZ-8347
p2156
aVOFBIZ-8346
p2157
aVOFBIZ-8345
p2158
aVOFBIZ-8344
p2159
aVOFBIZ-8343
p2160
aVOFBIZ-8342
p2161
aVOFBIZ-8341
p2162
aVOFBIZ-8340
p2163
aVOFBIZ-8339
p2164
aVOFBIZ-8338
p2165
aVOFBIZ-8337
p2166
aVOFBIZ-8336
p2167
aVOFBIZ-8335
p2168
aVOFBIZ-8334
p2169
aVOFBIZ-8333
p2170
aVOFBIZ-8332
p2171
aVOFBIZ-8331
p2172
aVOFBIZ-8330
p2173
aVOFBIZ-8329
p2174
aVOFBIZ-8328
p2175
aVOFBIZ-8327
p2176
aVOFBIZ-8326
p2177
aVOFBIZ-8325
p2178
aVOFBIZ-8324
p2179
aVOFBIZ-8323
p2180
aVOFBIZ-8322
p2181
aVOFBIZ-8321
p2182
aVOFBIZ-8320
p2183
aVOFBIZ-8319
p2184
aVOFBIZ-8318
p2185
aVOFBIZ-8317
p2186
aVOFBIZ-8316
p2187
aVOFBIZ-8315
p2188
aVOFBIZ-8314
p2189
aVOFBIZ-8313
p2190
aVOFBIZ-8312
p2191
aVOFBIZ-8311
p2192
aVOFBIZ-8310
p2193
aVOFBIZ-8309
p2194
aVOFBIZ-8308
p2195
aVOFBIZ-8307
p2196
aVOFBIZ-8306
p2197
aVOFBIZ-8305
p2198
aVOFBIZ-8304
p2199
aVOFBIZ-8303
p2200
aVOFBIZ-8302
p2201
aVOFBIZ-8301
p2202
aVOFBIZ-8300
p2203
aVOFBIZ-8299
p2204
aVOFBIZ-8298
p2205
aVOFBIZ-8297
p2206
aVOFBIZ-8296
p2207
aVOFBIZ-8295
p2208
aVOFBIZ-8294
p2209
aVOFBIZ-8293
p2210
aVOFBIZ-8292
p2211
aVOFBIZ-8291
p2212
aVOFBIZ-8290
p2213
aVOFBIZ-8289
p2214
aVOFBIZ-8288
p2215
aVOFBIZ-8287
p2216
aVOFBIZ-8286
p2217
aVOFBIZ-8285
p2218
aVOFBIZ-8284
p2219
aVOFBIZ-8283
p2220
aVOFBIZ-8282
p2221
aVOFBIZ-8281
p2222
aVOFBIZ-8280
p2223
aVOFBIZ-8279
p2224
aVOFBIZ-8278
p2225
aVOFBIZ-8277
p2226
aVOFBIZ-8276
p2227
aVOFBIZ-8275
p2228
aVOFBIZ-8274
p2229
aVOFBIZ-8273
p2230
aVOFBIZ-8272
p2231
aVOFBIZ-8271
p2232
aVOFBIZ-8270
p2233
aVOFBIZ-8269
p2234
aVOFBIZ-8268
p2235
aVOFBIZ-8267
p2236
aVOFBIZ-8266
p2237
aVOFBIZ-8265
p2238
aVOFBIZ-8264
p2239
aVOFBIZ-8263
p2240
aVOFBIZ-8262
p2241
aVOFBIZ-8261
p2242
aVOFBIZ-8260
p2243
aVOFBIZ-8259
p2244
aVOFBIZ-8258
p2245
aVOFBIZ-8257
p2246
aVOFBIZ-8256
p2247
aVOFBIZ-8255
p2248
aVOFBIZ-8254
p2249
aVOFBIZ-8253
p2250
aVOFBIZ-8252
p2251
aVOFBIZ-8251
p2252
aVOFBIZ-8250
p2253
aVOFBIZ-8249
p2254
aVOFBIZ-8248
p2255
aVOFBIZ-8247
p2256
aVOFBIZ-8246
p2257
aVOFBIZ-8245
p2258
aVOFBIZ-8244
p2259
aVOFBIZ-8243
p2260
aVOFBIZ-8242
p2261
aVOFBIZ-8241
p2262
aVOFBIZ-8240
p2263
aVOFBIZ-8239
p2264
aVOFBIZ-8238
p2265
aVOFBIZ-8237
p2266
aVOFBIZ-8236
p2267
aVOFBIZ-8235
p2268
aVOFBIZ-8234
p2269
aVOFBIZ-8233
p2270
aVOFBIZ-8232
p2271
aVOFBIZ-8231
p2272
aVOFBIZ-8230
p2273
aVOFBIZ-8229
p2274
aVOFBIZ-8228
p2275
aVOFBIZ-8227
p2276
aVOFBIZ-8226
p2277
aVOFBIZ-8225
p2278
aVOFBIZ-8224
p2279
aVOFBIZ-8223
p2280
aVOFBIZ-8222
p2281
aVOFBIZ-8221
p2282
aVOFBIZ-8220
p2283
aVOFBIZ-8219
p2284
aVOFBIZ-8218
p2285
aVOFBIZ-8217
p2286
aVOFBIZ-8216
p2287
aVOFBIZ-8215
p2288
aVOFBIZ-8214
p2289
aVOFBIZ-8213
p2290
aVOFBIZ-8212
p2291
aVOFBIZ-8211
p2292
aVOFBIZ-8210
p2293
aVOFBIZ-8209
p2294
aVOFBIZ-8208
p2295
aVOFBIZ-8207
p2296
aVOFBIZ-8206
p2297
aVOFBIZ-8205
p2298
aVOFBIZ-8204
p2299
aVOFBIZ-8203
p2300
aVOFBIZ-8202
p2301
aVOFBIZ-8201
p2302
aVOFBIZ-8200
p2303
aVOFBIZ-8199
p2304
aVOFBIZ-8198
p2305
aVOFBIZ-8197
p2306
aVOFBIZ-8196
p2307
aVOFBIZ-8195
p2308
aVOFBIZ-8194
p2309
aVOFBIZ-8193
p2310
aVOFBIZ-8192
p2311
aVOFBIZ-8191
p2312
aVOFBIZ-8190
p2313
aVOFBIZ-8189
p2314
aVOFBIZ-8188
p2315
aVOFBIZ-8187
p2316
aVOFBIZ-8186
p2317
aVOFBIZ-8185
p2318
aVOFBIZ-8184
p2319
aVOFBIZ-8183
p2320
aVOFBIZ-8182
p2321
aVOFBIZ-8181
p2322
aVOFBIZ-8180
p2323
aVOFBIZ-8179
p2324
aVOFBIZ-8178
p2325
aVOFBIZ-8177
p2326
aVOFBIZ-8176
p2327
aVOFBIZ-8175
p2328
aVOFBIZ-8174
p2329
aVOFBIZ-8173
p2330
aVOFBIZ-8172
p2331
aVOFBIZ-8171
p2332
aVOFBIZ-8170
p2333
aVOFBIZ-8169
p2334
aVOFBIZ-8168
p2335
aVOFBIZ-8167
p2336
aVOFBIZ-8166
p2337
aVOFBIZ-8165
p2338
aVOFBIZ-8164
p2339
aVOFBIZ-8163
p2340
aVOFBIZ-8162
p2341
aVOFBIZ-8161
p2342
aVOFBIZ-8160
p2343
aVOFBIZ-8159
p2344
aVOFBIZ-8158
p2345
aVOFBIZ-8157
p2346
aVOFBIZ-8156
p2347
aVOFBIZ-8155
p2348
aVOFBIZ-8154
p2349
aVOFBIZ-8153
p2350
aVOFBIZ-8152
p2351
aVOFBIZ-8151
p2352
aVOFBIZ-8150
p2353
aVOFBIZ-8149
p2354
aVOFBIZ-8148
p2355
aVOFBIZ-8147
p2356
aVOFBIZ-8146
p2357
aVOFBIZ-8145
p2358
aVOFBIZ-8144
p2359
aVOFBIZ-8143
p2360
aVOFBIZ-8142
p2361
aVOFBIZ-8141
p2362
aVOFBIZ-8140
p2363
aVOFBIZ-8139
p2364
aVOFBIZ-8138
p2365
aVOFBIZ-8137
p2366
aVOFBIZ-8136
p2367
aVOFBIZ-8135
p2368
aVOFBIZ-8134
p2369
aVOFBIZ-8133
p2370
aVOFBIZ-8132
p2371
aVOFBIZ-8131
p2372
aVOFBIZ-8130
p2373
aVOFBIZ-8129
p2374
aVOFBIZ-8128
p2375
aVOFBIZ-8127
p2376
aVOFBIZ-8126
p2377
aVOFBIZ-8125
p2378
aVOFBIZ-8124
p2379
aVOFBIZ-8123
p2380
aVOFBIZ-8122
p2381
aVOFBIZ-8121
p2382
aVOFBIZ-8120
p2383
aVOFBIZ-8119
p2384
aVOFBIZ-8118
p2385
aVOFBIZ-8117
p2386
aVOFBIZ-8116
p2387
aVOFBIZ-8115
p2388
aVOFBIZ-8114
p2389
aVOFBIZ-8113
p2390
aVOFBIZ-8112
p2391
aVOFBIZ-8111
p2392
aVOFBIZ-8110
p2393
aVOFBIZ-8109
p2394
aVOFBIZ-8108
p2395
aVOFBIZ-8107
p2396
aVOFBIZ-8106
p2397
aVOFBIZ-8105
p2398
aVOFBIZ-8104
p2399
aVOFBIZ-8103
p2400
aVOFBIZ-8102
p2401
aVOFBIZ-8101
p2402
aVOFBIZ-8100
p2403
aVOFBIZ-8099
p2404
aVOFBIZ-8098
p2405
aVOFBIZ-8097
p2406
aVOFBIZ-8096
p2407
aVOFBIZ-8095
p2408
aVOFBIZ-8094
p2409
aVOFBIZ-8093
p2410
aVOFBIZ-8092
p2411
aVOFBIZ-8091
p2412
aVOFBIZ-8090
p2413
aVOFBIZ-8089
p2414
aVOFBIZ-8088
p2415
aVOFBIZ-8087
p2416
aVOFBIZ-8086
p2417
aVOFBIZ-8085
p2418
aVOFBIZ-8084
p2419
aVOFBIZ-8083
p2420
aVOFBIZ-8082
p2421
aVOFBIZ-8081
p2422
aVOFBIZ-8080
p2423
aVOFBIZ-8079
p2424
aVOFBIZ-8078
p2425
aVOFBIZ-8077
p2426
aVOFBIZ-8076
p2427
aVOFBIZ-8075
p2428
aVOFBIZ-8074
p2429
aVOFBIZ-8073
p2430
aVOFBIZ-8072
p2431
aVOFBIZ-8071
p2432
aVOFBIZ-8070
p2433
aVOFBIZ-8069
p2434
aVOFBIZ-8068
p2435
aVOFBIZ-8067
p2436
aVOFBIZ-8066
p2437
aVOFBIZ-8065
p2438
aVOFBIZ-8064
p2439
aVOFBIZ-8063
p2440
aVOFBIZ-8062
p2441
aVOFBIZ-8061
p2442
aVOFBIZ-8060
p2443
aVOFBIZ-8059
p2444
aVOFBIZ-8058
p2445
aVOFBIZ-8057
p2446
aVOFBIZ-8056
p2447
aVOFBIZ-8055
p2448
aVOFBIZ-8054
p2449
aVOFBIZ-8053
p2450
aVOFBIZ-8052
p2451
aVOFBIZ-8051
p2452
aVOFBIZ-8050
p2453
aVOFBIZ-8049
p2454
aVOFBIZ-8048
p2455
aVOFBIZ-8047
p2456
aVOFBIZ-8046
p2457
aVOFBIZ-8045
p2458
aVOFBIZ-8044
p2459
aVOFBIZ-8043
p2460
aVOFBIZ-8042
p2461
aVOFBIZ-8041
p2462
aVOFBIZ-8040
p2463
aVOFBIZ-8039
p2464
aVOFBIZ-8038
p2465
aVOFBIZ-8037
p2466
aVOFBIZ-8036
p2467
aVOFBIZ-8035
p2468
aVOFBIZ-8034
p2469
aVOFBIZ-8033
p2470
aVOFBIZ-8032
p2471
aVOFBIZ-8031
p2472
aVOFBIZ-8030
p2473
aVOFBIZ-8029
p2474
aVOFBIZ-8028
p2475
aVOFBIZ-8027
p2476
aVOFBIZ-8026
p2477
aVOFBIZ-8025
p2478
aVOFBIZ-8024
p2479
aVOFBIZ-8023
p2480
aVOFBIZ-8022
p2481
aVOFBIZ-8021
p2482
aVOFBIZ-8020
p2483
aVOFBIZ-8019
p2484
aVOFBIZ-8018
p2485
aVOFBIZ-8017
p2486
aVOFBIZ-8016
p2487
aVOFBIZ-8015
p2488
aVOFBIZ-8014
p2489
aVOFBIZ-8013
p2490
aVOFBIZ-8012
p2491
aVOFBIZ-8011
p2492
aVOFBIZ-8010
p2493
aVOFBIZ-8009
p2494
aVOFBIZ-8008
p2495
aVOFBIZ-8007
p2496
aVOFBIZ-8006
p2497
aVOFBIZ-8005
p2498
aVOFBIZ-8004
p2499
aVOFBIZ-8003
p2500
aVOFBIZ-8002
p2501
aVOFBIZ-8001
p2502
aVOFBIZ-8000
p2503
aVOFBIZ-7999
p2504
aVOFBIZ-7998
p2505
aVOFBIZ-7997
p2506
aVOFBIZ-7996
p2507
aVOFBIZ-7995
p2508
aVOFBIZ-7994
p2509
aVOFBIZ-7993
p2510
aVOFBIZ-7992
p2511
aVOFBIZ-7991
p2512
aVOFBIZ-7990
p2513
aVOFBIZ-7989
p2514
aVOFBIZ-7988
p2515
aVOFBIZ-7987
p2516
aVOFBIZ-7986
p2517
aVOFBIZ-7985
p2518
aVOFBIZ-7984
p2519
aVOFBIZ-7983
p2520
aVOFBIZ-7982
p2521
aVOFBIZ-7981
p2522
aVOFBIZ-7980
p2523
aVOFBIZ-7979
p2524
aVOFBIZ-7978
p2525
aVOFBIZ-7977
p2526
aVOFBIZ-7976
p2527
aVOFBIZ-7975
p2528
aVOFBIZ-7974
p2529
aVOFBIZ-7973
p2530
aVOFBIZ-7972
p2531
aVOFBIZ-7971
p2532
aVOFBIZ-7970
p2533
aVOFBIZ-7969
p2534
aVOFBIZ-7968
p2535
aVOFBIZ-7967
p2536
aVOFBIZ-7966
p2537
aVOFBIZ-7965
p2538
aVOFBIZ-7964
p2539
aVOFBIZ-7963
p2540
aVOFBIZ-7962
p2541
aVOFBIZ-7961
p2542
aVOFBIZ-7960
p2543
aVOFBIZ-7959
p2544
aVOFBIZ-7958
p2545
aVOFBIZ-7957
p2546
aVOFBIZ-7956
p2547
aVOFBIZ-7955
p2548
aVOFBIZ-7954
p2549
aVOFBIZ-7953
p2550
aVOFBIZ-7952
p2551
aVOFBIZ-7951
p2552
aVOFBIZ-7950
p2553
aVOFBIZ-7949
p2554
aVOFBIZ-7948
p2555
aVOFBIZ-7947
p2556
aVOFBIZ-7946
p2557
aVOFBIZ-7945
p2558
aVOFBIZ-7944
p2559
aVOFBIZ-7943
p2560
aVOFBIZ-7942
p2561
aVOFBIZ-7941
p2562
aVOFBIZ-7940
p2563
aVOFBIZ-7939
p2564
aVOFBIZ-7938
p2565
aVOFBIZ-7937
p2566
aVOFBIZ-7936
p2567
aVOFBIZ-7935
p2568
aVOFBIZ-7934
p2569
aVOFBIZ-7933
p2570
aVOFBIZ-7932
p2571
aVOFBIZ-7931
p2572
aVOFBIZ-7930
p2573
aVOFBIZ-7929
p2574
aVOFBIZ-7928
p2575
aVOFBIZ-7927
p2576
aVOFBIZ-7926
p2577
aVOFBIZ-7925
p2578
aVOFBIZ-7924
p2579
aVOFBIZ-7923
p2580
aVOFBIZ-7922
p2581
aVOFBIZ-7921
p2582
aVOFBIZ-7920
p2583
aVOFBIZ-7919
p2584
aVOFBIZ-7918
p2585
aVOFBIZ-7917
p2586
aVOFBIZ-7916
p2587
aVOFBIZ-7915
p2588
aVOFBIZ-7914
p2589
aVOFBIZ-7913
p2590
aVOFBIZ-7912
p2591
aVOFBIZ-7911
p2592
aVOFBIZ-7910
p2593
aVOFBIZ-7909
p2594
aVOFBIZ-7908
p2595
aVOFBIZ-7907
p2596
aVOFBIZ-7906
p2597
aVOFBIZ-7905
p2598
aVOFBIZ-7904
p2599
aVOFBIZ-7903
p2600
aVOFBIZ-7902
p2601
aVOFBIZ-7901
p2602
aVOFBIZ-7900
p2603
aVOFBIZ-7899
p2604
aVOFBIZ-7898
p2605
aVOFBIZ-7897
p2606
aVOFBIZ-7896
p2607
aVOFBIZ-7895
p2608
aVOFBIZ-7894
p2609
aVOFBIZ-7893
p2610
aVOFBIZ-7892
p2611
aVOFBIZ-7891
p2612
aVOFBIZ-7890
p2613
aVOFBIZ-7889
p2614
aVOFBIZ-7888
p2615
aVOFBIZ-7887
p2616
aVOFBIZ-7886
p2617
aVOFBIZ-7885
p2618
aVOFBIZ-7884
p2619
aVOFBIZ-7883
p2620
aVOFBIZ-7882
p2621
aVOFBIZ-7881
p2622
aVOFBIZ-7880
p2623
aVOFBIZ-7879
p2624
aVOFBIZ-7878
p2625
aVOFBIZ-7877
p2626
aVOFBIZ-7876
p2627
aVOFBIZ-7875
p2628
aVOFBIZ-7874
p2629
aVOFBIZ-7873
p2630
aVOFBIZ-7872
p2631
aVOFBIZ-7871
p2632
aVOFBIZ-7870
p2633
aVOFBIZ-7869
p2634
aVOFBIZ-7868
p2635
aVOFBIZ-7867
p2636
aVOFBIZ-7866
p2637
aVOFBIZ-7865
p2638
aVOFBIZ-7864
p2639
aVOFBIZ-7863
p2640
aVOFBIZ-7862
p2641
aVOFBIZ-7861
p2642
aVOFBIZ-7860
p2643
aVOFBIZ-7859
p2644
aVOFBIZ-7858
p2645
aVOFBIZ-7857
p2646
aVOFBIZ-7856
p2647
aVOFBIZ-7855
p2648
aVOFBIZ-7854
p2649
aVOFBIZ-7853
p2650
aVOFBIZ-7852
p2651
aVOFBIZ-7851
p2652
aVOFBIZ-7850
p2653
aVOFBIZ-7849
p2654
aVOFBIZ-7848
p2655
aVOFBIZ-7847
p2656
aVOFBIZ-7846
p2657
aVOFBIZ-7845
p2658
aVOFBIZ-7844
p2659
aVOFBIZ-7843
p2660
aVOFBIZ-7842
p2661
aVOFBIZ-7841
p2662
aVOFBIZ-7840
p2663
aVOFBIZ-7839
p2664
aVOFBIZ-7838
p2665
aVOFBIZ-7837
p2666
aVOFBIZ-7836
p2667
aVOFBIZ-7835
p2668
aVOFBIZ-7834
p2669
aVOFBIZ-7833
p2670
aVOFBIZ-7832
p2671
aVOFBIZ-7831
p2672
aVOFBIZ-7830
p2673
aVOFBIZ-7829
p2674
aVOFBIZ-7828
p2675
aVOFBIZ-7827
p2676
aVOFBIZ-7826
p2677
aVOFBIZ-7825
p2678
aVOFBIZ-7824
p2679
aVOFBIZ-7823
p2680
aVOFBIZ-7822
p2681
aVOFBIZ-7821
p2682
aVOFBIZ-7820
p2683
aVOFBIZ-7819
p2684
aVOFBIZ-7818
p2685
aVOFBIZ-7817
p2686
aVOFBIZ-7816
p2687
aVOFBIZ-7815
p2688
aVOFBIZ-7814
p2689
aVOFBIZ-7813
p2690
aVOFBIZ-7812
p2691
aVOFBIZ-7811
p2692
aVOFBIZ-7810
p2693
aVOFBIZ-7809
p2694
aVOFBIZ-7808
p2695
aVOFBIZ-7807
p2696
aVOFBIZ-7806
p2697
aVOFBIZ-7805
p2698
aVOFBIZ-7804
p2699
aVOFBIZ-7803
p2700
aVOFBIZ-7802
p2701
aVOFBIZ-7801
p2702
aVOFBIZ-7800
p2703
aVOFBIZ-7799
p2704
aVOFBIZ-7798
p2705
aVOFBIZ-7797
p2706
aVOFBIZ-7796
p2707
aVOFBIZ-7795
p2708
aVOFBIZ-7794
p2709
aVOFBIZ-7793
p2710
aVOFBIZ-7792
p2711
aVOFBIZ-7791
p2712
aVOFBIZ-7790
p2713
aVOFBIZ-7789
p2714
aVOFBIZ-7788
p2715
aVOFBIZ-7787
p2716
aVOFBIZ-7786
p2717
aVOFBIZ-7785
p2718
aVOFBIZ-7784
p2719
aVOFBIZ-7783
p2720
aVOFBIZ-7782
p2721
aVOFBIZ-7781
p2722
aVOFBIZ-7780
p2723
aVOFBIZ-7779
p2724
aVOFBIZ-7778
p2725
aVOFBIZ-7777
p2726
aVOFBIZ-7776
p2727
aVOFBIZ-7775
p2728
aVOFBIZ-7774
p2729
aVOFBIZ-7773
p2730
aVOFBIZ-7772
p2731
aVOFBIZ-7771
p2732
aVOFBIZ-7770
p2733
aVOFBIZ-7769
p2734
aVOFBIZ-7768
p2735
aVOFBIZ-7767
p2736
aVOFBIZ-7766
p2737
aVOFBIZ-7765
p2738
aVOFBIZ-7764
p2739
aVOFBIZ-7763
p2740
aVOFBIZ-7762
p2741
aVOFBIZ-7761
p2742
aVOFBIZ-7760
p2743
aVOFBIZ-7759
p2744
aVOFBIZ-7758
p2745
aVOFBIZ-7757
p2746
aVOFBIZ-7756
p2747
aVOFBIZ-7755
p2748
aVOFBIZ-7754
p2749
aVOFBIZ-7753
p2750
aVOFBIZ-7752
p2751
aVOFBIZ-7751
p2752
aVOFBIZ-7750
p2753
aVOFBIZ-7749
p2754
aVOFBIZ-7748
p2755
aVOFBIZ-7747
p2756
aVOFBIZ-7746
p2757
aVOFBIZ-7745
p2758
aVOFBIZ-7744
p2759
aVOFBIZ-7743
p2760
aVOFBIZ-7742
p2761
aVOFBIZ-7741
p2762
aVOFBIZ-7740
p2763
aVOFBIZ-7739
p2764
aVOFBIZ-7738
p2765
aVOFBIZ-7737
p2766
aVOFBIZ-7736
p2767
aVOFBIZ-7735
p2768
aVOFBIZ-7734
p2769
aVOFBIZ-7733
p2770
aVOFBIZ-7732
p2771
aVOFBIZ-7731
p2772
aVOFBIZ-7730
p2773
aVOFBIZ-7729
p2774
aVOFBIZ-7728
p2775
aVOFBIZ-7727
p2776
aVOFBIZ-7726
p2777
aVOFBIZ-7725
p2778
aVOFBIZ-7724
p2779
aVOFBIZ-7723
p2780
aVOFBIZ-7722
p2781
aVOFBIZ-7721
p2782
aVOFBIZ-7720
p2783
aVOFBIZ-7719
p2784
aVOFBIZ-7718
p2785
aVOFBIZ-7717
p2786
aVOFBIZ-7716
p2787
aVOFBIZ-7715
p2788
aVOFBIZ-7714
p2789
aVOFBIZ-7713
p2790
aVOFBIZ-7712
p2791
aVOFBIZ-7711
p2792
aVOFBIZ-7710
p2793
aVOFBIZ-7709
p2794
aVOFBIZ-7708
p2795
aVOFBIZ-7707
p2796
aVOFBIZ-7706
p2797
aVOFBIZ-7705
p2798
aVOFBIZ-7704
p2799
aVOFBIZ-7703
p2800
aVOFBIZ-7702
p2801
aVOFBIZ-7701
p2802
aVOFBIZ-7700
p2803
aVOFBIZ-7699
p2804
aVOFBIZ-7698
p2805
aVOFBIZ-7697
p2806
aVOFBIZ-7696
p2807
aVOFBIZ-7695
p2808
aVOFBIZ-7694
p2809
aVOFBIZ-7693
p2810
aVOFBIZ-7692
p2811
aVOFBIZ-7691
p2812
aVOFBIZ-7690
p2813
aVOFBIZ-7689
p2814
aVOFBIZ-7688
p2815
aVOFBIZ-7687
p2816
aVOFBIZ-7686
p2817
aVOFBIZ-7685
p2818
aVOFBIZ-7684
p2819
aVOFBIZ-7683
p2820
aVOFBIZ-7682
p2821
aVOFBIZ-7681
p2822
aVOFBIZ-7680
p2823
aVOFBIZ-7679
p2824
aVOFBIZ-7678
p2825
aVOFBIZ-7677
p2826
aVOFBIZ-7676
p2827
aVOFBIZ-7675
p2828
aVOFBIZ-7674
p2829
aVOFBIZ-7673
p2830
aVOFBIZ-7672
p2831
aVOFBIZ-7671
p2832
aVOFBIZ-7670
p2833
aVOFBIZ-7669
p2834
aVOFBIZ-7668
p2835
aVOFBIZ-7667
p2836
aVOFBIZ-7666
p2837
aVOFBIZ-7665
p2838
aVOFBIZ-7664
p2839
aVOFBIZ-7663
p2840
aVOFBIZ-7662
p2841
aVOFBIZ-7661
p2842
aVOFBIZ-7660
p2843
aVOFBIZ-7659
p2844
aVOFBIZ-7658
p2845
aVOFBIZ-7657
p2846
aVOFBIZ-7656
p2847
aVOFBIZ-7655
p2848
aVOFBIZ-7654
p2849
aVOFBIZ-7653
p2850
aVOFBIZ-7652
p2851
aVOFBIZ-7651
p2852
aVOFBIZ-7650
p2853
aVOFBIZ-7649
p2854
aVOFBIZ-7648
p2855
aVOFBIZ-7647
p2856
aVOFBIZ-7646
p2857
aVOFBIZ-7645
p2858
aVOFBIZ-7644
p2859
aVOFBIZ-7643
p2860
aVOFBIZ-7642
p2861
aVOFBIZ-7641
p2862
aVOFBIZ-7640
p2863
aVOFBIZ-7639
p2864
aVOFBIZ-7638
p2865
aVOFBIZ-7637
p2866
aVOFBIZ-7636
p2867
aVOFBIZ-7635
p2868
aVOFBIZ-7634
p2869
aVOFBIZ-7633
p2870
aVOFBIZ-7632
p2871
aVOFBIZ-7631
p2872
aVOFBIZ-7630
p2873
aVOFBIZ-7629
p2874
aVOFBIZ-7628
p2875
aVOFBIZ-7627
p2876
aVOFBIZ-7626
p2877
aVOFBIZ-7625
p2878
aVOFBIZ-7624
p2879
aVOFBIZ-7623
p2880
aVOFBIZ-7622
p2881
aVOFBIZ-7621
p2882
aVOFBIZ-7620
p2883
aVOFBIZ-7619
p2884
aVOFBIZ-7618
p2885
aVOFBIZ-7617
p2886
aVOFBIZ-7616
p2887
aVOFBIZ-7615
p2888
aVOFBIZ-7614
p2889
aVOFBIZ-7613
p2890
aVOFBIZ-7612
p2891
aVOFBIZ-7611
p2892
aVOFBIZ-7610
p2893
aVOFBIZ-7609
p2894
aVOFBIZ-7608
p2895
aVOFBIZ-7607
p2896
aVOFBIZ-7606
p2897
aVOFBIZ-7605
p2898
aVOFBIZ-7604
p2899
aVOFBIZ-7603
p2900
aVOFBIZ-7602
p2901
aVOFBIZ-7601
p2902
aVOFBIZ-7600
p2903
aVOFBIZ-7599
p2904
aVOFBIZ-7598
p2905
aVOFBIZ-7597
p2906
aVOFBIZ-7596
p2907
aVOFBIZ-7595
p2908
aVOFBIZ-7594
p2909
aVOFBIZ-7593
p2910
aVOFBIZ-7592
p2911
aVOFBIZ-7591
p2912
aVOFBIZ-7590
p2913
aVOFBIZ-7589
p2914
aVOFBIZ-7588
p2915
aVOFBIZ-7587
p2916
aVOFBIZ-7586
p2917
aVOFBIZ-7585
p2918
aVOFBIZ-7584
p2919
aVOFBIZ-7583
p2920
aVOFBIZ-7582
p2921
aVOFBIZ-7581
p2922
aVOFBIZ-7580
p2923
aVOFBIZ-7579
p2924
aVOFBIZ-7578
p2925
aVOFBIZ-7577
p2926
aVOFBIZ-7576
p2927
aVOFBIZ-7575
p2928
aVOFBIZ-7574
p2929
aVOFBIZ-7573
p2930
aVOFBIZ-7572
p2931
aVOFBIZ-7571
p2932
aVOFBIZ-7570
p2933
aVOFBIZ-7569
p2934
aVOFBIZ-7568
p2935
aVOFBIZ-7567
p2936
aVOFBIZ-7566
p2937
aVOFBIZ-7565
p2938
aVOFBIZ-7564
p2939
aVOFBIZ-7563
p2940
aVOFBIZ-7562
p2941
aVOFBIZ-7561
p2942
aVOFBIZ-7560
p2943
aVOFBIZ-7559
p2944
aVOFBIZ-7558
p2945
aVOFBIZ-7557
p2946
aVOFBIZ-7556
p2947
aVOFBIZ-7555
p2948
aVOFBIZ-7554
p2949
aVOFBIZ-7553
p2950
aVOFBIZ-7552
p2951
aVOFBIZ-7551
p2952
aVOFBIZ-7550
p2953
aVOFBIZ-7549
p2954
aVOFBIZ-7548
p2955
aVOFBIZ-7547
p2956
aVOFBIZ-7546
p2957
aVOFBIZ-7545
p2958
aVOFBIZ-7544
p2959
aVOFBIZ-7543
p2960
aVOFBIZ-7542
p2961
aVOFBIZ-7541
p2962
aVOFBIZ-7540
p2963
aVOFBIZ-7539
p2964
aVOFBIZ-7538
p2965
aVOFBIZ-7537
p2966
aVOFBIZ-7536
p2967
aVOFBIZ-7535
p2968
aVOFBIZ-7534
p2969
aVOFBIZ-7533
p2970
aVOFBIZ-7532
p2971
aVOFBIZ-7531
p2972
aVOFBIZ-7530
p2973
aVOFBIZ-7529
p2974
aVOFBIZ-7528
p2975
aVOFBIZ-7527
p2976
aVOFBIZ-7526
p2977
aVOFBIZ-7525
p2978
aVOFBIZ-7524
p2979
aVOFBIZ-7523
p2980
aVOFBIZ-7522
p2981
aVOFBIZ-7521
p2982
aVOFBIZ-7520
p2983
aVOFBIZ-7519
p2984
aVOFBIZ-7518
p2985
aVOFBIZ-7517
p2986
aVOFBIZ-7516
p2987
aVOFBIZ-7515
p2988
aVOFBIZ-7514
p2989
aVOFBIZ-7513
p2990
aVOFBIZ-7512
p2991
aVOFBIZ-7511
p2992
aVOFBIZ-7510
p2993
aVOFBIZ-7509
p2994
aVOFBIZ-7508
p2995
aVOFBIZ-7507
p2996
aVOFBIZ-7506
p2997
aVOFBIZ-7505
p2998
aVOFBIZ-7504
p2999
aVOFBIZ-7503
p3000
aVOFBIZ-7502
p3001
aVOFBIZ-7501
p3002
aVOFBIZ-7500
p3003
aVOFBIZ-7499
p3004
aVOFBIZ-7498
p3005
aVOFBIZ-7497
p3006
aVOFBIZ-7496
p3007
aVOFBIZ-7495
p3008
aVOFBIZ-7494
p3009
aVOFBIZ-7493
p3010
aVOFBIZ-7492
p3011
aVOFBIZ-7491
p3012
aVOFBIZ-7490
p3013
aVOFBIZ-7489
p3014
aVOFBIZ-7488
p3015
aVOFBIZ-7487
p3016
aVOFBIZ-7486
p3017
aVOFBIZ-7485
p3018
aVOFBIZ-7484
p3019
aVOFBIZ-7483
p3020
aVOFBIZ-7482
p3021
aVOFBIZ-7481
p3022
aVOFBIZ-7480
p3023
aVOFBIZ-7479
p3024
aVOFBIZ-7478
p3025
aVOFBIZ-7477
p3026
aVOFBIZ-7476
p3027
aVOFBIZ-7475
p3028
aVOFBIZ-7474
p3029
aVOFBIZ-7473
p3030
aVOFBIZ-7472
p3031
aVOFBIZ-7471
p3032
aVOFBIZ-7470
p3033
aVOFBIZ-7469
p3034
aVOFBIZ-7468
p3035
aVOFBIZ-7467
p3036
aVOFBIZ-7466
p3037
aVOFBIZ-7465
p3038
aVOFBIZ-7464
p3039
aVOFBIZ-7463
p3040
aVOFBIZ-7462
p3041
aVOFBIZ-7461
p3042
aVOFBIZ-7460
p3043
aVOFBIZ-7459
p3044
aVOFBIZ-7458
p3045
aVOFBIZ-7457
p3046
aVOFBIZ-7456
p3047
aVOFBIZ-7455
p3048
aVOFBIZ-7454
p3049
aVOFBIZ-7453
p3050
aVOFBIZ-7452
p3051
aVOFBIZ-7451
p3052
aVOFBIZ-7450
p3053
aVOFBIZ-7449
p3054
aVOFBIZ-7448
p3055
aVOFBIZ-7447
p3056
aVOFBIZ-7446
p3057
aVOFBIZ-7445
p3058
aVOFBIZ-7444
p3059
aVOFBIZ-7443
p3060
aVOFBIZ-7442
p3061
aVOFBIZ-7441
p3062
aVOFBIZ-7440
p3063
aVOFBIZ-7439
p3064
aVOFBIZ-7438
p3065
aVOFBIZ-7437
p3066
aVOFBIZ-7436
p3067
aVOFBIZ-7435
p3068
aVOFBIZ-7434
p3069
aVOFBIZ-7433
p3070
aVOFBIZ-7432
p3071
aVOFBIZ-7431
p3072
aVOFBIZ-7430
p3073
aVOFBIZ-7429
p3074
aVOFBIZ-7428
p3075
aVOFBIZ-7427
p3076
aVOFBIZ-7426
p3077
aVOFBIZ-7425
p3078
aVOFBIZ-7424
p3079
aVOFBIZ-7423
p3080
aVOFBIZ-7422
p3081
aVOFBIZ-7421
p3082
aVOFBIZ-7420
p3083
aVOFBIZ-7419
p3084
aVOFBIZ-7418
p3085
aVOFBIZ-7417
p3086
aVOFBIZ-7416
p3087
aVOFBIZ-7415
p3088
aVOFBIZ-7414
p3089
aVOFBIZ-7413
p3090
aVOFBIZ-7412
p3091
aVOFBIZ-7411
p3092
aVOFBIZ-7410
p3093
aVOFBIZ-7409
p3094
aVOFBIZ-7408
p3095
aVOFBIZ-7407
p3096
aVOFBIZ-7406
p3097
aVOFBIZ-7405
p3098
aVOFBIZ-7404
p3099
aVOFBIZ-7403
p3100
aVOFBIZ-7402
p3101
aVOFBIZ-7401
p3102
aVOFBIZ-7400
p3103
aVOFBIZ-7399
p3104
aVOFBIZ-7398
p3105
aVOFBIZ-7397
p3106
aVOFBIZ-7396
p3107
aVOFBIZ-7395
p3108
aVOFBIZ-7394
p3109
aVOFBIZ-7393
p3110
aVOFBIZ-7392
p3111
aVOFBIZ-7391
p3112
aVOFBIZ-7390
p3113
aVOFBIZ-7389
p3114
aVOFBIZ-7388
p3115
aVOFBIZ-7387
p3116
aVOFBIZ-7386
p3117
aVOFBIZ-7385
p3118
aVOFBIZ-7384
p3119
aVOFBIZ-7383
p3120
aVOFBIZ-7382
p3121
aVOFBIZ-7381
p3122
aVOFBIZ-7380
p3123
aVOFBIZ-7379
p3124
aVOFBIZ-7378
p3125
aVOFBIZ-7377
p3126
aVOFBIZ-7376
p3127
aVOFBIZ-7375
p3128
aVOFBIZ-7374
p3129
aVOFBIZ-7373
p3130
aVOFBIZ-7372
p3131
aVOFBIZ-7371
p3132
aVOFBIZ-7370
p3133
aVOFBIZ-7369
p3134
aVOFBIZ-7368
p3135
aVOFBIZ-7367
p3136
aVOFBIZ-7366
p3137
aVOFBIZ-7365
p3138
aVOFBIZ-7364
p3139
aVOFBIZ-7363
p3140
aVOFBIZ-7362
p3141
aVOFBIZ-7361
p3142
aVOFBIZ-7360
p3143
aVOFBIZ-7359
p3144
aVOFBIZ-7358
p3145
aVOFBIZ-7357
p3146
aVOFBIZ-7356
p3147
aVOFBIZ-7355
p3148
aVOFBIZ-7354
p3149
aVOFBIZ-7353
p3150
aVOFBIZ-7352
p3151
aVOFBIZ-7351
p3152
aVOFBIZ-7350
p3153
aVOFBIZ-7349
p3154
aVOFBIZ-7348
p3155
aVOFBIZ-7347
p3156
aVOFBIZ-7346
p3157
aVOFBIZ-7345
p3158
aVOFBIZ-7344
p3159
aVOFBIZ-7343
p3160
aVOFBIZ-7342
p3161
aVOFBIZ-7341
p3162
aVOFBIZ-7340
p3163
aVOFBIZ-7339
p3164
aVOFBIZ-7338
p3165
aVOFBIZ-7337
p3166
aVOFBIZ-7336
p3167
aVOFBIZ-7335
p3168
aVOFBIZ-7334
p3169
aVOFBIZ-7333
p3170
aVOFBIZ-7332
p3171
aVOFBIZ-7331
p3172
aVOFBIZ-7330
p3173
aVOFBIZ-7329
p3174
aVOFBIZ-7328
p3175
aVOFBIZ-7327
p3176
aVOFBIZ-7326
p3177
aVOFBIZ-7325
p3178
aVOFBIZ-7324
p3179
aVOFBIZ-7323
p3180
aVOFBIZ-7322
p3181
aVOFBIZ-7321
p3182
aVOFBIZ-7320
p3183
aVOFBIZ-7319
p3184
aVOFBIZ-7318
p3185
aVOFBIZ-7317
p3186
aVOFBIZ-7316
p3187
aVOFBIZ-7315
p3188
aVOFBIZ-7314
p3189
aVOFBIZ-7313
p3190
aVOFBIZ-7312
p3191
aVOFBIZ-7311
p3192
aVOFBIZ-7310
p3193
aVOFBIZ-7309
p3194
aVOFBIZ-7308
p3195
aVOFBIZ-7307
p3196
aVOFBIZ-7306
p3197
aVOFBIZ-7305
p3198
aVOFBIZ-7304
p3199
aVOFBIZ-7303
p3200
aVOFBIZ-7302
p3201
aVOFBIZ-7301
p3202
aVOFBIZ-7300
p3203
aVOFBIZ-7299
p3204
aVOFBIZ-7298
p3205
aVOFBIZ-7297
p3206
aVOFBIZ-7296
p3207
aVOFBIZ-7295
p3208
aVOFBIZ-7294
p3209
aVOFBIZ-7293
p3210
aVOFBIZ-7292
p3211
aVOFBIZ-7291
p3212
aVOFBIZ-7290
p3213
aVOFBIZ-7289
p3214
aVOFBIZ-7288
p3215
aVOFBIZ-7287
p3216
aVOFBIZ-7286
p3217
aVOFBIZ-7285
p3218
aVOFBIZ-7284
p3219
aVOFBIZ-7283
p3220
aVOFBIZ-7282
p3221
aVOFBIZ-7281
p3222
aVOFBIZ-7280
p3223
aVOFBIZ-7279
p3224
aVOFBIZ-7278
p3225
aVOFBIZ-7277
p3226
aVOFBIZ-7276
p3227
aVOFBIZ-7275
p3228
aVOFBIZ-7274
p3229
aVOFBIZ-7273
p3230
aVOFBIZ-7272
p3231
aVOFBIZ-7271
p3232
aVOFBIZ-7270
p3233
aVOFBIZ-7269
p3234
aVOFBIZ-7268
p3235
aVOFBIZ-7267
p3236
aVOFBIZ-7266
p3237
aVOFBIZ-7265
p3238
aVOFBIZ-7264
p3239
aVOFBIZ-7263
p3240
aVOFBIZ-7262
p3241
aVOFBIZ-7261
p3242
aVOFBIZ-7260
p3243
aVOFBIZ-7259
p3244
aVOFBIZ-7258
p3245
aVOFBIZ-7257
p3246
aVOFBIZ-7256
p3247
aVOFBIZ-7255
p3248
aVOFBIZ-7254
p3249
aVOFBIZ-7253
p3250
aVOFBIZ-7252
p3251
aVOFBIZ-7251
p3252
aVOFBIZ-7250
p3253
aVOFBIZ-7249
p3254
aVOFBIZ-7248
p3255
aVOFBIZ-7247
p3256
aVOFBIZ-7246
p3257
aVOFBIZ-7245
p3258
aVOFBIZ-7244
p3259
aVOFBIZ-7243
p3260
aVOFBIZ-7242
p3261
aVOFBIZ-7241
p3262
aVOFBIZ-7240
p3263
aVOFBIZ-7239
p3264
aVOFBIZ-7238
p3265
aVOFBIZ-7237
p3266
aVOFBIZ-7236
p3267
aVOFBIZ-7235
p3268
aVOFBIZ-7234
p3269
aVOFBIZ-7233
p3270
aVOFBIZ-7232
p3271
aVOFBIZ-7231
p3272
aVOFBIZ-7230
p3273
aVOFBIZ-7229
p3274
aVOFBIZ-7228
p3275
aVOFBIZ-7227
p3276
aVOFBIZ-7226
p3277
aVOFBIZ-7225
p3278
aVOFBIZ-7224
p3279
aVOFBIZ-7223
p3280
aVOFBIZ-7222
p3281
aVOFBIZ-7221
p3282
aVOFBIZ-7220
p3283
aVOFBIZ-7219
p3284
aVOFBIZ-7218
p3285
aVOFBIZ-7217
p3286
aVOFBIZ-7216
p3287
aVOFBIZ-7215
p3288
aVOFBIZ-7214
p3289
aVOFBIZ-7213
p3290
aVOFBIZ-7212
p3291
aVOFBIZ-7211
p3292
aVOFBIZ-7210
p3293
aVOFBIZ-7209
p3294
aVOFBIZ-7208
p3295
aVOFBIZ-7207
p3296
aVOFBIZ-7206
p3297
aVOFBIZ-7205
p3298
aVOFBIZ-7204
p3299
aVOFBIZ-7203
p3300
aVOFBIZ-7202
p3301
aVOFBIZ-7201
p3302
aVOFBIZ-7200
p3303
aVOFBIZ-7199
p3304
aVOFBIZ-7198
p3305
aVOFBIZ-7197
p3306
aVOFBIZ-7196
p3307
aVOFBIZ-7195
p3308
aVOFBIZ-7194
p3309
aVOFBIZ-7193
p3310
aVOFBIZ-7192
p3311
aVOFBIZ-7191
p3312
aVOFBIZ-7190
p3313
aVOFBIZ-7189
p3314
aVOFBIZ-7188
p3315
aVOFBIZ-7187
p3316
aVOFBIZ-7186
p3317
aVOFBIZ-7185
p3318
aVOFBIZ-7184
p3319
aVOFBIZ-7183
p3320
aVOFBIZ-7182
p3321
aVOFBIZ-7181
p3322
aVOFBIZ-7180
p3323
aVOFBIZ-7179
p3324
aVOFBIZ-7178
p3325
aVOFBIZ-7177
p3326
aVOFBIZ-7176
p3327
aVOFBIZ-7175
p3328
aVOFBIZ-7174
p3329
aVOFBIZ-7173
p3330
aVOFBIZ-7172
p3331
aVOFBIZ-7171
p3332
aVOFBIZ-7170
p3333
aVOFBIZ-7169
p3334
aVOFBIZ-7168
p3335
aVOFBIZ-7167
p3336
aVOFBIZ-7166
p3337
aVOFBIZ-7165
p3338
aVOFBIZ-7164
p3339
aVOFBIZ-7163
p3340
aVOFBIZ-7162
p3341
aVOFBIZ-7161
p3342
aVOFBIZ-7160
p3343
aVOFBIZ-7159
p3344
aVOFBIZ-7158
p3345
aVOFBIZ-7157
p3346
aVOFBIZ-7156
p3347
aVOFBIZ-7155
p3348
aVOFBIZ-7154
p3349
aVOFBIZ-7153
p3350
aVOFBIZ-7152
p3351
aVOFBIZ-7151
p3352
aVOFBIZ-7150
p3353
aVOFBIZ-7149
p3354
aVOFBIZ-7148
p3355
aVOFBIZ-7147
p3356
aVOFBIZ-7146
p3357
aVOFBIZ-7145
p3358
aVOFBIZ-7144
p3359
aVOFBIZ-7143
p3360
aVOFBIZ-7142
p3361
aVOFBIZ-7141
p3362
aVOFBIZ-7140
p3363
aVOFBIZ-7139
p3364
aVOFBIZ-7138
p3365
aVOFBIZ-7137
p3366
aVOFBIZ-7136
p3367
aVOFBIZ-7135
p3368
aVOFBIZ-7134
p3369
aVOFBIZ-7133
p3370
aVOFBIZ-7132
p3371
aVOFBIZ-7131
p3372
aVOFBIZ-7130
p3373
aVOFBIZ-7129
p3374
aVOFBIZ-7128
p3375
aVOFBIZ-7127
p3376
aVOFBIZ-7126
p3377
aVOFBIZ-7125
p3378
aVOFBIZ-7124
p3379
aVOFBIZ-7123
p3380
aVOFBIZ-7122
p3381
aVOFBIZ-7121
p3382
aVOFBIZ-7120
p3383
aVOFBIZ-7119
p3384
aVOFBIZ-7118
p3385
aVOFBIZ-7117
p3386
aVOFBIZ-7116
p3387
aVOFBIZ-7115
p3388
aVOFBIZ-7114
p3389
aVOFBIZ-7113
p3390
aVOFBIZ-7112
p3391
aVOFBIZ-7111
p3392
aVOFBIZ-7110
p3393
aVOFBIZ-7109
p3394
aVOFBIZ-7108
p3395
aVOFBIZ-7107
p3396
aVOFBIZ-7106
p3397
aVOFBIZ-7105
p3398
aVOFBIZ-7104
p3399
aVOFBIZ-7103
p3400
aVOFBIZ-7102
p3401
aVOFBIZ-7101
p3402
aVOFBIZ-7100
p3403
aVOFBIZ-7099
p3404
aVOFBIZ-7098
p3405
aVOFBIZ-7097
p3406
aVOFBIZ-7096
p3407
aVOFBIZ-7095
p3408
aVOFBIZ-7094
p3409
aVOFBIZ-7093
p3410
aVOFBIZ-7092
p3411
aVOFBIZ-7091
p3412
aVOFBIZ-7090
p3413
aVOFBIZ-7089
p3414
aVOFBIZ-7088
p3415
aVOFBIZ-7087
p3416
aVOFBIZ-7086
p3417
aVOFBIZ-7085
p3418
aVOFBIZ-7084
p3419
aVOFBIZ-7083
p3420
aVOFBIZ-7082
p3421
aVOFBIZ-7081
p3422
aVOFBIZ-7080
p3423
aVOFBIZ-7079
p3424
aVOFBIZ-7078
p3425
aVOFBIZ-7077
p3426
aVOFBIZ-7076
p3427
aVOFBIZ-7075
p3428
aVOFBIZ-7074
p3429
aVOFBIZ-7073
p3430
aVOFBIZ-7072
p3431
aVOFBIZ-7071
p3432
aVOFBIZ-7070
p3433
aVOFBIZ-7069
p3434
aVOFBIZ-7068
p3435
aVOFBIZ-7067
p3436
aVOFBIZ-7066
p3437
aVOFBIZ-7065
p3438
aVOFBIZ-7064
p3439
aVOFBIZ-7063
p3440
aVOFBIZ-7062
p3441
aVOFBIZ-7061
p3442
aVOFBIZ-7060
p3443
aVOFBIZ-7059
p3444
aVOFBIZ-7058
p3445
aVOFBIZ-7057
p3446
aVOFBIZ-7056
p3447
aVOFBIZ-7055
p3448
aVOFBIZ-7054
p3449
aVOFBIZ-7053
p3450
aVOFBIZ-7052
p3451
aVOFBIZ-7051
p3452
aVOFBIZ-7050
p3453
aVOFBIZ-7049
p3454
aVOFBIZ-7048
p3455
aVOFBIZ-7047
p3456
aVOFBIZ-7046
p3457
aVOFBIZ-7045
p3458
aVOFBIZ-7044
p3459
aVOFBIZ-7043
p3460
aVOFBIZ-7042
p3461
aVOFBIZ-7041
p3462
aVOFBIZ-7040
p3463
aVOFBIZ-7039
p3464
aVOFBIZ-7038
p3465
aVOFBIZ-7037
p3466
aVOFBIZ-7036
p3467
aVOFBIZ-7035
p3468
aVOFBIZ-7034
p3469
aVOFBIZ-7033
p3470
aVOFBIZ-7032
p3471
aVOFBIZ-7031
p3472
aVOFBIZ-7030
p3473
aVOFBIZ-7029
p3474
aVOFBIZ-7028
p3475
aVOFBIZ-7027
p3476
aVOFBIZ-7026
p3477
aVOFBIZ-7025
p3478
aVOFBIZ-7024
p3479
aVOFBIZ-7023
p3480
aVOFBIZ-7022
p3481
aVOFBIZ-7021
p3482
aVOFBIZ-7020
p3483
aVOFBIZ-7019
p3484
aVOFBIZ-7018
p3485
aVOFBIZ-7017
p3486
aVOFBIZ-7016
p3487
aVOFBIZ-7015
p3488
aVOFBIZ-7014
p3489
aVOFBIZ-7013
p3490
aVOFBIZ-7012
p3491
aVOFBIZ-7011
p3492
aVOFBIZ-7010
p3493
aVOFBIZ-7009
p3494
aVOFBIZ-7008
p3495
aVOFBIZ-7007
p3496
aVOFBIZ-7006
p3497
aVOFBIZ-7005
p3498
aVOFBIZ-7004
p3499
aVOFBIZ-7003
p3500
aVOFBIZ-7002
p3501
aVOFBIZ-7001
p3502
aVOFBIZ-7000
p3503
aVOFBIZ-6999
p3504
aVOFBIZ-6998
p3505
aVOFBIZ-6997
p3506
aVOFBIZ-6996
p3507
aVOFBIZ-6995
p3508
aVOFBIZ-6994
p3509
aVOFBIZ-6993
p3510
aVOFBIZ-6992
p3511
aVOFBIZ-6991
p3512
aVOFBIZ-6990
p3513
aVOFBIZ-6989
p3514
aVOFBIZ-6988
p3515
aVOFBIZ-6987
p3516
aVOFBIZ-6986
p3517
aVOFBIZ-6985
p3518
aVOFBIZ-6984
p3519
aVOFBIZ-6983
p3520
aVOFBIZ-6982
p3521
aVOFBIZ-6981
p3522
aVOFBIZ-6980
p3523
aVOFBIZ-6979
p3524
aVOFBIZ-6978
p3525
aVOFBIZ-6977
p3526
aVOFBIZ-6976
p3527
aVOFBIZ-6975
p3528
aVOFBIZ-6974
p3529
aVOFBIZ-6973
p3530
aVOFBIZ-6972
p3531
aVOFBIZ-6971
p3532
aVOFBIZ-6970
p3533
aVOFBIZ-6969
p3534
aVOFBIZ-6968
p3535
aVOFBIZ-6967
p3536
aVOFBIZ-6966
p3537
aVOFBIZ-6965
p3538
aVOFBIZ-6964
p3539
aVOFBIZ-6963
p3540
aVOFBIZ-6962
p3541
aVOFBIZ-6961
p3542
aVOFBIZ-6960
p3543
aVOFBIZ-6959
p3544
aVOFBIZ-6958
p3545
aVOFBIZ-6957
p3546
aVOFBIZ-6956
p3547
aVOFBIZ-6955
p3548
aVOFBIZ-6954
p3549
aVOFBIZ-6953
p3550
aVOFBIZ-6952
p3551
aVOFBIZ-6951
p3552
aVOFBIZ-6950
p3553
aVOFBIZ-6949
p3554
aVOFBIZ-6948
p3555
aVOFBIZ-6947
p3556
aVOFBIZ-6946
p3557
aVOFBIZ-6945
p3558
aVOFBIZ-6944
p3559
aVOFBIZ-6943
p3560
aVOFBIZ-6942
p3561
aVOFBIZ-6941
p3562
aVOFBIZ-6940
p3563
aVOFBIZ-6939
p3564
aVOFBIZ-6938
p3565
aVOFBIZ-6937
p3566
aVOFBIZ-6936
p3567
aVOFBIZ-6935
p3568
aVOFBIZ-6934
p3569
aVOFBIZ-6933
p3570
aVOFBIZ-6932
p3571
aVOFBIZ-6931
p3572
aVOFBIZ-6930
p3573
aVOFBIZ-6929
p3574
aVOFBIZ-6928
p3575
aVOFBIZ-6927
p3576
aVOFBIZ-6926
p3577
aVOFBIZ-6925
p3578
aVOFBIZ-6924
p3579
aVOFBIZ-6923
p3580
aVOFBIZ-6922
p3581
aVOFBIZ-6921
p3582
aVOFBIZ-6920
p3583
aVOFBIZ-6919
p3584
aVOFBIZ-6918
p3585
aVOFBIZ-6917
p3586
aVOFBIZ-6916
p3587
aVOFBIZ-6915
p3588
aVOFBIZ-6914
p3589
aVOFBIZ-6913
p3590
aVOFBIZ-6912
p3591
aVOFBIZ-6911
p3592
aVOFBIZ-6910
p3593
aVOFBIZ-6909
p3594
aVOFBIZ-6908
p3595
aVOFBIZ-6907
p3596
aVOFBIZ-6906
p3597
aVOFBIZ-6905
p3598
aVOFBIZ-6904
p3599
aVOFBIZ-6903
p3600
aVOFBIZ-6902
p3601
aVOFBIZ-6901
p3602
aVOFBIZ-6900
p3603
aVOFBIZ-6899
p3604
aVOFBIZ-6898
p3605
aVOFBIZ-6897
p3606
aVOFBIZ-6896
p3607
aVOFBIZ-6895
p3608
aVOFBIZ-6894
p3609
aVOFBIZ-6893
p3610
aVOFBIZ-6892
p3611
aVOFBIZ-6891
p3612
aVOFBIZ-6890
p3613
aVOFBIZ-6889
p3614
aVOFBIZ-6888
p3615
aVOFBIZ-6887
p3616
aVOFBIZ-6886
p3617
aVOFBIZ-6885
p3618
aVOFBIZ-6884
p3619
aVOFBIZ-6883
p3620
aVOFBIZ-6882
p3621
aVOFBIZ-6881
p3622
aVOFBIZ-6880
p3623
aVOFBIZ-6879
p3624
aVOFBIZ-6878
p3625
aVOFBIZ-6877
p3626
aVOFBIZ-6876
p3627
aVOFBIZ-6875
p3628
aVOFBIZ-6874
p3629
aVOFBIZ-6873
p3630
aVOFBIZ-6872
p3631
aVOFBIZ-6871
p3632
aVOFBIZ-6870
p3633
aVOFBIZ-6869
p3634
aVOFBIZ-6868
p3635
aVOFBIZ-6867
p3636
aVOFBIZ-6866
p3637
aVOFBIZ-6865
p3638
aVOFBIZ-6864
p3639
aVOFBIZ-6863
p3640
aVOFBIZ-6862
p3641
aVOFBIZ-6861
p3642
aVOFBIZ-6860
p3643
aVOFBIZ-6859
p3644
aVOFBIZ-6858
p3645
aVOFBIZ-6857
p3646
aVOFBIZ-6856
p3647
aVOFBIZ-6855
p3648
aVOFBIZ-6854
p3649
aVOFBIZ-6853
p3650
aVOFBIZ-6852
p3651
aVOFBIZ-6851
p3652
aVOFBIZ-6850
p3653
aVOFBIZ-6849
p3654
aVOFBIZ-6848
p3655
aVOFBIZ-6847
p3656
aVOFBIZ-6846
p3657
aVOFBIZ-6845
p3658
aVOFBIZ-6844
p3659
aVOFBIZ-6843
p3660
aVOFBIZ-6842
p3661
aVOFBIZ-6841
p3662
aVOFBIZ-6840
p3663
aVOFBIZ-6839
p3664
aVOFBIZ-6838
p3665
aVOFBIZ-6837
p3666
aVOFBIZ-6836
p3667
aVOFBIZ-6835
p3668
aVOFBIZ-6834
p3669
aVOFBIZ-6833
p3670
aVOFBIZ-6832
p3671
aVOFBIZ-6831
p3672
aVOFBIZ-6830
p3673
aVOFBIZ-6829
p3674
aVOFBIZ-6828
p3675
aVOFBIZ-6827
p3676
aVOFBIZ-6826
p3677
aVOFBIZ-6825
p3678
aVOFBIZ-6824
p3679
aVOFBIZ-6823
p3680
aVOFBIZ-6822
p3681
aVOFBIZ-6821
p3682
aVOFBIZ-6820
p3683
aVOFBIZ-6819
p3684
aVOFBIZ-6818
p3685
aVOFBIZ-6817
p3686
aVOFBIZ-6816
p3687
aVOFBIZ-6815
p3688
aVOFBIZ-6814
p3689
aVOFBIZ-6813
p3690
aVOFBIZ-6812
p3691
aVOFBIZ-6811
p3692
aVOFBIZ-6810
p3693
aVOFBIZ-6809
p3694
aVOFBIZ-6808
p3695
aVOFBIZ-6807
p3696
aVOFBIZ-6806
p3697
aVOFBIZ-6805
p3698
aVOFBIZ-6804
p3699
aVOFBIZ-6803
p3700
aVOFBIZ-6802
p3701
aVOFBIZ-6801
p3702
aVOFBIZ-6800
p3703
aVOFBIZ-6799
p3704
aVOFBIZ-6798
p3705
aVOFBIZ-6797
p3706
aVOFBIZ-6796
p3707
aVOFBIZ-6795
p3708
aVOFBIZ-6794
p3709
aVOFBIZ-6793
p3710
aVOFBIZ-6792
p3711
aVOFBIZ-6791
p3712
aVOFBIZ-6790
p3713
aVOFBIZ-6789
p3714
aVOFBIZ-6788
p3715
aVOFBIZ-6787
p3716
aVOFBIZ-6786
p3717
aVOFBIZ-6785
p3718
aVOFBIZ-6784
p3719
aVOFBIZ-6783
p3720
aVOFBIZ-6782
p3721
aVOFBIZ-6781
p3722
aVOFBIZ-6780
p3723
aVOFBIZ-6779
p3724
aVOFBIZ-6778
p3725
aVOFBIZ-6777
p3726
aVOFBIZ-6776
p3727
aVOFBIZ-6775
p3728
aVOFBIZ-6774
p3729
aVOFBIZ-6773
p3730
aVOFBIZ-6772
p3731
aVOFBIZ-6771
p3732
aVOFBIZ-6770
p3733
aVOFBIZ-6769
p3734
aVOFBIZ-6768
p3735
aVOFBIZ-6767
p3736
aVOFBIZ-6766
p3737
aVOFBIZ-6765
p3738
aVOFBIZ-6764
p3739
aVOFBIZ-6763
p3740
aVOFBIZ-6762
p3741
aVOFBIZ-6761
p3742
aVOFBIZ-6760
p3743
aVOFBIZ-6759
p3744
aVOFBIZ-6758
p3745
aVOFBIZ-6757
p3746
aVOFBIZ-6756
p3747
aVOFBIZ-6755
p3748
aVOFBIZ-6754
p3749
aVOFBIZ-6753
p3750
aVOFBIZ-6752
p3751
aVOFBIZ-6751
p3752
aVOFBIZ-6750
p3753
aVOFBIZ-6749
p3754
aVOFBIZ-6748
p3755
aVOFBIZ-6747
p3756
aVOFBIZ-6746
p3757
aVOFBIZ-6745
p3758
aVOFBIZ-6744
p3759
aVOFBIZ-6743
p3760
aVOFBIZ-6742
p3761
aVOFBIZ-6741
p3762
aVOFBIZ-6740
p3763
aVOFBIZ-6739
p3764
aVOFBIZ-6738
p3765
aVOFBIZ-6737
p3766
aVOFBIZ-6736
p3767
aVOFBIZ-6735
p3768
aVOFBIZ-6734
p3769
aVOFBIZ-6733
p3770
aVOFBIZ-6732
p3771
aVOFBIZ-6731
p3772
aVOFBIZ-6730
p3773
aVOFBIZ-6729
p3774
aVOFBIZ-6728
p3775
aVOFBIZ-6727
p3776
aVOFBIZ-6726
p3777
aVOFBIZ-6725
p3778
aVOFBIZ-6724
p3779
aVOFBIZ-6723
p3780
aVOFBIZ-6722
p3781
aVOFBIZ-6721
p3782
aVOFBIZ-6720
p3783
aVOFBIZ-6719
p3784
aVOFBIZ-6718
p3785
aVOFBIZ-6717
p3786
aVOFBIZ-6716
p3787
aVOFBIZ-6715
p3788
aVOFBIZ-6714
p3789
aVOFBIZ-6713
p3790
aVOFBIZ-6712
p3791
aVOFBIZ-6711
p3792
aVOFBIZ-6710
p3793
aVOFBIZ-6709
p3794
aVOFBIZ-6708
p3795
aVOFBIZ-6707
p3796
aVOFBIZ-6706
p3797
aVOFBIZ-6705
p3798
aVOFBIZ-6704
p3799
aVOFBIZ-6703
p3800
aVOFBIZ-6702
p3801
aVOFBIZ-6701
p3802
aVOFBIZ-6700
p3803
aVOFBIZ-6699
p3804
aVOFBIZ-6698
p3805
aVOFBIZ-6697
p3806
aVOFBIZ-6696
p3807
aVOFBIZ-6695
p3808
aVOFBIZ-6694
p3809
aVOFBIZ-6693
p3810
aVOFBIZ-6692
p3811
aVOFBIZ-6691
p3812
aVOFBIZ-6690
p3813
aVOFBIZ-6689
p3814
aVOFBIZ-6688
p3815
aVOFBIZ-6687
p3816
aVOFBIZ-6686
p3817
aVOFBIZ-6685
p3818
aVOFBIZ-6684
p3819
aVOFBIZ-6683
p3820
aVOFBIZ-6682
p3821
aVOFBIZ-6681
p3822
aVOFBIZ-6680
p3823
aVOFBIZ-6679
p3824
aVOFBIZ-6678
p3825
aVOFBIZ-6677
p3826
aVOFBIZ-6676
p3827
aVOFBIZ-6675
p3828
aVOFBIZ-6674
p3829
aVOFBIZ-6673
p3830
aVOFBIZ-6672
p3831
aVOFBIZ-6671
p3832
aVOFBIZ-6670
p3833
aVOFBIZ-6669
p3834
aVOFBIZ-6668
p3835
aVOFBIZ-6667
p3836
aVOFBIZ-6666
p3837
aVOFBIZ-6665
p3838
aVOFBIZ-6664
p3839
aVOFBIZ-6663
p3840
aVOFBIZ-6662
p3841
aVOFBIZ-6661
p3842
aVOFBIZ-6660
p3843
aVOFBIZ-6659
p3844
aVOFBIZ-6658
p3845
aVOFBIZ-6657
p3846
aVOFBIZ-6656
p3847
aVOFBIZ-6655
p3848
aVOFBIZ-6654
p3849
aVOFBIZ-6653
p3850
aVOFBIZ-6652
p3851
aVOFBIZ-6651
p3852
aVOFBIZ-6650
p3853
aVOFBIZ-6649
p3854
aVOFBIZ-6648
p3855
aVOFBIZ-6647
p3856
aVOFBIZ-6646
p3857
aVOFBIZ-6645
p3858
aVOFBIZ-6644
p3859
aVOFBIZ-6643
p3860
aVOFBIZ-6642
p3861
aVOFBIZ-6641
p3862
aVOFBIZ-6640
p3863
aVOFBIZ-6639
p3864
aVOFBIZ-6638
p3865
aVOFBIZ-6637
p3866
aVOFBIZ-6636
p3867
aVOFBIZ-6635
p3868
aVOFBIZ-6634
p3869
aVOFBIZ-6633
p3870
aVOFBIZ-6632
p3871
aVOFBIZ-6631
p3872
aVOFBIZ-6630
p3873
aVOFBIZ-6629
p3874
aVOFBIZ-6628
p3875
aVOFBIZ-6627
p3876
aVOFBIZ-6626
p3877
aVOFBIZ-6625
p3878
aVOFBIZ-6624
p3879
aVOFBIZ-6623
p3880
aVOFBIZ-6622
p3881
aVOFBIZ-6621
p3882
aVOFBIZ-6620
p3883
aVOFBIZ-6619
p3884
aVOFBIZ-6618
p3885
aVOFBIZ-6617
p3886
aVOFBIZ-6616
p3887
aVOFBIZ-6615
p3888
aVOFBIZ-6614
p3889
aVOFBIZ-6613
p3890
aVOFBIZ-6612
p3891
aVOFBIZ-6611
p3892
aVOFBIZ-6610
p3893
aVOFBIZ-6609
p3894
aVOFBIZ-6608
p3895
aVOFBIZ-6607
p3896
aVOFBIZ-6606
p3897
aVOFBIZ-6605
p3898
aVOFBIZ-6604
p3899
aVOFBIZ-6603
p3900
aVOFBIZ-6602
p3901
aVOFBIZ-6601
p3902
aVOFBIZ-6600
p3903
aVOFBIZ-6599
p3904
aVOFBIZ-6598
p3905
aVOFBIZ-6597
p3906
aVOFBIZ-6596
p3907
aVOFBIZ-6595
p3908
aVOFBIZ-6594
p3909
aVOFBIZ-6593
p3910
aVOFBIZ-6592
p3911
aVOFBIZ-6591
p3912
aVOFBIZ-6590
p3913
aVOFBIZ-6589
p3914
aVOFBIZ-6588
p3915
aVOFBIZ-6587
p3916
aVOFBIZ-6586
p3917
aVOFBIZ-6585
p3918
aVOFBIZ-6584
p3919
aVOFBIZ-6583
p3920
aVOFBIZ-6582
p3921
aVOFBIZ-6581
p3922
aVOFBIZ-6580
p3923
aVOFBIZ-6579
p3924
aVOFBIZ-6578
p3925
aVOFBIZ-6577
p3926
aVOFBIZ-6576
p3927
aVOFBIZ-6575
p3928
aVOFBIZ-6574
p3929
aVOFBIZ-6573
p3930
aVOFBIZ-6572
p3931
aVOFBIZ-6571
p3932
aVOFBIZ-6570
p3933
aVOFBIZ-6569
p3934
aVOFBIZ-6568
p3935
aVOFBIZ-6567
p3936
aVOFBIZ-6566
p3937
aVOFBIZ-6565
p3938
aVOFBIZ-6564
p3939
aVOFBIZ-6563
p3940
aVOFBIZ-6562
p3941
aVOFBIZ-6561
p3942
aVOFBIZ-6560
p3943
aVOFBIZ-6559
p3944
aVOFBIZ-6558
p3945
aVOFBIZ-6557
p3946
aVOFBIZ-6556
p3947
aVOFBIZ-6555
p3948
aVOFBIZ-6554
p3949
aVOFBIZ-6553
p3950
aVOFBIZ-6552
p3951
aVOFBIZ-6551
p3952
aVOFBIZ-6550
p3953
aVOFBIZ-6549
p3954
aVOFBIZ-6548
p3955
aVOFBIZ-6547
p3956
aVOFBIZ-6546
p3957
aVOFBIZ-6545
p3958
aVOFBIZ-6544
p3959
aVOFBIZ-6543
p3960
aVOFBIZ-6542
p3961
aVOFBIZ-6541
p3962
aVOFBIZ-6540
p3963
aVOFBIZ-6539
p3964
aVOFBIZ-6538
p3965
aVOFBIZ-6537
p3966
aVOFBIZ-6536
p3967
aVOFBIZ-6535
p3968
aVOFBIZ-6534
p3969
aVOFBIZ-6533
p3970
aVOFBIZ-6532
p3971
aVOFBIZ-6531
p3972
aVOFBIZ-6530
p3973
aVOFBIZ-6529
p3974
aVOFBIZ-6528
p3975
aVOFBIZ-6527
p3976
aVOFBIZ-6526
p3977
aVOFBIZ-6525
p3978
aVOFBIZ-6524
p3979
aVOFBIZ-6523
p3980
aVOFBIZ-6522
p3981
aVOFBIZ-6521
p3982
aVOFBIZ-6520
p3983
aVOFBIZ-6519
p3984
aVOFBIZ-6518
p3985
aVOFBIZ-6517
p3986
aVOFBIZ-6516
p3987
aVOFBIZ-6515
p3988
aVOFBIZ-6514
p3989
aVOFBIZ-6513
p3990
aVOFBIZ-6512
p3991
aVOFBIZ-6511
p3992
aVOFBIZ-6510
p3993
aVOFBIZ-6509
p3994
aVOFBIZ-6508
p3995
aVOFBIZ-6507
p3996
aVOFBIZ-6506
p3997
aVOFBIZ-6505
p3998
aVOFBIZ-6504
p3999
aVOFBIZ-6503
p4000
aVOFBIZ-6502
p4001
aVOFBIZ-6501
p4002
aVOFBIZ-6500
p4003
aVOFBIZ-6499
p4004
aVOFBIZ-6498
p4005
aVOFBIZ-6497
p4006
aVOFBIZ-6496
p4007
aVOFBIZ-6495
p4008
aVOFBIZ-6494
p4009
aVOFBIZ-6493
p4010
aVOFBIZ-6492
p4011
aVOFBIZ-6491
p4012
aVOFBIZ-6490
p4013
aVOFBIZ-6489
p4014
aVOFBIZ-6488
p4015
aVOFBIZ-6487
p4016
aVOFBIZ-6486
p4017
aVOFBIZ-6485
p4018
aVOFBIZ-6484
p4019
aVOFBIZ-6483
p4020
aVOFBIZ-6482
p4021
aVOFBIZ-6481
p4022
aVOFBIZ-6480
p4023
aVOFBIZ-6479
p4024
aVOFBIZ-6478
p4025
aVOFBIZ-6477
p4026
aVOFBIZ-6476
p4027
aVOFBIZ-6475
p4028
aVOFBIZ-6474
p4029
aVOFBIZ-6473
p4030
aVOFBIZ-6472
p4031
aVOFBIZ-6471
p4032
aVOFBIZ-6470
p4033
aVOFBIZ-6469
p4034
aVOFBIZ-6468
p4035
aVOFBIZ-6467
p4036
aVOFBIZ-6466
p4037
aVOFBIZ-6465
p4038
aVOFBIZ-6464
p4039
aVOFBIZ-6463
p4040
aVOFBIZ-6462
p4041
aVOFBIZ-6461
p4042
aVOFBIZ-6460
p4043
aVOFBIZ-6459
p4044
aVOFBIZ-6458
p4045
aVOFBIZ-6457
p4046
aVOFBIZ-6456
p4047
aVOFBIZ-6455
p4048
aVOFBIZ-6454
p4049
aVOFBIZ-6453
p4050
aVOFBIZ-6452
p4051
aVOFBIZ-6451
p4052
aVOFBIZ-6450
p4053
aVOFBIZ-6449
p4054
aVOFBIZ-6448
p4055
aVOFBIZ-6447
p4056
aVOFBIZ-6446
p4057
aVOFBIZ-6445
p4058
aVOFBIZ-6444
p4059
aVOFBIZ-6443
p4060
aVOFBIZ-6442
p4061
aVOFBIZ-6441
p4062
aVOFBIZ-6440
p4063
aVOFBIZ-6439
p4064
aVOFBIZ-6438
p4065
aVOFBIZ-6437
p4066
aVOFBIZ-6436
p4067
aVOFBIZ-6435
p4068
aVOFBIZ-6434
p4069
aVOFBIZ-6433
p4070
aVOFBIZ-6432
p4071
aVOFBIZ-6431
p4072
aVOFBIZ-6430
p4073
aVOFBIZ-6429
p4074
aVOFBIZ-6428
p4075
aVOFBIZ-6427
p4076
aVOFBIZ-6426
p4077
aVOFBIZ-6425
p4078
aVOFBIZ-6424
p4079
aVOFBIZ-6423
p4080
aVOFBIZ-6422
p4081
aVOFBIZ-6421
p4082
aVOFBIZ-6420
p4083
aVOFBIZ-6419
p4084
aVOFBIZ-6418
p4085
aVOFBIZ-6417
p4086
aVOFBIZ-6416
p4087
aVOFBIZ-6415
p4088
aVOFBIZ-6414
p4089
aVOFBIZ-6413
p4090
aVOFBIZ-6412
p4091
aVOFBIZ-6411
p4092
aVOFBIZ-6410
p4093
aVOFBIZ-6409
p4094
aVOFBIZ-6408
p4095
aVOFBIZ-6407
p4096
aVOFBIZ-6406
p4097
aVOFBIZ-6405
p4098
aVOFBIZ-6404
p4099
aVOFBIZ-6403
p4100
aVOFBIZ-6402
p4101
aVOFBIZ-6401
p4102
aVOFBIZ-6400
p4103
aVOFBIZ-6399
p4104
aVOFBIZ-6398
p4105
aVOFBIZ-6397
p4106
aVOFBIZ-6396
p4107
aVOFBIZ-6395
p4108
aVOFBIZ-6394
p4109
aVOFBIZ-6393
p4110
aVOFBIZ-6392
p4111
aVOFBIZ-6391
p4112
aVOFBIZ-6390
p4113
aVOFBIZ-6389
p4114
aVOFBIZ-6388
p4115
aVOFBIZ-6387
p4116
aVOFBIZ-6386
p4117
aVOFBIZ-6385
p4118
aVOFBIZ-6384
p4119
aVOFBIZ-6383
p4120
aVOFBIZ-6382
p4121
aVOFBIZ-6381
p4122
aVOFBIZ-6380
p4123
aVOFBIZ-6379
p4124
aVOFBIZ-6378
p4125
aVOFBIZ-6377
p4126
aVOFBIZ-6376
p4127
aVOFBIZ-6375
p4128
aVOFBIZ-6374
p4129
aVOFBIZ-6373
p4130
aVOFBIZ-6372
p4131
aVOFBIZ-6371
p4132
aVOFBIZ-6370
p4133
aVOFBIZ-6369
p4134
aVOFBIZ-6368
p4135
aVOFBIZ-6367
p4136
aVOFBIZ-6366
p4137
aVOFBIZ-6365
p4138
aVOFBIZ-6364
p4139
aVOFBIZ-6363
p4140
aVOFBIZ-6362
p4141
aVOFBIZ-6361
p4142
aVOFBIZ-6360
p4143
aVOFBIZ-6359
p4144
aVOFBIZ-6358
p4145
aVOFBIZ-6357
p4146
aVOFBIZ-6356
p4147
aVOFBIZ-6355
p4148
aVOFBIZ-6354
p4149
aVOFBIZ-6353
p4150
aVOFBIZ-6352
p4151
aVOFBIZ-6351
p4152
aVOFBIZ-6350
p4153
aVOFBIZ-6349
p4154
aVOFBIZ-6348
p4155
aVOFBIZ-6347
p4156
aVOFBIZ-6346
p4157
aVOFBIZ-6345
p4158
aVOFBIZ-6344
p4159
aVOFBIZ-6343
p4160
aVOFBIZ-6342
p4161
aVOFBIZ-6341
p4162
aVOFBIZ-6340
p4163
aVOFBIZ-6339
p4164
aVOFBIZ-6338
p4165
aVOFBIZ-6337
p4166
aVOFBIZ-6336
p4167
aVOFBIZ-6335
p4168
aVOFBIZ-6334
p4169
aVOFBIZ-6333
p4170
aVOFBIZ-6332
p4171
aVOFBIZ-6331
p4172
aVOFBIZ-6330
p4173
aVOFBIZ-6329
p4174
aVOFBIZ-6328
p4175
aVOFBIZ-6327
p4176
aVOFBIZ-6326
p4177
aVOFBIZ-6325
p4178
aVOFBIZ-6324
p4179
aVOFBIZ-6323
p4180
aVOFBIZ-6322
p4181
aVOFBIZ-6321
p4182
aVOFBIZ-6320
p4183
aVOFBIZ-6319
p4184
aVOFBIZ-6318
p4185
aVOFBIZ-6317
p4186
aVOFBIZ-6316
p4187
aVOFBIZ-6315
p4188
aVOFBIZ-6314
p4189
aVOFBIZ-6313
p4190
aVOFBIZ-6312
p4191
aVOFBIZ-6311
p4192
aVOFBIZ-6310
p4193
aVOFBIZ-6309
p4194
aVOFBIZ-6308
p4195
aVOFBIZ-6307
p4196
aVOFBIZ-6306
p4197
aVOFBIZ-6305
p4198
aVOFBIZ-6304
p4199
aVOFBIZ-6303
p4200
aVOFBIZ-6302
p4201
aVOFBIZ-6301
p4202
aVOFBIZ-6300
p4203
aVOFBIZ-6299
p4204
aVOFBIZ-6298
p4205
aVOFBIZ-6297
p4206
aVOFBIZ-6296
p4207
aVOFBIZ-6295
p4208
aVOFBIZ-6294
p4209
aVOFBIZ-6293
p4210
aVOFBIZ-6292
p4211
aVOFBIZ-6291
p4212
aVOFBIZ-6290
p4213
aVOFBIZ-6289
p4214
aVOFBIZ-6288
p4215
aVOFBIZ-6287
p4216
aVOFBIZ-6286
p4217
aVOFBIZ-6285
p4218
aVOFBIZ-6284
p4219
aVOFBIZ-6283
p4220
aVOFBIZ-6282
p4221
aVOFBIZ-6281
p4222
aVOFBIZ-6280
p4223
aVOFBIZ-6279
p4224
aVOFBIZ-6278
p4225
aVOFBIZ-6277
p4226
aVOFBIZ-6276
p4227
aVOFBIZ-6275
p4228
aVOFBIZ-6274
p4229
aVOFBIZ-6273
p4230
aVOFBIZ-6272
p4231
aVOFBIZ-6271
p4232
aVOFBIZ-6270
p4233
aVOFBIZ-6269
p4234
aVOFBIZ-6268
p4235
aVOFBIZ-6267
p4236
aVOFBIZ-6266
p4237
aVOFBIZ-6265
p4238
aVOFBIZ-6264
p4239
aVOFBIZ-6263
p4240
aVOFBIZ-6262
p4241
aVOFBIZ-6261
p4242
aVOFBIZ-6260
p4243
aVOFBIZ-6259
p4244
aVOFBIZ-6258
p4245
aVOFBIZ-6257
p4246
aVOFBIZ-6256
p4247
aVOFBIZ-6255
p4248
aVOFBIZ-6254
p4249
aVOFBIZ-6253
p4250
aVOFBIZ-6252
p4251
aVOFBIZ-6251
p4252
aVOFBIZ-6250
p4253
aVOFBIZ-6249
p4254
aVOFBIZ-6248
p4255
aVOFBIZ-6247
p4256
aVOFBIZ-6246
p4257
aVOFBIZ-6245
p4258
aVOFBIZ-6244
p4259
aVOFBIZ-6243
p4260
aVOFBIZ-6242
p4261
aVOFBIZ-6241
p4262
aVOFBIZ-6240
p4263
aVOFBIZ-6239
p4264
aVOFBIZ-6238
p4265
aVOFBIZ-6237
p4266
aVOFBIZ-6236
p4267
aVOFBIZ-6235
p4268
aVOFBIZ-6234
p4269
aVOFBIZ-6233
p4270
aVOFBIZ-6232
p4271
aVOFBIZ-6231
p4272
aVOFBIZ-6230
p4273
aVOFBIZ-6229
p4274
aVOFBIZ-6228
p4275
aVOFBIZ-6227
p4276
aVOFBIZ-6226
p4277
aVOFBIZ-6225
p4278
aVOFBIZ-6224
p4279
aVOFBIZ-6223
p4280
aVOFBIZ-6222
p4281
aVOFBIZ-6221
p4282
aVOFBIZ-6220
p4283
aVOFBIZ-6219
p4284
aVOFBIZ-6218
p4285
aVOFBIZ-6217
p4286
aVOFBIZ-6216
p4287
aVOFBIZ-6215
p4288
aVOFBIZ-6214
p4289
aVOFBIZ-6213
p4290
aVOFBIZ-6212
p4291
aVOFBIZ-6211
p4292
aVOFBIZ-6210
p4293
aVOFBIZ-6209
p4294
aVOFBIZ-6208
p4295
aVOFBIZ-6207
p4296
aVOFBIZ-6206
p4297
aVOFBIZ-6205
p4298
aVOFBIZ-6204
p4299
aVOFBIZ-6203
p4300
aVOFBIZ-6202
p4301
aVOFBIZ-6201
p4302
aVOFBIZ-6200
p4303
aVOFBIZ-6199
p4304
aVOFBIZ-6198
p4305
aVOFBIZ-6197
p4306
aVOFBIZ-6196
p4307
aVOFBIZ-6195
p4308
aVOFBIZ-6194
p4309
aVOFBIZ-6193
p4310
aVOFBIZ-6192
p4311
aVOFBIZ-6191
p4312
aVOFBIZ-6190
p4313
aVOFBIZ-6189
p4314
aVOFBIZ-6188
p4315
aVOFBIZ-6187
p4316
aVOFBIZ-6186
p4317
aVOFBIZ-6185
p4318
aVOFBIZ-6184
p4319
aVOFBIZ-6183
p4320
aVOFBIZ-6182
p4321
aVOFBIZ-6181
p4322
aVOFBIZ-6180
p4323
aVOFBIZ-6179
p4324
aVOFBIZ-6178
p4325
aVOFBIZ-6177
p4326
aVOFBIZ-6176
p4327
aVOFBIZ-6175
p4328
aVOFBIZ-6174
p4329
aVOFBIZ-6173
p4330
aVOFBIZ-6172
p4331
aVOFBIZ-6171
p4332
aVOFBIZ-6170
p4333
aVOFBIZ-6169
p4334
aVOFBIZ-6168
p4335
aVOFBIZ-6167
p4336
aVOFBIZ-6166
p4337
aVOFBIZ-6165
p4338
aVOFBIZ-6164
p4339
aVOFBIZ-6163
p4340
aVOFBIZ-6162
p4341
aVOFBIZ-6161
p4342
aVOFBIZ-6160
p4343
aVOFBIZ-6159
p4344
aVOFBIZ-6158
p4345
aVOFBIZ-6157
p4346
aVOFBIZ-6156
p4347
aVOFBIZ-6155
p4348
aVOFBIZ-6154
p4349
aVOFBIZ-6153
p4350
aVOFBIZ-6152
p4351
aVOFBIZ-6151
p4352
aVOFBIZ-6150
p4353
aVOFBIZ-6149
p4354
aVOFBIZ-6148
p4355
aVOFBIZ-6147
p4356
aVOFBIZ-6146
p4357
aVOFBIZ-6145
p4358
aVOFBIZ-6144
p4359
aVOFBIZ-6143
p4360
aVOFBIZ-6142
p4361
aVOFBIZ-6141
p4362
aVOFBIZ-6140
p4363
aVOFBIZ-6139
p4364
aVOFBIZ-6138
p4365
aVOFBIZ-6137
p4366
aVOFBIZ-6136
p4367
aVOFBIZ-6135
p4368
aVOFBIZ-6134
p4369
aVOFBIZ-6133
p4370
aVOFBIZ-6132
p4371
aVOFBIZ-6131
p4372
aVOFBIZ-6130
p4373
aVOFBIZ-6129
p4374
aVOFBIZ-6128
p4375
aVOFBIZ-6127
p4376
aVOFBIZ-6126
p4377
aVOFBIZ-6125
p4378
aVOFBIZ-6124
p4379
aVOFBIZ-6123
p4380
aVOFBIZ-6122
p4381
aVOFBIZ-6121
p4382
aVOFBIZ-6120
p4383
aVOFBIZ-6119
p4384
aVOFBIZ-6118
p4385
aVOFBIZ-6117
p4386
aVOFBIZ-6116
p4387
aVOFBIZ-6115
p4388
aVOFBIZ-6114
p4389
aVOFBIZ-6113
p4390
aVOFBIZ-6112
p4391
aVOFBIZ-6111
p4392
aVOFBIZ-6110
p4393
aVOFBIZ-6109
p4394
aVOFBIZ-6108
p4395
aVOFBIZ-6107
p4396
aVOFBIZ-6106
p4397
aVOFBIZ-6105
p4398
aVOFBIZ-6104
p4399
aVOFBIZ-6103
p4400
aVOFBIZ-6102
p4401
aVOFBIZ-6101
p4402
aVOFBIZ-6100
p4403
aVOFBIZ-6099
p4404
aVOFBIZ-6098
p4405
aVOFBIZ-6097
p4406
aVOFBIZ-6096
p4407
aVOFBIZ-6095
p4408
aVOFBIZ-6094
p4409
aVOFBIZ-6093
p4410
aVOFBIZ-6092
p4411
aVOFBIZ-6091
p4412
aVOFBIZ-6090
p4413
aVOFBIZ-6089
p4414
aVOFBIZ-6088
p4415
aVOFBIZ-6087
p4416
aVOFBIZ-6086
p4417
aVOFBIZ-6085
p4418
aVOFBIZ-6084
p4419
aVOFBIZ-6083
p4420
aVOFBIZ-6082
p4421
aVOFBIZ-6081
p4422
aVOFBIZ-6080
p4423
aVOFBIZ-6079
p4424
aVOFBIZ-6078
p4425
aVOFBIZ-6077
p4426
aVOFBIZ-6076
p4427
aVOFBIZ-6075
p4428
aVOFBIZ-6074
p4429
aVOFBIZ-6073
p4430
aVOFBIZ-6072
p4431
aVOFBIZ-6071
p4432
aVOFBIZ-6070
p4433
aVOFBIZ-6069
p4434
aVOFBIZ-6068
p4435
aVOFBIZ-6067
p4436
aVOFBIZ-6066
p4437
aVOFBIZ-6065
p4438
aVOFBIZ-6064
p4439
aVOFBIZ-6063
p4440
aVOFBIZ-6062
p4441
aVOFBIZ-6061
p4442
aVOFBIZ-6060
p4443
aVOFBIZ-6059
p4444
aVOFBIZ-6058
p4445
aVOFBIZ-6057
p4446
aVOFBIZ-6056
p4447
aVOFBIZ-6055
p4448
aVOFBIZ-6054
p4449
aVOFBIZ-6053
p4450
aVOFBIZ-6052
p4451
aVOFBIZ-6051
p4452
aVOFBIZ-6050
p4453
aVOFBIZ-6049
p4454
aVOFBIZ-6048
p4455
aVOFBIZ-6047
p4456
aVOFBIZ-6046
p4457
aVOFBIZ-6045
p4458
aVOFBIZ-6044
p4459
aVOFBIZ-6043
p4460
aVOFBIZ-6042
p4461
aVOFBIZ-6041
p4462
aVOFBIZ-6040
p4463
aVOFBIZ-6039
p4464
aVOFBIZ-6038
p4465
aVOFBIZ-6037
p4466
aVOFBIZ-6036
p4467
aVOFBIZ-6035
p4468
aVOFBIZ-6034
p4469
aVOFBIZ-6033
p4470
aVOFBIZ-6032
p4471
aVOFBIZ-6031
p4472
aVOFBIZ-6030
p4473
aVOFBIZ-6029
p4474
aVOFBIZ-6028
p4475
aVOFBIZ-6027
p4476
aVOFBIZ-6026
p4477
aVOFBIZ-6025
p4478
aVOFBIZ-6024
p4479
aVOFBIZ-6023
p4480
aVOFBIZ-6022
p4481
aVOFBIZ-6021
p4482
aVOFBIZ-6020
p4483
aVOFBIZ-6019
p4484
aVOFBIZ-6018
p4485
aVOFBIZ-6017
p4486
aVOFBIZ-6016
p4487
aVOFBIZ-6015
p4488
aVOFBIZ-6014
p4489
aVOFBIZ-6013
p4490
aVOFBIZ-6012
p4491
aVOFBIZ-6011
p4492
aVOFBIZ-6010
p4493
aVOFBIZ-6009
p4494
aVOFBIZ-6008
p4495
aVOFBIZ-6007
p4496
aVOFBIZ-6006
p4497
aVOFBIZ-6005
p4498
aVOFBIZ-6004
p4499
aVOFBIZ-6003
p4500
aVOFBIZ-6002
p4501
aVOFBIZ-6001
p4502
aVOFBIZ-6000
p4503
aVOFBIZ-5999
p4504
aVOFBIZ-5998
p4505
aVOFBIZ-5997
p4506
aVOFBIZ-5996
p4507
aVOFBIZ-5995
p4508
aVOFBIZ-5994
p4509
aVOFBIZ-5993
p4510
aVOFBIZ-5992
p4511
aVOFBIZ-5991
p4512
aVOFBIZ-5990
p4513
aVOFBIZ-5989
p4514
aVOFBIZ-5988
p4515
aVOFBIZ-5987
p4516
aVOFBIZ-5986
p4517
aVOFBIZ-5985
p4518
aVOFBIZ-5984
p4519
aVOFBIZ-5983
p4520
aVOFBIZ-5982
p4521
aVOFBIZ-5981
p4522
aVOFBIZ-5980
p4523
aVOFBIZ-5979
p4524
aVOFBIZ-5978
p4525
aVOFBIZ-5977
p4526
aVOFBIZ-5976
p4527
aVOFBIZ-5975
p4528
aVOFBIZ-5974
p4529
aVOFBIZ-5973
p4530
aVOFBIZ-5972
p4531
aVOFBIZ-5971
p4532
aVOFBIZ-5970
p4533
aVOFBIZ-5969
p4534
aVOFBIZ-5968
p4535
aVOFBIZ-5967
p4536
aVOFBIZ-5966
p4537
aVOFBIZ-5965
p4538
aVOFBIZ-5964
p4539
aVOFBIZ-5963
p4540
aVOFBIZ-5962
p4541
aVOFBIZ-5961
p4542
aVOFBIZ-5960
p4543
aVOFBIZ-5959
p4544
aVOFBIZ-5958
p4545
aVOFBIZ-5957
p4546
aVOFBIZ-5956
p4547
aVOFBIZ-5955
p4548
aVOFBIZ-5954
p4549
aVOFBIZ-5953
p4550
aVOFBIZ-5952
p4551
aVOFBIZ-5951
p4552
aVOFBIZ-5950
p4553
aVOFBIZ-5949
p4554
aVOFBIZ-5948
p4555
aVOFBIZ-5947
p4556
aVOFBIZ-5946
p4557
aVOFBIZ-5945
p4558
aVOFBIZ-5944
p4559
aVOFBIZ-5943
p4560
aVOFBIZ-5942
p4561
aVOFBIZ-5941
p4562
aVOFBIZ-5940
p4563
aVOFBIZ-5939
p4564
aVOFBIZ-5938
p4565
aVOFBIZ-5937
p4566
aVOFBIZ-5936
p4567
aVOFBIZ-5935
p4568
aVOFBIZ-5934
p4569
aVOFBIZ-5933
p4570
aVOFBIZ-5932
p4571
aVOFBIZ-5931
p4572
aVOFBIZ-5930
p4573
aVOFBIZ-5929
p4574
aVOFBIZ-5928
p4575
aVOFBIZ-5927
p4576
aVOFBIZ-5926
p4577
aVOFBIZ-5925
p4578
aVOFBIZ-5924
p4579
aVOFBIZ-5923
p4580
aVOFBIZ-5922
p4581
aVOFBIZ-5921
p4582
aVOFBIZ-5920
p4583
aVOFBIZ-5919
p4584
aVOFBIZ-5918
p4585
aVOFBIZ-5917
p4586
aVOFBIZ-5916
p4587
aVOFBIZ-5915
p4588
aVOFBIZ-5914
p4589
aVOFBIZ-5913
p4590
aVOFBIZ-5912
p4591
aVOFBIZ-5911
p4592
aVOFBIZ-5910
p4593
aVOFBIZ-5909
p4594
aVOFBIZ-5908
p4595
aVOFBIZ-5907
p4596
aVOFBIZ-5906
p4597
aVOFBIZ-5905
p4598
aVOFBIZ-5904
p4599
aVOFBIZ-5903
p4600
aVOFBIZ-5902
p4601
aVOFBIZ-5901
p4602
aVOFBIZ-5900
p4603
aVOFBIZ-5899
p4604
aVOFBIZ-5898
p4605
aVOFBIZ-5897
p4606
aVOFBIZ-5896
p4607
aVOFBIZ-5895
p4608
aVOFBIZ-5894
p4609
aVOFBIZ-5893
p4610
aVOFBIZ-5892
p4611
aVOFBIZ-5891
p4612
aVOFBIZ-5890
p4613
aVOFBIZ-5889
p4614
aVOFBIZ-5888
p4615
aVOFBIZ-5887
p4616
aVOFBIZ-5886
p4617
aVOFBIZ-5885
p4618
aVOFBIZ-5884
p4619
aVOFBIZ-5883
p4620
aVOFBIZ-5882
p4621
aVOFBIZ-5881
p4622
aVOFBIZ-5880
p4623
aVOFBIZ-5879
p4624
aVOFBIZ-5878
p4625
aVOFBIZ-5877
p4626
aVOFBIZ-5876
p4627
aVOFBIZ-5875
p4628
aVOFBIZ-5874
p4629
aVOFBIZ-5873
p4630
aVOFBIZ-5872
p4631
aVOFBIZ-5871
p4632
aVOFBIZ-5870
p4633
aVOFBIZ-5869
p4634
aVOFBIZ-5868
p4635
aVOFBIZ-5867
p4636
aVOFBIZ-5866
p4637
aVOFBIZ-5865
p4638
aVOFBIZ-5864
p4639
aVOFBIZ-5863
p4640
aVOFBIZ-5862
p4641
aVOFBIZ-5861
p4642
aVOFBIZ-5860
p4643
aVOFBIZ-5859
p4644
aVOFBIZ-5858
p4645
aVOFBIZ-5857
p4646
aVOFBIZ-5856
p4647
aVOFBIZ-5855
p4648
aVOFBIZ-5854
p4649
aVOFBIZ-5853
p4650
aVOFBIZ-5852
p4651
aVOFBIZ-5851
p4652
aVOFBIZ-5850
p4653
aVOFBIZ-5849
p4654
aVOFBIZ-5848
p4655
aVOFBIZ-5847
p4656
aVOFBIZ-5846
p4657
aVOFBIZ-5845
p4658
aVOFBIZ-5844
p4659
aVOFBIZ-5843
p4660
aVOFBIZ-5842
p4661
aVOFBIZ-5841
p4662
aVOFBIZ-5840
p4663
aVOFBIZ-5839
p4664
aVOFBIZ-5838
p4665
aVOFBIZ-5837
p4666
aVOFBIZ-5836
p4667
aVOFBIZ-5835
p4668
aVOFBIZ-5834
p4669
aVOFBIZ-5833
p4670
aVOFBIZ-5832
p4671
aVOFBIZ-5831
p4672
aVOFBIZ-5830
p4673
aVOFBIZ-5829
p4674
aVOFBIZ-5828
p4675
aVOFBIZ-5827
p4676
aVOFBIZ-5826
p4677
aVOFBIZ-5825
p4678
aVOFBIZ-5824
p4679
aVOFBIZ-5823
p4680
aVOFBIZ-5822
p4681
aVOFBIZ-5821
p4682
aVOFBIZ-5820
p4683
aVOFBIZ-5819
p4684
aVOFBIZ-5818
p4685
aVOFBIZ-5817
p4686
aVOFBIZ-5816
p4687
aVOFBIZ-5815
p4688
aVOFBIZ-5814
p4689
aVOFBIZ-5813
p4690
aVOFBIZ-5812
p4691
aVOFBIZ-5811
p4692
aVOFBIZ-5810
p4693
aVOFBIZ-5809
p4694
aVOFBIZ-5808
p4695
aVOFBIZ-5807
p4696
aVOFBIZ-5806
p4697
aVOFBIZ-5805
p4698
aVOFBIZ-5804
p4699
aVOFBIZ-5803
p4700
aVOFBIZ-5802
p4701
aVOFBIZ-5801
p4702
aVOFBIZ-5800
p4703
aVOFBIZ-5799
p4704
aVOFBIZ-5798
p4705
aVOFBIZ-5797
p4706
aVOFBIZ-5796
p4707
aVOFBIZ-5795
p4708
aVOFBIZ-5794
p4709
aVOFBIZ-5793
p4710
aVOFBIZ-5792
p4711
aVOFBIZ-5791
p4712
aVOFBIZ-5790
p4713
aVOFBIZ-5789
p4714
aVOFBIZ-5788
p4715
aVOFBIZ-5787
p4716
aVOFBIZ-5786
p4717
aVOFBIZ-5785
p4718
aVOFBIZ-5784
p4719
aVOFBIZ-5783
p4720
aVOFBIZ-5782
p4721
aVOFBIZ-5781
p4722
aVOFBIZ-5780
p4723
aVOFBIZ-5779
p4724
aVOFBIZ-5778
p4725
aVOFBIZ-5777
p4726
aVOFBIZ-5776
p4727
aVOFBIZ-5775
p4728
aVOFBIZ-5774
p4729
aVOFBIZ-5773
p4730
aVOFBIZ-5772
p4731
aVOFBIZ-5771
p4732
aVOFBIZ-5770
p4733
aVOFBIZ-5769
p4734
aVOFBIZ-5768
p4735
aVOFBIZ-5767
p4736
aVOFBIZ-5766
p4737
aVOFBIZ-5765
p4738
aVOFBIZ-5764
p4739
aVOFBIZ-5763
p4740
aVOFBIZ-5762
p4741
aVOFBIZ-5761
p4742
aVOFBIZ-5760
p4743
aVOFBIZ-5759
p4744
aVOFBIZ-5758
p4745
aVOFBIZ-5757
p4746
aVOFBIZ-5756
p4747
aVOFBIZ-5755
p4748
aVOFBIZ-5754
p4749
aVOFBIZ-5753
p4750
aVOFBIZ-5752
p4751
aVOFBIZ-5751
p4752
aVOFBIZ-5750
p4753
aVOFBIZ-5749
p4754
aVOFBIZ-5748
p4755
aVOFBIZ-5747
p4756
aVOFBIZ-5746
p4757
aVOFBIZ-5745
p4758
aVOFBIZ-5744
p4759
aVOFBIZ-5743
p4760
aVOFBIZ-5742
p4761
aVOFBIZ-5741
p4762
aVOFBIZ-5740
p4763
aVOFBIZ-5739
p4764
aVOFBIZ-5738
p4765
aVOFBIZ-5737
p4766
aVOFBIZ-5736
p4767
aVOFBIZ-5735
p4768
aVOFBIZ-5734
p4769
aVOFBIZ-5733
p4770
aVOFBIZ-5732
p4771
aVOFBIZ-5731
p4772
aVOFBIZ-5730
p4773
aVOFBIZ-5729
p4774
aVOFBIZ-5728
p4775
aVOFBIZ-5727
p4776
aVOFBIZ-5726
p4777
aVOFBIZ-5725
p4778
aVOFBIZ-5724
p4779
aVOFBIZ-5723
p4780
aVOFBIZ-5722
p4781
aVOFBIZ-5721
p4782
aVOFBIZ-5720
p4783
aVOFBIZ-5719
p4784
aVOFBIZ-5718
p4785
aVOFBIZ-5717
p4786
aVOFBIZ-5716
p4787
aVOFBIZ-5715
p4788
aVOFBIZ-5714
p4789
aVOFBIZ-5713
p4790
aVOFBIZ-5712
p4791
aVOFBIZ-5711
p4792
aVOFBIZ-5710
p4793
aVOFBIZ-5709
p4794
aVOFBIZ-5708
p4795
aVOFBIZ-5707
p4796
aVOFBIZ-5706
p4797
aVOFBIZ-5705
p4798
aVOFBIZ-5704
p4799
aVOFBIZ-5703
p4800
aVOFBIZ-5702
p4801
aVOFBIZ-5701
p4802
aVOFBIZ-5700
p4803
aVOFBIZ-5699
p4804
aVOFBIZ-5698
p4805
aVOFBIZ-5697
p4806
aVOFBIZ-5696
p4807
aVOFBIZ-5695
p4808
aVOFBIZ-5694
p4809
aVOFBIZ-5693
p4810
aVOFBIZ-5692
p4811
aVOFBIZ-5691
p4812
aVOFBIZ-5690
p4813
aVOFBIZ-5689
p4814
aVOFBIZ-5688
p4815
aVOFBIZ-5687
p4816
aVOFBIZ-5686
p4817
aVOFBIZ-5685
p4818
aVOFBIZ-5684
p4819
aVOFBIZ-5683
p4820
aVOFBIZ-5682
p4821
aVOFBIZ-5681
p4822
aVOFBIZ-5680
p4823
aVOFBIZ-5679
p4824
aVOFBIZ-5678
p4825
aVOFBIZ-5677
p4826
aVOFBIZ-5676
p4827
aVOFBIZ-5675
p4828
aVOFBIZ-5674
p4829
aVOFBIZ-5673
p4830
aVOFBIZ-5672
p4831
aVOFBIZ-5671
p4832
aVOFBIZ-5670
p4833
aVOFBIZ-5669
p4834
aVOFBIZ-5668
p4835
aVOFBIZ-5667
p4836
aVOFBIZ-5666
p4837
aVOFBIZ-5665
p4838
aVOFBIZ-5664
p4839
aVOFBIZ-5663
p4840
aVOFBIZ-5662
p4841
aVOFBIZ-5661
p4842
aVOFBIZ-5660
p4843
aVOFBIZ-5659
p4844
aVOFBIZ-5658
p4845
aVOFBIZ-5657
p4846
aVOFBIZ-5656
p4847
aVOFBIZ-5655
p4848
aVOFBIZ-5654
p4849
aVOFBIZ-5653
p4850
aVOFBIZ-5652
p4851
aVOFBIZ-5651
p4852
aVOFBIZ-5650
p4853
aVOFBIZ-5649
p4854
aVOFBIZ-5648
p4855
aVOFBIZ-5647
p4856
aVOFBIZ-5646
p4857
aVOFBIZ-5645
p4858
aVOFBIZ-5644
p4859
aVOFBIZ-5643
p4860
aVOFBIZ-5642
p4861
aVOFBIZ-5641
p4862
aVOFBIZ-5640
p4863
aVOFBIZ-5639
p4864
aVOFBIZ-5638
p4865
aVOFBIZ-5637
p4866
aVOFBIZ-5636
p4867
aVOFBIZ-5635
p4868
aVOFBIZ-5634
p4869
aVOFBIZ-5633
p4870
aVOFBIZ-5632
p4871
aVOFBIZ-5631
p4872
aVOFBIZ-5630
p4873
aVOFBIZ-5629
p4874
aVOFBIZ-5628
p4875
aVOFBIZ-5627
p4876
aVOFBIZ-5626
p4877
aVOFBIZ-5625
p4878
aVOFBIZ-5624
p4879
aVOFBIZ-5623
p4880
aVOFBIZ-5622
p4881
aVOFBIZ-5621
p4882
aVOFBIZ-5620
p4883
aVOFBIZ-5619
p4884
aVOFBIZ-5618
p4885
aVOFBIZ-5617
p4886
aVOFBIZ-5616
p4887
aVOFBIZ-5615
p4888
aVOFBIZ-5614
p4889
aVOFBIZ-5613
p4890
aVOFBIZ-5612
p4891
aVOFBIZ-5611
p4892
aVOFBIZ-5610
p4893
aVOFBIZ-5609
p4894
aVOFBIZ-5608
p4895
aVOFBIZ-5607
p4896
aVOFBIZ-5606
p4897
aVOFBIZ-5605
p4898
aVOFBIZ-5604
p4899
aVOFBIZ-5603
p4900
aVOFBIZ-5602
p4901
aVOFBIZ-5601
p4902
aVOFBIZ-5600
p4903
aVOFBIZ-5599
p4904
aVOFBIZ-5598
p4905
aVOFBIZ-5597
p4906
aVOFBIZ-5596
p4907
aVOFBIZ-5595
p4908
aVOFBIZ-5594
p4909
aVOFBIZ-5593
p4910
aVOFBIZ-5592
p4911
aVOFBIZ-5591
p4912
aVOFBIZ-5590
p4913
aVOFBIZ-5589
p4914
aVOFBIZ-5588
p4915
aVOFBIZ-5587
p4916
aVOFBIZ-5586
p4917
aVOFBIZ-5585
p4918
aVOFBIZ-5584
p4919
aVOFBIZ-5583
p4920
aVOFBIZ-5582
p4921
aVOFBIZ-5581
p4922
aVOFBIZ-5580
p4923
aVOFBIZ-5579
p4924
aVOFBIZ-5578
p4925
aVOFBIZ-5577
p4926
aVOFBIZ-5576
p4927
aVOFBIZ-5575
p4928
aVOFBIZ-5574
p4929
aVOFBIZ-5573
p4930
aVOFBIZ-5572
p4931
aVOFBIZ-5571
p4932
aVOFBIZ-5570
p4933
aVOFBIZ-5569
p4934
aVOFBIZ-5568
p4935
aVOFBIZ-5567
p4936
aVOFBIZ-5566
p4937
aVOFBIZ-5565
p4938
aVOFBIZ-5564
p4939
aVOFBIZ-5563
p4940
aVOFBIZ-5562
p4941
aVOFBIZ-5561
p4942
aVOFBIZ-5560
p4943
aVOFBIZ-5559
p4944
aVOFBIZ-5558
p4945
aVOFBIZ-5557
p4946
aVOFBIZ-5556
p4947
aVOFBIZ-5555
p4948
aVOFBIZ-5554
p4949
aVOFBIZ-5553
p4950
aVOFBIZ-5552
p4951
aVOFBIZ-5551
p4952
aVOFBIZ-5550
p4953
aVOFBIZ-5549
p4954
aVOFBIZ-5548
p4955
aVOFBIZ-5547
p4956
aVOFBIZ-5546
p4957
aVOFBIZ-5545
p4958
aVOFBIZ-5544
p4959
aVOFBIZ-5543
p4960
aVOFBIZ-5542
p4961
aVOFBIZ-5541
p4962
aVOFBIZ-5540
p4963
aVOFBIZ-5539
p4964
aVOFBIZ-5538
p4965
aVOFBIZ-5537
p4966
aVOFBIZ-5536
p4967
aVOFBIZ-5535
p4968
aVOFBIZ-5534
p4969
aVOFBIZ-5533
p4970
aVOFBIZ-5532
p4971
aVOFBIZ-5531
p4972
aVOFBIZ-5530
p4973
aVOFBIZ-5529
p4974
aVOFBIZ-5528
p4975
aVOFBIZ-5527
p4976
aVOFBIZ-5526
p4977
aVOFBIZ-5525
p4978
aVOFBIZ-5524
p4979
aVOFBIZ-5523
p4980
aVOFBIZ-5522
p4981
aVOFBIZ-5521
p4982
aVOFBIZ-5520
p4983
aVOFBIZ-5519
p4984
aVOFBIZ-5518
p4985
aVOFBIZ-5517
p4986
aVOFBIZ-5516
p4987
aVOFBIZ-5515
p4988
aVOFBIZ-5514
p4989
aVOFBIZ-5513
p4990
aVOFBIZ-5512
p4991
aVOFBIZ-5511
p4992
aVOFBIZ-5510
p4993
aVOFBIZ-5509
p4994
aVOFBIZ-5508
p4995
aVOFBIZ-5507
p4996
aVOFBIZ-5506
p4997
aVOFBIZ-5505
p4998
aVOFBIZ-5504
p4999
aVOFBIZ-5503
p5000
aVOFBIZ-5502
p5001
aVOFBIZ-5501
p5002
aVOFBIZ-5500
p5003
aVOFBIZ-5499
p5004
aVOFBIZ-5498
p5005
aVOFBIZ-5497
p5006
aVOFBIZ-5496
p5007
aVOFBIZ-5495
p5008
aVOFBIZ-5494
p5009
aVOFBIZ-5493
p5010
aVOFBIZ-5492
p5011
aVOFBIZ-5491
p5012
aVOFBIZ-5490
p5013
aVOFBIZ-5489
p5014
aVOFBIZ-5488
p5015
aVOFBIZ-5487
p5016
aVOFBIZ-5486
p5017
aVOFBIZ-5485
p5018
aVOFBIZ-5484
p5019
aVOFBIZ-5483
p5020
aVOFBIZ-5482
p5021
aVOFBIZ-5481
p5022
aVOFBIZ-5480
p5023
aVOFBIZ-5479
p5024
aVOFBIZ-5478
p5025
aVOFBIZ-5477
p5026
aVOFBIZ-5476
p5027
aVOFBIZ-5475
p5028
aVOFBIZ-5474
p5029
aVOFBIZ-5473
p5030
aVOFBIZ-5472
p5031
aVOFBIZ-5471
p5032
aVOFBIZ-5470
p5033
aVOFBIZ-5469
p5034
aVOFBIZ-5468
p5035
aVOFBIZ-5467
p5036
aVOFBIZ-5466
p5037
aVOFBIZ-5465
p5038
aVOFBIZ-5464
p5039
aVOFBIZ-5463
p5040
aVOFBIZ-5462
p5041
aVOFBIZ-5461
p5042
aVOFBIZ-5460
p5043
aVOFBIZ-5459
p5044
aVOFBIZ-5458
p5045
aVOFBIZ-5457
p5046
aVOFBIZ-5456
p5047
aVOFBIZ-5455
p5048
aVOFBIZ-5454
p5049
aVOFBIZ-5453
p5050
aVOFBIZ-5452
p5051
aVOFBIZ-5451
p5052
aVOFBIZ-5450
p5053
aVOFBIZ-5449
p5054
aVOFBIZ-5448
p5055
aVOFBIZ-5447
p5056
aVOFBIZ-5446
p5057
aVOFBIZ-5445
p5058
aVOFBIZ-5444
p5059
aVOFBIZ-5443
p5060
aVOFBIZ-5442
p5061
aVOFBIZ-5441
p5062
aVOFBIZ-5440
p5063
aVOFBIZ-5439
p5064
aVOFBIZ-5438
p5065
aVOFBIZ-5437
p5066
aVOFBIZ-5436
p5067
aVOFBIZ-5435
p5068
aVOFBIZ-5434
p5069
aVOFBIZ-5433
p5070
aVOFBIZ-5432
p5071
aVOFBIZ-5431
p5072
aVOFBIZ-5430
p5073
aVOFBIZ-5429
p5074
aVOFBIZ-5428
p5075
aVOFBIZ-5427
p5076
aVOFBIZ-5426
p5077
aVOFBIZ-5425
p5078
aVOFBIZ-5424
p5079
aVOFBIZ-5423
p5080
aVOFBIZ-5422
p5081
aVOFBIZ-5421
p5082
aVOFBIZ-5420
p5083
aVOFBIZ-5419
p5084
aVOFBIZ-5418
p5085
aVOFBIZ-5417
p5086
aVOFBIZ-5416
p5087
aVOFBIZ-5415
p5088
aVOFBIZ-5414
p5089
aVOFBIZ-5413
p5090
aVOFBIZ-5412
p5091
aVOFBIZ-5411
p5092
aVOFBIZ-5410
p5093
aVOFBIZ-5409
p5094
aVOFBIZ-5408
p5095
aVOFBIZ-5407
p5096
aVOFBIZ-5406
p5097
aVOFBIZ-5405
p5098
aVOFBIZ-5404
p5099
aVOFBIZ-5403
p5100
aVOFBIZ-5402
p5101
aVOFBIZ-5401
p5102
aVOFBIZ-5400
p5103
aVOFBIZ-5399
p5104
aVOFBIZ-5398
p5105
aVOFBIZ-5397
p5106
aVOFBIZ-5396
p5107
aVOFBIZ-5395
p5108
aVOFBIZ-5394
p5109
aVOFBIZ-5393
p5110
aVOFBIZ-5392
p5111
aVOFBIZ-5391
p5112
aVOFBIZ-5390
p5113
aVOFBIZ-5389
p5114
aVOFBIZ-5388
p5115
aVOFBIZ-5387
p5116
aVOFBIZ-5386
p5117
aVOFBIZ-5385
p5118
aVOFBIZ-5384
p5119
aVOFBIZ-5383
p5120
aVOFBIZ-5382
p5121
aVOFBIZ-5381
p5122
aVOFBIZ-5380
p5123
aVOFBIZ-5379
p5124
aVOFBIZ-5378
p5125
aVOFBIZ-5377
p5126
aVOFBIZ-5376
p5127
aVOFBIZ-5375
p5128
aVOFBIZ-5374
p5129
aVOFBIZ-5373
p5130
aVOFBIZ-5372
p5131
aVOFBIZ-5371
p5132
aVOFBIZ-5370
p5133
aVOFBIZ-5369
p5134
aVOFBIZ-5368
p5135
aVOFBIZ-5367
p5136
aVOFBIZ-5366
p5137
aVOFBIZ-5365
p5138
aVOFBIZ-5364
p5139
aVOFBIZ-5363
p5140
aVOFBIZ-5362
p5141
aVOFBIZ-5361
p5142
aVOFBIZ-5360
p5143
aVOFBIZ-5359
p5144
aVOFBIZ-5358
p5145
aVOFBIZ-5357
p5146
aVOFBIZ-5356
p5147
aVOFBIZ-5355
p5148
aVOFBIZ-5354
p5149
aVOFBIZ-5353
p5150
aVOFBIZ-5352
p5151
aVOFBIZ-5351
p5152
aVOFBIZ-5350
p5153
aVOFBIZ-5349
p5154
aVOFBIZ-5348
p5155
aVOFBIZ-5347
p5156
aVOFBIZ-5346
p5157
aVOFBIZ-5345
p5158
aVOFBIZ-5344
p5159
aVOFBIZ-5343
p5160
aVOFBIZ-5342
p5161
aVOFBIZ-5341
p5162
aVOFBIZ-5340
p5163
aVOFBIZ-5339
p5164
aVOFBIZ-5338
p5165
aVOFBIZ-5337
p5166
aVOFBIZ-5336
p5167
aVOFBIZ-5335
p5168
aVOFBIZ-5334
p5169
aVOFBIZ-5333
p5170
aVOFBIZ-5332
p5171
aVOFBIZ-5331
p5172
aVOFBIZ-5330
p5173
aVOFBIZ-5329
p5174
aVOFBIZ-5328
p5175
aVOFBIZ-5327
p5176
aVOFBIZ-5326
p5177
aVOFBIZ-5325
p5178
aVOFBIZ-5324
p5179
aVOFBIZ-5323
p5180
aVOFBIZ-5322
p5181
aVOFBIZ-5321
p5182
aVOFBIZ-5320
p5183
aVOFBIZ-5319
p5184
aVOFBIZ-5318
p5185
aVOFBIZ-5317
p5186
aVOFBIZ-5316
p5187
aVOFBIZ-5315
p5188
aVOFBIZ-5314
p5189
aVOFBIZ-5313
p5190
aVOFBIZ-5312
p5191
aVOFBIZ-5311
p5192
aVOFBIZ-5310
p5193
aVOFBIZ-5309
p5194
aVOFBIZ-5308
p5195
aVOFBIZ-5307
p5196
aVOFBIZ-5306
p5197
aVOFBIZ-5305
p5198
aVOFBIZ-5304
p5199
aVOFBIZ-5303
p5200
aVOFBIZ-5302
p5201
aVOFBIZ-5301
p5202
aVOFBIZ-5300
p5203
aVOFBIZ-5299
p5204
aVOFBIZ-5298
p5205
aVOFBIZ-5297
p5206
aVOFBIZ-5296
p5207
aVOFBIZ-5295
p5208
aVOFBIZ-5294
p5209
aVOFBIZ-5293
p5210
aVOFBIZ-5292
p5211
aVOFBIZ-5291
p5212
aVOFBIZ-5290
p5213
aVOFBIZ-5289
p5214
aVOFBIZ-5288
p5215
aVOFBIZ-5287
p5216
aVOFBIZ-5286
p5217
aVOFBIZ-5285
p5218
aVOFBIZ-5284
p5219
aVOFBIZ-5283
p5220
aVOFBIZ-5282
p5221
aVOFBIZ-5281
p5222
aVOFBIZ-5280
p5223
aVOFBIZ-5279
p5224
aVOFBIZ-5278
p5225
aVOFBIZ-5277
p5226
aVOFBIZ-5276
p5227
aVOFBIZ-5275
p5228
aVOFBIZ-5274
p5229
aVOFBIZ-5273
p5230
aVOFBIZ-5272
p5231
aVOFBIZ-5271
p5232
aVOFBIZ-5270
p5233
aVOFBIZ-5269
p5234
aVOFBIZ-5268
p5235
aVOFBIZ-5267
p5236
aVOFBIZ-5266
p5237
aVOFBIZ-5265
p5238
aVOFBIZ-5264
p5239
aVOFBIZ-5263
p5240
aVOFBIZ-5262
p5241
aVOFBIZ-5261
p5242
aVOFBIZ-5260
p5243
aVOFBIZ-5259
p5244
aVOFBIZ-5258
p5245
aVOFBIZ-5257
p5246
aVOFBIZ-5256
p5247
aVOFBIZ-5255
p5248
aVOFBIZ-5254
p5249
aVOFBIZ-5253
p5250
aVOFBIZ-5252
p5251
aVOFBIZ-5251
p5252
aVOFBIZ-5250
p5253
aVOFBIZ-5249
p5254
aVOFBIZ-5248
p5255
aVOFBIZ-5247
p5256
aVOFBIZ-5246
p5257
aVOFBIZ-5245
p5258
aVOFBIZ-5244
p5259
aVOFBIZ-5243
p5260
aVOFBIZ-5242
p5261
aVOFBIZ-5241
p5262
aVOFBIZ-5240
p5263
aVOFBIZ-5239
p5264
aVOFBIZ-5238
p5265
aVOFBIZ-5237
p5266
aVOFBIZ-5236
p5267
aVOFBIZ-5235
p5268
aVOFBIZ-5234
p5269
aVOFBIZ-5233
p5270
aVOFBIZ-5232
p5271
aVOFBIZ-5231
p5272
aVOFBIZ-5230
p5273
aVOFBIZ-5229
p5274
aVOFBIZ-5228
p5275
aVOFBIZ-5227
p5276
aVOFBIZ-5226
p5277
aVOFBIZ-5225
p5278
aVOFBIZ-5224
p5279
aVOFBIZ-5223
p5280
aVOFBIZ-5222
p5281
aVOFBIZ-5221
p5282
aVOFBIZ-5220
p5283
aVOFBIZ-5219
p5284
aVOFBIZ-5218
p5285
aVOFBIZ-5217
p5286
aVOFBIZ-5216
p5287
aVOFBIZ-5215
p5288
aVOFBIZ-5214
p5289
aVOFBIZ-5213
p5290
aVOFBIZ-5212
p5291
aVOFBIZ-5211
p5292
aVOFBIZ-5210
p5293
aVOFBIZ-5209
p5294
aVOFBIZ-5208
p5295
aVOFBIZ-5207
p5296
aVOFBIZ-5206
p5297
aVOFBIZ-5205
p5298
aVOFBIZ-5204
p5299
aVOFBIZ-5203
p5300
aVOFBIZ-5202
p5301
aVOFBIZ-5201
p5302
aVOFBIZ-5200
p5303
aVOFBIZ-5199
p5304
aVOFBIZ-5198
p5305
aVOFBIZ-5197
p5306
aVOFBIZ-5196
p5307
aVOFBIZ-5195
p5308
aVOFBIZ-5194
p5309
aVOFBIZ-5193
p5310
aVOFBIZ-5192
p5311
aVOFBIZ-5191
p5312
aVOFBIZ-5190
p5313
aVOFBIZ-5189
p5314
aVOFBIZ-5188
p5315
aVOFBIZ-5187
p5316
aVOFBIZ-5186
p5317
aVOFBIZ-5185
p5318
aVOFBIZ-5184
p5319
aVOFBIZ-5183
p5320
aVOFBIZ-5182
p5321
aVOFBIZ-5181
p5322
aVOFBIZ-5180
p5323
aVOFBIZ-5179
p5324
aVOFBIZ-5178
p5325
aVOFBIZ-5177
p5326
aVOFBIZ-5176
p5327
aVOFBIZ-5175
p5328
aVOFBIZ-5174
p5329
aVOFBIZ-5173
p5330
aVOFBIZ-5172
p5331
aVOFBIZ-5171
p5332
aVOFBIZ-5170
p5333
aVOFBIZ-5169
p5334
aVOFBIZ-5168
p5335
aVOFBIZ-5167
p5336
aVOFBIZ-5166
p5337
aVOFBIZ-5165
p5338
aVOFBIZ-5164
p5339
aVOFBIZ-5163
p5340
aVOFBIZ-5162
p5341
aVOFBIZ-5161
p5342
aVOFBIZ-5160
p5343
aVOFBIZ-5159
p5344
aVOFBIZ-5158
p5345
aVOFBIZ-5157
p5346
aVOFBIZ-5156
p5347
aVOFBIZ-5155
p5348
aVOFBIZ-5154
p5349
aVOFBIZ-5153
p5350
aVOFBIZ-5152
p5351
aVOFBIZ-5151
p5352
aVOFBIZ-5150
p5353
aVOFBIZ-5149
p5354
aVOFBIZ-5148
p5355
aVOFBIZ-5147
p5356
aVOFBIZ-5146
p5357
aVOFBIZ-5145
p5358
aVOFBIZ-5144
p5359
aVOFBIZ-5143
p5360
aVOFBIZ-5142
p5361
aVOFBIZ-5141
p5362
aVOFBIZ-5140
p5363
aVOFBIZ-5139
p5364
aVOFBIZ-5138
p5365
aVOFBIZ-5137
p5366
aVOFBIZ-5136
p5367
aVOFBIZ-5135
p5368
aVOFBIZ-5134
p5369
aVOFBIZ-5133
p5370
aVOFBIZ-5132
p5371
aVOFBIZ-5131
p5372
aVOFBIZ-5130
p5373
aVOFBIZ-5129
p5374
aVOFBIZ-5128
p5375
aVOFBIZ-5127
p5376
aVOFBIZ-5126
p5377
aVOFBIZ-5125
p5378
aVOFBIZ-5124
p5379
aVOFBIZ-5123
p5380
aVOFBIZ-5122
p5381
aVOFBIZ-5121
p5382
aVOFBIZ-5120
p5383
aVOFBIZ-5119
p5384
aVOFBIZ-5118
p5385
aVOFBIZ-5117
p5386
aVOFBIZ-5116
p5387
aVOFBIZ-5115
p5388
aVOFBIZ-5114
p5389
aVOFBIZ-5113
p5390
aVOFBIZ-5112
p5391
aVOFBIZ-5111
p5392
aVOFBIZ-5110
p5393
aVOFBIZ-5109
p5394
aVOFBIZ-5108
p5395
aVOFBIZ-5107
p5396
aVOFBIZ-5106
p5397
aVOFBIZ-5105
p5398
aVOFBIZ-5104
p5399
aVOFBIZ-5103
p5400
aVOFBIZ-5102
p5401
aVOFBIZ-5101
p5402
aVOFBIZ-5100
p5403
aVOFBIZ-5099
p5404
aVOFBIZ-5098
p5405
aVOFBIZ-5097
p5406
aVOFBIZ-5096
p5407
aVOFBIZ-5095
p5408
aVOFBIZ-5094
p5409
aVOFBIZ-5093
p5410
aVOFBIZ-5092
p5411
aVOFBIZ-5091
p5412
aVOFBIZ-5090
p5413
aVOFBIZ-5089
p5414
aVOFBIZ-5088
p5415
aVOFBIZ-5087
p5416
aVOFBIZ-5086
p5417
aVOFBIZ-5085
p5418
aVOFBIZ-5084
p5419
aVOFBIZ-5083
p5420
aVOFBIZ-5082
p5421
aVOFBIZ-5081
p5422
aVOFBIZ-5080
p5423
aVOFBIZ-5079
p5424
aVOFBIZ-5078
p5425
aVOFBIZ-5077
p5426
aVOFBIZ-5076
p5427
aVOFBIZ-5075
p5428
aVOFBIZ-5074
p5429
aVOFBIZ-5073
p5430
aVOFBIZ-5072
p5431
aVOFBIZ-5071
p5432
aVOFBIZ-5070
p5433
aVOFBIZ-5069
p5434
aVOFBIZ-5068
p5435
aVOFBIZ-5067
p5436
aVOFBIZ-5066
p5437
aVOFBIZ-5065
p5438
aVOFBIZ-5064
p5439
aVOFBIZ-5063
p5440
aVOFBIZ-5062
p5441
aVOFBIZ-5061
p5442
aVOFBIZ-5060
p5443
aVOFBIZ-5059
p5444
aVOFBIZ-5058
p5445
aVOFBIZ-5057
p5446
aVOFBIZ-5056
p5447
aVOFBIZ-5055
p5448
aVOFBIZ-5054
p5449
aVOFBIZ-5053
p5450
aVOFBIZ-5052
p5451
aVOFBIZ-5051
p5452
aVOFBIZ-5050
p5453
aVOFBIZ-5049
p5454
aVOFBIZ-5048
p5455
aVOFBIZ-5047
p5456
aVOFBIZ-5046
p5457
aVOFBIZ-5045
p5458
aVOFBIZ-5044
p5459
aVOFBIZ-5043
p5460
aVOFBIZ-5042
p5461
aVOFBIZ-5041
p5462
aVOFBIZ-5040
p5463
aVOFBIZ-5039
p5464
aVOFBIZ-5038
p5465
aVOFBIZ-5037
p5466
aVOFBIZ-5036
p5467
aVOFBIZ-5035
p5468
aVOFBIZ-5034
p5469
aVOFBIZ-5033
p5470
aVOFBIZ-5032
p5471
aVOFBIZ-5031
p5472
aVOFBIZ-5030
p5473
aVOFBIZ-5029
p5474
aVOFBIZ-5028
p5475
aVOFBIZ-5027
p5476
aVOFBIZ-5026
p5477
aVOFBIZ-5025
p5478
aVOFBIZ-5024
p5479
aVOFBIZ-5023
p5480
aVOFBIZ-5022
p5481
aVOFBIZ-5021
p5482
aVOFBIZ-5020
p5483
aVOFBIZ-5019
p5484
aVOFBIZ-5018
p5485
aVOFBIZ-5017
p5486
aVOFBIZ-5016
p5487
aVOFBIZ-5015
p5488
aVOFBIZ-5014
p5489
aVOFBIZ-5013
p5490
aVOFBIZ-5012
p5491
aVOFBIZ-5011
p5492
aVOFBIZ-5010
p5493
aVOFBIZ-5009
p5494
aVOFBIZ-5008
p5495
aVOFBIZ-5007
p5496
aVOFBIZ-5006
p5497
aVOFBIZ-5005
p5498
aVOFBIZ-5004
p5499
aVOFBIZ-5001
p5500
aVOFBIZ-5000
p5501
aVOFBIZ-4999
p5502
aVOFBIZ-4998
p5503
aVOFBIZ-4997
p5504
aVOFBIZ-4996
p5505
aVOFBIZ-4995
p5506
aVOFBIZ-4994
p5507
aVOFBIZ-4993
p5508
aVOFBIZ-4992
p5509
aVOFBIZ-4991
p5510
aVOFBIZ-4990
p5511
aVOFBIZ-4989
p5512
aVOFBIZ-4988
p5513
aVOFBIZ-4987
p5514
aVOFBIZ-4986
p5515
aVOFBIZ-4985
p5516
aVOFBIZ-4984
p5517
aVOFBIZ-4983
p5518
aVOFBIZ-4982
p5519
aVOFBIZ-4981
p5520
aVOFBIZ-4980
p5521
aVOFBIZ-4979
p5522
aVOFBIZ-4978
p5523
aVOFBIZ-4977
p5524
aVOFBIZ-4976
p5525
aVOFBIZ-4975
p5526
aVOFBIZ-4974
p5527
aVOFBIZ-4973
p5528
aVOFBIZ-4972
p5529
aVOFBIZ-4971
p5530
aVOFBIZ-4970
p5531
aVOFBIZ-4969
p5532
aVOFBIZ-4968
p5533
aVOFBIZ-4967
p5534
aVOFBIZ-4966
p5535
aVOFBIZ-4965
p5536
aVOFBIZ-4964
p5537
aVOFBIZ-4963
p5538
aVOFBIZ-4962
p5539
aVOFBIZ-4961
p5540
aVOFBIZ-4960
p5541
aVOFBIZ-4959
p5542
aVOFBIZ-4958
p5543
aVOFBIZ-4957
p5544
aVOFBIZ-4956
p5545
aVOFBIZ-4955
p5546
aVOFBIZ-4954
p5547
aVOFBIZ-4953
p5548
aVOFBIZ-4952
p5549
aVOFBIZ-4951
p5550
aVOFBIZ-4950
p5551
aVOFBIZ-4949
p5552
aVOFBIZ-4948
p5553
aVOFBIZ-4947
p5554
aVOFBIZ-4946
p5555
aVOFBIZ-4945
p5556
aVOFBIZ-4944
p5557
aVOFBIZ-4943
p5558
aVOFBIZ-4942
p5559
aVOFBIZ-4941
p5560
aVOFBIZ-4940
p5561
aVOFBIZ-4939
p5562
aVOFBIZ-4938
p5563
aVOFBIZ-4937
p5564
aVOFBIZ-4936
p5565
aVOFBIZ-4935
p5566
aVOFBIZ-4934
p5567
aVOFBIZ-4933
p5568
aVOFBIZ-4932
p5569
aVOFBIZ-4931
p5570
aVOFBIZ-4930
p5571
aVOFBIZ-4929
p5572
aVOFBIZ-4928
p5573
aVOFBIZ-4927
p5574
aVOFBIZ-4926
p5575
aVOFBIZ-4925
p5576
aVOFBIZ-4924
p5577
aVOFBIZ-4923
p5578
aVOFBIZ-4922
p5579
aVOFBIZ-4921
p5580
aVOFBIZ-4920
p5581
aVOFBIZ-4919
p5582
aVOFBIZ-4918
p5583
aVOFBIZ-4917
p5584
aVOFBIZ-4916
p5585
aVOFBIZ-4915
p5586
aVOFBIZ-4914
p5587
aVOFBIZ-4913
p5588
aVOFBIZ-4912
p5589
aVOFBIZ-4911
p5590
aVOFBIZ-4910
p5591
aVOFBIZ-4909
p5592
aVOFBIZ-4908
p5593
aVOFBIZ-4907
p5594
aVOFBIZ-4906
p5595
aVOFBIZ-4905
p5596
aVOFBIZ-4904
p5597
aVOFBIZ-4903
p5598
aVOFBIZ-4902
p5599
aVOFBIZ-4901
p5600
aVOFBIZ-4900
p5601
aVOFBIZ-4899
p5602
aVOFBIZ-4898
p5603
aVOFBIZ-4897
p5604
aVOFBIZ-4896
p5605
aVOFBIZ-4895
p5606
aVOFBIZ-4894
p5607
aVOFBIZ-4893
p5608
aVOFBIZ-4892
p5609
aVOFBIZ-4891
p5610
aVOFBIZ-4890
p5611
aVOFBIZ-4889
p5612
aVOFBIZ-4888
p5613
aVOFBIZ-4887
p5614
aVOFBIZ-4886
p5615
aVOFBIZ-4885
p5616
aVOFBIZ-4884
p5617
aVOFBIZ-4883
p5618
aVOFBIZ-4882
p5619
aVOFBIZ-4881
p5620
aVOFBIZ-4880
p5621
aVOFBIZ-4879
p5622
aVOFBIZ-4878
p5623
aVOFBIZ-4877
p5624
aVOFBIZ-4876
p5625
aVOFBIZ-4875
p5626
aVOFBIZ-4874
p5627
aVOFBIZ-4873
p5628
aVOFBIZ-4872
p5629
aVOFBIZ-4871
p5630
aVOFBIZ-4870
p5631
aVOFBIZ-4869
p5632
aVOFBIZ-4868
p5633
aVOFBIZ-4867
p5634
aVOFBIZ-4866
p5635
aVOFBIZ-4865
p5636
aVOFBIZ-4864
p5637
aVOFBIZ-4863
p5638
aVOFBIZ-4862
p5639
aVOFBIZ-4861
p5640
aVOFBIZ-4860
p5641
aVOFBIZ-4859
p5642
aVOFBIZ-4858
p5643
aVOFBIZ-4857
p5644
aVOFBIZ-4856
p5645
aVOFBIZ-4855
p5646
aVOFBIZ-4854
p5647
aVOFBIZ-4853
p5648
aVOFBIZ-4852
p5649
aVOFBIZ-4851
p5650
aVOFBIZ-4850
p5651
aVOFBIZ-4849
p5652
aVOFBIZ-4848
p5653
aVOFBIZ-4847
p5654
aVOFBIZ-4846
p5655
aVOFBIZ-4845
p5656
aVOFBIZ-4844
p5657
aVOFBIZ-4843
p5658
aVOFBIZ-4842
p5659
aVOFBIZ-4841
p5660
aVOFBIZ-4840
p5661
aVOFBIZ-4839
p5662
aVOFBIZ-4838
p5663
aVOFBIZ-4837
p5664
aVOFBIZ-4836
p5665
aVOFBIZ-4835
p5666
aVOFBIZ-4834
p5667
aVOFBIZ-4833
p5668
aVOFBIZ-4832
p5669
aVOFBIZ-4831
p5670
aVOFBIZ-4830
p5671
aVOFBIZ-4829
p5672
aVOFBIZ-4828
p5673
aVOFBIZ-4827
p5674
aVOFBIZ-4826
p5675
aVOFBIZ-4825
p5676
aVOFBIZ-4824
p5677
aVOFBIZ-4823
p5678
aVOFBIZ-4822
p5679
aVOFBIZ-4821
p5680
aVOFBIZ-4820
p5681
aVOFBIZ-4819
p5682
aVOFBIZ-4818
p5683
aVOFBIZ-4817
p5684
aVOFBIZ-4816
p5685
aVOFBIZ-4815
p5686
aVOFBIZ-4814
p5687
aVOFBIZ-4813
p5688
aVOFBIZ-4812
p5689
aVOFBIZ-4811
p5690
aVOFBIZ-4810
p5691
aVOFBIZ-4809
p5692
aVOFBIZ-4808
p5693
aVOFBIZ-4807
p5694
aVOFBIZ-4806
p5695
aVOFBIZ-4805
p5696
aVOFBIZ-4804
p5697
aVOFBIZ-4803
p5698
aVOFBIZ-4802
p5699
aVOFBIZ-4801
p5700
aVOFBIZ-4800
p5701
aVOFBIZ-4799
p5702
aVOFBIZ-4798
p5703
aVOFBIZ-4797
p5704
aVOFBIZ-4796
p5705
aVOFBIZ-4795
p5706
aVOFBIZ-4794
p5707
aVOFBIZ-4793
p5708
aVOFBIZ-4792
p5709
aVOFBIZ-4791
p5710
aVOFBIZ-4790
p5711
aVOFBIZ-4789
p5712
aVOFBIZ-4788
p5713
aVOFBIZ-4787
p5714
aVOFBIZ-4786
p5715
aVOFBIZ-4785
p5716
aVOFBIZ-4784
p5717
aVOFBIZ-4783
p5718
aVOFBIZ-4782
p5719
aVOFBIZ-4781
p5720
aVOFBIZ-4780
p5721
aVOFBIZ-4779
p5722
aVOFBIZ-4778
p5723
aVOFBIZ-4777
p5724
aVOFBIZ-4776
p5725
aVOFBIZ-4775
p5726
aVOFBIZ-4774
p5727
aVOFBIZ-4773
p5728
aVOFBIZ-4772
p5729
aVOFBIZ-4771
p5730
aVOFBIZ-4770
p5731
aVOFBIZ-4769
p5732
aVOFBIZ-4768
p5733
aVOFBIZ-4767
p5734
aVOFBIZ-4766
p5735
aVOFBIZ-4765
p5736
aVOFBIZ-4764
p5737
aVOFBIZ-4763
p5738
aVOFBIZ-4762
p5739
aVOFBIZ-4761
p5740
aVOFBIZ-4760
p5741
aVOFBIZ-4759
p5742
aVOFBIZ-4758
p5743
aVOFBIZ-4757
p5744
aVOFBIZ-4756
p5745
aVOFBIZ-4755
p5746
aVOFBIZ-4754
p5747
aVOFBIZ-4753
p5748
aVOFBIZ-4752
p5749
aVOFBIZ-4751
p5750
aVOFBIZ-4750
p5751
aVOFBIZ-4749
p5752
aVOFBIZ-4748
p5753
aVOFBIZ-4747
p5754
aVOFBIZ-4746
p5755
aVOFBIZ-4745
p5756
aVOFBIZ-4744
p5757
aVOFBIZ-4743
p5758
aVOFBIZ-4742
p5759
aVOFBIZ-4741
p5760
aVOFBIZ-4740
p5761
aVOFBIZ-4739
p5762
aVOFBIZ-4738
p5763
aVOFBIZ-4737
p5764
aVOFBIZ-4736
p5765
aVOFBIZ-4735
p5766
aVOFBIZ-4734
p5767
aVOFBIZ-4733
p5768
aVOFBIZ-4732
p5769
aVOFBIZ-4731
p5770
aVOFBIZ-4730
p5771
aVOFBIZ-4729
p5772
aVOFBIZ-4728
p5773
aVOFBIZ-4727
p5774
aVOFBIZ-4726
p5775
aVOFBIZ-4725
p5776
aVOFBIZ-4724
p5777
aVOFBIZ-4723
p5778
aVOFBIZ-4722
p5779
aVOFBIZ-4721
p5780
aVOFBIZ-4720
p5781
aVOFBIZ-4719
p5782
aVOFBIZ-4718
p5783
aVOFBIZ-4717
p5784
aVOFBIZ-4716
p5785
aVOFBIZ-4715
p5786
aVOFBIZ-4714
p5787
aVOFBIZ-4713
p5788
aVOFBIZ-4712
p5789
aVOFBIZ-4711
p5790
aVOFBIZ-4710
p5791
aVOFBIZ-4709
p5792
aVOFBIZ-4708
p5793
aVOFBIZ-4707
p5794
aVOFBIZ-4706
p5795
aVOFBIZ-4705
p5796
aVOFBIZ-4704
p5797
aVOFBIZ-4703
p5798
aVOFBIZ-4702
p5799
aVOFBIZ-4701
p5800
aVOFBIZ-4700
p5801
aVOFBIZ-4699
p5802
aVOFBIZ-4698
p5803
aVOFBIZ-4697
p5804
aVOFBIZ-4696
p5805
aVOFBIZ-4695
p5806
aVOFBIZ-4694
p5807
aVOFBIZ-4693
p5808
aVOFBIZ-4692
p5809
aVOFBIZ-4691
p5810
aVOFBIZ-4690
p5811
aVOFBIZ-4689
p5812
aVOFBIZ-4688
p5813
aVOFBIZ-4687
p5814
aVOFBIZ-4686
p5815
aVOFBIZ-4685
p5816
aVOFBIZ-4684
p5817
aVOFBIZ-4683
p5818
aVOFBIZ-4682
p5819
aVOFBIZ-4681
p5820
aVOFBIZ-4680
p5821
aVOFBIZ-4679
p5822
aVOFBIZ-4678
p5823
aVOFBIZ-4677
p5824
aVOFBIZ-4676
p5825
aVOFBIZ-4675
p5826
aVOFBIZ-4674
p5827
aVOFBIZ-4673
p5828
aVOFBIZ-4672
p5829
aVOFBIZ-4671
p5830
aVOFBIZ-4670
p5831
aVOFBIZ-4669
p5832
aVOFBIZ-4668
p5833
aVOFBIZ-4667
p5834
aVOFBIZ-4666
p5835
aVOFBIZ-4665
p5836
aVOFBIZ-4664
p5837
aVOFBIZ-4663
p5838
aVOFBIZ-4662
p5839
aVOFBIZ-4661
p5840
aVOFBIZ-4660
p5841
aVOFBIZ-4659
p5842
aVOFBIZ-4658
p5843
aVOFBIZ-4657
p5844
aVOFBIZ-4656
p5845
aVOFBIZ-4655
p5846
aVOFBIZ-4654
p5847
aVOFBIZ-4653
p5848
aVOFBIZ-4652
p5849
aVOFBIZ-4651
p5850
aVOFBIZ-4650
p5851
aVOFBIZ-4649
p5852
aVOFBIZ-4648
p5853
aVOFBIZ-4647
p5854
aVOFBIZ-4646
p5855
aVOFBIZ-4645
p5856
aVOFBIZ-4644
p5857
aVOFBIZ-4643
p5858
aVOFBIZ-4642
p5859
aVOFBIZ-4641
p5860
aVOFBIZ-4640
p5861
aVOFBIZ-4639
p5862
aVOFBIZ-4638
p5863
aVOFBIZ-4637
p5864
aVOFBIZ-4636
p5865
aVOFBIZ-4635
p5866
aVOFBIZ-4634
p5867
aVOFBIZ-4633
p5868
aVOFBIZ-4632
p5869
aVOFBIZ-4631
p5870
aVOFBIZ-4630
p5871
aVOFBIZ-4629
p5872
aVOFBIZ-4628
p5873
aVOFBIZ-4627
p5874
aVOFBIZ-4626
p5875
aVOFBIZ-4625
p5876
aVOFBIZ-4624
p5877
aVOFBIZ-4623
p5878
aVOFBIZ-4622
p5879
aVOFBIZ-4621
p5880
aVOFBIZ-4620
p5881
aVOFBIZ-4619
p5882
aVOFBIZ-4618
p5883
aVOFBIZ-4617
p5884
aVOFBIZ-4616
p5885
aVOFBIZ-4615
p5886
aVOFBIZ-4614
p5887
aVOFBIZ-4613
p5888
aVOFBIZ-4612
p5889
aVOFBIZ-4611
p5890
aVOFBIZ-4610
p5891
aVOFBIZ-4609
p5892
aVOFBIZ-4608
p5893
aVOFBIZ-4607
p5894
aVOFBIZ-4606
p5895
aVOFBIZ-4605
p5896
aVOFBIZ-4604
p5897
aVOFBIZ-4603
p5898
aVOFBIZ-4602
p5899
aVOFBIZ-4601
p5900
aVOFBIZ-4600
p5901
aVOFBIZ-4599
p5902
aVOFBIZ-4598
p5903
aVOFBIZ-4597
p5904
aVOFBIZ-4596
p5905
aVOFBIZ-4595
p5906
aVOFBIZ-4594
p5907
aVOFBIZ-4593
p5908
aVOFBIZ-4592
p5909
aVOFBIZ-4591
p5910
aVOFBIZ-4590
p5911
aVOFBIZ-4589
p5912
aVOFBIZ-4588
p5913
aVOFBIZ-4587
p5914
aVOFBIZ-4586
p5915
aVOFBIZ-4585
p5916
aVOFBIZ-4584
p5917
aVOFBIZ-4583
p5918
aVOFBIZ-4582
p5919
aVOFBIZ-4581
p5920
aVOFBIZ-4580
p5921
aVOFBIZ-4579
p5922
aVOFBIZ-4578
p5923
aVOFBIZ-4577
p5924
aVOFBIZ-4576
p5925
aVOFBIZ-4575
p5926
aVOFBIZ-4574
p5927
aVOFBIZ-4573
p5928
aVOFBIZ-4572
p5929
aVOFBIZ-4571
p5930
aVOFBIZ-4570
p5931
aVOFBIZ-4569
p5932
aVOFBIZ-4568
p5933
aVOFBIZ-4567
p5934
aVOFBIZ-4566
p5935
aVOFBIZ-4565
p5936
aVOFBIZ-4564
p5937
aVOFBIZ-4563
p5938
aVOFBIZ-4562
p5939
aVOFBIZ-4561
p5940
aVOFBIZ-4560
p5941
aVOFBIZ-4559
p5942
aVOFBIZ-4558
p5943
aVOFBIZ-4557
p5944
aVOFBIZ-4556
p5945
aVOFBIZ-4555
p5946
aVOFBIZ-4554
p5947
aVOFBIZ-4553
p5948
aVOFBIZ-4552
p5949
aVOFBIZ-4551
p5950
aVOFBIZ-4550
p5951
aVOFBIZ-4549
p5952
aVOFBIZ-4548
p5953
aVOFBIZ-4547
p5954
aVOFBIZ-4546
p5955
aVOFBIZ-4545
p5956
aVOFBIZ-4544
p5957
aVOFBIZ-4543
p5958
aVOFBIZ-4542
p5959
aVOFBIZ-4541
p5960
aVOFBIZ-4540
p5961
aVOFBIZ-4539
p5962
aVOFBIZ-4538
p5963
aVOFBIZ-4537
p5964
aVOFBIZ-4536
p5965
aVOFBIZ-4535
p5966
aVOFBIZ-4534
p5967
aVOFBIZ-4533
p5968
aVOFBIZ-4532
p5969
aVOFBIZ-4531
p5970
aVOFBIZ-4530
p5971
aVOFBIZ-4529
p5972
aVOFBIZ-4528
p5973
aVOFBIZ-4527
p5974
aVOFBIZ-4526
p5975
aVOFBIZ-4525
p5976
aVOFBIZ-4524
p5977
aVOFBIZ-4523
p5978
aVOFBIZ-4522
p5979
aVOFBIZ-4521
p5980
aVOFBIZ-4520
p5981
aVOFBIZ-4519
p5982
aVOFBIZ-4518
p5983
aVOFBIZ-4517
p5984
aVOFBIZ-4516
p5985
aVOFBIZ-4515
p5986
aVOFBIZ-4514
p5987
aVOFBIZ-4513
p5988
aVOFBIZ-4512
p5989
aVOFBIZ-4511
p5990
aVOFBIZ-4510
p5991
aVOFBIZ-4509
p5992
aVOFBIZ-4508
p5993
aVOFBIZ-4507
p5994
aVOFBIZ-4506
p5995
aVOFBIZ-4505
p5996
aVOFBIZ-4504
p5997
aVOFBIZ-4503
p5998
aVOFBIZ-4502
p5999
aVOFBIZ-4501
p6000
aVOFBIZ-4500
p6001
aVOFBIZ-4499
p6002
aVOFBIZ-4498
p6003
aVOFBIZ-4497
p6004
aVOFBIZ-4496
p6005
aVOFBIZ-4495
p6006
aVOFBIZ-4494
p6007
aVOFBIZ-4493
p6008
aVOFBIZ-4492
p6009
aVOFBIZ-4491
p6010
aVOFBIZ-4490
p6011
aVOFBIZ-4489
p6012
aVOFBIZ-4488
p6013
aVOFBIZ-4487
p6014
aVOFBIZ-4486
p6015
aVOFBIZ-4485
p6016
aVOFBIZ-4484
p6017
aVOFBIZ-4483
p6018
aVOFBIZ-4482
p6019
aVOFBIZ-4481
p6020
aVOFBIZ-4480
p6021
aVOFBIZ-4479
p6022
aVOFBIZ-4478
p6023
aVOFBIZ-4477
p6024
aVOFBIZ-4476
p6025
aVOFBIZ-4475
p6026
aVOFBIZ-4474
p6027
aVOFBIZ-4473
p6028
aVOFBIZ-4472
p6029
aVOFBIZ-4471
p6030
aVOFBIZ-4470
p6031
aVOFBIZ-4469
p6032
aVOFBIZ-4468
p6033
aVOFBIZ-4467
p6034
aVOFBIZ-4466
p6035
aVOFBIZ-4465
p6036
aVOFBIZ-4464
p6037
aVOFBIZ-4463
p6038
aVOFBIZ-4462
p6039
aVOFBIZ-4461
p6040
aVOFBIZ-4460
p6041
aVOFBIZ-4459
p6042
aVOFBIZ-4458
p6043
aVOFBIZ-4457
p6044
aVOFBIZ-4456
p6045
aVOFBIZ-4455
p6046
aVOFBIZ-4454
p6047
aVOFBIZ-4453
p6048
aVOFBIZ-4452
p6049
aVOFBIZ-4451
p6050
aVOFBIZ-4450
p6051
aVOFBIZ-4449
p6052
aVOFBIZ-4448
p6053
aVOFBIZ-4447
p6054
aVOFBIZ-4446
p6055
aVOFBIZ-4445
p6056
aVOFBIZ-4444
p6057
aVOFBIZ-4443
p6058
aVOFBIZ-4442
p6059
aVOFBIZ-4441
p6060
aVOFBIZ-4440
p6061
aVOFBIZ-4439
p6062
aVOFBIZ-4438
p6063
aVOFBIZ-4437
p6064
aVOFBIZ-4436
p6065
aVOFBIZ-4435
p6066
aVOFBIZ-4434
p6067
aVOFBIZ-4433
p6068
aVOFBIZ-4432
p6069
aVOFBIZ-4431
p6070
aVOFBIZ-4430
p6071
aVOFBIZ-4429
p6072
aVOFBIZ-4428
p6073
aVOFBIZ-4427
p6074
aVOFBIZ-4426
p6075
aVOFBIZ-4425
p6076
aVOFBIZ-4424
p6077
aVOFBIZ-4423
p6078
aVOFBIZ-4422
p6079
aVOFBIZ-4421
p6080
aVOFBIZ-4420
p6081
aVOFBIZ-4419
p6082
aVOFBIZ-4418
p6083
aVOFBIZ-4417
p6084
aVOFBIZ-4416
p6085
aVOFBIZ-4415
p6086
aVOFBIZ-4414
p6087
aVOFBIZ-4413
p6088
aVOFBIZ-4412
p6089
aVOFBIZ-4411
p6090
aVOFBIZ-4410
p6091
aVOFBIZ-4409
p6092
aVOFBIZ-4408
p6093
aVOFBIZ-4407
p6094
aVOFBIZ-4406
p6095
aVOFBIZ-4405
p6096
aVOFBIZ-4404
p6097
aVOFBIZ-4403
p6098
aVOFBIZ-4402
p6099
aVOFBIZ-4401
p6100
aVOFBIZ-4400
p6101
aVOFBIZ-4399
p6102
aVOFBIZ-4398
p6103
aVOFBIZ-4397
p6104
aVOFBIZ-4396
p6105
aVOFBIZ-4395
p6106
aVOFBIZ-4394
p6107
aVOFBIZ-4393
p6108
aVOFBIZ-4392
p6109
aVOFBIZ-4391
p6110
aVOFBIZ-4390
p6111
aVOFBIZ-4389
p6112
aVOFBIZ-4388
p6113
aVOFBIZ-4387
p6114
aVOFBIZ-4386
p6115
aVOFBIZ-4385
p6116
aVOFBIZ-4384
p6117
aVOFBIZ-4383
p6118
aVOFBIZ-4382
p6119
aVOFBIZ-4381
p6120
aVOFBIZ-4380
p6121
aVOFBIZ-4379
p6122
aVOFBIZ-4378
p6123
aVOFBIZ-4377
p6124
aVOFBIZ-4376
p6125
aVOFBIZ-4375
p6126
aVOFBIZ-4374
p6127
aVOFBIZ-4373
p6128
aVOFBIZ-4372
p6129
aVOFBIZ-4371
p6130
aVOFBIZ-4370
p6131
aVOFBIZ-4369
p6132
aVOFBIZ-4368
p6133
aVOFBIZ-4367
p6134
aVOFBIZ-4366
p6135
aVOFBIZ-4365
p6136
aVOFBIZ-4364
p6137
aVOFBIZ-4363
p6138
aVOFBIZ-4362
p6139
aVOFBIZ-4361
p6140
aVOFBIZ-4360
p6141
aVOFBIZ-4359
p6142
aVOFBIZ-4358
p6143
aVOFBIZ-4357
p6144
aVOFBIZ-4356
p6145
aVOFBIZ-4355
p6146
aVOFBIZ-4354
p6147
aVOFBIZ-4353
p6148
aVOFBIZ-4352
p6149
aVOFBIZ-4351
p6150
aVOFBIZ-4350
p6151
aVOFBIZ-4349
p6152
aVOFBIZ-4348
p6153
aVOFBIZ-4347
p6154
aVOFBIZ-4346
p6155
aVOFBIZ-4345
p6156
aVOFBIZ-4344
p6157
aVOFBIZ-4343
p6158
aVOFBIZ-4342
p6159
aVOFBIZ-4341
p6160
aVOFBIZ-4340
p6161
aVOFBIZ-4339
p6162
aVOFBIZ-4338
p6163
aVOFBIZ-4337
p6164
aVOFBIZ-4336
p6165
aVOFBIZ-4335
p6166
aVOFBIZ-4334
p6167
aVOFBIZ-4333
p6168
aVOFBIZ-4332
p6169
aVOFBIZ-4331
p6170
aVOFBIZ-4330
p6171
aVOFBIZ-4329
p6172
aVOFBIZ-4328
p6173
aVOFBIZ-4327
p6174
aVOFBIZ-4326
p6175
aVOFBIZ-4325
p6176
aVOFBIZ-4324
p6177
aVOFBIZ-4323
p6178
aVOFBIZ-4322
p6179
aVOFBIZ-4321
p6180
aVOFBIZ-4320
p6181
aVOFBIZ-4319
p6182
aVOFBIZ-4318
p6183
aVOFBIZ-4317
p6184
aVOFBIZ-4316
p6185
aVOFBIZ-4315
p6186
aVOFBIZ-4314
p6187
aVOFBIZ-4313
p6188
aVOFBIZ-4312
p6189
aVOFBIZ-4311
p6190
aVOFBIZ-4310
p6191
aVOFBIZ-4309
p6192
aVOFBIZ-4308
p6193
aVOFBIZ-4307
p6194
aVOFBIZ-4306
p6195
aVOFBIZ-4305
p6196
aVOFBIZ-4304
p6197
aVOFBIZ-4303
p6198
aVOFBIZ-4302
p6199
aVOFBIZ-4301
p6200
aVOFBIZ-4300
p6201
aVOFBIZ-4299
p6202
aVOFBIZ-4298
p6203
aVOFBIZ-4297
p6204
aVOFBIZ-4296
p6205
aVOFBIZ-4295
p6206
aVOFBIZ-4294
p6207
aVOFBIZ-4293
p6208
aVOFBIZ-4292
p6209
aVOFBIZ-4291
p6210
aVOFBIZ-4290
p6211
aVOFBIZ-4289
p6212
aVOFBIZ-4288
p6213
aVOFBIZ-4287
p6214
aVOFBIZ-4286
p6215
aVOFBIZ-4285
p6216
aVOFBIZ-4284
p6217
aVOFBIZ-4283
p6218
aVOFBIZ-4282
p6219
aVOFBIZ-4281
p6220
aVOFBIZ-4280
p6221
aVOFBIZ-4279
p6222
aVOFBIZ-4278
p6223
aVOFBIZ-4277
p6224
aVOFBIZ-4276
p6225
aVOFBIZ-4275
p6226
aVOFBIZ-4274
p6227
aVOFBIZ-4273
p6228
aVOFBIZ-4272
p6229
aVOFBIZ-4271
p6230
aVOFBIZ-4270
p6231
aVOFBIZ-4269
p6232
aVOFBIZ-4268
p6233
aVOFBIZ-4267
p6234
aVOFBIZ-4266
p6235
aVOFBIZ-4265
p6236
aVOFBIZ-4264
p6237
aVOFBIZ-4263
p6238
aVOFBIZ-4262
p6239
aVOFBIZ-4261
p6240
aVOFBIZ-4260
p6241
aVOFBIZ-4259
p6242
aVOFBIZ-4258
p6243
aVOFBIZ-4257
p6244
aVOFBIZ-4256
p6245
aVOFBIZ-4255
p6246
aVOFBIZ-4254
p6247
aVOFBIZ-4253
p6248
aVOFBIZ-4252
p6249
aVOFBIZ-4251
p6250
aVOFBIZ-4250
p6251
aVOFBIZ-4249
p6252
aVOFBIZ-4248
p6253
aVOFBIZ-4247
p6254
aVOFBIZ-4246
p6255
aVOFBIZ-4245
p6256
aVOFBIZ-4244
p6257
aVOFBIZ-4243
p6258
aVOFBIZ-4242
p6259
aVOFBIZ-4241
p6260
aVOFBIZ-4240
p6261
aVOFBIZ-4239
p6262
aVOFBIZ-4238
p6263
aVOFBIZ-4237
p6264
aVOFBIZ-4236
p6265
aVOFBIZ-4235
p6266
aVOFBIZ-4234
p6267
aVOFBIZ-4233
p6268
aVOFBIZ-4232
p6269
aVOFBIZ-4231
p6270
aVOFBIZ-4230
p6271
aVOFBIZ-4229
p6272
aVOFBIZ-4228
p6273
aVOFBIZ-4227
p6274
aVOFBIZ-4226
p6275
aVOFBIZ-4225
p6276
aVOFBIZ-4224
p6277
aVOFBIZ-4223
p6278
aVOFBIZ-4222
p6279
aVOFBIZ-4221
p6280
aVOFBIZ-4220
p6281
aVOFBIZ-4219
p6282
aVOFBIZ-4218
p6283
aVOFBIZ-4217
p6284
aVOFBIZ-4216
p6285
aVOFBIZ-4215
p6286
aVOFBIZ-4214
p6287
aVOFBIZ-4213
p6288
aVOFBIZ-4212
p6289
aVOFBIZ-4211
p6290
aVOFBIZ-4210
p6291
aVOFBIZ-4209
p6292
aVOFBIZ-4208
p6293
aVOFBIZ-4207
p6294
aVOFBIZ-4206
p6295
aVOFBIZ-4205
p6296
aVOFBIZ-4204
p6297
aVOFBIZ-4203
p6298
aVOFBIZ-4202
p6299
aVOFBIZ-4201
p6300
aVOFBIZ-4200
p6301
aVOFBIZ-4199
p6302
aVOFBIZ-4198
p6303
aVOFBIZ-4197
p6304
aVOFBIZ-4196
p6305
aVOFBIZ-4195
p6306
aVOFBIZ-4194
p6307
aVOFBIZ-4193
p6308
aVOFBIZ-4192
p6309
aVOFBIZ-4191
p6310
aVOFBIZ-4190
p6311
aVOFBIZ-4189
p6312
aVOFBIZ-4188
p6313
aVOFBIZ-4187
p6314
aVOFBIZ-4186
p6315
aVOFBIZ-4185
p6316
aVOFBIZ-4184
p6317
aVOFBIZ-4183
p6318
aVOFBIZ-4182
p6319
aVOFBIZ-4181
p6320
aVOFBIZ-4180
p6321
aVOFBIZ-4179
p6322
aVOFBIZ-4178
p6323
aVOFBIZ-4177
p6324
aVOFBIZ-4176
p6325
aVOFBIZ-4175
p6326
aVOFBIZ-4174
p6327
aVOFBIZ-4173
p6328
aVOFBIZ-4172
p6329
aVOFBIZ-4171
p6330
aVOFBIZ-4170
p6331
aVOFBIZ-4169
p6332
aVOFBIZ-4168
p6333
aVOFBIZ-4167
p6334
aVOFBIZ-4166
p6335
aVOFBIZ-4165
p6336
aVOFBIZ-4164
p6337
aVOFBIZ-4163
p6338
aVOFBIZ-4162
p6339
aVOFBIZ-4161
p6340
aVOFBIZ-4160
p6341
aVOFBIZ-4159
p6342
aVOFBIZ-4158
p6343
aVOFBIZ-4157
p6344
aVOFBIZ-4156
p6345
aVOFBIZ-4155
p6346
aVOFBIZ-4154
p6347
aVOFBIZ-4153
p6348
aVOFBIZ-4152
p6349
aVOFBIZ-4151
p6350
aVOFBIZ-4150
p6351
aVOFBIZ-4149
p6352
aVOFBIZ-4148
p6353
aVOFBIZ-4147
p6354
aVOFBIZ-4146
p6355
aVOFBIZ-4145
p6356
aVOFBIZ-4144
p6357
aVOFBIZ-4143
p6358
aVOFBIZ-4142
p6359
aVOFBIZ-4141
p6360
aVOFBIZ-4140
p6361
aVOFBIZ-4139
p6362
aVOFBIZ-4138
p6363
aVOFBIZ-4137
p6364
aVOFBIZ-4136
p6365
aVOFBIZ-4135
p6366
aVOFBIZ-4134
p6367
aVOFBIZ-4133
p6368
aVOFBIZ-4132
p6369
aVOFBIZ-4131
p6370
aVOFBIZ-4130
p6371
aVOFBIZ-4129
p6372
aVOFBIZ-4128
p6373
aVOFBIZ-4127
p6374
aVOFBIZ-4126
p6375
aVOFBIZ-4125
p6376
aVOFBIZ-4124
p6377
aVOFBIZ-4123
p6378
aVOFBIZ-4122
p6379
aVOFBIZ-4121
p6380
aVOFBIZ-4120
p6381
aVOFBIZ-4119
p6382
aVOFBIZ-4118
p6383
aVOFBIZ-4117
p6384
aVOFBIZ-4116
p6385
aVOFBIZ-4115
p6386
aVOFBIZ-4114
p6387
aVOFBIZ-4113
p6388
aVOFBIZ-4112
p6389
aVOFBIZ-4111
p6390
aVOFBIZ-4110
p6391
aVOFBIZ-4109
p6392
aVOFBIZ-4108
p6393
aVOFBIZ-4107
p6394
aVOFBIZ-4106
p6395
aVOFBIZ-4105
p6396
aVOFBIZ-4104
p6397
aVOFBIZ-4103
p6398
aVOFBIZ-4102
p6399
aVOFBIZ-4101
p6400
aVOFBIZ-4100
p6401
aVOFBIZ-4099
p6402
aVOFBIZ-4098
p6403
aVOFBIZ-4097
p6404
aVOFBIZ-4096
p6405
aVOFBIZ-4095
p6406
aVOFBIZ-4094
p6407
aVOFBIZ-4093
p6408
aVOFBIZ-4092
p6409
aVOFBIZ-4091
p6410
aVOFBIZ-4090
p6411
aVOFBIZ-4089
p6412
aVOFBIZ-4088
p6413
aVOFBIZ-4087
p6414
aVOFBIZ-4086
p6415
aVOFBIZ-4085
p6416
aVOFBIZ-4084
p6417
aVOFBIZ-4083
p6418
aVOFBIZ-4082
p6419
aVOFBIZ-4081
p6420
aVOFBIZ-4080
p6421
aVOFBIZ-4079
p6422
aVOFBIZ-4078
p6423
aVOFBIZ-4077
p6424
aVOFBIZ-4076
p6425
aVOFBIZ-4075
p6426
aVOFBIZ-4074
p6427
aVOFBIZ-4073
p6428
aVOFBIZ-4072
p6429
aVOFBIZ-4071
p6430
aVOFBIZ-4070
p6431
aVOFBIZ-4069
p6432
aVOFBIZ-4068
p6433
aVOFBIZ-4067
p6434
aVOFBIZ-4066
p6435
aVOFBIZ-4065
p6436
aVOFBIZ-4064
p6437
aVOFBIZ-4063
p6438
aVOFBIZ-4062
p6439
aVOFBIZ-4061
p6440
aVOFBIZ-4060
p6441
aVOFBIZ-4059
p6442
aVOFBIZ-4058
p6443
aVOFBIZ-4057
p6444
aVOFBIZ-4056
p6445
aVOFBIZ-4055
p6446
aVOFBIZ-4054
p6447
aVOFBIZ-4053
p6448
aVOFBIZ-4052
p6449
aVOFBIZ-4051
p6450
aVOFBIZ-4050
p6451
aVOFBIZ-4049
p6452
aVOFBIZ-4048
p6453
aVOFBIZ-4047
p6454
aVOFBIZ-4046
p6455
aVOFBIZ-4045
p6456
aVOFBIZ-4044
p6457
aVOFBIZ-4043
p6458
aVOFBIZ-4042
p6459
aVOFBIZ-4041
p6460
aVOFBIZ-4040
p6461
aVOFBIZ-4039
p6462
aVOFBIZ-4038
p6463
aVOFBIZ-4037
p6464
aVOFBIZ-4036
p6465
aVOFBIZ-4035
p6466
aVOFBIZ-4034
p6467
aVOFBIZ-4033
p6468
aVOFBIZ-4032
p6469
aVOFBIZ-4031
p6470
aVOFBIZ-4030
p6471
aVOFBIZ-4029
p6472
aVOFBIZ-4028
p6473
aVOFBIZ-4027
p6474
aVOFBIZ-4026
p6475
aVOFBIZ-4025
p6476
aVOFBIZ-4024
p6477
aVOFBIZ-4023
p6478
aVOFBIZ-4022
p6479
aVOFBIZ-4021
p6480
aVOFBIZ-4020
p6481
aVOFBIZ-4019
p6482
aVOFBIZ-4018
p6483
aVOFBIZ-4017
p6484
aVOFBIZ-4016
p6485
aVOFBIZ-4015
p6486
aVOFBIZ-4014
p6487
aVOFBIZ-4013
p6488
aVOFBIZ-4012
p6489
aVOFBIZ-4011
p6490
aVOFBIZ-4010
p6491
aVOFBIZ-4009
p6492
aVOFBIZ-4008
p6493
aVOFBIZ-4007
p6494
aVOFBIZ-4006
p6495
aVOFBIZ-4005
p6496
aVOFBIZ-4004
p6497
aVOFBIZ-4003
p6498
aVOFBIZ-4002
p6499
aVOFBIZ-4001
p6500
aVOFBIZ-4000
p6501
aVOFBIZ-3999
p6502
aVOFBIZ-3998
p6503
aVOFBIZ-3997
p6504
aVOFBIZ-3996
p6505
aVOFBIZ-3995
p6506
aVOFBIZ-3994
p6507
aVOFBIZ-3993
p6508
aVOFBIZ-3992
p6509
aVOFBIZ-3991
p6510
aVOFBIZ-3990
p6511
aVOFBIZ-3989
p6512
aVOFBIZ-3988
p6513
aVOFBIZ-3987
p6514
aVOFBIZ-3986
p6515
aVOFBIZ-3985
p6516
aVOFBIZ-3984
p6517
aVOFBIZ-3983
p6518
aVOFBIZ-3982
p6519
aVOFBIZ-3981
p6520
aVOFBIZ-3980
p6521
aVOFBIZ-3979
p6522
aVOFBIZ-3978
p6523
aVOFBIZ-3977
p6524
aVOFBIZ-3976
p6525
aVOFBIZ-3975
p6526
aVOFBIZ-3974
p6527
aVOFBIZ-3973
p6528
aVOFBIZ-3972
p6529
aVOFBIZ-3971
p6530
aVOFBIZ-3970
p6531
aVOFBIZ-3969
p6532
aVOFBIZ-3968
p6533
aVOFBIZ-3967
p6534
aVOFBIZ-3966
p6535
aVOFBIZ-3965
p6536
aVOFBIZ-3964
p6537
aVOFBIZ-3963
p6538
aVOFBIZ-3962
p6539
aVOFBIZ-3961
p6540
aVOFBIZ-3960
p6541
aVOFBIZ-3959
p6542
aVOFBIZ-3958
p6543
aVOFBIZ-3957
p6544
aVOFBIZ-3956
p6545
aVOFBIZ-3955
p6546
aVOFBIZ-3954
p6547
aVOFBIZ-3953
p6548
aVOFBIZ-3952
p6549
aVOFBIZ-3951
p6550
aVOFBIZ-3950
p6551
aVOFBIZ-3949
p6552
aVOFBIZ-3948
p6553
aVOFBIZ-3947
p6554
aVOFBIZ-3946
p6555
aVOFBIZ-3945
p6556
aVOFBIZ-3944
p6557
aVOFBIZ-3943
p6558
aVOFBIZ-3942
p6559
aVOFBIZ-3941
p6560
aVOFBIZ-3940
p6561
aVOFBIZ-3939
p6562
aVOFBIZ-3938
p6563
aVOFBIZ-3937
p6564
aVOFBIZ-3936
p6565
aVOFBIZ-3935
p6566
aVOFBIZ-3934
p6567
aVOFBIZ-3933
p6568
aVOFBIZ-3932
p6569
aVOFBIZ-3931
p6570
aVOFBIZ-3930
p6571
aVOFBIZ-3929
p6572
aVOFBIZ-3928
p6573
aVOFBIZ-3927
p6574
aVOFBIZ-3926
p6575
aVOFBIZ-3925
p6576
aVOFBIZ-3924
p6577
aVOFBIZ-3923
p6578
aVOFBIZ-3922
p6579
aVOFBIZ-3921
p6580
aVOFBIZ-3920
p6581
aVOFBIZ-3919
p6582
aVOFBIZ-3918
p6583
aVOFBIZ-3917
p6584
aVOFBIZ-3916
p6585
aVOFBIZ-3915
p6586
aVOFBIZ-3914
p6587
aVOFBIZ-3913
p6588
aVOFBIZ-3912
p6589
aVOFBIZ-3911
p6590
aVOFBIZ-3910
p6591
aVOFBIZ-3909
p6592
aVOFBIZ-3908
p6593
aVOFBIZ-3907
p6594
aVOFBIZ-3906
p6595
aVOFBIZ-3905
p6596
aVOFBIZ-3904
p6597
aVOFBIZ-3903
p6598
aVOFBIZ-3902
p6599
aVOFBIZ-3901
p6600
aVOFBIZ-3900
p6601
aVOFBIZ-3899
p6602
aVOFBIZ-3898
p6603
aVOFBIZ-3897
p6604
aVOFBIZ-3896
p6605
aVOFBIZ-3895
p6606
aVOFBIZ-3894
p6607
aVOFBIZ-3893
p6608
aVOFBIZ-3892
p6609
aVOFBIZ-3891
p6610
aVOFBIZ-3890
p6611
aVOFBIZ-3889
p6612
aVOFBIZ-3888
p6613
aVOFBIZ-3887
p6614
aVOFBIZ-3886
p6615
aVOFBIZ-3885
p6616
aVOFBIZ-3884
p6617
aVOFBIZ-3883
p6618
aVOFBIZ-3882
p6619
aVOFBIZ-3881
p6620
aVOFBIZ-3880
p6621
aVOFBIZ-3879
p6622
aVOFBIZ-3878
p6623
aVOFBIZ-3877
p6624
aVOFBIZ-3876
p6625
aVOFBIZ-3875
p6626
aVOFBIZ-3874
p6627
aVOFBIZ-3873
p6628
aVOFBIZ-3872
p6629
aVOFBIZ-3871
p6630
aVOFBIZ-3870
p6631
aVOFBIZ-3869
p6632
aVOFBIZ-3868
p6633
aVOFBIZ-3867
p6634
aVOFBIZ-3866
p6635
aVOFBIZ-3865
p6636
aVOFBIZ-3864
p6637
aVOFBIZ-3863
p6638
aVOFBIZ-3862
p6639
aVOFBIZ-3861
p6640
aVOFBIZ-3860
p6641
aVOFBIZ-3859
p6642
aVOFBIZ-3858
p6643
aVOFBIZ-3857
p6644
aVOFBIZ-3856
p6645
aVOFBIZ-3855
p6646
aVOFBIZ-3854
p6647
aVOFBIZ-3853
p6648
aVOFBIZ-3852
p6649
aVOFBIZ-3851
p6650
aVOFBIZ-3850
p6651
aVOFBIZ-3849
p6652
aVOFBIZ-3848
p6653
aVOFBIZ-3847
p6654
aVOFBIZ-3846
p6655
aVOFBIZ-3845
p6656
aVOFBIZ-3844
p6657
aVOFBIZ-3843
p6658
aVOFBIZ-3842
p6659
aVOFBIZ-3841
p6660
aVOFBIZ-3840
p6661
aVOFBIZ-3839
p6662
aVOFBIZ-3838
p6663
aVOFBIZ-3837
p6664
aVOFBIZ-3836
p6665
aVOFBIZ-3835
p6666
aVOFBIZ-3834
p6667
aVOFBIZ-3833
p6668
aVOFBIZ-3832
p6669
aVOFBIZ-3831
p6670
aVOFBIZ-3830
p6671
aVOFBIZ-3829
p6672
aVOFBIZ-3828
p6673
aVOFBIZ-3827
p6674
aVOFBIZ-3826
p6675
aVOFBIZ-3825
p6676
aVOFBIZ-3824
p6677
aVOFBIZ-3823
p6678
aVOFBIZ-3822
p6679
aVOFBIZ-3821
p6680
aVOFBIZ-3820
p6681
aVOFBIZ-3819
p6682
aVOFBIZ-3818
p6683
aVOFBIZ-3817
p6684
aVOFBIZ-3816
p6685
aVOFBIZ-3815
p6686
aVOFBIZ-3814
p6687
aVOFBIZ-3813
p6688
aVOFBIZ-3812
p6689
aVOFBIZ-3811
p6690
aVOFBIZ-3810
p6691
aVOFBIZ-3809
p6692
aVOFBIZ-3808
p6693
aVOFBIZ-3807
p6694
aVOFBIZ-3806
p6695
aVOFBIZ-3805
p6696
aVOFBIZ-3804
p6697
aVOFBIZ-3803
p6698
aVOFBIZ-3802
p6699
aVOFBIZ-3801
p6700
aVOFBIZ-3800
p6701
aVOFBIZ-3799
p6702
aVOFBIZ-3798
p6703
aVOFBIZ-3797
p6704
aVOFBIZ-3796
p6705
aVOFBIZ-3795
p6706
aVOFBIZ-3794
p6707
aVOFBIZ-3793
p6708
aVOFBIZ-3792
p6709
aVOFBIZ-3791
p6710
aVOFBIZ-3790
p6711
aVOFBIZ-3789
p6712
aVOFBIZ-3788
p6713
aVOFBIZ-3787
p6714
aVOFBIZ-3786
p6715
aVOFBIZ-3785
p6716
aVOFBIZ-3784
p6717
aVOFBIZ-3783
p6718
aVOFBIZ-3782
p6719
aVOFBIZ-3781
p6720
aVOFBIZ-3780
p6721
aVOFBIZ-3779
p6722
aVOFBIZ-3778
p6723
aVOFBIZ-3777
p6724
aVOFBIZ-3776
p6725
aVOFBIZ-3775
p6726
aVOFBIZ-3774
p6727
aVOFBIZ-3773
p6728
aVOFBIZ-3772
p6729
aVOFBIZ-3771
p6730
aVOFBIZ-3770
p6731
aVOFBIZ-3769
p6732
aVOFBIZ-3768
p6733
aVOFBIZ-3767
p6734
aVOFBIZ-3766
p6735
aVOFBIZ-3765
p6736
aVOFBIZ-3764
p6737
aVOFBIZ-3763
p6738
aVOFBIZ-3762
p6739
aVOFBIZ-3761
p6740
aVOFBIZ-3760
p6741
aVOFBIZ-3759
p6742
aVOFBIZ-3758
p6743
aVOFBIZ-3757
p6744
aVOFBIZ-3756
p6745
aVOFBIZ-3755
p6746
aVOFBIZ-3754
p6747
aVOFBIZ-3753
p6748
aVOFBIZ-3752
p6749
aVOFBIZ-3751
p6750
aVOFBIZ-3750
p6751
aVOFBIZ-3749
p6752
aVOFBIZ-3748
p6753
aVOFBIZ-3747
p6754
aVOFBIZ-3746
p6755
aVOFBIZ-3745
p6756
aVOFBIZ-3744
p6757
aVOFBIZ-3743
p6758
aVOFBIZ-3742
p6759
aVOFBIZ-3741
p6760
aVOFBIZ-3740
p6761
aVOFBIZ-3739
p6762
aVOFBIZ-3738
p6763
aVOFBIZ-3737
p6764
aVOFBIZ-3736
p6765
aVOFBIZ-3735
p6766
aVOFBIZ-3734
p6767
aVOFBIZ-3733
p6768
aVOFBIZ-3732
p6769
aVOFBIZ-3731
p6770
aVOFBIZ-3730
p6771
aVOFBIZ-3729
p6772
aVOFBIZ-3728
p6773
aVOFBIZ-3727
p6774
aVOFBIZ-3726
p6775
aVOFBIZ-3725
p6776
aVOFBIZ-3724
p6777
aVOFBIZ-3723
p6778
aVOFBIZ-3722
p6779
aVOFBIZ-3721
p6780
aVOFBIZ-3720
p6781
aVOFBIZ-3719
p6782
aVOFBIZ-3718
p6783
aVOFBIZ-3717
p6784
aVOFBIZ-3716
p6785
aVOFBIZ-3715
p6786
aVOFBIZ-3714
p6787
aVOFBIZ-3713
p6788
aVOFBIZ-3712
p6789
aVOFBIZ-3711
p6790
aVOFBIZ-3710
p6791
aVOFBIZ-3709
p6792
aVOFBIZ-3708
p6793
aVOFBIZ-3707
p6794
aVOFBIZ-3706
p6795
aVOFBIZ-3705
p6796
aVOFBIZ-3704
p6797
aVOFBIZ-3703
p6798
aVOFBIZ-3702
p6799
aVOFBIZ-3701
p6800
aVOFBIZ-3700
p6801
aVOFBIZ-3699
p6802
aVOFBIZ-3698
p6803
aVOFBIZ-3697
p6804
aVOFBIZ-3696
p6805
aVOFBIZ-3695
p6806
aVOFBIZ-3694
p6807
aVOFBIZ-3693
p6808
aVOFBIZ-3692
p6809
aVOFBIZ-3691
p6810
aVOFBIZ-3690
p6811
aVOFBIZ-3689
p6812
aVOFBIZ-3688
p6813
aVOFBIZ-3687
p6814
aVOFBIZ-3686
p6815
aVOFBIZ-3685
p6816
aVOFBIZ-3684
p6817
aVOFBIZ-3683
p6818
aVOFBIZ-3682
p6819
aVOFBIZ-3681
p6820
aVOFBIZ-3680
p6821
aVOFBIZ-3679
p6822
aVOFBIZ-3678
p6823
aVOFBIZ-3677
p6824
aVOFBIZ-3676
p6825
aVOFBIZ-3675
p6826
aVOFBIZ-3674
p6827
aVOFBIZ-3673
p6828
aVOFBIZ-3672
p6829
aVOFBIZ-3671
p6830
aVOFBIZ-3670
p6831
aVOFBIZ-3669
p6832
aVOFBIZ-3668
p6833
aVOFBIZ-3667
p6834
aVOFBIZ-3666
p6835
aVOFBIZ-3665
p6836
aVOFBIZ-3664
p6837
aVOFBIZ-3663
p6838
aVOFBIZ-3662
p6839
aVOFBIZ-3661
p6840
aVOFBIZ-3660
p6841
aVOFBIZ-3659
p6842
aVOFBIZ-3658
p6843
aVOFBIZ-3657
p6844
aVOFBIZ-3656
p6845
aVOFBIZ-3655
p6846
aVOFBIZ-3654
p6847
aVOFBIZ-3653
p6848
aVOFBIZ-3652
p6849
aVOFBIZ-3651
p6850
aVOFBIZ-3650
p6851
aVOFBIZ-3649
p6852
aVOFBIZ-3648
p6853
aVOFBIZ-3647
p6854
aVOFBIZ-3646
p6855
aVOFBIZ-3645
p6856
aVOFBIZ-3644
p6857
aVOFBIZ-3643
p6858
aVOFBIZ-3642
p6859
aVOFBIZ-3641
p6860
aVOFBIZ-3640
p6861
aVOFBIZ-3639
p6862
aVOFBIZ-3638
p6863
aVOFBIZ-3637
p6864
aVOFBIZ-3636
p6865
aVOFBIZ-3635
p6866
aVOFBIZ-3634
p6867
aVOFBIZ-3633
p6868
aVOFBIZ-3632
p6869
aVOFBIZ-3631
p6870
aVOFBIZ-3630
p6871
aVOFBIZ-3629
p6872
aVOFBIZ-3628
p6873
aVOFBIZ-3627
p6874
aVOFBIZ-3626
p6875
aVOFBIZ-3625
p6876
aVOFBIZ-3624
p6877
aVOFBIZ-3623
p6878
aVOFBIZ-3622
p6879
aVOFBIZ-3621
p6880
aVOFBIZ-3620
p6881
aVOFBIZ-3619
p6882
aVOFBIZ-3618
p6883
aVOFBIZ-3617
p6884
aVOFBIZ-3616
p6885
aVOFBIZ-3615
p6886
aVOFBIZ-3614
p6887
aVOFBIZ-3613
p6888
aVOFBIZ-3612
p6889
aVOFBIZ-3611
p6890
aVOFBIZ-3610
p6891
aVOFBIZ-3609
p6892
aVOFBIZ-3608
p6893
aVOFBIZ-3607
p6894
aVOFBIZ-3606
p6895
aVOFBIZ-3605
p6896
aVOFBIZ-3604
p6897
aVOFBIZ-3603
p6898
aVOFBIZ-3602
p6899
aVOFBIZ-3601
p6900
aVOFBIZ-3600
p6901
aVOFBIZ-3599
p6902
aVOFBIZ-3598
p6903
aVOFBIZ-3597
p6904
aVOFBIZ-3596
p6905
aVOFBIZ-3595
p6906
aVOFBIZ-3594
p6907
aVOFBIZ-3593
p6908
aVOFBIZ-3592
p6909
aVOFBIZ-3591
p6910
aVOFBIZ-3590
p6911
aVOFBIZ-3589
p6912
aVOFBIZ-3588
p6913
aVOFBIZ-3587
p6914
aVOFBIZ-3586
p6915
aVOFBIZ-3585
p6916
aVOFBIZ-3584
p6917
aVOFBIZ-3583
p6918
aVOFBIZ-3582
p6919
aVOFBIZ-3581
p6920
aVOFBIZ-3580
p6921
aVOFBIZ-3579
p6922
aVOFBIZ-3578
p6923
aVOFBIZ-3577
p6924
aVOFBIZ-3576
p6925
aVOFBIZ-3575
p6926
aVOFBIZ-3574
p6927
aVOFBIZ-3573
p6928
aVOFBIZ-3572
p6929
aVOFBIZ-3571
p6930
aVOFBIZ-3570
p6931
aVOFBIZ-3569
p6932
aVOFBIZ-3568
p6933
aVOFBIZ-3567
p6934
aVOFBIZ-3566
p6935
aVOFBIZ-3565
p6936
aVOFBIZ-3564
p6937
aVOFBIZ-3563
p6938
aVOFBIZ-3562
p6939
aVOFBIZ-3561
p6940
aVOFBIZ-3560
p6941
aVOFBIZ-3559
p6942
aVOFBIZ-3558
p6943
aVOFBIZ-3557
p6944
aVOFBIZ-3556
p6945
aVOFBIZ-3555
p6946
aVOFBIZ-3554
p6947
aVOFBIZ-3553
p6948
aVOFBIZ-3552
p6949
aVOFBIZ-3551
p6950
aVOFBIZ-3550
p6951
aVOFBIZ-3549
p6952
aVOFBIZ-3548
p6953
aVOFBIZ-3547
p6954
aVOFBIZ-3546
p6955
aVOFBIZ-3545
p6956
aVOFBIZ-3544
p6957
aVOFBIZ-3543
p6958
aVOFBIZ-3542
p6959
aVOFBIZ-3541
p6960
aVOFBIZ-3540
p6961
aVOFBIZ-3539
p6962
aVOFBIZ-3538
p6963
aVOFBIZ-3537
p6964
aVOFBIZ-3536
p6965
aVOFBIZ-3535
p6966
aVOFBIZ-3534
p6967
aVOFBIZ-3533
p6968
aVOFBIZ-3532
p6969
aVOFBIZ-3531
p6970
aVOFBIZ-3530
p6971
aVOFBIZ-3529
p6972
aVOFBIZ-3528
p6973
aVOFBIZ-3527
p6974
aVOFBIZ-3526
p6975
aVOFBIZ-3525
p6976
aVOFBIZ-3524
p6977
aVOFBIZ-3523
p6978
aVOFBIZ-3522
p6979
aVOFBIZ-3521
p6980
aVOFBIZ-3520
p6981
aVOFBIZ-3519
p6982
aVOFBIZ-3518
p6983
aVOFBIZ-3517
p6984
aVOFBIZ-3516
p6985
aVOFBIZ-3515
p6986
aVOFBIZ-3514
p6987
aVOFBIZ-3513
p6988
aVOFBIZ-3512
p6989
aVOFBIZ-3511
p6990
aVOFBIZ-3510
p6991
aVOFBIZ-3509
p6992
aVOFBIZ-3508
p6993
aVOFBIZ-3507
p6994
aVOFBIZ-3506
p6995
aVOFBIZ-3505
p6996
aVOFBIZ-3504
p6997
aVOFBIZ-3503
p6998
aVOFBIZ-3502
p6999
aVOFBIZ-3501
p7000
aVOFBIZ-3500
p7001
aVOFBIZ-3499
p7002
aVOFBIZ-3498
p7003
aVOFBIZ-3497
p7004
aVOFBIZ-3496
p7005
aVOFBIZ-3495
p7006
aVOFBIZ-3494
p7007
aVOFBIZ-3493
p7008
aVOFBIZ-3492
p7009
aVOFBIZ-3491
p7010
aVOFBIZ-3490
p7011
aVOFBIZ-3489
p7012
aVOFBIZ-3488
p7013
aVOFBIZ-3487
p7014
aVOFBIZ-3486
p7015
aVOFBIZ-3485
p7016
aVOFBIZ-3484
p7017
aVOFBIZ-3483
p7018
aVOFBIZ-3482
p7019
aVOFBIZ-3481
p7020
aVOFBIZ-3480
p7021
aVOFBIZ-3479
p7022
aVOFBIZ-3478
p7023
aVOFBIZ-3477
p7024
aVOFBIZ-3476
p7025
aVOFBIZ-3475
p7026
aVOFBIZ-3474
p7027
aVOFBIZ-3473
p7028
aVOFBIZ-3472
p7029
aVOFBIZ-3471
p7030
aVOFBIZ-3470
p7031
aVOFBIZ-3469
p7032
aVOFBIZ-3468
p7033
aVOFBIZ-3467
p7034
aVOFBIZ-3466
p7035
aVOFBIZ-3465
p7036
aVOFBIZ-3464
p7037
aVOFBIZ-3463
p7038
aVOFBIZ-3462
p7039
aVOFBIZ-3461
p7040
aVOFBIZ-3460
p7041
aVOFBIZ-3459
p7042
aVOFBIZ-3458
p7043
aVOFBIZ-3457
p7044
aVOFBIZ-3456
p7045
aVOFBIZ-3455
p7046
aVOFBIZ-3454
p7047
aVOFBIZ-3453
p7048
aVOFBIZ-3452
p7049
aVOFBIZ-3451
p7050
aVOFBIZ-3450
p7051
aVOFBIZ-3449
p7052
aVOFBIZ-3448
p7053
aVOFBIZ-3447
p7054
aVOFBIZ-3446
p7055
aVOFBIZ-3445
p7056
aVOFBIZ-3444
p7057
aVOFBIZ-3443
p7058
aVOFBIZ-3442
p7059
aVOFBIZ-3441
p7060
aVOFBIZ-3440
p7061
aVOFBIZ-3439
p7062
aVOFBIZ-3438
p7063
aVOFBIZ-3437
p7064
aVOFBIZ-3436
p7065
aVOFBIZ-3435
p7066
aVOFBIZ-3434
p7067
aVOFBIZ-3433
p7068
aVOFBIZ-3432
p7069
aVOFBIZ-3431
p7070
aVOFBIZ-3430
p7071
aVOFBIZ-3429
p7072
aVOFBIZ-3428
p7073
aVOFBIZ-3427
p7074
aVOFBIZ-3426
p7075
aVOFBIZ-3425
p7076
aVOFBIZ-3424
p7077
aVOFBIZ-3423
p7078
aVOFBIZ-3422
p7079
aVOFBIZ-3421
p7080
aVOFBIZ-3420
p7081
aVOFBIZ-3419
p7082
aVOFBIZ-3418
p7083
aVOFBIZ-3417
p7084
aVOFBIZ-3416
p7085
aVOFBIZ-3415
p7086
aVOFBIZ-3414
p7087
aVOFBIZ-3413
p7088
aVOFBIZ-3412
p7089
aVOFBIZ-3411
p7090
aVOFBIZ-3410
p7091
aVOFBIZ-3409
p7092
aVOFBIZ-3408
p7093
aVOFBIZ-3407
p7094
aVOFBIZ-3406
p7095
aVOFBIZ-3405
p7096
aVOFBIZ-3404
p7097
aVOFBIZ-3403
p7098
aVOFBIZ-3402
p7099
aVOFBIZ-3401
p7100
aVOFBIZ-3400
p7101
aVOFBIZ-3399
p7102
aVOFBIZ-3398
p7103
aVOFBIZ-3397
p7104
aVOFBIZ-3396
p7105
aVOFBIZ-3395
p7106
aVOFBIZ-3394
p7107
aVOFBIZ-3393
p7108
aVOFBIZ-3392
p7109
aVOFBIZ-3391
p7110
aVOFBIZ-3390
p7111
aVOFBIZ-3389
p7112
aVOFBIZ-3388
p7113
aVOFBIZ-3387
p7114
aVOFBIZ-3386
p7115
aVOFBIZ-3385
p7116
aVOFBIZ-3384
p7117
aVOFBIZ-3383
p7118
aVOFBIZ-3382
p7119
aVOFBIZ-3381
p7120
aVOFBIZ-3380
p7121
aVOFBIZ-3379
p7122
aVOFBIZ-3378
p7123
aVOFBIZ-3377
p7124
aVOFBIZ-3376
p7125
aVOFBIZ-3375
p7126
aVOFBIZ-3374
p7127
aVOFBIZ-3373
p7128
aVOFBIZ-3372
p7129
aVOFBIZ-3371
p7130
aVOFBIZ-3370
p7131
aVOFBIZ-3369
p7132
aVOFBIZ-3368
p7133
aVOFBIZ-3367
p7134
aVOFBIZ-3366
p7135
aVOFBIZ-3365
p7136
aVOFBIZ-3364
p7137
aVOFBIZ-3363
p7138
aVOFBIZ-3362
p7139
aVOFBIZ-3361
p7140
aVOFBIZ-3360
p7141
aVOFBIZ-3359
p7142
aVOFBIZ-3358
p7143
aVOFBIZ-3357
p7144
aVOFBIZ-3356
p7145
aVOFBIZ-3355
p7146
aVOFBIZ-3354
p7147
aVOFBIZ-3353
p7148
aVOFBIZ-3352
p7149
aVOFBIZ-3351
p7150
aVOFBIZ-3350
p7151
aVOFBIZ-3349
p7152
aVOFBIZ-3348
p7153
aVOFBIZ-3347
p7154
aVOFBIZ-3346
p7155
aVOFBIZ-3345
p7156
aVOFBIZ-3344
p7157
aVOFBIZ-3343
p7158
aVOFBIZ-3342
p7159
aVOFBIZ-3341
p7160
aVOFBIZ-3340
p7161
aVOFBIZ-3339
p7162
aVOFBIZ-3338
p7163
aVOFBIZ-3337
p7164
aVOFBIZ-3336
p7165
aVOFBIZ-3335
p7166
aVOFBIZ-3334
p7167
aVOFBIZ-3333
p7168
aVOFBIZ-3332
p7169
aVOFBIZ-3331
p7170
aVOFBIZ-3330
p7171
aVOFBIZ-3329
p7172
aVOFBIZ-3328
p7173
aVOFBIZ-3327
p7174
aVOFBIZ-3326
p7175
aVOFBIZ-3325
p7176
aVOFBIZ-3324
p7177
aVOFBIZ-3323
p7178
aVOFBIZ-3322
p7179
aVOFBIZ-3321
p7180
aVOFBIZ-3320
p7181
aVOFBIZ-3319
p7182
aVOFBIZ-3318
p7183
aVOFBIZ-3317
p7184
aVOFBIZ-3316
p7185
aVOFBIZ-3315
p7186
aVOFBIZ-3314
p7187
aVOFBIZ-3313
p7188
aVOFBIZ-3312
p7189
aVOFBIZ-3311
p7190
aVOFBIZ-3310
p7191
aVOFBIZ-3309
p7192
aVOFBIZ-3308
p7193
aVOFBIZ-3307
p7194
aVOFBIZ-3306
p7195
aVOFBIZ-3305
p7196
aVOFBIZ-3304
p7197
aVOFBIZ-3303
p7198
aVOFBIZ-3302
p7199
aVOFBIZ-3301
p7200
aVOFBIZ-3300
p7201
aVOFBIZ-3299
p7202
aVOFBIZ-3298
p7203
aVOFBIZ-3297
p7204
aVOFBIZ-3296
p7205
aVOFBIZ-3295
p7206
aVOFBIZ-3294
p7207
aVOFBIZ-3293
p7208
aVOFBIZ-3292
p7209
aVOFBIZ-3291
p7210
aVOFBIZ-3290
p7211
aVOFBIZ-3289
p7212
aVOFBIZ-3288
p7213
aVOFBIZ-3287
p7214
aVOFBIZ-3286
p7215
aVOFBIZ-3285
p7216
aVOFBIZ-3284
p7217
aVOFBIZ-3283
p7218
aVOFBIZ-3282
p7219
aVOFBIZ-3281
p7220
aVOFBIZ-3280
p7221
aVOFBIZ-3279
p7222
aVOFBIZ-3278
p7223
aVOFBIZ-3277
p7224
aVOFBIZ-3276
p7225
aVOFBIZ-3275
p7226
aVOFBIZ-3274
p7227
aVOFBIZ-3273
p7228
aVOFBIZ-3272
p7229
aVOFBIZ-3271
p7230
aVOFBIZ-3270
p7231
aVOFBIZ-3269
p7232
aVOFBIZ-3268
p7233
aVOFBIZ-3267
p7234
aVOFBIZ-3266
p7235
aVOFBIZ-3265
p7236
aVOFBIZ-3264
p7237
aVOFBIZ-3263
p7238
aVOFBIZ-3262
p7239
aVOFBIZ-3261
p7240
aVOFBIZ-3260
p7241
aVOFBIZ-3259
p7242
aVOFBIZ-3258
p7243
aVOFBIZ-3257
p7244
aVOFBIZ-3256
p7245
aVOFBIZ-3255
p7246
aVOFBIZ-3254
p7247
aVOFBIZ-3253
p7248
aVOFBIZ-3252
p7249
aVOFBIZ-3251
p7250
aVOFBIZ-3250
p7251
aVOFBIZ-3249
p7252
aVOFBIZ-3248
p7253
aVOFBIZ-3247
p7254
aVOFBIZ-3246
p7255
aVOFBIZ-3245
p7256
aVOFBIZ-3244
p7257
aVOFBIZ-3243
p7258
aVOFBIZ-3242
p7259
aVOFBIZ-3241
p7260
aVOFBIZ-3240
p7261
aVOFBIZ-3239
p7262
aVOFBIZ-3238
p7263
aVOFBIZ-3237
p7264
aVOFBIZ-3236
p7265
aVOFBIZ-3235
p7266
aVOFBIZ-3234
p7267
aVOFBIZ-3233
p7268
aVOFBIZ-3232
p7269
aVOFBIZ-3231
p7270
aVOFBIZ-3230
p7271
aVOFBIZ-3229
p7272
aVOFBIZ-3228
p7273
aVOFBIZ-3227
p7274
aVOFBIZ-3226
p7275
aVOFBIZ-3225
p7276
aVOFBIZ-3224
p7277
aVOFBIZ-3223
p7278
aVOFBIZ-3222
p7279
aVOFBIZ-3221
p7280
aVOFBIZ-3220
p7281
aVOFBIZ-3219
p7282
aVOFBIZ-3218
p7283
aVOFBIZ-3217
p7284
aVOFBIZ-3216
p7285
aVOFBIZ-3215
p7286
aVOFBIZ-3214
p7287
aVOFBIZ-3213
p7288
aVOFBIZ-3212
p7289
aVOFBIZ-3211
p7290
aVOFBIZ-3210
p7291
aVOFBIZ-3209
p7292
aVOFBIZ-3208
p7293
aVOFBIZ-3207
p7294
aVOFBIZ-3206
p7295
aVOFBIZ-3205
p7296
aVOFBIZ-3204
p7297
aVOFBIZ-3203
p7298
aVOFBIZ-3202
p7299
aVOFBIZ-3201
p7300
aVOFBIZ-3200
p7301
aVOFBIZ-3199
p7302
aVOFBIZ-3198
p7303
aVOFBIZ-3197
p7304
aVOFBIZ-3196
p7305
aVOFBIZ-3195
p7306
aVOFBIZ-3194
p7307
aVOFBIZ-3193
p7308
aVOFBIZ-3192
p7309
aVOFBIZ-3191
p7310
aVOFBIZ-3190
p7311
aVOFBIZ-3189
p7312
aVOFBIZ-3188
p7313
aVOFBIZ-3187
p7314
aVOFBIZ-3186
p7315
aVOFBIZ-3185
p7316
aVOFBIZ-3184
p7317
aVOFBIZ-3183
p7318
aVOFBIZ-3182
p7319
aVOFBIZ-3181
p7320
aVOFBIZ-3180
p7321
aVOFBIZ-3179
p7322
aVOFBIZ-3178
p7323
aVOFBIZ-3177
p7324
aVOFBIZ-3176
p7325
aVOFBIZ-3175
p7326
aVOFBIZ-3174
p7327
aVOFBIZ-3173
p7328
aVOFBIZ-3172
p7329
aVOFBIZ-3171
p7330
aVOFBIZ-3170
p7331
aVOFBIZ-3169
p7332
aVOFBIZ-3168
p7333
aVOFBIZ-3167
p7334
aVOFBIZ-3166
p7335
aVOFBIZ-3165
p7336
aVOFBIZ-3164
p7337
aVOFBIZ-3163
p7338
aVOFBIZ-3162
p7339
aVOFBIZ-3161
p7340
aVOFBIZ-3160
p7341
aVOFBIZ-3159
p7342
aVOFBIZ-3158
p7343
aVOFBIZ-3157
p7344
aVOFBIZ-3156
p7345
aVOFBIZ-3155
p7346
aVOFBIZ-3154
p7347
aVOFBIZ-3153
p7348
aVOFBIZ-3152
p7349
aVOFBIZ-3151
p7350
aVOFBIZ-3150
p7351
aVOFBIZ-3149
p7352
aVOFBIZ-3148
p7353
aVOFBIZ-3147
p7354
aVOFBIZ-3146
p7355
aVOFBIZ-3145
p7356
aVOFBIZ-3144
p7357
aVOFBIZ-3143
p7358
aVOFBIZ-3142
p7359
aVOFBIZ-3141
p7360
aVOFBIZ-3140
p7361
aVOFBIZ-3139
p7362
aVOFBIZ-3138
p7363
aVOFBIZ-3137
p7364
aVOFBIZ-3136
p7365
aVOFBIZ-3135
p7366
aVOFBIZ-3134
p7367
aVOFBIZ-3133
p7368
aVOFBIZ-3132
p7369
aVOFBIZ-3131
p7370
aVOFBIZ-3130
p7371
aVOFBIZ-3129
p7372
aVOFBIZ-3128
p7373
aVOFBIZ-3127
p7374
aVOFBIZ-3126
p7375
aVOFBIZ-3125
p7376
aVOFBIZ-3124
p7377
aVOFBIZ-3123
p7378
aVOFBIZ-3122
p7379
aVOFBIZ-3121
p7380
aVOFBIZ-3120
p7381
aVOFBIZ-3119
p7382
aVOFBIZ-3118
p7383
aVOFBIZ-3117
p7384
aVOFBIZ-3116
p7385
aVOFBIZ-3115
p7386
aVOFBIZ-3114
p7387
aVOFBIZ-3113
p7388
aVOFBIZ-3112
p7389
aVOFBIZ-3111
p7390
aVOFBIZ-3110
p7391
aVOFBIZ-3109
p7392
aVOFBIZ-3108
p7393
aVOFBIZ-3107
p7394
aVOFBIZ-3106
p7395
aVOFBIZ-3105
p7396
aVOFBIZ-3104
p7397
aVOFBIZ-3103
p7398
aVOFBIZ-3102
p7399
aVOFBIZ-3101
p7400
aVOFBIZ-3100
p7401
aVOFBIZ-3099
p7402
aVOFBIZ-3098
p7403
aVOFBIZ-3097
p7404
aVOFBIZ-3096
p7405
aVOFBIZ-3095
p7406
aVOFBIZ-3094
p7407
aVOFBIZ-3092
p7408
aVOFBIZ-3091
p7409
aVOFBIZ-3090
p7410
aVOFBIZ-3089
p7411
aVOFBIZ-3088
p7412
aVOFBIZ-3087
p7413
aVOFBIZ-3086
p7414
aVOFBIZ-3085
p7415
aVOFBIZ-3084
p7416
aVOFBIZ-3083
p7417
aVOFBIZ-3082
p7418
aVOFBIZ-3081
p7419
aVOFBIZ-3080
p7420
aVOFBIZ-3079
p7421
aVOFBIZ-3078
p7422
aVOFBIZ-3077
p7423
aVOFBIZ-3076
p7424
aVOFBIZ-3075
p7425
aVOFBIZ-3074
p7426
aVOFBIZ-3073
p7427
aVOFBIZ-3072
p7428
aVOFBIZ-3071
p7429
aVOFBIZ-3070
p7430
aVOFBIZ-3069
p7431
aVOFBIZ-3068
p7432
aVOFBIZ-3067
p7433
aVOFBIZ-3066
p7434
aVOFBIZ-3065
p7435
aVOFBIZ-3064
p7436
aVOFBIZ-3063
p7437
aVOFBIZ-3062
p7438
aVOFBIZ-3061
p7439
aVOFBIZ-3060
p7440
aVOFBIZ-3059
p7441
aVOFBIZ-3058
p7442
aVOFBIZ-3057
p7443
aVOFBIZ-3056
p7444
aVOFBIZ-3055
p7445
aVOFBIZ-3054
p7446
aVOFBIZ-3053
p7447
aVOFBIZ-3052
p7448
aVOFBIZ-3051
p7449
aVOFBIZ-3050
p7450
aVOFBIZ-3049
p7451
aVOFBIZ-3048
p7452
aVOFBIZ-3047
p7453
aVOFBIZ-3046
p7454
aVOFBIZ-3045
p7455
aVOFBIZ-3044
p7456
aVOFBIZ-3043
p7457
aVOFBIZ-3042
p7458
aVOFBIZ-3041
p7459
aVOFBIZ-3040
p7460
aVOFBIZ-3039
p7461
aVOFBIZ-3038
p7462
aVOFBIZ-3037
p7463
aVOFBIZ-3036
p7464
aVOFBIZ-3035
p7465
aVOFBIZ-3034
p7466
aVOFBIZ-3033
p7467
aVOFBIZ-3032
p7468
aVOFBIZ-3031
p7469
aVOFBIZ-3030
p7470
aVOFBIZ-3029
p7471
aVOFBIZ-3028
p7472
aVOFBIZ-3027
p7473
aVOFBIZ-3026
p7474
aVOFBIZ-3025
p7475
aVOFBIZ-3024
p7476
aVOFBIZ-3023
p7477
aVOFBIZ-3022
p7478
aVOFBIZ-3021
p7479
aVOFBIZ-3020
p7480
aVOFBIZ-3019
p7481
aVOFBIZ-3018
p7482
aVOFBIZ-3017
p7483
aVOFBIZ-3016
p7484
aVOFBIZ-3015
p7485
aVOFBIZ-3014
p7486
aVOFBIZ-3013
p7487
aVOFBIZ-3012
p7488
aVOFBIZ-3011
p7489
aVOFBIZ-3010
p7490
aVOFBIZ-3009
p7491
aVOFBIZ-3008
p7492
aVOFBIZ-3007
p7493
aVOFBIZ-3006
p7494
aVOFBIZ-3005
p7495
aVOFBIZ-3004
p7496
aVOFBIZ-3003
p7497
aVOFBIZ-3002
p7498
aVOFBIZ-3001
p7499
aVOFBIZ-3000
p7500
aVOFBIZ-2999
p7501
aVOFBIZ-2998
p7502
aVOFBIZ-2997
p7503
aVOFBIZ-2996
p7504
aVOFBIZ-2995
p7505
aVOFBIZ-2994
p7506
aVOFBIZ-2993
p7507
aVOFBIZ-2992
p7508
aVOFBIZ-2991
p7509
aVOFBIZ-2990
p7510
aVOFBIZ-2989
p7511
aVOFBIZ-2988
p7512
aVOFBIZ-2987
p7513
aVOFBIZ-2986
p7514
aVOFBIZ-2985
p7515
aVOFBIZ-2984
p7516
aVOFBIZ-2983
p7517
aVOFBIZ-2982
p7518
aVOFBIZ-2981
p7519
aVOFBIZ-2980
p7520
aVOFBIZ-2979
p7521
aVOFBIZ-2978
p7522
aVOFBIZ-2977
p7523
aVOFBIZ-2976
p7524
aVOFBIZ-2975
p7525
aVOFBIZ-2974
p7526
aVOFBIZ-2973
p7527
aVOFBIZ-2972
p7528
aVOFBIZ-2971
p7529
aVOFBIZ-2970
p7530
aVOFBIZ-2969
p7531
aVOFBIZ-2968
p7532
aVOFBIZ-2967
p7533
aVOFBIZ-2966
p7534
aVOFBIZ-2965
p7535
aVOFBIZ-2964
p7536
aVOFBIZ-2963
p7537
aVOFBIZ-2962
p7538
aVOFBIZ-2961
p7539
aVOFBIZ-2960
p7540
aVOFBIZ-2959
p7541
aVOFBIZ-2958
p7542
aVOFBIZ-2957
p7543
aVOFBIZ-2956
p7544
aVOFBIZ-2955
p7545
aVOFBIZ-2954
p7546
aVOFBIZ-2953
p7547
aVOFBIZ-2952
p7548
aVOFBIZ-2951
p7549
aVOFBIZ-2950
p7550
aVOFBIZ-2949
p7551
aVOFBIZ-2948
p7552
aVOFBIZ-2947
p7553
aVOFBIZ-2946
p7554
aVOFBIZ-2945
p7555
aVOFBIZ-2944
p7556
aVOFBIZ-2943
p7557
aVOFBIZ-2942
p7558
aVOFBIZ-2941
p7559
aVOFBIZ-2940
p7560
aVOFBIZ-2939
p7561
aVOFBIZ-2938
p7562
aVOFBIZ-2937
p7563
aVOFBIZ-2936
p7564
aVOFBIZ-2935
p7565
aVOFBIZ-2934
p7566
aVOFBIZ-2933
p7567
aVOFBIZ-2932
p7568
aVOFBIZ-2931
p7569
aVOFBIZ-2930
p7570
aVOFBIZ-2929
p7571
aVOFBIZ-2928
p7572
aVOFBIZ-2927
p7573
aVOFBIZ-2926
p7574
aVOFBIZ-2925
p7575
aVOFBIZ-2924
p7576
aVOFBIZ-2923
p7577
aVOFBIZ-2922
p7578
aVOFBIZ-2921
p7579
aVOFBIZ-2920
p7580
aVOFBIZ-2919
p7581
aVOFBIZ-2918
p7582
aVOFBIZ-2917
p7583
aVOFBIZ-2916
p7584
aVOFBIZ-2915
p7585
aVOFBIZ-2914
p7586
aVOFBIZ-2913
p7587
aVOFBIZ-2912
p7588
aVOFBIZ-2911
p7589
aVOFBIZ-2910
p7590
aVOFBIZ-2909
p7591
aVOFBIZ-2908
p7592
aVOFBIZ-2907
p7593
aVOFBIZ-2906
p7594
aVOFBIZ-2905
p7595
aVOFBIZ-2904
p7596
aVOFBIZ-2903
p7597
aVOFBIZ-2902
p7598
aVOFBIZ-2901
p7599
aVOFBIZ-2900
p7600
aVOFBIZ-2899
p7601
aVOFBIZ-2898
p7602
aVOFBIZ-2897
p7603
aVOFBIZ-2896
p7604
aVOFBIZ-2895
p7605
aVOFBIZ-2894
p7606
aVOFBIZ-2893
p7607
aVOFBIZ-2892
p7608
aVOFBIZ-2891
p7609
aVOFBIZ-2890
p7610
aVOFBIZ-2889
p7611
aVOFBIZ-2888
p7612
aVOFBIZ-2887
p7613
aVOFBIZ-2886
p7614
aVOFBIZ-2885
p7615
aVOFBIZ-2884
p7616
aVOFBIZ-2883
p7617
aVOFBIZ-2882
p7618
aVOFBIZ-2881
p7619
aVOFBIZ-2880
p7620
aVOFBIZ-2879
p7621
aVOFBIZ-2878
p7622
aVOFBIZ-2877
p7623
aVOFBIZ-2876
p7624
aVOFBIZ-2875
p7625
aVOFBIZ-2874
p7626
aVOFBIZ-2873
p7627
aVOFBIZ-2872
p7628
aVOFBIZ-2871
p7629
aVOFBIZ-2870
p7630
aVOFBIZ-2869
p7631
aVOFBIZ-2868
p7632
aVOFBIZ-2867
p7633
aVOFBIZ-2866
p7634
aVOFBIZ-2865
p7635
aVOFBIZ-2864
p7636
aVOFBIZ-2863
p7637
aVOFBIZ-2862
p7638
aVOFBIZ-2861
p7639
aVOFBIZ-2860
p7640
aVOFBIZ-2859
p7641
aVOFBIZ-2858
p7642
aVOFBIZ-2857
p7643
aVOFBIZ-2856
p7644
aVOFBIZ-2855
p7645
aVOFBIZ-2854
p7646
aVOFBIZ-2853
p7647
aVOFBIZ-2852
p7648
aVOFBIZ-2851
p7649
aVOFBIZ-2850
p7650
aVOFBIZ-2849
p7651
aVOFBIZ-2848
p7652
aVOFBIZ-2847
p7653
aVOFBIZ-2846
p7654
aVOFBIZ-2845
p7655
aVOFBIZ-2844
p7656
aVOFBIZ-2843
p7657
aVOFBIZ-2842
p7658
aVOFBIZ-2841
p7659
aVOFBIZ-2840
p7660
aVOFBIZ-2839
p7661
aVOFBIZ-2838
p7662
aVOFBIZ-2837
p7663
aVOFBIZ-2836
p7664
aVOFBIZ-2835
p7665
aVOFBIZ-2834
p7666
aVOFBIZ-2833
p7667
aVOFBIZ-2832
p7668
aVOFBIZ-2831
p7669
aVOFBIZ-2830
p7670
aVOFBIZ-2829
p7671
aVOFBIZ-2828
p7672
aVOFBIZ-2827
p7673
aVOFBIZ-2826
p7674
aVOFBIZ-2825
p7675
aVOFBIZ-2824
p7676
aVOFBIZ-2823
p7677
aVOFBIZ-2822
p7678
aVOFBIZ-2821
p7679
aVOFBIZ-2820
p7680
aVOFBIZ-2819
p7681
aVOFBIZ-2818
p7682
aVOFBIZ-2817
p7683
aVOFBIZ-2816
p7684
aVOFBIZ-2815
p7685
aVOFBIZ-2814
p7686
aVOFBIZ-2813
p7687
aVOFBIZ-2812
p7688
aVOFBIZ-2811
p7689
aVOFBIZ-2810
p7690
aVOFBIZ-2809
p7691
aVOFBIZ-2808
p7692
aVOFBIZ-2807
p7693
aVOFBIZ-2806
p7694
aVOFBIZ-2805
p7695
aVOFBIZ-2804
p7696
aVOFBIZ-2803
p7697
aVOFBIZ-2802
p7698
aVOFBIZ-2801
p7699
aVOFBIZ-2800
p7700
aVOFBIZ-2799
p7701
aVOFBIZ-2798
p7702
aVOFBIZ-2797
p7703
aVOFBIZ-2796
p7704
aVOFBIZ-2795
p7705
aVOFBIZ-2794
p7706
aVOFBIZ-2793
p7707
aVOFBIZ-2792
p7708
aVOFBIZ-2791
p7709
aVOFBIZ-2790
p7710
aVOFBIZ-2789
p7711
aVOFBIZ-2788
p7712
aVOFBIZ-2787
p7713
aVOFBIZ-2786
p7714
aVOFBIZ-2785
p7715
aVOFBIZ-2784
p7716
aVOFBIZ-2783
p7717
aVOFBIZ-2782
p7718
aVOFBIZ-2781
p7719
aVOFBIZ-2780
p7720
aVOFBIZ-2779
p7721
aVOFBIZ-2778
p7722
aVOFBIZ-2777
p7723
aVOFBIZ-2776
p7724
aVOFBIZ-2775
p7725
aVOFBIZ-2774
p7726
aVOFBIZ-2773
p7727
aVOFBIZ-2772
p7728
aVOFBIZ-2771
p7729
aVOFBIZ-2770
p7730
aVOFBIZ-2769
p7731
aVOFBIZ-2768
p7732
aVOFBIZ-2767
p7733
aVOFBIZ-2766
p7734
aVOFBIZ-2765
p7735
aVOFBIZ-2764
p7736
aVOFBIZ-2763
p7737
aVOFBIZ-2762
p7738
aVOFBIZ-2761
p7739
aVOFBIZ-2760
p7740
aVOFBIZ-2759
p7741
aVOFBIZ-2758
p7742
aVOFBIZ-2757
p7743
aVOFBIZ-2756
p7744
aVOFBIZ-2755
p7745
aVOFBIZ-2754
p7746
aVOFBIZ-2753
p7747
aVOFBIZ-2752
p7748
aVOFBIZ-2751
p7749
aVOFBIZ-2750
p7750
aVOFBIZ-2749
p7751
aVOFBIZ-2748
p7752
aVOFBIZ-2747
p7753
aVOFBIZ-2746
p7754
aVOFBIZ-2745
p7755
aVOFBIZ-2744
p7756
aVOFBIZ-2743
p7757
aVOFBIZ-2742
p7758
aVOFBIZ-2741
p7759
aVOFBIZ-2740
p7760
aVOFBIZ-2739
p7761
aVOFBIZ-2738
p7762
aVOFBIZ-2737
p7763
aVOFBIZ-2736
p7764
aVOFBIZ-2735
p7765
aVOFBIZ-2734
p7766
aVOFBIZ-2733
p7767
aVOFBIZ-2732
p7768
aVOFBIZ-2731
p7769
aVOFBIZ-2730
p7770
aVOFBIZ-2729
p7771
aVOFBIZ-2728
p7772
aVOFBIZ-2727
p7773
aVOFBIZ-2726
p7774
aVOFBIZ-2725
p7775
aVOFBIZ-2724
p7776
aVOFBIZ-2723
p7777
aVOFBIZ-2722
p7778
aVOFBIZ-2721
p7779
aVOFBIZ-2720
p7780
aVOFBIZ-2719
p7781
aVOFBIZ-2718
p7782
aVOFBIZ-2717
p7783
aVOFBIZ-2716
p7784
aVOFBIZ-2715
p7785
aVOFBIZ-2714
p7786
aVOFBIZ-2713
p7787
aVOFBIZ-2712
p7788
aVOFBIZ-2711
p7789
aVOFBIZ-2710
p7790
aVOFBIZ-2709
p7791
aVOFBIZ-2708
p7792
aVOFBIZ-2707
p7793
aVOFBIZ-2706
p7794
aVOFBIZ-2705
p7795
aVOFBIZ-2704
p7796
aVOFBIZ-2703
p7797
aVOFBIZ-2702
p7798
aVOFBIZ-2701
p7799
aVOFBIZ-2700
p7800
aVOFBIZ-2699
p7801
aVOFBIZ-2698
p7802
aVOFBIZ-2697
p7803
aVOFBIZ-2696
p7804
aVOFBIZ-2695
p7805
aVOFBIZ-2694
p7806
aVOFBIZ-2693
p7807
aVOFBIZ-2692
p7808
aVOFBIZ-2691
p7809
aVOFBIZ-2690
p7810
aVOFBIZ-2689
p7811
aVOFBIZ-2688
p7812
aVOFBIZ-2687
p7813
aVOFBIZ-2686
p7814
aVOFBIZ-2685
p7815
aVOFBIZ-2684
p7816
aVOFBIZ-2683
p7817
aVOFBIZ-2682
p7818
aVOFBIZ-2681
p7819
aVOFBIZ-2680
p7820
aVOFBIZ-2679
p7821
aVOFBIZ-2678
p7822
aVOFBIZ-2677
p7823
aVOFBIZ-2676
p7824
aVOFBIZ-2675
p7825
aVOFBIZ-2674
p7826
aVOFBIZ-2673
p7827
aVOFBIZ-2672
p7828
aVOFBIZ-2671
p7829
aVOFBIZ-2670
p7830
aVOFBIZ-2669
p7831
aVOFBIZ-2668
p7832
aVOFBIZ-2667
p7833
aVOFBIZ-2666
p7834
aVOFBIZ-2665
p7835
aVOFBIZ-2664
p7836
aVOFBIZ-2663
p7837
aVOFBIZ-2662
p7838
aVOFBIZ-2661
p7839
aVOFBIZ-2660
p7840
aVOFBIZ-2659
p7841
aVOFBIZ-2658
p7842
aVOFBIZ-2657
p7843
aVOFBIZ-2656
p7844
aVOFBIZ-2655
p7845
aVOFBIZ-2654
p7846
aVOFBIZ-2653
p7847
aVOFBIZ-2652
p7848
aVOFBIZ-2651
p7849
aVOFBIZ-2650
p7850
aVOFBIZ-2649
p7851
aVOFBIZ-2648
p7852
aVOFBIZ-2647
p7853
aVOFBIZ-2646
p7854
aVOFBIZ-2645
p7855
aVOFBIZ-2644
p7856
aVOFBIZ-2643
p7857
aVOFBIZ-2642
p7858
aVOFBIZ-2641
p7859
aVOFBIZ-2640
p7860
aVOFBIZ-2639
p7861
aVOFBIZ-2638
p7862
aVOFBIZ-2637
p7863
aVOFBIZ-2636
p7864
aVOFBIZ-2635
p7865
aVOFBIZ-2634
p7866
aVOFBIZ-2633
p7867
aVOFBIZ-2632
p7868
aVOFBIZ-2631
p7869
aVOFBIZ-2630
p7870
aVOFBIZ-2629
p7871
aVOFBIZ-2628
p7872
aVOFBIZ-2627
p7873
aVOFBIZ-2626
p7874
aVOFBIZ-2625
p7875
aVOFBIZ-2624
p7876
aVOFBIZ-2623
p7877
aVOFBIZ-2622
p7878
aVOFBIZ-2621
p7879
aVOFBIZ-2620
p7880
aVOFBIZ-2619
p7881
aVOFBIZ-2618
p7882
aVOFBIZ-2617
p7883
aVOFBIZ-2616
p7884
aVOFBIZ-2615
p7885
aVOFBIZ-2614
p7886
aVOFBIZ-2613
p7887
aVOFBIZ-2612
p7888
aVOFBIZ-2611
p7889
aVOFBIZ-2610
p7890
aVOFBIZ-2609
p7891
aVOFBIZ-2608
p7892
aVOFBIZ-2607
p7893
aVOFBIZ-2606
p7894
aVOFBIZ-2605
p7895
aVOFBIZ-2604
p7896
aVOFBIZ-2603
p7897
aVOFBIZ-2602
p7898
aVOFBIZ-2601
p7899
aVOFBIZ-2600
p7900
aVOFBIZ-2599
p7901
aVOFBIZ-2598
p7902
aVOFBIZ-2597
p7903
aVOFBIZ-2596
p7904
aVOFBIZ-2595
p7905
aVOFBIZ-2594
p7906
aVOFBIZ-2593
p7907
aVOFBIZ-2592
p7908
aVOFBIZ-2591
p7909
aVOFBIZ-2590
p7910
aVOFBIZ-2589
p7911
aVOFBIZ-2588
p7912
aVOFBIZ-2587
p7913
aVOFBIZ-2586
p7914
aVOFBIZ-2585
p7915
aVOFBIZ-2584
p7916
aVOFBIZ-2583
p7917
aVOFBIZ-2582
p7918
aVOFBIZ-2581
p7919
aVOFBIZ-2580
p7920
aVOFBIZ-2579
p7921
aVOFBIZ-2578
p7922
aVOFBIZ-2577
p7923
aVOFBIZ-2576
p7924
aVOFBIZ-2575
p7925
aVOFBIZ-2574
p7926
aVOFBIZ-2573
p7927
aVOFBIZ-2572
p7928
aVOFBIZ-2571
p7929
aVOFBIZ-2570
p7930
aVOFBIZ-2569
p7931
aVOFBIZ-2568
p7932
aVOFBIZ-2567
p7933
aVOFBIZ-2566
p7934
aVOFBIZ-2565
p7935
aVOFBIZ-2564
p7936
aVOFBIZ-2563
p7937
aVOFBIZ-2562
p7938
aVOFBIZ-2561
p7939
aVOFBIZ-2560
p7940
aVOFBIZ-2559
p7941
aVOFBIZ-2558
p7942
aVOFBIZ-2557
p7943
aVOFBIZ-2556
p7944
aVOFBIZ-2555
p7945
aVOFBIZ-2554
p7946
aVOFBIZ-2553
p7947
aVOFBIZ-2552
p7948
aVOFBIZ-2551
p7949
aVOFBIZ-2550
p7950
aVOFBIZ-2549
p7951
aVOFBIZ-2548
p7952
aVOFBIZ-2547
p7953
aVOFBIZ-2546
p7954
aVOFBIZ-2545
p7955
aVOFBIZ-2544
p7956
aVOFBIZ-2543
p7957
aVOFBIZ-2542
p7958
aVOFBIZ-2541
p7959
aVOFBIZ-2540
p7960
aVOFBIZ-2539
p7961
aVOFBIZ-2538
p7962
aVOFBIZ-2537
p7963
aVOFBIZ-2536
p7964
aVOFBIZ-2535
p7965
aVOFBIZ-2534
p7966
aVOFBIZ-2533
p7967
aVOFBIZ-2532
p7968
aVOFBIZ-2531
p7969
aVOFBIZ-2530
p7970
aVOFBIZ-2529
p7971
aVOFBIZ-2528
p7972
aVOFBIZ-2527
p7973
aVOFBIZ-2526
p7974
aVOFBIZ-2525
p7975
aVOFBIZ-2524
p7976
aVOFBIZ-2523
p7977
aVOFBIZ-2522
p7978
aVOFBIZ-2521
p7979
aVOFBIZ-2520
p7980
aVOFBIZ-2519
p7981
aVOFBIZ-2518
p7982
aVOFBIZ-2517
p7983
aVOFBIZ-2516
p7984
aVOFBIZ-2515
p7985
aVOFBIZ-2514
p7986
aVOFBIZ-2513
p7987
aVOFBIZ-2512
p7988
aVOFBIZ-2511
p7989
aVOFBIZ-2510
p7990
aVOFBIZ-2509
p7991
aVOFBIZ-2508
p7992
aVOFBIZ-2507
p7993
aVOFBIZ-2506
p7994
aVOFBIZ-2505
p7995
aVOFBIZ-2504
p7996
aVOFBIZ-2503
p7997
aVOFBIZ-2502
p7998
aVOFBIZ-2501
p7999
aVOFBIZ-2500
p8000
aVOFBIZ-2499
p8001
aVOFBIZ-2498
p8002
aVOFBIZ-2497
p8003
aVOFBIZ-2496
p8004
aVOFBIZ-2495
p8005
aVOFBIZ-2494
p8006
aVOFBIZ-2493
p8007
aVOFBIZ-2492
p8008
aVOFBIZ-2491
p8009
aVOFBIZ-2490
p8010
aVOFBIZ-2489
p8011
aVOFBIZ-2488
p8012
aVOFBIZ-2487
p8013
aVOFBIZ-2486
p8014
aVOFBIZ-2485
p8015
aVOFBIZ-2484
p8016
aVOFBIZ-2483
p8017
aVOFBIZ-2482
p8018
aVOFBIZ-2481
p8019
aVOFBIZ-2480
p8020
aVOFBIZ-2479
p8021
aVOFBIZ-2478
p8022
aVOFBIZ-2477
p8023
aVOFBIZ-2476
p8024
aVOFBIZ-2475
p8025
aVOFBIZ-2474
p8026
aVOFBIZ-2473
p8027
aVOFBIZ-2472
p8028
aVOFBIZ-2471
p8029
aVOFBIZ-2470
p8030
aVOFBIZ-2469
p8031
aVOFBIZ-2468
p8032
aVOFBIZ-2467
p8033
aVOFBIZ-2466
p8034
aVOFBIZ-2465
p8035
aVOFBIZ-2464
p8036
aVOFBIZ-2463
p8037
aVOFBIZ-2462
p8038
aVOFBIZ-2461
p8039
aVOFBIZ-2460
p8040
aVOFBIZ-2459
p8041
aVOFBIZ-2458
p8042
aVOFBIZ-2457
p8043
aVOFBIZ-2456
p8044
aVOFBIZ-2455
p8045
aVOFBIZ-2454
p8046
aVOFBIZ-2453
p8047
aVOFBIZ-2452
p8048
aVOFBIZ-2451
p8049
aVOFBIZ-2450
p8050
aVOFBIZ-2449
p8051
aVOFBIZ-2448
p8052
aVOFBIZ-2447
p8053
aVOFBIZ-2446
p8054
aVOFBIZ-2445
p8055
aVOFBIZ-2444
p8056
aVOFBIZ-2443
p8057
aVOFBIZ-2442
p8058
aVOFBIZ-2440
p8059
aVOFBIZ-2439
p8060
aVOFBIZ-2438
p8061
aVOFBIZ-2437
p8062
aVOFBIZ-2436
p8063
aVOFBIZ-2435
p8064
aVOFBIZ-2434
p8065
aVOFBIZ-2433
p8066
aVOFBIZ-2432
p8067
aVOFBIZ-2431
p8068
aVOFBIZ-2430
p8069
aVOFBIZ-2429
p8070
aVOFBIZ-2428
p8071
aVOFBIZ-2427
p8072
aVOFBIZ-2426
p8073
aVOFBIZ-2425
p8074
aVOFBIZ-2424
p8075
aVOFBIZ-2423
p8076
aVOFBIZ-2422
p8077
aVOFBIZ-2421
p8078
aVOFBIZ-2420
p8079
aVOFBIZ-2419
p8080
aVOFBIZ-2418
p8081
aVOFBIZ-2417
p8082
aVOFBIZ-2416
p8083
aVOFBIZ-2415
p8084
aVOFBIZ-2414
p8085
aVOFBIZ-2413
p8086
aVOFBIZ-2412
p8087
aVOFBIZ-2411
p8088
aVOFBIZ-2410
p8089
aVOFBIZ-2409
p8090
aVOFBIZ-2408
p8091
aVOFBIZ-2407
p8092
aVOFBIZ-2406
p8093
aVOFBIZ-2405
p8094
aVOFBIZ-2404
p8095
aVOFBIZ-2403
p8096
aVOFBIZ-2402
p8097
aVOFBIZ-2401
p8098
aVOFBIZ-2400
p8099
aVOFBIZ-2399
p8100
aVOFBIZ-2398
p8101
aVOFBIZ-2397
p8102
aVOFBIZ-2396
p8103
aVOFBIZ-2395
p8104
aVOFBIZ-2394
p8105
aVOFBIZ-2393
p8106
aVOFBIZ-2392
p8107
aVOFBIZ-2391
p8108
aVOFBIZ-2390
p8109
aVOFBIZ-2389
p8110
aVOFBIZ-2388
p8111
aVOFBIZ-2387
p8112
aVOFBIZ-2386
p8113
aVOFBIZ-2385
p8114
aVOFBIZ-2384
p8115
aVOFBIZ-2383
p8116
aVOFBIZ-2382
p8117
aVOFBIZ-2381
p8118
aVOFBIZ-2380
p8119
aVOFBIZ-2379
p8120
aVOFBIZ-2378
p8121
aVOFBIZ-2377
p8122
aVOFBIZ-2376
p8123
aVOFBIZ-2375
p8124
aVOFBIZ-2374
p8125
aVOFBIZ-2373
p8126
aVOFBIZ-2372
p8127
aVOFBIZ-2371
p8128
aVOFBIZ-2370
p8129
aVOFBIZ-2369
p8130
aVOFBIZ-2368
p8131
aVOFBIZ-2367
p8132
aVOFBIZ-2366
p8133
aVOFBIZ-2365
p8134
aVOFBIZ-2364
p8135
aVOFBIZ-2363
p8136
aVOFBIZ-2362
p8137
aVOFBIZ-2361
p8138
aVOFBIZ-2360
p8139
aVOFBIZ-2359
p8140
aVOFBIZ-2358
p8141
aVOFBIZ-2357
p8142
aVOFBIZ-2356
p8143
aVOFBIZ-2355
p8144
aVOFBIZ-2354
p8145
aVOFBIZ-2353
p8146
aVOFBIZ-2352
p8147
aVOFBIZ-2351
p8148
aVOFBIZ-2350
p8149
aVOFBIZ-2349
p8150
aVOFBIZ-2348
p8151
aVOFBIZ-2347
p8152
aVOFBIZ-2346
p8153
aVOFBIZ-2345
p8154
aVOFBIZ-2344
p8155
aVOFBIZ-2343
p8156
aVOFBIZ-2342
p8157
aVOFBIZ-2341
p8158
aVOFBIZ-2340
p8159
aVOFBIZ-2339
p8160
aVOFBIZ-2338
p8161
aVOFBIZ-2337
p8162
aVOFBIZ-2336
p8163
aVOFBIZ-2335
p8164
aVOFBIZ-2334
p8165
aVOFBIZ-2333
p8166
aVOFBIZ-2332
p8167
aVOFBIZ-2331
p8168
aVOFBIZ-2330
p8169
aVOFBIZ-2329
p8170
aVOFBIZ-2328
p8171
aVOFBIZ-2327
p8172
aVOFBIZ-2326
p8173
aVOFBIZ-2325
p8174
aVOFBIZ-2324
p8175
aVOFBIZ-2323
p8176
aVOFBIZ-2322
p8177
aVOFBIZ-2321
p8178
aVOFBIZ-2320
p8179
aVOFBIZ-2319
p8180
aVOFBIZ-2318
p8181
aVOFBIZ-2317
p8182
aVOFBIZ-2316
p8183
aVOFBIZ-2315
p8184
aVOFBIZ-2314
p8185
aVOFBIZ-2313
p8186
aVOFBIZ-2312
p8187
aVOFBIZ-2311
p8188
aVOFBIZ-2310
p8189
aVOFBIZ-2309
p8190
aVOFBIZ-2308
p8191
aVOFBIZ-2307
p8192
aVOFBIZ-2306
p8193
aVOFBIZ-2305
p8194
aVOFBIZ-2304
p8195
aVOFBIZ-2303
p8196
aVOFBIZ-2302
p8197
aVOFBIZ-2301
p8198
aVOFBIZ-2300
p8199
aVOFBIZ-2299
p8200
aVOFBIZ-2298
p8201
aVOFBIZ-2297
p8202
aVOFBIZ-2296
p8203
aVOFBIZ-2295
p8204
aVOFBIZ-2294
p8205
aVOFBIZ-2293
p8206
aVOFBIZ-2292
p8207
aVOFBIZ-2291
p8208
aVOFBIZ-2290
p8209
aVOFBIZ-2289
p8210
aVOFBIZ-2288
p8211
aVOFBIZ-2287
p8212
aVOFBIZ-2286
p8213
aVOFBIZ-2285
p8214
aVOFBIZ-2284
p8215
aVOFBIZ-2283
p8216
aVOFBIZ-2282
p8217
aVOFBIZ-2281
p8218
aVOFBIZ-2280
p8219
aVOFBIZ-2279
p8220
aVOFBIZ-2278
p8221
aVOFBIZ-2277
p8222
aVOFBIZ-2276
p8223
aVOFBIZ-2275
p8224
aVOFBIZ-2274
p8225
aVOFBIZ-2273
p8226
aVOFBIZ-2272
p8227
aVOFBIZ-2271
p8228
aVOFBIZ-2270
p8229
aVOFBIZ-2269
p8230
aVOFBIZ-2268
p8231
aVOFBIZ-2267
p8232
aVOFBIZ-2266
p8233
aVOFBIZ-2265
p8234
aVOFBIZ-2264
p8235
aVOFBIZ-2263
p8236
aVOFBIZ-2262
p8237
aVOFBIZ-2261
p8238
aVOFBIZ-2260
p8239
aVOFBIZ-2259
p8240
aVOFBIZ-2258
p8241
aVOFBIZ-2257
p8242
aVOFBIZ-2256
p8243
aVOFBIZ-2255
p8244
aVOFBIZ-2254
p8245
aVOFBIZ-2253
p8246
aVOFBIZ-2252
p8247
aVOFBIZ-2251
p8248
aVOFBIZ-2250
p8249
aVOFBIZ-2249
p8250
aVOFBIZ-2248
p8251
aVOFBIZ-2247
p8252
aVOFBIZ-2246
p8253
aVOFBIZ-2245
p8254
aVOFBIZ-2244
p8255
aVOFBIZ-2243
p8256
aVOFBIZ-2242
p8257
aVOFBIZ-2241
p8258
aVOFBIZ-2240
p8259
aVOFBIZ-2239
p8260
aVOFBIZ-2238
p8261
aVOFBIZ-2237
p8262
aVOFBIZ-2236
p8263
aVOFBIZ-2235
p8264
aVOFBIZ-2234
p8265
aVOFBIZ-2233
p8266
aVOFBIZ-2232
p8267
aVOFBIZ-2231
p8268
aVOFBIZ-2230
p8269
aVOFBIZ-2229
p8270
aVOFBIZ-2228
p8271
aVOFBIZ-2227
p8272
aVOFBIZ-2226
p8273
aVOFBIZ-2225
p8274
aVOFBIZ-2224
p8275
aVOFBIZ-2223
p8276
aVOFBIZ-2222
p8277
aVOFBIZ-2221
p8278
aVOFBIZ-2220
p8279
aVOFBIZ-2219
p8280
aVOFBIZ-2218
p8281
aVOFBIZ-2217
p8282
aVOFBIZ-2216
p8283
aVOFBIZ-2215
p8284
aVOFBIZ-2214
p8285
aVOFBIZ-2213
p8286
aVOFBIZ-2212
p8287
aVOFBIZ-2211
p8288
aVOFBIZ-2210
p8289
aVOFBIZ-2209
p8290
aVOFBIZ-2208
p8291
aVOFBIZ-2207
p8292
aVOFBIZ-2206
p8293
aVOFBIZ-2205
p8294
aVOFBIZ-2204
p8295
aVOFBIZ-2203
p8296
aVOFBIZ-2202
p8297
aVOFBIZ-2201
p8298
aVOFBIZ-2200
p8299
aVOFBIZ-2199
p8300
aVOFBIZ-2198
p8301
aVOFBIZ-2197
p8302
aVOFBIZ-2196
p8303
aVOFBIZ-2195
p8304
aVOFBIZ-2194
p8305
aVOFBIZ-2193
p8306
aVOFBIZ-2192
p8307
aVOFBIZ-2191
p8308
aVOFBIZ-2190
p8309
aVOFBIZ-2189
p8310
aVOFBIZ-2188
p8311
aVOFBIZ-2187
p8312
aVOFBIZ-2186
p8313
aVOFBIZ-2185
p8314
aVOFBIZ-2184
p8315
aVOFBIZ-2183
p8316
aVOFBIZ-2182
p8317
aVOFBIZ-2181
p8318
aVOFBIZ-2180
p8319
aVOFBIZ-2179
p8320
aVOFBIZ-2178
p8321
aVOFBIZ-2177
p8322
aVOFBIZ-2176
p8323
aVOFBIZ-2175
p8324
aVOFBIZ-2174
p8325
aVOFBIZ-2173
p8326
aVOFBIZ-2172
p8327
aVOFBIZ-2171
p8328
aVOFBIZ-2170
p8329
aVOFBIZ-2169
p8330
aVOFBIZ-2168
p8331
aVOFBIZ-2167
p8332
aVOFBIZ-2166
p8333
aVOFBIZ-2165
p8334
aVOFBIZ-2164
p8335
aVOFBIZ-2163
p8336
aVOFBIZ-2162
p8337
aVOFBIZ-2161
p8338
aVOFBIZ-2160
p8339
aVOFBIZ-2159
p8340
aVOFBIZ-2158
p8341
aVOFBIZ-2157
p8342
aVOFBIZ-2156
p8343
aVOFBIZ-2155
p8344
aVOFBIZ-2154
p8345
aVOFBIZ-2153
p8346
aVOFBIZ-2152
p8347
aVOFBIZ-2151
p8348
aVOFBIZ-2150
p8349
aVOFBIZ-2149
p8350
aVOFBIZ-2148
p8351
aVOFBIZ-2147
p8352
aVOFBIZ-2146
p8353
aVOFBIZ-2145
p8354
aVOFBIZ-2144
p8355
aVOFBIZ-2143
p8356
aVOFBIZ-2142
p8357
aVOFBIZ-2141
p8358
aVOFBIZ-2140
p8359
aVOFBIZ-2139
p8360
aVOFBIZ-2138
p8361
aVOFBIZ-2137
p8362
aVOFBIZ-2136
p8363
aVOFBIZ-2135
p8364
aVOFBIZ-2134
p8365
aVOFBIZ-2133
p8366
aVOFBIZ-2132
p8367
aVOFBIZ-2131
p8368
aVOFBIZ-2130
p8369
aVOFBIZ-2129
p8370
aVOFBIZ-2128
p8371
aVOFBIZ-2127
p8372
aVOFBIZ-2126
p8373
aVOFBIZ-2125
p8374
aVOFBIZ-2124
p8375
aVOFBIZ-2123
p8376
aVOFBIZ-2122
p8377
aVOFBIZ-2121
p8378
aVOFBIZ-2120
p8379
aVOFBIZ-2119
p8380
aVOFBIZ-2118
p8381
aVOFBIZ-2117
p8382
aVOFBIZ-2116
p8383
aVOFBIZ-2115
p8384
aVOFBIZ-2114
p8385
aVOFBIZ-2113
p8386
aVOFBIZ-2112
p8387
aVOFBIZ-2111
p8388
aVOFBIZ-2110
p8389
aVOFBIZ-2109
p8390
aVOFBIZ-2108
p8391
aVOFBIZ-2107
p8392
aVOFBIZ-2106
p8393
aVOFBIZ-2105
p8394
aVOFBIZ-2104
p8395
aVOFBIZ-2103
p8396
aVOFBIZ-2102
p8397
aVOFBIZ-2101
p8398
aVOFBIZ-2100
p8399
aVOFBIZ-2099
p8400
aVOFBIZ-2098
p8401
aVOFBIZ-2097
p8402
aVOFBIZ-2096
p8403
aVOFBIZ-2095
p8404
aVOFBIZ-2094
p8405
aVOFBIZ-2093
p8406
aVOFBIZ-2092
p8407
aVOFBIZ-2091
p8408
aVOFBIZ-2090
p8409
aVOFBIZ-2089
p8410
aVOFBIZ-2088
p8411
aVOFBIZ-2087
p8412
aVOFBIZ-2086
p8413
aVOFBIZ-2085
p8414
aVOFBIZ-2084
p8415
aVOFBIZ-2083
p8416
aVOFBIZ-2082
p8417
aVOFBIZ-2081
p8418
aVOFBIZ-2080
p8419
aVOFBIZ-2079
p8420
aVOFBIZ-2078
p8421
aVOFBIZ-2077
p8422
aVOFBIZ-2076
p8423
aVOFBIZ-2075
p8424
aVOFBIZ-2074
p8425
aVOFBIZ-2073
p8426
aVOFBIZ-2072
p8427
aVOFBIZ-2071
p8428
aVOFBIZ-2070
p8429
aVOFBIZ-2069
p8430
aVOFBIZ-2068
p8431
aVOFBIZ-2067
p8432
aVOFBIZ-2066
p8433
aVOFBIZ-2065
p8434
aVOFBIZ-2064
p8435
aVOFBIZ-2063
p8436
aVOFBIZ-2062
p8437
aVOFBIZ-2061
p8438
aVOFBIZ-2060
p8439
aVOFBIZ-2059
p8440
aVOFBIZ-2058
p8441
aVOFBIZ-2057
p8442
aVOFBIZ-2056
p8443
aVOFBIZ-2055
p8444
aVOFBIZ-2054
p8445
aVOFBIZ-2053
p8446
aVOFBIZ-2052
p8447
aVOFBIZ-2051
p8448
aVOFBIZ-2050
p8449
aVOFBIZ-2049
p8450
aVOFBIZ-2048
p8451
aVOFBIZ-2047
p8452
aVOFBIZ-2046
p8453
aVOFBIZ-2045
p8454
aVOFBIZ-2044
p8455
aVOFBIZ-2043
p8456
aVOFBIZ-2042
p8457
aVOFBIZ-2041
p8458
aVOFBIZ-2040
p8459
aVOFBIZ-2039
p8460
aVOFBIZ-2038
p8461
aVOFBIZ-2037
p8462
aVOFBIZ-2036
p8463
aVOFBIZ-2035
p8464
aVOFBIZ-2034
p8465
aVOFBIZ-2033
p8466
aVOFBIZ-2032
p8467
aVOFBIZ-2031
p8468
aVOFBIZ-2030
p8469
aVOFBIZ-2029
p8470
aVOFBIZ-2028
p8471
aVOFBIZ-2027
p8472
aVOFBIZ-2026
p8473
aVOFBIZ-2025
p8474
aVOFBIZ-2024
p8475
aVOFBIZ-2023
p8476
aVOFBIZ-2022
p8477
aVOFBIZ-2021
p8478
aVOFBIZ-2020
p8479
aVOFBIZ-2019
p8480
aVOFBIZ-2018
p8481
aVOFBIZ-2017
p8482
aVOFBIZ-2016
p8483
aVOFBIZ-2015
p8484
aVOFBIZ-2014
p8485
aVOFBIZ-2013
p8486
aVOFBIZ-2012
p8487
aVOFBIZ-2011
p8488
aVOFBIZ-2010
p8489
aVOFBIZ-2009
p8490
aVOFBIZ-2008
p8491
aVOFBIZ-2007
p8492
aVOFBIZ-2006
p8493
aVOFBIZ-2005
p8494
aVOFBIZ-2004
p8495
aVOFBIZ-2003
p8496
aVOFBIZ-2002
p8497
aVOFBIZ-2001
p8498
aVOFBIZ-2000
p8499
aVOFBIZ-1999
p8500
aVOFBIZ-1998
p8501
aVOFBIZ-1997
p8502
aVOFBIZ-1996
p8503
aVOFBIZ-1995
p8504
aVOFBIZ-1994
p8505
aVOFBIZ-1993
p8506
aVOFBIZ-1992
p8507
aVOFBIZ-1991
p8508
aVOFBIZ-1990
p8509
aVOFBIZ-1989
p8510
aVOFBIZ-1988
p8511
aVOFBIZ-1987
p8512
aVOFBIZ-1986
p8513
aVOFBIZ-1985
p8514
aVOFBIZ-1984
p8515
aVOFBIZ-1983
p8516
aVOFBIZ-1982
p8517
aVOFBIZ-1981
p8518
aVOFBIZ-1980
p8519
aVOFBIZ-1979
p8520
aVOFBIZ-1978
p8521
aVOFBIZ-1977
p8522
aVOFBIZ-1976
p8523
aVOFBIZ-1975
p8524
aVOFBIZ-1974
p8525
aVOFBIZ-1973
p8526
aVOFBIZ-1972
p8527
aVOFBIZ-1971
p8528
aVOFBIZ-1970
p8529
aVOFBIZ-1969
p8530
aVOFBIZ-1968
p8531
aVOFBIZ-1967
p8532
aVOFBIZ-1966
p8533
aVOFBIZ-1965
p8534
aVOFBIZ-1964
p8535
aVOFBIZ-1963
p8536
aVOFBIZ-1962
p8537
aVOFBIZ-1961
p8538
aVOFBIZ-1960
p8539
aVOFBIZ-1959
p8540
aVOFBIZ-1958
p8541
aVOFBIZ-1957
p8542
aVOFBIZ-1956
p8543
aVOFBIZ-1955
p8544
aVOFBIZ-1954
p8545
aVOFBIZ-1953
p8546
aVOFBIZ-1952
p8547
aVOFBIZ-1951
p8548
aVOFBIZ-1950
p8549
aVOFBIZ-1949
p8550
aVOFBIZ-1948
p8551
aVOFBIZ-1947
p8552
aVOFBIZ-1946
p8553
aVOFBIZ-1945
p8554
aVOFBIZ-1944
p8555
aVOFBIZ-1943
p8556
aVOFBIZ-1942
p8557
aVOFBIZ-1941
p8558
aVOFBIZ-1940
p8559
aVOFBIZ-1939
p8560
aVOFBIZ-1938
p8561
aVOFBIZ-1937
p8562
aVOFBIZ-1936
p8563
aVOFBIZ-1935
p8564
aVOFBIZ-1934
p8565
aVOFBIZ-1933
p8566
aVOFBIZ-1932
p8567
aVOFBIZ-1931
p8568
aVOFBIZ-1930
p8569
aVOFBIZ-1929
p8570
aVOFBIZ-1928
p8571
aVOFBIZ-1927
p8572
aVOFBIZ-1926
p8573
aVOFBIZ-1925
p8574
aVOFBIZ-1924
p8575
aVOFBIZ-1923
p8576
aVOFBIZ-1922
p8577
aVOFBIZ-1921
p8578
aVOFBIZ-1920
p8579
aVOFBIZ-1919
p8580
aVOFBIZ-1918
p8581
aVOFBIZ-1917
p8582
aVOFBIZ-1916
p8583
aVOFBIZ-1915
p8584
aVOFBIZ-1914
p8585
aVOFBIZ-1913
p8586
aVOFBIZ-1912
p8587
aVOFBIZ-1911
p8588
aVOFBIZ-1910
p8589
aVOFBIZ-1909
p8590
aVOFBIZ-1908
p8591
aVOFBIZ-1907
p8592
aVOFBIZ-1906
p8593
aVOFBIZ-1905
p8594
aVOFBIZ-1904
p8595
aVOFBIZ-1903
p8596
aVOFBIZ-1902
p8597
aVOFBIZ-1901
p8598
aVOFBIZ-1900
p8599
aVOFBIZ-1899
p8600
aVOFBIZ-1898
p8601
aVOFBIZ-1897
p8602
aVOFBIZ-1896
p8603
aVOFBIZ-1895
p8604
aVOFBIZ-1894
p8605
aVOFBIZ-1893
p8606
aVOFBIZ-1892
p8607
aVOFBIZ-1891
p8608
aVOFBIZ-1890
p8609
aVOFBIZ-1889
p8610
aVOFBIZ-1888
p8611
aVOFBIZ-1887
p8612
aVOFBIZ-1886
p8613
aVOFBIZ-1885
p8614
aVOFBIZ-1884
p8615
aVOFBIZ-1883
p8616
aVOFBIZ-1882
p8617
aVOFBIZ-1881
p8618
aVOFBIZ-1880
p8619
aVOFBIZ-1879
p8620
aVOFBIZ-1878
p8621
aVOFBIZ-1877
p8622
aVOFBIZ-1876
p8623
aVOFBIZ-1875
p8624
aVOFBIZ-1874
p8625
aVOFBIZ-1873
p8626
aVOFBIZ-1872
p8627
aVOFBIZ-1871
p8628
aVOFBIZ-1870
p8629
aVOFBIZ-1869
p8630
aVOFBIZ-1868
p8631
aVOFBIZ-1867
p8632
aVOFBIZ-1866
p8633
aVOFBIZ-1865
p8634
aVOFBIZ-1864
p8635
aVOFBIZ-1863
p8636
aVOFBIZ-1862
p8637
aVOFBIZ-1861
p8638
aVOFBIZ-1860
p8639
aVOFBIZ-1859
p8640
aVOFBIZ-1858
p8641
aVOFBIZ-1857
p8642
aVOFBIZ-1856
p8643
aVOFBIZ-1855
p8644
aVOFBIZ-1854
p8645
aVOFBIZ-1853
p8646
aVOFBIZ-1852
p8647
aVOFBIZ-1851
p8648
aVOFBIZ-1850
p8649
aVOFBIZ-1849
p8650
aVOFBIZ-1848
p8651
aVOFBIZ-1847
p8652
aVOFBIZ-1846
p8653
aVOFBIZ-1845
p8654
aVOFBIZ-1844
p8655
aVOFBIZ-1843
p8656
aVOFBIZ-1842
p8657
aVOFBIZ-1841
p8658
aVOFBIZ-1840
p8659
aVOFBIZ-1839
p8660
aVOFBIZ-1838
p8661
aVOFBIZ-1837
p8662
aVOFBIZ-1836
p8663
aVOFBIZ-1835
p8664
aVOFBIZ-1834
p8665
aVOFBIZ-1833
p8666
aVOFBIZ-1832
p8667
aVOFBIZ-1831
p8668
aVOFBIZ-1830
p8669
aVOFBIZ-1829
p8670
aVOFBIZ-1828
p8671
aVOFBIZ-1827
p8672
aVOFBIZ-1826
p8673
aVOFBIZ-1825
p8674
aVOFBIZ-1824
p8675
aVOFBIZ-1823
p8676
aVOFBIZ-1822
p8677
aVOFBIZ-1821
p8678
aVOFBIZ-1820
p8679
aVOFBIZ-1819
p8680
aVOFBIZ-1818
p8681
aVOFBIZ-1817
p8682
aVOFBIZ-1816
p8683
aVOFBIZ-1815
p8684
aVOFBIZ-1814
p8685
aVOFBIZ-1813
p8686
aVOFBIZ-1812
p8687
aVOFBIZ-1811
p8688
aVOFBIZ-1810
p8689
aVOFBIZ-1809
p8690
aVOFBIZ-1808
p8691
aVOFBIZ-1807
p8692
aVOFBIZ-1806
p8693
aVOFBIZ-1805
p8694
aVOFBIZ-1804
p8695
aVOFBIZ-1803
p8696
aVOFBIZ-1802
p8697
aVOFBIZ-1801
p8698
aVOFBIZ-1800
p8699
aVOFBIZ-1799
p8700
aVOFBIZ-1798
p8701
aVOFBIZ-1797
p8702
aVOFBIZ-1796
p8703
aVOFBIZ-1795
p8704
aVOFBIZ-1794
p8705
aVOFBIZ-1793
p8706
aVOFBIZ-1792
p8707
aVOFBIZ-1791
p8708
aVOFBIZ-1790
p8709
aVOFBIZ-1789
p8710
aVOFBIZ-1788
p8711
aVOFBIZ-1787
p8712
aVOFBIZ-1786
p8713
aVOFBIZ-1785
p8714
aVOFBIZ-1784
p8715
aVOFBIZ-1783
p8716
aVOFBIZ-1782
p8717
aVOFBIZ-1781
p8718
aVOFBIZ-1780
p8719
aVOFBIZ-1779
p8720
aVOFBIZ-1778
p8721
aVOFBIZ-1777
p8722
aVOFBIZ-1776
p8723
aVOFBIZ-1775
p8724
aVOFBIZ-1774
p8725
aVOFBIZ-1773
p8726
aVOFBIZ-1772
p8727
aVOFBIZ-1771
p8728
aVOFBIZ-1770
p8729
aVOFBIZ-1769
p8730
aVOFBIZ-1768
p8731
aVOFBIZ-1767
p8732
aVOFBIZ-1766
p8733
aVOFBIZ-1765
p8734
aVOFBIZ-1764
p8735
aVOFBIZ-1763
p8736
aVOFBIZ-1762
p8737
aVOFBIZ-1761
p8738
aVOFBIZ-1760
p8739
aVOFBIZ-1759
p8740
aVOFBIZ-1758
p8741
aVOFBIZ-1757
p8742
aVOFBIZ-1756
p8743
aVOFBIZ-1755
p8744
aVOFBIZ-1754
p8745
aVOFBIZ-1753
p8746
aVOFBIZ-1752
p8747
aVOFBIZ-1751
p8748
aVOFBIZ-1750
p8749
aVOFBIZ-1749
p8750
aVOFBIZ-1748
p8751
aVOFBIZ-1747
p8752
aVOFBIZ-1746
p8753
aVOFBIZ-1745
p8754
aVOFBIZ-1744
p8755
aVOFBIZ-1743
p8756
aVOFBIZ-1742
p8757
aVOFBIZ-1741
p8758
aVOFBIZ-1740
p8759
aVOFBIZ-1739
p8760
aVOFBIZ-1738
p8761
aVOFBIZ-1737
p8762
aVOFBIZ-1736
p8763
aVOFBIZ-1735
p8764
aVOFBIZ-1734
p8765
aVOFBIZ-1733
p8766
aVOFBIZ-1732
p8767
aVOFBIZ-1731
p8768
aVOFBIZ-1730
p8769
aVOFBIZ-1729
p8770
aVOFBIZ-1728
p8771
aVOFBIZ-1727
p8772
aVOFBIZ-1726
p8773
aVOFBIZ-1725
p8774
aVOFBIZ-1724
p8775
aVOFBIZ-1723
p8776
aVOFBIZ-1722
p8777
aVOFBIZ-1721
p8778
aVOFBIZ-1720
p8779
aVOFBIZ-1719
p8780
aVOFBIZ-1718
p8781
aVOFBIZ-1717
p8782
aVOFBIZ-1716
p8783
aVOFBIZ-1715
p8784
aVOFBIZ-1714
p8785
aVOFBIZ-1713
p8786
aVOFBIZ-1712
p8787
aVOFBIZ-1711
p8788
aVOFBIZ-1710
p8789
aVOFBIZ-1709
p8790
aVOFBIZ-1708
p8791
aVOFBIZ-1707
p8792
aVOFBIZ-1706
p8793
aVOFBIZ-1705
p8794
aVOFBIZ-1704
p8795
aVOFBIZ-1703
p8796
aVOFBIZ-1702
p8797
aVOFBIZ-1701
p8798
aVOFBIZ-1700
p8799
aVOFBIZ-1699
p8800
aVOFBIZ-1698
p8801
aVOFBIZ-1697
p8802
aVOFBIZ-1696
p8803
aVOFBIZ-1695
p8804
aVOFBIZ-1694
p8805
aVOFBIZ-1693
p8806
aVOFBIZ-1692
p8807
aVOFBIZ-1691
p8808
aVOFBIZ-1690
p8809
aVOFBIZ-1689
p8810
aVOFBIZ-1688
p8811
aVOFBIZ-1687
p8812
aVOFBIZ-1686
p8813
aVOFBIZ-1685
p8814
aVOFBIZ-1684
p8815
aVOFBIZ-1683
p8816
aVOFBIZ-1682
p8817
aVOFBIZ-1681
p8818
aVOFBIZ-1680
p8819
aVOFBIZ-1679
p8820
aVOFBIZ-1678
p8821
aVOFBIZ-1677
p8822
aVOFBIZ-1676
p8823
aVOFBIZ-1675
p8824
aVOFBIZ-1674
p8825
aVOFBIZ-1673
p8826
aVOFBIZ-1672
p8827
aVOFBIZ-1671
p8828
aVOFBIZ-1670
p8829
aVOFBIZ-1669
p8830
aVOFBIZ-1668
p8831
aVOFBIZ-1667
p8832
aVOFBIZ-1666
p8833
aVOFBIZ-1665
p8834
aVOFBIZ-1664
p8835
aVOFBIZ-1663
p8836
aVOFBIZ-1662
p8837
aVOFBIZ-1661
p8838
aVOFBIZ-1659
p8839
aVOFBIZ-1658
p8840
aVOFBIZ-1657
p8841
aVOFBIZ-1656
p8842
aVOFBIZ-1655
p8843
aVOFBIZ-1654
p8844
aVOFBIZ-1653
p8845
aVOFBIZ-1652
p8846
aVOFBIZ-1651
p8847
aVOFBIZ-1650
p8848
aVOFBIZ-1649
p8849
aVOFBIZ-1648
p8850
aVOFBIZ-1647
p8851
aVOFBIZ-1646
p8852
aVOFBIZ-1645
p8853
aVOFBIZ-1644
p8854
aVOFBIZ-1643
p8855
aVOFBIZ-1642
p8856
aVOFBIZ-1641
p8857
aVOFBIZ-1640
p8858
aVOFBIZ-1639
p8859
aVOFBIZ-1638
p8860
aVOFBIZ-1637
p8861
aVOFBIZ-1636
p8862
aVOFBIZ-1635
p8863
aVOFBIZ-1634
p8864
aVOFBIZ-1633
p8865
aVOFBIZ-1632
p8866
aVOFBIZ-1631
p8867
aVOFBIZ-1630
p8868
aVOFBIZ-1629
p8869
aVOFBIZ-1628
p8870
aVOFBIZ-1627
p8871
aVOFBIZ-1626
p8872
aVOFBIZ-1625
p8873
aVOFBIZ-1624
p8874
aVOFBIZ-1623
p8875
aVOFBIZ-1622
p8876
aVOFBIZ-1621
p8877
aVOFBIZ-1620
p8878
aVOFBIZ-1619
p8879
aVOFBIZ-1618
p8880
aVOFBIZ-1617
p8881
aVOFBIZ-1616
p8882
aVOFBIZ-1615
p8883
aVOFBIZ-1614
p8884
aVOFBIZ-1613
p8885
aVOFBIZ-1612
p8886
aVOFBIZ-1611
p8887
aVOFBIZ-1610
p8888
aVOFBIZ-1609
p8889
aVOFBIZ-1608
p8890
aVOFBIZ-1607
p8891
aVOFBIZ-1606
p8892
aVOFBIZ-1605
p8893
aVOFBIZ-1604
p8894
aVOFBIZ-1603
p8895
aVOFBIZ-1602
p8896
aVOFBIZ-1601
p8897
aVOFBIZ-1600
p8898
aVOFBIZ-1599
p8899
aVOFBIZ-1598
p8900
aVOFBIZ-1597
p8901
aVOFBIZ-1596
p8902
aVOFBIZ-1595
p8903
aVOFBIZ-1594
p8904
aVOFBIZ-1593
p8905
aVOFBIZ-1592
p8906
aVOFBIZ-1591
p8907
aVOFBIZ-1590
p8908
aVOFBIZ-1589
p8909
aVOFBIZ-1588
p8910
aVOFBIZ-1587
p8911
aVOFBIZ-1586
p8912
aVOFBIZ-1585
p8913
aVOFBIZ-1584
p8914
aVOFBIZ-1583
p8915
aVOFBIZ-1582
p8916
aVOFBIZ-1581
p8917
aVOFBIZ-1580
p8918
aVOFBIZ-1579
p8919
aVOFBIZ-1578
p8920
aVOFBIZ-1577
p8921
aVOFBIZ-1576
p8922
aVOFBIZ-1575
p8923
aVOFBIZ-1574
p8924
aVOFBIZ-1573
p8925
aVOFBIZ-1572
p8926
aVOFBIZ-1571
p8927
aVOFBIZ-1570
p8928
aVOFBIZ-1569
p8929
aVOFBIZ-1568
p8930
aVOFBIZ-1567
p8931
aVOFBIZ-1566
p8932
aVOFBIZ-1565
p8933
aVOFBIZ-1564
p8934
aVOFBIZ-1563
p8935
aVOFBIZ-1562
p8936
aVOFBIZ-1561
p8937
aVOFBIZ-1560
p8938
aVOFBIZ-1559
p8939
aVOFBIZ-1558
p8940
aVOFBIZ-1557
p8941
aVOFBIZ-1556
p8942
aVOFBIZ-1555
p8943
aVOFBIZ-1554
p8944
aVOFBIZ-1553
p8945
aVOFBIZ-1552
p8946
aVOFBIZ-1551
p8947
aVOFBIZ-1550
p8948
aVOFBIZ-1549
p8949
aVOFBIZ-1548
p8950
aVOFBIZ-1547
p8951
aVOFBIZ-1546
p8952
aVOFBIZ-1545
p8953
aVOFBIZ-1544
p8954
aVOFBIZ-1543
p8955
aVOFBIZ-1542
p8956
aVOFBIZ-1541
p8957
aVOFBIZ-1540
p8958
aVOFBIZ-1539
p8959
aVOFBIZ-1538
p8960
aVOFBIZ-1537
p8961
aVOFBIZ-1536
p8962
aVOFBIZ-1535
p8963
aVOFBIZ-1534
p8964
aVOFBIZ-1533
p8965
aVOFBIZ-1532
p8966
aVOFBIZ-1531
p8967
aVOFBIZ-1530
p8968
aVOFBIZ-1529
p8969
aVOFBIZ-1528
p8970
aVOFBIZ-1527
p8971
aVOFBIZ-1526
p8972
aVOFBIZ-1525
p8973
aVOFBIZ-1524
p8974
aVOFBIZ-1523
p8975
aVOFBIZ-1522
p8976
aVOFBIZ-1521
p8977
aVOFBIZ-1520
p8978
aVOFBIZ-1519
p8979
aVOFBIZ-1518
p8980
aVOFBIZ-1517
p8981
aVOFBIZ-1516
p8982
aVOFBIZ-1515
p8983
aVOFBIZ-1514
p8984
aVOFBIZ-1513
p8985
aVOFBIZ-1512
p8986
aVOFBIZ-1511
p8987
aVOFBIZ-1510
p8988
aVOFBIZ-1509
p8989
aVOFBIZ-1508
p8990
aVOFBIZ-1507
p8991
aVOFBIZ-1506
p8992
aVOFBIZ-1505
p8993
aVOFBIZ-1504
p8994
aVOFBIZ-1503
p8995
aVOFBIZ-1502
p8996
aVOFBIZ-1501
p8997
aVOFBIZ-1500
p8998
aVOFBIZ-1499
p8999
aVOFBIZ-1498
p9000
aVOFBIZ-1497
p9001
aVOFBIZ-1496
p9002
aVOFBIZ-1495
p9003
aVOFBIZ-1494
p9004
aVOFBIZ-1493
p9005
aVOFBIZ-1492
p9006
aVOFBIZ-1491
p9007
aVOFBIZ-1490
p9008
aVOFBIZ-1489
p9009
aVOFBIZ-1488
p9010
aVOFBIZ-1487
p9011
aVOFBIZ-1486
p9012
aVOFBIZ-1485
p9013
aVOFBIZ-1484
p9014
aVOFBIZ-1483
p9015
aVOFBIZ-1482
p9016
aVOFBIZ-1481
p9017
aVOFBIZ-1480
p9018
aVOFBIZ-1479
p9019
aVOFBIZ-1478
p9020
aVOFBIZ-1477
p9021
aVOFBIZ-1476
p9022
aVOFBIZ-1475
p9023
aVOFBIZ-1474
p9024
aVOFBIZ-1473
p9025
aVOFBIZ-1472
p9026
aVOFBIZ-1471
p9027
aVOFBIZ-1470
p9028
aVOFBIZ-1469
p9029
aVOFBIZ-1468
p9030
aVOFBIZ-1467
p9031
aVOFBIZ-1466
p9032
aVOFBIZ-1465
p9033
aVOFBIZ-1464
p9034
aVOFBIZ-1463
p9035
aVOFBIZ-1462
p9036
aVOFBIZ-1461
p9037
aVOFBIZ-1460
p9038
aVOFBIZ-1459
p9039
aVOFBIZ-1458
p9040
aVOFBIZ-1457
p9041
aVOFBIZ-1456
p9042
aVOFBIZ-1455
p9043
aVOFBIZ-1454
p9044
aVOFBIZ-1453
p9045
aVOFBIZ-1452
p9046
aVOFBIZ-1451
p9047
aVOFBIZ-1450
p9048
aVOFBIZ-1449
p9049
aVOFBIZ-1448
p9050
aVOFBIZ-1447
p9051
aVOFBIZ-1446
p9052
aVOFBIZ-1445
p9053
aVOFBIZ-1444
p9054
aVOFBIZ-1443
p9055
aVOFBIZ-1442
p9056
aVOFBIZ-1441
p9057
aVOFBIZ-1440
p9058
aVOFBIZ-1439
p9059
aVOFBIZ-1438
p9060
aVOFBIZ-1437
p9061
aVOFBIZ-1436
p9062
aVOFBIZ-1435
p9063
aVOFBIZ-1434
p9064
aVOFBIZ-1433
p9065
aVOFBIZ-1432
p9066
aVOFBIZ-1431
p9067
aVOFBIZ-1430
p9068
aVOFBIZ-1429
p9069
aVOFBIZ-1428
p9070
aVOFBIZ-1427
p9071
aVOFBIZ-1426
p9072
aVOFBIZ-1425
p9073
aVOFBIZ-1424
p9074
aVOFBIZ-1423
p9075
aVOFBIZ-1422
p9076
aVOFBIZ-1421
p9077
aVOFBIZ-1420
p9078
aVOFBIZ-1419
p9079
aVOFBIZ-1418
p9080
aVOFBIZ-1417
p9081
aVOFBIZ-1416
p9082
aVOFBIZ-1415
p9083
aVOFBIZ-1414
p9084
aVOFBIZ-1413
p9085
aVOFBIZ-1412
p9086
aVOFBIZ-1411
p9087
aVOFBIZ-1410
p9088
aVOFBIZ-1409
p9089
aVOFBIZ-1408
p9090
aVOFBIZ-1407
p9091
aVOFBIZ-1406
p9092
aVOFBIZ-1405
p9093
aVOFBIZ-1404
p9094
aVOFBIZ-1403
p9095
aVOFBIZ-1402
p9096
aVOFBIZ-1401
p9097
aVOFBIZ-1400
p9098
aVOFBIZ-1399
p9099
aVOFBIZ-1398
p9100
aVOFBIZ-1397
p9101
aVOFBIZ-1396
p9102
aVOFBIZ-1395
p9103
aVOFBIZ-1394
p9104
aVOFBIZ-1393
p9105
aVOFBIZ-1392
p9106
aVOFBIZ-1391
p9107
aVOFBIZ-1390
p9108
aVOFBIZ-1389
p9109
aVOFBIZ-1388
p9110
aVOFBIZ-1387
p9111
aVOFBIZ-1386
p9112
aVOFBIZ-1385
p9113
aVOFBIZ-1384
p9114
aVOFBIZ-1383
p9115
aVOFBIZ-1382
p9116
aVOFBIZ-1381
p9117
aVOFBIZ-1380
p9118
aVOFBIZ-1379
p9119
aVOFBIZ-1378
p9120
aVOFBIZ-1377
p9121
aVOFBIZ-1376
p9122
aVOFBIZ-1375
p9123
aVOFBIZ-1374
p9124
aVOFBIZ-1373
p9125
aVOFBIZ-1372
p9126
aVOFBIZ-1371
p9127
aVOFBIZ-1370
p9128
aVOFBIZ-1369
p9129
aVOFBIZ-1368
p9130
aVOFBIZ-1367
p9131
aVOFBIZ-1366
p9132
aVOFBIZ-1365
p9133
aVOFBIZ-1364
p9134
aVOFBIZ-1363
p9135
aVOFBIZ-1362
p9136
aVOFBIZ-1361
p9137
aVOFBIZ-1360
p9138
aVOFBIZ-1359
p9139
aVOFBIZ-1358
p9140
aVOFBIZ-1357
p9141
aVOFBIZ-1356
p9142
aVOFBIZ-1355
p9143
aVOFBIZ-1354
p9144
aVOFBIZ-1353
p9145
aVOFBIZ-1352
p9146
aVOFBIZ-1351
p9147
aVOFBIZ-1350
p9148
aVOFBIZ-1349
p9149
aVOFBIZ-1348
p9150
aVOFBIZ-1347
p9151
aVOFBIZ-1346
p9152
aVOFBIZ-1345
p9153
aVOFBIZ-1344
p9154
aVOFBIZ-1343
p9155
aVOFBIZ-1342
p9156
aVOFBIZ-1341
p9157
aVOFBIZ-1340
p9158
aVOFBIZ-1339
p9159
aVOFBIZ-1338
p9160
aVOFBIZ-1337
p9161
aVOFBIZ-1336
p9162
aVOFBIZ-1335
p9163
aVOFBIZ-1334
p9164
aVOFBIZ-1333
p9165
aVOFBIZ-1332
p9166
aVOFBIZ-1331
p9167
aVOFBIZ-1330
p9168
aVOFBIZ-1329
p9169
aVOFBIZ-1328
p9170
aVOFBIZ-1327
p9171
aVOFBIZ-1326
p9172
aVOFBIZ-1325
p9173
aVOFBIZ-1324
p9174
aVOFBIZ-1323
p9175
aVOFBIZ-1322
p9176
aVOFBIZ-1321
p9177
aVOFBIZ-1320
p9178
aVOFBIZ-1319
p9179
aVOFBIZ-1318
p9180
aVOFBIZ-1317
p9181
aVOFBIZ-1316
p9182
aVOFBIZ-1315
p9183
aVOFBIZ-1314
p9184
aVOFBIZ-1313
p9185
aVOFBIZ-1312
p9186
aVOFBIZ-1311
p9187
aVOFBIZ-1310
p9188
aVOFBIZ-1309
p9189
aVOFBIZ-1308
p9190
aVOFBIZ-1307
p9191
aVOFBIZ-1306
p9192
aVOFBIZ-1305
p9193
aVOFBIZ-1304
p9194
aVOFBIZ-1303
p9195
aVOFBIZ-1302
p9196
aVOFBIZ-1301
p9197
aVOFBIZ-1300
p9198
aVOFBIZ-1299
p9199
aVOFBIZ-1298
p9200
aVOFBIZ-1297
p9201
aVOFBIZ-1296
p9202
aVOFBIZ-1295
p9203
aVOFBIZ-1294
p9204
aVOFBIZ-1293
p9205
aVOFBIZ-1292
p9206
aVOFBIZ-1291
p9207
aVOFBIZ-1290
p9208
aVOFBIZ-1289
p9209
aVOFBIZ-1288
p9210
aVOFBIZ-1287
p9211
aVOFBIZ-1286
p9212
aVOFBIZ-1285
p9213
aVOFBIZ-1284
p9214
aVOFBIZ-1283
p9215
aVOFBIZ-1282
p9216
aVOFBIZ-1281
p9217
aVOFBIZ-1280
p9218
aVOFBIZ-1279
p9219
aVOFBIZ-1278
p9220
aVOFBIZ-1277
p9221
aVOFBIZ-1276
p9222
aVOFBIZ-1275
p9223
aVOFBIZ-1274
p9224
aVOFBIZ-1273
p9225
aVOFBIZ-1272
p9226
aVOFBIZ-1271
p9227
aVOFBIZ-1270
p9228
aVOFBIZ-1269
p9229
aVOFBIZ-1268
p9230
aVOFBIZ-1267
p9231
aVOFBIZ-1266
p9232
aVOFBIZ-1265
p9233
aVOFBIZ-1264
p9234
aVOFBIZ-1263
p9235
aVOFBIZ-1262
p9236
aVOFBIZ-1261
p9237
aVOFBIZ-1260
p9238
aVOFBIZ-1259
p9239
aVOFBIZ-1258
p9240
aVOFBIZ-1257
p9241
aVOFBIZ-1256
p9242
aVOFBIZ-1255
p9243
aVOFBIZ-1254
p9244
aVOFBIZ-1253
p9245
aVOFBIZ-1252
p9246
aVOFBIZ-1251
p9247
aVOFBIZ-1250
p9248
aVOFBIZ-1249
p9249
aVOFBIZ-1248
p9250
aVOFBIZ-1247
p9251
aVOFBIZ-1246
p9252
aVOFBIZ-1245
p9253
aVOFBIZ-1244
p9254
aVOFBIZ-1243
p9255
aVOFBIZ-1242
p9256
aVOFBIZ-1241
p9257
aVOFBIZ-1240
p9258
aVOFBIZ-1239
p9259
aVOFBIZ-1238
p9260
aVOFBIZ-1237
p9261
aVOFBIZ-1236
p9262
aVOFBIZ-1235
p9263
aVOFBIZ-1234
p9264
aVOFBIZ-1233
p9265
aVOFBIZ-1232
p9266
aVOFBIZ-1231
p9267
aVOFBIZ-1230
p9268
aVOFBIZ-1229
p9269
aVOFBIZ-1228
p9270
aVOFBIZ-1227
p9271
aVOFBIZ-1226
p9272
aVOFBIZ-1225
p9273
aVOFBIZ-1224
p9274
aVOFBIZ-1223
p9275
aVOFBIZ-1222
p9276
aVOFBIZ-1221
p9277
aVOFBIZ-1220
p9278
aVOFBIZ-1219
p9279
aVOFBIZ-1218
p9280
aVOFBIZ-1217
p9281
aVOFBIZ-1216
p9282
aVOFBIZ-1215
p9283
aVOFBIZ-1214
p9284
aVOFBIZ-1213
p9285
aVOFBIZ-1212
p9286
aVOFBIZ-1211
p9287
aVOFBIZ-1210
p9288
aVOFBIZ-1209
p9289
aVOFBIZ-1208
p9290
aVOFBIZ-1207
p9291
aVOFBIZ-1206
p9292
aVOFBIZ-1205
p9293
aVOFBIZ-1204
p9294
aVOFBIZ-1203
p9295
aVOFBIZ-1202
p9296
aVOFBIZ-1201
p9297
aVOFBIZ-1200
p9298
aVOFBIZ-1199
p9299
aVOFBIZ-1198
p9300
aVOFBIZ-1197
p9301
aVOFBIZ-1196
p9302
aVOFBIZ-1195
p9303
aVOFBIZ-1194
p9304
aVOFBIZ-1193
p9305
aVOFBIZ-1192
p9306
aVOFBIZ-1191
p9307
aVOFBIZ-1190
p9308
aVOFBIZ-1189
p9309
aVOFBIZ-1188
p9310
aVOFBIZ-1187
p9311
aVOFBIZ-1186
p9312
aVOFBIZ-1185
p9313
aVOFBIZ-1184
p9314
aVOFBIZ-1183
p9315
aVOFBIZ-1182
p9316
aVOFBIZ-1181
p9317
aVOFBIZ-1180
p9318
aVOFBIZ-1179
p9319
aVOFBIZ-1178
p9320
aVOFBIZ-1177
p9321
aVOFBIZ-1176
p9322
aVOFBIZ-1175
p9323
aVOFBIZ-1174
p9324
aVOFBIZ-1173
p9325
aVOFBIZ-1172
p9326
aVOFBIZ-1171
p9327
aVOFBIZ-1170
p9328
aVOFBIZ-1169
p9329
aVOFBIZ-1168
p9330
aVOFBIZ-1167
p9331
aVOFBIZ-1166
p9332
aVOFBIZ-1165
p9333
aVOFBIZ-1164
p9334
aVOFBIZ-1163
p9335
aVOFBIZ-1162
p9336
aVOFBIZ-1161
p9337
aVOFBIZ-1160
p9338
aVOFBIZ-1159
p9339
aVOFBIZ-1158
p9340
aVOFBIZ-1157
p9341
aVOFBIZ-1156
p9342
aVOFBIZ-1155
p9343
aVOFBIZ-1154
p9344
aVOFBIZ-1153
p9345
aVOFBIZ-1152
p9346
aVOFBIZ-1151
p9347
aVOFBIZ-1150
p9348
aVOFBIZ-1149
p9349
aVOFBIZ-1148
p9350
aVOFBIZ-1147
p9351
aVOFBIZ-1146
p9352
aVOFBIZ-1145
p9353
aVOFBIZ-1144
p9354
aVOFBIZ-1143
p9355
aVOFBIZ-1142
p9356
aVOFBIZ-1141
p9357
aVOFBIZ-1140
p9358
aVOFBIZ-1139
p9359
aVOFBIZ-1138
p9360
aVOFBIZ-1137
p9361
aVOFBIZ-1136
p9362
aVOFBIZ-1135
p9363
aVOFBIZ-1134
p9364
aVOFBIZ-1133
p9365
aVOFBIZ-1132
p9366
aVOFBIZ-1131
p9367
aVOFBIZ-1130
p9368
aVOFBIZ-1129
p9369
aVOFBIZ-1128
p9370
aVOFBIZ-1127
p9371
aVOFBIZ-1126
p9372
aVOFBIZ-1125
p9373
aVOFBIZ-1124
p9374
aVOFBIZ-1123
p9375
aVOFBIZ-1122
p9376
aVOFBIZ-1121
p9377
aVOFBIZ-1120
p9378
aVOFBIZ-1119
p9379
aVOFBIZ-1118
p9380
aVOFBIZ-1117
p9381
aVOFBIZ-1116
p9382
aVOFBIZ-1115
p9383
aVOFBIZ-1114
p9384
aVOFBIZ-1113
p9385
aVOFBIZ-1112
p9386
aVOFBIZ-1111
p9387
aVOFBIZ-1110
p9388
aVOFBIZ-1109
p9389
aVOFBIZ-1108
p9390
aVOFBIZ-1107
p9391
aVOFBIZ-1106
p9392
aVOFBIZ-1105
p9393
aVOFBIZ-1104
p9394
aVOFBIZ-1103
p9395
aVOFBIZ-1102
p9396
aVOFBIZ-1101
p9397
aVOFBIZ-1100
p9398
aVOFBIZ-1099
p9399
aVOFBIZ-1098
p9400
aVOFBIZ-1097
p9401
aVOFBIZ-1096
p9402
aVOFBIZ-1095
p9403
aVOFBIZ-1094
p9404
aVOFBIZ-1093
p9405
aVOFBIZ-1092
p9406
aVOFBIZ-1091
p9407
aVOFBIZ-1090
p9408
aVOFBIZ-1089
p9409
aVOFBIZ-1088
p9410
aVOFBIZ-1087
p9411
aVOFBIZ-1086
p9412
aVOFBIZ-1085
p9413
aVOFBIZ-1084
p9414
aVOFBIZ-1083
p9415
aVOFBIZ-1082
p9416
aVOFBIZ-1081
p9417
aVOFBIZ-1080
p9418
aVOFBIZ-1079
p9419
aVOFBIZ-1078
p9420
aVOFBIZ-1077
p9421
aVOFBIZ-1076
p9422
aVOFBIZ-1075
p9423
aVOFBIZ-1074
p9424
aVOFBIZ-1073
p9425
aVOFBIZ-1072
p9426
aVOFBIZ-1071
p9427
aVOFBIZ-1070
p9428
aVOFBIZ-1069
p9429
aVOFBIZ-1068
p9430
aVOFBIZ-1067
p9431
aVOFBIZ-1066
p9432
aVOFBIZ-1065
p9433
aVOFBIZ-1064
p9434
aVOFBIZ-1063
p9435
aVOFBIZ-1062
p9436
aVOFBIZ-1061
p9437
aVOFBIZ-1060
p9438
aVOFBIZ-1059
p9439
aVOFBIZ-1058
p9440
aVOFBIZ-1057
p9441
aVOFBIZ-1056
p9442
aVOFBIZ-1055
p9443
aVOFBIZ-1054
p9444
aVOFBIZ-1053
p9445
aVOFBIZ-1052
p9446
aVOFBIZ-1051
p9447
aVOFBIZ-1050
p9448
aVOFBIZ-1049
p9449
aVOFBIZ-1048
p9450
aVOFBIZ-1047
p9451
aVOFBIZ-1046
p9452
aVOFBIZ-1045
p9453
aVOFBIZ-1044
p9454
aVOFBIZ-1043
p9455
aVOFBIZ-1042
p9456
aVOFBIZ-1041
p9457
aVOFBIZ-1040
p9458
aVOFBIZ-1039
p9459
aVOFBIZ-1038
p9460
aVOFBIZ-1037
p9461
aVOFBIZ-1036
p9462
aVOFBIZ-1035
p9463
aVOFBIZ-1034
p9464
aVOFBIZ-1033
p9465
aVOFBIZ-1032
p9466
aVOFBIZ-1031
p9467
aVOFBIZ-1030
p9468
aVOFBIZ-1029
p9469
aVOFBIZ-1028
p9470
aVOFBIZ-1027
p9471
aVOFBIZ-1026
p9472
aVOFBIZ-1025
p9473
aVOFBIZ-1024
p9474
aVOFBIZ-1023
p9475
aVOFBIZ-1022
p9476
aVOFBIZ-1021
p9477
aVOFBIZ-1020
p9478
aVOFBIZ-1019
p9479
aVOFBIZ-1018
p9480
aVOFBIZ-1017
p9481
aVOFBIZ-1016
p9482
aVOFBIZ-1015
p9483
aVOFBIZ-1014
p9484
aVOFBIZ-1013
p9485
aVOFBIZ-1012
p9486
aVOFBIZ-1011
p9487
aVOFBIZ-1010
p9488
aVOFBIZ-1009
p9489
aVOFBIZ-1008
p9490
aVOFBIZ-1007
p9491
aVOFBIZ-1006
p9492
aVOFBIZ-1005
p9493
aVOFBIZ-1004
p9494
aVOFBIZ-1003
p9495
aVOFBIZ-1002
p9496
aVOFBIZ-1001
p9497
aVOFBIZ-1000
p9498
aVOFBIZ-999
p9499
aVOFBIZ-998
p9500
aVOFBIZ-997
p9501
aVOFBIZ-996
p9502
aVOFBIZ-995
p9503
aVOFBIZ-994
p9504
aVOFBIZ-993
p9505
aVOFBIZ-992
p9506
aVOFBIZ-991
p9507
aVOFBIZ-990
p9508
aVOFBIZ-989
p9509
aVOFBIZ-988
p9510
aVOFBIZ-987
p9511
aVOFBIZ-986
p9512
aVOFBIZ-985
p9513
aVOFBIZ-984
p9514
aVOFBIZ-983
p9515
aVOFBIZ-982
p9516
aVOFBIZ-981
p9517
aVOFBIZ-980
p9518
aVOFBIZ-979
p9519
aVOFBIZ-978
p9520
aVOFBIZ-977
p9521
aVOFBIZ-976
p9522
aVOFBIZ-975
p9523
aVOFBIZ-974
p9524
aVOFBIZ-973
p9525
aVOFBIZ-972
p9526
aVOFBIZ-971
p9527
aVOFBIZ-970
p9528
aVOFBIZ-969
p9529
aVOFBIZ-968
p9530
aVOFBIZ-967
p9531
aVOFBIZ-966
p9532
aVOFBIZ-965
p9533
aVOFBIZ-964
p9534
aVOFBIZ-963
p9535
aVOFBIZ-962
p9536
aVOFBIZ-961
p9537
aVOFBIZ-960
p9538
aVOFBIZ-959
p9539
aVOFBIZ-958
p9540
aVOFBIZ-957
p9541
aVOFBIZ-956
p9542
aVOFBIZ-955
p9543
aVOFBIZ-954
p9544
aVOFBIZ-953
p9545
aVOFBIZ-952
p9546
aVOFBIZ-951
p9547
aVOFBIZ-950
p9548
aVOFBIZ-949
p9549
aVOFBIZ-948
p9550
aVOFBIZ-947
p9551
aVOFBIZ-946
p9552
aVOFBIZ-945
p9553
aVOFBIZ-944
p9554
aVOFBIZ-943
p9555
aVOFBIZ-942
p9556
aVOFBIZ-941
p9557
aVOFBIZ-940
p9558
aVOFBIZ-939
p9559
aVOFBIZ-938
p9560
aVOFBIZ-937
p9561
aVOFBIZ-936
p9562
aVOFBIZ-935
p9563
aVOFBIZ-934
p9564
aVOFBIZ-933
p9565
aVOFBIZ-932
p9566
aVOFBIZ-931
p9567
aVOFBIZ-930
p9568
aVOFBIZ-929
p9569
aVOFBIZ-928
p9570
aVOFBIZ-927
p9571
aVOFBIZ-926
p9572
aVOFBIZ-925
p9573
aVOFBIZ-924
p9574
aVOFBIZ-923
p9575
aVOFBIZ-922
p9576
aVOFBIZ-921
p9577
aVOFBIZ-920
p9578
aVOFBIZ-919
p9579
aVOFBIZ-918
p9580
aVOFBIZ-917
p9581
aVOFBIZ-916
p9582
aVOFBIZ-915
p9583
aVOFBIZ-914
p9584
aVOFBIZ-913
p9585
aVOFBIZ-912
p9586
aVOFBIZ-911
p9587
aVOFBIZ-910
p9588
aVOFBIZ-909
p9589
aVOFBIZ-908
p9590
aVOFBIZ-907
p9591
aVOFBIZ-906
p9592
aVOFBIZ-905
p9593
aVOFBIZ-904
p9594
aVOFBIZ-903
p9595
aVOFBIZ-902
p9596
aVOFBIZ-901
p9597
aVOFBIZ-900
p9598
aVOFBIZ-899
p9599
aVOFBIZ-898
p9600
aVOFBIZ-897
p9601
aVOFBIZ-896
p9602
aVOFBIZ-895
p9603
aVOFBIZ-894
p9604
aVOFBIZ-893
p9605
aVOFBIZ-892
p9606
aVOFBIZ-891
p9607
aVOFBIZ-890
p9608
aVOFBIZ-889
p9609
aVOFBIZ-888
p9610
aVOFBIZ-887
p9611
aVOFBIZ-886
p9612
aVOFBIZ-885
p9613
aVOFBIZ-884
p9614
aVOFBIZ-883
p9615
aVOFBIZ-882
p9616
aVOFBIZ-881
p9617
aVOFBIZ-880
p9618
aVOFBIZ-879
p9619
aVOFBIZ-878
p9620
aVOFBIZ-877
p9621
aVOFBIZ-876
p9622
aVOFBIZ-875
p9623
aVOFBIZ-874
p9624
aVOFBIZ-873
p9625
aVOFBIZ-872
p9626
aVOFBIZ-871
p9627
aVOFBIZ-870
p9628
aVOFBIZ-869
p9629
aVOFBIZ-868
p9630
aVOFBIZ-867
p9631
aVOFBIZ-866
p9632
aVOFBIZ-865
p9633
aVOFBIZ-864
p9634
aVOFBIZ-863
p9635
aVOFBIZ-862
p9636
aVOFBIZ-861
p9637
aVOFBIZ-860
p9638
aVOFBIZ-859
p9639
aVOFBIZ-858
p9640
aVOFBIZ-857
p9641
aVOFBIZ-856
p9642
aVOFBIZ-855
p9643
aVOFBIZ-854
p9644
aVOFBIZ-853
p9645
aVOFBIZ-852
p9646
aVOFBIZ-851
p9647
aVOFBIZ-850
p9648
aVOFBIZ-849
p9649
aVOFBIZ-848
p9650
aVOFBIZ-847
p9651
aVOFBIZ-846
p9652
aVOFBIZ-845
p9653
aVOFBIZ-844
p9654
aVOFBIZ-843
p9655
aVOFBIZ-842
p9656
aVOFBIZ-841
p9657
aVOFBIZ-840
p9658
aVOFBIZ-839
p9659
aVOFBIZ-838
p9660
aVOFBIZ-837
p9661
aVOFBIZ-836
p9662
aVOFBIZ-835
p9663
aVOFBIZ-834
p9664
aVOFBIZ-833
p9665
aVOFBIZ-832
p9666
aVOFBIZ-831
p9667
aVOFBIZ-830
p9668
aVOFBIZ-829
p9669
aVOFBIZ-828
p9670
aVOFBIZ-827
p9671
aVOFBIZ-826
p9672
aVOFBIZ-825
p9673
aVOFBIZ-824
p9674
aVOFBIZ-823
p9675
aVOFBIZ-822
p9676
aVOFBIZ-821
p9677
aVOFBIZ-820
p9678
aVOFBIZ-819
p9679
aVOFBIZ-818
p9680
aVOFBIZ-817
p9681
aVOFBIZ-816
p9682
aVOFBIZ-815
p9683
aVOFBIZ-814
p9684
aVOFBIZ-813
p9685
aVOFBIZ-812
p9686
aVOFBIZ-811
p9687
aVOFBIZ-810
p9688
aVOFBIZ-809
p9689
aVOFBIZ-808
p9690
aVOFBIZ-807
p9691
aVOFBIZ-806
p9692
aVOFBIZ-805
p9693
aVOFBIZ-804
p9694
aVOFBIZ-803
p9695
aVOFBIZ-802
p9696
aVOFBIZ-801
p9697
aVOFBIZ-800
p9698
aVOFBIZ-799
p9699
aVOFBIZ-798
p9700
aVOFBIZ-797
p9701
aVOFBIZ-796
p9702
aVOFBIZ-795
p9703
aVOFBIZ-794
p9704
aVOFBIZ-793
p9705
aVOFBIZ-792
p9706
aVOFBIZ-791
p9707
aVOFBIZ-790
p9708
aVOFBIZ-789
p9709
aVOFBIZ-788
p9710
aVOFBIZ-787
p9711
aVOFBIZ-786
p9712
aVOFBIZ-785
p9713
aVOFBIZ-784
p9714
aVOFBIZ-783
p9715
aVOFBIZ-782
p9716
aVOFBIZ-781
p9717
aVOFBIZ-780
p9718
aVOFBIZ-779
p9719
aVOFBIZ-778
p9720
aVOFBIZ-777
p9721
aVOFBIZ-776
p9722
aVOFBIZ-775
p9723
aVOFBIZ-774
p9724
aVOFBIZ-773
p9725
aVOFBIZ-772
p9726
aVOFBIZ-771
p9727
aVOFBIZ-770
p9728
aVOFBIZ-769
p9729
aVOFBIZ-768
p9730
aVOFBIZ-767
p9731
aVOFBIZ-766
p9732
aVOFBIZ-765
p9733
aVOFBIZ-764
p9734
aVOFBIZ-763
p9735
aVOFBIZ-762
p9736
aVOFBIZ-761
p9737
aVOFBIZ-760
p9738
aVOFBIZ-759
p9739
aVOFBIZ-758
p9740
aVOFBIZ-757
p9741
aVOFBIZ-756
p9742
aVOFBIZ-755
p9743
aVOFBIZ-754
p9744
aVOFBIZ-753
p9745
aVOFBIZ-752
p9746
aVOFBIZ-751
p9747
aVOFBIZ-750
p9748
aVOFBIZ-749
p9749
aVOFBIZ-748
p9750
aVOFBIZ-747
p9751
aVOFBIZ-746
p9752
aVOFBIZ-745
p9753
aVOFBIZ-744
p9754
aVOFBIZ-743
p9755
aVOFBIZ-742
p9756
aVOFBIZ-741
p9757
aVOFBIZ-740
p9758
aVOFBIZ-739
p9759
aVOFBIZ-738
p9760
aVOFBIZ-737
p9761
aVOFBIZ-736
p9762
aVOFBIZ-735
p9763
aVOFBIZ-734
p9764
aVOFBIZ-733
p9765
aVOFBIZ-732
p9766
aVOFBIZ-731
p9767
aVOFBIZ-730
p9768
aVOFBIZ-729
p9769
aVOFBIZ-728
p9770
aVOFBIZ-727
p9771
aVOFBIZ-726
p9772
aVOFBIZ-725
p9773
aVOFBIZ-724
p9774
aVOFBIZ-723
p9775
aVOFBIZ-722
p9776
aVOFBIZ-721
p9777
aVOFBIZ-720
p9778
aVOFBIZ-719
p9779
aVOFBIZ-718
p9780
aVOFBIZ-717
p9781
aVOFBIZ-716
p9782
aVOFBIZ-715
p9783
aVOFBIZ-714
p9784
aVOFBIZ-713
p9785
aVOFBIZ-712
p9786
aVOFBIZ-711
p9787
aVOFBIZ-710
p9788
aVOFBIZ-709
p9789
aVOFBIZ-708
p9790
aVOFBIZ-707
p9791
aVOFBIZ-706
p9792
aVOFBIZ-705
p9793
aVOFBIZ-704
p9794
aVOFBIZ-703
p9795
aVOFBIZ-702
p9796
aVOFBIZ-701
p9797
aVOFBIZ-700
p9798
aVOFBIZ-699
p9799
aVOFBIZ-698
p9800
aVOFBIZ-697
p9801
aVOFBIZ-696
p9802
aVOFBIZ-695
p9803
aVOFBIZ-694
p9804
aVOFBIZ-693
p9805
aVOFBIZ-692
p9806
aVOFBIZ-691
p9807
aVOFBIZ-690
p9808
aVOFBIZ-689
p9809
aVOFBIZ-688
p9810
aVOFBIZ-687
p9811
aVOFBIZ-686
p9812
aVOFBIZ-685
p9813
aVOFBIZ-684
p9814
aVOFBIZ-683
p9815
aVOFBIZ-682
p9816
aVOFBIZ-681
p9817
aVOFBIZ-680
p9818
aVOFBIZ-679
p9819
aVOFBIZ-678
p9820
aVOFBIZ-677
p9821
aVOFBIZ-676
p9822
aVOFBIZ-675
p9823
aVOFBIZ-674
p9824
aVOFBIZ-673
p9825
aVOFBIZ-672
p9826
aVOFBIZ-671
p9827
aVOFBIZ-670
p9828
aVOFBIZ-669
p9829
aVOFBIZ-668
p9830
aVOFBIZ-667
p9831
aVOFBIZ-666
p9832
aVOFBIZ-665
p9833
aVOFBIZ-664
p9834
aVOFBIZ-663
p9835
aVOFBIZ-662
p9836
aVOFBIZ-661
p9837
aVOFBIZ-660
p9838
aVOFBIZ-659
p9839
aVOFBIZ-658
p9840
aVOFBIZ-657
p9841
aVOFBIZ-656
p9842
aVOFBIZ-655
p9843
aVOFBIZ-654
p9844
aVOFBIZ-653
p9845
aVOFBIZ-652
p9846
aVOFBIZ-651
p9847
aVOFBIZ-650
p9848
aVOFBIZ-649
p9849
aVOFBIZ-648
p9850
aVOFBIZ-647
p9851
aVOFBIZ-646
p9852
aVOFBIZ-645
p9853
aVOFBIZ-644
p9854
aVOFBIZ-643
p9855
aVOFBIZ-642
p9856
aVOFBIZ-641
p9857
aVOFBIZ-640
p9858
aVOFBIZ-639
p9859
aVOFBIZ-638
p9860
aVOFBIZ-637
p9861
aVOFBIZ-636
p9862
aVOFBIZ-635
p9863
aVOFBIZ-634
p9864
aVOFBIZ-633
p9865
aVOFBIZ-632
p9866
aVOFBIZ-631
p9867
aVOFBIZ-630
p9868
aVOFBIZ-629
p9869
aVOFBIZ-628
p9870
aVOFBIZ-627
p9871
aVOFBIZ-626
p9872
aVOFBIZ-625
p9873
aVOFBIZ-624
p9874
aVOFBIZ-623
p9875
aVOFBIZ-622
p9876
aVOFBIZ-621
p9877
aVOFBIZ-620
p9878
aVOFBIZ-619
p9879
aVOFBIZ-618
p9880
aVOFBIZ-617
p9881
aVOFBIZ-616
p9882
aVOFBIZ-615
p9883
aVOFBIZ-614
p9884
aVOFBIZ-613
p9885
aVOFBIZ-612
p9886
aVOFBIZ-611
p9887
aVOFBIZ-610
p9888
aVOFBIZ-609
p9889
aVOFBIZ-608
p9890
aVOFBIZ-607
p9891
aVOFBIZ-606
p9892
aVOFBIZ-605
p9893
aVOFBIZ-604
p9894
aVOFBIZ-603
p9895
aVOFBIZ-602
p9896
aVOFBIZ-601
p9897
aVOFBIZ-600
p9898
aVOFBIZ-599
p9899
aVOFBIZ-598
p9900
aVOFBIZ-597
p9901
aVOFBIZ-596
p9902
aVOFBIZ-595
p9903
aVOFBIZ-594
p9904
aVOFBIZ-593
p9905
aVOFBIZ-592
p9906
aVOFBIZ-591
p9907
aVOFBIZ-590
p9908
aVOFBIZ-589
p9909
aVOFBIZ-588
p9910
aVOFBIZ-587
p9911
aVOFBIZ-586
p9912
aVOFBIZ-585
p9913
aVOFBIZ-584
p9914
aVOFBIZ-583
p9915
aVOFBIZ-582
p9916
aVOFBIZ-581
p9917
aVOFBIZ-580
p9918
aVOFBIZ-579
p9919
aVOFBIZ-578
p9920
aVOFBIZ-577
p9921
aVOFBIZ-576
p9922
aVOFBIZ-575
p9923
aVOFBIZ-574
p9924
aVOFBIZ-573
p9925
aVOFBIZ-572
p9926
aVOFBIZ-571
p9927
aVOFBIZ-570
p9928
aVOFBIZ-569
p9929
aVOFBIZ-568
p9930
aVOFBIZ-567
p9931
aVOFBIZ-566
p9932
aVOFBIZ-565
p9933
aVOFBIZ-564
p9934
aVOFBIZ-563
p9935
aVOFBIZ-562
p9936
aVOFBIZ-561
p9937
aVOFBIZ-560
p9938
aVOFBIZ-559
p9939
aVOFBIZ-558
p9940
aVOFBIZ-557
p9941
aVOFBIZ-556
p9942
aVOFBIZ-555
p9943
aVOFBIZ-554
p9944
aVOFBIZ-553
p9945
aVOFBIZ-552
p9946
aVOFBIZ-551
p9947
aVOFBIZ-550
p9948
aVOFBIZ-549
p9949
aVOFBIZ-548
p9950
aVOFBIZ-547
p9951
aVOFBIZ-546
p9952
aVOFBIZ-545
p9953
aVOFBIZ-544
p9954
aVOFBIZ-543
p9955
aVOFBIZ-542
p9956
aVOFBIZ-541
p9957
aVOFBIZ-540
p9958
aVOFBIZ-539
p9959
aVOFBIZ-538
p9960
aVOFBIZ-537
p9961
aVOFBIZ-536
p9962
aVOFBIZ-535
p9963
aVOFBIZ-534
p9964
aVOFBIZ-533
p9965
aVOFBIZ-532
p9966
aVOFBIZ-531
p9967
aVOFBIZ-530
p9968
aVOFBIZ-529
p9969
aVOFBIZ-528
p9970
aVOFBIZ-527
p9971
aVOFBIZ-526
p9972
aVOFBIZ-525
p9973
aVOFBIZ-524
p9974
aVOFBIZ-523
p9975
aVOFBIZ-522
p9976
aVOFBIZ-521
p9977
aVOFBIZ-520
p9978
aVOFBIZ-519
p9979
aVOFBIZ-518
p9980
aVOFBIZ-517
p9981
aVOFBIZ-516
p9982
aVOFBIZ-515
p9983
aVOFBIZ-514
p9984
aVOFBIZ-513
p9985
aVOFBIZ-512
p9986
aVOFBIZ-511
p9987
aVOFBIZ-510
p9988
aVOFBIZ-509
p9989
aVOFBIZ-508
p9990
aVOFBIZ-507
p9991
aVOFBIZ-506
p9992
aVOFBIZ-505
p9993
aVOFBIZ-504
p9994
aVOFBIZ-503
p9995
aVOFBIZ-502
p9996
aVOFBIZ-501
p9997
aVOFBIZ-500
p9998
aVOFBIZ-499
p9999
aVOFBIZ-498
p10000
aVOFBIZ-497
p10001
aVOFBIZ-496
p10002
aVOFBIZ-495
p10003
aVOFBIZ-494
p10004
aVOFBIZ-493
p10005
aVOFBIZ-492
p10006
aVOFBIZ-491
p10007
aVOFBIZ-490
p10008
aVOFBIZ-489
p10009
aVOFBIZ-488
p10010
aVOFBIZ-487
p10011
aVOFBIZ-486
p10012
aVOFBIZ-485
p10013
aVOFBIZ-484
p10014
aVOFBIZ-483
p10015
aVOFBIZ-482
p10016
aVOFBIZ-481
p10017
aVOFBIZ-480
p10018
aVOFBIZ-479
p10019
aVOFBIZ-478
p10020
aVOFBIZ-477
p10021
aVOFBIZ-476
p10022
aVOFBIZ-475
p10023
aVOFBIZ-474
p10024
aVOFBIZ-473
p10025
aVOFBIZ-472
p10026
aVOFBIZ-471
p10027
aVOFBIZ-470
p10028
aVOFBIZ-469
p10029
aVOFBIZ-468
p10030
aVOFBIZ-467
p10031
aVOFBIZ-466
p10032
aVOFBIZ-465
p10033
aVOFBIZ-464
p10034
aVOFBIZ-463
p10035
aVOFBIZ-462
p10036
aVOFBIZ-461
p10037
aVOFBIZ-460
p10038
aVOFBIZ-459
p10039
aVOFBIZ-458
p10040
aVOFBIZ-457
p10041
aVOFBIZ-456
p10042
aVOFBIZ-455
p10043
aVOFBIZ-454
p10044
aVOFBIZ-453
p10045
aVOFBIZ-452
p10046
aVOFBIZ-451
p10047
aVOFBIZ-450
p10048
aVOFBIZ-449
p10049
aVOFBIZ-448
p10050
aVOFBIZ-447
p10051
aVOFBIZ-446
p10052
aVOFBIZ-445
p10053
aVOFBIZ-444
p10054
aVOFBIZ-443
p10055
aVOFBIZ-442
p10056
aVOFBIZ-441
p10057
aVOFBIZ-440
p10058
aVOFBIZ-439
p10059
aVOFBIZ-438
p10060
aVOFBIZ-437
p10061
aVOFBIZ-436
p10062
aVOFBIZ-435
p10063
aVOFBIZ-434
p10064
aVOFBIZ-433
p10065
aVOFBIZ-432
p10066
aVOFBIZ-431
p10067
aVOFBIZ-430
p10068
aVOFBIZ-429
p10069
aVOFBIZ-428
p10070
aVOFBIZ-427
p10071
aVOFBIZ-426
p10072
aVOFBIZ-425
p10073
aVOFBIZ-424
p10074
aVOFBIZ-423
p10075
aVOFBIZ-422
p10076
aVOFBIZ-421
p10077
aVOFBIZ-420
p10078
aVOFBIZ-419
p10079
aVOFBIZ-418
p10080
aVOFBIZ-417
p10081
aVOFBIZ-416
p10082
aVOFBIZ-415
p10083
aVOFBIZ-414
p10084
aVOFBIZ-413
p10085
aVOFBIZ-412
p10086
aVOFBIZ-411
p10087
aVOFBIZ-410
p10088
aVOFBIZ-409
p10089
aVOFBIZ-408
p10090
aVOFBIZ-407
p10091
aVOFBIZ-406
p10092
aVOFBIZ-405
p10093
aVOFBIZ-404
p10094
aVOFBIZ-403
p10095
aVOFBIZ-402
p10096
aVOFBIZ-401
p10097
aVOFBIZ-400
p10098
aVOFBIZ-399
p10099
aVOFBIZ-398
p10100
aVOFBIZ-397
p10101
aVOFBIZ-396
p10102
aVOFBIZ-395
p10103
aVOFBIZ-394
p10104
aVOFBIZ-393
p10105
aVOFBIZ-392
p10106
aVOFBIZ-391
p10107
aVOFBIZ-390
p10108
aVOFBIZ-389
p10109
aVOFBIZ-388
p10110
aVOFBIZ-387
p10111
aVOFBIZ-386
p10112
aVOFBIZ-385
p10113
aVOFBIZ-384
p10114
aVOFBIZ-383
p10115
aVOFBIZ-382
p10116
aVOFBIZ-381
p10117
aVOFBIZ-380
p10118
aVOFBIZ-379
p10119
aVOFBIZ-378
p10120
aVOFBIZ-377
p10121
aVOFBIZ-376
p10122
aVOFBIZ-375
p10123
aVOFBIZ-374
p10124
aVOFBIZ-373
p10125
aVOFBIZ-372
p10126
aVOFBIZ-371
p10127
aVOFBIZ-370
p10128
aVOFBIZ-369
p10129
aVOFBIZ-368
p10130
aVOFBIZ-367
p10131
aVOFBIZ-366
p10132
aVOFBIZ-365
p10133
aVOFBIZ-364
p10134
aVOFBIZ-363
p10135
aVOFBIZ-362
p10136
aVOFBIZ-361
p10137
aVOFBIZ-360
p10138
aVOFBIZ-359
p10139
aVOFBIZ-358
p10140
aVOFBIZ-357
p10141
aVOFBIZ-356
p10142
aVOFBIZ-355
p10143
aVOFBIZ-354
p10144
aVOFBIZ-353
p10145
aVOFBIZ-352
p10146
aVOFBIZ-351
p10147
aVOFBIZ-350
p10148
aVOFBIZ-349
p10149
aVOFBIZ-348
p10150
aVOFBIZ-347
p10151
aVOFBIZ-346
p10152
aVOFBIZ-345
p10153
aVOFBIZ-344
p10154
aVOFBIZ-343
p10155
aVOFBIZ-342
p10156
aVOFBIZ-341
p10157
aVOFBIZ-340
p10158
aVOFBIZ-339
p10159
aVOFBIZ-338
p10160
aVOFBIZ-337
p10161
aVOFBIZ-336
p10162
aVOFBIZ-335
p10163
aVOFBIZ-334
p10164
aVOFBIZ-333
p10165
aVOFBIZ-332
p10166
aVOFBIZ-331
p10167
aVOFBIZ-330
p10168
aVOFBIZ-329
p10169
aVOFBIZ-328
p10170
aVOFBIZ-327
p10171
aVOFBIZ-326
p10172
aVOFBIZ-325
p10173
aVOFBIZ-324
p10174
aVOFBIZ-323
p10175
aVOFBIZ-322
p10176
aVOFBIZ-321
p10177
aVOFBIZ-320
p10178
aVOFBIZ-319
p10179
aVOFBIZ-318
p10180
aVOFBIZ-317
p10181
aVOFBIZ-316
p10182
aVOFBIZ-315
p10183
aVOFBIZ-314
p10184
aVOFBIZ-313
p10185
aVOFBIZ-312
p10186
aVOFBIZ-311
p10187
aVOFBIZ-310
p10188
aVOFBIZ-309
p10189
aVOFBIZ-308
p10190
aVOFBIZ-307
p10191
aVOFBIZ-306
p10192
aVOFBIZ-305
p10193
aVOFBIZ-304
p10194
aVOFBIZ-303
p10195
aVOFBIZ-302
p10196
aVOFBIZ-301
p10197
aVOFBIZ-300
p10198
aVOFBIZ-299
p10199
aVOFBIZ-298
p10200
aVOFBIZ-297
p10201
aVOFBIZ-296
p10202
aVOFBIZ-295
p10203
aVOFBIZ-294
p10204
aVOFBIZ-293
p10205
aVOFBIZ-292
p10206
aVOFBIZ-291
p10207
aVOFBIZ-290
p10208
aVOFBIZ-289
p10209
aVOFBIZ-288
p10210
aVOFBIZ-287
p10211
aVOFBIZ-286
p10212
aVOFBIZ-285
p10213
aVOFBIZ-284
p10214
aVOFBIZ-283
p10215
aVOFBIZ-282
p10216
aVOFBIZ-281
p10217
aVOFBIZ-280
p10218
aVOFBIZ-279
p10219
aVOFBIZ-278
p10220
aVOFBIZ-277
p10221
aVOFBIZ-276
p10222
aVOFBIZ-275
p10223
aVOFBIZ-274
p10224
aVOFBIZ-273
p10225
aVOFBIZ-272
p10226
aVOFBIZ-271
p10227
aVOFBIZ-270
p10228
aVOFBIZ-269
p10229
aVOFBIZ-268
p10230
aVOFBIZ-267
p10231
aVOFBIZ-266
p10232
aVOFBIZ-265
p10233
aVOFBIZ-264
p10234
aVOFBIZ-263
p10235
aVOFBIZ-262
p10236
aVOFBIZ-261
p10237
aVOFBIZ-260
p10238
aVOFBIZ-259
p10239
aVOFBIZ-258
p10240
aVOFBIZ-257
p10241
aVOFBIZ-256
p10242
aVOFBIZ-255
p10243
aVOFBIZ-254
p10244
aVOFBIZ-253
p10245
aVOFBIZ-252
p10246
aVOFBIZ-251
p10247
aVOFBIZ-250
p10248
aVOFBIZ-249
p10249
aVOFBIZ-248
p10250
aVOFBIZ-247
p10251
aVOFBIZ-246
p10252
aVOFBIZ-245
p10253
aVOFBIZ-244
p10254
aVOFBIZ-243
p10255
aVOFBIZ-242
p10256
aVOFBIZ-241
p10257
aVOFBIZ-240
p10258
aVOFBIZ-239
p10259
aVOFBIZ-238
p10260
aVOFBIZ-237
p10261
aVOFBIZ-236
p10262
aVOFBIZ-235
p10263
aVOFBIZ-234
p10264
aVOFBIZ-233
p10265
aVOFBIZ-232
p10266
aVOFBIZ-231
p10267
aVOFBIZ-230
p10268
aVOFBIZ-229
p10269
aVOFBIZ-228
p10270
aVOFBIZ-227
p10271
aVOFBIZ-226
p10272
aVOFBIZ-225
p10273
aVOFBIZ-224
p10274
aVOFBIZ-223
p10275
aVOFBIZ-222
p10276
aVOFBIZ-221
p10277
aVOFBIZ-220
p10278
aVOFBIZ-219
p10279
aVOFBIZ-218
p10280
aVOFBIZ-217
p10281
aVOFBIZ-216
p10282
aVOFBIZ-215
p10283
aVOFBIZ-214
p10284
aVOFBIZ-213
p10285
aVOFBIZ-212
p10286
aVOFBIZ-211
p10287
aVOFBIZ-210
p10288
aVOFBIZ-209
p10289
aVOFBIZ-208
p10290
aVOFBIZ-207
p10291
aVOFBIZ-206
p10292
aVOFBIZ-205
p10293
aVOFBIZ-204
p10294
aVOFBIZ-203
p10295
aVOFBIZ-202
p10296
aVOFBIZ-201
p10297
aVOFBIZ-200
p10298
aVOFBIZ-199
p10299
aVOFBIZ-198
p10300
aVOFBIZ-197
p10301
aVOFBIZ-196
p10302
aVOFBIZ-195
p10303
aVOFBIZ-194
p10304
aVOFBIZ-193
p10305
aVOFBIZ-192
p10306
aVOFBIZ-191
p10307
aVOFBIZ-190
p10308
aVOFBIZ-189
p10309
aVOFBIZ-188
p10310
aVOFBIZ-187
p10311
aVOFBIZ-186
p10312
aVOFBIZ-185
p10313
aVOFBIZ-184
p10314
aVOFBIZ-183
p10315
aVOFBIZ-182
p10316
aVOFBIZ-181
p10317
aVOFBIZ-180
p10318
aVOFBIZ-179
p10319
aVOFBIZ-178
p10320
aVOFBIZ-177
p10321
aVOFBIZ-176
p10322
aVOFBIZ-175
p10323
aVOFBIZ-174
p10324
aVOFBIZ-173
p10325
aVOFBIZ-172
p10326
aVOFBIZ-171
p10327
aVOFBIZ-170
p10328
aVOFBIZ-169
p10329
aVOFBIZ-168
p10330
aVOFBIZ-167
p10331
aVOFBIZ-166
p10332
aVOFBIZ-165
p10333
aVOFBIZ-164
p10334
aVOFBIZ-163
p10335
aVOFBIZ-162
p10336
aVOFBIZ-161
p10337
aVOFBIZ-160
p10338
aVOFBIZ-159
p10339
aVOFBIZ-158
p10340
aVOFBIZ-157
p10341
aVOFBIZ-156
p10342
aVOFBIZ-155
p10343
aVOFBIZ-154
p10344
aVOFBIZ-153
p10345
aVOFBIZ-152
p10346
aVOFBIZ-151
p10347
aVOFBIZ-150
p10348
aVOFBIZ-149
p10349
aVOFBIZ-148
p10350
aVOFBIZ-147
p10351
aVOFBIZ-146
p10352
aVOFBIZ-145
p10353
aVOFBIZ-144
p10354
aVOFBIZ-143
p10355
aVOFBIZ-142
p10356
aVOFBIZ-141
p10357
aVOFBIZ-140
p10358
aVOFBIZ-139
p10359
aVOFBIZ-138
p10360
aVOFBIZ-137
p10361
aVOFBIZ-136
p10362
aVOFBIZ-135
p10363
aVOFBIZ-134
p10364
aVOFBIZ-133
p10365
aVOFBIZ-132
p10366
aVOFBIZ-131
p10367
aVOFBIZ-130
p10368
aVOFBIZ-129
p10369
aVOFBIZ-128
p10370
aVOFBIZ-127
p10371
aVOFBIZ-126
p10372
aVOFBIZ-125
p10373
aVOFBIZ-124
p10374
aVOFBIZ-123
p10375
aVOFBIZ-122
p10376
aVOFBIZ-121
p10377
aVOFBIZ-120
p10378
aVOFBIZ-119
p10379
aVOFBIZ-118
p10380
aVOFBIZ-117
p10381
aVOFBIZ-116
p10382
aVOFBIZ-115
p10383
aVOFBIZ-114
p10384
aVOFBIZ-113
p10385
aVOFBIZ-112
p10386
aVOFBIZ-111
p10387
aVOFBIZ-110
p10388
aVOFBIZ-109
p10389
aVOFBIZ-108
p10390
aVOFBIZ-107
p10391
aVOFBIZ-106
p10392
aVOFBIZ-105
p10393
aVOFBIZ-104
p10394
aVOFBIZ-103
p10395
aVOFBIZ-102
p10396
aVOFBIZ-101
p10397
aVOFBIZ-100
p10398
aVOFBIZ-99
p10399
aVOFBIZ-98
p10400
aVOFBIZ-97
p10401
aVOFBIZ-96
p10402
aVOFBIZ-95
p10403
aVOFBIZ-94
p10404
aVOFBIZ-93
p10405
aVOFBIZ-92
p10406
aVOFBIZ-91
p10407
aVOFBIZ-90
p10408
aVOFBIZ-89
p10409
aVOFBIZ-88
p10410
aVOFBIZ-87
p10411
aVOFBIZ-86
p10412
aVOFBIZ-85
p10413
aVOFBIZ-84
p10414
aVOFBIZ-83
p10415
aVOFBIZ-82
p10416
aVOFBIZ-81
p10417
aVOFBIZ-80
p10418
aVOFBIZ-79
p10419
aVOFBIZ-78
p10420
aVOFBIZ-77
p10421
aVOFBIZ-76
p10422
aVOFBIZ-75
p10423
aVOFBIZ-74
p10424
aVOFBIZ-73
p10425
aVOFBIZ-72
p10426
aVOFBIZ-71
p10427
aVOFBIZ-70
p10428
aVOFBIZ-69
p10429
aVOFBIZ-68
p10430
aVOFBIZ-67
p10431
aVOFBIZ-66
p10432
aVOFBIZ-65
p10433
aVOFBIZ-64
p10434
aVOFBIZ-63
p10435
aVOFBIZ-62
p10436
aVOFBIZ-61
p10437
aVOFBIZ-60
p10438
aVOFBIZ-59
p10439
aVOFBIZ-58
p10440
aVOFBIZ-57
p10441
aVOFBIZ-56
p10442
aVOFBIZ-55
p10443
aVOFBIZ-54
p10444
aVOFBIZ-53
p10445
aVOFBIZ-52
p10446
aVOFBIZ-51
p10447
aVOFBIZ-50
p10448
aVOFBIZ-49
p10449
aVOFBIZ-48
p10450
aVOFBIZ-47
p10451
aVOFBIZ-46
p10452
aVOFBIZ-45
p10453
aVOFBIZ-44
p10454
aVOFBIZ-43
p10455
aVOFBIZ-42
p10456
aVOFBIZ-41
p10457
aVOFBIZ-40
p10458
aVOFBIZ-39
p10459
aVOFBIZ-38
p10460
aVOFBIZ-37
p10461
aVOFBIZ-36
p10462
aVOFBIZ-35
p10463
aVOFBIZ-34
p10464
aVOFBIZ-33
p10465
aVOFBIZ-32
p10466
aVOFBIZ-31
p10467
aVOFBIZ-30
p10468
aVOFBIZ-29
p10469
aVOFBIZ-28
p10470
aVOFBIZ-27
p10471
aVOFBIZ-26
p10472
aVOFBIZ-25
p10473
aVOFBIZ-24
p10474
aVOFBIZ-23
p10475
aVOFBIZ-22
p10476
aVOFBIZ-21
p10477
aVOFBIZ-20
p10478
aVOFBIZ-19
p10479
aVOFBIZ-18
p10480
aVOFBIZ-17
p10481
aVOFBIZ-16
p10482
aVOFBIZ-15
p10483
aVOFBIZ-14
p10484
aVOFBIZ-13
p10485
aVOFBIZ-12
p10486
aVOFBIZ-11
p10487
aVOFBIZ-10
p10488
aVOFBIZ-9
p10489
aVOFBIZ-8
p10490
aVOFBIZ-7
p10491
aVOFBIZ-6
p10492
aVOFBIZ-5
p10493
aVOFBIZ-4
p10494
aVOFBIZ-3
p10495
aVOFBIZ-2
p10496
aVOFBIZ-1
p10497
a.