(lp0
VOGNL-258
p1
aVOGNL-257
p2
aVOGNL-256
p3
aVOGNL-255
p4
aVOGNL-254
p5
aVOGNL-253
p6
aVOGNL-252
p7
aVOGNL-251
p8
aVOGNL-250
p9
aVOGNL-249
p10
aVOGNL-248
p11
aVOGNL-247
p12
aVOGNL-246
p13
aVOGNL-245
p14
aVOGNL-244
p15
aVOGNL-243
p16
aVOGNL-242
p17
aVOGNL-241
p18
aVOGNL-240
p19
aVOGNL-239
p20
aVOGNL-238
p21
aVOGNL-237
p22
aVOGNL-236
p23
aVOGNL-235
p24
aVOGNL-234
p25
aVOGNL-233
p26
aVOGNL-232
p27
aVOGNL-231
p28
aVOGNL-230
p29
aVOGNL-229
p30
aVOGNL-228
p31
aVOGNL-227
p32
aVOGNL-226
p33
aVOGNL-225
p34
aVOGNL-224
p35
aVOGNL-223
p36
aVOGNL-222
p37
aVOGNL-221
p38
aVOGNL-220
p39
aVOGNL-219
p40
aVOGNL-218
p41
aVOGNL-217
p42
aVOGNL-216
p43
aVOGNL-215
p44
aVOGNL-214
p45
aVOGNL-213
p46
aVOGNL-212
p47
aVOGNL-211
p48
aVOGNL-210
p49
aVOGNL-209
p50
aVOGNL-208
p51
aVOGNL-207
p52
aVOGNL-206
p53
aVOGNL-205
p54
aVOGNL-204
p55
aVOGNL-203
p56
aVOGNL-202
p57
aVOGNL-201
p58
aVOGNL-200
p59
aVOGNL-199
p60
aVOGNL-198
p61
aVOGNL-197
p62
aVOGNL-196
p63
aVOGNL-195
p64
aVOGNL-194
p65
aVOGNL-193
p66
aVOGNL-192
p67
aVOGNL-191
p68
aVOGNL-190
p69
aVOGNL-189
p70
aVOGNL-188
p71
aVOGNL-187
p72
aVOGNL-186
p73
aVOGNL-185
p74
aVOGNL-184
p75
aVOGNL-183
p76
aVOGNL-182
p77
aVOGNL-181
p78
aVOGNL-180
p79
aVOGNL-179
p80
aVOGNL-178
p81
aVOGNL-177
p82
aVOGNL-176
p83
aVOGNL-175
p84
aVOGNL-174
p85
aVOGNL-173
p86
aVOGNL-172
p87
aVOGNL-171
p88
aVOGNL-170
p89
aVOGNL-169
p90
aVOGNL-168
p91
aVOGNL-167
p92
aVOGNL-166
p93
aVOGNL-165
p94
aVOGNL-164
p95
aVOGNL-163
p96
aVOGNL-162
p97
aVOGNL-161
p98
aVOGNL-160
p99
aVOGNL-159
p100
aVOGNL-158
p101
aVOGNL-157
p102
aVOGNL-156
p103
aVOGNL-155
p104
aVOGNL-154
p105
aVOGNL-153
p106
aVOGNL-152
p107
aVOGNL-151
p108
aVOGNL-150
p109
aVOGNL-149
p110
aVOGNL-148
p111
aVOGNL-147
p112
aVOGNL-146
p113
aVOGNL-145
p114
aVOGNL-144
p115
aVOGNL-143
p116
aVOGNL-142
p117
aVOGNL-141
p118
aVOGNL-140
p119
aVOGNL-139
p120
aVOGNL-138
p121
aVOGNL-137
p122
aVOGNL-136
p123
aVOGNL-135
p124
aVOGNL-134
p125
aVOGNL-133
p126
aVOGNL-132
p127
aVOGNL-131
p128
aVOGNL-130
p129
aVOGNL-129
p130
aVOGNL-128
p131
aVOGNL-127
p132
aVOGNL-126
p133
aVOGNL-125
p134
aVOGNL-124
p135
aVOGNL-123
p136
aVOGNL-122
p137
aVOGNL-121
p138
aVOGNL-120
p139
aVOGNL-119
p140
aVOGNL-118
p141
aVOGNL-117
p142
aVOGNL-116
p143
aVOGNL-115
p144
aVOGNL-114
p145
aVOGNL-113
p146
aVOGNL-112
p147
aVOGNL-111
p148
aVOGNL-110
p149
aVOGNL-109
p150
aVOGNL-108
p151
aVOGNL-107
p152
aVOGNL-106
p153
aVOGNL-105
p154
aVOGNL-104
p155
aVOGNL-103
p156
aVOGNL-102
p157
aVOGNL-101
p158
aVOGNL-100
p159
aVOGNL-99
p160
aVOGNL-98
p161
aVOGNL-97
p162
aVOGNL-96
p163
aVOGNL-95
p164
aVOGNL-94
p165
aVOGNL-93
p166
aVOGNL-92
p167
aVOGNL-91
p168
aVOGNL-90
p169
aVOGNL-89
p170
aVOGNL-88
p171
aVOGNL-87
p172
aVOGNL-86
p173
aVOGNL-85
p174
aVOGNL-84
p175
aVOGNL-83
p176
aVOGNL-82
p177
aVOGNL-81
p178
aVOGNL-80
p179
aVOGNL-79
p180
aVOGNL-78
p181
aVOGNL-77
p182
aVOGNL-76
p183
aVOGNL-75
p184
aVOGNL-74
p185
aVOGNL-73
p186
aVOGNL-72
p187
aVOGNL-71
p188
aVOGNL-70
p189
aVOGNL-69
p190
aVOGNL-68
p191
aVOGNL-67
p192
aVOGNL-66
p193
aVOGNL-65
p194
aVOGNL-64
p195
aVOGNL-63
p196
aVOGNL-62
p197
aVOGNL-61
p198
aVOGNL-60
p199
aVOGNL-59
p200
aVOGNL-58
p201
aVOGNL-57
p202
aVOGNL-56
p203
aVOGNL-55
p204
aVOGNL-54
p205
aVOGNL-53
p206
aVOGNL-52
p207
aVOGNL-51
p208
aVOGNL-50
p209
aVOGNL-49
p210
aVOGNL-48
p211
aVOGNL-47
p212
aVOGNL-46
p213
aVOGNL-45
p214
aVOGNL-44
p215
aVOGNL-43
p216
aVOGNL-42
p217
aVOGNL-41
p218
aVOGNL-40
p219
aVOGNL-39
p220
aVOGNL-38
p221
aVOGNL-37
p222
aVOGNL-36
p223
aVOGNL-35
p224
aVOGNL-34
p225
aVOGNL-33
p226
aVOGNL-32
p227
aVOGNL-31
p228
aVOGNL-30
p229
aVOGNL-29
p230
aVOGNL-28
p231
aVOGNL-27
p232
aVOGNL-26
p233
aVOGNL-25
p234
aVOGNL-24
p235
aVOGNL-23
p236
aVOGNL-22
p237
aVOGNL-21
p238
aVOGNL-20
p239
aVOGNL-19
p240
aVOGNL-18
p241
aVOGNL-17
p242
aVOGNL-16
p243
aVOGNL-15
p244
aVOGNL-14
p245
aVOGNL-13
p246
aVOGNL-12
p247
aVOGNL-11
p248
aVOGNL-10
p249
aVOGNL-9
p250
aVOGNL-8
p251
aVOGNL-7
p252
aVOGNL-6
p253
aVOGNL-5
p254
aVOGNL-4
p255
aVOGNL-3
p256
aVOGNL-2
p257
aVOGNL-1
p258
a.