(lp0
VOLTU-218
p1
aVOLTU-217
p2
aVOLTU-216
p3
aVOLTU-215
p4
aVOLTU-214
p5
aVOLTU-213
p6
aVOLTU-211
p7
aVOLTU-209
p8
aVOLTU-208
p9
aVOLTU-207
p10
aVOLTU-206
p11
aVOLTU-205
p12
aVOLTU-204
p13
aVOLTU-203
p14
aVOLTU-202
p15
aVOLTU-201
p16
aVOLTU-200
p17
aVOLTU-199
p18
aVOLTU-198
p19
aVOLTU-197
p20
aVOLTU-196
p21
aVOLTU-195
p22
aVOLTU-194
p23
aVOLTU-193
p24
aVOLTU-192
p25
aVOLTU-191
p26
aVOLTU-190
p27
aVOLTU-189
p28
aVOLTU-188
p29
aVOLTU-187
p30
aVOLTU-186
p31
aVOLTU-185
p32
aVOLTU-184
p33
aVOLTU-183
p34
aVOLTU-182
p35
aVOLTU-181
p36
aVOLTU-180
p37
aVOLTU-179
p38
aVOLTU-178
p39
aVOLTU-177
p40
aVOLTU-176
p41
aVOLTU-175
p42
aVOLTU-174
p43
aVOLTU-173
p44
aVOLTU-172
p45
aVOLTU-171
p46
aVOLTU-170
p47
aVOLTU-169
p48
aVOLTU-168
p49
aVOLTU-167
p50
aVOLTU-166
p51
aVOLTU-165
p52
aVOLTU-164
p53
aVOLTU-163
p54
aVOLTU-162
p55
aVOLTU-161
p56
aVOLTU-160
p57
aVOLTU-159
p58
aVOLTU-158
p59
aVOLTU-157
p60
aVOLTU-156
p61
aVOLTU-155
p62
aVOLTU-154
p63
aVOLTU-153
p64
aVOLTU-152
p65
aVOLTU-151
p66
aVOLTU-150
p67
aVOLTU-149
p68
aVOLTU-148
p69
aVOLTU-147
p70
aVOLTU-146
p71
aVOLTU-145
p72
aVOLTU-144
p73
aVOLTU-143
p74
aVOLTU-142
p75
aVOLTU-141
p76
aVOLTU-140
p77
aVOLTU-139
p78
aVOLTU-138
p79
aVOLTU-137
p80
aVOLTU-136
p81
aVOLTU-135
p82
aVOLTU-134
p83
aVOLTU-133
p84
aVOLTU-132
p85
aVOLTU-131
p86
aVOLTU-130
p87
aVOLTU-129
p88
aVOLTU-128
p89
aVOLTU-127
p90
aVOLTU-126
p91
aVOLTU-125
p92
aVOLTU-124
p93
aVOLTU-123
p94
aVOLTU-122
p95
aVOLTU-121
p96
aVOLTU-120
p97
aVOLTU-119
p98
aVOLTU-118
p99
aVOLTU-117
p100
aVOLTU-116
p101
aVOLTU-115
p102
aVOLTU-114
p103
aVOLTU-113
p104
aVOLTU-112
p105
aVOLTU-111
p106
aVOLTU-110
p107
aVOLTU-109
p108
aVOLTU-108
p109
aVOLTU-107
p110
aVOLTU-106
p111
aVOLTU-105
p112
aVOLTU-104
p113
aVOLTU-103
p114
aVOLTU-102
p115
aVOLTU-101
p116
aVOLTU-100
p117
aVOLTU-99
p118
aVOLTU-98
p119
aVOLTU-97
p120
aVOLTU-96
p121
aVOLTU-95
p122
aVOLTU-94
p123
aVOLTU-93
p124
aVOLTU-92
p125
aVOLTU-91
p126
aVOLTU-90
p127
aVOLTU-89
p128
aVOLTU-88
p129
aVOLTU-87
p130
aVOLTU-86
p131
aVOLTU-85
p132
aVOLTU-84
p133
aVOLTU-83
p134
aVOLTU-82
p135
aVOLTU-81
p136
aVOLTU-80
p137
aVOLTU-79
p138
aVOLTU-78
p139
aVOLTU-77
p140
aVOLTU-76
p141
aVOLTU-75
p142
aVOLTU-74
p143
aVOLTU-73
p144
aVOLTU-72
p145
aVOLTU-71
p146
aVOLTU-70
p147
aVOLTU-69
p148
aVOLTU-68
p149
aVOLTU-67
p150
aVOLTU-66
p151
aVOLTU-65
p152
aVOLTU-64
p153
aVOLTU-63
p154
aVOLTU-62
p155
aVOLTU-61
p156
aVOLTU-60
p157
aVOLTU-59
p158
aVOLTU-58
p159
aVOLTU-57
p160
aVOLTU-56
p161
aVOLTU-55
p162
aVOLTU-54
p163
aVOLTU-53
p164
aVOLTU-52
p165
aVOLTU-51
p166
aVOLTU-50
p167
aVOLTU-49
p168
aVOLTU-48
p169
aVOLTU-47
p170
aVOLTU-46
p171
aVOLTU-45
p172
aVOLTU-44
p173
aVOLTU-43
p174
aVOLTU-42
p175
aVOLTU-41
p176
aVOLTU-40
p177
aVOLTU-39
p178
aVOLTU-38
p179
aVOLTU-37
p180
aVOLTU-36
p181
aVOLTU-35
p182
aVOLTU-34
p183
aVOLTU-33
p184
aVOLTU-32
p185
aVOLTU-31
p186
aVOLTU-30
p187
aVOLTU-29
p188
aVOLTU-28
p189
aVOLTU-27
p190
aVOLTU-26
p191
aVOLTU-25
p192
aVOLTU-24
p193
aVOLTU-23
p194
aVOLTU-22
p195
aVOLTU-21
p196
aVOLTU-20
p197
aVOLTU-19
p198
aVOLTU-18
p199
aVOLTU-17
p200
aVOLTU-16
p201
aVOLTU-15
p202
aVOLTU-14
p203
aVOLTU-13
p204
aVOLTU-12
p205
aVOLTU-11
p206
aVOLTU-10
p207
aVOLTU-9
p208
aVOLTU-8
p209
aVOLTU-7
p210
aVOLTU-6
p211
aVOLTU-5
p212
aVOLTU-4
p213
aVOLTU-3
p214
aVOLTU-2
p215
aVOLTU-1
p216
a.