(lp0
VOODT-988
p1
aVOODT-987
p2
aVOODT-986
p3
aVOODT-985
p4
aVOODT-984
p5
aVOODT-983
p6
aVOODT-982
p7
aVOODT-981
p8
aVOODT-980
p9
aVOODT-979
p10
aVOODT-978
p11
aVOODT-977
p12
aVOODT-976
p13
aVOODT-975
p14
aVOODT-974
p15
aVOODT-973
p16
aVOODT-972
p17
aVOODT-971
p18
aVOODT-970
p19
aVOODT-969
p20
aVOODT-968
p21
aVOODT-967
p22
aVOODT-966
p23
aVOODT-965
p24
aVOODT-964
p25
aVOODT-963
p26
aVOODT-962
p27
aVOODT-961
p28
aVOODT-960
p29
aVOODT-959
p30
aVOODT-958
p31
aVOODT-957
p32
aVOODT-956
p33
aVOODT-955
p34
aVOODT-954
p35
aVOODT-953
p36
aVOODT-952
p37
aVOODT-951
p38
aVOODT-950
p39
aVOODT-949
p40
aVOODT-948
p41
aVOODT-947
p42
aVOODT-946
p43
aVOODT-945
p44
aVOODT-944
p45
aVOODT-943
p46
aVOODT-942
p47
aVOODT-941
p48
aVOODT-940
p49
aVOODT-939
p50
aVOODT-938
p51
aVOODT-937
p52
aVOODT-936
p53
aVOODT-935
p54
aVOODT-934
p55
aVOODT-933
p56
aVOODT-932
p57
aVOODT-931
p58
aVOODT-930
p59
aVOODT-929
p60
aVOODT-928
p61
aVOODT-927
p62
aVOODT-926
p63
aVOODT-925
p64
aVOODT-924
p65
aVOODT-923
p66
aVOODT-922
p67
aVOODT-921
p68
aVOODT-920
p69
aVOODT-919
p70
aVOODT-918
p71
aVOODT-917
p72
aVOODT-916
p73
aVOODT-915
p74
aVOODT-914
p75
aVOODT-913
p76
aVOODT-912
p77
aVOODT-911
p78
aVOODT-910
p79
aVOODT-909
p80
aVOODT-908
p81
aVOODT-907
p82
aVOODT-906
p83
aVOODT-905
p84
aVOODT-904
p85
aVOODT-903
p86
aVOODT-902
p87
aVOODT-901
p88
aVOODT-900
p89
aVOODT-899
p90
aVOODT-898
p91
aVOODT-897
p92
aVOODT-896
p93
aVOODT-895
p94
aVOODT-894
p95
aVOODT-893
p96
aVOODT-892
p97
aVOODT-891
p98
aVOODT-890
p99
aVOODT-889
p100
aVOODT-888
p101
aVOODT-887
p102
aVOODT-886
p103
aVOODT-885
p104
aVOODT-884
p105
aVOODT-883
p106
aVOODT-882
p107
aVOODT-881
p108
aVOODT-880
p109
aVOODT-879
p110
aVOODT-878
p111
aVOODT-877
p112
aVOODT-876
p113
aVOODT-875
p114
aVOODT-874
p115
aVOODT-873
p116
aVOODT-872
p117
aVOODT-871
p118
aVOODT-870
p119
aVOODT-869
p120
aVOODT-868
p121
aVOODT-867
p122
aVOODT-866
p123
aVOODT-865
p124
aVOODT-864
p125
aVOODT-863
p126
aVOODT-862
p127
aVOODT-861
p128
aVOODT-860
p129
aVOODT-859
p130
aVOODT-858
p131
aVOODT-857
p132
aVOODT-856
p133
aVOODT-855
p134
aVOODT-854
p135
aVOODT-853
p136
aVOODT-852
p137
aVOODT-851
p138
aVOODT-850
p139
aVOODT-849
p140
aVOODT-848
p141
aVOODT-847
p142
aVOODT-846
p143
aVOODT-845
p144
aVOODT-844
p145
aVOODT-843
p146
aVOODT-842
p147
aVOODT-841
p148
aVOODT-840
p149
aVOODT-839
p150
aVOODT-838
p151
aVOODT-837
p152
aVOODT-836
p153
aVOODT-835
p154
aVOODT-834
p155
aVOODT-833
p156
aVOODT-832
p157
aVOODT-831
p158
aVOODT-830
p159
aVOODT-829
p160
aVOODT-828
p161
aVOODT-827
p162
aVOODT-826
p163
aVOODT-825
p164
aVOODT-824
p165
aVOODT-823
p166
aVOODT-822
p167
aVOODT-821
p168
aVOODT-820
p169
aVOODT-819
p170
aVOODT-818
p171
aVOODT-817
p172
aVOODT-816
p173
aVOODT-815
p174
aVOODT-814
p175
aVOODT-813
p176
aVOODT-812
p177
aVOODT-811
p178
aVOODT-810
p179
aVOODT-809
p180
aVOODT-808
p181
aVOODT-807
p182
aVOODT-806
p183
aVOODT-805
p184
aVOODT-804
p185
aVOODT-803
p186
aVOODT-802
p187
aVOODT-801
p188
aVOODT-800
p189
aVOODT-799
p190
aVOODT-798
p191
aVOODT-797
p192
aVOODT-796
p193
aVOODT-795
p194
aVOODT-794
p195
aVOODT-793
p196
aVOODT-792
p197
aVOODT-791
p198
aVOODT-790
p199
aVOODT-789
p200
aVOODT-788
p201
aVOODT-787
p202
aVOODT-786
p203
aVOODT-785
p204
aVOODT-784
p205
aVOODT-783
p206
aVOODT-782
p207
aVOODT-781
p208
aVOODT-780
p209
aVOODT-779
p210
aVOODT-778
p211
aVOODT-777
p212
aVOODT-776
p213
aVOODT-775
p214
aVOODT-774
p215
aVOODT-773
p216
aVOODT-772
p217
aVOODT-771
p218
aVOODT-770
p219
aVOODT-769
p220
aVOODT-768
p221
aVOODT-767
p222
aVOODT-766
p223
aVOODT-765
p224
aVOODT-764
p225
aVOODT-763
p226
aVOODT-762
p227
aVOODT-761
p228
aVOODT-760
p229
aVOODT-759
p230
aVOODT-758
p231
aVOODT-757
p232
aVOODT-756
p233
aVOODT-755
p234
aVOODT-754
p235
aVOODT-753
p236
aVOODT-752
p237
aVOODT-751
p238
aVOODT-750
p239
aVOODT-749
p240
aVOODT-748
p241
aVOODT-747
p242
aVOODT-746
p243
aVOODT-745
p244
aVOODT-744
p245
aVOODT-743
p246
aVOODT-742
p247
aVOODT-741
p248
aVOODT-740
p249
aVOODT-739
p250
aVOODT-738
p251
aVOODT-737
p252
aVOODT-736
p253
aVOODT-735
p254
aVOODT-734
p255
aVOODT-733
p256
aVOODT-732
p257
aVOODT-731
p258
aVOODT-730
p259
aVOODT-729
p260
aVOODT-728
p261
aVOODT-727
p262
aVOODT-726
p263
aVOODT-725
p264
aVOODT-724
p265
aVOODT-723
p266
aVOODT-722
p267
aVOODT-721
p268
aVOODT-720
p269
aVOODT-719
p270
aVOODT-718
p271
aVOODT-717
p272
aVOODT-716
p273
aVOODT-715
p274
aVOODT-714
p275
aVOODT-713
p276
aVOODT-712
p277
aVOODT-711
p278
aVOODT-710
p279
aVOODT-709
p280
aVOODT-708
p281
aVOODT-707
p282
aVOODT-706
p283
aVOODT-705
p284
aVOODT-704
p285
aVOODT-703
p286
aVOODT-702
p287
aVOODT-701
p288
aVOODT-700
p289
aVOODT-699
p290
aVOODT-698
p291
aVOODT-697
p292
aVOODT-696
p293
aVOODT-695
p294
aVOODT-694
p295
aVOODT-693
p296
aVOODT-692
p297
aVOODT-691
p298
aVOODT-690
p299
aVOODT-689
p300
aVOODT-688
p301
aVOODT-687
p302
aVOODT-686
p303
aVOODT-685
p304
aVOODT-684
p305
aVOODT-683
p306
aVOODT-682
p307
aVOODT-681
p308
aVOODT-680
p309
aVOODT-679
p310
aVOODT-678
p311
aVOODT-677
p312
aVOODT-676
p313
aVOODT-675
p314
aVOODT-674
p315
aVOODT-673
p316
aVOODT-672
p317
aVOODT-671
p318
aVOODT-670
p319
aVOODT-669
p320
aVOODT-668
p321
aVOODT-667
p322
aVOODT-666
p323
aVOODT-665
p324
aVOODT-664
p325
aVOODT-663
p326
aVOODT-662
p327
aVOODT-661
p328
aVOODT-660
p329
aVOODT-659
p330
aVOODT-658
p331
aVOODT-657
p332
aVOODT-656
p333
aVOODT-655
p334
aVOODT-654
p335
aVOODT-653
p336
aVOODT-652
p337
aVOODT-651
p338
aVOODT-650
p339
aVOODT-649
p340
aVOODT-648
p341
aVOODT-647
p342
aVOODT-646
p343
aVOODT-645
p344
aVOODT-644
p345
aVOODT-643
p346
aVOODT-642
p347
aVOODT-641
p348
aVOODT-640
p349
aVOODT-639
p350
aVOODT-638
p351
aVOODT-637
p352
aVOODT-636
p353
aVOODT-635
p354
aVOODT-634
p355
aVOODT-633
p356
aVOODT-632
p357
aVOODT-631
p358
aVOODT-630
p359
aVOODT-629
p360
aVOODT-628
p361
aVOODT-627
p362
aVOODT-626
p363
aVOODT-625
p364
aVOODT-624
p365
aVOODT-623
p366
aVOODT-622
p367
aVOODT-621
p368
aVOODT-620
p369
aVOODT-619
p370
aVOODT-618
p371
aVOODT-617
p372
aVOODT-616
p373
aVOODT-615
p374
aVOODT-614
p375
aVOODT-613
p376
aVOODT-612
p377
aVOODT-611
p378
aVOODT-610
p379
aVOODT-609
p380
aVOODT-608
p381
aVOODT-607
p382
aVOODT-606
p383
aVOODT-605
p384
aVOODT-604
p385
aVOODT-603
p386
aVOODT-602
p387
aVOODT-601
p388
aVOODT-600
p389
aVOODT-599
p390
aVOODT-598
p391
aVOODT-597
p392
aVOODT-596
p393
aVOODT-595
p394
aVOODT-594
p395
aVOODT-593
p396
aVOODT-592
p397
aVOODT-591
p398
aVOODT-590
p399
aVOODT-589
p400
aVOODT-588
p401
aVOODT-587
p402
aVOODT-586
p403
aVOODT-585
p404
aVOODT-584
p405
aVOODT-583
p406
aVOODT-582
p407
aVOODT-581
p408
aVOODT-580
p409
aVOODT-579
p410
aVOODT-578
p411
aVOODT-577
p412
aVOODT-576
p413
aVOODT-575
p414
aVOODT-574
p415
aVOODT-573
p416
aVOODT-572
p417
aVOODT-571
p418
aVOODT-570
p419
aVOODT-569
p420
aVOODT-568
p421
aVOODT-567
p422
aVOODT-566
p423
aVOODT-565
p424
aVOODT-564
p425
aVOODT-563
p426
aVOODT-562
p427
aVOODT-561
p428
aVOODT-560
p429
aVOODT-559
p430
aVOODT-558
p431
aVOODT-557
p432
aVOODT-556
p433
aVOODT-555
p434
aVOODT-554
p435
aVOODT-553
p436
aVOODT-552
p437
aVOODT-551
p438
aVOODT-550
p439
aVOODT-549
p440
aVOODT-548
p441
aVOODT-547
p442
aVOODT-546
p443
aVOODT-545
p444
aVOODT-544
p445
aVOODT-543
p446
aVOODT-542
p447
aVOODT-541
p448
aVOODT-540
p449
aVOODT-539
p450
aVOODT-538
p451
aVOODT-537
p452
aVOODT-536
p453
aVOODT-535
p454
aVOODT-534
p455
aVOODT-533
p456
aVOODT-532
p457
aVOODT-531
p458
aVOODT-530
p459
aVOODT-529
p460
aVOODT-528
p461
aVOODT-527
p462
aVOODT-526
p463
aVOODT-525
p464
aVOODT-524
p465
aVOODT-523
p466
aVOODT-522
p467
aVOODT-521
p468
aVOODT-520
p469
aVOODT-519
p470
aVOODT-518
p471
aVOODT-517
p472
aVOODT-516
p473
aVOODT-515
p474
aVOODT-514
p475
aVOODT-513
p476
aVOODT-512
p477
aVOODT-511
p478
aVOODT-510
p479
aVOODT-509
p480
aVOODT-508
p481
aVOODT-507
p482
aVOODT-506
p483
aVOODT-505
p484
aVOODT-504
p485
aVOODT-503
p486
aVOODT-502
p487
aVOODT-501
p488
aVOODT-500
p489
aVOODT-499
p490
aVOODT-498
p491
aVOODT-497
p492
aVOODT-496
p493
aVOODT-495
p494
aVOODT-494
p495
aVOODT-493
p496
aVOODT-492
p497
aVOODT-491
p498
aVOODT-490
p499
aVOODT-489
p500
aVOODT-488
p501
aVOODT-487
p502
aVOODT-486
p503
aVOODT-485
p504
aVOODT-484
p505
aVOODT-483
p506
aVOODT-482
p507
aVOODT-481
p508
aVOODT-480
p509
aVOODT-479
p510
aVOODT-478
p511
aVOODT-477
p512
aVOODT-476
p513
aVOODT-475
p514
aVOODT-474
p515
aVOODT-473
p516
aVOODT-472
p517
aVOODT-471
p518
aVOODT-470
p519
aVOODT-469
p520
aVOODT-468
p521
aVOODT-467
p522
aVOODT-466
p523
aVOODT-465
p524
aVOODT-464
p525
aVOODT-463
p526
aVOODT-462
p527
aVOODT-461
p528
aVOODT-460
p529
aVOODT-459
p530
aVOODT-458
p531
aVOODT-457
p532
aVOODT-456
p533
aVOODT-455
p534
aVOODT-454
p535
aVOODT-453
p536
aVOODT-452
p537
aVOODT-451
p538
aVOODT-450
p539
aVOODT-449
p540
aVOODT-448
p541
aVOODT-447
p542
aVOODT-446
p543
aVOODT-445
p544
aVOODT-444
p545
aVOODT-443
p546
aVOODT-442
p547
aVOODT-441
p548
aVOODT-440
p549
aVOODT-439
p550
aVOODT-438
p551
aVOODT-437
p552
aVOODT-436
p553
aVOODT-435
p554
aVOODT-434
p555
aVOODT-433
p556
aVOODT-432
p557
aVOODT-431
p558
aVOODT-430
p559
aVOODT-429
p560
aVOODT-428
p561
aVOODT-427
p562
aVOODT-426
p563
aVOODT-425
p564
aVOODT-424
p565
aVOODT-423
p566
aVOODT-422
p567
aVOODT-421
p568
aVOODT-420
p569
aVOODT-419
p570
aVOODT-418
p571
aVOODT-417
p572
aVOODT-416
p573
aVOODT-415
p574
aVOODT-414
p575
aVOODT-413
p576
aVOODT-412
p577
aVOODT-411
p578
aVOODT-410
p579
aVOODT-409
p580
aVOODT-408
p581
aVOODT-407
p582
aVOODT-406
p583
aVOODT-405
p584
aVOODT-404
p585
aVOODT-403
p586
aVOODT-402
p587
aVOODT-401
p588
aVOODT-400
p589
aVOODT-399
p590
aVOODT-398
p591
aVOODT-397
p592
aVOODT-396
p593
aVOODT-395
p594
aVOODT-394
p595
aVOODT-393
p596
aVOODT-392
p597
aVOODT-391
p598
aVOODT-390
p599
aVOODT-389
p600
aVOODT-388
p601
aVOODT-387
p602
aVOODT-386
p603
aVOODT-385
p604
aVOODT-384
p605
aVOODT-383
p606
aVOODT-382
p607
aVOODT-381
p608
aVOODT-380
p609
aVOODT-379
p610
aVOODT-378
p611
aVOODT-377
p612
aVOODT-376
p613
aVOODT-375
p614
aVOODT-374
p615
aVOODT-373
p616
aVOODT-372
p617
aVOODT-371
p618
aVOODT-370
p619
aVOODT-369
p620
aVOODT-368
p621
aVOODT-367
p622
aVOODT-366
p623
aVOODT-365
p624
aVOODT-364
p625
aVOODT-363
p626
aVOODT-362
p627
aVOODT-361
p628
aVOODT-360
p629
aVOODT-359
p630
aVOODT-358
p631
aVOODT-357
p632
aVOODT-356
p633
aVOODT-355
p634
aVOODT-354
p635
aVOODT-353
p636
aVOODT-352
p637
aVOODT-351
p638
aVOODT-350
p639
aVOODT-349
p640
aVOODT-348
p641
aVOODT-347
p642
aVOODT-346
p643
aVOODT-345
p644
aVOODT-344
p645
aVOODT-343
p646
aVOODT-342
p647
aVOODT-341
p648
aVOODT-340
p649
aVOODT-339
p650
aVOODT-338
p651
aVOODT-337
p652
aVOODT-336
p653
aVOODT-335
p654
aVOODT-334
p655
aVOODT-333
p656
aVOODT-332
p657
aVOODT-331
p658
aVOODT-330
p659
aVOODT-329
p660
aVOODT-328
p661
aVOODT-327
p662
aVOODT-326
p663
aVOODT-325
p664
aVOODT-324
p665
aVOODT-323
p666
aVOODT-322
p667
aVOODT-321
p668
aVOODT-320
p669
aVOODT-319
p670
aVOODT-318
p671
aVOODT-317
p672
aVOODT-316
p673
aVOODT-315
p674
aVOODT-314
p675
aVOODT-313
p676
aVOODT-312
p677
aVOODT-311
p678
aVOODT-310
p679
aVOODT-309
p680
aVOODT-308
p681
aVOODT-307
p682
aVOODT-306
p683
aVOODT-305
p684
aVOODT-304
p685
aVOODT-303
p686
aVOODT-302
p687
aVOODT-301
p688
aVOODT-300
p689
aVOODT-299
p690
aVOODT-298
p691
aVOODT-297
p692
aVOODT-296
p693
aVOODT-295
p694
aVOODT-294
p695
aVOODT-293
p696
aVOODT-292
p697
aVOODT-291
p698
aVOODT-290
p699
aVOODT-289
p700
aVOODT-288
p701
aVOODT-287
p702
aVOODT-286
p703
aVOODT-285
p704
aVOODT-284
p705
aVOODT-283
p706
aVOODT-282
p707
aVOODT-281
p708
aVOODT-280
p709
aVOODT-279
p710
aVOODT-278
p711
aVOODT-277
p712
aVOODT-276
p713
aVOODT-275
p714
aVOODT-274
p715
aVOODT-273
p716
aVOODT-272
p717
aVOODT-271
p718
aVOODT-270
p719
aVOODT-269
p720
aVOODT-268
p721
aVOODT-267
p722
aVOODT-266
p723
aVOODT-265
p724
aVOODT-264
p725
aVOODT-263
p726
aVOODT-262
p727
aVOODT-261
p728
aVOODT-260
p729
aVOODT-259
p730
aVOODT-258
p731
aVOODT-257
p732
aVOODT-256
p733
aVOODT-255
p734
aVOODT-254
p735
aVOODT-253
p736
aVOODT-252
p737
aVOODT-251
p738
aVOODT-250
p739
aVOODT-249
p740
aVOODT-248
p741
aVOODT-247
p742
aVOODT-246
p743
aVOODT-245
p744
aVOODT-244
p745
aVOODT-243
p746
aVOODT-242
p747
aVOODT-241
p748
aVOODT-240
p749
aVOODT-239
p750
aVOODT-238
p751
aVOODT-237
p752
aVOODT-236
p753
aVOODT-235
p754
aVOODT-234
p755
aVOODT-233
p756
aVOODT-232
p757
aVOODT-231
p758
aVOODT-230
p759
aVOODT-229
p760
aVOODT-228
p761
aVOODT-227
p762
aVOODT-226
p763
aVOODT-225
p764
aVOODT-224
p765
aVOODT-223
p766
aVOODT-222
p767
aVOODT-221
p768
aVOODT-220
p769
aVOODT-219
p770
aVOODT-218
p771
aVOODT-217
p772
aVOODT-216
p773
aVOODT-215
p774
aVOODT-214
p775
aVOODT-213
p776
aVOODT-212
p777
aVOODT-211
p778
aVOODT-210
p779
aVOODT-209
p780
aVOODT-208
p781
aVOODT-207
p782
aVOODT-206
p783
aVOODT-205
p784
aVOODT-204
p785
aVOODT-203
p786
aVOODT-202
p787
aVOODT-201
p788
aVOODT-200
p789
aVOODT-199
p790
aVOODT-198
p791
aVOODT-197
p792
aVOODT-196
p793
aVOODT-195
p794
aVOODT-194
p795
aVOODT-193
p796
aVOODT-192
p797
aVOODT-191
p798
aVOODT-190
p799
aVOODT-189
p800
aVOODT-188
p801
aVOODT-187
p802
aVOODT-186
p803
aVOODT-185
p804
aVOODT-184
p805
aVOODT-183
p806
aVOODT-182
p807
aVOODT-181
p808
aVOODT-180
p809
aVOODT-179
p810
aVOODT-178
p811
aVOODT-177
p812
aVOODT-176
p813
aVOODT-175
p814
aVOODT-174
p815
aVOODT-173
p816
aVOODT-172
p817
aVOODT-171
p818
aVOODT-170
p819
aVOODT-169
p820
aVOODT-168
p821
aVOODT-167
p822
aVOODT-166
p823
aVOODT-165
p824
aVOODT-164
p825
aVOODT-163
p826
aVOODT-162
p827
aVOODT-161
p828
aVOODT-160
p829
aVOODT-159
p830
aVOODT-158
p831
aVOODT-157
p832
aVOODT-156
p833
aVOODT-155
p834
aVOODT-154
p835
aVOODT-153
p836
aVOODT-152
p837
aVOODT-151
p838
aVOODT-150
p839
aVOODT-149
p840
aVOODT-148
p841
aVOODT-147
p842
aVOODT-146
p843
aVOODT-145
p844
aVOODT-144
p845
aVOODT-143
p846
aVOODT-142
p847
aVOODT-141
p848
aVOODT-140
p849
aVOODT-139
p850
aVOODT-138
p851
aVOODT-137
p852
aVOODT-136
p853
aVOODT-135
p854
aVOODT-134
p855
aVOODT-133
p856
aVOODT-132
p857
aVOODT-131
p858
aVOODT-130
p859
aVOODT-129
p860
aVOODT-128
p861
aVOODT-127
p862
aVOODT-126
p863
aVOODT-125
p864
aVOODT-124
p865
aVOODT-123
p866
aVOODT-122
p867
aVOODT-121
p868
aVOODT-120
p869
aVOODT-119
p870
aVOODT-118
p871
aVOODT-117
p872
aVOODT-116
p873
aVOODT-115
p874
aVOODT-114
p875
aVOODT-113
p876
aVOODT-112
p877
aVOODT-111
p878
aVOODT-110
p879
aVOODT-109
p880
aVOODT-108
p881
aVOODT-107
p882
aVOODT-106
p883
aVOODT-105
p884
aVOODT-104
p885
aVOODT-103
p886
aVOODT-102
p887
aVOODT-101
p888
aVOODT-100
p889
aVOODT-99
p890
aVOODT-98
p891
aVOODT-97
p892
aVOODT-96
p893
aVOODT-95
p894
aVOODT-94
p895
aVOODT-93
p896
aVOODT-92
p897
aVOODT-91
p898
aVOODT-90
p899
aVOODT-89
p900
aVOODT-88
p901
aVOODT-87
p902
aVOODT-86
p903
aVOODT-85
p904
aVOODT-84
p905
aVOODT-83
p906
aVOODT-82
p907
aVOODT-81
p908
aVOODT-80
p909
aVOODT-79
p910
aVOODT-78
p911
aVOODT-77
p912
aVOODT-76
p913
aVOODT-75
p914
aVOODT-74
p915
aVOODT-73
p916
aVOODT-72
p917
aVOODT-71
p918
aVOODT-70
p919
aVOODT-69
p920
aVOODT-68
p921
aVOODT-67
p922
aVOODT-66
p923
aVOODT-65
p924
aVOODT-64
p925
aVOODT-63
p926
aVOODT-62
p927
aVOODT-61
p928
aVOODT-60
p929
aVOODT-59
p930
aVOODT-58
p931
aVOODT-57
p932
aVOODT-56
p933
aVOODT-55
p934
aVOODT-54
p935
aVOODT-53
p936
aVOODT-52
p937
aVOODT-51
p938
aVOODT-50
p939
aVOODT-49
p940
aVOODT-48
p941
aVOODT-47
p942
aVOODT-46
p943
aVOODT-45
p944
aVOODT-44
p945
aVOODT-43
p946
aVOODT-42
p947
aVOODT-41
p948
aVOODT-40
p949
aVOODT-39
p950
aVOODT-38
p951
aVOODT-37
p952
aVOODT-36
p953
aVOODT-35
p954
aVOODT-34
p955
aVOODT-33
p956
aVOODT-32
p957
aVOODT-31
p958
aVOODT-30
p959
aVOODT-29
p960
aVOODT-28
p961
aVOODT-27
p962
aVOODT-26
p963
aVOODT-25
p964
aVOODT-24
p965
aVOODT-23
p966
aVOODT-22
p967
aVOODT-21
p968
aVOODT-20
p969
aVOODT-19
p970
aVOODT-18
p971
aVOODT-17
p972
aVOODT-16
p973
aVOODT-15
p974
aVOODT-14
p975
aVOODT-13
p976
aVOODT-12
p977
aVOODT-11
p978
aVOODT-10
p979
aVOODT-9
p980
aVOODT-8
p981
aVOODT-7
p982
aVOODT-6
p983
aVOODT-5
p984
aVOODT-4
p985
aVOODT-3
p986
aVOODT-2
p987
aVOODT-1
p988
a.