(lp0
VOOZIE-3319
p1
aVOOZIE-3318
p2
aVOOZIE-3317
p3
aVOOZIE-3316
p4
aVOOZIE-3315
p5
aVOOZIE-3314
p6
aVOOZIE-3313
p7
aVOOZIE-3312
p8
aVOOZIE-3311
p9
aVOOZIE-3310
p10
aVOOZIE-3309
p11
aVOOZIE-3308
p12
aVOOZIE-3307
p13
aVOOZIE-3306
p14
aVOOZIE-3305
p15
aVOOZIE-3304
p16
aVOOZIE-3303
p17
aVOOZIE-3302
p18
aVOOZIE-3301
p19
aVOOZIE-3300
p20
aVOOZIE-3299
p21
aVOOZIE-3298
p22
aVOOZIE-3297
p23
aVOOZIE-3296
p24
aVOOZIE-3295
p25
aVOOZIE-3294
p26
aVOOZIE-3293
p27
aVOOZIE-3292
p28
aVOOZIE-3291
p29
aVOOZIE-3290
p30
aVOOZIE-3289
p31
aVOOZIE-3288
p32
aVOOZIE-3287
p33
aVOOZIE-3286
p34
aVOOZIE-3285
p35
aVOOZIE-3284
p36
aVOOZIE-3283
p37
aVOOZIE-3282
p38
aVOOZIE-3281
p39
aVOOZIE-3280
p40
aVOOZIE-3279
p41
aVOOZIE-3278
p42
aVOOZIE-3277
p43
aVOOZIE-3276
p44
aVOOZIE-3275
p45
aVOOZIE-3274
p46
aVOOZIE-3273
p47
aVOOZIE-3272
p48
aVOOZIE-3271
p49
aVOOZIE-3270
p50
aVOOZIE-3269
p51
aVOOZIE-3268
p52
aVOOZIE-3267
p53
aVOOZIE-3266
p54
aVOOZIE-3265
p55
aVOOZIE-3264
p56
aVOOZIE-3263
p57
aVOOZIE-3262
p58
aVOOZIE-3261
p59
aVOOZIE-3260
p60
aVOOZIE-3259
p61
aVOOZIE-3258
p62
aVOOZIE-3257
p63
aVOOZIE-3256
p64
aVOOZIE-3255
p65
aVOOZIE-3254
p66
aVOOZIE-3253
p67
aVOOZIE-3252
p68
aVOOZIE-3251
p69
aVOOZIE-3250
p70
aVOOZIE-3249
p71
aVOOZIE-3248
p72
aVOOZIE-3247
p73
aVOOZIE-3246
p74
aVOOZIE-3245
p75
aVOOZIE-3244
p76
aVOOZIE-3243
p77
aVOOZIE-3242
p78
aVOOZIE-3241
p79
aVOOZIE-3240
p80
aVOOZIE-3239
p81
aVOOZIE-3238
p82
aVOOZIE-3237
p83
aVOOZIE-3236
p84
aVOOZIE-3235
p85
aVOOZIE-3234
p86
aVOOZIE-3233
p87
aVOOZIE-3232
p88
aVOOZIE-3231
p89
aVOOZIE-3230
p90
aVOOZIE-3229
p91
aVOOZIE-3228
p92
aVOOZIE-3227
p93
aVOOZIE-3226
p94
aVOOZIE-3225
p95
aVOOZIE-3224
p96
aVOOZIE-3223
p97
aVOOZIE-3222
p98
aVOOZIE-3221
p99
aVOOZIE-3220
p100
aVOOZIE-3219
p101
aVOOZIE-3218
p102
aVOOZIE-3217
p103
aVOOZIE-3216
p104
aVOOZIE-3215
p105
aVOOZIE-3214
p106
aVOOZIE-3213
p107
aVOOZIE-3212
p108
aVOOZIE-3211
p109
aVOOZIE-3210
p110
aVOOZIE-3209
p111
aVOOZIE-3208
p112
aVOOZIE-3207
p113
aVOOZIE-3206
p114
aVOOZIE-3205
p115
aVOOZIE-3204
p116
aVOOZIE-3203
p117
aVOOZIE-3202
p118
aVOOZIE-3201
p119
aVOOZIE-3200
p120
aVOOZIE-3199
p121
aVOOZIE-3198
p122
aVOOZIE-3197
p123
aVOOZIE-3196
p124
aVOOZIE-3195
p125
aVOOZIE-3194
p126
aVOOZIE-3193
p127
aVOOZIE-3192
p128
aVOOZIE-3191
p129
aVOOZIE-3190
p130
aVOOZIE-3189
p131
aVOOZIE-3188
p132
aVOOZIE-3187
p133
aVOOZIE-3186
p134
aVOOZIE-3185
p135
aVOOZIE-3184
p136
aVOOZIE-3183
p137
aVOOZIE-3182
p138
aVOOZIE-3181
p139
aVOOZIE-3180
p140
aVOOZIE-3179
p141
aVOOZIE-3178
p142
aVOOZIE-3177
p143
aVOOZIE-3176
p144
aVOOZIE-3175
p145
aVOOZIE-3174
p146
aVOOZIE-3173
p147
aVOOZIE-3172
p148
aVOOZIE-3171
p149
aVOOZIE-3170
p150
aVOOZIE-3169
p151
aVOOZIE-3168
p152
aVOOZIE-3167
p153
aVOOZIE-3166
p154
aVOOZIE-3165
p155
aVOOZIE-3164
p156
aVOOZIE-3163
p157
aVOOZIE-3162
p158
aVOOZIE-3161
p159
aVOOZIE-3160
p160
aVOOZIE-3159
p161
aVOOZIE-3158
p162
aVOOZIE-3157
p163
aVOOZIE-3156
p164
aVOOZIE-3155
p165
aVOOZIE-3154
p166
aVOOZIE-3153
p167
aVOOZIE-3152
p168
aVOOZIE-3151
p169
aVOOZIE-3150
p170
aVOOZIE-3149
p171
aVOOZIE-3148
p172
aVOOZIE-3147
p173
aVOOZIE-3146
p174
aVOOZIE-3145
p175
aVOOZIE-3144
p176
aVOOZIE-3143
p177
aVOOZIE-3142
p178
aVOOZIE-3141
p179
aVOOZIE-3140
p180
aVOOZIE-3139
p181
aVOOZIE-3138
p182
aVOOZIE-3137
p183
aVOOZIE-3136
p184
aVOOZIE-3135
p185
aVOOZIE-3134
p186
aVOOZIE-3133
p187
aVOOZIE-3132
p188
aVOOZIE-3131
p189
aVOOZIE-3130
p190
aVOOZIE-3129
p191
aVOOZIE-3128
p192
aVOOZIE-3127
p193
aVOOZIE-3126
p194
aVOOZIE-3125
p195
aVOOZIE-3124
p196
aVOOZIE-3123
p197
aVOOZIE-3122
p198
aVOOZIE-3121
p199
aVOOZIE-3120
p200
aVOOZIE-3119
p201
aVOOZIE-3118
p202
aVOOZIE-3117
p203
aVOOZIE-3116
p204
aVOOZIE-3115
p205
aVOOZIE-3114
p206
aVOOZIE-3113
p207
aVOOZIE-3112
p208
aVOOZIE-3111
p209
aVOOZIE-3110
p210
aVOOZIE-3109
p211
aVOOZIE-3108
p212
aVOOZIE-3107
p213
aVOOZIE-3106
p214
aVOOZIE-3105
p215
aVOOZIE-3104
p216
aVOOZIE-3103
p217
aVOOZIE-3102
p218
aVOOZIE-3101
p219
aVOOZIE-3100
p220
aVOOZIE-3099
p221
aVOOZIE-3098
p222
aVOOZIE-3097
p223
aVOOZIE-3096
p224
aVOOZIE-3095
p225
aVOOZIE-3094
p226
aVOOZIE-3093
p227
aVOOZIE-3092
p228
aVOOZIE-3091
p229
aVOOZIE-3090
p230
aVOOZIE-3089
p231
aVOOZIE-3088
p232
aVOOZIE-3087
p233
aVOOZIE-3086
p234
aVOOZIE-3085
p235
aVOOZIE-3084
p236
aVOOZIE-3083
p237
aVOOZIE-3082
p238
aVOOZIE-3081
p239
aVOOZIE-3080
p240
aVOOZIE-3079
p241
aVOOZIE-3078
p242
aVOOZIE-3077
p243
aVOOZIE-3076
p244
aVOOZIE-3075
p245
aVOOZIE-3074
p246
aVOOZIE-3073
p247
aVOOZIE-3072
p248
aVOOZIE-3071
p249
aVOOZIE-3070
p250
aVOOZIE-3069
p251
aVOOZIE-3068
p252
aVOOZIE-3067
p253
aVOOZIE-3066
p254
aVOOZIE-3065
p255
aVOOZIE-3064
p256
aVOOZIE-3063
p257
aVOOZIE-3062
p258
aVOOZIE-3061
p259
aVOOZIE-3060
p260
aVOOZIE-3059
p261
aVOOZIE-3058
p262
aVOOZIE-3057
p263
aVOOZIE-3056
p264
aVOOZIE-3055
p265
aVOOZIE-3054
p266
aVOOZIE-3053
p267
aVOOZIE-3052
p268
aVOOZIE-3051
p269
aVOOZIE-3050
p270
aVOOZIE-3049
p271
aVOOZIE-3048
p272
aVOOZIE-3047
p273
aVOOZIE-3046
p274
aVOOZIE-3045
p275
aVOOZIE-3044
p276
aVOOZIE-3043
p277
aVOOZIE-3042
p278
aVOOZIE-3041
p279
aVOOZIE-3040
p280
aVOOZIE-3039
p281
aVOOZIE-3038
p282
aVOOZIE-3037
p283
aVOOZIE-3036
p284
aVOOZIE-3035
p285
aVOOZIE-3034
p286
aVOOZIE-3033
p287
aVOOZIE-3032
p288
aVOOZIE-3031
p289
aVOOZIE-3030
p290
aVOOZIE-3029
p291
aVOOZIE-3028
p292
aVOOZIE-3027
p293
aVOOZIE-3026
p294
aVOOZIE-3025
p295
aVOOZIE-3024
p296
aVOOZIE-3023
p297
aVOOZIE-3022
p298
aVOOZIE-3021
p299
aVOOZIE-3020
p300
aVOOZIE-3019
p301
aVOOZIE-3018
p302
aVOOZIE-3017
p303
aVOOZIE-3016
p304
aVOOZIE-3015
p305
aVOOZIE-3014
p306
aVOOZIE-3013
p307
aVOOZIE-3012
p308
aVOOZIE-3011
p309
aVOOZIE-3010
p310
aVOOZIE-3009
p311
aVOOZIE-3008
p312
aVOOZIE-3007
p313
aVOOZIE-3006
p314
aVOOZIE-3005
p315
aVOOZIE-3004
p316
aVOOZIE-3003
p317
aVOOZIE-3002
p318
aVOOZIE-3001
p319
aVOOZIE-3000
p320
aVOOZIE-2999
p321
aVOOZIE-2998
p322
aVOOZIE-2997
p323
aVOOZIE-2996
p324
aVOOZIE-2995
p325
aVOOZIE-2994
p326
aVOOZIE-2993
p327
aVOOZIE-2992
p328
aVOOZIE-2991
p329
aVOOZIE-2990
p330
aVOOZIE-2989
p331
aVOOZIE-2988
p332
aVOOZIE-2987
p333
aVOOZIE-2986
p334
aVOOZIE-2985
p335
aVOOZIE-2984
p336
aVOOZIE-2983
p337
aVOOZIE-2982
p338
aVOOZIE-2981
p339
aVOOZIE-2980
p340
aVOOZIE-2979
p341
aVOOZIE-2978
p342
aVOOZIE-2977
p343
aVOOZIE-2976
p344
aVOOZIE-2975
p345
aVOOZIE-2974
p346
aVOOZIE-2973
p347
aVOOZIE-2972
p348
aVOOZIE-2971
p349
aVOOZIE-2970
p350
aVOOZIE-2969
p351
aVOOZIE-2968
p352
aVOOZIE-2967
p353
aVOOZIE-2966
p354
aVOOZIE-2965
p355
aVOOZIE-2964
p356
aVOOZIE-2963
p357
aVOOZIE-2962
p358
aVOOZIE-2961
p359
aVOOZIE-2960
p360
aVOOZIE-2959
p361
aVOOZIE-2958
p362
aVOOZIE-2957
p363
aVOOZIE-2956
p364
aVOOZIE-2955
p365
aVOOZIE-2954
p366
aVOOZIE-2953
p367
aVOOZIE-2952
p368
aVOOZIE-2951
p369
aVOOZIE-2950
p370
aVOOZIE-2949
p371
aVOOZIE-2948
p372
aVOOZIE-2947
p373
aVOOZIE-2946
p374
aVOOZIE-2945
p375
aVOOZIE-2944
p376
aVOOZIE-2943
p377
aVOOZIE-2942
p378
aVOOZIE-2941
p379
aVOOZIE-2940
p380
aVOOZIE-2939
p381
aVOOZIE-2938
p382
aVOOZIE-2937
p383
aVOOZIE-2936
p384
aVOOZIE-2935
p385
aVOOZIE-2934
p386
aVOOZIE-2933
p387
aVOOZIE-2932
p388
aVOOZIE-2931
p389
aVOOZIE-2930
p390
aVOOZIE-2929
p391
aVOOZIE-2928
p392
aVOOZIE-2927
p393
aVOOZIE-2926
p394
aVOOZIE-2925
p395
aVOOZIE-2924
p396
aVOOZIE-2923
p397
aVOOZIE-2922
p398
aVOOZIE-2921
p399
aVOOZIE-2920
p400
aVOOZIE-2919
p401
aVOOZIE-2918
p402
aVOOZIE-2917
p403
aVOOZIE-2916
p404
aVOOZIE-2915
p405
aVOOZIE-2914
p406
aVOOZIE-2913
p407
aVOOZIE-2912
p408
aVOOZIE-2911
p409
aVOOZIE-2910
p410
aVOOZIE-2909
p411
aVOOZIE-2908
p412
aVOOZIE-2907
p413
aVOOZIE-2906
p414
aVOOZIE-2905
p415
aVOOZIE-2904
p416
aVOOZIE-2903
p417
aVOOZIE-2902
p418
aVOOZIE-2901
p419
aVOOZIE-2900
p420
aVOOZIE-2899
p421
aVOOZIE-2898
p422
aVOOZIE-2897
p423
aVOOZIE-2896
p424
aVOOZIE-2895
p425
aVOOZIE-2894
p426
aVOOZIE-2893
p427
aVOOZIE-2892
p428
aVOOZIE-2891
p429
aVOOZIE-2890
p430
aVOOZIE-2889
p431
aVOOZIE-2888
p432
aVOOZIE-2887
p433
aVOOZIE-2886
p434
aVOOZIE-2885
p435
aVOOZIE-2884
p436
aVOOZIE-2883
p437
aVOOZIE-2882
p438
aVOOZIE-2881
p439
aVOOZIE-2880
p440
aVOOZIE-2879
p441
aVOOZIE-2878
p442
aVOOZIE-2877
p443
aVOOZIE-2876
p444
aVOOZIE-2875
p445
aVOOZIE-2874
p446
aVOOZIE-2873
p447
aVOOZIE-2872
p448
aVOOZIE-2871
p449
aVOOZIE-2870
p450
aVOOZIE-2869
p451
aVOOZIE-2868
p452
aVOOZIE-2867
p453
aVOOZIE-2866
p454
aVOOZIE-2865
p455
aVOOZIE-2864
p456
aVOOZIE-2863
p457
aVOOZIE-2862
p458
aVOOZIE-2861
p459
aVOOZIE-2860
p460
aVOOZIE-2859
p461
aVOOZIE-2858
p462
aVOOZIE-2857
p463
aVOOZIE-2856
p464
aVOOZIE-2855
p465
aVOOZIE-2854
p466
aVOOZIE-2853
p467
aVOOZIE-2852
p468
aVOOZIE-2851
p469
aVOOZIE-2850
p470
aVOOZIE-2849
p471
aVOOZIE-2848
p472
aVOOZIE-2847
p473
aVOOZIE-2846
p474
aVOOZIE-2845
p475
aVOOZIE-2844
p476
aVOOZIE-2843
p477
aVOOZIE-2842
p478
aVOOZIE-2841
p479
aVOOZIE-2840
p480
aVOOZIE-2839
p481
aVOOZIE-2838
p482
aVOOZIE-2837
p483
aVOOZIE-2836
p484
aVOOZIE-2835
p485
aVOOZIE-2834
p486
aVOOZIE-2833
p487
aVOOZIE-2832
p488
aVOOZIE-2831
p489
aVOOZIE-2830
p490
aVOOZIE-2829
p491
aVOOZIE-2828
p492
aVOOZIE-2827
p493
aVOOZIE-2826
p494
aVOOZIE-2825
p495
aVOOZIE-2824
p496
aVOOZIE-2823
p497
aVOOZIE-2822
p498
aVOOZIE-2821
p499
aVOOZIE-2820
p500
aVOOZIE-2819
p501
aVOOZIE-2818
p502
aVOOZIE-2817
p503
aVOOZIE-2816
p504
aVOOZIE-2815
p505
aVOOZIE-2814
p506
aVOOZIE-2813
p507
aVOOZIE-2812
p508
aVOOZIE-2811
p509
aVOOZIE-2810
p510
aVOOZIE-2809
p511
aVOOZIE-2808
p512
aVOOZIE-2807
p513
aVOOZIE-2806
p514
aVOOZIE-2805
p515
aVOOZIE-2804
p516
aVOOZIE-2803
p517
aVOOZIE-2802
p518
aVOOZIE-2801
p519
aVOOZIE-2800
p520
aVOOZIE-2799
p521
aVOOZIE-2798
p522
aVOOZIE-2797
p523
aVOOZIE-2796
p524
aVOOZIE-2795
p525
aVOOZIE-2794
p526
aVOOZIE-2793
p527
aVOOZIE-2792
p528
aVOOZIE-2791
p529
aVOOZIE-2790
p530
aVOOZIE-2789
p531
aVOOZIE-2788
p532
aVOOZIE-2787
p533
aVOOZIE-2786
p534
aVOOZIE-2785
p535
aVOOZIE-2784
p536
aVOOZIE-2783
p537
aVOOZIE-2782
p538
aVOOZIE-2781
p539
aVOOZIE-2780
p540
aVOOZIE-2779
p541
aVOOZIE-2778
p542
aVOOZIE-2777
p543
aVOOZIE-2776
p544
aVOOZIE-2775
p545
aVOOZIE-2774
p546
aVOOZIE-2773
p547
aVOOZIE-2772
p548
aVOOZIE-2771
p549
aVOOZIE-2770
p550
aVOOZIE-2769
p551
aVOOZIE-2768
p552
aVOOZIE-2767
p553
aVOOZIE-2766
p554
aVOOZIE-2765
p555
aVOOZIE-2764
p556
aVOOZIE-2763
p557
aVOOZIE-2762
p558
aVOOZIE-2761
p559
aVOOZIE-2760
p560
aVOOZIE-2759
p561
aVOOZIE-2758
p562
aVOOZIE-2757
p563
aVOOZIE-2756
p564
aVOOZIE-2755
p565
aVOOZIE-2754
p566
aVOOZIE-2753
p567
aVOOZIE-2752
p568
aVOOZIE-2751
p569
aVOOZIE-2750
p570
aVOOZIE-2749
p571
aVOOZIE-2748
p572
aVOOZIE-2747
p573
aVOOZIE-2746
p574
aVOOZIE-2745
p575
aVOOZIE-2744
p576
aVOOZIE-2743
p577
aVOOZIE-2742
p578
aVOOZIE-2741
p579
aVOOZIE-2740
p580
aVOOZIE-2739
p581
aVOOZIE-2738
p582
aVOOZIE-2737
p583
aVOOZIE-2736
p584
aVOOZIE-2735
p585
aVOOZIE-2734
p586
aVOOZIE-2733
p587
aVOOZIE-2732
p588
aVOOZIE-2731
p589
aVOOZIE-2730
p590
aVOOZIE-2729
p591
aVOOZIE-2728
p592
aVOOZIE-2727
p593
aVOOZIE-2726
p594
aVOOZIE-2725
p595
aVOOZIE-2724
p596
aVOOZIE-2723
p597
aVOOZIE-2722
p598
aVOOZIE-2721
p599
aVOOZIE-2720
p600
aVOOZIE-2719
p601
aVOOZIE-2718
p602
aVOOZIE-2717
p603
aVOOZIE-2716
p604
aVOOZIE-2715
p605
aVOOZIE-2714
p606
aVOOZIE-2713
p607
aVOOZIE-2712
p608
aVOOZIE-2711
p609
aVOOZIE-2710
p610
aVOOZIE-2709
p611
aVOOZIE-2708
p612
aVOOZIE-2707
p613
aVOOZIE-2706
p614
aVOOZIE-2705
p615
aVOOZIE-2704
p616
aVOOZIE-2703
p617
aVOOZIE-2702
p618
aVOOZIE-2701
p619
aVOOZIE-2700
p620
aVOOZIE-2699
p621
aVOOZIE-2698
p622
aVOOZIE-2697
p623
aVOOZIE-2696
p624
aVOOZIE-2695
p625
aVOOZIE-2694
p626
aVOOZIE-2693
p627
aVOOZIE-2692
p628
aVOOZIE-2691
p629
aVOOZIE-2690
p630
aVOOZIE-2689
p631
aVOOZIE-2688
p632
aVOOZIE-2687
p633
aVOOZIE-2686
p634
aVOOZIE-2685
p635
aVOOZIE-2684
p636
aVOOZIE-2683
p637
aVOOZIE-2682
p638
aVOOZIE-2681
p639
aVOOZIE-2680
p640
aVOOZIE-2679
p641
aVOOZIE-2678
p642
aVOOZIE-2677
p643
aVOOZIE-2676
p644
aVOOZIE-2675
p645
aVOOZIE-2674
p646
aVOOZIE-2673
p647
aVOOZIE-2672
p648
aVOOZIE-2671
p649
aVOOZIE-2670
p650
aVOOZIE-2669
p651
aVOOZIE-2668
p652
aVOOZIE-2667
p653
aVOOZIE-2666
p654
aVOOZIE-2665
p655
aVOOZIE-2664
p656
aVOOZIE-2663
p657
aVOOZIE-2662
p658
aVOOZIE-2661
p659
aVOOZIE-2660
p660
aVOOZIE-2659
p661
aVOOZIE-2658
p662
aVOOZIE-2657
p663
aVOOZIE-2656
p664
aVOOZIE-2655
p665
aVOOZIE-2654
p666
aVOOZIE-2653
p667
aVOOZIE-2652
p668
aVOOZIE-2651
p669
aVOOZIE-2650
p670
aVOOZIE-2649
p671
aVOOZIE-2648
p672
aVOOZIE-2647
p673
aVOOZIE-2646
p674
aVOOZIE-2645
p675
aVOOZIE-2644
p676
aVOOZIE-2643
p677
aVOOZIE-2642
p678
aVOOZIE-2641
p679
aVOOZIE-2640
p680
aVOOZIE-2639
p681
aVOOZIE-2638
p682
aVOOZIE-2637
p683
aVOOZIE-2636
p684
aVOOZIE-2635
p685
aVOOZIE-2634
p686
aVOOZIE-2633
p687
aVOOZIE-2632
p688
aVOOZIE-2631
p689
aVOOZIE-2630
p690
aVOOZIE-2629
p691
aVOOZIE-2628
p692
aVOOZIE-2627
p693
aVOOZIE-2626
p694
aVOOZIE-2625
p695
aVOOZIE-2624
p696
aVOOZIE-2623
p697
aVOOZIE-2622
p698
aVOOZIE-2621
p699
aVOOZIE-2620
p700
aVOOZIE-2619
p701
aVOOZIE-2618
p702
aVOOZIE-2617
p703
aVOOZIE-2616
p704
aVOOZIE-2615
p705
aVOOZIE-2614
p706
aVOOZIE-2613
p707
aVOOZIE-2612
p708
aVOOZIE-2611
p709
aVOOZIE-2610
p710
aVOOZIE-2609
p711
aVOOZIE-2608
p712
aVOOZIE-2607
p713
aVOOZIE-2606
p714
aVOOZIE-2605
p715
aVOOZIE-2604
p716
aVOOZIE-2603
p717
aVOOZIE-2602
p718
aVOOZIE-2601
p719
aVOOZIE-2600
p720
aVOOZIE-2599
p721
aVOOZIE-2598
p722
aVOOZIE-2597
p723
aVOOZIE-2596
p724
aVOOZIE-2595
p725
aVOOZIE-2594
p726
aVOOZIE-2593
p727
aVOOZIE-2592
p728
aVOOZIE-2591
p729
aVOOZIE-2590
p730
aVOOZIE-2589
p731
aVOOZIE-2588
p732
aVOOZIE-2587
p733
aVOOZIE-2586
p734
aVOOZIE-2585
p735
aVOOZIE-2584
p736
aVOOZIE-2583
p737
aVOOZIE-2582
p738
aVOOZIE-2581
p739
aVOOZIE-2580
p740
aVOOZIE-2579
p741
aVOOZIE-2578
p742
aVOOZIE-2577
p743
aVOOZIE-2576
p744
aVOOZIE-2575
p745
aVOOZIE-2574
p746
aVOOZIE-2573
p747
aVOOZIE-2572
p748
aVOOZIE-2571
p749
aVOOZIE-2570
p750
aVOOZIE-2569
p751
aVOOZIE-2568
p752
aVOOZIE-2567
p753
aVOOZIE-2566
p754
aVOOZIE-2565
p755
aVOOZIE-2564
p756
aVOOZIE-2563
p757
aVOOZIE-2562
p758
aVOOZIE-2561
p759
aVOOZIE-2560
p760
aVOOZIE-2559
p761
aVOOZIE-2558
p762
aVOOZIE-2557
p763
aVOOZIE-2556
p764
aVOOZIE-2555
p765
aVOOZIE-2554
p766
aVOOZIE-2553
p767
aVOOZIE-2552
p768
aVOOZIE-2551
p769
aVOOZIE-2550
p770
aVOOZIE-2549
p771
aVOOZIE-2548
p772
aVOOZIE-2547
p773
aVOOZIE-2546
p774
aVOOZIE-2545
p775
aVOOZIE-2544
p776
aVOOZIE-2543
p777
aVOOZIE-2542
p778
aVOOZIE-2541
p779
aVOOZIE-2540
p780
aVOOZIE-2539
p781
aVOOZIE-2538
p782
aVOOZIE-2537
p783
aVOOZIE-2536
p784
aVOOZIE-2535
p785
aVOOZIE-2534
p786
aVOOZIE-2533
p787
aVOOZIE-2532
p788
aVOOZIE-2531
p789
aVOOZIE-2530
p790
aVOOZIE-2529
p791
aVOOZIE-2528
p792
aVOOZIE-2527
p793
aVOOZIE-2526
p794
aVOOZIE-2525
p795
aVOOZIE-2524
p796
aVOOZIE-2523
p797
aVOOZIE-2522
p798
aVOOZIE-2521
p799
aVOOZIE-2520
p800
aVOOZIE-2519
p801
aVOOZIE-2518
p802
aVOOZIE-2517
p803
aVOOZIE-2516
p804
aVOOZIE-2515
p805
aVOOZIE-2514
p806
aVOOZIE-2513
p807
aVOOZIE-2512
p808
aVOOZIE-2511
p809
aVOOZIE-2510
p810
aVOOZIE-2509
p811
aVOOZIE-2508
p812
aVOOZIE-2507
p813
aVOOZIE-2506
p814
aVOOZIE-2505
p815
aVOOZIE-2504
p816
aVOOZIE-2503
p817
aVOOZIE-2502
p818
aVOOZIE-2501
p819
aVOOZIE-2500
p820
aVOOZIE-2499
p821
aVOOZIE-2498
p822
aVOOZIE-2497
p823
aVOOZIE-2496
p824
aVOOZIE-2495
p825
aVOOZIE-2494
p826
aVOOZIE-2493
p827
aVOOZIE-2492
p828
aVOOZIE-2491
p829
aVOOZIE-2490
p830
aVOOZIE-2489
p831
aVOOZIE-2488
p832
aVOOZIE-2487
p833
aVOOZIE-2486
p834
aVOOZIE-2485
p835
aVOOZIE-2484
p836
aVOOZIE-2483
p837
aVOOZIE-2482
p838
aVOOZIE-2481
p839
aVOOZIE-2480
p840
aVOOZIE-2479
p841
aVOOZIE-2478
p842
aVOOZIE-2477
p843
aVOOZIE-2476
p844
aVOOZIE-2475
p845
aVOOZIE-2474
p846
aVOOZIE-2473
p847
aVOOZIE-2472
p848
aVOOZIE-2471
p849
aVOOZIE-2470
p850
aVOOZIE-2469
p851
aVOOZIE-2468
p852
aVOOZIE-2467
p853
aVOOZIE-2466
p854
aVOOZIE-2465
p855
aVOOZIE-2464
p856
aVOOZIE-2463
p857
aVOOZIE-2462
p858
aVOOZIE-2461
p859
aVOOZIE-2460
p860
aVOOZIE-2459
p861
aVOOZIE-2458
p862
aVOOZIE-2457
p863
aVOOZIE-2456
p864
aVOOZIE-2455
p865
aVOOZIE-2454
p866
aVOOZIE-2453
p867
aVOOZIE-2452
p868
aVOOZIE-2451
p869
aVOOZIE-2450
p870
aVOOZIE-2449
p871
aVOOZIE-2448
p872
aVOOZIE-2447
p873
aVOOZIE-2446
p874
aVOOZIE-2445
p875
aVOOZIE-2444
p876
aVOOZIE-2443
p877
aVOOZIE-2442
p878
aVOOZIE-2441
p879
aVOOZIE-2440
p880
aVOOZIE-2439
p881
aVOOZIE-2438
p882
aVOOZIE-2437
p883
aVOOZIE-2436
p884
aVOOZIE-2435
p885
aVOOZIE-2434
p886
aVOOZIE-2433
p887
aVOOZIE-2432
p888
aVOOZIE-2431
p889
aVOOZIE-2430
p890
aVOOZIE-2429
p891
aVOOZIE-2428
p892
aVOOZIE-2427
p893
aVOOZIE-2426
p894
aVOOZIE-2425
p895
aVOOZIE-2424
p896
aVOOZIE-2423
p897
aVOOZIE-2422
p898
aVOOZIE-2421
p899
aVOOZIE-2420
p900
aVOOZIE-2419
p901
aVOOZIE-2418
p902
aVOOZIE-2417
p903
aVOOZIE-2416
p904
aVOOZIE-2415
p905
aVOOZIE-2414
p906
aVOOZIE-2413
p907
aVOOZIE-2412
p908
aVOOZIE-2411
p909
aVOOZIE-2410
p910
aVOOZIE-2409
p911
aVOOZIE-2408
p912
aVOOZIE-2407
p913
aVOOZIE-2406
p914
aVOOZIE-2405
p915
aVOOZIE-2404
p916
aVOOZIE-2403
p917
aVOOZIE-2402
p918
aVOOZIE-2401
p919
aVOOZIE-2400
p920
aVOOZIE-2399
p921
aVOOZIE-2398
p922
aVOOZIE-2397
p923
aVOOZIE-2396
p924
aVOOZIE-2395
p925
aVOOZIE-2394
p926
aVOOZIE-2393
p927
aVOOZIE-2392
p928
aVOOZIE-2391
p929
aVOOZIE-2390
p930
aVOOZIE-2389
p931
aVOOZIE-2388
p932
aVOOZIE-2387
p933
aVOOZIE-2386
p934
aVOOZIE-2385
p935
aVOOZIE-2384
p936
aVOOZIE-2383
p937
aVOOZIE-2382
p938
aVOOZIE-2381
p939
aVOOZIE-2380
p940
aVOOZIE-2379
p941
aVOOZIE-2378
p942
aVOOZIE-2377
p943
aVOOZIE-2376
p944
aVOOZIE-2375
p945
aVOOZIE-2374
p946
aVOOZIE-2373
p947
aVOOZIE-2372
p948
aVOOZIE-2371
p949
aVOOZIE-2370
p950
aVOOZIE-2369
p951
aVOOZIE-2368
p952
aVOOZIE-2367
p953
aVOOZIE-2366
p954
aVOOZIE-2365
p955
aVOOZIE-2364
p956
aVOOZIE-2363
p957
aVOOZIE-2362
p958
aVOOZIE-2361
p959
aVOOZIE-2360
p960
aVOOZIE-2359
p961
aVOOZIE-2358
p962
aVOOZIE-2357
p963
aVOOZIE-2356
p964
aVOOZIE-2355
p965
aVOOZIE-2354
p966
aVOOZIE-2353
p967
aVOOZIE-2352
p968
aVOOZIE-2351
p969
aVOOZIE-2350
p970
aVOOZIE-2349
p971
aVOOZIE-2348
p972
aVOOZIE-2347
p973
aVOOZIE-2346
p974
aVOOZIE-2345
p975
aVOOZIE-2344
p976
aVOOZIE-2343
p977
aVOOZIE-2342
p978
aVOOZIE-2341
p979
aVOOZIE-2340
p980
aVOOZIE-2339
p981
aVOOZIE-2338
p982
aVOOZIE-2337
p983
aVOOZIE-2336
p984
aVOOZIE-2335
p985
aVOOZIE-2334
p986
aVOOZIE-2333
p987
aVOOZIE-2332
p988
aVOOZIE-2331
p989
aVOOZIE-2330
p990
aVOOZIE-2329
p991
aVOOZIE-2328
p992
aVOOZIE-2327
p993
aVOOZIE-2326
p994
aVOOZIE-2325
p995
aVOOZIE-2324
p996
aVOOZIE-2323
p997
aVOOZIE-2322
p998
aVOOZIE-2321
p999
aVOOZIE-2320
p1000
aVOOZIE-2319
p1001
aVOOZIE-2318
p1002
aVOOZIE-2317
p1003
aVOOZIE-2316
p1004
aVOOZIE-2315
p1005
aVOOZIE-2314
p1006
aVOOZIE-2313
p1007
aVOOZIE-2312
p1008
aVOOZIE-2311
p1009
aVOOZIE-2310
p1010
aVOOZIE-2309
p1011
aVOOZIE-2308
p1012
aVOOZIE-2307
p1013
aVOOZIE-2306
p1014
aVOOZIE-2305
p1015
aVOOZIE-2304
p1016
aVOOZIE-2303
p1017
aVOOZIE-2302
p1018
aVOOZIE-2301
p1019
aVOOZIE-2300
p1020
aVOOZIE-2299
p1021
aVOOZIE-2298
p1022
aVOOZIE-2297
p1023
aVOOZIE-2296
p1024
aVOOZIE-2295
p1025
aVOOZIE-2294
p1026
aVOOZIE-2293
p1027
aVOOZIE-2292
p1028
aVOOZIE-2291
p1029
aVOOZIE-2290
p1030
aVOOZIE-2289
p1031
aVOOZIE-2288
p1032
aVOOZIE-2287
p1033
aVOOZIE-2286
p1034
aVOOZIE-2285
p1035
aVOOZIE-2284
p1036
aVOOZIE-2283
p1037
aVOOZIE-2282
p1038
aVOOZIE-2281
p1039
aVOOZIE-2280
p1040
aVOOZIE-2279
p1041
aVOOZIE-2278
p1042
aVOOZIE-2277
p1043
aVOOZIE-2276
p1044
aVOOZIE-2275
p1045
aVOOZIE-2274
p1046
aVOOZIE-2273
p1047
aVOOZIE-2272
p1048
aVOOZIE-2271
p1049
aVOOZIE-2270
p1050
aVOOZIE-2269
p1051
aVOOZIE-2268
p1052
aVOOZIE-2267
p1053
aVOOZIE-2266
p1054
aVOOZIE-2265
p1055
aVOOZIE-2264
p1056
aVOOZIE-2263
p1057
aVOOZIE-2262
p1058
aVOOZIE-2260
p1059
aVOOZIE-2259
p1060
aVOOZIE-2258
p1061
aVOOZIE-2257
p1062
aVOOZIE-2256
p1063
aVOOZIE-2255
p1064
aVOOZIE-2254
p1065
aVOOZIE-2253
p1066
aVOOZIE-2252
p1067
aVOOZIE-2251
p1068
aVOOZIE-2250
p1069
aVOOZIE-2249
p1070
aVOOZIE-2248
p1071
aVOOZIE-2247
p1072
aVOOZIE-2246
p1073
aVOOZIE-2245
p1074
aVOOZIE-2244
p1075
aVOOZIE-2243
p1076
aVOOZIE-2242
p1077
aVOOZIE-2241
p1078
aVOOZIE-2240
p1079
aVOOZIE-2239
p1080
aVOOZIE-2238
p1081
aVOOZIE-2237
p1082
aVOOZIE-2236
p1083
aVOOZIE-2235
p1084
aVOOZIE-2234
p1085
aVOOZIE-2233
p1086
aVOOZIE-2232
p1087
aVOOZIE-2231
p1088
aVOOZIE-2230
p1089
aVOOZIE-2229
p1090
aVOOZIE-2228
p1091
aVOOZIE-2227
p1092
aVOOZIE-2226
p1093
aVOOZIE-2225
p1094
aVOOZIE-2224
p1095
aVOOZIE-2223
p1096
aVOOZIE-2222
p1097
aVOOZIE-2221
p1098
aVOOZIE-2220
p1099
aVOOZIE-2219
p1100
aVOOZIE-2218
p1101
aVOOZIE-2217
p1102
aVOOZIE-2216
p1103
aVOOZIE-2215
p1104
aVOOZIE-2214
p1105
aVOOZIE-2213
p1106
aVOOZIE-2212
p1107
aVOOZIE-2211
p1108
aVOOZIE-2210
p1109
aVOOZIE-2209
p1110
aVOOZIE-2208
p1111
aVOOZIE-2207
p1112
aVOOZIE-2206
p1113
aVOOZIE-2205
p1114
aVOOZIE-2204
p1115
aVOOZIE-2203
p1116
aVOOZIE-2202
p1117
aVOOZIE-2201
p1118
aVOOZIE-2200
p1119
aVOOZIE-2199
p1120
aVOOZIE-2198
p1121
aVOOZIE-2197
p1122
aVOOZIE-2196
p1123
aVOOZIE-2195
p1124
aVOOZIE-2194
p1125
aVOOZIE-2193
p1126
aVOOZIE-2192
p1127
aVOOZIE-2191
p1128
aVOOZIE-2190
p1129
aVOOZIE-2189
p1130
aVOOZIE-2188
p1131
aVOOZIE-2187
p1132
aVOOZIE-2186
p1133
aVOOZIE-2185
p1134
aVOOZIE-2184
p1135
aVOOZIE-2183
p1136
aVOOZIE-2182
p1137
aVOOZIE-2181
p1138
aVOOZIE-2180
p1139
aVOOZIE-2179
p1140
aVOOZIE-2178
p1141
aVOOZIE-2177
p1142
aVOOZIE-2176
p1143
aVOOZIE-2175
p1144
aVOOZIE-2174
p1145
aVOOZIE-2173
p1146
aVOOZIE-2172
p1147
aVOOZIE-2171
p1148
aVOOZIE-2170
p1149
aVOOZIE-2169
p1150
aVOOZIE-2168
p1151
aVOOZIE-2167
p1152
aVOOZIE-2166
p1153
aVOOZIE-2165
p1154
aVOOZIE-2164
p1155
aVOOZIE-2163
p1156
aVOOZIE-2162
p1157
aVOOZIE-2161
p1158
aVOOZIE-2160
p1159
aVOOZIE-2159
p1160
aVOOZIE-2158
p1161
aVOOZIE-2157
p1162
aVOOZIE-2156
p1163
aVOOZIE-2155
p1164
aVOOZIE-2154
p1165
aVOOZIE-2153
p1166
aVOOZIE-2152
p1167
aVOOZIE-2151
p1168
aVOOZIE-2150
p1169
aVOOZIE-2149
p1170
aVOOZIE-2148
p1171
aVOOZIE-2147
p1172
aVOOZIE-2146
p1173
aVOOZIE-2145
p1174
aVOOZIE-2144
p1175
aVOOZIE-2143
p1176
aVOOZIE-2142
p1177
aVOOZIE-2141
p1178
aVOOZIE-2140
p1179
aVOOZIE-2139
p1180
aVOOZIE-2138
p1181
aVOOZIE-2137
p1182
aVOOZIE-2136
p1183
aVOOZIE-2135
p1184
aVOOZIE-2134
p1185
aVOOZIE-2133
p1186
aVOOZIE-2132
p1187
aVOOZIE-2131
p1188
aVOOZIE-2130
p1189
aVOOZIE-2129
p1190
aVOOZIE-2128
p1191
aVOOZIE-2127
p1192
aVOOZIE-2126
p1193
aVOOZIE-2125
p1194
aVOOZIE-2124
p1195
aVOOZIE-2123
p1196
aVOOZIE-2122
p1197
aVOOZIE-2121
p1198
aVOOZIE-2120
p1199
aVOOZIE-2119
p1200
aVOOZIE-2118
p1201
aVOOZIE-2117
p1202
aVOOZIE-2116
p1203
aVOOZIE-2115
p1204
aVOOZIE-2114
p1205
aVOOZIE-2113
p1206
aVOOZIE-2112
p1207
aVOOZIE-2111
p1208
aVOOZIE-2110
p1209
aVOOZIE-2109
p1210
aVOOZIE-2108
p1211
aVOOZIE-2107
p1212
aVOOZIE-2106
p1213
aVOOZIE-2105
p1214
aVOOZIE-2104
p1215
aVOOZIE-2103
p1216
aVOOZIE-2102
p1217
aVOOZIE-2101
p1218
aVOOZIE-2100
p1219
aVOOZIE-2099
p1220
aVOOZIE-2098
p1221
aVOOZIE-2097
p1222
aVOOZIE-2096
p1223
aVOOZIE-2095
p1224
aVOOZIE-2094
p1225
aVOOZIE-2093
p1226
aVOOZIE-2092
p1227
aVOOZIE-2091
p1228
aVOOZIE-2090
p1229
aVOOZIE-2089
p1230
aVOOZIE-2088
p1231
aVOOZIE-2087
p1232
aVOOZIE-2086
p1233
aVOOZIE-2085
p1234
aVOOZIE-2084
p1235
aVOOZIE-2083
p1236
aVOOZIE-2082
p1237
aVOOZIE-2081
p1238
aVOOZIE-2080
p1239
aVOOZIE-2079
p1240
aVOOZIE-2078
p1241
aVOOZIE-2077
p1242
aVOOZIE-2076
p1243
aVOOZIE-2075
p1244
aVOOZIE-2074
p1245
aVOOZIE-2073
p1246
aVOOZIE-2072
p1247
aVOOZIE-2071
p1248
aVOOZIE-2070
p1249
aVOOZIE-2069
p1250
aVOOZIE-2068
p1251
aVOOZIE-2067
p1252
aVOOZIE-2066
p1253
aVOOZIE-2065
p1254
aVOOZIE-2064
p1255
aVOOZIE-2063
p1256
aVOOZIE-2062
p1257
aVOOZIE-2061
p1258
aVOOZIE-2060
p1259
aVOOZIE-2059
p1260
aVOOZIE-2058
p1261
aVOOZIE-2057
p1262
aVOOZIE-2056
p1263
aVOOZIE-2055
p1264
aVOOZIE-2054
p1265
aVOOZIE-2053
p1266
aVOOZIE-2052
p1267
aVOOZIE-2051
p1268
aVOOZIE-2050
p1269
aVOOZIE-2049
p1270
aVOOZIE-2048
p1271
aVOOZIE-2047
p1272
aVOOZIE-2046
p1273
aVOOZIE-2045
p1274
aVOOZIE-2044
p1275
aVOOZIE-2043
p1276
aVOOZIE-2042
p1277
aVOOZIE-2041
p1278
aVOOZIE-2040
p1279
aVOOZIE-2039
p1280
aVOOZIE-2038
p1281
aVOOZIE-2037
p1282
aVOOZIE-2036
p1283
aVOOZIE-2035
p1284
aVOOZIE-2034
p1285
aVOOZIE-2033
p1286
aVOOZIE-2032
p1287
aVOOZIE-2031
p1288
aVOOZIE-2030
p1289
aVOOZIE-2029
p1290
aVOOZIE-2028
p1291
aVOOZIE-2027
p1292
aVOOZIE-2026
p1293
aVOOZIE-2025
p1294
aVOOZIE-2024
p1295
aVOOZIE-2023
p1296
aVOOZIE-2022
p1297
aVOOZIE-2021
p1298
aVOOZIE-2020
p1299
aVOOZIE-2019
p1300
aVOOZIE-2018
p1301
aVOOZIE-2017
p1302
aVOOZIE-2016
p1303
aVOOZIE-2015
p1304
aVOOZIE-2014
p1305
aVOOZIE-2013
p1306
aVOOZIE-2012
p1307
aVOOZIE-2011
p1308
aVOOZIE-2010
p1309
aVOOZIE-2009
p1310
aVOOZIE-2008
p1311
aVOOZIE-2007
p1312
aVOOZIE-2006
p1313
aVOOZIE-2005
p1314
aVOOZIE-2004
p1315
aVOOZIE-2003
p1316
aVOOZIE-2002
p1317
aVOOZIE-2001
p1318
aVOOZIE-2000
p1319
aVOOZIE-1999
p1320
aVOOZIE-1998
p1321
aVOOZIE-1997
p1322
aVOOZIE-1996
p1323
aVOOZIE-1995
p1324
aVOOZIE-1994
p1325
aVOOZIE-1993
p1326
aVOOZIE-1992
p1327
aVOOZIE-1991
p1328
aVOOZIE-1990
p1329
aVOOZIE-1989
p1330
aVOOZIE-1988
p1331
aVOOZIE-1987
p1332
aVOOZIE-1986
p1333
aVOOZIE-1985
p1334
aVOOZIE-1984
p1335
aVOOZIE-1983
p1336
aVOOZIE-1982
p1337
aVOOZIE-1981
p1338
aVOOZIE-1980
p1339
aVOOZIE-1979
p1340
aVOOZIE-1978
p1341
aVOOZIE-1977
p1342
aVOOZIE-1976
p1343
aVOOZIE-1975
p1344
aVOOZIE-1974
p1345
aVOOZIE-1973
p1346
aVOOZIE-1972
p1347
aVOOZIE-1971
p1348
aVOOZIE-1970
p1349
aVOOZIE-1969
p1350
aVOOZIE-1968
p1351
aVOOZIE-1967
p1352
aVOOZIE-1966
p1353
aVOOZIE-1965
p1354
aVOOZIE-1964
p1355
aVOOZIE-1963
p1356
aVOOZIE-1962
p1357
aVOOZIE-1961
p1358
aVOOZIE-1960
p1359
aVOOZIE-1959
p1360
aVOOZIE-1958
p1361
aVOOZIE-1957
p1362
aVOOZIE-1956
p1363
aVOOZIE-1955
p1364
aVOOZIE-1954
p1365
aVOOZIE-1953
p1366
aVOOZIE-1952
p1367
aVOOZIE-1951
p1368
aVOOZIE-1950
p1369
aVOOZIE-1949
p1370
aVOOZIE-1948
p1371
aVOOZIE-1947
p1372
aVOOZIE-1946
p1373
aVOOZIE-1945
p1374
aVOOZIE-1944
p1375
aVOOZIE-1943
p1376
aVOOZIE-1942
p1377
aVOOZIE-1941
p1378
aVOOZIE-1940
p1379
aVOOZIE-1939
p1380
aVOOZIE-1938
p1381
aVOOZIE-1937
p1382
aVOOZIE-1936
p1383
aVOOZIE-1935
p1384
aVOOZIE-1934
p1385
aVOOZIE-1933
p1386
aVOOZIE-1932
p1387
aVOOZIE-1931
p1388
aVOOZIE-1930
p1389
aVOOZIE-1929
p1390
aVOOZIE-1928
p1391
aVOOZIE-1927
p1392
aVOOZIE-1926
p1393
aVOOZIE-1925
p1394
aVOOZIE-1924
p1395
aVOOZIE-1923
p1396
aVOOZIE-1922
p1397
aVOOZIE-1921
p1398
aVOOZIE-1920
p1399
aVOOZIE-1919
p1400
aVOOZIE-1918
p1401
aVOOZIE-1917
p1402
aVOOZIE-1916
p1403
aVOOZIE-1915
p1404
aVOOZIE-1914
p1405
aVOOZIE-1913
p1406
aVOOZIE-1912
p1407
aVOOZIE-1911
p1408
aVOOZIE-1910
p1409
aVOOZIE-1909
p1410
aVOOZIE-1908
p1411
aVOOZIE-1907
p1412
aVOOZIE-1906
p1413
aVOOZIE-1905
p1414
aVOOZIE-1904
p1415
aVOOZIE-1903
p1416
aVOOZIE-1902
p1417
aVOOZIE-1901
p1418
aVOOZIE-1900
p1419
aVOOZIE-1899
p1420
aVOOZIE-1898
p1421
aVOOZIE-1897
p1422
aVOOZIE-1896
p1423
aVOOZIE-1895
p1424
aVOOZIE-1894
p1425
aVOOZIE-1893
p1426
aVOOZIE-1892
p1427
aVOOZIE-1891
p1428
aVOOZIE-1890
p1429
aVOOZIE-1889
p1430
aVOOZIE-1888
p1431
aVOOZIE-1887
p1432
aVOOZIE-1886
p1433
aVOOZIE-1885
p1434
aVOOZIE-1884
p1435
aVOOZIE-1883
p1436
aVOOZIE-1882
p1437
aVOOZIE-1881
p1438
aVOOZIE-1880
p1439
aVOOZIE-1879
p1440
aVOOZIE-1878
p1441
aVOOZIE-1877
p1442
aVOOZIE-1876
p1443
aVOOZIE-1875
p1444
aVOOZIE-1874
p1445
aVOOZIE-1873
p1446
aVOOZIE-1872
p1447
aVOOZIE-1871
p1448
aVOOZIE-1870
p1449
aVOOZIE-1869
p1450
aVOOZIE-1868
p1451
aVOOZIE-1867
p1452
aVOOZIE-1866
p1453
aVOOZIE-1865
p1454
aVOOZIE-1864
p1455
aVOOZIE-1863
p1456
aVOOZIE-1862
p1457
aVOOZIE-1861
p1458
aVOOZIE-1860
p1459
aVOOZIE-1859
p1460
aVOOZIE-1858
p1461
aVOOZIE-1857
p1462
aVOOZIE-1856
p1463
aVOOZIE-1855
p1464
aVOOZIE-1854
p1465
aVOOZIE-1853
p1466
aVOOZIE-1852
p1467
aVOOZIE-1851
p1468
aVOOZIE-1850
p1469
aVOOZIE-1849
p1470
aVOOZIE-1848
p1471
aVOOZIE-1847
p1472
aVOOZIE-1846
p1473
aVOOZIE-1845
p1474
aVOOZIE-1844
p1475
aVOOZIE-1843
p1476
aVOOZIE-1842
p1477
aVOOZIE-1841
p1478
aVOOZIE-1840
p1479
aVOOZIE-1839
p1480
aVOOZIE-1838
p1481
aVOOZIE-1837
p1482
aVOOZIE-1836
p1483
aVOOZIE-1835
p1484
aVOOZIE-1834
p1485
aVOOZIE-1833
p1486
aVOOZIE-1832
p1487
aVOOZIE-1831
p1488
aVOOZIE-1830
p1489
aVOOZIE-1829
p1490
aVOOZIE-1828
p1491
aVOOZIE-1827
p1492
aVOOZIE-1826
p1493
aVOOZIE-1825
p1494
aVOOZIE-1824
p1495
aVOOZIE-1823
p1496
aVOOZIE-1822
p1497
aVOOZIE-1821
p1498
aVOOZIE-1820
p1499
aVOOZIE-1819
p1500
aVOOZIE-1818
p1501
aVOOZIE-1817
p1502
aVOOZIE-1816
p1503
aVOOZIE-1815
p1504
aVOOZIE-1814
p1505
aVOOZIE-1813
p1506
aVOOZIE-1812
p1507
aVOOZIE-1811
p1508
aVOOZIE-1810
p1509
aVOOZIE-1809
p1510
aVOOZIE-1808
p1511
aVOOZIE-1807
p1512
aVOOZIE-1806
p1513
aVOOZIE-1805
p1514
aVOOZIE-1804
p1515
aVOOZIE-1803
p1516
aVOOZIE-1802
p1517
aVOOZIE-1801
p1518
aVOOZIE-1800
p1519
aVOOZIE-1799
p1520
aVOOZIE-1798
p1521
aVOOZIE-1797
p1522
aVOOZIE-1796
p1523
aVOOZIE-1795
p1524
aVOOZIE-1794
p1525
aVOOZIE-1793
p1526
aVOOZIE-1792
p1527
aVOOZIE-1791
p1528
aVOOZIE-1790
p1529
aVOOZIE-1789
p1530
aVOOZIE-1788
p1531
aVOOZIE-1787
p1532
aVOOZIE-1786
p1533
aVOOZIE-1785
p1534
aVOOZIE-1784
p1535
aVOOZIE-1783
p1536
aVOOZIE-1782
p1537
aVOOZIE-1781
p1538
aVOOZIE-1780
p1539
aVOOZIE-1779
p1540
aVOOZIE-1778
p1541
aVOOZIE-1777
p1542
aVOOZIE-1776
p1543
aVOOZIE-1775
p1544
aVOOZIE-1774
p1545
aVOOZIE-1773
p1546
aVOOZIE-1772
p1547
aVOOZIE-1771
p1548
aVOOZIE-1770
p1549
aVOOZIE-1769
p1550
aVOOZIE-1768
p1551
aVOOZIE-1767
p1552
aVOOZIE-1766
p1553
aVOOZIE-1765
p1554
aVOOZIE-1764
p1555
aVOOZIE-1763
p1556
aVOOZIE-1762
p1557
aVOOZIE-1761
p1558
aVOOZIE-1760
p1559
aVOOZIE-1759
p1560
aVOOZIE-1758
p1561
aVOOZIE-1757
p1562
aVOOZIE-1756
p1563
aVOOZIE-1755
p1564
aVOOZIE-1754
p1565
aVOOZIE-1753
p1566
aVOOZIE-1752
p1567
aVOOZIE-1751
p1568
aVOOZIE-1750
p1569
aVOOZIE-1749
p1570
aVOOZIE-1748
p1571
aVOOZIE-1747
p1572
aVOOZIE-1746
p1573
aVOOZIE-1745
p1574
aVOOZIE-1744
p1575
aVOOZIE-1743
p1576
aVOOZIE-1742
p1577
aVOOZIE-1741
p1578
aVOOZIE-1740
p1579
aVOOZIE-1739
p1580
aVOOZIE-1738
p1581
aVOOZIE-1737
p1582
aVOOZIE-1736
p1583
aVOOZIE-1735
p1584
aVOOZIE-1734
p1585
aVOOZIE-1733
p1586
aVOOZIE-1732
p1587
aVOOZIE-1731
p1588
aVOOZIE-1730
p1589
aVOOZIE-1729
p1590
aVOOZIE-1728
p1591
aVOOZIE-1727
p1592
aVOOZIE-1726
p1593
aVOOZIE-1725
p1594
aVOOZIE-1724
p1595
aVOOZIE-1723
p1596
aVOOZIE-1722
p1597
aVOOZIE-1721
p1598
aVOOZIE-1720
p1599
aVOOZIE-1719
p1600
aVOOZIE-1718
p1601
aVOOZIE-1717
p1602
aVOOZIE-1716
p1603
aVOOZIE-1715
p1604
aVOOZIE-1714
p1605
aVOOZIE-1713
p1606
aVOOZIE-1712
p1607
aVOOZIE-1711
p1608
aVOOZIE-1710
p1609
aVOOZIE-1709
p1610
aVOOZIE-1708
p1611
aVOOZIE-1707
p1612
aVOOZIE-1706
p1613
aVOOZIE-1705
p1614
aVOOZIE-1704
p1615
aVOOZIE-1703
p1616
aVOOZIE-1702
p1617
aVOOZIE-1701
p1618
aVOOZIE-1700
p1619
aVOOZIE-1699
p1620
aVOOZIE-1698
p1621
aVOOZIE-1697
p1622
aVOOZIE-1696
p1623
aVOOZIE-1695
p1624
aVOOZIE-1694
p1625
aVOOZIE-1693
p1626
aVOOZIE-1692
p1627
aVOOZIE-1691
p1628
aVOOZIE-1690
p1629
aVOOZIE-1689
p1630
aVOOZIE-1688
p1631
aVOOZIE-1687
p1632
aVOOZIE-1686
p1633
aVOOZIE-1685
p1634
aVOOZIE-1684
p1635
aVOOZIE-1683
p1636
aVOOZIE-1682
p1637
aVOOZIE-1681
p1638
aVOOZIE-1680
p1639
aVOOZIE-1679
p1640
aVOOZIE-1678
p1641
aVOOZIE-1677
p1642
aVOOZIE-1676
p1643
aVOOZIE-1675
p1644
aVOOZIE-1674
p1645
aVOOZIE-1673
p1646
aVOOZIE-1672
p1647
aVOOZIE-1671
p1648
aVOOZIE-1670
p1649
aVOOZIE-1669
p1650
aVOOZIE-1668
p1651
aVOOZIE-1667
p1652
aVOOZIE-1666
p1653
aVOOZIE-1665
p1654
aVOOZIE-1664
p1655
aVOOZIE-1663
p1656
aVOOZIE-1662
p1657
aVOOZIE-1661
p1658
aVOOZIE-1660
p1659
aVOOZIE-1659
p1660
aVOOZIE-1658
p1661
aVOOZIE-1657
p1662
aVOOZIE-1656
p1663
aVOOZIE-1655
p1664
aVOOZIE-1654
p1665
aVOOZIE-1653
p1666
aVOOZIE-1652
p1667
aVOOZIE-1651
p1668
aVOOZIE-1650
p1669
aVOOZIE-1649
p1670
aVOOZIE-1648
p1671
aVOOZIE-1647
p1672
aVOOZIE-1646
p1673
aVOOZIE-1645
p1674
aVOOZIE-1644
p1675
aVOOZIE-1643
p1676
aVOOZIE-1642
p1677
aVOOZIE-1641
p1678
aVOOZIE-1640
p1679
aVOOZIE-1639
p1680
aVOOZIE-1638
p1681
aVOOZIE-1637
p1682
aVOOZIE-1636
p1683
aVOOZIE-1635
p1684
aVOOZIE-1634
p1685
aVOOZIE-1633
p1686
aVOOZIE-1632
p1687
aVOOZIE-1631
p1688
aVOOZIE-1630
p1689
aVOOZIE-1629
p1690
aVOOZIE-1628
p1691
aVOOZIE-1627
p1692
aVOOZIE-1626
p1693
aVOOZIE-1625
p1694
aVOOZIE-1624
p1695
aVOOZIE-1623
p1696
aVOOZIE-1622
p1697
aVOOZIE-1621
p1698
aVOOZIE-1620
p1699
aVOOZIE-1619
p1700
aVOOZIE-1618
p1701
aVOOZIE-1617
p1702
aVOOZIE-1616
p1703
aVOOZIE-1615
p1704
aVOOZIE-1614
p1705
aVOOZIE-1613
p1706
aVOOZIE-1612
p1707
aVOOZIE-1611
p1708
aVOOZIE-1610
p1709
aVOOZIE-1609
p1710
aVOOZIE-1608
p1711
aVOOZIE-1607
p1712
aVOOZIE-1606
p1713
aVOOZIE-1605
p1714
aVOOZIE-1604
p1715
aVOOZIE-1603
p1716
aVOOZIE-1602
p1717
aVOOZIE-1601
p1718
aVOOZIE-1600
p1719
aVOOZIE-1599
p1720
aVOOZIE-1598
p1721
aVOOZIE-1597
p1722
aVOOZIE-1596
p1723
aVOOZIE-1595
p1724
aVOOZIE-1594
p1725
aVOOZIE-1593
p1726
aVOOZIE-1592
p1727
aVOOZIE-1591
p1728
aVOOZIE-1590
p1729
aVOOZIE-1589
p1730
aVOOZIE-1588
p1731
aVOOZIE-1587
p1732
aVOOZIE-1586
p1733
aVOOZIE-1585
p1734
aVOOZIE-1584
p1735
aVOOZIE-1583
p1736
aVOOZIE-1582
p1737
aVOOZIE-1581
p1738
aVOOZIE-1580
p1739
aVOOZIE-1579
p1740
aVOOZIE-1578
p1741
aVOOZIE-1577
p1742
aVOOZIE-1576
p1743
aVOOZIE-1575
p1744
aVOOZIE-1574
p1745
aVOOZIE-1573
p1746
aVOOZIE-1572
p1747
aVOOZIE-1571
p1748
aVOOZIE-1570
p1749
aVOOZIE-1569
p1750
aVOOZIE-1568
p1751
aVOOZIE-1567
p1752
aVOOZIE-1566
p1753
aVOOZIE-1565
p1754
aVOOZIE-1564
p1755
aVOOZIE-1563
p1756
aVOOZIE-1562
p1757
aVOOZIE-1561
p1758
aVOOZIE-1560
p1759
aVOOZIE-1559
p1760
aVOOZIE-1558
p1761
aVOOZIE-1557
p1762
aVOOZIE-1556
p1763
aVOOZIE-1555
p1764
aVOOZIE-1554
p1765
aVOOZIE-1553
p1766
aVOOZIE-1552
p1767
aVOOZIE-1551
p1768
aVOOZIE-1550
p1769
aVOOZIE-1549
p1770
aVOOZIE-1548
p1771
aVOOZIE-1547
p1772
aVOOZIE-1546
p1773
aVOOZIE-1545
p1774
aVOOZIE-1544
p1775
aVOOZIE-1543
p1776
aVOOZIE-1542
p1777
aVOOZIE-1541
p1778
aVOOZIE-1540
p1779
aVOOZIE-1539
p1780
aVOOZIE-1538
p1781
aVOOZIE-1537
p1782
aVOOZIE-1536
p1783
aVOOZIE-1535
p1784
aVOOZIE-1534
p1785
aVOOZIE-1533
p1786
aVOOZIE-1532
p1787
aVOOZIE-1531
p1788
aVOOZIE-1530
p1789
aVOOZIE-1529
p1790
aVOOZIE-1528
p1791
aVOOZIE-1527
p1792
aVOOZIE-1526
p1793
aVOOZIE-1525
p1794
aVOOZIE-1524
p1795
aVOOZIE-1523
p1796
aVOOZIE-1522
p1797
aVOOZIE-1521
p1798
aVOOZIE-1520
p1799
aVOOZIE-1519
p1800
aVOOZIE-1518
p1801
aVOOZIE-1517
p1802
aVOOZIE-1516
p1803
aVOOZIE-1515
p1804
aVOOZIE-1514
p1805
aVOOZIE-1513
p1806
aVOOZIE-1512
p1807
aVOOZIE-1511
p1808
aVOOZIE-1510
p1809
aVOOZIE-1509
p1810
aVOOZIE-1508
p1811
aVOOZIE-1507
p1812
aVOOZIE-1506
p1813
aVOOZIE-1505
p1814
aVOOZIE-1504
p1815
aVOOZIE-1503
p1816
aVOOZIE-1502
p1817
aVOOZIE-1501
p1818
aVOOZIE-1500
p1819
aVOOZIE-1499
p1820
aVOOZIE-1498
p1821
aVOOZIE-1497
p1822
aVOOZIE-1496
p1823
aVOOZIE-1495
p1824
aVOOZIE-1494
p1825
aVOOZIE-1493
p1826
aVOOZIE-1492
p1827
aVOOZIE-1491
p1828
aVOOZIE-1490
p1829
aVOOZIE-1489
p1830
aVOOZIE-1488
p1831
aVOOZIE-1487
p1832
aVOOZIE-1486
p1833
aVOOZIE-1485
p1834
aVOOZIE-1484
p1835
aVOOZIE-1483
p1836
aVOOZIE-1482
p1837
aVOOZIE-1481
p1838
aVOOZIE-1480
p1839
aVOOZIE-1479
p1840
aVOOZIE-1478
p1841
aVOOZIE-1477
p1842
aVOOZIE-1476
p1843
aVOOZIE-1475
p1844
aVOOZIE-1474
p1845
aVOOZIE-1473
p1846
aVOOZIE-1472
p1847
aVOOZIE-1471
p1848
aVOOZIE-1470
p1849
aVOOZIE-1469
p1850
aVOOZIE-1468
p1851
aVOOZIE-1467
p1852
aVOOZIE-1466
p1853
aVOOZIE-1465
p1854
aVOOZIE-1464
p1855
aVOOZIE-1463
p1856
aVOOZIE-1462
p1857
aVOOZIE-1461
p1858
aVOOZIE-1460
p1859
aVOOZIE-1459
p1860
aVOOZIE-1458
p1861
aVOOZIE-1457
p1862
aVOOZIE-1456
p1863
aVOOZIE-1455
p1864
aVOOZIE-1454
p1865
aVOOZIE-1453
p1866
aVOOZIE-1452
p1867
aVOOZIE-1451
p1868
aVOOZIE-1450
p1869
aVOOZIE-1449
p1870
aVOOZIE-1448
p1871
aVOOZIE-1447
p1872
aVOOZIE-1446
p1873
aVOOZIE-1445
p1874
aVOOZIE-1444
p1875
aVOOZIE-1443
p1876
aVOOZIE-1442
p1877
aVOOZIE-1441
p1878
aVOOZIE-1440
p1879
aVOOZIE-1439
p1880
aVOOZIE-1438
p1881
aVOOZIE-1437
p1882
aVOOZIE-1436
p1883
aVOOZIE-1435
p1884
aVOOZIE-1434
p1885
aVOOZIE-1433
p1886
aVOOZIE-1432
p1887
aVOOZIE-1431
p1888
aVOOZIE-1430
p1889
aVOOZIE-1429
p1890
aVOOZIE-1428
p1891
aVOOZIE-1427
p1892
aVOOZIE-1426
p1893
aVOOZIE-1425
p1894
aVOOZIE-1424
p1895
aVOOZIE-1423
p1896
aVOOZIE-1422
p1897
aVOOZIE-1421
p1898
aVOOZIE-1420
p1899
aVOOZIE-1419
p1900
aVOOZIE-1418
p1901
aVOOZIE-1417
p1902
aVOOZIE-1416
p1903
aVOOZIE-1415
p1904
aVOOZIE-1414
p1905
aVOOZIE-1413
p1906
aVOOZIE-1412
p1907
aVOOZIE-1411
p1908
aVOOZIE-1410
p1909
aVOOZIE-1409
p1910
aVOOZIE-1408
p1911
aVOOZIE-1407
p1912
aVOOZIE-1406
p1913
aVOOZIE-1405
p1914
aVOOZIE-1404
p1915
aVOOZIE-1403
p1916
aVOOZIE-1402
p1917
aVOOZIE-1401
p1918
aVOOZIE-1400
p1919
aVOOZIE-1399
p1920
aVOOZIE-1398
p1921
aVOOZIE-1397
p1922
aVOOZIE-1396
p1923
aVOOZIE-1395
p1924
aVOOZIE-1394
p1925
aVOOZIE-1393
p1926
aVOOZIE-1392
p1927
aVOOZIE-1391
p1928
aVOOZIE-1390
p1929
aVOOZIE-1389
p1930
aVOOZIE-1388
p1931
aVOOZIE-1387
p1932
aVOOZIE-1386
p1933
aVOOZIE-1385
p1934
aVOOZIE-1384
p1935
aVOOZIE-1383
p1936
aVOOZIE-1382
p1937
aVOOZIE-1381
p1938
aVOOZIE-1380
p1939
aVOOZIE-1379
p1940
aVOOZIE-1378
p1941
aVOOZIE-1377
p1942
aVOOZIE-1376
p1943
aVOOZIE-1375
p1944
aVOOZIE-1374
p1945
aVOOZIE-1373
p1946
aVOOZIE-1372
p1947
aVOOZIE-1371
p1948
aVOOZIE-1370
p1949
aVOOZIE-1369
p1950
aVOOZIE-1368
p1951
aVOOZIE-1367
p1952
aVOOZIE-1366
p1953
aVOOZIE-1365
p1954
aVOOZIE-1364
p1955
aVOOZIE-1363
p1956
aVOOZIE-1362
p1957
aVOOZIE-1361
p1958
aVOOZIE-1360
p1959
aVOOZIE-1359
p1960
aVOOZIE-1358
p1961
aVOOZIE-1357
p1962
aVOOZIE-1356
p1963
aVOOZIE-1355
p1964
aVOOZIE-1354
p1965
aVOOZIE-1353
p1966
aVOOZIE-1352
p1967
aVOOZIE-1351
p1968
aVOOZIE-1350
p1969
aVOOZIE-1349
p1970
aVOOZIE-1348
p1971
aVOOZIE-1347
p1972
aVOOZIE-1346
p1973
aVOOZIE-1345
p1974
aVOOZIE-1344
p1975
aVOOZIE-1343
p1976
aVOOZIE-1342
p1977
aVOOZIE-1341
p1978
aVOOZIE-1340
p1979
aVOOZIE-1339
p1980
aVOOZIE-1338
p1981
aVOOZIE-1337
p1982
aVOOZIE-1336
p1983
aVOOZIE-1335
p1984
aVOOZIE-1334
p1985
aVOOZIE-1333
p1986
aVOOZIE-1332
p1987
aVOOZIE-1331
p1988
aVOOZIE-1330
p1989
aVOOZIE-1329
p1990
aVOOZIE-1328
p1991
aVOOZIE-1327
p1992
aVOOZIE-1326
p1993
aVOOZIE-1325
p1994
aVOOZIE-1324
p1995
aVOOZIE-1323
p1996
aVOOZIE-1322
p1997
aVOOZIE-1321
p1998
aVOOZIE-1320
p1999
aVOOZIE-1319
p2000
aVOOZIE-1318
p2001
aVOOZIE-1317
p2002
aVOOZIE-1316
p2003
aVOOZIE-1315
p2004
aVOOZIE-1314
p2005
aVOOZIE-1313
p2006
aVOOZIE-1312
p2007
aVOOZIE-1311
p2008
aVOOZIE-1310
p2009
aVOOZIE-1309
p2010
aVOOZIE-1308
p2011
aVOOZIE-1307
p2012
aVOOZIE-1306
p2013
aVOOZIE-1305
p2014
aVOOZIE-1304
p2015
aVOOZIE-1303
p2016
aVOOZIE-1302
p2017
aVOOZIE-1301
p2018
aVOOZIE-1300
p2019
aVOOZIE-1299
p2020
aVOOZIE-1298
p2021
aVOOZIE-1297
p2022
aVOOZIE-1296
p2023
aVOOZIE-1295
p2024
aVOOZIE-1294
p2025
aVOOZIE-1293
p2026
aVOOZIE-1292
p2027
aVOOZIE-1291
p2028
aVOOZIE-1290
p2029
aVOOZIE-1289
p2030
aVOOZIE-1288
p2031
aVOOZIE-1287
p2032
aVOOZIE-1286
p2033
aVOOZIE-1285
p2034
aVOOZIE-1284
p2035
aVOOZIE-1283
p2036
aVOOZIE-1282
p2037
aVOOZIE-1281
p2038
aVOOZIE-1280
p2039
aVOOZIE-1279
p2040
aVOOZIE-1278
p2041
aVOOZIE-1277
p2042
aVOOZIE-1276
p2043
aVOOZIE-1275
p2044
aVOOZIE-1274
p2045
aVOOZIE-1273
p2046
aVOOZIE-1272
p2047
aVOOZIE-1271
p2048
aVOOZIE-1270
p2049
aVOOZIE-1269
p2050
aVOOZIE-1268
p2051
aVOOZIE-1267
p2052
aVOOZIE-1266
p2053
aVOOZIE-1265
p2054
aVOOZIE-1264
p2055
aVOOZIE-1263
p2056
aVOOZIE-1262
p2057
aVOOZIE-1261
p2058
aVOOZIE-1260
p2059
aVOOZIE-1259
p2060
aVOOZIE-1258
p2061
aVOOZIE-1257
p2062
aVOOZIE-1256
p2063
aVOOZIE-1255
p2064
aVOOZIE-1254
p2065
aVOOZIE-1253
p2066
aVOOZIE-1252
p2067
aVOOZIE-1251
p2068
aVOOZIE-1250
p2069
aVOOZIE-1249
p2070
aVOOZIE-1248
p2071
aVOOZIE-1247
p2072
aVOOZIE-1246
p2073
aVOOZIE-1245
p2074
aVOOZIE-1244
p2075
aVOOZIE-1243
p2076
aVOOZIE-1242
p2077
aVOOZIE-1241
p2078
aVOOZIE-1240
p2079
aVOOZIE-1239
p2080
aVOOZIE-1238
p2081
aVOOZIE-1237
p2082
aVOOZIE-1236
p2083
aVOOZIE-1235
p2084
aVOOZIE-1234
p2085
aVOOZIE-1233
p2086
aVOOZIE-1232
p2087
aVOOZIE-1231
p2088
aVOOZIE-1230
p2089
aVOOZIE-1229
p2090
aVOOZIE-1228
p2091
aVOOZIE-1227
p2092
aVOOZIE-1226
p2093
aVOOZIE-1225
p2094
aVOOZIE-1224
p2095
aVOOZIE-1223
p2096
aVOOZIE-1222
p2097
aVOOZIE-1221
p2098
aVOOZIE-1220
p2099
aVOOZIE-1219
p2100
aVOOZIE-1218
p2101
aVOOZIE-1217
p2102
aVOOZIE-1216
p2103
aVOOZIE-1215
p2104
aVOOZIE-1214
p2105
aVOOZIE-1213
p2106
aVOOZIE-1212
p2107
aVOOZIE-1211
p2108
aVOOZIE-1210
p2109
aVOOZIE-1209
p2110
aVOOZIE-1208
p2111
aVOOZIE-1207
p2112
aVOOZIE-1206
p2113
aVOOZIE-1205
p2114
aVOOZIE-1204
p2115
aVOOZIE-1203
p2116
aVOOZIE-1202
p2117
aVOOZIE-1201
p2118
aVOOZIE-1200
p2119
aVOOZIE-1199
p2120
aVOOZIE-1198
p2121
aVOOZIE-1197
p2122
aVOOZIE-1196
p2123
aVOOZIE-1195
p2124
aVOOZIE-1194
p2125
aVOOZIE-1193
p2126
aVOOZIE-1192
p2127
aVOOZIE-1191
p2128
aVOOZIE-1190
p2129
aVOOZIE-1189
p2130
aVOOZIE-1188
p2131
aVOOZIE-1187
p2132
aVOOZIE-1186
p2133
aVOOZIE-1185
p2134
aVOOZIE-1184
p2135
aVOOZIE-1183
p2136
aVOOZIE-1182
p2137
aVOOZIE-1181
p2138
aVOOZIE-1180
p2139
aVOOZIE-1179
p2140
aVOOZIE-1178
p2141
aVOOZIE-1177
p2142
aVOOZIE-1176
p2143
aVOOZIE-1175
p2144
aVOOZIE-1174
p2145
aVOOZIE-1173
p2146
aVOOZIE-1172
p2147
aVOOZIE-1171
p2148
aVOOZIE-1170
p2149
aVOOZIE-1169
p2150
aVOOZIE-1168
p2151
aVOOZIE-1167
p2152
aVOOZIE-1166
p2153
aVOOZIE-1165
p2154
aVOOZIE-1164
p2155
aVOOZIE-1163
p2156
aVOOZIE-1162
p2157
aVOOZIE-1161
p2158
aVOOZIE-1160
p2159
aVOOZIE-1159
p2160
aVOOZIE-1158
p2161
aVOOZIE-1157
p2162
aVOOZIE-1156
p2163
aVOOZIE-1155
p2164
aVOOZIE-1154
p2165
aVOOZIE-1153
p2166
aVOOZIE-1152
p2167
aVOOZIE-1151
p2168
aVOOZIE-1150
p2169
aVOOZIE-1149
p2170
aVOOZIE-1148
p2171
aVOOZIE-1147
p2172
aVOOZIE-1146
p2173
aVOOZIE-1145
p2174
aVOOZIE-1144
p2175
aVOOZIE-1143
p2176
aVOOZIE-1142
p2177
aVOOZIE-1141
p2178
aVOOZIE-1140
p2179
aVOOZIE-1139
p2180
aVOOZIE-1138
p2181
aVOOZIE-1137
p2182
aVOOZIE-1136
p2183
aVOOZIE-1135
p2184
aVOOZIE-1134
p2185
aVOOZIE-1133
p2186
aVOOZIE-1132
p2187
aVOOZIE-1131
p2188
aVOOZIE-1130
p2189
aVOOZIE-1129
p2190
aVOOZIE-1128
p2191
aVOOZIE-1127
p2192
aVOOZIE-1126
p2193
aVOOZIE-1125
p2194
aVOOZIE-1124
p2195
aVOOZIE-1123
p2196
aVOOZIE-1122
p2197
aVOOZIE-1121
p2198
aVOOZIE-1120
p2199
aVOOZIE-1119
p2200
aVOOZIE-1118
p2201
aVOOZIE-1117
p2202
aVOOZIE-1116
p2203
aVOOZIE-1115
p2204
aVOOZIE-1114
p2205
aVOOZIE-1113
p2206
aVOOZIE-1112
p2207
aVOOZIE-1111
p2208
aVOOZIE-1110
p2209
aVOOZIE-1109
p2210
aVOOZIE-1108
p2211
aVOOZIE-1107
p2212
aVOOZIE-1106
p2213
aVOOZIE-1105
p2214
aVOOZIE-1104
p2215
aVOOZIE-1103
p2216
aVOOZIE-1102
p2217
aVOOZIE-1101
p2218
aVOOZIE-1100
p2219
aVOOZIE-1099
p2220
aVOOZIE-1098
p2221
aVOOZIE-1097
p2222
aVOOZIE-1096
p2223
aVOOZIE-1095
p2224
aVOOZIE-1094
p2225
aVOOZIE-1093
p2226
aVOOZIE-1092
p2227
aVOOZIE-1091
p2228
aVOOZIE-1090
p2229
aVOOZIE-1089
p2230
aVOOZIE-1088
p2231
aVOOZIE-1087
p2232
aVOOZIE-1086
p2233
aVOOZIE-1085
p2234
aVOOZIE-1084
p2235
aVOOZIE-1083
p2236
aVOOZIE-1082
p2237
aVOOZIE-1081
p2238
aVOOZIE-1080
p2239
aVOOZIE-1079
p2240
aVOOZIE-1078
p2241
aVOOZIE-1077
p2242
aVOOZIE-1076
p2243
aVOOZIE-1075
p2244
aVOOZIE-1074
p2245
aVOOZIE-1073
p2246
aVOOZIE-1072
p2247
aVOOZIE-1071
p2248
aVOOZIE-1070
p2249
aVOOZIE-1069
p2250
aVOOZIE-1068
p2251
aVOOZIE-1067
p2252
aVOOZIE-1066
p2253
aVOOZIE-1065
p2254
aVOOZIE-1064
p2255
aVOOZIE-1063
p2256
aVOOZIE-1062
p2257
aVOOZIE-1061
p2258
aVOOZIE-1060
p2259
aVOOZIE-1059
p2260
aVOOZIE-1058
p2261
aVOOZIE-1057
p2262
aVOOZIE-1056
p2263
aVOOZIE-1055
p2264
aVOOZIE-1054
p2265
aVOOZIE-1053
p2266
aVOOZIE-1052
p2267
aVOOZIE-1051
p2268
aVOOZIE-1050
p2269
aVOOZIE-1049
p2270
aVOOZIE-1048
p2271
aVOOZIE-1047
p2272
aVOOZIE-1046
p2273
aVOOZIE-1045
p2274
aVOOZIE-1044
p2275
aVOOZIE-1043
p2276
aVOOZIE-1042
p2277
aVOOZIE-1041
p2278
aVOOZIE-1040
p2279
aVOOZIE-1039
p2280
aVOOZIE-1038
p2281
aVOOZIE-1037
p2282
aVOOZIE-1036
p2283
aVOOZIE-1035
p2284
aVOOZIE-1034
p2285
aVOOZIE-1033
p2286
aVOOZIE-1032
p2287
aVOOZIE-1031
p2288
aVOOZIE-1030
p2289
aVOOZIE-1029
p2290
aVOOZIE-1028
p2291
aVOOZIE-1027
p2292
aVOOZIE-1026
p2293
aVOOZIE-1025
p2294
aVOOZIE-1024
p2295
aVOOZIE-1023
p2296
aVOOZIE-1022
p2297
aVOOZIE-1021
p2298
aVOOZIE-1020
p2299
aVOOZIE-1019
p2300
aVOOZIE-1018
p2301
aVOOZIE-1017
p2302
aVOOZIE-1016
p2303
aVOOZIE-1015
p2304
aVOOZIE-1014
p2305
aVOOZIE-1013
p2306
aVOOZIE-1012
p2307
aVOOZIE-1011
p2308
aVOOZIE-1010
p2309
aVOOZIE-1009
p2310
aVOOZIE-1008
p2311
aVOOZIE-1007
p2312
aVOOZIE-1006
p2313
aVOOZIE-1005
p2314
aVOOZIE-1004
p2315
aVOOZIE-1003
p2316
aVOOZIE-1002
p2317
aVOOZIE-1001
p2318
aVOOZIE-1000
p2319
aVOOZIE-999
p2320
aVOOZIE-998
p2321
aVOOZIE-997
p2322
aVOOZIE-996
p2323
aVOOZIE-995
p2324
aVOOZIE-994
p2325
aVOOZIE-993
p2326
aVOOZIE-992
p2327
aVOOZIE-991
p2328
aVOOZIE-990
p2329
aVOOZIE-989
p2330
aVOOZIE-988
p2331
aVOOZIE-987
p2332
aVOOZIE-986
p2333
aVOOZIE-985
p2334
aVOOZIE-984
p2335
aVOOZIE-983
p2336
aVOOZIE-982
p2337
aVOOZIE-981
p2338
aVOOZIE-980
p2339
aVOOZIE-979
p2340
aVOOZIE-978
p2341
aVOOZIE-977
p2342
aVOOZIE-976
p2343
aVOOZIE-975
p2344
aVOOZIE-974
p2345
aVOOZIE-973
p2346
aVOOZIE-972
p2347
aVOOZIE-971
p2348
aVOOZIE-970
p2349
aVOOZIE-969
p2350
aVOOZIE-968
p2351
aVOOZIE-967
p2352
aVOOZIE-966
p2353
aVOOZIE-965
p2354
aVOOZIE-964
p2355
aVOOZIE-963
p2356
aVOOZIE-962
p2357
aVOOZIE-961
p2358
aVOOZIE-960
p2359
aVOOZIE-959
p2360
aVOOZIE-958
p2361
aVOOZIE-957
p2362
aVOOZIE-956
p2363
aVOOZIE-955
p2364
aVOOZIE-954
p2365
aVOOZIE-953
p2366
aVOOZIE-952
p2367
aVOOZIE-951
p2368
aVOOZIE-950
p2369
aVOOZIE-949
p2370
aVOOZIE-948
p2371
aVOOZIE-947
p2372
aVOOZIE-946
p2373
aVOOZIE-945
p2374
aVOOZIE-944
p2375
aVOOZIE-943
p2376
aVOOZIE-942
p2377
aVOOZIE-941
p2378
aVOOZIE-940
p2379
aVOOZIE-939
p2380
aVOOZIE-938
p2381
aVOOZIE-937
p2382
aVOOZIE-936
p2383
aVOOZIE-935
p2384
aVOOZIE-934
p2385
aVOOZIE-933
p2386
aVOOZIE-932
p2387
aVOOZIE-931
p2388
aVOOZIE-930
p2389
aVOOZIE-929
p2390
aVOOZIE-928
p2391
aVOOZIE-927
p2392
aVOOZIE-926
p2393
aVOOZIE-925
p2394
aVOOZIE-924
p2395
aVOOZIE-923
p2396
aVOOZIE-922
p2397
aVOOZIE-921
p2398
aVOOZIE-920
p2399
aVOOZIE-919
p2400
aVOOZIE-918
p2401
aVOOZIE-917
p2402
aVOOZIE-916
p2403
aVOOZIE-915
p2404
aVOOZIE-914
p2405
aVOOZIE-913
p2406
aVOOZIE-912
p2407
aVOOZIE-911
p2408
aVOOZIE-910
p2409
aVOOZIE-909
p2410
aVOOZIE-908
p2411
aVOOZIE-907
p2412
aVOOZIE-906
p2413
aVOOZIE-905
p2414
aVOOZIE-904
p2415
aVOOZIE-903
p2416
aVOOZIE-902
p2417
aVOOZIE-901
p2418
aVOOZIE-900
p2419
aVOOZIE-899
p2420
aVOOZIE-898
p2421
aVOOZIE-897
p2422
aVOOZIE-896
p2423
aVOOZIE-895
p2424
aVOOZIE-894
p2425
aVOOZIE-893
p2426
aVOOZIE-892
p2427
aVOOZIE-891
p2428
aVOOZIE-890
p2429
aVOOZIE-889
p2430
aVOOZIE-888
p2431
aVOOZIE-887
p2432
aVOOZIE-886
p2433
aVOOZIE-885
p2434
aVOOZIE-884
p2435
aVOOZIE-883
p2436
aVOOZIE-882
p2437
aVOOZIE-881
p2438
aVOOZIE-880
p2439
aVOOZIE-879
p2440
aVOOZIE-878
p2441
aVOOZIE-877
p2442
aVOOZIE-876
p2443
aVOOZIE-875
p2444
aVOOZIE-874
p2445
aVOOZIE-873
p2446
aVOOZIE-872
p2447
aVOOZIE-871
p2448
aVOOZIE-870
p2449
aVOOZIE-869
p2450
aVOOZIE-868
p2451
aVOOZIE-867
p2452
aVOOZIE-866
p2453
aVOOZIE-865
p2454
aVOOZIE-864
p2455
aVOOZIE-863
p2456
aVOOZIE-862
p2457
aVOOZIE-861
p2458
aVOOZIE-860
p2459
aVOOZIE-859
p2460
aVOOZIE-858
p2461
aVOOZIE-857
p2462
aVOOZIE-856
p2463
aVOOZIE-855
p2464
aVOOZIE-854
p2465
aVOOZIE-853
p2466
aVOOZIE-852
p2467
aVOOZIE-851
p2468
aVOOZIE-850
p2469
aVOOZIE-849
p2470
aVOOZIE-848
p2471
aVOOZIE-847
p2472
aVOOZIE-846
p2473
aVOOZIE-845
p2474
aVOOZIE-844
p2475
aVOOZIE-843
p2476
aVOOZIE-842
p2477
aVOOZIE-841
p2478
aVOOZIE-840
p2479
aVOOZIE-839
p2480
aVOOZIE-838
p2481
aVOOZIE-837
p2482
aVOOZIE-836
p2483
aVOOZIE-835
p2484
aVOOZIE-834
p2485
aVOOZIE-833
p2486
aVOOZIE-832
p2487
aVOOZIE-831
p2488
aVOOZIE-830
p2489
aVOOZIE-829
p2490
aVOOZIE-828
p2491
aVOOZIE-827
p2492
aVOOZIE-826
p2493
aVOOZIE-825
p2494
aVOOZIE-824
p2495
aVOOZIE-823
p2496
aVOOZIE-822
p2497
aVOOZIE-821
p2498
aVOOZIE-820
p2499
aVOOZIE-819
p2500
aVOOZIE-818
p2501
aVOOZIE-817
p2502
aVOOZIE-816
p2503
aVOOZIE-815
p2504
aVOOZIE-814
p2505
aVOOZIE-813
p2506
aVOOZIE-812
p2507
aVOOZIE-811
p2508
aVOOZIE-810
p2509
aVOOZIE-809
p2510
aVOOZIE-808
p2511
aVOOZIE-807
p2512
aVOOZIE-806
p2513
aVOOZIE-805
p2514
aVOOZIE-804
p2515
aVOOZIE-803
p2516
aVOOZIE-802
p2517
aVOOZIE-801
p2518
aVOOZIE-800
p2519
aVOOZIE-799
p2520
aVOOZIE-798
p2521
aVOOZIE-797
p2522
aVOOZIE-796
p2523
aVOOZIE-795
p2524
aVOOZIE-794
p2525
aVOOZIE-793
p2526
aVOOZIE-792
p2527
aVOOZIE-791
p2528
aVOOZIE-790
p2529
aVOOZIE-789
p2530
aVOOZIE-788
p2531
aVOOZIE-787
p2532
aVOOZIE-786
p2533
aVOOZIE-785
p2534
aVOOZIE-784
p2535
aVOOZIE-783
p2536
aVOOZIE-782
p2537
aVOOZIE-781
p2538
aVOOZIE-780
p2539
aVOOZIE-779
p2540
aVOOZIE-778
p2541
aVOOZIE-777
p2542
aVOOZIE-776
p2543
aVOOZIE-775
p2544
aVOOZIE-774
p2545
aVOOZIE-773
p2546
aVOOZIE-772
p2547
aVOOZIE-771
p2548
aVOOZIE-770
p2549
aVOOZIE-769
p2550
aVOOZIE-768
p2551
aVOOZIE-767
p2552
aVOOZIE-766
p2553
aVOOZIE-765
p2554
aVOOZIE-764
p2555
aVOOZIE-763
p2556
aVOOZIE-762
p2557
aVOOZIE-761
p2558
aVOOZIE-760
p2559
aVOOZIE-759
p2560
aVOOZIE-758
p2561
aVOOZIE-757
p2562
aVOOZIE-756
p2563
aVOOZIE-755
p2564
aVOOZIE-754
p2565
aVOOZIE-753
p2566
aVOOZIE-752
p2567
aVOOZIE-751
p2568
aVOOZIE-750
p2569
aVOOZIE-749
p2570
aVOOZIE-748
p2571
aVOOZIE-747
p2572
aVOOZIE-746
p2573
aVOOZIE-745
p2574
aVOOZIE-744
p2575
aVOOZIE-743
p2576
aVOOZIE-742
p2577
aVOOZIE-741
p2578
aVOOZIE-740
p2579
aVOOZIE-739
p2580
aVOOZIE-738
p2581
aVOOZIE-737
p2582
aVOOZIE-736
p2583
aVOOZIE-735
p2584
aVOOZIE-734
p2585
aVOOZIE-733
p2586
aVOOZIE-732
p2587
aVOOZIE-731
p2588
aVOOZIE-730
p2589
aVOOZIE-729
p2590
aVOOZIE-728
p2591
aVOOZIE-727
p2592
aVOOZIE-726
p2593
aVOOZIE-725
p2594
aVOOZIE-724
p2595
aVOOZIE-723
p2596
aVOOZIE-722
p2597
aVOOZIE-721
p2598
aVOOZIE-720
p2599
aVOOZIE-719
p2600
aVOOZIE-718
p2601
aVOOZIE-717
p2602
aVOOZIE-716
p2603
aVOOZIE-715
p2604
aVOOZIE-714
p2605
aVOOZIE-713
p2606
aVOOZIE-712
p2607
aVOOZIE-711
p2608
aVOOZIE-710
p2609
aVOOZIE-709
p2610
aVOOZIE-708
p2611
aVOOZIE-707
p2612
aVOOZIE-706
p2613
aVOOZIE-705
p2614
aVOOZIE-704
p2615
aVOOZIE-703
p2616
aVOOZIE-702
p2617
aVOOZIE-701
p2618
aVOOZIE-700
p2619
aVOOZIE-699
p2620
aVOOZIE-698
p2621
aVOOZIE-697
p2622
aVOOZIE-696
p2623
aVOOZIE-695
p2624
aVOOZIE-694
p2625
aVOOZIE-693
p2626
aVOOZIE-692
p2627
aVOOZIE-691
p2628
aVOOZIE-690
p2629
aVOOZIE-689
p2630
aVOOZIE-688
p2631
aVOOZIE-687
p2632
aVOOZIE-686
p2633
aVOOZIE-685
p2634
aVOOZIE-684
p2635
aVOOZIE-683
p2636
aVOOZIE-682
p2637
aVOOZIE-681
p2638
aVOOZIE-680
p2639
aVOOZIE-679
p2640
aVOOZIE-678
p2641
aVOOZIE-677
p2642
aVOOZIE-676
p2643
aVOOZIE-675
p2644
aVOOZIE-674
p2645
aVOOZIE-673
p2646
aVOOZIE-672
p2647
aVOOZIE-671
p2648
aVOOZIE-670
p2649
aVOOZIE-669
p2650
aVOOZIE-668
p2651
aVOOZIE-667
p2652
aVOOZIE-666
p2653
aVOOZIE-665
p2654
aVOOZIE-664
p2655
aVOOZIE-663
p2656
aVOOZIE-662
p2657
aVOOZIE-661
p2658
aVOOZIE-660
p2659
aVOOZIE-659
p2660
aVOOZIE-658
p2661
aVOOZIE-657
p2662
aVOOZIE-656
p2663
aVOOZIE-655
p2664
aVOOZIE-654
p2665
aVOOZIE-653
p2666
aVOOZIE-652
p2667
aVOOZIE-651
p2668
aVOOZIE-650
p2669
aVOOZIE-649
p2670
aVOOZIE-648
p2671
aVOOZIE-647
p2672
aVOOZIE-646
p2673
aVOOZIE-645
p2674
aVOOZIE-644
p2675
aVOOZIE-643
p2676
aVOOZIE-642
p2677
aVOOZIE-641
p2678
aVOOZIE-640
p2679
aVOOZIE-639
p2680
aVOOZIE-638
p2681
aVOOZIE-637
p2682
aVOOZIE-636
p2683
aVOOZIE-635
p2684
aVOOZIE-634
p2685
aVOOZIE-633
p2686
aVOOZIE-632
p2687
aVOOZIE-631
p2688
aVOOZIE-630
p2689
aVOOZIE-629
p2690
aVOOZIE-628
p2691
aVOOZIE-627
p2692
aVOOZIE-626
p2693
aVOOZIE-625
p2694
aVOOZIE-624
p2695
aVOOZIE-623
p2696
aVOOZIE-622
p2697
aVOOZIE-621
p2698
aVOOZIE-620
p2699
aVOOZIE-619
p2700
aVOOZIE-618
p2701
aVOOZIE-617
p2702
aVOOZIE-616
p2703
aVOOZIE-615
p2704
aVOOZIE-614
p2705
aVOOZIE-613
p2706
aVOOZIE-612
p2707
aVOOZIE-611
p2708
aVOOZIE-610
p2709
aVOOZIE-609
p2710
aVOOZIE-608
p2711
aVOOZIE-607
p2712
aVOOZIE-606
p2713
aVOOZIE-605
p2714
aVOOZIE-604
p2715
aVOOZIE-603
p2716
aVOOZIE-602
p2717
aVOOZIE-601
p2718
aVOOZIE-600
p2719
aVOOZIE-599
p2720
aVOOZIE-598
p2721
aVOOZIE-597
p2722
aVOOZIE-596
p2723
aVOOZIE-595
p2724
aVOOZIE-594
p2725
aVOOZIE-593
p2726
aVOOZIE-592
p2727
aVOOZIE-591
p2728
aVOOZIE-590
p2729
aVOOZIE-589
p2730
aVOOZIE-588
p2731
aVOOZIE-587
p2732
aVOOZIE-586
p2733
aVOOZIE-585
p2734
aVOOZIE-584
p2735
aVOOZIE-583
p2736
aVOOZIE-582
p2737
aVOOZIE-581
p2738
aVOOZIE-580
p2739
aVOOZIE-579
p2740
aVOOZIE-578
p2741
aVOOZIE-577
p2742
aVOOZIE-576
p2743
aVOOZIE-575
p2744
aVOOZIE-574
p2745
aVOOZIE-573
p2746
aVOOZIE-572
p2747
aVOOZIE-571
p2748
aVOOZIE-570
p2749
aVOOZIE-569
p2750
aVOOZIE-568
p2751
aVOOZIE-567
p2752
aVOOZIE-566
p2753
aVOOZIE-565
p2754
aVOOZIE-564
p2755
aVOOZIE-563
p2756
aVOOZIE-562
p2757
aVOOZIE-561
p2758
aVOOZIE-560
p2759
aVOOZIE-559
p2760
aVOOZIE-558
p2761
aVOOZIE-557
p2762
aVOOZIE-556
p2763
aVOOZIE-555
p2764
aVOOZIE-554
p2765
aVOOZIE-553
p2766
aVOOZIE-552
p2767
aVOOZIE-551
p2768
aVOOZIE-550
p2769
aVOOZIE-549
p2770
aVOOZIE-548
p2771
aVOOZIE-547
p2772
aVOOZIE-546
p2773
aVOOZIE-545
p2774
aVOOZIE-544
p2775
aVOOZIE-543
p2776
aVOOZIE-542
p2777
aVOOZIE-541
p2778
aVOOZIE-540
p2779
aVOOZIE-539
p2780
aVOOZIE-538
p2781
aVOOZIE-537
p2782
aVOOZIE-536
p2783
aVOOZIE-535
p2784
aVOOZIE-534
p2785
aVOOZIE-533
p2786
aVOOZIE-532
p2787
aVOOZIE-531
p2788
aVOOZIE-530
p2789
aVOOZIE-529
p2790
aVOOZIE-528
p2791
aVOOZIE-527
p2792
aVOOZIE-526
p2793
aVOOZIE-525
p2794
aVOOZIE-524
p2795
aVOOZIE-523
p2796
aVOOZIE-522
p2797
aVOOZIE-521
p2798
aVOOZIE-520
p2799
aVOOZIE-519
p2800
aVOOZIE-518
p2801
aVOOZIE-517
p2802
aVOOZIE-516
p2803
aVOOZIE-515
p2804
aVOOZIE-514
p2805
aVOOZIE-513
p2806
aVOOZIE-512
p2807
aVOOZIE-511
p2808
aVOOZIE-510
p2809
aVOOZIE-509
p2810
aVOOZIE-508
p2811
aVOOZIE-507
p2812
aVOOZIE-506
p2813
aVOOZIE-505
p2814
aVOOZIE-504
p2815
aVOOZIE-503
p2816
aVOOZIE-502
p2817
aVOOZIE-501
p2818
aVOOZIE-500
p2819
aVOOZIE-499
p2820
aVOOZIE-498
p2821
aVOOZIE-497
p2822
aVOOZIE-496
p2823
aVOOZIE-495
p2824
aVOOZIE-494
p2825
aVOOZIE-493
p2826
aVOOZIE-492
p2827
aVOOZIE-491
p2828
aVOOZIE-490
p2829
aVOOZIE-489
p2830
aVOOZIE-488
p2831
aVOOZIE-487
p2832
aVOOZIE-486
p2833
aVOOZIE-485
p2834
aVOOZIE-484
p2835
aVOOZIE-483
p2836
aVOOZIE-482
p2837
aVOOZIE-481
p2838
aVOOZIE-480
p2839
aVOOZIE-479
p2840
aVOOZIE-478
p2841
aVOOZIE-477
p2842
aVOOZIE-476
p2843
aVOOZIE-475
p2844
aVOOZIE-474
p2845
aVOOZIE-473
p2846
aVOOZIE-472
p2847
aVOOZIE-471
p2848
aVOOZIE-470
p2849
aVOOZIE-469
p2850
aVOOZIE-468
p2851
aVOOZIE-467
p2852
aVOOZIE-466
p2853
aVOOZIE-465
p2854
aVOOZIE-464
p2855
aVOOZIE-463
p2856
aVOOZIE-462
p2857
aVOOZIE-461
p2858
aVOOZIE-460
p2859
aVOOZIE-459
p2860
aVOOZIE-458
p2861
aVOOZIE-457
p2862
aVOOZIE-456
p2863
aVOOZIE-455
p2864
aVOOZIE-454
p2865
aVOOZIE-453
p2866
aVOOZIE-452
p2867
aVOOZIE-451
p2868
aVOOZIE-450
p2869
aVOOZIE-449
p2870
aVOOZIE-448
p2871
aVOOZIE-447
p2872
aVOOZIE-446
p2873
aVOOZIE-445
p2874
aVOOZIE-444
p2875
aVOOZIE-443
p2876
aVOOZIE-442
p2877
aVOOZIE-441
p2878
aVOOZIE-440
p2879
aVOOZIE-439
p2880
aVOOZIE-438
p2881
aVOOZIE-437
p2882
aVOOZIE-436
p2883
aVOOZIE-435
p2884
aVOOZIE-434
p2885
aVOOZIE-433
p2886
aVOOZIE-432
p2887
aVOOZIE-431
p2888
aVOOZIE-430
p2889
aVOOZIE-429
p2890
aVOOZIE-428
p2891
aVOOZIE-427
p2892
aVOOZIE-426
p2893
aVOOZIE-425
p2894
aVOOZIE-424
p2895
aVOOZIE-423
p2896
aVOOZIE-422
p2897
aVOOZIE-421
p2898
aVOOZIE-420
p2899
aVOOZIE-419
p2900
aVOOZIE-418
p2901
aVOOZIE-417
p2902
aVOOZIE-416
p2903
aVOOZIE-415
p2904
aVOOZIE-414
p2905
aVOOZIE-413
p2906
aVOOZIE-412
p2907
aVOOZIE-411
p2908
aVOOZIE-410
p2909
aVOOZIE-409
p2910
aVOOZIE-408
p2911
aVOOZIE-407
p2912
aVOOZIE-406
p2913
aVOOZIE-405
p2914
aVOOZIE-404
p2915
aVOOZIE-403
p2916
aVOOZIE-402
p2917
aVOOZIE-401
p2918
aVOOZIE-400
p2919
aVOOZIE-399
p2920
aVOOZIE-398
p2921
aVOOZIE-397
p2922
aVOOZIE-396
p2923
aVOOZIE-395
p2924
aVOOZIE-394
p2925
aVOOZIE-393
p2926
aVOOZIE-392
p2927
aVOOZIE-391
p2928
aVOOZIE-390
p2929
aVOOZIE-389
p2930
aVOOZIE-388
p2931
aVOOZIE-387
p2932
aVOOZIE-386
p2933
aVOOZIE-385
p2934
aVOOZIE-384
p2935
aVOOZIE-383
p2936
aVOOZIE-382
p2937
aVOOZIE-381
p2938
aVOOZIE-380
p2939
aVOOZIE-379
p2940
aVOOZIE-378
p2941
aVOOZIE-377
p2942
aVOOZIE-376
p2943
aVOOZIE-375
p2944
aVOOZIE-374
p2945
aVOOZIE-373
p2946
aVOOZIE-372
p2947
aVOOZIE-371
p2948
aVOOZIE-370
p2949
aVOOZIE-369
p2950
aVOOZIE-368
p2951
aVOOZIE-367
p2952
aVOOZIE-366
p2953
aVOOZIE-365
p2954
aVOOZIE-364
p2955
aVOOZIE-363
p2956
aVOOZIE-362
p2957
aVOOZIE-361
p2958
aVOOZIE-360
p2959
aVOOZIE-359
p2960
aVOOZIE-358
p2961
aVOOZIE-357
p2962
aVOOZIE-356
p2963
aVOOZIE-355
p2964
aVOOZIE-354
p2965
aVOOZIE-353
p2966
aVOOZIE-352
p2967
aVOOZIE-351
p2968
aVOOZIE-350
p2969
aVOOZIE-349
p2970
aVOOZIE-348
p2971
aVOOZIE-347
p2972
aVOOZIE-346
p2973
aVOOZIE-345
p2974
aVOOZIE-344
p2975
aVOOZIE-343
p2976
aVOOZIE-342
p2977
aVOOZIE-341
p2978
aVOOZIE-340
p2979
aVOOZIE-339
p2980
aVOOZIE-338
p2981
aVOOZIE-337
p2982
aVOOZIE-336
p2983
aVOOZIE-335
p2984
aVOOZIE-334
p2985
aVOOZIE-333
p2986
aVOOZIE-332
p2987
aVOOZIE-331
p2988
aVOOZIE-330
p2989
aVOOZIE-329
p2990
aVOOZIE-328
p2991
aVOOZIE-327
p2992
aVOOZIE-326
p2993
aVOOZIE-325
p2994
aVOOZIE-324
p2995
aVOOZIE-323
p2996
aVOOZIE-322
p2997
aVOOZIE-321
p2998
aVOOZIE-320
p2999
aVOOZIE-319
p3000
aVOOZIE-318
p3001
aVOOZIE-317
p3002
aVOOZIE-316
p3003
aVOOZIE-315
p3004
aVOOZIE-314
p3005
aVOOZIE-313
p3006
aVOOZIE-312
p3007
aVOOZIE-311
p3008
aVOOZIE-310
p3009
aVOOZIE-309
p3010
aVOOZIE-308
p3011
aVOOZIE-307
p3012
aVOOZIE-306
p3013
aVOOZIE-305
p3014
aVOOZIE-304
p3015
aVOOZIE-303
p3016
aVOOZIE-302
p3017
aVOOZIE-301
p3018
aVOOZIE-300
p3019
aVOOZIE-299
p3020
aVOOZIE-298
p3021
aVOOZIE-297
p3022
aVOOZIE-296
p3023
aVOOZIE-295
p3024
aVOOZIE-294
p3025
aVOOZIE-293
p3026
aVOOZIE-292
p3027
aVOOZIE-291
p3028
aVOOZIE-290
p3029
aVOOZIE-289
p3030
aVOOZIE-288
p3031
aVOOZIE-287
p3032
aVOOZIE-286
p3033
aVOOZIE-285
p3034
aVOOZIE-284
p3035
aVOOZIE-283
p3036
aVOOZIE-282
p3037
aVOOZIE-281
p3038
aVOOZIE-280
p3039
aVOOZIE-279
p3040
aVOOZIE-278
p3041
aVOOZIE-277
p3042
aVOOZIE-276
p3043
aVOOZIE-275
p3044
aVOOZIE-274
p3045
aVOOZIE-273
p3046
aVOOZIE-272
p3047
aVOOZIE-271
p3048
aVOOZIE-270
p3049
aVOOZIE-269
p3050
aVOOZIE-268
p3051
aVOOZIE-267
p3052
aVOOZIE-266
p3053
aVOOZIE-265
p3054
aVOOZIE-264
p3055
aVOOZIE-263
p3056
aVOOZIE-262
p3057
aVOOZIE-261
p3058
aVOOZIE-260
p3059
aVOOZIE-259
p3060
aVOOZIE-258
p3061
aVOOZIE-257
p3062
aVOOZIE-256
p3063
aVOOZIE-255
p3064
aVOOZIE-254
p3065
aVOOZIE-253
p3066
aVOOZIE-252
p3067
aVOOZIE-251
p3068
aVOOZIE-250
p3069
aVOOZIE-249
p3070
aVOOZIE-248
p3071
aVOOZIE-247
p3072
aVOOZIE-246
p3073
aVOOZIE-245
p3074
aVOOZIE-244
p3075
aVOOZIE-243
p3076
aVOOZIE-242
p3077
aVOOZIE-241
p3078
aVOOZIE-240
p3079
aVOOZIE-239
p3080
aVOOZIE-238
p3081
aVOOZIE-237
p3082
aVOOZIE-236
p3083
aVOOZIE-235
p3084
aVOOZIE-234
p3085
aVOOZIE-233
p3086
aVOOZIE-232
p3087
aVOOZIE-231
p3088
aVOOZIE-230
p3089
aVOOZIE-229
p3090
aVOOZIE-228
p3091
aVOOZIE-227
p3092
aVOOZIE-226
p3093
aVOOZIE-225
p3094
aVOOZIE-224
p3095
aVOOZIE-223
p3096
aVOOZIE-222
p3097
aVOOZIE-221
p3098
aVOOZIE-220
p3099
aVOOZIE-219
p3100
aVOOZIE-218
p3101
aVOOZIE-217
p3102
aVOOZIE-216
p3103
aVOOZIE-215
p3104
aVOOZIE-214
p3105
aVOOZIE-213
p3106
aVOOZIE-212
p3107
aVOOZIE-211
p3108
aVOOZIE-210
p3109
aVOOZIE-209
p3110
aVOOZIE-208
p3111
aVOOZIE-207
p3112
aVOOZIE-206
p3113
aVOOZIE-205
p3114
aVOOZIE-204
p3115
aVOOZIE-203
p3116
aVOOZIE-202
p3117
aVOOZIE-201
p3118
aVOOZIE-200
p3119
aVOOZIE-199
p3120
aVOOZIE-198
p3121
aVOOZIE-197
p3122
aVOOZIE-196
p3123
aVOOZIE-195
p3124
aVOOZIE-194
p3125
aVOOZIE-193
p3126
aVOOZIE-192
p3127
aVOOZIE-191
p3128
aVOOZIE-190
p3129
aVOOZIE-189
p3130
aVOOZIE-188
p3131
aVOOZIE-187
p3132
aVOOZIE-186
p3133
aVOOZIE-185
p3134
aVOOZIE-184
p3135
aVOOZIE-183
p3136
aVOOZIE-182
p3137
aVOOZIE-181
p3138
aVOOZIE-180
p3139
aVOOZIE-179
p3140
aVOOZIE-178
p3141
aVOOZIE-177
p3142
aVOOZIE-176
p3143
aVOOZIE-175
p3144
aVOOZIE-174
p3145
aVOOZIE-173
p3146
aVOOZIE-172
p3147
aVOOZIE-171
p3148
aVOOZIE-170
p3149
aVOOZIE-169
p3150
aVOOZIE-168
p3151
aVOOZIE-167
p3152
aVOOZIE-166
p3153
aVOOZIE-165
p3154
aVOOZIE-164
p3155
aVOOZIE-163
p3156
aVOOZIE-162
p3157
aVOOZIE-161
p3158
aVOOZIE-160
p3159
aVOOZIE-159
p3160
aVOOZIE-158
p3161
aVOOZIE-157
p3162
aVOOZIE-156
p3163
aVOOZIE-155
p3164
aVOOZIE-154
p3165
aVOOZIE-153
p3166
aVOOZIE-152
p3167
aVOOZIE-151
p3168
aVOOZIE-150
p3169
aVOOZIE-149
p3170
aVOOZIE-148
p3171
aVOOZIE-147
p3172
aVOOZIE-146
p3173
aVOOZIE-145
p3174
aVOOZIE-144
p3175
aVOOZIE-143
p3176
aVOOZIE-142
p3177
aVOOZIE-141
p3178
aVOOZIE-140
p3179
aVOOZIE-139
p3180
aVOOZIE-138
p3181
aVOOZIE-137
p3182
aVOOZIE-136
p3183
aVOOZIE-135
p3184
aVOOZIE-134
p3185
aVOOZIE-133
p3186
aVOOZIE-132
p3187
aVOOZIE-131
p3188
aVOOZIE-130
p3189
aVOOZIE-129
p3190
aVOOZIE-128
p3191
aVOOZIE-127
p3192
aVOOZIE-126
p3193
aVOOZIE-125
p3194
aVOOZIE-124
p3195
aVOOZIE-123
p3196
aVOOZIE-122
p3197
aVOOZIE-121
p3198
aVOOZIE-120
p3199
aVOOZIE-119
p3200
aVOOZIE-118
p3201
aVOOZIE-117
p3202
aVOOZIE-116
p3203
aVOOZIE-115
p3204
aVOOZIE-114
p3205
aVOOZIE-113
p3206
aVOOZIE-112
p3207
aVOOZIE-111
p3208
aVOOZIE-110
p3209
aVOOZIE-109
p3210
aVOOZIE-108
p3211
aVOOZIE-107
p3212
aVOOZIE-106
p3213
aVOOZIE-105
p3214
aVOOZIE-104
p3215
aVOOZIE-103
p3216
aVOOZIE-102
p3217
aVOOZIE-101
p3218
aVOOZIE-100
p3219
aVOOZIE-99
p3220
aVOOZIE-98
p3221
aVOOZIE-97
p3222
aVOOZIE-96
p3223
aVOOZIE-95
p3224
aVOOZIE-94
p3225
aVOOZIE-93
p3226
aVOOZIE-92
p3227
aVOOZIE-91
p3228
aVOOZIE-90
p3229
aVOOZIE-89
p3230
aVOOZIE-88
p3231
aVOOZIE-87
p3232
aVOOZIE-86
p3233
aVOOZIE-85
p3234
aVOOZIE-84
p3235
aVOOZIE-83
p3236
aVOOZIE-82
p3237
aVOOZIE-81
p3238
aVOOZIE-80
p3239
aVOOZIE-79
p3240
aVOOZIE-78
p3241
aVOOZIE-77
p3242
aVOOZIE-76
p3243
aVOOZIE-75
p3244
aVOOZIE-74
p3245
aVOOZIE-73
p3246
aVOOZIE-72
p3247
aVOOZIE-71
p3248
aVOOZIE-70
p3249
aVOOZIE-69
p3250
aVOOZIE-68
p3251
aVOOZIE-67
p3252
aVOOZIE-66
p3253
aVOOZIE-65
p3254
aVOOZIE-64
p3255
aVOOZIE-63
p3256
aVOOZIE-62
p3257
aVOOZIE-61
p3258
aVOOZIE-60
p3259
aVOOZIE-59
p3260
aVOOZIE-58
p3261
aVOOZIE-57
p3262
aVOOZIE-56
p3263
aVOOZIE-55
p3264
aVOOZIE-54
p3265
aVOOZIE-53
p3266
aVOOZIE-52
p3267
aVOOZIE-51
p3268
aVOOZIE-50
p3269
aVOOZIE-49
p3270
aVOOZIE-48
p3271
aVOOZIE-47
p3272
aVOOZIE-46
p3273
aVOOZIE-45
p3274
aVOOZIE-44
p3275
aVOOZIE-43
p3276
aVOOZIE-42
p3277
aVOOZIE-41
p3278
aVOOZIE-40
p3279
aVOOZIE-39
p3280
aVOOZIE-38
p3281
aVOOZIE-37
p3282
aVOOZIE-36
p3283
aVOOZIE-35
p3284
aVOOZIE-34
p3285
aVOOZIE-33
p3286
aVOOZIE-32
p3287
aVOOZIE-31
p3288
aVOOZIE-30
p3289
aVOOZIE-29
p3290
aVOOZIE-28
p3291
aVOOZIE-27
p3292
aVOOZIE-26
p3293
aVOOZIE-25
p3294
aVOOZIE-24
p3295
aVOOZIE-23
p3296
aVOOZIE-22
p3297
aVOOZIE-21
p3298
aVOOZIE-20
p3299
aVOOZIE-19
p3300
aVOOZIE-18
p3301
aVOOZIE-17
p3302
aVOOZIE-16
p3303
aVOOZIE-15
p3304
aVOOZIE-14
p3305
aVOOZIE-13
p3306
aVOOZIE-12
p3307
aVOOZIE-11
p3308
aVOOZIE-10
p3309
aVOOZIE-9
p3310
aVOOZIE-8
p3311
aVOOZIE-7
p3312
aVOOZIE-6
p3313
aVOOZIE-5
p3314
aVOOZIE-4
p3315
aVOOZIE-3
p3316
aVOOZIE-2
p3317
aVOOZIE-1
p3318
a.