(lp0
VOPENWIRE-16
p1
aVOPENWIRE-15
p2
aVOPENWIRE-12
p3
aVOPENWIRE-11
p4
aVOPENWIRE-10
p5
aVOPENWIRE-9
p6
aVOPENWIRE-8
p7
aVOPENWIRE-7
p8
aVOPENWIRE-6
p9
aVOPENWIRE-5
p10
aVOPENWIRE-4
p11
aVOPENWIRE-3
p12
aVOPENWIRE-2
p13
aVOPENWIRE-1
p14
a.