(lp0
VOPENNLP-1210
p1
aVOPENNLP-1209
p2
aVOPENNLP-1208
p3
aVOPENNLP-1207
p4
aVOPENNLP-1206
p5
aVOPENNLP-1205
p6
aVOPENNLP-1204
p7
aVOPENNLP-1203
p8
aVOPENNLP-1202
p9
aVOPENNLP-1201
p10
aVOPENNLP-1200
p11
aVOPENNLP-1199
p12
aVOPENNLP-1198
p13
aVOPENNLP-1197
p14
aVOPENNLP-1196
p15
aVOPENNLP-1195
p16
aVOPENNLP-1194
p17
aVOPENNLP-1193
p18
aVOPENNLP-1192
p19
aVOPENNLP-1191
p20
aVOPENNLP-1190
p21
aVOPENNLP-1189
p22
aVOPENNLP-1188
p23
aVOPENNLP-1187
p24
aVOPENNLP-1186
p25
aVOPENNLP-1185
p26
aVOPENNLP-1184
p27
aVOPENNLP-1183
p28
aVOPENNLP-1182
p29
aVOPENNLP-1181
p30
aVOPENNLP-1180
p31
aVOPENNLP-1179
p32
aVOPENNLP-1178
p33
aVOPENNLP-1177
p34
aVOPENNLP-1176
p35
aVOPENNLP-1175
p36
aVOPENNLP-1174
p37
aVOPENNLP-1173
p38
aVOPENNLP-1172
p39
aVOPENNLP-1171
p40
aVOPENNLP-1170
p41
aVOPENNLP-1169
p42
aVOPENNLP-1168
p43
aVOPENNLP-1167
p44
aVOPENNLP-1166
p45
aVOPENNLP-1165
p46
aVOPENNLP-1164
p47
aVOPENNLP-1163
p48
aVOPENNLP-1162
p49
aVOPENNLP-1161
p50
aVOPENNLP-1160
p51
aVOPENNLP-1159
p52
aVOPENNLP-1158
p53
aVOPENNLP-1157
p54
aVOPENNLP-1156
p55
aVOPENNLP-1155
p56
aVOPENNLP-1154
p57
aVOPENNLP-1153
p58
aVOPENNLP-1152
p59
aVOPENNLP-1151
p60
aVOPENNLP-1150
p61
aVOPENNLP-1149
p62
aVOPENNLP-1148
p63
aVOPENNLP-1147
p64
aVOPENNLP-1146
p65
aVOPENNLP-1145
p66
aVOPENNLP-1144
p67
aVOPENNLP-1143
p68
aVOPENNLP-1142
p69
aVOPENNLP-1141
p70
aVOPENNLP-1140
p71
aVOPENNLP-1139
p72
aVOPENNLP-1138
p73
aVOPENNLP-1137
p74
aVOPENNLP-1136
p75
aVOPENNLP-1135
p76
aVOPENNLP-1134
p77
aVOPENNLP-1133
p78
aVOPENNLP-1132
p79
aVOPENNLP-1131
p80
aVOPENNLP-1130
p81
aVOPENNLP-1129
p82
aVOPENNLP-1128
p83
aVOPENNLP-1127
p84
aVOPENNLP-1126
p85
aVOPENNLP-1125
p86
aVOPENNLP-1124
p87
aVOPENNLP-1123
p88
aVOPENNLP-1122
p89
aVOPENNLP-1121
p90
aVOPENNLP-1120
p91
aVOPENNLP-1119
p92
aVOPENNLP-1118
p93
aVOPENNLP-1117
p94
aVOPENNLP-1116
p95
aVOPENNLP-1115
p96
aVOPENNLP-1114
p97
aVOPENNLP-1113
p98
aVOPENNLP-1112
p99
aVOPENNLP-1111
p100
aVOPENNLP-1110
p101
aVOPENNLP-1109
p102
aVOPENNLP-1108
p103
aVOPENNLP-1107
p104
aVOPENNLP-1106
p105
aVOPENNLP-1105
p106
aVOPENNLP-1104
p107
aVOPENNLP-1103
p108
aVOPENNLP-1102
p109
aVOPENNLP-1101
p110
aVOPENNLP-1100
p111
aVOPENNLP-1099
p112
aVOPENNLP-1098
p113
aVOPENNLP-1097
p114
aVOPENNLP-1096
p115
aVOPENNLP-1095
p116
aVOPENNLP-1094
p117
aVOPENNLP-1093
p118
aVOPENNLP-1092
p119
aVOPENNLP-1091
p120
aVOPENNLP-1090
p121
aVOPENNLP-1089
p122
aVOPENNLP-1088
p123
aVOPENNLP-1087
p124
aVOPENNLP-1086
p125
aVOPENNLP-1085
p126
aVOPENNLP-1084
p127
aVOPENNLP-1083
p128
aVOPENNLP-1082
p129
aVOPENNLP-1081
p130
aVOPENNLP-1080
p131
aVOPENNLP-1079
p132
aVOPENNLP-1078
p133
aVOPENNLP-1077
p134
aVOPENNLP-1076
p135
aVOPENNLP-1075
p136
aVOPENNLP-1074
p137
aVOPENNLP-1073
p138
aVOPENNLP-1072
p139
aVOPENNLP-1071
p140
aVOPENNLP-1070
p141
aVOPENNLP-1069
p142
aVOPENNLP-1068
p143
aVOPENNLP-1067
p144
aVOPENNLP-1066
p145
aVOPENNLP-1065
p146
aVOPENNLP-1064
p147
aVOPENNLP-1063
p148
aVOPENNLP-1062
p149
aVOPENNLP-1061
p150
aVOPENNLP-1060
p151
aVOPENNLP-1059
p152
aVOPENNLP-1058
p153
aVOPENNLP-1057
p154
aVOPENNLP-1056
p155
aVOPENNLP-1055
p156
aVOPENNLP-1054
p157
aVOPENNLP-1053
p158
aVOPENNLP-1052
p159
aVOPENNLP-1051
p160
aVOPENNLP-1050
p161
aVOPENNLP-1049
p162
aVOPENNLP-1048
p163
aVOPENNLP-1047
p164
aVOPENNLP-1046
p165
aVOPENNLP-1045
p166
aVOPENNLP-1044
p167
aVOPENNLP-1043
p168
aVOPENNLP-1042
p169
aVOPENNLP-1041
p170
aVOPENNLP-1040
p171
aVOPENNLP-1039
p172
aVOPENNLP-1038
p173
aVOPENNLP-1037
p174
aVOPENNLP-1036
p175
aVOPENNLP-1035
p176
aVOPENNLP-1034
p177
aVOPENNLP-1033
p178
aVOPENNLP-1032
p179
aVOPENNLP-1031
p180
aVOPENNLP-1030
p181
aVOPENNLP-1029
p182
aVOPENNLP-1028
p183
aVOPENNLP-1027
p184
aVOPENNLP-1026
p185
aVOPENNLP-1025
p186
aVOPENNLP-1024
p187
aVOPENNLP-1023
p188
aVOPENNLP-1022
p189
aVOPENNLP-1021
p190
aVOPENNLP-1020
p191
aVOPENNLP-1019
p192
aVOPENNLP-1018
p193
aVOPENNLP-1017
p194
aVOPENNLP-1016
p195
aVOPENNLP-1015
p196
aVOPENNLP-1014
p197
aVOPENNLP-1013
p198
aVOPENNLP-1012
p199
aVOPENNLP-1011
p200
aVOPENNLP-1010
p201
aVOPENNLP-1009
p202
aVOPENNLP-1008
p203
aVOPENNLP-1007
p204
aVOPENNLP-1006
p205
aVOPENNLP-1005
p206
aVOPENNLP-1004
p207
aVOPENNLP-1003
p208
aVOPENNLP-1002
p209
aVOPENNLP-1001
p210
aVOPENNLP-1000
p211
aVOPENNLP-999
p212
aVOPENNLP-998
p213
aVOPENNLP-997
p214
aVOPENNLP-996
p215
aVOPENNLP-995
p216
aVOPENNLP-994
p217
aVOPENNLP-993
p218
aVOPENNLP-992
p219
aVOPENNLP-991
p220
aVOPENNLP-990
p221
aVOPENNLP-989
p222
aVOPENNLP-988
p223
aVOPENNLP-987
p224
aVOPENNLP-986
p225
aVOPENNLP-985
p226
aVOPENNLP-984
p227
aVOPENNLP-983
p228
aVOPENNLP-982
p229
aVOPENNLP-981
p230
aVOPENNLP-980
p231
aVOPENNLP-979
p232
aVOPENNLP-978
p233
aVOPENNLP-977
p234
aVOPENNLP-976
p235
aVOPENNLP-975
p236
aVOPENNLP-974
p237
aVOPENNLP-973
p238
aVOPENNLP-972
p239
aVOPENNLP-971
p240
aVOPENNLP-970
p241
aVOPENNLP-969
p242
aVOPENNLP-968
p243
aVOPENNLP-967
p244
aVOPENNLP-966
p245
aVOPENNLP-965
p246
aVOPENNLP-964
p247
aVOPENNLP-963
p248
aVOPENNLP-962
p249
aVOPENNLP-961
p250
aVOPENNLP-960
p251
aVOPENNLP-959
p252
aVOPENNLP-958
p253
aVOPENNLP-957
p254
aVOPENNLP-956
p255
aVOPENNLP-955
p256
aVOPENNLP-954
p257
aVOPENNLP-953
p258
aVOPENNLP-952
p259
aVOPENNLP-951
p260
aVOPENNLP-950
p261
aVOPENNLP-949
p262
aVOPENNLP-948
p263
aVOPENNLP-947
p264
aVOPENNLP-946
p265
aVOPENNLP-945
p266
aVOPENNLP-944
p267
aVOPENNLP-943
p268
aVOPENNLP-942
p269
aVOPENNLP-941
p270
aVOPENNLP-940
p271
aVOPENNLP-939
p272
aVOPENNLP-938
p273
aVOPENNLP-937
p274
aVOPENNLP-936
p275
aVOPENNLP-935
p276
aVOPENNLP-934
p277
aVOPENNLP-933
p278
aVOPENNLP-932
p279
aVOPENNLP-931
p280
aVOPENNLP-930
p281
aVOPENNLP-929
p282
aVOPENNLP-928
p283
aVOPENNLP-927
p284
aVOPENNLP-926
p285
aVOPENNLP-925
p286
aVOPENNLP-924
p287
aVOPENNLP-923
p288
aVOPENNLP-922
p289
aVOPENNLP-921
p290
aVOPENNLP-920
p291
aVOPENNLP-919
p292
aVOPENNLP-918
p293
aVOPENNLP-917
p294
aVOPENNLP-916
p295
aVOPENNLP-915
p296
aVOPENNLP-914
p297
aVOPENNLP-913
p298
aVOPENNLP-912
p299
aVOPENNLP-911
p300
aVOPENNLP-910
p301
aVOPENNLP-909
p302
aVOPENNLP-908
p303
aVOPENNLP-907
p304
aVOPENNLP-906
p305
aVOPENNLP-905
p306
aVOPENNLP-904
p307
aVOPENNLP-903
p308
aVOPENNLP-902
p309
aVOPENNLP-901
p310
aVOPENNLP-900
p311
aVOPENNLP-899
p312
aVOPENNLP-898
p313
aVOPENNLP-897
p314
aVOPENNLP-896
p315
aVOPENNLP-895
p316
aVOPENNLP-894
p317
aVOPENNLP-893
p318
aVOPENNLP-892
p319
aVOPENNLP-891
p320
aVOPENNLP-890
p321
aVOPENNLP-889
p322
aVOPENNLP-888
p323
aVOPENNLP-887
p324
aVOPENNLP-886
p325
aVOPENNLP-885
p326
aVOPENNLP-884
p327
aVOPENNLP-883
p328
aVOPENNLP-882
p329
aVOPENNLP-881
p330
aVOPENNLP-880
p331
aVOPENNLP-879
p332
aVOPENNLP-878
p333
aVOPENNLP-877
p334
aVOPENNLP-876
p335
aVOPENNLP-875
p336
aVOPENNLP-874
p337
aVOPENNLP-873
p338
aVOPENNLP-872
p339
aVOPENNLP-871
p340
aVOPENNLP-870
p341
aVOPENNLP-869
p342
aVOPENNLP-868
p343
aVOPENNLP-867
p344
aVOPENNLP-866
p345
aVOPENNLP-865
p346
aVOPENNLP-864
p347
aVOPENNLP-863
p348
aVOPENNLP-862
p349
aVOPENNLP-861
p350
aVOPENNLP-860
p351
aVOPENNLP-859
p352
aVOPENNLP-858
p353
aVOPENNLP-857
p354
aVOPENNLP-856
p355
aVOPENNLP-855
p356
aVOPENNLP-854
p357
aVOPENNLP-853
p358
aVOPENNLP-852
p359
aVOPENNLP-851
p360
aVOPENNLP-850
p361
aVOPENNLP-849
p362
aVOPENNLP-848
p363
aVOPENNLP-847
p364
aVOPENNLP-846
p365
aVOPENNLP-845
p366
aVOPENNLP-844
p367
aVOPENNLP-843
p368
aVOPENNLP-842
p369
aVOPENNLP-841
p370
aVOPENNLP-840
p371
aVOPENNLP-839
p372
aVOPENNLP-838
p373
aVOPENNLP-837
p374
aVOPENNLP-836
p375
aVOPENNLP-835
p376
aVOPENNLP-834
p377
aVOPENNLP-833
p378
aVOPENNLP-832
p379
aVOPENNLP-831
p380
aVOPENNLP-830
p381
aVOPENNLP-829
p382
aVOPENNLP-828
p383
aVOPENNLP-827
p384
aVOPENNLP-826
p385
aVOPENNLP-825
p386
aVOPENNLP-824
p387
aVOPENNLP-823
p388
aVOPENNLP-822
p389
aVOPENNLP-821
p390
aVOPENNLP-820
p391
aVOPENNLP-819
p392
aVOPENNLP-818
p393
aVOPENNLP-817
p394
aVOPENNLP-816
p395
aVOPENNLP-815
p396
aVOPENNLP-814
p397
aVOPENNLP-813
p398
aVOPENNLP-812
p399
aVOPENNLP-811
p400
aVOPENNLP-810
p401
aVOPENNLP-809
p402
aVOPENNLP-808
p403
aVOPENNLP-807
p404
aVOPENNLP-806
p405
aVOPENNLP-805
p406
aVOPENNLP-804
p407
aVOPENNLP-803
p408
aVOPENNLP-802
p409
aVOPENNLP-801
p410
aVOPENNLP-800
p411
aVOPENNLP-799
p412
aVOPENNLP-798
p413
aVOPENNLP-797
p414
aVOPENNLP-796
p415
aVOPENNLP-795
p416
aVOPENNLP-794
p417
aVOPENNLP-793
p418
aVOPENNLP-792
p419
aVOPENNLP-791
p420
aVOPENNLP-790
p421
aVOPENNLP-789
p422
aVOPENNLP-788
p423
aVOPENNLP-787
p424
aVOPENNLP-786
p425
aVOPENNLP-785
p426
aVOPENNLP-784
p427
aVOPENNLP-783
p428
aVOPENNLP-782
p429
aVOPENNLP-781
p430
aVOPENNLP-780
p431
aVOPENNLP-779
p432
aVOPENNLP-778
p433
aVOPENNLP-777
p434
aVOPENNLP-776
p435
aVOPENNLP-775
p436
aVOPENNLP-774
p437
aVOPENNLP-773
p438
aVOPENNLP-772
p439
aVOPENNLP-771
p440
aVOPENNLP-770
p441
aVOPENNLP-769
p442
aVOPENNLP-768
p443
aVOPENNLP-767
p444
aVOPENNLP-766
p445
aVOPENNLP-765
p446
aVOPENNLP-764
p447
aVOPENNLP-763
p448
aVOPENNLP-762
p449
aVOPENNLP-761
p450
aVOPENNLP-760
p451
aVOPENNLP-759
p452
aVOPENNLP-758
p453
aVOPENNLP-757
p454
aVOPENNLP-756
p455
aVOPENNLP-755
p456
aVOPENNLP-754
p457
aVOPENNLP-753
p458
aVOPENNLP-752
p459
aVOPENNLP-751
p460
aVOPENNLP-750
p461
aVOPENNLP-749
p462
aVOPENNLP-748
p463
aVOPENNLP-747
p464
aVOPENNLP-746
p465
aVOPENNLP-745
p466
aVOPENNLP-744
p467
aVOPENNLP-743
p468
aVOPENNLP-742
p469
aVOPENNLP-741
p470
aVOPENNLP-740
p471
aVOPENNLP-739
p472
aVOPENNLP-738
p473
aVOPENNLP-736
p474
aVOPENNLP-735
p475
aVOPENNLP-734
p476
aVOPENNLP-733
p477
aVOPENNLP-732
p478
aVOPENNLP-731
p479
aVOPENNLP-730
p480
aVOPENNLP-729
p481
aVOPENNLP-728
p482
aVOPENNLP-727
p483
aVOPENNLP-726
p484
aVOPENNLP-725
p485
aVOPENNLP-724
p486
aVOPENNLP-723
p487
aVOPENNLP-722
p488
aVOPENNLP-721
p489
aVOPENNLP-720
p490
aVOPENNLP-719
p491
aVOPENNLP-718
p492
aVOPENNLP-717
p493
aVOPENNLP-716
p494
aVOPENNLP-715
p495
aVOPENNLP-714
p496
aVOPENNLP-713
p497
aVOPENNLP-712
p498
aVOPENNLP-711
p499
aVOPENNLP-710
p500
aVOPENNLP-709
p501
aVOPENNLP-708
p502
aVOPENNLP-707
p503
aVOPENNLP-706
p504
aVOPENNLP-705
p505
aVOPENNLP-704
p506
aVOPENNLP-703
p507
aVOPENNLP-702
p508
aVOPENNLP-701
p509
aVOPENNLP-700
p510
aVOPENNLP-699
p511
aVOPENNLP-698
p512
aVOPENNLP-697
p513
aVOPENNLP-696
p514
aVOPENNLP-695
p515
aVOPENNLP-694
p516
aVOPENNLP-693
p517
aVOPENNLP-692
p518
aVOPENNLP-691
p519
aVOPENNLP-690
p520
aVOPENNLP-689
p521
aVOPENNLP-688
p522
aVOPENNLP-687
p523
aVOPENNLP-686
p524
aVOPENNLP-685
p525
aVOPENNLP-684
p526
aVOPENNLP-683
p527
aVOPENNLP-682
p528
aVOPENNLP-681
p529
aVOPENNLP-680
p530
aVOPENNLP-679
p531
aVOPENNLP-678
p532
aVOPENNLP-677
p533
aVOPENNLP-676
p534
aVOPENNLP-675
p535
aVOPENNLP-674
p536
aVOPENNLP-673
p537
aVOPENNLP-672
p538
aVOPENNLP-671
p539
aVOPENNLP-670
p540
aVOPENNLP-669
p541
aVOPENNLP-668
p542
aVOPENNLP-667
p543
aVOPENNLP-666
p544
aVOPENNLP-665
p545
aVOPENNLP-664
p546
aVOPENNLP-663
p547
aVOPENNLP-662
p548
aVOPENNLP-661
p549
aVOPENNLP-660
p550
aVOPENNLP-659
p551
aVOPENNLP-658
p552
aVOPENNLP-657
p553
aVOPENNLP-656
p554
aVOPENNLP-655
p555
aVOPENNLP-654
p556
aVOPENNLP-653
p557
aVOPENNLP-652
p558
aVOPENNLP-651
p559
aVOPENNLP-650
p560
aVOPENNLP-649
p561
aVOPENNLP-648
p562
aVOPENNLP-647
p563
aVOPENNLP-646
p564
aVOPENNLP-645
p565
aVOPENNLP-644
p566
aVOPENNLP-643
p567
aVOPENNLP-642
p568
aVOPENNLP-641
p569
aVOPENNLP-640
p570
aVOPENNLP-639
p571
aVOPENNLP-638
p572
aVOPENNLP-637
p573
aVOPENNLP-636
p574
aVOPENNLP-635
p575
aVOPENNLP-634
p576
aVOPENNLP-633
p577
aVOPENNLP-632
p578
aVOPENNLP-631
p579
aVOPENNLP-630
p580
aVOPENNLP-629
p581
aVOPENNLP-628
p582
aVOPENNLP-627
p583
aVOPENNLP-626
p584
aVOPENNLP-625
p585
aVOPENNLP-624
p586
aVOPENNLP-623
p587
aVOPENNLP-622
p588
aVOPENNLP-621
p589
aVOPENNLP-620
p590
aVOPENNLP-619
p591
aVOPENNLP-618
p592
aVOPENNLP-617
p593
aVOPENNLP-616
p594
aVOPENNLP-615
p595
aVOPENNLP-614
p596
aVOPENNLP-613
p597
aVOPENNLP-612
p598
aVOPENNLP-611
p599
aVOPENNLP-610
p600
aVOPENNLP-609
p601
aVOPENNLP-608
p602
aVOPENNLP-607
p603
aVOPENNLP-606
p604
aVOPENNLP-605
p605
aVOPENNLP-604
p606
aVOPENNLP-603
p607
aVOPENNLP-602
p608
aVOPENNLP-601
p609
aVOPENNLP-600
p610
aVOPENNLP-599
p611
aVOPENNLP-598
p612
aVOPENNLP-597
p613
aVOPENNLP-596
p614
aVOPENNLP-595
p615
aVOPENNLP-594
p616
aVOPENNLP-593
p617
aVOPENNLP-592
p618
aVOPENNLP-591
p619
aVOPENNLP-590
p620
aVOPENNLP-589
p621
aVOPENNLP-588
p622
aVOPENNLP-587
p623
aVOPENNLP-586
p624
aVOPENNLP-585
p625
aVOPENNLP-584
p626
aVOPENNLP-583
p627
aVOPENNLP-582
p628
aVOPENNLP-581
p629
aVOPENNLP-580
p630
aVOPENNLP-579
p631
aVOPENNLP-578
p632
aVOPENNLP-577
p633
aVOPENNLP-576
p634
aVOPENNLP-575
p635
aVOPENNLP-574
p636
aVOPENNLP-573
p637
aVOPENNLP-572
p638
aVOPENNLP-571
p639
aVOPENNLP-570
p640
aVOPENNLP-569
p641
aVOPENNLP-568
p642
aVOPENNLP-567
p643
aVOPENNLP-566
p644
aVOPENNLP-565
p645
aVOPENNLP-564
p646
aVOPENNLP-563
p647
aVOPENNLP-562
p648
aVOPENNLP-561
p649
aVOPENNLP-560
p650
aVOPENNLP-559
p651
aVOPENNLP-558
p652
aVOPENNLP-557
p653
aVOPENNLP-556
p654
aVOPENNLP-555
p655
aVOPENNLP-554
p656
aVOPENNLP-553
p657
aVOPENNLP-552
p658
aVOPENNLP-551
p659
aVOPENNLP-550
p660
aVOPENNLP-549
p661
aVOPENNLP-548
p662
aVOPENNLP-547
p663
aVOPENNLP-546
p664
aVOPENNLP-545
p665
aVOPENNLP-544
p666
aVOPENNLP-543
p667
aVOPENNLP-542
p668
aVOPENNLP-541
p669
aVOPENNLP-540
p670
aVOPENNLP-539
p671
aVOPENNLP-538
p672
aVOPENNLP-537
p673
aVOPENNLP-536
p674
aVOPENNLP-535
p675
aVOPENNLP-534
p676
aVOPENNLP-533
p677
aVOPENNLP-532
p678
aVOPENNLP-531
p679
aVOPENNLP-530
p680
aVOPENNLP-529
p681
aVOPENNLP-528
p682
aVOPENNLP-527
p683
aVOPENNLP-526
p684
aVOPENNLP-525
p685
aVOPENNLP-524
p686
aVOPENNLP-523
p687
aVOPENNLP-522
p688
aVOPENNLP-521
p689
aVOPENNLP-520
p690
aVOPENNLP-519
p691
aVOPENNLP-518
p692
aVOPENNLP-517
p693
aVOPENNLP-516
p694
aVOPENNLP-515
p695
aVOPENNLP-514
p696
aVOPENNLP-513
p697
aVOPENNLP-512
p698
aVOPENNLP-511
p699
aVOPENNLP-510
p700
aVOPENNLP-509
p701
aVOPENNLP-508
p702
aVOPENNLP-507
p703
aVOPENNLP-506
p704
aVOPENNLP-505
p705
aVOPENNLP-504
p706
aVOPENNLP-503
p707
aVOPENNLP-502
p708
aVOPENNLP-501
p709
aVOPENNLP-500
p710
aVOPENNLP-499
p711
aVOPENNLP-498
p712
aVOPENNLP-497
p713
aVOPENNLP-496
p714
aVOPENNLP-495
p715
aVOPENNLP-494
p716
aVOPENNLP-493
p717
aVOPENNLP-492
p718
aVOPENNLP-491
p719
aVOPENNLP-490
p720
aVOPENNLP-489
p721
aVOPENNLP-488
p722
aVOPENNLP-487
p723
aVOPENNLP-486
p724
aVOPENNLP-485
p725
aVOPENNLP-484
p726
aVOPENNLP-483
p727
aVOPENNLP-482
p728
aVOPENNLP-481
p729
aVOPENNLP-480
p730
aVOPENNLP-479
p731
aVOPENNLP-478
p732
aVOPENNLP-477
p733
aVOPENNLP-476
p734
aVOPENNLP-475
p735
aVOPENNLP-474
p736
aVOPENNLP-473
p737
aVOPENNLP-472
p738
aVOPENNLP-471
p739
aVOPENNLP-470
p740
aVOPENNLP-469
p741
aVOPENNLP-468
p742
aVOPENNLP-467
p743
aVOPENNLP-466
p744
aVOPENNLP-465
p745
aVOPENNLP-464
p746
aVOPENNLP-463
p747
aVOPENNLP-462
p748
aVOPENNLP-461
p749
aVOPENNLP-460
p750
aVOPENNLP-459
p751
aVOPENNLP-458
p752
aVOPENNLP-457
p753
aVOPENNLP-456
p754
aVOPENNLP-455
p755
aVOPENNLP-454
p756
aVOPENNLP-453
p757
aVOPENNLP-452
p758
aVOPENNLP-451
p759
aVOPENNLP-450
p760
aVOPENNLP-449
p761
aVOPENNLP-448
p762
aVOPENNLP-447
p763
aVOPENNLP-446
p764
aVOPENNLP-445
p765
aVOPENNLP-444
p766
aVOPENNLP-443
p767
aVOPENNLP-442
p768
aVOPENNLP-441
p769
aVOPENNLP-440
p770
aVOPENNLP-439
p771
aVOPENNLP-438
p772
aVOPENNLP-437
p773
aVOPENNLP-436
p774
aVOPENNLP-435
p775
aVOPENNLP-434
p776
aVOPENNLP-433
p777
aVOPENNLP-432
p778
aVOPENNLP-431
p779
aVOPENNLP-430
p780
aVOPENNLP-429
p781
aVOPENNLP-428
p782
aVOPENNLP-427
p783
aVOPENNLP-426
p784
aVOPENNLP-425
p785
aVOPENNLP-424
p786
aVOPENNLP-423
p787
aVOPENNLP-422
p788
aVOPENNLP-421
p789
aVOPENNLP-420
p790
aVOPENNLP-419
p791
aVOPENNLP-418
p792
aVOPENNLP-417
p793
aVOPENNLP-416
p794
aVOPENNLP-415
p795
aVOPENNLP-414
p796
aVOPENNLP-413
p797
aVOPENNLP-412
p798
aVOPENNLP-411
p799
aVOPENNLP-410
p800
aVOPENNLP-409
p801
aVOPENNLP-408
p802
aVOPENNLP-407
p803
aVOPENNLP-406
p804
aVOPENNLP-405
p805
aVOPENNLP-404
p806
aVOPENNLP-403
p807
aVOPENNLP-402
p808
aVOPENNLP-401
p809
aVOPENNLP-400
p810
aVOPENNLP-399
p811
aVOPENNLP-398
p812
aVOPENNLP-397
p813
aVOPENNLP-396
p814
aVOPENNLP-395
p815
aVOPENNLP-394
p816
aVOPENNLP-393
p817
aVOPENNLP-392
p818
aVOPENNLP-391
p819
aVOPENNLP-390
p820
aVOPENNLP-389
p821
aVOPENNLP-388
p822
aVOPENNLP-387
p823
aVOPENNLP-386
p824
aVOPENNLP-385
p825
aVOPENNLP-384
p826
aVOPENNLP-383
p827
aVOPENNLP-382
p828
aVOPENNLP-381
p829
aVOPENNLP-380
p830
aVOPENNLP-379
p831
aVOPENNLP-378
p832
aVOPENNLP-377
p833
aVOPENNLP-376
p834
aVOPENNLP-375
p835
aVOPENNLP-374
p836
aVOPENNLP-373
p837
aVOPENNLP-372
p838
aVOPENNLP-371
p839
aVOPENNLP-370
p840
aVOPENNLP-369
p841
aVOPENNLP-368
p842
aVOPENNLP-367
p843
aVOPENNLP-366
p844
aVOPENNLP-365
p845
aVOPENNLP-364
p846
aVOPENNLP-363
p847
aVOPENNLP-362
p848
aVOPENNLP-361
p849
aVOPENNLP-360
p850
aVOPENNLP-359
p851
aVOPENNLP-358
p852
aVOPENNLP-357
p853
aVOPENNLP-356
p854
aVOPENNLP-355
p855
aVOPENNLP-354
p856
aVOPENNLP-353
p857
aVOPENNLP-352
p858
aVOPENNLP-351
p859
aVOPENNLP-350
p860
aVOPENNLP-349
p861
aVOPENNLP-348
p862
aVOPENNLP-347
p863
aVOPENNLP-346
p864
aVOPENNLP-345
p865
aVOPENNLP-344
p866
aVOPENNLP-343
p867
aVOPENNLP-342
p868
aVOPENNLP-341
p869
aVOPENNLP-340
p870
aVOPENNLP-339
p871
aVOPENNLP-338
p872
aVOPENNLP-337
p873
aVOPENNLP-336
p874
aVOPENNLP-335
p875
aVOPENNLP-334
p876
aVOPENNLP-333
p877
aVOPENNLP-332
p878
aVOPENNLP-331
p879
aVOPENNLP-330
p880
aVOPENNLP-329
p881
aVOPENNLP-328
p882
aVOPENNLP-327
p883
aVOPENNLP-326
p884
aVOPENNLP-325
p885
aVOPENNLP-324
p886
aVOPENNLP-323
p887
aVOPENNLP-322
p888
aVOPENNLP-321
p889
aVOPENNLP-320
p890
aVOPENNLP-319
p891
aVOPENNLP-318
p892
aVOPENNLP-317
p893
aVOPENNLP-316
p894
aVOPENNLP-315
p895
aVOPENNLP-314
p896
aVOPENNLP-313
p897
aVOPENNLP-312
p898
aVOPENNLP-311
p899
aVOPENNLP-310
p900
aVOPENNLP-309
p901
aVOPENNLP-308
p902
aVOPENNLP-307
p903
aVOPENNLP-306
p904
aVOPENNLP-305
p905
aVOPENNLP-304
p906
aVOPENNLP-303
p907
aVOPENNLP-302
p908
aVOPENNLP-301
p909
aVOPENNLP-300
p910
aVOPENNLP-299
p911
aVOPENNLP-298
p912
aVOPENNLP-297
p913
aVOPENNLP-296
p914
aVOPENNLP-295
p915
aVOPENNLP-294
p916
aVOPENNLP-293
p917
aVOPENNLP-292
p918
aVOPENNLP-291
p919
aVOPENNLP-290
p920
aVOPENNLP-289
p921
aVOPENNLP-288
p922
aVOPENNLP-287
p923
aVOPENNLP-286
p924
aVOPENNLP-285
p925
aVOPENNLP-284
p926
aVOPENNLP-283
p927
aVOPENNLP-282
p928
aVOPENNLP-281
p929
aVOPENNLP-280
p930
aVOPENNLP-279
p931
aVOPENNLP-278
p932
aVOPENNLP-277
p933
aVOPENNLP-276
p934
aVOPENNLP-275
p935
aVOPENNLP-274
p936
aVOPENNLP-273
p937
aVOPENNLP-272
p938
aVOPENNLP-271
p939
aVOPENNLP-270
p940
aVOPENNLP-269
p941
aVOPENNLP-268
p942
aVOPENNLP-267
p943
aVOPENNLP-266
p944
aVOPENNLP-265
p945
aVOPENNLP-264
p946
aVOPENNLP-263
p947
aVOPENNLP-262
p948
aVOPENNLP-261
p949
aVOPENNLP-260
p950
aVOPENNLP-259
p951
aVOPENNLP-258
p952
aVOPENNLP-257
p953
aVOPENNLP-256
p954
aVOPENNLP-255
p955
aVOPENNLP-254
p956
aVOPENNLP-253
p957
aVOPENNLP-252
p958
aVOPENNLP-251
p959
aVOPENNLP-250
p960
aVOPENNLP-249
p961
aVOPENNLP-248
p962
aVOPENNLP-247
p963
aVOPENNLP-246
p964
aVOPENNLP-245
p965
aVOPENNLP-244
p966
aVOPENNLP-243
p967
aVOPENNLP-242
p968
aVOPENNLP-241
p969
aVOPENNLP-240
p970
aVOPENNLP-239
p971
aVOPENNLP-238
p972
aVOPENNLP-237
p973
aVOPENNLP-236
p974
aVOPENNLP-235
p975
aVOPENNLP-234
p976
aVOPENNLP-233
p977
aVOPENNLP-232
p978
aVOPENNLP-231
p979
aVOPENNLP-230
p980
aVOPENNLP-229
p981
aVOPENNLP-228
p982
aVOPENNLP-227
p983
aVOPENNLP-226
p984
aVOPENNLP-225
p985
aVOPENNLP-224
p986
aVOPENNLP-223
p987
aVOPENNLP-222
p988
aVOPENNLP-221
p989
aVOPENNLP-220
p990
aVOPENNLP-219
p991
aVOPENNLP-218
p992
aVOPENNLP-217
p993
aVOPENNLP-216
p994
aVOPENNLP-215
p995
aVOPENNLP-214
p996
aVOPENNLP-213
p997
aVOPENNLP-212
p998
aVOPENNLP-211
p999
aVOPENNLP-210
p1000
aVOPENNLP-209
p1001
aVOPENNLP-208
p1002
aVOPENNLP-207
p1003
aVOPENNLP-206
p1004
aVOPENNLP-205
p1005
aVOPENNLP-204
p1006
aVOPENNLP-203
p1007
aVOPENNLP-202
p1008
aVOPENNLP-201
p1009
aVOPENNLP-200
p1010
aVOPENNLP-199
p1011
aVOPENNLP-198
p1012
aVOPENNLP-197
p1013
aVOPENNLP-196
p1014
aVOPENNLP-195
p1015
aVOPENNLP-194
p1016
aVOPENNLP-193
p1017
aVOPENNLP-192
p1018
aVOPENNLP-191
p1019
aVOPENNLP-190
p1020
aVOPENNLP-189
p1021
aVOPENNLP-188
p1022
aVOPENNLP-187
p1023
aVOPENNLP-186
p1024
aVOPENNLP-185
p1025
aVOPENNLP-184
p1026
aVOPENNLP-183
p1027
aVOPENNLP-182
p1028
aVOPENNLP-181
p1029
aVOPENNLP-180
p1030
aVOPENNLP-179
p1031
aVOPENNLP-178
p1032
aVOPENNLP-177
p1033
aVOPENNLP-176
p1034
aVOPENNLP-175
p1035
aVOPENNLP-174
p1036
aVOPENNLP-173
p1037
aVOPENNLP-172
p1038
aVOPENNLP-171
p1039
aVOPENNLP-170
p1040
aVOPENNLP-169
p1041
aVOPENNLP-168
p1042
aVOPENNLP-167
p1043
aVOPENNLP-166
p1044
aVOPENNLP-165
p1045
aVOPENNLP-164
p1046
aVOPENNLP-163
p1047
aVOPENNLP-162
p1048
aVOPENNLP-161
p1049
aVOPENNLP-160
p1050
aVOPENNLP-159
p1051
aVOPENNLP-158
p1052
aVOPENNLP-157
p1053
aVOPENNLP-156
p1054
aVOPENNLP-155
p1055
aVOPENNLP-154
p1056
aVOPENNLP-153
p1057
aVOPENNLP-152
p1058
aVOPENNLP-151
p1059
aVOPENNLP-150
p1060
aVOPENNLP-149
p1061
aVOPENNLP-148
p1062
aVOPENNLP-147
p1063
aVOPENNLP-146
p1064
aVOPENNLP-145
p1065
aVOPENNLP-144
p1066
aVOPENNLP-143
p1067
aVOPENNLP-142
p1068
aVOPENNLP-141
p1069
aVOPENNLP-140
p1070
aVOPENNLP-139
p1071
aVOPENNLP-138
p1072
aVOPENNLP-137
p1073
aVOPENNLP-136
p1074
aVOPENNLP-135
p1075
aVOPENNLP-134
p1076
aVOPENNLP-133
p1077
aVOPENNLP-132
p1078
aVOPENNLP-131
p1079
aVOPENNLP-130
p1080
aVOPENNLP-129
p1081
aVOPENNLP-128
p1082
aVOPENNLP-127
p1083
aVOPENNLP-126
p1084
aVOPENNLP-125
p1085
aVOPENNLP-124
p1086
aVOPENNLP-123
p1087
aVOPENNLP-122
p1088
aVOPENNLP-121
p1089
aVOPENNLP-120
p1090
aVOPENNLP-119
p1091
aVOPENNLP-118
p1092
aVOPENNLP-117
p1093
aVOPENNLP-116
p1094
aVOPENNLP-115
p1095
aVOPENNLP-114
p1096
aVOPENNLP-113
p1097
aVOPENNLP-112
p1098
aVOPENNLP-111
p1099
aVOPENNLP-110
p1100
aVOPENNLP-109
p1101
aVOPENNLP-108
p1102
aVOPENNLP-107
p1103
aVOPENNLP-106
p1104
aVOPENNLP-105
p1105
aVOPENNLP-104
p1106
aVOPENNLP-103
p1107
aVOPENNLP-102
p1108
aVOPENNLP-101
p1109
aVOPENNLP-100
p1110
aVOPENNLP-99
p1111
aVOPENNLP-98
p1112
aVOPENNLP-97
p1113
aVOPENNLP-96
p1114
aVOPENNLP-95
p1115
aVOPENNLP-94
p1116
aVOPENNLP-93
p1117
aVOPENNLP-92
p1118
aVOPENNLP-91
p1119
aVOPENNLP-90
p1120
aVOPENNLP-89
p1121
aVOPENNLP-88
p1122
aVOPENNLP-87
p1123
aVOPENNLP-86
p1124
aVOPENNLP-85
p1125
aVOPENNLP-84
p1126
aVOPENNLP-83
p1127
aVOPENNLP-82
p1128
aVOPENNLP-81
p1129
aVOPENNLP-80
p1130
aVOPENNLP-79
p1131
aVOPENNLP-78
p1132
aVOPENNLP-77
p1133
aVOPENNLP-76
p1134
aVOPENNLP-75
p1135
aVOPENNLP-74
p1136
aVOPENNLP-73
p1137
aVOPENNLP-72
p1138
aVOPENNLP-71
p1139
aVOPENNLP-70
p1140
aVOPENNLP-69
p1141
aVOPENNLP-68
p1142
aVOPENNLP-67
p1143
aVOPENNLP-66
p1144
aVOPENNLP-65
p1145
aVOPENNLP-64
p1146
aVOPENNLP-63
p1147
aVOPENNLP-62
p1148
aVOPENNLP-61
p1149
aVOPENNLP-60
p1150
aVOPENNLP-59
p1151
aVOPENNLP-58
p1152
aVOPENNLP-57
p1153
aVOPENNLP-56
p1154
aVOPENNLP-55
p1155
aVOPENNLP-54
p1156
aVOPENNLP-53
p1157
aVOPENNLP-52
p1158
aVOPENNLP-51
p1159
aVOPENNLP-50
p1160
aVOPENNLP-49
p1161
aVOPENNLP-48
p1162
aVOPENNLP-47
p1163
aVOPENNLP-46
p1164
aVOPENNLP-45
p1165
aVOPENNLP-44
p1166
aVOPENNLP-43
p1167
aVOPENNLP-42
p1168
aVOPENNLP-41
p1169
aVOPENNLP-40
p1170
aVOPENNLP-39
p1171
aVOPENNLP-38
p1172
aVOPENNLP-37
p1173
aVOPENNLP-36
p1174
aVOPENNLP-35
p1175
aVOPENNLP-34
p1176
aVOPENNLP-33
p1177
aVOPENNLP-32
p1178
aVOPENNLP-31
p1179
aVOPENNLP-30
p1180
aVOPENNLP-29
p1181
aVOPENNLP-28
p1182
aVOPENNLP-27
p1183
aVOPENNLP-26
p1184
aVOPENNLP-25
p1185
aVOPENNLP-24
p1186
aVOPENNLP-23
p1187
aVOPENNLP-22
p1188
aVOPENNLP-21
p1189
aVOPENNLP-20
p1190
aVOPENNLP-19
p1191
aVOPENNLP-18
p1192
aVOPENNLP-17
p1193
aVOPENNLP-16
p1194
aVOPENNLP-15
p1195
aVOPENNLP-14
p1196
aVOPENNLP-13
p1197
aVOPENNLP-12
p1198
aVOPENNLP-11
p1199
aVOPENNLP-10
p1200
aVOPENNLP-9
p1201
aVOPENNLP-8
p1202
aVOPENNLP-7
p1203
aVOPENNLP-6
p1204
aVOPENNLP-5
p1205
aVOPENNLP-4
p1206
aVOPENNLP-3
p1207
aVOPENNLP-2
p1208
aVOPENNLP-1
p1209
a.