(lp0
VOPENMEETINGS-1917
p1
aVOPENMEETINGS-1916
p2
aVOPENMEETINGS-1915
p3
aVOPENMEETINGS-1914
p4
aVOPENMEETINGS-1913
p5
aVOPENMEETINGS-1912
p6
aVOPENMEETINGS-1911
p7
aVOPENMEETINGS-1910
p8
aVOPENMEETINGS-1909
p9
aVOPENMEETINGS-1908
p10
aVOPENMEETINGS-1907
p11
aVOPENMEETINGS-1906
p12
aVOPENMEETINGS-1905
p13
aVOPENMEETINGS-1904
p14
aVOPENMEETINGS-1903
p15
aVOPENMEETINGS-1902
p16
aVOPENMEETINGS-1901
p17
aVOPENMEETINGS-1900
p18
aVOPENMEETINGS-1899
p19
aVOPENMEETINGS-1898
p20
aVOPENMEETINGS-1897
p21
aVOPENMEETINGS-1896
p22
aVOPENMEETINGS-1895
p23
aVOPENMEETINGS-1894
p24
aVOPENMEETINGS-1893
p25
aVOPENMEETINGS-1892
p26
aVOPENMEETINGS-1891
p27
aVOPENMEETINGS-1890
p28
aVOPENMEETINGS-1889
p29
aVOPENMEETINGS-1888
p30
aVOPENMEETINGS-1887
p31
aVOPENMEETINGS-1886
p32
aVOPENMEETINGS-1885
p33
aVOPENMEETINGS-1884
p34
aVOPENMEETINGS-1883
p35
aVOPENMEETINGS-1882
p36
aVOPENMEETINGS-1881
p37
aVOPENMEETINGS-1880
p38
aVOPENMEETINGS-1879
p39
aVOPENMEETINGS-1878
p40
aVOPENMEETINGS-1877
p41
aVOPENMEETINGS-1876
p42
aVOPENMEETINGS-1875
p43
aVOPENMEETINGS-1874
p44
aVOPENMEETINGS-1873
p45
aVOPENMEETINGS-1872
p46
aVOPENMEETINGS-1871
p47
aVOPENMEETINGS-1870
p48
aVOPENMEETINGS-1869
p49
aVOPENMEETINGS-1868
p50
aVOPENMEETINGS-1867
p51
aVOPENMEETINGS-1866
p52
aVOPENMEETINGS-1865
p53
aVOPENMEETINGS-1864
p54
aVOPENMEETINGS-1863
p55
aVOPENMEETINGS-1862
p56
aVOPENMEETINGS-1861
p57
aVOPENMEETINGS-1860
p58
aVOPENMEETINGS-1859
p59
aVOPENMEETINGS-1858
p60
aVOPENMEETINGS-1857
p61
aVOPENMEETINGS-1856
p62
aVOPENMEETINGS-1855
p63
aVOPENMEETINGS-1854
p64
aVOPENMEETINGS-1853
p65
aVOPENMEETINGS-1852
p66
aVOPENMEETINGS-1851
p67
aVOPENMEETINGS-1850
p68
aVOPENMEETINGS-1849
p69
aVOPENMEETINGS-1848
p70
aVOPENMEETINGS-1847
p71
aVOPENMEETINGS-1846
p72
aVOPENMEETINGS-1845
p73
aVOPENMEETINGS-1844
p74
aVOPENMEETINGS-1843
p75
aVOPENMEETINGS-1842
p76
aVOPENMEETINGS-1841
p77
aVOPENMEETINGS-1840
p78
aVOPENMEETINGS-1839
p79
aVOPENMEETINGS-1838
p80
aVOPENMEETINGS-1837
p81
aVOPENMEETINGS-1836
p82
aVOPENMEETINGS-1835
p83
aVOPENMEETINGS-1834
p84
aVOPENMEETINGS-1833
p85
aVOPENMEETINGS-1832
p86
aVOPENMEETINGS-1831
p87
aVOPENMEETINGS-1830
p88
aVOPENMEETINGS-1829
p89
aVOPENMEETINGS-1828
p90
aVOPENMEETINGS-1827
p91
aVOPENMEETINGS-1826
p92
aVOPENMEETINGS-1825
p93
aVOPENMEETINGS-1824
p94
aVOPENMEETINGS-1823
p95
aVOPENMEETINGS-1822
p96
aVOPENMEETINGS-1821
p97
aVOPENMEETINGS-1820
p98
aVOPENMEETINGS-1819
p99
aVOPENMEETINGS-1818
p100
aVOPENMEETINGS-1817
p101
aVOPENMEETINGS-1816
p102
aVOPENMEETINGS-1815
p103
aVOPENMEETINGS-1814
p104
aVOPENMEETINGS-1813
p105
aVOPENMEETINGS-1812
p106
aVOPENMEETINGS-1811
p107
aVOPENMEETINGS-1810
p108
aVOPENMEETINGS-1809
p109
aVOPENMEETINGS-1808
p110
aVOPENMEETINGS-1807
p111
aVOPENMEETINGS-1806
p112
aVOPENMEETINGS-1805
p113
aVOPENMEETINGS-1804
p114
aVOPENMEETINGS-1803
p115
aVOPENMEETINGS-1802
p116
aVOPENMEETINGS-1801
p117
aVOPENMEETINGS-1800
p118
aVOPENMEETINGS-1799
p119
aVOPENMEETINGS-1798
p120
aVOPENMEETINGS-1797
p121
aVOPENMEETINGS-1796
p122
aVOPENMEETINGS-1795
p123
aVOPENMEETINGS-1794
p124
aVOPENMEETINGS-1793
p125
aVOPENMEETINGS-1792
p126
aVOPENMEETINGS-1791
p127
aVOPENMEETINGS-1790
p128
aVOPENMEETINGS-1789
p129
aVOPENMEETINGS-1788
p130
aVOPENMEETINGS-1787
p131
aVOPENMEETINGS-1786
p132
aVOPENMEETINGS-1785
p133
aVOPENMEETINGS-1784
p134
aVOPENMEETINGS-1783
p135
aVOPENMEETINGS-1782
p136
aVOPENMEETINGS-1781
p137
aVOPENMEETINGS-1780
p138
aVOPENMEETINGS-1779
p139
aVOPENMEETINGS-1778
p140
aVOPENMEETINGS-1777
p141
aVOPENMEETINGS-1776
p142
aVOPENMEETINGS-1775
p143
aVOPENMEETINGS-1774
p144
aVOPENMEETINGS-1773
p145
aVOPENMEETINGS-1772
p146
aVOPENMEETINGS-1771
p147
aVOPENMEETINGS-1770
p148
aVOPENMEETINGS-1769
p149
aVOPENMEETINGS-1768
p150
aVOPENMEETINGS-1767
p151
aVOPENMEETINGS-1766
p152
aVOPENMEETINGS-1765
p153
aVOPENMEETINGS-1764
p154
aVOPENMEETINGS-1763
p155
aVOPENMEETINGS-1762
p156
aVOPENMEETINGS-1761
p157
aVOPENMEETINGS-1760
p158
aVOPENMEETINGS-1759
p159
aVOPENMEETINGS-1758
p160
aVOPENMEETINGS-1757
p161
aVOPENMEETINGS-1756
p162
aVOPENMEETINGS-1755
p163
aVOPENMEETINGS-1754
p164
aVOPENMEETINGS-1753
p165
aVOPENMEETINGS-1752
p166
aVOPENMEETINGS-1751
p167
aVOPENMEETINGS-1750
p168
aVOPENMEETINGS-1749
p169
aVOPENMEETINGS-1748
p170
aVOPENMEETINGS-1747
p171
aVOPENMEETINGS-1746
p172
aVOPENMEETINGS-1745
p173
aVOPENMEETINGS-1744
p174
aVOPENMEETINGS-1743
p175
aVOPENMEETINGS-1742
p176
aVOPENMEETINGS-1741
p177
aVOPENMEETINGS-1740
p178
aVOPENMEETINGS-1739
p179
aVOPENMEETINGS-1738
p180
aVOPENMEETINGS-1737
p181
aVOPENMEETINGS-1736
p182
aVOPENMEETINGS-1735
p183
aVOPENMEETINGS-1734
p184
aVOPENMEETINGS-1733
p185
aVOPENMEETINGS-1732
p186
aVOPENMEETINGS-1731
p187
aVOPENMEETINGS-1730
p188
aVOPENMEETINGS-1729
p189
aVOPENMEETINGS-1728
p190
aVOPENMEETINGS-1727
p191
aVOPENMEETINGS-1726
p192
aVOPENMEETINGS-1725
p193
aVOPENMEETINGS-1724
p194
aVOPENMEETINGS-1723
p195
aVOPENMEETINGS-1722
p196
aVOPENMEETINGS-1721
p197
aVOPENMEETINGS-1720
p198
aVOPENMEETINGS-1719
p199
aVOPENMEETINGS-1718
p200
aVOPENMEETINGS-1717
p201
aVOPENMEETINGS-1716
p202
aVOPENMEETINGS-1715
p203
aVOPENMEETINGS-1714
p204
aVOPENMEETINGS-1713
p205
aVOPENMEETINGS-1712
p206
aVOPENMEETINGS-1711
p207
aVOPENMEETINGS-1710
p208
aVOPENMEETINGS-1709
p209
aVOPENMEETINGS-1708
p210
aVOPENMEETINGS-1707
p211
aVOPENMEETINGS-1706
p212
aVOPENMEETINGS-1705
p213
aVOPENMEETINGS-1704
p214
aVOPENMEETINGS-1703
p215
aVOPENMEETINGS-1702
p216
aVOPENMEETINGS-1701
p217
aVOPENMEETINGS-1700
p218
aVOPENMEETINGS-1699
p219
aVOPENMEETINGS-1698
p220
aVOPENMEETINGS-1697
p221
aVOPENMEETINGS-1696
p222
aVOPENMEETINGS-1695
p223
aVOPENMEETINGS-1694
p224
aVOPENMEETINGS-1693
p225
aVOPENMEETINGS-1692
p226
aVOPENMEETINGS-1691
p227
aVOPENMEETINGS-1690
p228
aVOPENMEETINGS-1689
p229
aVOPENMEETINGS-1688
p230
aVOPENMEETINGS-1687
p231
aVOPENMEETINGS-1686
p232
aVOPENMEETINGS-1685
p233
aVOPENMEETINGS-1684
p234
aVOPENMEETINGS-1683
p235
aVOPENMEETINGS-1682
p236
aVOPENMEETINGS-1681
p237
aVOPENMEETINGS-1680
p238
aVOPENMEETINGS-1679
p239
aVOPENMEETINGS-1678
p240
aVOPENMEETINGS-1677
p241
aVOPENMEETINGS-1676
p242
aVOPENMEETINGS-1675
p243
aVOPENMEETINGS-1674
p244
aVOPENMEETINGS-1673
p245
aVOPENMEETINGS-1672
p246
aVOPENMEETINGS-1671
p247
aVOPENMEETINGS-1670
p248
aVOPENMEETINGS-1669
p249
aVOPENMEETINGS-1668
p250
aVOPENMEETINGS-1667
p251
aVOPENMEETINGS-1666
p252
aVOPENMEETINGS-1665
p253
aVOPENMEETINGS-1664
p254
aVOPENMEETINGS-1663
p255
aVOPENMEETINGS-1662
p256
aVOPENMEETINGS-1661
p257
aVOPENMEETINGS-1660
p258
aVOPENMEETINGS-1659
p259
aVOPENMEETINGS-1658
p260
aVOPENMEETINGS-1657
p261
aVOPENMEETINGS-1656
p262
aVOPENMEETINGS-1655
p263
aVOPENMEETINGS-1654
p264
aVOPENMEETINGS-1653
p265
aVOPENMEETINGS-1652
p266
aVOPENMEETINGS-1651
p267
aVOPENMEETINGS-1650
p268
aVOPENMEETINGS-1649
p269
aVOPENMEETINGS-1648
p270
aVOPENMEETINGS-1647
p271
aVOPENMEETINGS-1646
p272
aVOPENMEETINGS-1645
p273
aVOPENMEETINGS-1644
p274
aVOPENMEETINGS-1643
p275
aVOPENMEETINGS-1642
p276
aVOPENMEETINGS-1641
p277
aVOPENMEETINGS-1640
p278
aVOPENMEETINGS-1639
p279
aVOPENMEETINGS-1638
p280
aVOPENMEETINGS-1637
p281
aVOPENMEETINGS-1636
p282
aVOPENMEETINGS-1635
p283
aVOPENMEETINGS-1634
p284
aVOPENMEETINGS-1633
p285
aVOPENMEETINGS-1632
p286
aVOPENMEETINGS-1631
p287
aVOPENMEETINGS-1630
p288
aVOPENMEETINGS-1629
p289
aVOPENMEETINGS-1628
p290
aVOPENMEETINGS-1627
p291
aVOPENMEETINGS-1626
p292
aVOPENMEETINGS-1625
p293
aVOPENMEETINGS-1624
p294
aVOPENMEETINGS-1623
p295
aVOPENMEETINGS-1622
p296
aVOPENMEETINGS-1621
p297
aVOPENMEETINGS-1620
p298
aVOPENMEETINGS-1619
p299
aVOPENMEETINGS-1618
p300
aVOPENMEETINGS-1617
p301
aVOPENMEETINGS-1616
p302
aVOPENMEETINGS-1615
p303
aVOPENMEETINGS-1614
p304
aVOPENMEETINGS-1613
p305
aVOPENMEETINGS-1612
p306
aVOPENMEETINGS-1611
p307
aVOPENMEETINGS-1610
p308
aVOPENMEETINGS-1609
p309
aVOPENMEETINGS-1608
p310
aVOPENMEETINGS-1607
p311
aVOPENMEETINGS-1606
p312
aVOPENMEETINGS-1605
p313
aVOPENMEETINGS-1604
p314
aVOPENMEETINGS-1603
p315
aVOPENMEETINGS-1602
p316
aVOPENMEETINGS-1601
p317
aVOPENMEETINGS-1600
p318
aVOPENMEETINGS-1599
p319
aVOPENMEETINGS-1598
p320
aVOPENMEETINGS-1597
p321
aVOPENMEETINGS-1596
p322
aVOPENMEETINGS-1595
p323
aVOPENMEETINGS-1594
p324
aVOPENMEETINGS-1593
p325
aVOPENMEETINGS-1592
p326
aVOPENMEETINGS-1591
p327
aVOPENMEETINGS-1590
p328
aVOPENMEETINGS-1589
p329
aVOPENMEETINGS-1588
p330
aVOPENMEETINGS-1587
p331
aVOPENMEETINGS-1586
p332
aVOPENMEETINGS-1585
p333
aVOPENMEETINGS-1584
p334
aVOPENMEETINGS-1583
p335
aVOPENMEETINGS-1582
p336
aVOPENMEETINGS-1581
p337
aVOPENMEETINGS-1580
p338
aVOPENMEETINGS-1579
p339
aVOPENMEETINGS-1578
p340
aVOPENMEETINGS-1577
p341
aVOPENMEETINGS-1576
p342
aVOPENMEETINGS-1575
p343
aVOPENMEETINGS-1574
p344
aVOPENMEETINGS-1573
p345
aVOPENMEETINGS-1572
p346
aVOPENMEETINGS-1571
p347
aVOPENMEETINGS-1570
p348
aVOPENMEETINGS-1569
p349
aVOPENMEETINGS-1568
p350
aVOPENMEETINGS-1567
p351
aVOPENMEETINGS-1566
p352
aVOPENMEETINGS-1565
p353
aVOPENMEETINGS-1564
p354
aVOPENMEETINGS-1563
p355
aVOPENMEETINGS-1562
p356
aVOPENMEETINGS-1561
p357
aVOPENMEETINGS-1560
p358
aVOPENMEETINGS-1559
p359
aVOPENMEETINGS-1558
p360
aVOPENMEETINGS-1557
p361
aVOPENMEETINGS-1556
p362
aVOPENMEETINGS-1555
p363
aVOPENMEETINGS-1554
p364
aVOPENMEETINGS-1553
p365
aVOPENMEETINGS-1552
p366
aVOPENMEETINGS-1551
p367
aVOPENMEETINGS-1550
p368
aVOPENMEETINGS-1549
p369
aVOPENMEETINGS-1548
p370
aVOPENMEETINGS-1547
p371
aVOPENMEETINGS-1546
p372
aVOPENMEETINGS-1545
p373
aVOPENMEETINGS-1544
p374
aVOPENMEETINGS-1543
p375
aVOPENMEETINGS-1542
p376
aVOPENMEETINGS-1541
p377
aVOPENMEETINGS-1540
p378
aVOPENMEETINGS-1539
p379
aVOPENMEETINGS-1538
p380
aVOPENMEETINGS-1537
p381
aVOPENMEETINGS-1536
p382
aVOPENMEETINGS-1535
p383
aVOPENMEETINGS-1534
p384
aVOPENMEETINGS-1533
p385
aVOPENMEETINGS-1532
p386
aVOPENMEETINGS-1531
p387
aVOPENMEETINGS-1530
p388
aVOPENMEETINGS-1529
p389
aVOPENMEETINGS-1528
p390
aVOPENMEETINGS-1527
p391
aVOPENMEETINGS-1526
p392
aVOPENMEETINGS-1525
p393
aVOPENMEETINGS-1524
p394
aVOPENMEETINGS-1523
p395
aVOPENMEETINGS-1522
p396
aVOPENMEETINGS-1521
p397
aVOPENMEETINGS-1520
p398
aVOPENMEETINGS-1519
p399
aVOPENMEETINGS-1518
p400
aVOPENMEETINGS-1517
p401
aVOPENMEETINGS-1516
p402
aVOPENMEETINGS-1515
p403
aVOPENMEETINGS-1514
p404
aVOPENMEETINGS-1513
p405
aVOPENMEETINGS-1512
p406
aVOPENMEETINGS-1511
p407
aVOPENMEETINGS-1510
p408
aVOPENMEETINGS-1509
p409
aVOPENMEETINGS-1508
p410
aVOPENMEETINGS-1507
p411
aVOPENMEETINGS-1506
p412
aVOPENMEETINGS-1505
p413
aVOPENMEETINGS-1504
p414
aVOPENMEETINGS-1503
p415
aVOPENMEETINGS-1502
p416
aVOPENMEETINGS-1501
p417
aVOPENMEETINGS-1500
p418
aVOPENMEETINGS-1499
p419
aVOPENMEETINGS-1498
p420
aVOPENMEETINGS-1497
p421
aVOPENMEETINGS-1496
p422
aVOPENMEETINGS-1495
p423
aVOPENMEETINGS-1494
p424
aVOPENMEETINGS-1493
p425
aVOPENMEETINGS-1492
p426
aVOPENMEETINGS-1491
p427
aVOPENMEETINGS-1490
p428
aVOPENMEETINGS-1489
p429
aVOPENMEETINGS-1488
p430
aVOPENMEETINGS-1487
p431
aVOPENMEETINGS-1486
p432
aVOPENMEETINGS-1485
p433
aVOPENMEETINGS-1484
p434
aVOPENMEETINGS-1483
p435
aVOPENMEETINGS-1482
p436
aVOPENMEETINGS-1481
p437
aVOPENMEETINGS-1480
p438
aVOPENMEETINGS-1479
p439
aVOPENMEETINGS-1478
p440
aVOPENMEETINGS-1477
p441
aVOPENMEETINGS-1476
p442
aVOPENMEETINGS-1475
p443
aVOPENMEETINGS-1474
p444
aVOPENMEETINGS-1473
p445
aVOPENMEETINGS-1472
p446
aVOPENMEETINGS-1471
p447
aVOPENMEETINGS-1470
p448
aVOPENMEETINGS-1469
p449
aVOPENMEETINGS-1468
p450
aVOPENMEETINGS-1467
p451
aVOPENMEETINGS-1466
p452
aVOPENMEETINGS-1465
p453
aVOPENMEETINGS-1464
p454
aVOPENMEETINGS-1463
p455
aVOPENMEETINGS-1462
p456
aVOPENMEETINGS-1461
p457
aVOPENMEETINGS-1460
p458
aVOPENMEETINGS-1459
p459
aVOPENMEETINGS-1458
p460
aVOPENMEETINGS-1457
p461
aVOPENMEETINGS-1456
p462
aVOPENMEETINGS-1455
p463
aVOPENMEETINGS-1454
p464
aVOPENMEETINGS-1453
p465
aVOPENMEETINGS-1452
p466
aVOPENMEETINGS-1451
p467
aVOPENMEETINGS-1450
p468
aVOPENMEETINGS-1449
p469
aVOPENMEETINGS-1448
p470
aVOPENMEETINGS-1447
p471
aVOPENMEETINGS-1446
p472
aVOPENMEETINGS-1445
p473
aVOPENMEETINGS-1444
p474
aVOPENMEETINGS-1443
p475
aVOPENMEETINGS-1442
p476
aVOPENMEETINGS-1441
p477
aVOPENMEETINGS-1440
p478
aVOPENMEETINGS-1439
p479
aVOPENMEETINGS-1438
p480
aVOPENMEETINGS-1437
p481
aVOPENMEETINGS-1436
p482
aVOPENMEETINGS-1435
p483
aVOPENMEETINGS-1434
p484
aVOPENMEETINGS-1433
p485
aVOPENMEETINGS-1432
p486
aVOPENMEETINGS-1431
p487
aVOPENMEETINGS-1430
p488
aVOPENMEETINGS-1429
p489
aVOPENMEETINGS-1428
p490
aVOPENMEETINGS-1427
p491
aVOPENMEETINGS-1426
p492
aVOPENMEETINGS-1425
p493
aVOPENMEETINGS-1424
p494
aVOPENMEETINGS-1423
p495
aVOPENMEETINGS-1422
p496
aVOPENMEETINGS-1421
p497
aVOPENMEETINGS-1420
p498
aVOPENMEETINGS-1419
p499
aVOPENMEETINGS-1418
p500
aVOPENMEETINGS-1417
p501
aVOPENMEETINGS-1416
p502
aVOPENMEETINGS-1415
p503
aVOPENMEETINGS-1414
p504
aVOPENMEETINGS-1413
p505
aVOPENMEETINGS-1412
p506
aVOPENMEETINGS-1411
p507
aVOPENMEETINGS-1410
p508
aVOPENMEETINGS-1409
p509
aVOPENMEETINGS-1408
p510
aVOPENMEETINGS-1407
p511
aVOPENMEETINGS-1406
p512
aVOPENMEETINGS-1405
p513
aVOPENMEETINGS-1404
p514
aVOPENMEETINGS-1403
p515
aVOPENMEETINGS-1402
p516
aVOPENMEETINGS-1401
p517
aVOPENMEETINGS-1400
p518
aVOPENMEETINGS-1399
p519
aVOPENMEETINGS-1398
p520
aVOPENMEETINGS-1397
p521
aVOPENMEETINGS-1396
p522
aVOPENMEETINGS-1395
p523
aVOPENMEETINGS-1394
p524
aVOPENMEETINGS-1393
p525
aVOPENMEETINGS-1392
p526
aVOPENMEETINGS-1391
p527
aVOPENMEETINGS-1390
p528
aVOPENMEETINGS-1389
p529
aVOPENMEETINGS-1388
p530
aVOPENMEETINGS-1387
p531
aVOPENMEETINGS-1386
p532
aVOPENMEETINGS-1385
p533
aVOPENMEETINGS-1384
p534
aVOPENMEETINGS-1383
p535
aVOPENMEETINGS-1382
p536
aVOPENMEETINGS-1381
p537
aVOPENMEETINGS-1380
p538
aVOPENMEETINGS-1379
p539
aVOPENMEETINGS-1378
p540
aVOPENMEETINGS-1377
p541
aVOPENMEETINGS-1376
p542
aVOPENMEETINGS-1375
p543
aVOPENMEETINGS-1374
p544
aVOPENMEETINGS-1373
p545
aVOPENMEETINGS-1372
p546
aVOPENMEETINGS-1371
p547
aVOPENMEETINGS-1370
p548
aVOPENMEETINGS-1369
p549
aVOPENMEETINGS-1368
p550
aVOPENMEETINGS-1367
p551
aVOPENMEETINGS-1366
p552
aVOPENMEETINGS-1365
p553
aVOPENMEETINGS-1364
p554
aVOPENMEETINGS-1363
p555
aVOPENMEETINGS-1362
p556
aVOPENMEETINGS-1361
p557
aVOPENMEETINGS-1360
p558
aVOPENMEETINGS-1359
p559
aVOPENMEETINGS-1358
p560
aVOPENMEETINGS-1357
p561
aVOPENMEETINGS-1356
p562
aVOPENMEETINGS-1355
p563
aVOPENMEETINGS-1354
p564
aVOPENMEETINGS-1353
p565
aVOPENMEETINGS-1352
p566
aVOPENMEETINGS-1351
p567
aVOPENMEETINGS-1350
p568
aVOPENMEETINGS-1349
p569
aVOPENMEETINGS-1348
p570
aVOPENMEETINGS-1347
p571
aVOPENMEETINGS-1346
p572
aVOPENMEETINGS-1345
p573
aVOPENMEETINGS-1344
p574
aVOPENMEETINGS-1343
p575
aVOPENMEETINGS-1342
p576
aVOPENMEETINGS-1341
p577
aVOPENMEETINGS-1340
p578
aVOPENMEETINGS-1339
p579
aVOPENMEETINGS-1338
p580
aVOPENMEETINGS-1337
p581
aVOPENMEETINGS-1336
p582
aVOPENMEETINGS-1335
p583
aVOPENMEETINGS-1334
p584
aVOPENMEETINGS-1333
p585
aVOPENMEETINGS-1332
p586
aVOPENMEETINGS-1331
p587
aVOPENMEETINGS-1330
p588
aVOPENMEETINGS-1329
p589
aVOPENMEETINGS-1328
p590
aVOPENMEETINGS-1327
p591
aVOPENMEETINGS-1326
p592
aVOPENMEETINGS-1325
p593
aVOPENMEETINGS-1324
p594
aVOPENMEETINGS-1323
p595
aVOPENMEETINGS-1322
p596
aVOPENMEETINGS-1321
p597
aVOPENMEETINGS-1320
p598
aVOPENMEETINGS-1319
p599
aVOPENMEETINGS-1318
p600
aVOPENMEETINGS-1317
p601
aVOPENMEETINGS-1316
p602
aVOPENMEETINGS-1315
p603
aVOPENMEETINGS-1314
p604
aVOPENMEETINGS-1313
p605
aVOPENMEETINGS-1312
p606
aVOPENMEETINGS-1311
p607
aVOPENMEETINGS-1310
p608
aVOPENMEETINGS-1309
p609
aVOPENMEETINGS-1308
p610
aVOPENMEETINGS-1307
p611
aVOPENMEETINGS-1306
p612
aVOPENMEETINGS-1305
p613
aVOPENMEETINGS-1304
p614
aVOPENMEETINGS-1303
p615
aVOPENMEETINGS-1302
p616
aVOPENMEETINGS-1301
p617
aVOPENMEETINGS-1300
p618
aVOPENMEETINGS-1299
p619
aVOPENMEETINGS-1298
p620
aVOPENMEETINGS-1297
p621
aVOPENMEETINGS-1296
p622
aVOPENMEETINGS-1295
p623
aVOPENMEETINGS-1294
p624
aVOPENMEETINGS-1293
p625
aVOPENMEETINGS-1292
p626
aVOPENMEETINGS-1291
p627
aVOPENMEETINGS-1290
p628
aVOPENMEETINGS-1289
p629
aVOPENMEETINGS-1288
p630
aVOPENMEETINGS-1287
p631
aVOPENMEETINGS-1286
p632
aVOPENMEETINGS-1285
p633
aVOPENMEETINGS-1284
p634
aVOPENMEETINGS-1283
p635
aVOPENMEETINGS-1282
p636
aVOPENMEETINGS-1281
p637
aVOPENMEETINGS-1280
p638
aVOPENMEETINGS-1279
p639
aVOPENMEETINGS-1278
p640
aVOPENMEETINGS-1277
p641
aVOPENMEETINGS-1276
p642
aVOPENMEETINGS-1275
p643
aVOPENMEETINGS-1274
p644
aVOPENMEETINGS-1273
p645
aVOPENMEETINGS-1272
p646
aVOPENMEETINGS-1271
p647
aVOPENMEETINGS-1270
p648
aVOPENMEETINGS-1269
p649
aVOPENMEETINGS-1268
p650
aVOPENMEETINGS-1267
p651
aVOPENMEETINGS-1266
p652
aVOPENMEETINGS-1265
p653
aVOPENMEETINGS-1264
p654
aVOPENMEETINGS-1263
p655
aVOPENMEETINGS-1262
p656
aVOPENMEETINGS-1261
p657
aVOPENMEETINGS-1260
p658
aVOPENMEETINGS-1259
p659
aVOPENMEETINGS-1258
p660
aVOPENMEETINGS-1257
p661
aVOPENMEETINGS-1256
p662
aVOPENMEETINGS-1255
p663
aVOPENMEETINGS-1254
p664
aVOPENMEETINGS-1253
p665
aVOPENMEETINGS-1252
p666
aVOPENMEETINGS-1251
p667
aVOPENMEETINGS-1250
p668
aVOPENMEETINGS-1249
p669
aVOPENMEETINGS-1248
p670
aVOPENMEETINGS-1247
p671
aVOPENMEETINGS-1246
p672
aVOPENMEETINGS-1245
p673
aVOPENMEETINGS-1244
p674
aVOPENMEETINGS-1243
p675
aVOPENMEETINGS-1242
p676
aVOPENMEETINGS-1241
p677
aVOPENMEETINGS-1240
p678
aVOPENMEETINGS-1239
p679
aVOPENMEETINGS-1238
p680
aVOPENMEETINGS-1237
p681
aVOPENMEETINGS-1236
p682
aVOPENMEETINGS-1235
p683
aVOPENMEETINGS-1234
p684
aVOPENMEETINGS-1233
p685
aVOPENMEETINGS-1232
p686
aVOPENMEETINGS-1231
p687
aVOPENMEETINGS-1230
p688
aVOPENMEETINGS-1229
p689
aVOPENMEETINGS-1228
p690
aVOPENMEETINGS-1227
p691
aVOPENMEETINGS-1226
p692
aVOPENMEETINGS-1225
p693
aVOPENMEETINGS-1224
p694
aVOPENMEETINGS-1223
p695
aVOPENMEETINGS-1222
p696
aVOPENMEETINGS-1221
p697
aVOPENMEETINGS-1220
p698
aVOPENMEETINGS-1219
p699
aVOPENMEETINGS-1218
p700
aVOPENMEETINGS-1217
p701
aVOPENMEETINGS-1216
p702
aVOPENMEETINGS-1215
p703
aVOPENMEETINGS-1214
p704
aVOPENMEETINGS-1213
p705
aVOPENMEETINGS-1212
p706
aVOPENMEETINGS-1211
p707
aVOPENMEETINGS-1210
p708
aVOPENMEETINGS-1209
p709
aVOPENMEETINGS-1208
p710
aVOPENMEETINGS-1207
p711
aVOPENMEETINGS-1206
p712
aVOPENMEETINGS-1205
p713
aVOPENMEETINGS-1204
p714
aVOPENMEETINGS-1203
p715
aVOPENMEETINGS-1202
p716
aVOPENMEETINGS-1201
p717
aVOPENMEETINGS-1200
p718
aVOPENMEETINGS-1199
p719
aVOPENMEETINGS-1198
p720
aVOPENMEETINGS-1197
p721
aVOPENMEETINGS-1196
p722
aVOPENMEETINGS-1195
p723
aVOPENMEETINGS-1194
p724
aVOPENMEETINGS-1193
p725
aVOPENMEETINGS-1192
p726
aVOPENMEETINGS-1191
p727
aVOPENMEETINGS-1190
p728
aVOPENMEETINGS-1189
p729
aVOPENMEETINGS-1188
p730
aVOPENMEETINGS-1187
p731
aVOPENMEETINGS-1186
p732
aVOPENMEETINGS-1185
p733
aVOPENMEETINGS-1184
p734
aVOPENMEETINGS-1183
p735
aVOPENMEETINGS-1182
p736
aVOPENMEETINGS-1181
p737
aVOPENMEETINGS-1180
p738
aVOPENMEETINGS-1179
p739
aVOPENMEETINGS-1178
p740
aVOPENMEETINGS-1177
p741
aVOPENMEETINGS-1176
p742
aVOPENMEETINGS-1175
p743
aVOPENMEETINGS-1174
p744
aVOPENMEETINGS-1173
p745
aVOPENMEETINGS-1172
p746
aVOPENMEETINGS-1171
p747
aVOPENMEETINGS-1170
p748
aVOPENMEETINGS-1169
p749
aVOPENMEETINGS-1168
p750
aVOPENMEETINGS-1167
p751
aVOPENMEETINGS-1166
p752
aVOPENMEETINGS-1165
p753
aVOPENMEETINGS-1164
p754
aVOPENMEETINGS-1163
p755
aVOPENMEETINGS-1162
p756
aVOPENMEETINGS-1161
p757
aVOPENMEETINGS-1160
p758
aVOPENMEETINGS-1159
p759
aVOPENMEETINGS-1158
p760
aVOPENMEETINGS-1157
p761
aVOPENMEETINGS-1156
p762
aVOPENMEETINGS-1155
p763
aVOPENMEETINGS-1154
p764
aVOPENMEETINGS-1153
p765
aVOPENMEETINGS-1152
p766
aVOPENMEETINGS-1151
p767
aVOPENMEETINGS-1150
p768
aVOPENMEETINGS-1149
p769
aVOPENMEETINGS-1148
p770
aVOPENMEETINGS-1147
p771
aVOPENMEETINGS-1146
p772
aVOPENMEETINGS-1145
p773
aVOPENMEETINGS-1144
p774
aVOPENMEETINGS-1143
p775
aVOPENMEETINGS-1142
p776
aVOPENMEETINGS-1141
p777
aVOPENMEETINGS-1140
p778
aVOPENMEETINGS-1139
p779
aVOPENMEETINGS-1138
p780
aVOPENMEETINGS-1137
p781
aVOPENMEETINGS-1136
p782
aVOPENMEETINGS-1135
p783
aVOPENMEETINGS-1134
p784
aVOPENMEETINGS-1133
p785
aVOPENMEETINGS-1132
p786
aVOPENMEETINGS-1131
p787
aVOPENMEETINGS-1130
p788
aVOPENMEETINGS-1129
p789
aVOPENMEETINGS-1128
p790
aVOPENMEETINGS-1127
p791
aVOPENMEETINGS-1126
p792
aVOPENMEETINGS-1125
p793
aVOPENMEETINGS-1124
p794
aVOPENMEETINGS-1123
p795
aVOPENMEETINGS-1122
p796
aVOPENMEETINGS-1121
p797
aVOPENMEETINGS-1120
p798
aVOPENMEETINGS-1119
p799
aVOPENMEETINGS-1118
p800
aVOPENMEETINGS-1117
p801
aVOPENMEETINGS-1116
p802
aVOPENMEETINGS-1115
p803
aVOPENMEETINGS-1114
p804
aVOPENMEETINGS-1113
p805
aVOPENMEETINGS-1112
p806
aVOPENMEETINGS-1111
p807
aVOPENMEETINGS-1110
p808
aVOPENMEETINGS-1109
p809
aVOPENMEETINGS-1108
p810
aVOPENMEETINGS-1107
p811
aVOPENMEETINGS-1106
p812
aVOPENMEETINGS-1105
p813
aVOPENMEETINGS-1104
p814
aVOPENMEETINGS-1103
p815
aVOPENMEETINGS-1102
p816
aVOPENMEETINGS-1101
p817
aVOPENMEETINGS-1100
p818
aVOPENMEETINGS-1099
p819
aVOPENMEETINGS-1098
p820
aVOPENMEETINGS-1097
p821
aVOPENMEETINGS-1096
p822
aVOPENMEETINGS-1095
p823
aVOPENMEETINGS-1094
p824
aVOPENMEETINGS-1093
p825
aVOPENMEETINGS-1092
p826
aVOPENMEETINGS-1091
p827
aVOPENMEETINGS-1090
p828
aVOPENMEETINGS-1089
p829
aVOPENMEETINGS-1088
p830
aVOPENMEETINGS-1087
p831
aVOPENMEETINGS-1086
p832
aVOPENMEETINGS-1085
p833
aVOPENMEETINGS-1084
p834
aVOPENMEETINGS-1083
p835
aVOPENMEETINGS-1082
p836
aVOPENMEETINGS-1081
p837
aVOPENMEETINGS-1080
p838
aVOPENMEETINGS-1079
p839
aVOPENMEETINGS-1078
p840
aVOPENMEETINGS-1077
p841
aVOPENMEETINGS-1076
p842
aVOPENMEETINGS-1075
p843
aVOPENMEETINGS-1074
p844
aVOPENMEETINGS-1073
p845
aVOPENMEETINGS-1072
p846
aVOPENMEETINGS-1071
p847
aVOPENMEETINGS-1070
p848
aVOPENMEETINGS-1069
p849
aVOPENMEETINGS-1068
p850
aVOPENMEETINGS-1067
p851
aVOPENMEETINGS-1066
p852
aVOPENMEETINGS-1065
p853
aVOPENMEETINGS-1064
p854
aVOPENMEETINGS-1063
p855
aVOPENMEETINGS-1062
p856
aVOPENMEETINGS-1061
p857
aVOPENMEETINGS-1060
p858
aVOPENMEETINGS-1059
p859
aVOPENMEETINGS-1058
p860
aVOPENMEETINGS-1057
p861
aVOPENMEETINGS-1056
p862
aVOPENMEETINGS-1055
p863
aVOPENMEETINGS-1054
p864
aVOPENMEETINGS-1053
p865
aVOPENMEETINGS-1052
p866
aVOPENMEETINGS-1051
p867
aVOPENMEETINGS-1050
p868
aVOPENMEETINGS-1049
p869
aVOPENMEETINGS-1048
p870
aVOPENMEETINGS-1047
p871
aVOPENMEETINGS-1046
p872
aVOPENMEETINGS-1045
p873
aVOPENMEETINGS-1044
p874
aVOPENMEETINGS-1043
p875
aVOPENMEETINGS-1042
p876
aVOPENMEETINGS-1041
p877
aVOPENMEETINGS-1040
p878
aVOPENMEETINGS-1039
p879
aVOPENMEETINGS-1038
p880
aVOPENMEETINGS-1037
p881
aVOPENMEETINGS-1036
p882
aVOPENMEETINGS-1035
p883
aVOPENMEETINGS-1034
p884
aVOPENMEETINGS-1033
p885
aVOPENMEETINGS-1032
p886
aVOPENMEETINGS-1031
p887
aVOPENMEETINGS-1030
p888
aVOPENMEETINGS-1029
p889
aVOPENMEETINGS-1028
p890
aVOPENMEETINGS-1027
p891
aVOPENMEETINGS-1026
p892
aVOPENMEETINGS-1025
p893
aVOPENMEETINGS-1024
p894
aVOPENMEETINGS-1023
p895
aVOPENMEETINGS-1022
p896
aVOPENMEETINGS-1021
p897
aVOPENMEETINGS-1020
p898
aVOPENMEETINGS-1019
p899
aVOPENMEETINGS-1018
p900
aVOPENMEETINGS-1017
p901
aVOPENMEETINGS-1016
p902
aVOPENMEETINGS-1015
p903
aVOPENMEETINGS-1014
p904
aVOPENMEETINGS-1013
p905
aVOPENMEETINGS-1012
p906
aVOPENMEETINGS-1011
p907
aVOPENMEETINGS-1010
p908
aVOPENMEETINGS-1009
p909
aVOPENMEETINGS-1008
p910
aVOPENMEETINGS-1007
p911
aVOPENMEETINGS-1006
p912
aVOPENMEETINGS-1005
p913
aVOPENMEETINGS-1004
p914
aVOPENMEETINGS-1003
p915
aVOPENMEETINGS-1002
p916
aVOPENMEETINGS-1001
p917
aVOPENMEETINGS-1000
p918
aVOPENMEETINGS-999
p919
aVOPENMEETINGS-998
p920
aVOPENMEETINGS-997
p921
aVOPENMEETINGS-996
p922
aVOPENMEETINGS-995
p923
aVOPENMEETINGS-994
p924
aVOPENMEETINGS-993
p925
aVOPENMEETINGS-992
p926
aVOPENMEETINGS-991
p927
aVOPENMEETINGS-990
p928
aVOPENMEETINGS-989
p929
aVOPENMEETINGS-988
p930
aVOPENMEETINGS-987
p931
aVOPENMEETINGS-986
p932
aVOPENMEETINGS-985
p933
aVOPENMEETINGS-984
p934
aVOPENMEETINGS-983
p935
aVOPENMEETINGS-982
p936
aVOPENMEETINGS-981
p937
aVOPENMEETINGS-980
p938
aVOPENMEETINGS-979
p939
aVOPENMEETINGS-978
p940
aVOPENMEETINGS-977
p941
aVOPENMEETINGS-976
p942
aVOPENMEETINGS-975
p943
aVOPENMEETINGS-974
p944
aVOPENMEETINGS-973
p945
aVOPENMEETINGS-972
p946
aVOPENMEETINGS-971
p947
aVOPENMEETINGS-970
p948
aVOPENMEETINGS-969
p949
aVOPENMEETINGS-968
p950
aVOPENMEETINGS-967
p951
aVOPENMEETINGS-966
p952
aVOPENMEETINGS-965
p953
aVOPENMEETINGS-964
p954
aVOPENMEETINGS-963
p955
aVOPENMEETINGS-962
p956
aVOPENMEETINGS-961
p957
aVOPENMEETINGS-960
p958
aVOPENMEETINGS-959
p959
aVOPENMEETINGS-958
p960
aVOPENMEETINGS-957
p961
aVOPENMEETINGS-956
p962
aVOPENMEETINGS-955
p963
aVOPENMEETINGS-954
p964
aVOPENMEETINGS-953
p965
aVOPENMEETINGS-952
p966
aVOPENMEETINGS-951
p967
aVOPENMEETINGS-950
p968
aVOPENMEETINGS-949
p969
aVOPENMEETINGS-948
p970
aVOPENMEETINGS-947
p971
aVOPENMEETINGS-946
p972
aVOPENMEETINGS-945
p973
aVOPENMEETINGS-944
p974
aVOPENMEETINGS-943
p975
aVOPENMEETINGS-942
p976
aVOPENMEETINGS-941
p977
aVOPENMEETINGS-940
p978
aVOPENMEETINGS-939
p979
aVOPENMEETINGS-938
p980
aVOPENMEETINGS-937
p981
aVOPENMEETINGS-936
p982
aVOPENMEETINGS-935
p983
aVOPENMEETINGS-934
p984
aVOPENMEETINGS-933
p985
aVOPENMEETINGS-932
p986
aVOPENMEETINGS-931
p987
aVOPENMEETINGS-930
p988
aVOPENMEETINGS-929
p989
aVOPENMEETINGS-928
p990
aVOPENMEETINGS-927
p991
aVOPENMEETINGS-926
p992
aVOPENMEETINGS-925
p993
aVOPENMEETINGS-924
p994
aVOPENMEETINGS-923
p995
aVOPENMEETINGS-922
p996
aVOPENMEETINGS-921
p997
aVOPENMEETINGS-920
p998
aVOPENMEETINGS-919
p999
aVOPENMEETINGS-918
p1000
aVOPENMEETINGS-917
p1001
aVOPENMEETINGS-916
p1002
aVOPENMEETINGS-915
p1003
aVOPENMEETINGS-914
p1004
aVOPENMEETINGS-913
p1005
aVOPENMEETINGS-912
p1006
aVOPENMEETINGS-911
p1007
aVOPENMEETINGS-910
p1008
aVOPENMEETINGS-909
p1009
aVOPENMEETINGS-908
p1010
aVOPENMEETINGS-907
p1011
aVOPENMEETINGS-906
p1012
aVOPENMEETINGS-905
p1013
aVOPENMEETINGS-904
p1014
aVOPENMEETINGS-903
p1015
aVOPENMEETINGS-902
p1016
aVOPENMEETINGS-901
p1017
aVOPENMEETINGS-900
p1018
aVOPENMEETINGS-899
p1019
aVOPENMEETINGS-898
p1020
aVOPENMEETINGS-897
p1021
aVOPENMEETINGS-896
p1022
aVOPENMEETINGS-895
p1023
aVOPENMEETINGS-894
p1024
aVOPENMEETINGS-893
p1025
aVOPENMEETINGS-892
p1026
aVOPENMEETINGS-891
p1027
aVOPENMEETINGS-890
p1028
aVOPENMEETINGS-889
p1029
aVOPENMEETINGS-888
p1030
aVOPENMEETINGS-887
p1031
aVOPENMEETINGS-886
p1032
aVOPENMEETINGS-885
p1033
aVOPENMEETINGS-884
p1034
aVOPENMEETINGS-883
p1035
aVOPENMEETINGS-882
p1036
aVOPENMEETINGS-881
p1037
aVOPENMEETINGS-880
p1038
aVOPENMEETINGS-879
p1039
aVOPENMEETINGS-878
p1040
aVOPENMEETINGS-877
p1041
aVOPENMEETINGS-876
p1042
aVOPENMEETINGS-875
p1043
aVOPENMEETINGS-874
p1044
aVOPENMEETINGS-873
p1045
aVOPENMEETINGS-872
p1046
aVOPENMEETINGS-871
p1047
aVOPENMEETINGS-870
p1048
aVOPENMEETINGS-869
p1049
aVOPENMEETINGS-868
p1050
aVOPENMEETINGS-867
p1051
aVOPENMEETINGS-866
p1052
aVOPENMEETINGS-865
p1053
aVOPENMEETINGS-864
p1054
aVOPENMEETINGS-863
p1055
aVOPENMEETINGS-862
p1056
aVOPENMEETINGS-861
p1057
aVOPENMEETINGS-860
p1058
aVOPENMEETINGS-859
p1059
aVOPENMEETINGS-858
p1060
aVOPENMEETINGS-857
p1061
aVOPENMEETINGS-856
p1062
aVOPENMEETINGS-855
p1063
aVOPENMEETINGS-854
p1064
aVOPENMEETINGS-853
p1065
aVOPENMEETINGS-852
p1066
aVOPENMEETINGS-851
p1067
aVOPENMEETINGS-850
p1068
aVOPENMEETINGS-849
p1069
aVOPENMEETINGS-848
p1070
aVOPENMEETINGS-847
p1071
aVOPENMEETINGS-846
p1072
aVOPENMEETINGS-845
p1073
aVOPENMEETINGS-844
p1074
aVOPENMEETINGS-843
p1075
aVOPENMEETINGS-842
p1076
aVOPENMEETINGS-841
p1077
aVOPENMEETINGS-840
p1078
aVOPENMEETINGS-839
p1079
aVOPENMEETINGS-838
p1080
aVOPENMEETINGS-837
p1081
aVOPENMEETINGS-836
p1082
aVOPENMEETINGS-835
p1083
aVOPENMEETINGS-834
p1084
aVOPENMEETINGS-833
p1085
aVOPENMEETINGS-832
p1086
aVOPENMEETINGS-831
p1087
aVOPENMEETINGS-830
p1088
aVOPENMEETINGS-829
p1089
aVOPENMEETINGS-828
p1090
aVOPENMEETINGS-827
p1091
aVOPENMEETINGS-826
p1092
aVOPENMEETINGS-825
p1093
aVOPENMEETINGS-824
p1094
aVOPENMEETINGS-823
p1095
aVOPENMEETINGS-822
p1096
aVOPENMEETINGS-821
p1097
aVOPENMEETINGS-820
p1098
aVOPENMEETINGS-819
p1099
aVOPENMEETINGS-818
p1100
aVOPENMEETINGS-817
p1101
aVOPENMEETINGS-816
p1102
aVOPENMEETINGS-815
p1103
aVOPENMEETINGS-814
p1104
aVOPENMEETINGS-813
p1105
aVOPENMEETINGS-812
p1106
aVOPENMEETINGS-811
p1107
aVOPENMEETINGS-810
p1108
aVOPENMEETINGS-809
p1109
aVOPENMEETINGS-808
p1110
aVOPENMEETINGS-807
p1111
aVOPENMEETINGS-806
p1112
aVOPENMEETINGS-805
p1113
aVOPENMEETINGS-804
p1114
aVOPENMEETINGS-803
p1115
aVOPENMEETINGS-802
p1116
aVOPENMEETINGS-801
p1117
aVOPENMEETINGS-800
p1118
aVOPENMEETINGS-799
p1119
aVOPENMEETINGS-798
p1120
aVOPENMEETINGS-797
p1121
aVOPENMEETINGS-796
p1122
aVOPENMEETINGS-795
p1123
aVOPENMEETINGS-794
p1124
aVOPENMEETINGS-793
p1125
aVOPENMEETINGS-792
p1126
aVOPENMEETINGS-791
p1127
aVOPENMEETINGS-790
p1128
aVOPENMEETINGS-789
p1129
aVOPENMEETINGS-788
p1130
aVOPENMEETINGS-787
p1131
aVOPENMEETINGS-786
p1132
aVOPENMEETINGS-785
p1133
aVOPENMEETINGS-784
p1134
aVOPENMEETINGS-783
p1135
aVOPENMEETINGS-782
p1136
aVOPENMEETINGS-781
p1137
aVOPENMEETINGS-780
p1138
aVOPENMEETINGS-779
p1139
aVOPENMEETINGS-778
p1140
aVOPENMEETINGS-777
p1141
aVOPENMEETINGS-776
p1142
aVOPENMEETINGS-775
p1143
aVOPENMEETINGS-774
p1144
aVOPENMEETINGS-773
p1145
aVOPENMEETINGS-772
p1146
aVOPENMEETINGS-771
p1147
aVOPENMEETINGS-770
p1148
aVOPENMEETINGS-769
p1149
aVOPENMEETINGS-768
p1150
aVOPENMEETINGS-767
p1151
aVOPENMEETINGS-766
p1152
aVOPENMEETINGS-765
p1153
aVOPENMEETINGS-764
p1154
aVOPENMEETINGS-763
p1155
aVOPENMEETINGS-762
p1156
aVOPENMEETINGS-761
p1157
aVOPENMEETINGS-760
p1158
aVOPENMEETINGS-759
p1159
aVOPENMEETINGS-758
p1160
aVOPENMEETINGS-757
p1161
aVOPENMEETINGS-756
p1162
aVOPENMEETINGS-755
p1163
aVOPENMEETINGS-754
p1164
aVOPENMEETINGS-753
p1165
aVOPENMEETINGS-752
p1166
aVOPENMEETINGS-751
p1167
aVOPENMEETINGS-750
p1168
aVOPENMEETINGS-749
p1169
aVOPENMEETINGS-748
p1170
aVOPENMEETINGS-747
p1171
aVOPENMEETINGS-746
p1172
aVOPENMEETINGS-745
p1173
aVOPENMEETINGS-744
p1174
aVOPENMEETINGS-743
p1175
aVOPENMEETINGS-742
p1176
aVOPENMEETINGS-741
p1177
aVOPENMEETINGS-740
p1178
aVOPENMEETINGS-739
p1179
aVOPENMEETINGS-738
p1180
aVOPENMEETINGS-737
p1181
aVOPENMEETINGS-736
p1182
aVOPENMEETINGS-735
p1183
aVOPENMEETINGS-734
p1184
aVOPENMEETINGS-733
p1185
aVOPENMEETINGS-732
p1186
aVOPENMEETINGS-731
p1187
aVOPENMEETINGS-730
p1188
aVOPENMEETINGS-729
p1189
aVOPENMEETINGS-728
p1190
aVOPENMEETINGS-727
p1191
aVOPENMEETINGS-726
p1192
aVOPENMEETINGS-725
p1193
aVOPENMEETINGS-724
p1194
aVOPENMEETINGS-723
p1195
aVOPENMEETINGS-722
p1196
aVOPENMEETINGS-721
p1197
aVOPENMEETINGS-720
p1198
aVOPENMEETINGS-719
p1199
aVOPENMEETINGS-718
p1200
aVOPENMEETINGS-717
p1201
aVOPENMEETINGS-716
p1202
aVOPENMEETINGS-715
p1203
aVOPENMEETINGS-714
p1204
aVOPENMEETINGS-713
p1205
aVOPENMEETINGS-712
p1206
aVOPENMEETINGS-711
p1207
aVOPENMEETINGS-710
p1208
aVOPENMEETINGS-709
p1209
aVOPENMEETINGS-708
p1210
aVOPENMEETINGS-707
p1211
aVOPENMEETINGS-706
p1212
aVOPENMEETINGS-705
p1213
aVOPENMEETINGS-704
p1214
aVOPENMEETINGS-703
p1215
aVOPENMEETINGS-702
p1216
aVOPENMEETINGS-701
p1217
aVOPENMEETINGS-700
p1218
aVOPENMEETINGS-699
p1219
aVOPENMEETINGS-698
p1220
aVOPENMEETINGS-697
p1221
aVOPENMEETINGS-696
p1222
aVOPENMEETINGS-695
p1223
aVOPENMEETINGS-694
p1224
aVOPENMEETINGS-693
p1225
aVOPENMEETINGS-692
p1226
aVOPENMEETINGS-691
p1227
aVOPENMEETINGS-690
p1228
aVOPENMEETINGS-689
p1229
aVOPENMEETINGS-688
p1230
aVOPENMEETINGS-687
p1231
aVOPENMEETINGS-686
p1232
aVOPENMEETINGS-685
p1233
aVOPENMEETINGS-684
p1234
aVOPENMEETINGS-683
p1235
aVOPENMEETINGS-682
p1236
aVOPENMEETINGS-681
p1237
aVOPENMEETINGS-680
p1238
aVOPENMEETINGS-679
p1239
aVOPENMEETINGS-678
p1240
aVOPENMEETINGS-677
p1241
aVOPENMEETINGS-676
p1242
aVOPENMEETINGS-675
p1243
aVOPENMEETINGS-674
p1244
aVOPENMEETINGS-673
p1245
aVOPENMEETINGS-672
p1246
aVOPENMEETINGS-671
p1247
aVOPENMEETINGS-670
p1248
aVOPENMEETINGS-669
p1249
aVOPENMEETINGS-668
p1250
aVOPENMEETINGS-667
p1251
aVOPENMEETINGS-666
p1252
aVOPENMEETINGS-665
p1253
aVOPENMEETINGS-664
p1254
aVOPENMEETINGS-663
p1255
aVOPENMEETINGS-662
p1256
aVOPENMEETINGS-661
p1257
aVOPENMEETINGS-660
p1258
aVOPENMEETINGS-659
p1259
aVOPENMEETINGS-658
p1260
aVOPENMEETINGS-657
p1261
aVOPENMEETINGS-656
p1262
aVOPENMEETINGS-655
p1263
aVOPENMEETINGS-654
p1264
aVOPENMEETINGS-653
p1265
aVOPENMEETINGS-652
p1266
aVOPENMEETINGS-651
p1267
aVOPENMEETINGS-650
p1268
aVOPENMEETINGS-649
p1269
aVOPENMEETINGS-648
p1270
aVOPENMEETINGS-647
p1271
aVOPENMEETINGS-646
p1272
aVOPENMEETINGS-645
p1273
aVOPENMEETINGS-644
p1274
aVOPENMEETINGS-643
p1275
aVOPENMEETINGS-642
p1276
aVOPENMEETINGS-641
p1277
aVOPENMEETINGS-640
p1278
aVOPENMEETINGS-639
p1279
aVOPENMEETINGS-638
p1280
aVOPENMEETINGS-637
p1281
aVOPENMEETINGS-636
p1282
aVOPENMEETINGS-635
p1283
aVOPENMEETINGS-634
p1284
aVOPENMEETINGS-633
p1285
aVOPENMEETINGS-632
p1286
aVOPENMEETINGS-631
p1287
aVOPENMEETINGS-630
p1288
aVOPENMEETINGS-629
p1289
aVOPENMEETINGS-628
p1290
aVOPENMEETINGS-627
p1291
aVOPENMEETINGS-626
p1292
aVOPENMEETINGS-625
p1293
aVOPENMEETINGS-624
p1294
aVOPENMEETINGS-623
p1295
aVOPENMEETINGS-622
p1296
aVOPENMEETINGS-621
p1297
aVOPENMEETINGS-620
p1298
aVOPENMEETINGS-619
p1299
aVOPENMEETINGS-618
p1300
aVOPENMEETINGS-617
p1301
aVOPENMEETINGS-616
p1302
aVOPENMEETINGS-615
p1303
aVOPENMEETINGS-614
p1304
aVOPENMEETINGS-613
p1305
aVOPENMEETINGS-612
p1306
aVOPENMEETINGS-611
p1307
aVOPENMEETINGS-610
p1308
aVOPENMEETINGS-609
p1309
aVOPENMEETINGS-608
p1310
aVOPENMEETINGS-607
p1311
aVOPENMEETINGS-606
p1312
aVOPENMEETINGS-605
p1313
aVOPENMEETINGS-604
p1314
aVOPENMEETINGS-603
p1315
aVOPENMEETINGS-602
p1316
aVOPENMEETINGS-601
p1317
aVOPENMEETINGS-600
p1318
aVOPENMEETINGS-599
p1319
aVOPENMEETINGS-598
p1320
aVOPENMEETINGS-597
p1321
aVOPENMEETINGS-596
p1322
aVOPENMEETINGS-595
p1323
aVOPENMEETINGS-594
p1324
aVOPENMEETINGS-593
p1325
aVOPENMEETINGS-592
p1326
aVOPENMEETINGS-591
p1327
aVOPENMEETINGS-590
p1328
aVOPENMEETINGS-589
p1329
aVOPENMEETINGS-588
p1330
aVOPENMEETINGS-587
p1331
aVOPENMEETINGS-586
p1332
aVOPENMEETINGS-585
p1333
aVOPENMEETINGS-584
p1334
aVOPENMEETINGS-583
p1335
aVOPENMEETINGS-582
p1336
aVOPENMEETINGS-581
p1337
aVOPENMEETINGS-580
p1338
aVOPENMEETINGS-579
p1339
aVOPENMEETINGS-578
p1340
aVOPENMEETINGS-577
p1341
aVOPENMEETINGS-576
p1342
aVOPENMEETINGS-575
p1343
aVOPENMEETINGS-574
p1344
aVOPENMEETINGS-573
p1345
aVOPENMEETINGS-572
p1346
aVOPENMEETINGS-571
p1347
aVOPENMEETINGS-570
p1348
aVOPENMEETINGS-569
p1349
aVOPENMEETINGS-568
p1350
aVOPENMEETINGS-567
p1351
aVOPENMEETINGS-566
p1352
aVOPENMEETINGS-565
p1353
aVOPENMEETINGS-564
p1354
aVOPENMEETINGS-563
p1355
aVOPENMEETINGS-562
p1356
aVOPENMEETINGS-561
p1357
aVOPENMEETINGS-560
p1358
aVOPENMEETINGS-559
p1359
aVOPENMEETINGS-558
p1360
aVOPENMEETINGS-557
p1361
aVOPENMEETINGS-556
p1362
aVOPENMEETINGS-555
p1363
aVOPENMEETINGS-554
p1364
aVOPENMEETINGS-553
p1365
aVOPENMEETINGS-552
p1366
aVOPENMEETINGS-551
p1367
aVOPENMEETINGS-550
p1368
aVOPENMEETINGS-549
p1369
aVOPENMEETINGS-548
p1370
aVOPENMEETINGS-547
p1371
aVOPENMEETINGS-546
p1372
aVOPENMEETINGS-545
p1373
aVOPENMEETINGS-544
p1374
aVOPENMEETINGS-543
p1375
aVOPENMEETINGS-542
p1376
aVOPENMEETINGS-541
p1377
aVOPENMEETINGS-540
p1378
aVOPENMEETINGS-539
p1379
aVOPENMEETINGS-538
p1380
aVOPENMEETINGS-537
p1381
aVOPENMEETINGS-536
p1382
aVOPENMEETINGS-535
p1383
aVOPENMEETINGS-534
p1384
aVOPENMEETINGS-533
p1385
aVOPENMEETINGS-532
p1386
aVOPENMEETINGS-531
p1387
aVOPENMEETINGS-530
p1388
aVOPENMEETINGS-529
p1389
aVOPENMEETINGS-528
p1390
aVOPENMEETINGS-527
p1391
aVOPENMEETINGS-526
p1392
aVOPENMEETINGS-525
p1393
aVOPENMEETINGS-524
p1394
aVOPENMEETINGS-523
p1395
aVOPENMEETINGS-522
p1396
aVOPENMEETINGS-521
p1397
aVOPENMEETINGS-520
p1398
aVOPENMEETINGS-519
p1399
aVOPENMEETINGS-518
p1400
aVOPENMEETINGS-517
p1401
aVOPENMEETINGS-516
p1402
aVOPENMEETINGS-515
p1403
aVOPENMEETINGS-514
p1404
aVOPENMEETINGS-513
p1405
aVOPENMEETINGS-512
p1406
aVOPENMEETINGS-511
p1407
aVOPENMEETINGS-510
p1408
aVOPENMEETINGS-509
p1409
aVOPENMEETINGS-508
p1410
aVOPENMEETINGS-507
p1411
aVOPENMEETINGS-506
p1412
aVOPENMEETINGS-505
p1413
aVOPENMEETINGS-504
p1414
aVOPENMEETINGS-503
p1415
aVOPENMEETINGS-502
p1416
aVOPENMEETINGS-501
p1417
aVOPENMEETINGS-500
p1418
aVOPENMEETINGS-499
p1419
aVOPENMEETINGS-498
p1420
aVOPENMEETINGS-497
p1421
aVOPENMEETINGS-496
p1422
aVOPENMEETINGS-495
p1423
aVOPENMEETINGS-494
p1424
aVOPENMEETINGS-493
p1425
aVOPENMEETINGS-492
p1426
aVOPENMEETINGS-491
p1427
aVOPENMEETINGS-490
p1428
aVOPENMEETINGS-489
p1429
aVOPENMEETINGS-488
p1430
aVOPENMEETINGS-487
p1431
aVOPENMEETINGS-486
p1432
aVOPENMEETINGS-485
p1433
aVOPENMEETINGS-484
p1434
aVOPENMEETINGS-483
p1435
aVOPENMEETINGS-482
p1436
aVOPENMEETINGS-481
p1437
aVOPENMEETINGS-480
p1438
aVOPENMEETINGS-479
p1439
aVOPENMEETINGS-478
p1440
aVOPENMEETINGS-477
p1441
aVOPENMEETINGS-476
p1442
aVOPENMEETINGS-475
p1443
aVOPENMEETINGS-474
p1444
aVOPENMEETINGS-473
p1445
aVOPENMEETINGS-472
p1446
aVOPENMEETINGS-471
p1447
aVOPENMEETINGS-470
p1448
aVOPENMEETINGS-469
p1449
aVOPENMEETINGS-468
p1450
aVOPENMEETINGS-467
p1451
aVOPENMEETINGS-466
p1452
aVOPENMEETINGS-465
p1453
aVOPENMEETINGS-464
p1454
aVOPENMEETINGS-463
p1455
aVOPENMEETINGS-462
p1456
aVOPENMEETINGS-461
p1457
aVOPENMEETINGS-460
p1458
aVOPENMEETINGS-459
p1459
aVOPENMEETINGS-458
p1460
aVOPENMEETINGS-457
p1461
aVOPENMEETINGS-456
p1462
aVOPENMEETINGS-455
p1463
aVOPENMEETINGS-454
p1464
aVOPENMEETINGS-453
p1465
aVOPENMEETINGS-452
p1466
aVOPENMEETINGS-451
p1467
aVOPENMEETINGS-450
p1468
aVOPENMEETINGS-449
p1469
aVOPENMEETINGS-448
p1470
aVOPENMEETINGS-447
p1471
aVOPENMEETINGS-446
p1472
aVOPENMEETINGS-445
p1473
aVOPENMEETINGS-444
p1474
aVOPENMEETINGS-443
p1475
aVOPENMEETINGS-442
p1476
aVOPENMEETINGS-441
p1477
aVOPENMEETINGS-440
p1478
aVOPENMEETINGS-439
p1479
aVOPENMEETINGS-438
p1480
aVOPENMEETINGS-437
p1481
aVOPENMEETINGS-436
p1482
aVOPENMEETINGS-435
p1483
aVOPENMEETINGS-434
p1484
aVOPENMEETINGS-433
p1485
aVOPENMEETINGS-432
p1486
aVOPENMEETINGS-431
p1487
aVOPENMEETINGS-430
p1488
aVOPENMEETINGS-429
p1489
aVOPENMEETINGS-428
p1490
aVOPENMEETINGS-427
p1491
aVOPENMEETINGS-426
p1492
aVOPENMEETINGS-425
p1493
aVOPENMEETINGS-424
p1494
aVOPENMEETINGS-423
p1495
aVOPENMEETINGS-422
p1496
aVOPENMEETINGS-421
p1497
aVOPENMEETINGS-420
p1498
aVOPENMEETINGS-419
p1499
aVOPENMEETINGS-418
p1500
aVOPENMEETINGS-417
p1501
aVOPENMEETINGS-416
p1502
aVOPENMEETINGS-415
p1503
aVOPENMEETINGS-414
p1504
aVOPENMEETINGS-413
p1505
aVOPENMEETINGS-412
p1506
aVOPENMEETINGS-411
p1507
aVOPENMEETINGS-410
p1508
aVOPENMEETINGS-409
p1509
aVOPENMEETINGS-408
p1510
aVOPENMEETINGS-407
p1511
aVOPENMEETINGS-406
p1512
aVOPENMEETINGS-405
p1513
aVOPENMEETINGS-404
p1514
aVOPENMEETINGS-403
p1515
aVOPENMEETINGS-402
p1516
aVOPENMEETINGS-401
p1517
aVOPENMEETINGS-400
p1518
aVOPENMEETINGS-399
p1519
aVOPENMEETINGS-398
p1520
aVOPENMEETINGS-397
p1521
aVOPENMEETINGS-396
p1522
aVOPENMEETINGS-395
p1523
aVOPENMEETINGS-394
p1524
aVOPENMEETINGS-393
p1525
aVOPENMEETINGS-392
p1526
aVOPENMEETINGS-391
p1527
aVOPENMEETINGS-390
p1528
aVOPENMEETINGS-389
p1529
aVOPENMEETINGS-388
p1530
aVOPENMEETINGS-387
p1531
aVOPENMEETINGS-386
p1532
aVOPENMEETINGS-385
p1533
aVOPENMEETINGS-384
p1534
aVOPENMEETINGS-383
p1535
aVOPENMEETINGS-382
p1536
aVOPENMEETINGS-381
p1537
aVOPENMEETINGS-380
p1538
aVOPENMEETINGS-379
p1539
aVOPENMEETINGS-378
p1540
aVOPENMEETINGS-377
p1541
aVOPENMEETINGS-376
p1542
aVOPENMEETINGS-375
p1543
aVOPENMEETINGS-374
p1544
aVOPENMEETINGS-373
p1545
aVOPENMEETINGS-372
p1546
aVOPENMEETINGS-371
p1547
aVOPENMEETINGS-370
p1548
aVOPENMEETINGS-369
p1549
aVOPENMEETINGS-368
p1550
aVOPENMEETINGS-367
p1551
aVOPENMEETINGS-366
p1552
aVOPENMEETINGS-365
p1553
aVOPENMEETINGS-364
p1554
aVOPENMEETINGS-363
p1555
aVOPENMEETINGS-362
p1556
aVOPENMEETINGS-361
p1557
aVOPENMEETINGS-360
p1558
aVOPENMEETINGS-359
p1559
aVOPENMEETINGS-358
p1560
aVOPENMEETINGS-357
p1561
aVOPENMEETINGS-356
p1562
aVOPENMEETINGS-355
p1563
aVOPENMEETINGS-354
p1564
aVOPENMEETINGS-353
p1565
aVOPENMEETINGS-352
p1566
aVOPENMEETINGS-351
p1567
aVOPENMEETINGS-350
p1568
aVOPENMEETINGS-349
p1569
aVOPENMEETINGS-348
p1570
aVOPENMEETINGS-347
p1571
aVOPENMEETINGS-346
p1572
aVOPENMEETINGS-345
p1573
aVOPENMEETINGS-344
p1574
aVOPENMEETINGS-343
p1575
aVOPENMEETINGS-342
p1576
aVOPENMEETINGS-341
p1577
aVOPENMEETINGS-340
p1578
aVOPENMEETINGS-339
p1579
aVOPENMEETINGS-338
p1580
aVOPENMEETINGS-337
p1581
aVOPENMEETINGS-336
p1582
aVOPENMEETINGS-335
p1583
aVOPENMEETINGS-334
p1584
aVOPENMEETINGS-333
p1585
aVOPENMEETINGS-332
p1586
aVOPENMEETINGS-331
p1587
aVOPENMEETINGS-330
p1588
aVOPENMEETINGS-329
p1589
aVOPENMEETINGS-328
p1590
aVOPENMEETINGS-327
p1591
aVOPENMEETINGS-326
p1592
aVOPENMEETINGS-325
p1593
aVOPENMEETINGS-324
p1594
aVOPENMEETINGS-323
p1595
aVOPENMEETINGS-322
p1596
aVOPENMEETINGS-321
p1597
aVOPENMEETINGS-320
p1598
aVOPENMEETINGS-319
p1599
aVOPENMEETINGS-318
p1600
aVOPENMEETINGS-317
p1601
aVOPENMEETINGS-316
p1602
aVOPENMEETINGS-315
p1603
aVOPENMEETINGS-314
p1604
aVOPENMEETINGS-313
p1605
aVOPENMEETINGS-312
p1606
aVOPENMEETINGS-311
p1607
aVOPENMEETINGS-310
p1608
aVOPENMEETINGS-309
p1609
aVOPENMEETINGS-308
p1610
aVOPENMEETINGS-307
p1611
aVOPENMEETINGS-306
p1612
aVOPENMEETINGS-305
p1613
aVOPENMEETINGS-304
p1614
aVOPENMEETINGS-303
p1615
aVOPENMEETINGS-302
p1616
aVOPENMEETINGS-301
p1617
aVOPENMEETINGS-300
p1618
aVOPENMEETINGS-299
p1619
aVOPENMEETINGS-298
p1620
aVOPENMEETINGS-297
p1621
aVOPENMEETINGS-296
p1622
aVOPENMEETINGS-295
p1623
aVOPENMEETINGS-294
p1624
aVOPENMEETINGS-293
p1625
aVOPENMEETINGS-292
p1626
aVOPENMEETINGS-291
p1627
aVOPENMEETINGS-290
p1628
aVOPENMEETINGS-289
p1629
aVOPENMEETINGS-288
p1630
aVOPENMEETINGS-287
p1631
aVOPENMEETINGS-286
p1632
aVOPENMEETINGS-285
p1633
aVOPENMEETINGS-284
p1634
aVOPENMEETINGS-283
p1635
aVOPENMEETINGS-282
p1636
aVOPENMEETINGS-281
p1637
aVOPENMEETINGS-280
p1638
aVOPENMEETINGS-279
p1639
aVOPENMEETINGS-278
p1640
aVOPENMEETINGS-277
p1641
aVOPENMEETINGS-276
p1642
aVOPENMEETINGS-275
p1643
aVOPENMEETINGS-274
p1644
aVOPENMEETINGS-273
p1645
aVOPENMEETINGS-272
p1646
aVOPENMEETINGS-271
p1647
aVOPENMEETINGS-270
p1648
aVOPENMEETINGS-269
p1649
aVOPENMEETINGS-268
p1650
aVOPENMEETINGS-267
p1651
aVOPENMEETINGS-266
p1652
aVOPENMEETINGS-265
p1653
aVOPENMEETINGS-264
p1654
aVOPENMEETINGS-263
p1655
aVOPENMEETINGS-262
p1656
aVOPENMEETINGS-261
p1657
aVOPENMEETINGS-260
p1658
aVOPENMEETINGS-259
p1659
aVOPENMEETINGS-258
p1660
aVOPENMEETINGS-257
p1661
aVOPENMEETINGS-256
p1662
aVOPENMEETINGS-255
p1663
aVOPENMEETINGS-254
p1664
aVOPENMEETINGS-253
p1665
aVOPENMEETINGS-252
p1666
aVOPENMEETINGS-251
p1667
aVOPENMEETINGS-250
p1668
aVOPENMEETINGS-249
p1669
aVOPENMEETINGS-248
p1670
aVOPENMEETINGS-247
p1671
aVOPENMEETINGS-246
p1672
aVOPENMEETINGS-245
p1673
aVOPENMEETINGS-244
p1674
aVOPENMEETINGS-243
p1675
aVOPENMEETINGS-242
p1676
aVOPENMEETINGS-241
p1677
aVOPENMEETINGS-240
p1678
aVOPENMEETINGS-239
p1679
aVOPENMEETINGS-238
p1680
aVOPENMEETINGS-237
p1681
aVOPENMEETINGS-236
p1682
aVOPENMEETINGS-235
p1683
aVOPENMEETINGS-234
p1684
aVOPENMEETINGS-233
p1685
aVOPENMEETINGS-232
p1686
aVOPENMEETINGS-231
p1687
aVOPENMEETINGS-230
p1688
aVOPENMEETINGS-229
p1689
aVOPENMEETINGS-228
p1690
aVOPENMEETINGS-227
p1691
aVOPENMEETINGS-226
p1692
aVOPENMEETINGS-225
p1693
aVOPENMEETINGS-224
p1694
aVOPENMEETINGS-223
p1695
aVOPENMEETINGS-222
p1696
aVOPENMEETINGS-221
p1697
aVOPENMEETINGS-220
p1698
aVOPENMEETINGS-219
p1699
aVOPENMEETINGS-218
p1700
aVOPENMEETINGS-217
p1701
aVOPENMEETINGS-216
p1702
aVOPENMEETINGS-215
p1703
aVOPENMEETINGS-214
p1704
aVOPENMEETINGS-213
p1705
aVOPENMEETINGS-212
p1706
aVOPENMEETINGS-211
p1707
aVOPENMEETINGS-210
p1708
aVOPENMEETINGS-209
p1709
aVOPENMEETINGS-208
p1710
aVOPENMEETINGS-207
p1711
aVOPENMEETINGS-206
p1712
aVOPENMEETINGS-205
p1713
aVOPENMEETINGS-204
p1714
aVOPENMEETINGS-203
p1715
aVOPENMEETINGS-202
p1716
aVOPENMEETINGS-201
p1717
aVOPENMEETINGS-200
p1718
aVOPENMEETINGS-199
p1719
aVOPENMEETINGS-198
p1720
aVOPENMEETINGS-197
p1721
aVOPENMEETINGS-196
p1722
aVOPENMEETINGS-195
p1723
aVOPENMEETINGS-194
p1724
aVOPENMEETINGS-193
p1725
aVOPENMEETINGS-192
p1726
aVOPENMEETINGS-191
p1727
aVOPENMEETINGS-190
p1728
aVOPENMEETINGS-189
p1729
aVOPENMEETINGS-188
p1730
aVOPENMEETINGS-187
p1731
aVOPENMEETINGS-186
p1732
aVOPENMEETINGS-185
p1733
aVOPENMEETINGS-184
p1734
aVOPENMEETINGS-183
p1735
aVOPENMEETINGS-182
p1736
aVOPENMEETINGS-181
p1737
aVOPENMEETINGS-180
p1738
aVOPENMEETINGS-179
p1739
aVOPENMEETINGS-178
p1740
aVOPENMEETINGS-177
p1741
aVOPENMEETINGS-176
p1742
aVOPENMEETINGS-175
p1743
aVOPENMEETINGS-174
p1744
aVOPENMEETINGS-173
p1745
aVOPENMEETINGS-172
p1746
aVOPENMEETINGS-171
p1747
aVOPENMEETINGS-170
p1748
aVOPENMEETINGS-169
p1749
aVOPENMEETINGS-168
p1750
aVOPENMEETINGS-167
p1751
aVOPENMEETINGS-166
p1752
aVOPENMEETINGS-165
p1753
aVOPENMEETINGS-164
p1754
aVOPENMEETINGS-163
p1755
aVOPENMEETINGS-162
p1756
aVOPENMEETINGS-161
p1757
aVOPENMEETINGS-160
p1758
aVOPENMEETINGS-159
p1759
aVOPENMEETINGS-158
p1760
aVOPENMEETINGS-157
p1761
aVOPENMEETINGS-156
p1762
aVOPENMEETINGS-155
p1763
aVOPENMEETINGS-154
p1764
aVOPENMEETINGS-153
p1765
aVOPENMEETINGS-152
p1766
aVOPENMEETINGS-151
p1767
aVOPENMEETINGS-150
p1768
aVOPENMEETINGS-149
p1769
aVOPENMEETINGS-148
p1770
aVOPENMEETINGS-147
p1771
aVOPENMEETINGS-146
p1772
aVOPENMEETINGS-145
p1773
aVOPENMEETINGS-144
p1774
aVOPENMEETINGS-143
p1775
aVOPENMEETINGS-142
p1776
aVOPENMEETINGS-141
p1777
aVOPENMEETINGS-140
p1778
aVOPENMEETINGS-139
p1779
aVOPENMEETINGS-138
p1780
aVOPENMEETINGS-137
p1781
aVOPENMEETINGS-136
p1782
aVOPENMEETINGS-135
p1783
aVOPENMEETINGS-134
p1784
aVOPENMEETINGS-133
p1785
aVOPENMEETINGS-132
p1786
aVOPENMEETINGS-131
p1787
aVOPENMEETINGS-130
p1788
aVOPENMEETINGS-129
p1789
aVOPENMEETINGS-128
p1790
aVOPENMEETINGS-127
p1791
aVOPENMEETINGS-126
p1792
aVOPENMEETINGS-125
p1793
aVOPENMEETINGS-124
p1794
aVOPENMEETINGS-123
p1795
aVOPENMEETINGS-122
p1796
aVOPENMEETINGS-121
p1797
aVOPENMEETINGS-120
p1798
aVOPENMEETINGS-119
p1799
aVOPENMEETINGS-118
p1800
aVOPENMEETINGS-117
p1801
aVOPENMEETINGS-116
p1802
aVOPENMEETINGS-115
p1803
aVOPENMEETINGS-114
p1804
aVOPENMEETINGS-113
p1805
aVOPENMEETINGS-112
p1806
aVOPENMEETINGS-111
p1807
aVOPENMEETINGS-110
p1808
aVOPENMEETINGS-109
p1809
aVOPENMEETINGS-108
p1810
aVOPENMEETINGS-107
p1811
aVOPENMEETINGS-106
p1812
aVOPENMEETINGS-105
p1813
aVOPENMEETINGS-104
p1814
aVOPENMEETINGS-103
p1815
aVOPENMEETINGS-102
p1816
aVOPENMEETINGS-101
p1817
aVOPENMEETINGS-100
p1818
aVOPENMEETINGS-99
p1819
aVOPENMEETINGS-98
p1820
aVOPENMEETINGS-97
p1821
aVOPENMEETINGS-96
p1822
aVOPENMEETINGS-95
p1823
aVOPENMEETINGS-94
p1824
aVOPENMEETINGS-93
p1825
aVOPENMEETINGS-92
p1826
aVOPENMEETINGS-91
p1827
aVOPENMEETINGS-90
p1828
aVOPENMEETINGS-89
p1829
aVOPENMEETINGS-88
p1830
aVOPENMEETINGS-87
p1831
aVOPENMEETINGS-86
p1832
aVOPENMEETINGS-85
p1833
aVOPENMEETINGS-84
p1834
aVOPENMEETINGS-83
p1835
aVOPENMEETINGS-82
p1836
aVOPENMEETINGS-81
p1837
aVOPENMEETINGS-80
p1838
aVOPENMEETINGS-79
p1839
aVOPENMEETINGS-78
p1840
aVOPENMEETINGS-77
p1841
aVOPENMEETINGS-76
p1842
aVOPENMEETINGS-75
p1843
aVOPENMEETINGS-74
p1844
aVOPENMEETINGS-73
p1845
aVOPENMEETINGS-72
p1846
aVOPENMEETINGS-71
p1847
aVOPENMEETINGS-70
p1848
aVOPENMEETINGS-69
p1849
aVOPENMEETINGS-68
p1850
aVOPENMEETINGS-67
p1851
aVOPENMEETINGS-66
p1852
aVOPENMEETINGS-65
p1853
aVOPENMEETINGS-64
p1854
aVOPENMEETINGS-63
p1855
aVOPENMEETINGS-62
p1856
aVOPENMEETINGS-61
p1857
aVOPENMEETINGS-60
p1858
aVOPENMEETINGS-59
p1859
aVOPENMEETINGS-58
p1860
aVOPENMEETINGS-57
p1861
aVOPENMEETINGS-56
p1862
aVOPENMEETINGS-55
p1863
aVOPENMEETINGS-54
p1864
aVOPENMEETINGS-53
p1865
aVOPENMEETINGS-52
p1866
aVOPENMEETINGS-51
p1867
aVOPENMEETINGS-50
p1868
aVOPENMEETINGS-49
p1869
aVOPENMEETINGS-48
p1870
aVOPENMEETINGS-47
p1871
aVOPENMEETINGS-46
p1872
aVOPENMEETINGS-45
p1873
aVOPENMEETINGS-44
p1874
aVOPENMEETINGS-43
p1875
aVOPENMEETINGS-42
p1876
aVOPENMEETINGS-41
p1877
aVOPENMEETINGS-40
p1878
aVOPENMEETINGS-39
p1879
aVOPENMEETINGS-38
p1880
aVOPENMEETINGS-37
p1881
aVOPENMEETINGS-36
p1882
aVOPENMEETINGS-35
p1883
aVOPENMEETINGS-34
p1884
aVOPENMEETINGS-33
p1885
aVOPENMEETINGS-32
p1886
aVOPENMEETINGS-31
p1887
aVOPENMEETINGS-30
p1888
aVOPENMEETINGS-29
p1889
aVOPENMEETINGS-28
p1890
aVOPENMEETINGS-27
p1891
aVOPENMEETINGS-26
p1892
aVOPENMEETINGS-25
p1893
aVOPENMEETINGS-24
p1894
aVOPENMEETINGS-23
p1895
aVOPENMEETINGS-22
p1896
aVOPENMEETINGS-21
p1897
aVOPENMEETINGS-20
p1898
aVOPENMEETINGS-19
p1899
aVOPENMEETINGS-18
p1900
aVOPENMEETINGS-17
p1901
aVOPENMEETINGS-16
p1902
aVOPENMEETINGS-15
p1903
aVOPENMEETINGS-14
p1904
aVOPENMEETINGS-13
p1905
aVOPENMEETINGS-12
p1906
aVOPENMEETINGS-11
p1907
aVOPENMEETINGS-10
p1908
aVOPENMEETINGS-9
p1909
aVOPENMEETINGS-8
p1910
aVOPENMEETINGS-7
p1911
aVOPENMEETINGS-6
p1912
aVOPENMEETINGS-5
p1913
aVOPENMEETINGS-4
p1914
aVOPENMEETINGS-3
p1915
aVOPENMEETINGS-2
p1916
aVOPENMEETINGS-1
p1917
a.