(lp0
VOPENEJB-2136
p1
aVOPENEJB-2135
p2
aVOPENEJB-2134
p3
aVOPENEJB-2133
p4
aVOPENEJB-2132
p5
aVOPENEJB-2131
p6
aVOPENEJB-2127
p7
aVOPENEJB-2126
p8
aVOPENEJB-2125
p9
aVOPENEJB-2124
p10
aVOPENEJB-2123
p11
aVOPENEJB-2122
p12
aVOPENEJB-2121
p13
aVOPENEJB-2120
p14
aVOPENEJB-2119
p15
aVOPENEJB-2118
p16
aVOPENEJB-2117
p17
aVOPENEJB-2116
p18
aVOPENEJB-2115
p19
aVOPENEJB-2114
p20
aVOPENEJB-2113
p21
aVOPENEJB-2112
p22
aVOPENEJB-2111
p23
aVOPENEJB-2110
p24
aVOPENEJB-2109
p25
aVOPENEJB-2108
p26
aVOPENEJB-2107
p27
aVOPENEJB-2106
p28
aVOPENEJB-2105
p29
aVOPENEJB-2104
p30
aVOPENEJB-2103
p31
aVOPENEJB-2102
p32
aVOPENEJB-2101
p33
aVOPENEJB-2100
p34
aVOPENEJB-2099
p35
aVOPENEJB-2098
p36
aVOPENEJB-2097
p37
aVOPENEJB-2096
p38
aVOPENEJB-2095
p39
aVOPENEJB-2094
p40
aVOPENEJB-2093
p41
aVOPENEJB-2092
p42
aVOPENEJB-2091
p43
aVOPENEJB-2090
p44
aVOPENEJB-2089
p45
aVOPENEJB-2088
p46
aVOPENEJB-2087
p47
aVOPENEJB-2086
p48
aVOPENEJB-2085
p49
aVOPENEJB-2084
p50
aVOPENEJB-2083
p51
aVOPENEJB-2082
p52
aVOPENEJB-2081
p53
aVOPENEJB-2080
p54
aVOPENEJB-2079
p55
aVOPENEJB-2078
p56
aVOPENEJB-2077
p57
aVOPENEJB-2076
p58
aVOPENEJB-2075
p59
aVOPENEJB-2074
p60
aVOPENEJB-2073
p61
aVOPENEJB-2072
p62
aVOPENEJB-2071
p63
aVOPENEJB-2070
p64
aVOPENEJB-2069
p65
aVOPENEJB-2068
p66
aVOPENEJB-2067
p67
aVOPENEJB-2066
p68
aVOPENEJB-2065
p69
aVOPENEJB-2064
p70
aVOPENEJB-2063
p71
aVOPENEJB-2062
p72
aVOPENEJB-2061
p73
aVOPENEJB-2060
p74
aVOPENEJB-2059
p75
aVOPENEJB-2058
p76
aVOPENEJB-2057
p77
aVOPENEJB-2056
p78
aVOPENEJB-2055
p79
aVOPENEJB-2054
p80
aVOPENEJB-2053
p81
aVOPENEJB-2052
p82
aVOPENEJB-2051
p83
aVOPENEJB-2050
p84
aVOPENEJB-2049
p85
aVOPENEJB-2048
p86
aVOPENEJB-2047
p87
aVOPENEJB-2046
p88
aVOPENEJB-2045
p89
aVOPENEJB-2044
p90
aVOPENEJB-2043
p91
aVOPENEJB-2042
p92
aVOPENEJB-2041
p93
aVOPENEJB-2040
p94
aVOPENEJB-2039
p95
aVOPENEJB-2038
p96
aVOPENEJB-2037
p97
aVOPENEJB-2036
p98
aVOPENEJB-2035
p99
aVOPENEJB-2034
p100
aVOPENEJB-2033
p101
aVOPENEJB-2032
p102
aVOPENEJB-2031
p103
aVOPENEJB-2030
p104
aVOPENEJB-2029
p105
aVOPENEJB-2028
p106
aVOPENEJB-2027
p107
aVOPENEJB-2026
p108
aVOPENEJB-2025
p109
aVOPENEJB-2024
p110
aVOPENEJB-2023
p111
aVOPENEJB-2022
p112
aVOPENEJB-2021
p113
aVOPENEJB-2020
p114
aVOPENEJB-2019
p115
aVOPENEJB-2018
p116
aVOPENEJB-2017
p117
aVOPENEJB-2016
p118
aVOPENEJB-2015
p119
aVOPENEJB-2014
p120
aVOPENEJB-2013
p121
aVOPENEJB-2012
p122
aVOPENEJB-2011
p123
aVOPENEJB-2010
p124
aVOPENEJB-2009
p125
aVOPENEJB-2008
p126
aVOPENEJB-2007
p127
aVOPENEJB-2006
p128
aVOPENEJB-2005
p129
aVOPENEJB-2004
p130
aVOPENEJB-2003
p131
aVOPENEJB-2002
p132
aVOPENEJB-2001
p133
aVOPENEJB-2000
p134
aVOPENEJB-1999
p135
aVOPENEJB-1998
p136
aVOPENEJB-1997
p137
aVOPENEJB-1996
p138
aVOPENEJB-1995
p139
aVOPENEJB-1994
p140
aVOPENEJB-1993
p141
aVOPENEJB-1992
p142
aVOPENEJB-1991
p143
aVOPENEJB-1990
p144
aVOPENEJB-1989
p145
aVOPENEJB-1988
p146
aVOPENEJB-1987
p147
aVOPENEJB-1986
p148
aVOPENEJB-1985
p149
aVOPENEJB-1984
p150
aVOPENEJB-1983
p151
aVOPENEJB-1982
p152
aVOPENEJB-1981
p153
aVOPENEJB-1980
p154
aVOPENEJB-1979
p155
aVOPENEJB-1978
p156
aVOPENEJB-1977
p157
aVOPENEJB-1976
p158
aVOPENEJB-1975
p159
aVOPENEJB-1974
p160
aVOPENEJB-1973
p161
aVOPENEJB-1972
p162
aVOPENEJB-1971
p163
aVOPENEJB-1970
p164
aVOPENEJB-1969
p165
aVOPENEJB-1968
p166
aVOPENEJB-1967
p167
aVOPENEJB-1966
p168
aVOPENEJB-1965
p169
aVOPENEJB-1964
p170
aVOPENEJB-1963
p171
aVOPENEJB-1962
p172
aVOPENEJB-1961
p173
aVOPENEJB-1960
p174
aVOPENEJB-1959
p175
aVOPENEJB-1958
p176
aVOPENEJB-1957
p177
aVOPENEJB-1956
p178
aVOPENEJB-1955
p179
aVOPENEJB-1954
p180
aVOPENEJB-1953
p181
aVOPENEJB-1952
p182
aVOPENEJB-1951
p183
aVOPENEJB-1950
p184
aVOPENEJB-1949
p185
aVOPENEJB-1948
p186
aVOPENEJB-1947
p187
aVOPENEJB-1946
p188
aVOPENEJB-1945
p189
aVOPENEJB-1944
p190
aVOPENEJB-1943
p191
aVOPENEJB-1942
p192
aVOPENEJB-1941
p193
aVOPENEJB-1940
p194
aVOPENEJB-1939
p195
aVOPENEJB-1938
p196
aVOPENEJB-1937
p197
aVOPENEJB-1936
p198
aVOPENEJB-1935
p199
aVOPENEJB-1934
p200
aVOPENEJB-1933
p201
aVOPENEJB-1932
p202
aVOPENEJB-1931
p203
aVOPENEJB-1930
p204
aVOPENEJB-1929
p205
aVOPENEJB-1928
p206
aVOPENEJB-1927
p207
aVOPENEJB-1926
p208
aVOPENEJB-1925
p209
aVOPENEJB-1924
p210
aVOPENEJB-1923
p211
aVOPENEJB-1922
p212
aVOPENEJB-1921
p213
aVOPENEJB-1920
p214
aVOPENEJB-1919
p215
aVOPENEJB-1918
p216
aVOPENEJB-1917
p217
aVOPENEJB-1916
p218
aVOPENEJB-1915
p219
aVOPENEJB-1914
p220
aVOPENEJB-1913
p221
aVOPENEJB-1912
p222
aVOPENEJB-1911
p223
aVOPENEJB-1910
p224
aVOPENEJB-1909
p225
aVOPENEJB-1908
p226
aVOPENEJB-1907
p227
aVOPENEJB-1906
p228
aVOPENEJB-1905
p229
aVOPENEJB-1904
p230
aVOPENEJB-1903
p231
aVOPENEJB-1902
p232
aVOPENEJB-1901
p233
aVOPENEJB-1900
p234
aVOPENEJB-1899
p235
aVOPENEJB-1898
p236
aVOPENEJB-1897
p237
aVOPENEJB-1896
p238
aVOPENEJB-1895
p239
aVOPENEJB-1894
p240
aVOPENEJB-1893
p241
aVOPENEJB-1892
p242
aVOPENEJB-1891
p243
aVOPENEJB-1890
p244
aVOPENEJB-1889
p245
aVOPENEJB-1888
p246
aVOPENEJB-1887
p247
aVOPENEJB-1886
p248
aVOPENEJB-1885
p249
aVOPENEJB-1884
p250
aVOPENEJB-1883
p251
aVOPENEJB-1882
p252
aVOPENEJB-1881
p253
aVOPENEJB-1880
p254
aVOPENEJB-1879
p255
aVOPENEJB-1878
p256
aVOPENEJB-1877
p257
aVOPENEJB-1876
p258
aVOPENEJB-1875
p259
aVOPENEJB-1874
p260
aVOPENEJB-1873
p261
aVOPENEJB-1872
p262
aVOPENEJB-1871
p263
aVOPENEJB-1870
p264
aVOPENEJB-1869
p265
aVOPENEJB-1868
p266
aVOPENEJB-1867
p267
aVOPENEJB-1866
p268
aVOPENEJB-1865
p269
aVOPENEJB-1864
p270
aVOPENEJB-1863
p271
aVOPENEJB-1862
p272
aVOPENEJB-1861
p273
aVOPENEJB-1860
p274
aVOPENEJB-1859
p275
aVOPENEJB-1858
p276
aVOPENEJB-1857
p277
aVOPENEJB-1856
p278
aVOPENEJB-1855
p279
aVOPENEJB-1854
p280
aVOPENEJB-1853
p281
aVOPENEJB-1852
p282
aVOPENEJB-1851
p283
aVOPENEJB-1850
p284
aVOPENEJB-1849
p285
aVOPENEJB-1848
p286
aVOPENEJB-1847
p287
aVOPENEJB-1846
p288
aVOPENEJB-1845
p289
aVOPENEJB-1844
p290
aVOPENEJB-1843
p291
aVOPENEJB-1841
p292
aVOPENEJB-1840
p293
aVOPENEJB-1839
p294
aVOPENEJB-1838
p295
aVOPENEJB-1837
p296
aVOPENEJB-1836
p297
aVOPENEJB-1835
p298
aVOPENEJB-1834
p299
aVOPENEJB-1833
p300
aVOPENEJB-1832
p301
aVOPENEJB-1831
p302
aVOPENEJB-1830
p303
aVOPENEJB-1829
p304
aVOPENEJB-1828
p305
aVOPENEJB-1827
p306
aVOPENEJB-1826
p307
aVOPENEJB-1825
p308
aVOPENEJB-1824
p309
aVOPENEJB-1823
p310
aVOPENEJB-1822
p311
aVOPENEJB-1821
p312
aVOPENEJB-1819
p313
aVOPENEJB-1818
p314
aVOPENEJB-1817
p315
aVOPENEJB-1816
p316
aVOPENEJB-1815
p317
aVOPENEJB-1814
p318
aVOPENEJB-1813
p319
aVOPENEJB-1812
p320
aVOPENEJB-1811
p321
aVOPENEJB-1810
p322
aVOPENEJB-1809
p323
aVOPENEJB-1808
p324
aVOPENEJB-1807
p325
aVOPENEJB-1806
p326
aVOPENEJB-1805
p327
aVOPENEJB-1804
p328
aVOPENEJB-1803
p329
aVOPENEJB-1802
p330
aVOPENEJB-1801
p331
aVOPENEJB-1800
p332
aVOPENEJB-1799
p333
aVOPENEJB-1798
p334
aVOPENEJB-1797
p335
aVOPENEJB-1796
p336
aVOPENEJB-1795
p337
aVOPENEJB-1794
p338
aVOPENEJB-1793
p339
aVOPENEJB-1792
p340
aVOPENEJB-1791
p341
aVOPENEJB-1790
p342
aVOPENEJB-1789
p343
aVOPENEJB-1788
p344
aVOPENEJB-1787
p345
aVOPENEJB-1786
p346
aVOPENEJB-1785
p347
aVOPENEJB-1784
p348
aVOPENEJB-1783
p349
aVOPENEJB-1782
p350
aVOPENEJB-1781
p351
aVOPENEJB-1780
p352
aVOPENEJB-1779
p353
aVOPENEJB-1778
p354
aVOPENEJB-1777
p355
aVOPENEJB-1776
p356
aVOPENEJB-1775
p357
aVOPENEJB-1774
p358
aVOPENEJB-1773
p359
aVOPENEJB-1772
p360
aVOPENEJB-1771
p361
aVOPENEJB-1770
p362
aVOPENEJB-1769
p363
aVOPENEJB-1768
p364
aVOPENEJB-1767
p365
aVOPENEJB-1766
p366
aVOPENEJB-1765
p367
aVOPENEJB-1764
p368
aVOPENEJB-1763
p369
aVOPENEJB-1762
p370
aVOPENEJB-1761
p371
aVOPENEJB-1760
p372
aVOPENEJB-1759
p373
aVOPENEJB-1758
p374
aVOPENEJB-1757
p375
aVOPENEJB-1756
p376
aVOPENEJB-1755
p377
aVOPENEJB-1754
p378
aVOPENEJB-1753
p379
aVOPENEJB-1752
p380
aVOPENEJB-1751
p381
aVOPENEJB-1750
p382
aVOPENEJB-1749
p383
aVOPENEJB-1748
p384
aVOPENEJB-1747
p385
aVOPENEJB-1746
p386
aVOPENEJB-1745
p387
aVOPENEJB-1744
p388
aVOPENEJB-1743
p389
aVOPENEJB-1742
p390
aVOPENEJB-1741
p391
aVOPENEJB-1740
p392
aVOPENEJB-1739
p393
aVOPENEJB-1738
p394
aVOPENEJB-1737
p395
aVOPENEJB-1736
p396
aVOPENEJB-1735
p397
aVOPENEJB-1734
p398
aVOPENEJB-1733
p399
aVOPENEJB-1732
p400
aVOPENEJB-1731
p401
aVOPENEJB-1730
p402
aVOPENEJB-1729
p403
aVOPENEJB-1728
p404
aVOPENEJB-1727
p405
aVOPENEJB-1726
p406
aVOPENEJB-1725
p407
aVOPENEJB-1724
p408
aVOPENEJB-1723
p409
aVOPENEJB-1722
p410
aVOPENEJB-1721
p411
aVOPENEJB-1720
p412
aVOPENEJB-1719
p413
aVOPENEJB-1718
p414
aVOPENEJB-1717
p415
aVOPENEJB-1716
p416
aVOPENEJB-1715
p417
aVOPENEJB-1714
p418
aVOPENEJB-1713
p419
aVOPENEJB-1712
p420
aVOPENEJB-1711
p421
aVOPENEJB-1710
p422
aVOPENEJB-1709
p423
aVOPENEJB-1708
p424
aVOPENEJB-1707
p425
aVOPENEJB-1706
p426
aVOPENEJB-1705
p427
aVOPENEJB-1704
p428
aVOPENEJB-1703
p429
aVOPENEJB-1702
p430
aVOPENEJB-1701
p431
aVOPENEJB-1700
p432
aVOPENEJB-1699
p433
aVOPENEJB-1698
p434
aVOPENEJB-1697
p435
aVOPENEJB-1692
p436
aVOPENEJB-1691
p437
aVOPENEJB-1690
p438
aVOPENEJB-1688
p439
aVOPENEJB-1687
p440
aVOPENEJB-1685
p441
aVOPENEJB-1684
p442
aVOPENEJB-1683
p443
aVOPENEJB-1682
p444
aVOPENEJB-1680
p445
aVOPENEJB-1679
p446
aVOPENEJB-1678
p447
aVOPENEJB-1669
p448
aVOPENEJB-1668
p449
aVOPENEJB-1667
p450
aVOPENEJB-1666
p451
aVOPENEJB-1665
p452
aVOPENEJB-1663
p453
aVOPENEJB-1662
p454
aVOPENEJB-1661
p455
aVOPENEJB-1660
p456
aVOPENEJB-1659
p457
aVOPENEJB-1658
p458
aVOPENEJB-1657
p459
aVOPENEJB-1656
p460
aVOPENEJB-1655
p461
aVOPENEJB-1654
p462
aVOPENEJB-1653
p463
aVOPENEJB-1652
p464
aVOPENEJB-1651
p465
aVOPENEJB-1650
p466
aVOPENEJB-1649
p467
aVOPENEJB-1648
p468
aVOPENEJB-1646
p469
aVOPENEJB-1645
p470
aVOPENEJB-1643
p471
aVOPENEJB-1642
p472
aVOPENEJB-1641
p473
aVOPENEJB-1640
p474
aVOPENEJB-1639
p475
aVOPENEJB-1638
p476
aVOPENEJB-1637
p477
aVOPENEJB-1636
p478
aVOPENEJB-1635
p479
aVOPENEJB-1634
p480
aVOPENEJB-1633
p481
aVOPENEJB-1632
p482
aVOPENEJB-1631
p483
aVOPENEJB-1630
p484
aVOPENEJB-1629
p485
aVOPENEJB-1628
p486
aVOPENEJB-1627
p487
aVOPENEJB-1626
p488
aVOPENEJB-1625
p489
aVOPENEJB-1624
p490
aVOPENEJB-1623
p491
aVOPENEJB-1622
p492
aVOPENEJB-1621
p493
aVOPENEJB-1620
p494
aVOPENEJB-1619
p495
aVOPENEJB-1618
p496
aVOPENEJB-1617
p497
aVOPENEJB-1616
p498
aVOPENEJB-1615
p499
aVOPENEJB-1614
p500
aVOPENEJB-1613
p501
aVOPENEJB-1612
p502
aVOPENEJB-1611
p503
aVOPENEJB-1610
p504
aVOPENEJB-1609
p505
aVOPENEJB-1608
p506
aVOPENEJB-1607
p507
aVOPENEJB-1606
p508
aVOPENEJB-1605
p509
aVOPENEJB-1604
p510
aVOPENEJB-1603
p511
aVOPENEJB-1602
p512
aVOPENEJB-1601
p513
aVOPENEJB-1600
p514
aVOPENEJB-1599
p515
aVOPENEJB-1597
p516
aVOPENEJB-1596
p517
aVOPENEJB-1595
p518
aVOPENEJB-1594
p519
aVOPENEJB-1593
p520
aVOPENEJB-1592
p521
aVOPENEJB-1591
p522
aVOPENEJB-1590
p523
aVOPENEJB-1589
p524
aVOPENEJB-1588
p525
aVOPENEJB-1587
p526
aVOPENEJB-1586
p527
aVOPENEJB-1585
p528
aVOPENEJB-1584
p529
aVOPENEJB-1583
p530
aVOPENEJB-1582
p531
aVOPENEJB-1581
p532
aVOPENEJB-1580
p533
aVOPENEJB-1579
p534
aVOPENEJB-1578
p535
aVOPENEJB-1577
p536
aVOPENEJB-1576
p537
aVOPENEJB-1575
p538
aVOPENEJB-1574
p539
aVOPENEJB-1573
p540
aVOPENEJB-1572
p541
aVOPENEJB-1571
p542
aVOPENEJB-1570
p543
aVOPENEJB-1569
p544
aVOPENEJB-1568
p545
aVOPENEJB-1567
p546
aVOPENEJB-1566
p547
aVOPENEJB-1565
p548
aVOPENEJB-1564
p549
aVOPENEJB-1563
p550
aVOPENEJB-1562
p551
aVOPENEJB-1561
p552
aVOPENEJB-1560
p553
aVOPENEJB-1559
p554
aVOPENEJB-1558
p555
aVOPENEJB-1557
p556
aVOPENEJB-1555
p557
aVOPENEJB-1554
p558
aVOPENEJB-1553
p559
aVOPENEJB-1552
p560
aVOPENEJB-1551
p561
aVOPENEJB-1550
p562
aVOPENEJB-1549
p563
aVOPENEJB-1548
p564
aVOPENEJB-1547
p565
aVOPENEJB-1546
p566
aVOPENEJB-1545
p567
aVOPENEJB-1544
p568
aVOPENEJB-1543
p569
aVOPENEJB-1542
p570
aVOPENEJB-1541
p571
aVOPENEJB-1540
p572
aVOPENEJB-1539
p573
aVOPENEJB-1538
p574
aVOPENEJB-1537
p575
aVOPENEJB-1536
p576
aVOPENEJB-1535
p577
aVOPENEJB-1534
p578
aVOPENEJB-1533
p579
aVOPENEJB-1532
p580
aVOPENEJB-1531
p581
aVOPENEJB-1529
p582
aVOPENEJB-1528
p583
aVOPENEJB-1527
p584
aVOPENEJB-1526
p585
aVOPENEJB-1525
p586
aVOPENEJB-1524
p587
aVOPENEJB-1523
p588
aVOPENEJB-1522
p589
aVOPENEJB-1521
p590
aVOPENEJB-1520
p591
aVOPENEJB-1519
p592
aVOPENEJB-1518
p593
aVOPENEJB-1517
p594
aVOPENEJB-1516
p595
aVOPENEJB-1515
p596
aVOPENEJB-1514
p597
aVOPENEJB-1513
p598
aVOPENEJB-1512
p599
aVOPENEJB-1511
p600
aVOPENEJB-1510
p601
aVOPENEJB-1509
p602
aVOPENEJB-1508
p603
aVOPENEJB-1507
p604
aVOPENEJB-1506
p605
aVOPENEJB-1505
p606
aVOPENEJB-1504
p607
aVOPENEJB-1503
p608
aVOPENEJB-1502
p609
aVOPENEJB-1501
p610
aVOPENEJB-1500
p611
aVOPENEJB-1499
p612
aVOPENEJB-1498
p613
aVOPENEJB-1497
p614
aVOPENEJB-1496
p615
aVOPENEJB-1495
p616
aVOPENEJB-1494
p617
aVOPENEJB-1493
p618
aVOPENEJB-1492
p619
aVOPENEJB-1491
p620
aVOPENEJB-1490
p621
aVOPENEJB-1489
p622
aVOPENEJB-1488
p623
aVOPENEJB-1487
p624
aVOPENEJB-1486
p625
aVOPENEJB-1485
p626
aVOPENEJB-1484
p627
aVOPENEJB-1483
p628
aVOPENEJB-1482
p629
aVOPENEJB-1481
p630
aVOPENEJB-1480
p631
aVOPENEJB-1479
p632
aVOPENEJB-1478
p633
aVOPENEJB-1477
p634
aVOPENEJB-1476
p635
aVOPENEJB-1475
p636
aVOPENEJB-1474
p637
aVOPENEJB-1473
p638
aVOPENEJB-1472
p639
aVOPENEJB-1471
p640
aVOPENEJB-1470
p641
aVOPENEJB-1469
p642
aVOPENEJB-1468
p643
aVOPENEJB-1467
p644
aVOPENEJB-1466
p645
aVOPENEJB-1465
p646
aVOPENEJB-1464
p647
aVOPENEJB-1463
p648
aVOPENEJB-1462
p649
aVOPENEJB-1461
p650
aVOPENEJB-1460
p651
aVOPENEJB-1459
p652
aVOPENEJB-1458
p653
aVOPENEJB-1457
p654
aVOPENEJB-1456
p655
aVOPENEJB-1455
p656
aVOPENEJB-1454
p657
aVOPENEJB-1453
p658
aVOPENEJB-1452
p659
aVOPENEJB-1451
p660
aVOPENEJB-1450
p661
aVOPENEJB-1449
p662
aVOPENEJB-1448
p663
aVOPENEJB-1447
p664
aVOPENEJB-1446
p665
aVOPENEJB-1445
p666
aVOPENEJB-1444
p667
aVOPENEJB-1443
p668
aVOPENEJB-1442
p669
aVOPENEJB-1441
p670
aVOPENEJB-1440
p671
aVOPENEJB-1439
p672
aVOPENEJB-1438
p673
aVOPENEJB-1437
p674
aVOPENEJB-1436
p675
aVOPENEJB-1435
p676
aVOPENEJB-1434
p677
aVOPENEJB-1433
p678
aVOPENEJB-1432
p679
aVOPENEJB-1431
p680
aVOPENEJB-1430
p681
aVOPENEJB-1429
p682
aVOPENEJB-1428
p683
aVOPENEJB-1427
p684
aVOPENEJB-1426
p685
aVOPENEJB-1425
p686
aVOPENEJB-1424
p687
aVOPENEJB-1423
p688
aVOPENEJB-1422
p689
aVOPENEJB-1421
p690
aVOPENEJB-1420
p691
aVOPENEJB-1419
p692
aVOPENEJB-1418
p693
aVOPENEJB-1417
p694
aVOPENEJB-1416
p695
aVOPENEJB-1415
p696
aVOPENEJB-1414
p697
aVOPENEJB-1413
p698
aVOPENEJB-1412
p699
aVOPENEJB-1411
p700
aVOPENEJB-1410
p701
aVOPENEJB-1409
p702
aVOPENEJB-1408
p703
aVOPENEJB-1407
p704
aVOPENEJB-1406
p705
aVOPENEJB-1405
p706
aVOPENEJB-1404
p707
aVOPENEJB-1403
p708
aVOPENEJB-1402
p709
aVOPENEJB-1401
p710
aVOPENEJB-1400
p711
aVOPENEJB-1399
p712
aVOPENEJB-1398
p713
aVOPENEJB-1397
p714
aVOPENEJB-1396
p715
aVOPENEJB-1395
p716
aVOPENEJB-1394
p717
aVOPENEJB-1393
p718
aVOPENEJB-1392
p719
aVOPENEJB-1391
p720
aVOPENEJB-1390
p721
aVOPENEJB-1389
p722
aVOPENEJB-1388
p723
aVOPENEJB-1387
p724
aVOPENEJB-1386
p725
aVOPENEJB-1385
p726
aVOPENEJB-1384
p727
aVOPENEJB-1383
p728
aVOPENEJB-1382
p729
aVOPENEJB-1381
p730
aVOPENEJB-1380
p731
aVOPENEJB-1379
p732
aVOPENEJB-1378
p733
aVOPENEJB-1377
p734
aVOPENEJB-1376
p735
aVOPENEJB-1375
p736
aVOPENEJB-1374
p737
aVOPENEJB-1373
p738
aVOPENEJB-1372
p739
aVOPENEJB-1371
p740
aVOPENEJB-1370
p741
aVOPENEJB-1369
p742
aVOPENEJB-1368
p743
aVOPENEJB-1367
p744
aVOPENEJB-1366
p745
aVOPENEJB-1365
p746
aVOPENEJB-1364
p747
aVOPENEJB-1363
p748
aVOPENEJB-1362
p749
aVOPENEJB-1361
p750
aVOPENEJB-1360
p751
aVOPENEJB-1359
p752
aVOPENEJB-1358
p753
aVOPENEJB-1357
p754
aVOPENEJB-1356
p755
aVOPENEJB-1355
p756
aVOPENEJB-1354
p757
aVOPENEJB-1353
p758
aVOPENEJB-1352
p759
aVOPENEJB-1351
p760
aVOPENEJB-1350
p761
aVOPENEJB-1349
p762
aVOPENEJB-1348
p763
aVOPENEJB-1347
p764
aVOPENEJB-1346
p765
aVOPENEJB-1345
p766
aVOPENEJB-1344
p767
aVOPENEJB-1343
p768
aVOPENEJB-1342
p769
aVOPENEJB-1341
p770
aVOPENEJB-1340
p771
aVOPENEJB-1339
p772
aVOPENEJB-1338
p773
aVOPENEJB-1337
p774
aVOPENEJB-1336
p775
aVOPENEJB-1335
p776
aVOPENEJB-1334
p777
aVOPENEJB-1333
p778
aVOPENEJB-1332
p779
aVOPENEJB-1331
p780
aVOPENEJB-1330
p781
aVOPENEJB-1329
p782
aVOPENEJB-1328
p783
aVOPENEJB-1327
p784
aVOPENEJB-1326
p785
aVOPENEJB-1325
p786
aVOPENEJB-1324
p787
aVOPENEJB-1323
p788
aVOPENEJB-1322
p789
aVOPENEJB-1321
p790
aVOPENEJB-1320
p791
aVOPENEJB-1319
p792
aVOPENEJB-1318
p793
aVOPENEJB-1317
p794
aVOPENEJB-1316
p795
aVOPENEJB-1315
p796
aVOPENEJB-1314
p797
aVOPENEJB-1313
p798
aVOPENEJB-1312
p799
aVOPENEJB-1311
p800
aVOPENEJB-1310
p801
aVOPENEJB-1309
p802
aVOPENEJB-1308
p803
aVOPENEJB-1307
p804
aVOPENEJB-1306
p805
aVOPENEJB-1305
p806
aVOPENEJB-1304
p807
aVOPENEJB-1303
p808
aVOPENEJB-1302
p809
aVOPENEJB-1301
p810
aVOPENEJB-1300
p811
aVOPENEJB-1299
p812
aVOPENEJB-1298
p813
aVOPENEJB-1297
p814
aVOPENEJB-1296
p815
aVOPENEJB-1295
p816
aVOPENEJB-1294
p817
aVOPENEJB-1293
p818
aVOPENEJB-1292
p819
aVOPENEJB-1291
p820
aVOPENEJB-1290
p821
aVOPENEJB-1289
p822
aVOPENEJB-1288
p823
aVOPENEJB-1287
p824
aVOPENEJB-1286
p825
aVOPENEJB-1285
p826
aVOPENEJB-1284
p827
aVOPENEJB-1283
p828
aVOPENEJB-1282
p829
aVOPENEJB-1281
p830
aVOPENEJB-1280
p831
aVOPENEJB-1279
p832
aVOPENEJB-1278
p833
aVOPENEJB-1277
p834
aVOPENEJB-1276
p835
aVOPENEJB-1275
p836
aVOPENEJB-1274
p837
aVOPENEJB-1273
p838
aVOPENEJB-1272
p839
aVOPENEJB-1271
p840
aVOPENEJB-1270
p841
aVOPENEJB-1269
p842
aVOPENEJB-1268
p843
aVOPENEJB-1267
p844
aVOPENEJB-1266
p845
aVOPENEJB-1265
p846
aVOPENEJB-1264
p847
aVOPENEJB-1263
p848
aVOPENEJB-1262
p849
aVOPENEJB-1261
p850
aVOPENEJB-1260
p851
aVOPENEJB-1259
p852
aVOPENEJB-1258
p853
aVOPENEJB-1257
p854
aVOPENEJB-1256
p855
aVOPENEJB-1255
p856
aVOPENEJB-1254
p857
aVOPENEJB-1253
p858
aVOPENEJB-1252
p859
aVOPENEJB-1251
p860
aVOPENEJB-1250
p861
aVOPENEJB-1249
p862
aVOPENEJB-1248
p863
aVOPENEJB-1247
p864
aVOPENEJB-1246
p865
aVOPENEJB-1245
p866
aVOPENEJB-1244
p867
aVOPENEJB-1243
p868
aVOPENEJB-1242
p869
aVOPENEJB-1241
p870
aVOPENEJB-1240
p871
aVOPENEJB-1239
p872
aVOPENEJB-1238
p873
aVOPENEJB-1237
p874
aVOPENEJB-1236
p875
aVOPENEJB-1235
p876
aVOPENEJB-1234
p877
aVOPENEJB-1233
p878
aVOPENEJB-1232
p879
aVOPENEJB-1231
p880
aVOPENEJB-1230
p881
aVOPENEJB-1229
p882
aVOPENEJB-1228
p883
aVOPENEJB-1227
p884
aVOPENEJB-1226
p885
aVOPENEJB-1225
p886
aVOPENEJB-1224
p887
aVOPENEJB-1223
p888
aVOPENEJB-1222
p889
aVOPENEJB-1221
p890
aVOPENEJB-1220
p891
aVOPENEJB-1219
p892
aVOPENEJB-1218
p893
aVOPENEJB-1217
p894
aVOPENEJB-1216
p895
aVOPENEJB-1215
p896
aVOPENEJB-1214
p897
aVOPENEJB-1213
p898
aVOPENEJB-1212
p899
aVOPENEJB-1211
p900
aVOPENEJB-1210
p901
aVOPENEJB-1209
p902
aVOPENEJB-1208
p903
aVOPENEJB-1207
p904
aVOPENEJB-1206
p905
aVOPENEJB-1205
p906
aVOPENEJB-1204
p907
aVOPENEJB-1203
p908
aVOPENEJB-1202
p909
aVOPENEJB-1201
p910
aVOPENEJB-1200
p911
aVOPENEJB-1199
p912
aVOPENEJB-1198
p913
aVOPENEJB-1197
p914
aVOPENEJB-1196
p915
aVOPENEJB-1195
p916
aVOPENEJB-1194
p917
aVOPENEJB-1193
p918
aVOPENEJB-1192
p919
aVOPENEJB-1191
p920
aVOPENEJB-1190
p921
aVOPENEJB-1189
p922
aVOPENEJB-1188
p923
aVOPENEJB-1187
p924
aVOPENEJB-1186
p925
aVOPENEJB-1185
p926
aVOPENEJB-1184
p927
aVOPENEJB-1183
p928
aVOPENEJB-1182
p929
aVOPENEJB-1181
p930
aVOPENEJB-1180
p931
aVOPENEJB-1179
p932
aVOPENEJB-1178
p933
aVOPENEJB-1177
p934
aVOPENEJB-1176
p935
aVOPENEJB-1175
p936
aVOPENEJB-1174
p937
aVOPENEJB-1173
p938
aVOPENEJB-1172
p939
aVOPENEJB-1171
p940
aVOPENEJB-1170
p941
aVOPENEJB-1169
p942
aVOPENEJB-1168
p943
aVOPENEJB-1167
p944
aVOPENEJB-1166
p945
aVOPENEJB-1165
p946
aVOPENEJB-1164
p947
aVOPENEJB-1163
p948
aVOPENEJB-1162
p949
aVOPENEJB-1161
p950
aVOPENEJB-1160
p951
aVOPENEJB-1159
p952
aVOPENEJB-1158
p953
aVOPENEJB-1157
p954
aVOPENEJB-1156
p955
aVOPENEJB-1155
p956
aVOPENEJB-1154
p957
aVOPENEJB-1153
p958
aVOPENEJB-1152
p959
aVOPENEJB-1151
p960
aVOPENEJB-1150
p961
aVOPENEJB-1149
p962
aVOPENEJB-1148
p963
aVOPENEJB-1147
p964
aVOPENEJB-1146
p965
aVOPENEJB-1145
p966
aVOPENEJB-1144
p967
aVOPENEJB-1143
p968
aVOPENEJB-1142
p969
aVOPENEJB-1141
p970
aVOPENEJB-1140
p971
aVOPENEJB-1139
p972
aVOPENEJB-1138
p973
aVOPENEJB-1137
p974
aVOPENEJB-1136
p975
aVOPENEJB-1135
p976
aVOPENEJB-1134
p977
aVOPENEJB-1133
p978
aVOPENEJB-1132
p979
aVOPENEJB-1131
p980
aVOPENEJB-1130
p981
aVOPENEJB-1129
p982
aVOPENEJB-1128
p983
aVOPENEJB-1127
p984
aVOPENEJB-1126
p985
aVOPENEJB-1125
p986
aVOPENEJB-1124
p987
aVOPENEJB-1123
p988
aVOPENEJB-1122
p989
aVOPENEJB-1121
p990
aVOPENEJB-1120
p991
aVOPENEJB-1119
p992
aVOPENEJB-1118
p993
aVOPENEJB-1117
p994
aVOPENEJB-1116
p995
aVOPENEJB-1115
p996
aVOPENEJB-1114
p997
aVOPENEJB-1113
p998
aVOPENEJB-1112
p999
aVOPENEJB-1111
p1000
aVOPENEJB-1110
p1001
aVOPENEJB-1109
p1002
aVOPENEJB-1108
p1003
aVOPENEJB-1107
p1004
aVOPENEJB-1106
p1005
aVOPENEJB-1105
p1006
aVOPENEJB-1104
p1007
aVOPENEJB-1103
p1008
aVOPENEJB-1102
p1009
aVOPENEJB-1101
p1010
aVOPENEJB-1100
p1011
aVOPENEJB-1099
p1012
aVOPENEJB-1098
p1013
aVOPENEJB-1097
p1014
aVOPENEJB-1096
p1015
aVOPENEJB-1095
p1016
aVOPENEJB-1094
p1017
aVOPENEJB-1093
p1018
aVOPENEJB-1092
p1019
aVOPENEJB-1091
p1020
aVOPENEJB-1090
p1021
aVOPENEJB-1089
p1022
aVOPENEJB-1088
p1023
aVOPENEJB-1087
p1024
aVOPENEJB-1086
p1025
aVOPENEJB-1085
p1026
aVOPENEJB-1084
p1027
aVOPENEJB-1083
p1028
aVOPENEJB-1082
p1029
aVOPENEJB-1081
p1030
aVOPENEJB-1080
p1031
aVOPENEJB-1079
p1032
aVOPENEJB-1078
p1033
aVOPENEJB-1077
p1034
aVOPENEJB-1076
p1035
aVOPENEJB-1075
p1036
aVOPENEJB-1074
p1037
aVOPENEJB-1073
p1038
aVOPENEJB-1072
p1039
aVOPENEJB-1071
p1040
aVOPENEJB-1070
p1041
aVOPENEJB-1069
p1042
aVOPENEJB-1068
p1043
aVOPENEJB-1067
p1044
aVOPENEJB-1066
p1045
aVOPENEJB-1065
p1046
aVOPENEJB-1064
p1047
aVOPENEJB-1063
p1048
aVOPENEJB-1062
p1049
aVOPENEJB-1061
p1050
aVOPENEJB-1060
p1051
aVOPENEJB-1059
p1052
aVOPENEJB-1058
p1053
aVOPENEJB-1056
p1054
aVOPENEJB-1055
p1055
aVOPENEJB-1054
p1056
aVOPENEJB-1053
p1057
aVOPENEJB-1052
p1058
aVOPENEJB-1051
p1059
aVOPENEJB-1050
p1060
aVOPENEJB-1049
p1061
aVOPENEJB-1048
p1062
aVOPENEJB-1047
p1063
aVOPENEJB-1046
p1064
aVOPENEJB-1045
p1065
aVOPENEJB-1044
p1066
aVOPENEJB-1043
p1067
aVOPENEJB-1042
p1068
aVOPENEJB-1041
p1069
aVOPENEJB-1040
p1070
aVOPENEJB-1039
p1071
aVOPENEJB-1038
p1072
aVOPENEJB-1037
p1073
aVOPENEJB-1036
p1074
aVOPENEJB-1035
p1075
aVOPENEJB-1034
p1076
aVOPENEJB-1033
p1077
aVOPENEJB-1032
p1078
aVOPENEJB-1031
p1079
aVOPENEJB-1030
p1080
aVOPENEJB-1029
p1081
aVOPENEJB-1028
p1082
aVOPENEJB-1027
p1083
aVOPENEJB-1026
p1084
aVOPENEJB-1025
p1085
aVOPENEJB-1024
p1086
aVOPENEJB-1023
p1087
aVOPENEJB-1022
p1088
aVOPENEJB-1021
p1089
aVOPENEJB-1020
p1090
aVOPENEJB-1019
p1091
aVOPENEJB-1018
p1092
aVOPENEJB-1017
p1093
aVOPENEJB-1016
p1094
aVOPENEJB-1015
p1095
aVOPENEJB-1014
p1096
aVOPENEJB-1013
p1097
aVOPENEJB-1012
p1098
aVOPENEJB-1011
p1099
aVOPENEJB-1010
p1100
aVOPENEJB-1009
p1101
aVOPENEJB-1008
p1102
aVOPENEJB-1007
p1103
aVOPENEJB-1006
p1104
aVOPENEJB-1005
p1105
aVOPENEJB-1004
p1106
aVOPENEJB-1003
p1107
aVOPENEJB-1002
p1108
aVOPENEJB-1001
p1109
aVOPENEJB-999
p1110
aVOPENEJB-998
p1111
aVOPENEJB-997
p1112
aVOPENEJB-996
p1113
aVOPENEJB-995
p1114
aVOPENEJB-994
p1115
aVOPENEJB-993
p1116
aVOPENEJB-992
p1117
aVOPENEJB-991
p1118
aVOPENEJB-990
p1119
aVOPENEJB-989
p1120
aVOPENEJB-988
p1121
aVOPENEJB-987
p1122
aVOPENEJB-986
p1123
aVOPENEJB-985
p1124
aVOPENEJB-984
p1125
aVOPENEJB-983
p1126
aVOPENEJB-982
p1127
aVOPENEJB-981
p1128
aVOPENEJB-980
p1129
aVOPENEJB-979
p1130
aVOPENEJB-978
p1131
aVOPENEJB-977
p1132
aVOPENEJB-976
p1133
aVOPENEJB-975
p1134
aVOPENEJB-974
p1135
aVOPENEJB-973
p1136
aVOPENEJB-972
p1137
aVOPENEJB-971
p1138
aVOPENEJB-970
p1139
aVOPENEJB-969
p1140
aVOPENEJB-968
p1141
aVOPENEJB-967
p1142
aVOPENEJB-966
p1143
aVOPENEJB-965
p1144
aVOPENEJB-964
p1145
aVOPENEJB-963
p1146
aVOPENEJB-962
p1147
aVOPENEJB-961
p1148
aVOPENEJB-960
p1149
aVOPENEJB-959
p1150
aVOPENEJB-958
p1151
aVOPENEJB-956
p1152
aVOPENEJB-955
p1153
aVOPENEJB-954
p1154
aVOPENEJB-953
p1155
aVOPENEJB-952
p1156
aVOPENEJB-951
p1157
aVOPENEJB-950
p1158
aVOPENEJB-948
p1159
aVOPENEJB-947
p1160
aVOPENEJB-946
p1161
aVOPENEJB-945
p1162
aVOPENEJB-944
p1163
aVOPENEJB-943
p1164
aVOPENEJB-942
p1165
aVOPENEJB-941
p1166
aVOPENEJB-940
p1167
aVOPENEJB-939
p1168
aVOPENEJB-938
p1169
aVOPENEJB-937
p1170
aVOPENEJB-936
p1171
aVOPENEJB-935
p1172
aVOPENEJB-934
p1173
aVOPENEJB-933
p1174
aVOPENEJB-932
p1175
aVOPENEJB-931
p1176
aVOPENEJB-930
p1177
aVOPENEJB-929
p1178
aVOPENEJB-928
p1179
aVOPENEJB-927
p1180
aVOPENEJB-926
p1181
aVOPENEJB-925
p1182
aVOPENEJB-924
p1183
aVOPENEJB-923
p1184
aVOPENEJB-922
p1185
aVOPENEJB-921
p1186
aVOPENEJB-920
p1187
aVOPENEJB-919
p1188
aVOPENEJB-918
p1189
aVOPENEJB-917
p1190
aVOPENEJB-916
p1191
aVOPENEJB-915
p1192
aVOPENEJB-914
p1193
aVOPENEJB-913
p1194
aVOPENEJB-912
p1195
aVOPENEJB-911
p1196
aVOPENEJB-908
p1197
aVOPENEJB-907
p1198
aVOPENEJB-906
p1199
aVOPENEJB-905
p1200
aVOPENEJB-904
p1201
aVOPENEJB-903
p1202
aVOPENEJB-902
p1203
aVOPENEJB-901
p1204
aVOPENEJB-900
p1205
aVOPENEJB-899
p1206
aVOPENEJB-898
p1207
aVOPENEJB-897
p1208
aVOPENEJB-896
p1209
aVOPENEJB-895
p1210
aVOPENEJB-894
p1211
aVOPENEJB-893
p1212
aVOPENEJB-892
p1213
aVOPENEJB-891
p1214
aVOPENEJB-890
p1215
aVOPENEJB-889
p1216
aVOPENEJB-888
p1217
aVOPENEJB-887
p1218
aVOPENEJB-881
p1219
aVOPENEJB-880
p1220
aVOPENEJB-877
p1221
aVOPENEJB-874
p1222
aVOPENEJB-873
p1223
aVOPENEJB-872
p1224
aVOPENEJB-871
p1225
aVOPENEJB-868
p1226
aVOPENEJB-865
p1227
aVOPENEJB-863
p1228
aVOPENEJB-862
p1229
aVOPENEJB-861
p1230
aVOPENEJB-860
p1231
aVOPENEJB-859
p1232
aVOPENEJB-858
p1233
aVOPENEJB-857
p1234
aVOPENEJB-856
p1235
aVOPENEJB-855
p1236
aVOPENEJB-854
p1237
aVOPENEJB-853
p1238
aVOPENEJB-852
p1239
aVOPENEJB-851
p1240
aVOPENEJB-850
p1241
aVOPENEJB-849
p1242
aVOPENEJB-848
p1243
aVOPENEJB-847
p1244
aVOPENEJB-846
p1245
aVOPENEJB-845
p1246
aVOPENEJB-844
p1247
aVOPENEJB-843
p1248
aVOPENEJB-842
p1249
aVOPENEJB-841
p1250
aVOPENEJB-840
p1251
aVOPENEJB-839
p1252
aVOPENEJB-838
p1253
aVOPENEJB-837
p1254
aVOPENEJB-836
p1255
aVOPENEJB-835
p1256
aVOPENEJB-834
p1257
aVOPENEJB-833
p1258
aVOPENEJB-832
p1259
aVOPENEJB-831
p1260
aVOPENEJB-829
p1261
aVOPENEJB-828
p1262
aVOPENEJB-827
p1263
aVOPENEJB-826
p1264
aVOPENEJB-825
p1265
aVOPENEJB-824
p1266
aVOPENEJB-823
p1267
aVOPENEJB-822
p1268
aVOPENEJB-821
p1269
aVOPENEJB-820
p1270
aVOPENEJB-818
p1271
aVOPENEJB-817
p1272
aVOPENEJB-816
p1273
aVOPENEJB-815
p1274
aVOPENEJB-814
p1275
aVOPENEJB-813
p1276
aVOPENEJB-812
p1277
aVOPENEJB-811
p1278
aVOPENEJB-810
p1279
aVOPENEJB-809
p1280
aVOPENEJB-808
p1281
aVOPENEJB-807
p1282
aVOPENEJB-806
p1283
aVOPENEJB-805
p1284
aVOPENEJB-804
p1285
aVOPENEJB-803
p1286
aVOPENEJB-802
p1287
aVOPENEJB-801
p1288
aVOPENEJB-800
p1289
aVOPENEJB-799
p1290
aVOPENEJB-798
p1291
aVOPENEJB-797
p1292
aVOPENEJB-796
p1293
aVOPENEJB-795
p1294
aVOPENEJB-794
p1295
aVOPENEJB-793
p1296
aVOPENEJB-792
p1297
aVOPENEJB-791
p1298
aVOPENEJB-790
p1299
aVOPENEJB-789
p1300
aVOPENEJB-788
p1301
aVOPENEJB-787
p1302
aVOPENEJB-786
p1303
aVOPENEJB-785
p1304
aVOPENEJB-784
p1305
aVOPENEJB-783
p1306
aVOPENEJB-782
p1307
aVOPENEJB-781
p1308
aVOPENEJB-780
p1309
aVOPENEJB-779
p1310
aVOPENEJB-778
p1311
aVOPENEJB-777
p1312
aVOPENEJB-776
p1313
aVOPENEJB-775
p1314
aVOPENEJB-774
p1315
aVOPENEJB-773
p1316
aVOPENEJB-772
p1317
aVOPENEJB-771
p1318
aVOPENEJB-770
p1319
aVOPENEJB-769
p1320
aVOPENEJB-768
p1321
aVOPENEJB-767
p1322
aVOPENEJB-766
p1323
aVOPENEJB-765
p1324
aVOPENEJB-764
p1325
aVOPENEJB-763
p1326
aVOPENEJB-762
p1327
aVOPENEJB-761
p1328
aVOPENEJB-760
p1329
aVOPENEJB-759
p1330
aVOPENEJB-758
p1331
aVOPENEJB-757
p1332
aVOPENEJB-756
p1333
aVOPENEJB-755
p1334
aVOPENEJB-754
p1335
aVOPENEJB-753
p1336
aVOPENEJB-752
p1337
aVOPENEJB-751
p1338
aVOPENEJB-750
p1339
aVOPENEJB-749
p1340
aVOPENEJB-748
p1341
aVOPENEJB-747
p1342
aVOPENEJB-746
p1343
aVOPENEJB-745
p1344
aVOPENEJB-744
p1345
aVOPENEJB-743
p1346
aVOPENEJB-742
p1347
aVOPENEJB-741
p1348
aVOPENEJB-740
p1349
aVOPENEJB-739
p1350
aVOPENEJB-738
p1351
aVOPENEJB-737
p1352
aVOPENEJB-736
p1353
aVOPENEJB-735
p1354
aVOPENEJB-734
p1355
aVOPENEJB-733
p1356
aVOPENEJB-732
p1357
aVOPENEJB-731
p1358
aVOPENEJB-730
p1359
aVOPENEJB-729
p1360
aVOPENEJB-728
p1361
aVOPENEJB-726
p1362
aVOPENEJB-725
p1363
aVOPENEJB-724
p1364
aVOPENEJB-723
p1365
aVOPENEJB-722
p1366
aVOPENEJB-721
p1367
aVOPENEJB-720
p1368
aVOPENEJB-719
p1369
aVOPENEJB-718
p1370
aVOPENEJB-717
p1371
aVOPENEJB-716
p1372
aVOPENEJB-715
p1373
aVOPENEJB-714
p1374
aVOPENEJB-713
p1375
aVOPENEJB-712
p1376
aVOPENEJB-711
p1377
aVOPENEJB-710
p1378
aVOPENEJB-709
p1379
aVOPENEJB-708
p1380
aVOPENEJB-707
p1381
aVOPENEJB-706
p1382
aVOPENEJB-705
p1383
aVOPENEJB-704
p1384
aVOPENEJB-703
p1385
aVOPENEJB-702
p1386
aVOPENEJB-701
p1387
aVOPENEJB-700
p1388
aVOPENEJB-699
p1389
aVOPENEJB-698
p1390
aVOPENEJB-697
p1391
aVOPENEJB-696
p1392
aVOPENEJB-695
p1393
aVOPENEJB-694
p1394
aVOPENEJB-693
p1395
aVOPENEJB-692
p1396
aVOPENEJB-691
p1397
aVOPENEJB-690
p1398
aVOPENEJB-689
p1399
aVOPENEJB-688
p1400
aVOPENEJB-686
p1401
aVOPENEJB-685
p1402
aVOPENEJB-684
p1403
aVOPENEJB-683
p1404
aVOPENEJB-682
p1405
aVOPENEJB-681
p1406
aVOPENEJB-680
p1407
aVOPENEJB-679
p1408
aVOPENEJB-678
p1409
aVOPENEJB-677
p1410
aVOPENEJB-676
p1411
aVOPENEJB-675
p1412
aVOPENEJB-673
p1413
aVOPENEJB-672
p1414
aVOPENEJB-671
p1415
aVOPENEJB-670
p1416
aVOPENEJB-669
p1417
aVOPENEJB-668
p1418
aVOPENEJB-667
p1419
aVOPENEJB-666
p1420
aVOPENEJB-665
p1421
aVOPENEJB-664
p1422
aVOPENEJB-663
p1423
aVOPENEJB-662
p1424
aVOPENEJB-661
p1425
aVOPENEJB-660
p1426
aVOPENEJB-659
p1427
aVOPENEJB-658
p1428
aVOPENEJB-657
p1429
aVOPENEJB-656
p1430
aVOPENEJB-655
p1431
aVOPENEJB-654
p1432
aVOPENEJB-653
p1433
aVOPENEJB-652
p1434
aVOPENEJB-651
p1435
aVOPENEJB-650
p1436
aVOPENEJB-649
p1437
aVOPENEJB-648
p1438
aVOPENEJB-647
p1439
aVOPENEJB-646
p1440
aVOPENEJB-645
p1441
aVOPENEJB-644
p1442
aVOPENEJB-643
p1443
aVOPENEJB-642
p1444
aVOPENEJB-641
p1445
aVOPENEJB-640
p1446
aVOPENEJB-639
p1447
aVOPENEJB-638
p1448
aVOPENEJB-637
p1449
aVOPENEJB-636
p1450
aVOPENEJB-635
p1451
aVOPENEJB-634
p1452
aVOPENEJB-633
p1453
aVOPENEJB-632
p1454
aVOPENEJB-631
p1455
aVOPENEJB-630
p1456
aVOPENEJB-629
p1457
aVOPENEJB-628
p1458
aVOPENEJB-627
p1459
aVOPENEJB-626
p1460
aVOPENEJB-625
p1461
aVOPENEJB-624
p1462
aVOPENEJB-623
p1463
aVOPENEJB-622
p1464
aVOPENEJB-621
p1465
aVOPENEJB-620
p1466
aVOPENEJB-619
p1467
aVOPENEJB-617
p1468
aVOPENEJB-616
p1469
aVOPENEJB-615
p1470
aVOPENEJB-614
p1471
aVOPENEJB-613
p1472
aVOPENEJB-612
p1473
aVOPENEJB-611
p1474
aVOPENEJB-610
p1475
aVOPENEJB-609
p1476
aVOPENEJB-608
p1477
aVOPENEJB-607
p1478
aVOPENEJB-606
p1479
aVOPENEJB-605
p1480
aVOPENEJB-604
p1481
aVOPENEJB-603
p1482
aVOPENEJB-602
p1483
aVOPENEJB-601
p1484
aVOPENEJB-600
p1485
aVOPENEJB-599
p1486
aVOPENEJB-598
p1487
aVOPENEJB-597
p1488
aVOPENEJB-596
p1489
aVOPENEJB-595
p1490
aVOPENEJB-594
p1491
aVOPENEJB-593
p1492
aVOPENEJB-592
p1493
aVOPENEJB-591
p1494
aVOPENEJB-590
p1495
aVOPENEJB-589
p1496
aVOPENEJB-588
p1497
aVOPENEJB-587
p1498
aVOPENEJB-586
p1499
aVOPENEJB-585
p1500
aVOPENEJB-584
p1501
aVOPENEJB-583
p1502
aVOPENEJB-582
p1503
aVOPENEJB-581
p1504
aVOPENEJB-580
p1505
aVOPENEJB-579
p1506
aVOPENEJB-578
p1507
aVOPENEJB-577
p1508
aVOPENEJB-576
p1509
aVOPENEJB-575
p1510
aVOPENEJB-574
p1511
aVOPENEJB-573
p1512
aVOPENEJB-572
p1513
aVOPENEJB-571
p1514
aVOPENEJB-570
p1515
aVOPENEJB-569
p1516
aVOPENEJB-568
p1517
aVOPENEJB-567
p1518
aVOPENEJB-566
p1519
aVOPENEJB-565
p1520
aVOPENEJB-564
p1521
aVOPENEJB-563
p1522
aVOPENEJB-562
p1523
aVOPENEJB-561
p1524
aVOPENEJB-560
p1525
aVOPENEJB-559
p1526
aVOPENEJB-558
p1527
aVOPENEJB-557
p1528
aVOPENEJB-556
p1529
aVOPENEJB-555
p1530
aVOPENEJB-554
p1531
aVOPENEJB-553
p1532
aVOPENEJB-552
p1533
aVOPENEJB-551
p1534
aVOPENEJB-550
p1535
aVOPENEJB-549
p1536
aVOPENEJB-548
p1537
aVOPENEJB-547
p1538
aVOPENEJB-546
p1539
aVOPENEJB-545
p1540
aVOPENEJB-544
p1541
aVOPENEJB-543
p1542
aVOPENEJB-542
p1543
aVOPENEJB-541
p1544
aVOPENEJB-540
p1545
aVOPENEJB-539
p1546
aVOPENEJB-538
p1547
aVOPENEJB-537
p1548
aVOPENEJB-536
p1549
aVOPENEJB-535
p1550
aVOPENEJB-534
p1551
aVOPENEJB-533
p1552
aVOPENEJB-532
p1553
aVOPENEJB-531
p1554
aVOPENEJB-530
p1555
aVOPENEJB-529
p1556
aVOPENEJB-528
p1557
aVOPENEJB-527
p1558
aVOPENEJB-526
p1559
aVOPENEJB-524
p1560
aVOPENEJB-523
p1561
aVOPENEJB-522
p1562
aVOPENEJB-521
p1563
aVOPENEJB-520
p1564
aVOPENEJB-519
p1565
aVOPENEJB-515
p1566
aVOPENEJB-514
p1567
aVOPENEJB-513
p1568
aVOPENEJB-473
p1569
aVOPENEJB-472
p1570
aVOPENEJB-471
p1571
aVOPENEJB-470
p1572
aVOPENEJB-469
p1573
aVOPENEJB-468
p1574
aVOPENEJB-467
p1575
aVOPENEJB-466
p1576
aVOPENEJB-465
p1577
aVOPENEJB-464
p1578
aVOPENEJB-463
p1579
aVOPENEJB-462
p1580
aVOPENEJB-461
p1581
aVOPENEJB-460
p1582
aVOPENEJB-459
p1583
aVOPENEJB-458
p1584
aVOPENEJB-457
p1585
aVOPENEJB-456
p1586
aVOPENEJB-455
p1587
aVOPENEJB-454
p1588
aVOPENEJB-453
p1589
aVOPENEJB-452
p1590
aVOPENEJB-451
p1591
aVOPENEJB-450
p1592
aVOPENEJB-449
p1593
aVOPENEJB-448
p1594
aVOPENEJB-447
p1595
aVOPENEJB-446
p1596
aVOPENEJB-445
p1597
aVOPENEJB-444
p1598
aVOPENEJB-443
p1599
aVOPENEJB-442
p1600
aVOPENEJB-441
p1601
aVOPENEJB-440
p1602
aVOPENEJB-439
p1603
aVOPENEJB-438
p1604
aVOPENEJB-437
p1605
aVOPENEJB-436
p1606
aVOPENEJB-435
p1607
aVOPENEJB-434
p1608
aVOPENEJB-433
p1609
aVOPENEJB-432
p1610
aVOPENEJB-431
p1611
aVOPENEJB-430
p1612
aVOPENEJB-429
p1613
aVOPENEJB-428
p1614
aVOPENEJB-427
p1615
aVOPENEJB-426
p1616
aVOPENEJB-425
p1617
aVOPENEJB-424
p1618
aVOPENEJB-423
p1619
aVOPENEJB-422
p1620
aVOPENEJB-421
p1621
aVOPENEJB-420
p1622
aVOPENEJB-419
p1623
aVOPENEJB-418
p1624
aVOPENEJB-417
p1625
aVOPENEJB-416
p1626
aVOPENEJB-415
p1627
aVOPENEJB-414
p1628
aVOPENEJB-413
p1629
aVOPENEJB-412
p1630
aVOPENEJB-411
p1631
aVOPENEJB-410
p1632
aVOPENEJB-409
p1633
aVOPENEJB-408
p1634
aVOPENEJB-407
p1635
aVOPENEJB-406
p1636
aVOPENEJB-405
p1637
aVOPENEJB-404
p1638
aVOPENEJB-403
p1639
aVOPENEJB-402
p1640
aVOPENEJB-401
p1641
aVOPENEJB-400
p1642
aVOPENEJB-399
p1643
aVOPENEJB-398
p1644
aVOPENEJB-397
p1645
aVOPENEJB-396
p1646
aVOPENEJB-395
p1647
aVOPENEJB-394
p1648
aVOPENEJB-393
p1649
aVOPENEJB-392
p1650
aVOPENEJB-391
p1651
aVOPENEJB-390
p1652
aVOPENEJB-389
p1653
aVOPENEJB-388
p1654
aVOPENEJB-387
p1655
aVOPENEJB-385
p1656
aVOPENEJB-384
p1657
aVOPENEJB-383
p1658
aVOPENEJB-382
p1659
aVOPENEJB-381
p1660
aVOPENEJB-380
p1661
aVOPENEJB-379
p1662
aVOPENEJB-378
p1663
aVOPENEJB-377
p1664
aVOPENEJB-376
p1665
aVOPENEJB-375
p1666
aVOPENEJB-374
p1667
aVOPENEJB-373
p1668
aVOPENEJB-371
p1669
aVOPENEJB-370
p1670
aVOPENEJB-369
p1671
aVOPENEJB-368
p1672
aVOPENEJB-367
p1673
aVOPENEJB-366
p1674
aVOPENEJB-365
p1675
aVOPENEJB-364
p1676
aVOPENEJB-363
p1677
aVOPENEJB-362
p1678
aVOPENEJB-361
p1679
aVOPENEJB-360
p1680
aVOPENEJB-359
p1681
aVOPENEJB-358
p1682
aVOPENEJB-357
p1683
aVOPENEJB-356
p1684
aVOPENEJB-355
p1685
aVOPENEJB-354
p1686
aVOPENEJB-353
p1687
aVOPENEJB-352
p1688
aVOPENEJB-351
p1689
aVOPENEJB-350
p1690
aVOPENEJB-349
p1691
aVOPENEJB-348
p1692
aVOPENEJB-347
p1693
aVOPENEJB-346
p1694
aVOPENEJB-345
p1695
aVOPENEJB-344
p1696
aVOPENEJB-343
p1697
aVOPENEJB-342
p1698
aVOPENEJB-341
p1699
aVOPENEJB-340
p1700
aVOPENEJB-339
p1701
aVOPENEJB-338
p1702
aVOPENEJB-337
p1703
aVOPENEJB-336
p1704
aVOPENEJB-335
p1705
aVOPENEJB-334
p1706
aVOPENEJB-333
p1707
aVOPENEJB-332
p1708
aVOPENEJB-331
p1709
aVOPENEJB-330
p1710
aVOPENEJB-329
p1711
aVOPENEJB-328
p1712
aVOPENEJB-327
p1713
aVOPENEJB-326
p1714
aVOPENEJB-325
p1715
aVOPENEJB-324
p1716
aVOPENEJB-323
p1717
aVOPENEJB-322
p1718
aVOPENEJB-321
p1719
aVOPENEJB-320
p1720
aVOPENEJB-319
p1721
aVOPENEJB-318
p1722
aVOPENEJB-317
p1723
aVOPENEJB-316
p1724
aVOPENEJB-315
p1725
aVOPENEJB-314
p1726
aVOPENEJB-313
p1727
aVOPENEJB-312
p1728
aVOPENEJB-311
p1729
aVOPENEJB-310
p1730
aVOPENEJB-309
p1731
aVOPENEJB-308
p1732
aVOPENEJB-307
p1733
aVOPENEJB-306
p1734
aVOPENEJB-305
p1735
aVOPENEJB-304
p1736
aVOPENEJB-303
p1737
aVOPENEJB-302
p1738
aVOPENEJB-301
p1739
aVOPENEJB-300
p1740
aVOPENEJB-299
p1741
aVOPENEJB-298
p1742
aVOPENEJB-297
p1743
aVOPENEJB-296
p1744
aVOPENEJB-295
p1745
aVOPENEJB-294
p1746
aVOPENEJB-293
p1747
aVOPENEJB-292
p1748
aVOPENEJB-291
p1749
aVOPENEJB-290
p1750
aVOPENEJB-289
p1751
aVOPENEJB-288
p1752
aVOPENEJB-287
p1753
aVOPENEJB-286
p1754
aVOPENEJB-285
p1755
aVOPENEJB-284
p1756
aVOPENEJB-283
p1757
aVOPENEJB-282
p1758
aVOPENEJB-281
p1759
aVOPENEJB-280
p1760
aVOPENEJB-279
p1761
aVOPENEJB-278
p1762
aVOPENEJB-277
p1763
aVOPENEJB-276
p1764
aVOPENEJB-275
p1765
aVOPENEJB-274
p1766
aVOPENEJB-273
p1767
aVOPENEJB-272
p1768
aVOPENEJB-271
p1769
aVOPENEJB-268
p1770
aVOPENEJB-267
p1771
aVOPENEJB-266
p1772
aVOPENEJB-265
p1773
aVOPENEJB-264
p1774
aVOPENEJB-263
p1775
aVOPENEJB-262
p1776
aVOPENEJB-261
p1777
aVOPENEJB-260
p1778
aVOPENEJB-259
p1779
aVOPENEJB-258
p1780
aVOPENEJB-257
p1781
aVOPENEJB-256
p1782
aVOPENEJB-255
p1783
aVOPENEJB-253
p1784
aVOPENEJB-252
p1785
aVOPENEJB-251
p1786
aVOPENEJB-250
p1787
aVOPENEJB-249
p1788
aVOPENEJB-248
p1789
aVOPENEJB-247
p1790
aVOPENEJB-246
p1791
aVOPENEJB-245
p1792
aVOPENEJB-244
p1793
aVOPENEJB-243
p1794
aVOPENEJB-242
p1795
aVOPENEJB-241
p1796
aVOPENEJB-240
p1797
aVOPENEJB-239
p1798
aVOPENEJB-238
p1799
aVOPENEJB-237
p1800
aVOPENEJB-236
p1801
aVOPENEJB-235
p1802
aVOPENEJB-234
p1803
aVOPENEJB-233
p1804
aVOPENEJB-232
p1805
aVOPENEJB-231
p1806
aVOPENEJB-230
p1807
aVOPENEJB-229
p1808
aVOPENEJB-228
p1809
aVOPENEJB-227
p1810
aVOPENEJB-226
p1811
aVOPENEJB-225
p1812
aVOPENEJB-224
p1813
aVOPENEJB-223
p1814
aVOPENEJB-222
p1815
aVOPENEJB-221
p1816
aVOPENEJB-216
p1817
aVOPENEJB-215
p1818
aVOPENEJB-214
p1819
aVOPENEJB-213
p1820
aVOPENEJB-212
p1821
aVOPENEJB-211
p1822
aVOPENEJB-210
p1823
aVOPENEJB-209
p1824
aVOPENEJB-208
p1825
aVOPENEJB-207
p1826
aVOPENEJB-206
p1827
aVOPENEJB-205
p1828
aVOPENEJB-204
p1829
aVOPENEJB-203
p1830
aVOPENEJB-202
p1831
aVOPENEJB-201
p1832
aVOPENEJB-200
p1833
aVOPENEJB-199
p1834
aVOPENEJB-198
p1835
aVOPENEJB-197
p1836
aVOPENEJB-196
p1837
aVOPENEJB-195
p1838
aVOPENEJB-194
p1839
aVOPENEJB-193
p1840
aVOPENEJB-192
p1841
aVOPENEJB-191
p1842
aVOPENEJB-190
p1843
aVOPENEJB-189
p1844
aVOPENEJB-188
p1845
aVOPENEJB-187
p1846
aVOPENEJB-186
p1847
aVOPENEJB-185
p1848
aVOPENEJB-184
p1849
aVOPENEJB-183
p1850
aVOPENEJB-182
p1851
aVOPENEJB-181
p1852
aVOPENEJB-180
p1853
aVOPENEJB-179
p1854
aVOPENEJB-178
p1855
aVOPENEJB-177
p1856
aVOPENEJB-176
p1857
aVOPENEJB-175
p1858
aVOPENEJB-174
p1859
aVOPENEJB-173
p1860
aVOPENEJB-172
p1861
aVOPENEJB-171
p1862
aVOPENEJB-170
p1863
aVOPENEJB-169
p1864
aVOPENEJB-168
p1865
aVOPENEJB-167
p1866
aVOPENEJB-166
p1867
aVOPENEJB-165
p1868
aVOPENEJB-164
p1869
aVOPENEJB-163
p1870
aVOPENEJB-162
p1871
aVOPENEJB-161
p1872
aVOPENEJB-160
p1873
aVOPENEJB-159
p1874
aVOPENEJB-158
p1875
aVOPENEJB-157
p1876
aVOPENEJB-156
p1877
aVOPENEJB-155
p1878
aVOPENEJB-154
p1879
aVOPENEJB-153
p1880
aVOPENEJB-152
p1881
aVOPENEJB-151
p1882
aVOPENEJB-150
p1883
aVOPENEJB-149
p1884
aVOPENEJB-148
p1885
aVOPENEJB-147
p1886
aVOPENEJB-146
p1887
aVOPENEJB-145
p1888
aVOPENEJB-142
p1889
aVOPENEJB-141
p1890
aVOPENEJB-140
p1891
aVOPENEJB-139
p1892
aVOPENEJB-138
p1893
aVOPENEJB-137
p1894
aVOPENEJB-136
p1895
aVOPENEJB-135
p1896
aVOPENEJB-134
p1897
aVOPENEJB-133
p1898
aVOPENEJB-132
p1899
aVOPENEJB-131
p1900
aVOPENEJB-130
p1901
aVOPENEJB-129
p1902
aVOPENEJB-128
p1903
aVOPENEJB-127
p1904
aVOPENEJB-126
p1905
aVOPENEJB-125
p1906
aVOPENEJB-124
p1907
aVOPENEJB-123
p1908
aVOPENEJB-122
p1909
aVOPENEJB-121
p1910
aVOPENEJB-120
p1911
aVOPENEJB-119
p1912
aVOPENEJB-118
p1913
aVOPENEJB-117
p1914
aVOPENEJB-116
p1915
aVOPENEJB-115
p1916
aVOPENEJB-114
p1917
aVOPENEJB-113
p1918
aVOPENEJB-112
p1919
aVOPENEJB-111
p1920
aVOPENEJB-110
p1921
aVOPENEJB-109
p1922
aVOPENEJB-108
p1923
aVOPENEJB-107
p1924
aVOPENEJB-106
p1925
aVOPENEJB-105
p1926
aVOPENEJB-104
p1927
aVOPENEJB-103
p1928
aVOPENEJB-102
p1929
aVOPENEJB-101
p1930
aVOPENEJB-100
p1931
aVOPENEJB-99
p1932
aVOPENEJB-98
p1933
aVOPENEJB-97
p1934
aVOPENEJB-96
p1935
aVOPENEJB-95
p1936
aVOPENEJB-94
p1937
aVOPENEJB-93
p1938
aVOPENEJB-92
p1939
aVOPENEJB-91
p1940
aVOPENEJB-90
p1941
aVOPENEJB-89
p1942
aVOPENEJB-88
p1943
aVOPENEJB-87
p1944
aVOPENEJB-86
p1945
aVOPENEJB-85
p1946
aVOPENEJB-84
p1947
aVOPENEJB-83
p1948
aVOPENEJB-82
p1949
aVOPENEJB-81
p1950
aVOPENEJB-80
p1951
aVOPENEJB-79
p1952
aVOPENEJB-78
p1953
aVOPENEJB-77
p1954
aVOPENEJB-76
p1955
aVOPENEJB-75
p1956
aVOPENEJB-74
p1957
aVOPENEJB-73
p1958
aVOPENEJB-72
p1959
aVOPENEJB-71
p1960
aVOPENEJB-70
p1961
aVOPENEJB-69
p1962
aVOPENEJB-68
p1963
aVOPENEJB-67
p1964
aVOPENEJB-66
p1965
aVOPENEJB-65
p1966
aVOPENEJB-64
p1967
aVOPENEJB-63
p1968
aVOPENEJB-62
p1969
aVOPENEJB-61
p1970
aVOPENEJB-60
p1971
aVOPENEJB-59
p1972
aVOPENEJB-58
p1973
aVOPENEJB-57
p1974
aVOPENEJB-56
p1975
aVOPENEJB-55
p1976
aVOPENEJB-54
p1977
aVOPENEJB-53
p1978
aVOPENEJB-52
p1979
aVOPENEJB-51
p1980
aVOPENEJB-50
p1981
aVOPENEJB-49
p1982
aVOPENEJB-48
p1983
aVOPENEJB-47
p1984
aVOPENEJB-46
p1985
aVOPENEJB-45
p1986
aVOPENEJB-44
p1987
aVOPENEJB-43
p1988
aVOPENEJB-42
p1989
aVOPENEJB-41
p1990
aVOPENEJB-40
p1991
aVOPENEJB-39
p1992
aVOPENEJB-38
p1993
aVOPENEJB-37
p1994
aVOPENEJB-36
p1995
aVOPENEJB-35
p1996
aVOPENEJB-34
p1997
aVOPENEJB-33
p1998
aVOPENEJB-32
p1999
aVOPENEJB-31
p2000
aVOPENEJB-30
p2001
aVOPENEJB-29
p2002
aVOPENEJB-28
p2003
aVOPENEJB-27
p2004
aVOPENEJB-26
p2005
aVOPENEJB-25
p2006
aVOPENEJB-24
p2007
aVOPENEJB-23
p2008
aVOPENEJB-22
p2009
aVOPENEJB-21
p2010
aVOPENEJB-20
p2011
aVOPENEJB-19
p2012
aVOPENEJB-18
p2013
aVOPENEJB-17
p2014
aVOPENEJB-16
p2015
aVOPENEJB-15
p2016
aVOPENEJB-14
p2017
aVOPENEJB-13
p2018
aVOPENEJB-12
p2019
aVOPENEJB-11
p2020
aVOPENEJB-10
p2021
aVOPENEJB-9
p2022
aVOPENEJB-8
p2023
aVOPENEJB-7
p2024
aVOPENEJB-6
p2025
aVOPENEJB-5
p2026
aVOPENEJB-4
p2027
aVOPENEJB-3
p2028
aVOPENEJB-2
p2029
aVOPENEJB-1
p2030
a.