(lp0
VOWB-1250
p1
aVOWB-1249
p2
aVOWB-1248
p3
aVOWB-1247
p4
aVOWB-1246
p5
aVOWB-1245
p6
aVOWB-1244
p7
aVOWB-1243
p8
aVOWB-1242
p9
aVOWB-1241
p10
aVOWB-1240
p11
aVOWB-1239
p12
aVOWB-1238
p13
aVOWB-1237
p14
aVOWB-1236
p15
aVOWB-1235
p16
aVOWB-1234
p17
aVOWB-1233
p18
aVOWB-1232
p19
aVOWB-1231
p20
aVOWB-1230
p21
aVOWB-1229
p22
aVOWB-1228
p23
aVOWB-1227
p24
aVOWB-1226
p25
aVOWB-1225
p26
aVOWB-1224
p27
aVOWB-1223
p28
aVOWB-1222
p29
aVOWB-1221
p30
aVOWB-1220
p31
aVOWB-1219
p32
aVOWB-1218
p33
aVOWB-1217
p34
aVOWB-1216
p35
aVOWB-1215
p36
aVOWB-1214
p37
aVOWB-1213
p38
aVOWB-1212
p39
aVOWB-1211
p40
aVOWB-1210
p41
aVOWB-1209
p42
aVOWB-1208
p43
aVOWB-1207
p44
aVOWB-1206
p45
aVOWB-1205
p46
aVOWB-1204
p47
aVOWB-1203
p48
aVOWB-1202
p49
aVOWB-1201
p50
aVOWB-1200
p51
aVOWB-1199
p52
aVOWB-1197
p53
aVOWB-1196
p54
aVOWB-1195
p55
aVOWB-1194
p56
aVOWB-1193
p57
aVOWB-1192
p58
aVOWB-1191
p59
aVOWB-1190
p60
aVOWB-1189
p61
aVOWB-1188
p62
aVOWB-1187
p63
aVOWB-1186
p64
aVOWB-1185
p65
aVOWB-1184
p66
aVOWB-1183
p67
aVOWB-1182
p68
aVOWB-1181
p69
aVOWB-1180
p70
aVOWB-1179
p71
aVOWB-1178
p72
aVOWB-1177
p73
aVOWB-1176
p74
aVOWB-1175
p75
aVOWB-1174
p76
aVOWB-1173
p77
aVOWB-1172
p78
aVOWB-1171
p79
aVOWB-1170
p80
aVOWB-1169
p81
aVOWB-1168
p82
aVOWB-1167
p83
aVOWB-1166
p84
aVOWB-1165
p85
aVOWB-1164
p86
aVOWB-1163
p87
aVOWB-1162
p88
aVOWB-1161
p89
aVOWB-1160
p90
aVOWB-1159
p91
aVOWB-1158
p92
aVOWB-1157
p93
aVOWB-1156
p94
aVOWB-1155
p95
aVOWB-1154
p96
aVOWB-1153
p97
aVOWB-1152
p98
aVOWB-1151
p99
aVOWB-1150
p100
aVOWB-1149
p101
aVOWB-1148
p102
aVOWB-1147
p103
aVOWB-1146
p104
aVOWB-1145
p105
aVOWB-1144
p106
aVOWB-1143
p107
aVOWB-1142
p108
aVOWB-1141
p109
aVOWB-1140
p110
aVOWB-1139
p111
aVOWB-1138
p112
aVOWB-1137
p113
aVOWB-1136
p114
aVOWB-1135
p115
aVOWB-1134
p116
aVOWB-1133
p117
aVOWB-1131
p118
aVOWB-1130
p119
aVOWB-1129
p120
aVOWB-1128
p121
aVOWB-1127
p122
aVOWB-1126
p123
aVOWB-1125
p124
aVOWB-1124
p125
aVOWB-1123
p126
aVOWB-1122
p127
aVOWB-1121
p128
aVOWB-1120
p129
aVOWB-1119
p130
aVOWB-1118
p131
aVOWB-1117
p132
aVOWB-1116
p133
aVOWB-1115
p134
aVOWB-1114
p135
aVOWB-1113
p136
aVOWB-1112
p137
aVOWB-1111
p138
aVOWB-1110
p139
aVOWB-1109
p140
aVOWB-1108
p141
aVOWB-1107
p142
aVOWB-1106
p143
aVOWB-1105
p144
aVOWB-1104
p145
aVOWB-1103
p146
aVOWB-1102
p147
aVOWB-1101
p148
aVOWB-1100
p149
aVOWB-1099
p150
aVOWB-1098
p151
aVOWB-1097
p152
aVOWB-1096
p153
aVOWB-1095
p154
aVOWB-1094
p155
aVOWB-1093
p156
aVOWB-1092
p157
aVOWB-1091
p158
aVOWB-1090
p159
aVOWB-1089
p160
aVOWB-1088
p161
aVOWB-1087
p162
aVOWB-1086
p163
aVOWB-1085
p164
aVOWB-1084
p165
aVOWB-1083
p166
aVOWB-1082
p167
aVOWB-1081
p168
aVOWB-1080
p169
aVOWB-1079
p170
aVOWB-1078
p171
aVOWB-1077
p172
aVOWB-1076
p173
aVOWB-1075
p174
aVOWB-1074
p175
aVOWB-1073
p176
aVOWB-1072
p177
aVOWB-1071
p178
aVOWB-1070
p179
aVOWB-1069
p180
aVOWB-1068
p181
aVOWB-1067
p182
aVOWB-1066
p183
aVOWB-1065
p184
aVOWB-1064
p185
aVOWB-1063
p186
aVOWB-1062
p187
aVOWB-1061
p188
aVOWB-1060
p189
aVOWB-1059
p190
aVOWB-1058
p191
aVOWB-1057
p192
aVOWB-1056
p193
aVOWB-1055
p194
aVOWB-1054
p195
aVOWB-1053
p196
aVOWB-1052
p197
aVOWB-1051
p198
aVOWB-1050
p199
aVOWB-1049
p200
aVOWB-1048
p201
aVOWB-1047
p202
aVOWB-1046
p203
aVOWB-1045
p204
aVOWB-1044
p205
aVOWB-1043
p206
aVOWB-1042
p207
aVOWB-1041
p208
aVOWB-1040
p209
aVOWB-1039
p210
aVOWB-1038
p211
aVOWB-1037
p212
aVOWB-1036
p213
aVOWB-1035
p214
aVOWB-1034
p215
aVOWB-1033
p216
aVOWB-1032
p217
aVOWB-1031
p218
aVOWB-1030
p219
aVOWB-1029
p220
aVOWB-1028
p221
aVOWB-1027
p222
aVOWB-1026
p223
aVOWB-1025
p224
aVOWB-1024
p225
aVOWB-1023
p226
aVOWB-1022
p227
aVOWB-1021
p228
aVOWB-1020
p229
aVOWB-1019
p230
aVOWB-1018
p231
aVOWB-1017
p232
aVOWB-1016
p233
aVOWB-1015
p234
aVOWB-1014
p235
aVOWB-1013
p236
aVOWB-1012
p237
aVOWB-1011
p238
aVOWB-1010
p239
aVOWB-1009
p240
aVOWB-1008
p241
aVOWB-1007
p242
aVOWB-1006
p243
aVOWB-1005
p244
aVOWB-1004
p245
aVOWB-1003
p246
aVOWB-1002
p247
aVOWB-1001
p248
aVOWB-1000
p249
aVOWB-999
p250
aVOWB-998
p251
aVOWB-997
p252
aVOWB-996
p253
aVOWB-995
p254
aVOWB-994
p255
aVOWB-993
p256
aVOWB-992
p257
aVOWB-991
p258
aVOWB-990
p259
aVOWB-989
p260
aVOWB-988
p261
aVOWB-987
p262
aVOWB-986
p263
aVOWB-985
p264
aVOWB-984
p265
aVOWB-983
p266
aVOWB-982
p267
aVOWB-981
p268
aVOWB-980
p269
aVOWB-979
p270
aVOWB-978
p271
aVOWB-977
p272
aVOWB-976
p273
aVOWB-975
p274
aVOWB-974
p275
aVOWB-973
p276
aVOWB-972
p277
aVOWB-971
p278
aVOWB-970
p279
aVOWB-969
p280
aVOWB-968
p281
aVOWB-967
p282
aVOWB-966
p283
aVOWB-965
p284
aVOWB-964
p285
aVOWB-963
p286
aVOWB-962
p287
aVOWB-961
p288
aVOWB-960
p289
aVOWB-959
p290
aVOWB-958
p291
aVOWB-957
p292
aVOWB-956
p293
aVOWB-955
p294
aVOWB-954
p295
aVOWB-953
p296
aVOWB-952
p297
aVOWB-951
p298
aVOWB-950
p299
aVOWB-949
p300
aVOWB-948
p301
aVOWB-947
p302
aVOWB-946
p303
aVOWB-945
p304
aVOWB-944
p305
aVOWB-943
p306
aVOWB-942
p307
aVOWB-941
p308
aVOWB-940
p309
aVOWB-939
p310
aVOWB-938
p311
aVOWB-937
p312
aVOWB-936
p313
aVOWB-935
p314
aVOWB-934
p315
aVOWB-933
p316
aVOWB-932
p317
aVOWB-931
p318
aVOWB-930
p319
aVOWB-929
p320
aVOWB-928
p321
aVOWB-927
p322
aVOWB-926
p323
aVOWB-925
p324
aVOWB-924
p325
aVOWB-923
p326
aVOWB-922
p327
aVOWB-921
p328
aVOWB-920
p329
aVOWB-919
p330
aVOWB-918
p331
aVOWB-917
p332
aVOWB-916
p333
aVOWB-915
p334
aVOWB-914
p335
aVOWB-913
p336
aVOWB-912
p337
aVOWB-911
p338
aVOWB-910
p339
aVOWB-909
p340
aVOWB-908
p341
aVOWB-907
p342
aVOWB-906
p343
aVOWB-905
p344
aVOWB-904
p345
aVOWB-902
p346
aVOWB-901
p347
aVOWB-900
p348
aVOWB-899
p349
aVOWB-898
p350
aVOWB-897
p351
aVOWB-896
p352
aVOWB-895
p353
aVOWB-894
p354
aVOWB-893
p355
aVOWB-892
p356
aVOWB-891
p357
aVOWB-890
p358
aVOWB-889
p359
aVOWB-888
p360
aVOWB-887
p361
aVOWB-886
p362
aVOWB-885
p363
aVOWB-884
p364
aVOWB-883
p365
aVOWB-882
p366
aVOWB-881
p367
aVOWB-880
p368
aVOWB-879
p369
aVOWB-878
p370
aVOWB-877
p371
aVOWB-876
p372
aVOWB-875
p373
aVOWB-874
p374
aVOWB-873
p375
aVOWB-872
p376
aVOWB-871
p377
aVOWB-870
p378
aVOWB-869
p379
aVOWB-868
p380
aVOWB-867
p381
aVOWB-866
p382
aVOWB-865
p383
aVOWB-864
p384
aVOWB-863
p385
aVOWB-862
p386
aVOWB-861
p387
aVOWB-860
p388
aVOWB-859
p389
aVOWB-858
p390
aVOWB-857
p391
aVOWB-856
p392
aVOWB-855
p393
aVOWB-854
p394
aVOWB-853
p395
aVOWB-852
p396
aVOWB-851
p397
aVOWB-850
p398
aVOWB-849
p399
aVOWB-848
p400
aVOWB-847
p401
aVOWB-846
p402
aVOWB-845
p403
aVOWB-844
p404
aVOWB-843
p405
aVOWB-842
p406
aVOWB-841
p407
aVOWB-840
p408
aVOWB-839
p409
aVOWB-838
p410
aVOWB-837
p411
aVOWB-836
p412
aVOWB-835
p413
aVOWB-834
p414
aVOWB-833
p415
aVOWB-832
p416
aVOWB-831
p417
aVOWB-830
p418
aVOWB-829
p419
aVOWB-828
p420
aVOWB-827
p421
aVOWB-826
p422
aVOWB-825
p423
aVOWB-824
p424
aVOWB-823
p425
aVOWB-822
p426
aVOWB-821
p427
aVOWB-820
p428
aVOWB-819
p429
aVOWB-818
p430
aVOWB-817
p431
aVOWB-816
p432
aVOWB-815
p433
aVOWB-814
p434
aVOWB-813
p435
aVOWB-812
p436
aVOWB-811
p437
aVOWB-810
p438
aVOWB-809
p439
aVOWB-808
p440
aVOWB-807
p441
aVOWB-806
p442
aVOWB-805
p443
aVOWB-804
p444
aVOWB-803
p445
aVOWB-802
p446
aVOWB-801
p447
aVOWB-800
p448
aVOWB-799
p449
aVOWB-798
p450
aVOWB-797
p451
aVOWB-796
p452
aVOWB-795
p453
aVOWB-794
p454
aVOWB-793
p455
aVOWB-792
p456
aVOWB-791
p457
aVOWB-790
p458
aVOWB-789
p459
aVOWB-788
p460
aVOWB-787
p461
aVOWB-786
p462
aVOWB-785
p463
aVOWB-784
p464
aVOWB-783
p465
aVOWB-782
p466
aVOWB-781
p467
aVOWB-780
p468
aVOWB-779
p469
aVOWB-778
p470
aVOWB-777
p471
aVOWB-776
p472
aVOWB-775
p473
aVOWB-774
p474
aVOWB-773
p475
aVOWB-772
p476
aVOWB-771
p477
aVOWB-770
p478
aVOWB-769
p479
aVOWB-768
p480
aVOWB-767
p481
aVOWB-766
p482
aVOWB-765
p483
aVOWB-764
p484
aVOWB-763
p485
aVOWB-762
p486
aVOWB-761
p487
aVOWB-760
p488
aVOWB-759
p489
aVOWB-758
p490
aVOWB-757
p491
aVOWB-756
p492
aVOWB-755
p493
aVOWB-754
p494
aVOWB-753
p495
aVOWB-752
p496
aVOWB-751
p497
aVOWB-750
p498
aVOWB-749
p499
aVOWB-748
p500
aVOWB-747
p501
aVOWB-746
p502
aVOWB-745
p503
aVOWB-744
p504
aVOWB-743
p505
aVOWB-742
p506
aVOWB-741
p507
aVOWB-740
p508
aVOWB-739
p509
aVOWB-738
p510
aVOWB-737
p511
aVOWB-736
p512
aVOWB-735
p513
aVOWB-734
p514
aVOWB-733
p515
aVOWB-732
p516
aVOWB-731
p517
aVOWB-730
p518
aVOWB-729
p519
aVOWB-728
p520
aVOWB-727
p521
aVOWB-726
p522
aVOWB-725
p523
aVOWB-724
p524
aVOWB-723
p525
aVOWB-722
p526
aVOWB-721
p527
aVOWB-720
p528
aVOWB-719
p529
aVOWB-718
p530
aVOWB-717
p531
aVOWB-715
p532
aVOWB-714
p533
aVOWB-713
p534
aVOWB-712
p535
aVOWB-711
p536
aVOWB-710
p537
aVOWB-709
p538
aVOWB-708
p539
aVOWB-707
p540
aVOWB-706
p541
aVOWB-705
p542
aVOWB-704
p543
aVOWB-703
p544
aVOWB-702
p545
aVOWB-701
p546
aVOWB-700
p547
aVOWB-699
p548
aVOWB-698
p549
aVOWB-697
p550
aVOWB-696
p551
aVOWB-695
p552
aVOWB-694
p553
aVOWB-693
p554
aVOWB-692
p555
aVOWB-691
p556
aVOWB-690
p557
aVOWB-689
p558
aVOWB-688
p559
aVOWB-687
p560
aVOWB-686
p561
aVOWB-685
p562
aVOWB-684
p563
aVOWB-683
p564
aVOWB-682
p565
aVOWB-681
p566
aVOWB-680
p567
aVOWB-679
p568
aVOWB-678
p569
aVOWB-677
p570
aVOWB-676
p571
aVOWB-675
p572
aVOWB-674
p573
aVOWB-673
p574
aVOWB-672
p575
aVOWB-671
p576
aVOWB-670
p577
aVOWB-669
p578
aVOWB-668
p579
aVOWB-667
p580
aVOWB-666
p581
aVOWB-665
p582
aVOWB-664
p583
aVOWB-663
p584
aVOWB-662
p585
aVOWB-661
p586
aVOWB-660
p587
aVOWB-659
p588
aVOWB-658
p589
aVOWB-657
p590
aVOWB-656
p591
aVOWB-655
p592
aVOWB-654
p593
aVOWB-653
p594
aVOWB-652
p595
aVOWB-651
p596
aVOWB-650
p597
aVOWB-649
p598
aVOWB-648
p599
aVOWB-647
p600
aVOWB-646
p601
aVOWB-645
p602
aVOWB-644
p603
aVOWB-643
p604
aVOWB-642
p605
aVOWB-641
p606
aVOWB-640
p607
aVOWB-639
p608
aVOWB-638
p609
aVOWB-637
p610
aVOWB-636
p611
aVOWB-635
p612
aVOWB-634
p613
aVOWB-633
p614
aVOWB-632
p615
aVOWB-631
p616
aVOWB-630
p617
aVOWB-629
p618
aVOWB-628
p619
aVOWB-627
p620
aVOWB-626
p621
aVOWB-625
p622
aVOWB-624
p623
aVOWB-623
p624
aVOWB-622
p625
aVOWB-621
p626
aVOWB-620
p627
aVOWB-619
p628
aVOWB-618
p629
aVOWB-617
p630
aVOWB-616
p631
aVOWB-615
p632
aVOWB-614
p633
aVOWB-613
p634
aVOWB-612
p635
aVOWB-611
p636
aVOWB-610
p637
aVOWB-609
p638
aVOWB-608
p639
aVOWB-607
p640
aVOWB-606
p641
aVOWB-605
p642
aVOWB-604
p643
aVOWB-603
p644
aVOWB-602
p645
aVOWB-601
p646
aVOWB-600
p647
aVOWB-599
p648
aVOWB-598
p649
aVOWB-597
p650
aVOWB-596
p651
aVOWB-595
p652
aVOWB-594
p653
aVOWB-593
p654
aVOWB-592
p655
aVOWB-591
p656
aVOWB-590
p657
aVOWB-589
p658
aVOWB-588
p659
aVOWB-587
p660
aVOWB-586
p661
aVOWB-585
p662
aVOWB-584
p663
aVOWB-583
p664
aVOWB-582
p665
aVOWB-581
p666
aVOWB-580
p667
aVOWB-579
p668
aVOWB-578
p669
aVOWB-577
p670
aVOWB-576
p671
aVOWB-575
p672
aVOWB-574
p673
aVOWB-573
p674
aVOWB-572
p675
aVOWB-571
p676
aVOWB-570
p677
aVOWB-569
p678
aVOWB-568
p679
aVOWB-567
p680
aVOWB-566
p681
aVOWB-565
p682
aVOWB-564
p683
aVOWB-563
p684
aVOWB-562
p685
aVOWB-561
p686
aVOWB-560
p687
aVOWB-559
p688
aVOWB-558
p689
aVOWB-557
p690
aVOWB-556
p691
aVOWB-555
p692
aVOWB-554
p693
aVOWB-553
p694
aVOWB-552
p695
aVOWB-551
p696
aVOWB-550
p697
aVOWB-549
p698
aVOWB-548
p699
aVOWB-547
p700
aVOWB-546
p701
aVOWB-545
p702
aVOWB-544
p703
aVOWB-543
p704
aVOWB-542
p705
aVOWB-541
p706
aVOWB-540
p707
aVOWB-539
p708
aVOWB-538
p709
aVOWB-537
p710
aVOWB-536
p711
aVOWB-535
p712
aVOWB-534
p713
aVOWB-533
p714
aVOWB-532
p715
aVOWB-531
p716
aVOWB-530
p717
aVOWB-529
p718
aVOWB-528
p719
aVOWB-527
p720
aVOWB-526
p721
aVOWB-525
p722
aVOWB-524
p723
aVOWB-523
p724
aVOWB-522
p725
aVOWB-521
p726
aVOWB-520
p727
aVOWB-519
p728
aVOWB-518
p729
aVOWB-517
p730
aVOWB-516
p731
aVOWB-515
p732
aVOWB-514
p733
aVOWB-513
p734
aVOWB-512
p735
aVOWB-511
p736
aVOWB-510
p737
aVOWB-509
p738
aVOWB-508
p739
aVOWB-507
p740
aVOWB-506
p741
aVOWB-505
p742
aVOWB-504
p743
aVOWB-503
p744
aVOWB-502
p745
aVOWB-501
p746
aVOWB-500
p747
aVOWB-499
p748
aVOWB-498
p749
aVOWB-497
p750
aVOWB-496
p751
aVOWB-495
p752
aVOWB-494
p753
aVOWB-493
p754
aVOWB-492
p755
aVOWB-491
p756
aVOWB-490
p757
aVOWB-489
p758
aVOWB-488
p759
aVOWB-487
p760
aVOWB-486
p761
aVOWB-485
p762
aVOWB-484
p763
aVOWB-483
p764
aVOWB-482
p765
aVOWB-481
p766
aVOWB-480
p767
aVOWB-479
p768
aVOWB-478
p769
aVOWB-477
p770
aVOWB-476
p771
aVOWB-475
p772
aVOWB-474
p773
aVOWB-473
p774
aVOWB-472
p775
aVOWB-471
p776
aVOWB-470
p777
aVOWB-469
p778
aVOWB-468
p779
aVOWB-467
p780
aVOWB-466
p781
aVOWB-465
p782
aVOWB-464
p783
aVOWB-463
p784
aVOWB-462
p785
aVOWB-461
p786
aVOWB-460
p787
aVOWB-459
p788
aVOWB-458
p789
aVOWB-457
p790
aVOWB-456
p791
aVOWB-455
p792
aVOWB-454
p793
aVOWB-453
p794
aVOWB-452
p795
aVOWB-451
p796
aVOWB-450
p797
aVOWB-449
p798
aVOWB-448
p799
aVOWB-447
p800
aVOWB-446
p801
aVOWB-445
p802
aVOWB-444
p803
aVOWB-443
p804
aVOWB-442
p805
aVOWB-441
p806
aVOWB-440
p807
aVOWB-439
p808
aVOWB-438
p809
aVOWB-437
p810
aVOWB-436
p811
aVOWB-435
p812
aVOWB-434
p813
aVOWB-433
p814
aVOWB-432
p815
aVOWB-431
p816
aVOWB-430
p817
aVOWB-429
p818
aVOWB-428
p819
aVOWB-427
p820
aVOWB-426
p821
aVOWB-425
p822
aVOWB-424
p823
aVOWB-423
p824
aVOWB-422
p825
aVOWB-421
p826
aVOWB-420
p827
aVOWB-419
p828
aVOWB-418
p829
aVOWB-417
p830
aVOWB-416
p831
aVOWB-415
p832
aVOWB-414
p833
aVOWB-413
p834
aVOWB-412
p835
aVOWB-411
p836
aVOWB-410
p837
aVOWB-409
p838
aVOWB-408
p839
aVOWB-407
p840
aVOWB-406
p841
aVOWB-405
p842
aVOWB-404
p843
aVOWB-403
p844
aVOWB-402
p845
aVOWB-401
p846
aVOWB-400
p847
aVOWB-399
p848
aVOWB-398
p849
aVOWB-397
p850
aVOWB-396
p851
aVOWB-395
p852
aVOWB-394
p853
aVOWB-393
p854
aVOWB-392
p855
aVOWB-391
p856
aVOWB-390
p857
aVOWB-389
p858
aVOWB-388
p859
aVOWB-387
p860
aVOWB-386
p861
aVOWB-385
p862
aVOWB-384
p863
aVOWB-383
p864
aVOWB-382
p865
aVOWB-381
p866
aVOWB-380
p867
aVOWB-379
p868
aVOWB-378
p869
aVOWB-377
p870
aVOWB-376
p871
aVOWB-375
p872
aVOWB-374
p873
aVOWB-373
p874
aVOWB-372
p875
aVOWB-371
p876
aVOWB-370
p877
aVOWB-369
p878
aVOWB-368
p879
aVOWB-367
p880
aVOWB-366
p881
aVOWB-365
p882
aVOWB-364
p883
aVOWB-363
p884
aVOWB-362
p885
aVOWB-361
p886
aVOWB-360
p887
aVOWB-359
p888
aVOWB-358
p889
aVOWB-357
p890
aVOWB-356
p891
aVOWB-355
p892
aVOWB-354
p893
aVOWB-353
p894
aVOWB-352
p895
aVOWB-351
p896
aVOWB-350
p897
aVOWB-349
p898
aVOWB-348
p899
aVOWB-347
p900
aVOWB-346
p901
aVOWB-345
p902
aVOWB-344
p903
aVOWB-343
p904
aVOWB-342
p905
aVOWB-341
p906
aVOWB-340
p907
aVOWB-339
p908
aVOWB-338
p909
aVOWB-337
p910
aVOWB-336
p911
aVOWB-335
p912
aVOWB-334
p913
aVOWB-333
p914
aVOWB-332
p915
aVOWB-331
p916
aVOWB-330
p917
aVOWB-329
p918
aVOWB-328
p919
aVOWB-327
p920
aVOWB-326
p921
aVOWB-325
p922
aVOWB-324
p923
aVOWB-323
p924
aVOWB-322
p925
aVOWB-321
p926
aVOWB-320
p927
aVOWB-319
p928
aVOWB-318
p929
aVOWB-317
p930
aVOWB-316
p931
aVOWB-315
p932
aVOWB-314
p933
aVOWB-313
p934
aVOWB-312
p935
aVOWB-311
p936
aVOWB-310
p937
aVOWB-309
p938
aVOWB-308
p939
aVOWB-307
p940
aVOWB-306
p941
aVOWB-305
p942
aVOWB-304
p943
aVOWB-303
p944
aVOWB-302
p945
aVOWB-301
p946
aVOWB-300
p947
aVOWB-299
p948
aVOWB-298
p949
aVOWB-297
p950
aVOWB-296
p951
aVOWB-295
p952
aVOWB-294
p953
aVOWB-293
p954
aVOWB-292
p955
aVOWB-291
p956
aVOWB-290
p957
aVOWB-289
p958
aVOWB-288
p959
aVOWB-287
p960
aVOWB-286
p961
aVOWB-285
p962
aVOWB-284
p963
aVOWB-283
p964
aVOWB-282
p965
aVOWB-281
p966
aVOWB-280
p967
aVOWB-279
p968
aVOWB-278
p969
aVOWB-277
p970
aVOWB-276
p971
aVOWB-275
p972
aVOWB-274
p973
aVOWB-273
p974
aVOWB-272
p975
aVOWB-271
p976
aVOWB-270
p977
aVOWB-269
p978
aVOWB-268
p979
aVOWB-267
p980
aVOWB-266
p981
aVOWB-265
p982
aVOWB-264
p983
aVOWB-263
p984
aVOWB-262
p985
aVOWB-261
p986
aVOWB-260
p987
aVOWB-259
p988
aVOWB-258
p989
aVOWB-257
p990
aVOWB-256
p991
aVOWB-255
p992
aVOWB-254
p993
aVOWB-253
p994
aVOWB-252
p995
aVOWB-251
p996
aVOWB-250
p997
aVOWB-249
p998
aVOWB-248
p999
aVOWB-247
p1000
aVOWB-246
p1001
aVOWB-245
p1002
aVOWB-244
p1003
aVOWB-243
p1004
aVOWB-242
p1005
aVOWB-241
p1006
aVOWB-240
p1007
aVOWB-239
p1008
aVOWB-238
p1009
aVOWB-237
p1010
aVOWB-236
p1011
aVOWB-235
p1012
aVOWB-234
p1013
aVOWB-233
p1014
aVOWB-232
p1015
aVOWB-231
p1016
aVOWB-230
p1017
aVOWB-229
p1018
aVOWB-228
p1019
aVOWB-227
p1020
aVOWB-226
p1021
aVOWB-225
p1022
aVOWB-224
p1023
aVOWB-223
p1024
aVOWB-222
p1025
aVOWB-221
p1026
aVOWB-220
p1027
aVOWB-219
p1028
aVOWB-218
p1029
aVOWB-217
p1030
aVOWB-216
p1031
aVOWB-215
p1032
aVOWB-214
p1033
aVOWB-213
p1034
aVOWB-212
p1035
aVOWB-211
p1036
aVOWB-210
p1037
aVOWB-209
p1038
aVOWB-208
p1039
aVOWB-207
p1040
aVOWB-206
p1041
aVOWB-205
p1042
aVOWB-204
p1043
aVOWB-203
p1044
aVOWB-202
p1045
aVOWB-201
p1046
aVOWB-200
p1047
aVOWB-199
p1048
aVOWB-198
p1049
aVOWB-197
p1050
aVOWB-196
p1051
aVOWB-195
p1052
aVOWB-194
p1053
aVOWB-193
p1054
aVOWB-192
p1055
aVOWB-191
p1056
aVOWB-190
p1057
aVOWB-189
p1058
aVOWB-188
p1059
aVOWB-187
p1060
aVOWB-186
p1061
aVOWB-185
p1062
aVOWB-184
p1063
aVOWB-183
p1064
aVOWB-182
p1065
aVOWB-181
p1066
aVOWB-180
p1067
aVOWB-179
p1068
aVOWB-178
p1069
aVOWB-177
p1070
aVOWB-176
p1071
aVOWB-175
p1072
aVOWB-174
p1073
aVOWB-173
p1074
aVOWB-172
p1075
aVOWB-171
p1076
aVOWB-170
p1077
aVOWB-169
p1078
aVOWB-168
p1079
aVOWB-167
p1080
aVOWB-166
p1081
aVOWB-165
p1082
aVOWB-164
p1083
aVOWB-163
p1084
aVOWB-162
p1085
aVOWB-161
p1086
aVOWB-160
p1087
aVOWB-159
p1088
aVOWB-158
p1089
aVOWB-157
p1090
aVOWB-156
p1091
aVOWB-155
p1092
aVOWB-154
p1093
aVOWB-153
p1094
aVOWB-152
p1095
aVOWB-151
p1096
aVOWB-150
p1097
aVOWB-149
p1098
aVOWB-148
p1099
aVOWB-147
p1100
aVOWB-146
p1101
aVOWB-145
p1102
aVOWB-144
p1103
aVOWB-143
p1104
aVOWB-142
p1105
aVOWB-141
p1106
aVOWB-140
p1107
aVOWB-139
p1108
aVOWB-138
p1109
aVOWB-137
p1110
aVOWB-136
p1111
aVOWB-135
p1112
aVOWB-134
p1113
aVOWB-133
p1114
aVOWB-132
p1115
aVOWB-131
p1116
aVOWB-130
p1117
aVOWB-129
p1118
aVOWB-128
p1119
aVOWB-127
p1120
aVOWB-126
p1121
aVOWB-124
p1122
aVOWB-123
p1123
aVOWB-122
p1124
aVOWB-121
p1125
aVOWB-120
p1126
aVOWB-119
p1127
aVOWB-118
p1128
aVOWB-117
p1129
aVOWB-116
p1130
aVOWB-115
p1131
aVOWB-114
p1132
aVOWB-113
p1133
aVOWB-112
p1134
aVOWB-111
p1135
aVOWB-110
p1136
aVOWB-109
p1137
aVOWB-108
p1138
aVOWB-107
p1139
aVOWB-106
p1140
aVOWB-105
p1141
aVOWB-104
p1142
aVOWB-103
p1143
aVOWB-102
p1144
aVOWB-101
p1145
aVOWB-100
p1146
aVOWB-99
p1147
aVOWB-98
p1148
aVOWB-97
p1149
aVOWB-96
p1150
aVOWB-95
p1151
aVOWB-94
p1152
aVOWB-93
p1153
aVOWB-92
p1154
aVOWB-91
p1155
aVOWB-90
p1156
aVOWB-89
p1157
aVOWB-88
p1158
aVOWB-87
p1159
aVOWB-86
p1160
aVOWB-85
p1161
aVOWB-84
p1162
aVOWB-83
p1163
aVOWB-82
p1164
aVOWB-81
p1165
aVOWB-80
p1166
aVOWB-79
p1167
aVOWB-78
p1168
aVOWB-77
p1169
aVOWB-76
p1170
aVOWB-75
p1171
aVOWB-74
p1172
aVOWB-73
p1173
aVOWB-72
p1174
aVOWB-71
p1175
aVOWB-70
p1176
aVOWB-69
p1177
aVOWB-68
p1178
aVOWB-67
p1179
aVOWB-66
p1180
aVOWB-65
p1181
aVOWB-64
p1182
aVOWB-63
p1183
aVOWB-62
p1184
aVOWB-61
p1185
aVOWB-60
p1186
aVOWB-59
p1187
aVOWB-58
p1188
aVOWB-57
p1189
aVOWB-56
p1190
aVOWB-55
p1191
aVOWB-54
p1192
aVOWB-53
p1193
aVOWB-52
p1194
aVOWB-51
p1195
aVOWB-50
p1196
aVOWB-49
p1197
aVOWB-48
p1198
aVOWB-47
p1199
aVOWB-46
p1200
aVOWB-45
p1201
aVOWB-44
p1202
aVOWB-43
p1203
aVOWB-42
p1204
aVOWB-41
p1205
aVOWB-40
p1206
aVOWB-39
p1207
aVOWB-38
p1208
aVOWB-37
p1209
aVOWB-36
p1210
aVOWB-35
p1211
aVOWB-34
p1212
aVOWB-33
p1213
aVOWB-32
p1214
aVOWB-31
p1215
aVOWB-30
p1216
aVOWB-29
p1217
aVOWB-28
p1218
aVOWB-27
p1219
aVOWB-26
p1220
aVOWB-25
p1221
aVOWB-24
p1222
aVOWB-23
p1223
aVOWB-22
p1224
aVOWB-21
p1225
aVOWB-20
p1226
aVOWB-19
p1227
aVOWB-18
p1228
aVOWB-17
p1229
aVOWB-16
p1230
aVOWB-15
p1231
aVOWB-14
p1232
aVOWB-13
p1233
aVOWB-12
p1234
aVOWB-11
p1235
aVOWB-10
p1236
aVOWB-9
p1237
aVOWB-8
p1238
aVOWB-7
p1239
aVOWB-6
p1240
aVOWB-5
p1241
aVOWB-4
p1242
aVOWB-3
p1243
aVOWB-2
p1244
aVOWB-1
p1245
a.