(lp0
VPDFBOX-4287
p1
aVPDFBOX-4286
p2
aVPDFBOX-4285
p3
aVPDFBOX-4284
p4
aVPDFBOX-4283
p5
aVPDFBOX-4282
p6
aVPDFBOX-4281
p7
aVPDFBOX-4280
p8
aVPDFBOX-4279
p9
aVPDFBOX-4278
p10
aVPDFBOX-4277
p11
aVPDFBOX-4276
p12
aVPDFBOX-4275
p13
aVPDFBOX-4274
p14
aVPDFBOX-4273
p15
aVPDFBOX-4272
p16
aVPDFBOX-4271
p17
aVPDFBOX-4270
p18
aVPDFBOX-4269
p19
aVPDFBOX-4268
p20
aVPDFBOX-4267
p21
aVPDFBOX-4266
p22
aVPDFBOX-4265
p23
aVPDFBOX-4264
p24
aVPDFBOX-4263
p25
aVPDFBOX-4262
p26
aVPDFBOX-4261
p27
aVPDFBOX-4260
p28
aVPDFBOX-4259
p29
aVPDFBOX-4258
p30
aVPDFBOX-4257
p31
aVPDFBOX-4256
p32
aVPDFBOX-4255
p33
aVPDFBOX-4254
p34
aVPDFBOX-4253
p35
aVPDFBOX-4252
p36
aVPDFBOX-4251
p37
aVPDFBOX-4250
p38
aVPDFBOX-4249
p39
aVPDFBOX-4248
p40
aVPDFBOX-4247
p41
aVPDFBOX-4246
p42
aVPDFBOX-4245
p43
aVPDFBOX-4244
p44
aVPDFBOX-4243
p45
aVPDFBOX-4242
p46
aVPDFBOX-4241
p47
aVPDFBOX-4240
p48
aVPDFBOX-4239
p49
aVPDFBOX-4238
p50
aVPDFBOX-4237
p51
aVPDFBOX-4236
p52
aVPDFBOX-4235
p53
aVPDFBOX-4234
p54
aVPDFBOX-4233
p55
aVPDFBOX-4232
p56
aVPDFBOX-4231
p57
aVPDFBOX-4230
p58
aVPDFBOX-4229
p59
aVPDFBOX-4228
p60
aVPDFBOX-4227
p61
aVPDFBOX-4226
p62
aVPDFBOX-4225
p63
aVPDFBOX-4224
p64
aVPDFBOX-4223
p65
aVPDFBOX-4222
p66
aVPDFBOX-4221
p67
aVPDFBOX-4220
p68
aVPDFBOX-4219
p69
aVPDFBOX-4218
p70
aVPDFBOX-4217
p71
aVPDFBOX-4216
p72
aVPDFBOX-4215
p73
aVPDFBOX-4214
p74
aVPDFBOX-4213
p75
aVPDFBOX-4212
p76
aVPDFBOX-4211
p77
aVPDFBOX-4210
p78
aVPDFBOX-4209
p79
aVPDFBOX-4208
p80
aVPDFBOX-4207
p81
aVPDFBOX-4206
p82
aVPDFBOX-4205
p83
aVPDFBOX-4204
p84
aVPDFBOX-4203
p85
aVPDFBOX-4202
p86
aVPDFBOX-4201
p87
aVPDFBOX-4200
p88
aVPDFBOX-4199
p89
aVPDFBOX-4198
p90
aVPDFBOX-4197
p91
aVPDFBOX-4196
p92
aVPDFBOX-4195
p93
aVPDFBOX-4194
p94
aVPDFBOX-4193
p95
aVPDFBOX-4192
p96
aVPDFBOX-4191
p97
aVPDFBOX-4190
p98
aVPDFBOX-4189
p99
aVPDFBOX-4188
p100
aVPDFBOX-4187
p101
aVPDFBOX-4186
p102
aVPDFBOX-4185
p103
aVPDFBOX-4184
p104
aVPDFBOX-4183
p105
aVPDFBOX-4182
p106
aVPDFBOX-4181
p107
aVPDFBOX-4180
p108
aVPDFBOX-4179
p109
aVPDFBOX-4178
p110
aVPDFBOX-4177
p111
aVPDFBOX-4176
p112
aVPDFBOX-4175
p113
aVPDFBOX-4174
p114
aVPDFBOX-4173
p115
aVPDFBOX-4172
p116
aVPDFBOX-4171
p117
aVPDFBOX-4170
p118
aVPDFBOX-4169
p119
aVPDFBOX-4168
p120
aVPDFBOX-4167
p121
aVPDFBOX-4166
p122
aVPDFBOX-4165
p123
aVPDFBOX-4164
p124
aVPDFBOX-4163
p125
aVPDFBOX-4162
p126
aVPDFBOX-4161
p127
aVPDFBOX-4160
p128
aVPDFBOX-4159
p129
aVPDFBOX-4158
p130
aVPDFBOX-4157
p131
aVPDFBOX-4156
p132
aVPDFBOX-4155
p133
aVPDFBOX-4154
p134
aVPDFBOX-4153
p135
aVPDFBOX-4152
p136
aVPDFBOX-4151
p137
aVPDFBOX-4150
p138
aVPDFBOX-4149
p139
aVPDFBOX-4148
p140
aVPDFBOX-4147
p141
aVPDFBOX-4146
p142
aVPDFBOX-4145
p143
aVPDFBOX-4144
p144
aVPDFBOX-4143
p145
aVPDFBOX-4142
p146
aVPDFBOX-4141
p147
aVPDFBOX-4140
p148
aVPDFBOX-4139
p149
aVPDFBOX-4138
p150
aVPDFBOX-4137
p151
aVPDFBOX-4136
p152
aVPDFBOX-4135
p153
aVPDFBOX-4134
p154
aVPDFBOX-4133
p155
aVPDFBOX-4132
p156
aVPDFBOX-4131
p157
aVPDFBOX-4130
p158
aVPDFBOX-4129
p159
aVPDFBOX-4128
p160
aVPDFBOX-4127
p161
aVPDFBOX-4126
p162
aVPDFBOX-4125
p163
aVPDFBOX-4124
p164
aVPDFBOX-4123
p165
aVPDFBOX-4122
p166
aVPDFBOX-4121
p167
aVPDFBOX-4120
p168
aVPDFBOX-4119
p169
aVPDFBOX-4118
p170
aVPDFBOX-4117
p171
aVPDFBOX-4116
p172
aVPDFBOX-4115
p173
aVPDFBOX-4114
p174
aVPDFBOX-4113
p175
aVPDFBOX-4112
p176
aVPDFBOX-4110
p177
aVPDFBOX-4109
p178
aVPDFBOX-4108
p179
aVPDFBOX-4107
p180
aVPDFBOX-4106
p181
aVPDFBOX-4105
p182
aVPDFBOX-4104
p183
aVPDFBOX-4103
p184
aVPDFBOX-4102
p185
aVPDFBOX-4101
p186
aVPDFBOX-4100
p187
aVPDFBOX-4099
p188
aVPDFBOX-4098
p189
aVPDFBOX-4097
p190
aVPDFBOX-4096
p191
aVPDFBOX-4095
p192
aVPDFBOX-4094
p193
aVPDFBOX-4093
p194
aVPDFBOX-4092
p195
aVPDFBOX-4091
p196
aVPDFBOX-4090
p197
aVPDFBOX-4089
p198
aVPDFBOX-4088
p199
aVPDFBOX-4087
p200
aVPDFBOX-4086
p201
aVPDFBOX-4085
p202
aVPDFBOX-4084
p203
aVPDFBOX-4083
p204
aVPDFBOX-4082
p205
aVPDFBOX-4081
p206
aVPDFBOX-4080
p207
aVPDFBOX-4079
p208
aVPDFBOX-4078
p209
aVPDFBOX-4077
p210
aVPDFBOX-4076
p211
aVPDFBOX-4075
p212
aVPDFBOX-4074
p213
aVPDFBOX-4073
p214
aVPDFBOX-4072
p215
aVPDFBOX-4071
p216
aVPDFBOX-4070
p217
aVPDFBOX-4069
p218
aVPDFBOX-4068
p219
aVPDFBOX-4067
p220
aVPDFBOX-4066
p221
aVPDFBOX-4065
p222
aVPDFBOX-4064
p223
aVPDFBOX-4063
p224
aVPDFBOX-4062
p225
aVPDFBOX-4061
p226
aVPDFBOX-4060
p227
aVPDFBOX-4059
p228
aVPDFBOX-4058
p229
aVPDFBOX-4057
p230
aVPDFBOX-4056
p231
aVPDFBOX-4055
p232
aVPDFBOX-4054
p233
aVPDFBOX-4053
p234
aVPDFBOX-4052
p235
aVPDFBOX-4051
p236
aVPDFBOX-4050
p237
aVPDFBOX-4049
p238
aVPDFBOX-4048
p239
aVPDFBOX-4047
p240
aVPDFBOX-4046
p241
aVPDFBOX-4045
p242
aVPDFBOX-4044
p243
aVPDFBOX-4043
p244
aVPDFBOX-4042
p245
aVPDFBOX-4041
p246
aVPDFBOX-4040
p247
aVPDFBOX-4039
p248
aVPDFBOX-4038
p249
aVPDFBOX-4037
p250
aVPDFBOX-4036
p251
aVPDFBOX-4035
p252
aVPDFBOX-4034
p253
aVPDFBOX-4033
p254
aVPDFBOX-4032
p255
aVPDFBOX-4031
p256
aVPDFBOX-4030
p257
aVPDFBOX-4029
p258
aVPDFBOX-4028
p259
aVPDFBOX-4027
p260
aVPDFBOX-4026
p261
aVPDFBOX-4025
p262
aVPDFBOX-4024
p263
aVPDFBOX-4023
p264
aVPDFBOX-4022
p265
aVPDFBOX-4021
p266
aVPDFBOX-4020
p267
aVPDFBOX-4019
p268
aVPDFBOX-4018
p269
aVPDFBOX-4017
p270
aVPDFBOX-4016
p271
aVPDFBOX-4015
p272
aVPDFBOX-4014
p273
aVPDFBOX-4013
p274
aVPDFBOX-4012
p275
aVPDFBOX-4011
p276
aVPDFBOX-4010
p277
aVPDFBOX-4009
p278
aVPDFBOX-4008
p279
aVPDFBOX-4007
p280
aVPDFBOX-4006
p281
aVPDFBOX-4005
p282
aVPDFBOX-4004
p283
aVPDFBOX-4003
p284
aVPDFBOX-4002
p285
aVPDFBOX-4001
p286
aVPDFBOX-4000
p287
aVPDFBOX-3999
p288
aVPDFBOX-3998
p289
aVPDFBOX-3997
p290
aVPDFBOX-3996
p291
aVPDFBOX-3995
p292
aVPDFBOX-3994
p293
aVPDFBOX-3993
p294
aVPDFBOX-3992
p295
aVPDFBOX-3991
p296
aVPDFBOX-3990
p297
aVPDFBOX-3989
p298
aVPDFBOX-3988
p299
aVPDFBOX-3987
p300
aVPDFBOX-3986
p301
aVPDFBOX-3985
p302
aVPDFBOX-3984
p303
aVPDFBOX-3983
p304
aVPDFBOX-3982
p305
aVPDFBOX-3981
p306
aVPDFBOX-3980
p307
aVPDFBOX-3979
p308
aVPDFBOX-3978
p309
aVPDFBOX-3977
p310
aVPDFBOX-3976
p311
aVPDFBOX-3975
p312
aVPDFBOX-3974
p313
aVPDFBOX-3973
p314
aVPDFBOX-3972
p315
aVPDFBOX-3971
p316
aVPDFBOX-3970
p317
aVPDFBOX-3969
p318
aVPDFBOX-3968
p319
aVPDFBOX-3967
p320
aVPDFBOX-3966
p321
aVPDFBOX-3965
p322
aVPDFBOX-3964
p323
aVPDFBOX-3963
p324
aVPDFBOX-3962
p325
aVPDFBOX-3961
p326
aVPDFBOX-3960
p327
aVPDFBOX-3959
p328
aVPDFBOX-3958
p329
aVPDFBOX-3957
p330
aVPDFBOX-3956
p331
aVPDFBOX-3955
p332
aVPDFBOX-3954
p333
aVPDFBOX-3953
p334
aVPDFBOX-3952
p335
aVPDFBOX-3951
p336
aVPDFBOX-3950
p337
aVPDFBOX-3949
p338
aVPDFBOX-3948
p339
aVPDFBOX-3947
p340
aVPDFBOX-3946
p341
aVPDFBOX-3945
p342
aVPDFBOX-3944
p343
aVPDFBOX-3943
p344
aVPDFBOX-3942
p345
aVPDFBOX-3941
p346
aVPDFBOX-3940
p347
aVPDFBOX-3939
p348
aVPDFBOX-3938
p349
aVPDFBOX-3937
p350
aVPDFBOX-3936
p351
aVPDFBOX-3935
p352
aVPDFBOX-3934
p353
aVPDFBOX-3933
p354
aVPDFBOX-3932
p355
aVPDFBOX-3931
p356
aVPDFBOX-3930
p357
aVPDFBOX-3929
p358
aVPDFBOX-3928
p359
aVPDFBOX-3927
p360
aVPDFBOX-3926
p361
aVPDFBOX-3925
p362
aVPDFBOX-3924
p363
aVPDFBOX-3923
p364
aVPDFBOX-3922
p365
aVPDFBOX-3921
p366
aVPDFBOX-3920
p367
aVPDFBOX-3919
p368
aVPDFBOX-3918
p369
aVPDFBOX-3917
p370
aVPDFBOX-3916
p371
aVPDFBOX-3915
p372
aVPDFBOX-3914
p373
aVPDFBOX-3913
p374
aVPDFBOX-3912
p375
aVPDFBOX-3911
p376
aVPDFBOX-3910
p377
aVPDFBOX-3909
p378
aVPDFBOX-3908
p379
aVPDFBOX-3907
p380
aVPDFBOX-3906
p381
aVPDFBOX-3905
p382
aVPDFBOX-3904
p383
aVPDFBOX-3903
p384
aVPDFBOX-3902
p385
aVPDFBOX-3901
p386
aVPDFBOX-3900
p387
aVPDFBOX-3899
p388
aVPDFBOX-3898
p389
aVPDFBOX-3897
p390
aVPDFBOX-3896
p391
aVPDFBOX-3895
p392
aVPDFBOX-3894
p393
aVPDFBOX-3893
p394
aVPDFBOX-3892
p395
aVPDFBOX-3891
p396
aVPDFBOX-3890
p397
aVPDFBOX-3889
p398
aVPDFBOX-3888
p399
aVPDFBOX-3887
p400
aVPDFBOX-3886
p401
aVPDFBOX-3885
p402
aVPDFBOX-3884
p403
aVPDFBOX-3883
p404
aVPDFBOX-3882
p405
aVPDFBOX-3881
p406
aVPDFBOX-3880
p407
aVPDFBOX-3879
p408
aVPDFBOX-3878
p409
aVPDFBOX-3877
p410
aVPDFBOX-3876
p411
aVPDFBOX-3875
p412
aVPDFBOX-3874
p413
aVPDFBOX-3873
p414
aVPDFBOX-3872
p415
aVPDFBOX-3871
p416
aVPDFBOX-3870
p417
aVPDFBOX-3869
p418
aVPDFBOX-3868
p419
aVPDFBOX-3867
p420
aVPDFBOX-3866
p421
aVPDFBOX-3865
p422
aVPDFBOX-3864
p423
aVPDFBOX-3863
p424
aVPDFBOX-3862
p425
aVPDFBOX-3861
p426
aVPDFBOX-3860
p427
aVPDFBOX-3859
p428
aVPDFBOX-3858
p429
aVPDFBOX-3857
p430
aVPDFBOX-3856
p431
aVPDFBOX-3855
p432
aVPDFBOX-3854
p433
aVPDFBOX-3853
p434
aVPDFBOX-3852
p435
aVPDFBOX-3851
p436
aVPDFBOX-3850
p437
aVPDFBOX-3849
p438
aVPDFBOX-3848
p439
aVPDFBOX-3847
p440
aVPDFBOX-3846
p441
aVPDFBOX-3845
p442
aVPDFBOX-3844
p443
aVPDFBOX-3843
p444
aVPDFBOX-3842
p445
aVPDFBOX-3841
p446
aVPDFBOX-3840
p447
aVPDFBOX-3839
p448
aVPDFBOX-3838
p449
aVPDFBOX-3837
p450
aVPDFBOX-3836
p451
aVPDFBOX-3835
p452
aVPDFBOX-3834
p453
aVPDFBOX-3833
p454
aVPDFBOX-3832
p455
aVPDFBOX-3831
p456
aVPDFBOX-3830
p457
aVPDFBOX-3829
p458
aVPDFBOX-3828
p459
aVPDFBOX-3827
p460
aVPDFBOX-3826
p461
aVPDFBOX-3825
p462
aVPDFBOX-3824
p463
aVPDFBOX-3823
p464
aVPDFBOX-3822
p465
aVPDFBOX-3821
p466
aVPDFBOX-3820
p467
aVPDFBOX-3819
p468
aVPDFBOX-3818
p469
aVPDFBOX-3817
p470
aVPDFBOX-3816
p471
aVPDFBOX-3815
p472
aVPDFBOX-3814
p473
aVPDFBOX-3813
p474
aVPDFBOX-3812
p475
aVPDFBOX-3811
p476
aVPDFBOX-3810
p477
aVPDFBOX-3809
p478
aVPDFBOX-3808
p479
aVPDFBOX-3807
p480
aVPDFBOX-3806
p481
aVPDFBOX-3805
p482
aVPDFBOX-3804
p483
aVPDFBOX-3803
p484
aVPDFBOX-3802
p485
aVPDFBOX-3801
p486
aVPDFBOX-3800
p487
aVPDFBOX-3799
p488
aVPDFBOX-3798
p489
aVPDFBOX-3797
p490
aVPDFBOX-3796
p491
aVPDFBOX-3795
p492
aVPDFBOX-3794
p493
aVPDFBOX-3793
p494
aVPDFBOX-3792
p495
aVPDFBOX-3791
p496
aVPDFBOX-3790
p497
aVPDFBOX-3789
p498
aVPDFBOX-3788
p499
aVPDFBOX-3787
p500
aVPDFBOX-3786
p501
aVPDFBOX-3785
p502
aVPDFBOX-3784
p503
aVPDFBOX-3783
p504
aVPDFBOX-3782
p505
aVPDFBOX-3781
p506
aVPDFBOX-3780
p507
aVPDFBOX-3779
p508
aVPDFBOX-3778
p509
aVPDFBOX-3777
p510
aVPDFBOX-3776
p511
aVPDFBOX-3775
p512
aVPDFBOX-3774
p513
aVPDFBOX-3773
p514
aVPDFBOX-3772
p515
aVPDFBOX-3771
p516
aVPDFBOX-3770
p517
aVPDFBOX-3769
p518
aVPDFBOX-3768
p519
aVPDFBOX-3767
p520
aVPDFBOX-3766
p521
aVPDFBOX-3765
p522
aVPDFBOX-3764
p523
aVPDFBOX-3763
p524
aVPDFBOX-3762
p525
aVPDFBOX-3761
p526
aVPDFBOX-3760
p527
aVPDFBOX-3759
p528
aVPDFBOX-3758
p529
aVPDFBOX-3757
p530
aVPDFBOX-3756
p531
aVPDFBOX-3755
p532
aVPDFBOX-3754
p533
aVPDFBOX-3753
p534
aVPDFBOX-3752
p535
aVPDFBOX-3751
p536
aVPDFBOX-3750
p537
aVPDFBOX-3749
p538
aVPDFBOX-3748
p539
aVPDFBOX-3747
p540
aVPDFBOX-3746
p541
aVPDFBOX-3745
p542
aVPDFBOX-3744
p543
aVPDFBOX-3743
p544
aVPDFBOX-3742
p545
aVPDFBOX-3741
p546
aVPDFBOX-3740
p547
aVPDFBOX-3739
p548
aVPDFBOX-3738
p549
aVPDFBOX-3737
p550
aVPDFBOX-3736
p551
aVPDFBOX-3735
p552
aVPDFBOX-3734
p553
aVPDFBOX-3733
p554
aVPDFBOX-3732
p555
aVPDFBOX-3731
p556
aVPDFBOX-3730
p557
aVPDFBOX-3729
p558
aVPDFBOX-3728
p559
aVPDFBOX-3727
p560
aVPDFBOX-3726
p561
aVPDFBOX-3725
p562
aVPDFBOX-3724
p563
aVPDFBOX-3723
p564
aVPDFBOX-3722
p565
aVPDFBOX-3721
p566
aVPDFBOX-3720
p567
aVPDFBOX-3719
p568
aVPDFBOX-3718
p569
aVPDFBOX-3717
p570
aVPDFBOX-3716
p571
aVPDFBOX-3715
p572
aVPDFBOX-3714
p573
aVPDFBOX-3713
p574
aVPDFBOX-3712
p575
aVPDFBOX-3711
p576
aVPDFBOX-3710
p577
aVPDFBOX-3709
p578
aVPDFBOX-3708
p579
aVPDFBOX-3707
p580
aVPDFBOX-3706
p581
aVPDFBOX-3705
p582
aVPDFBOX-3704
p583
aVPDFBOX-3703
p584
aVPDFBOX-3702
p585
aVPDFBOX-3701
p586
aVPDFBOX-3700
p587
aVPDFBOX-3699
p588
aVPDFBOX-3698
p589
aVPDFBOX-3697
p590
aVPDFBOX-3696
p591
aVPDFBOX-3695
p592
aVPDFBOX-3694
p593
aVPDFBOX-3693
p594
aVPDFBOX-3692
p595
aVPDFBOX-3691
p596
aVPDFBOX-3690
p597
aVPDFBOX-3689
p598
aVPDFBOX-3688
p599
aVPDFBOX-3687
p600
aVPDFBOX-3686
p601
aVPDFBOX-3685
p602
aVPDFBOX-3684
p603
aVPDFBOX-3683
p604
aVPDFBOX-3682
p605
aVPDFBOX-3681
p606
aVPDFBOX-3680
p607
aVPDFBOX-3679
p608
aVPDFBOX-3678
p609
aVPDFBOX-3677
p610
aVPDFBOX-3676
p611
aVPDFBOX-3675
p612
aVPDFBOX-3674
p613
aVPDFBOX-3673
p614
aVPDFBOX-3672
p615
aVPDFBOX-3671
p616
aVPDFBOX-3670
p617
aVPDFBOX-3669
p618
aVPDFBOX-3668
p619
aVPDFBOX-3667
p620
aVPDFBOX-3666
p621
aVPDFBOX-3665
p622
aVPDFBOX-3664
p623
aVPDFBOX-3663
p624
aVPDFBOX-3662
p625
aVPDFBOX-3661
p626
aVPDFBOX-3660
p627
aVPDFBOX-3659
p628
aVPDFBOX-3658
p629
aVPDFBOX-3657
p630
aVPDFBOX-3656
p631
aVPDFBOX-3655
p632
aVPDFBOX-3654
p633
aVPDFBOX-3653
p634
aVPDFBOX-3652
p635
aVPDFBOX-3651
p636
aVPDFBOX-3650
p637
aVPDFBOX-3649
p638
aVPDFBOX-3648
p639
aVPDFBOX-3647
p640
aVPDFBOX-3646
p641
aVPDFBOX-3645
p642
aVPDFBOX-3644
p643
aVPDFBOX-3643
p644
aVPDFBOX-3642
p645
aVPDFBOX-3641
p646
aVPDFBOX-3640
p647
aVPDFBOX-3639
p648
aVPDFBOX-3638
p649
aVPDFBOX-3637
p650
aVPDFBOX-3636
p651
aVPDFBOX-3635
p652
aVPDFBOX-3634
p653
aVPDFBOX-3633
p654
aVPDFBOX-3632
p655
aVPDFBOX-3631
p656
aVPDFBOX-3630
p657
aVPDFBOX-3629
p658
aVPDFBOX-3628
p659
aVPDFBOX-3627
p660
aVPDFBOX-3626
p661
aVPDFBOX-3625
p662
aVPDFBOX-3624
p663
aVPDFBOX-3623
p664
aVPDFBOX-3622
p665
aVPDFBOX-3621
p666
aVPDFBOX-3620
p667
aVPDFBOX-3619
p668
aVPDFBOX-3618
p669
aVPDFBOX-3617
p670
aVPDFBOX-3616
p671
aVPDFBOX-3615
p672
aVPDFBOX-3614
p673
aVPDFBOX-3613
p674
aVPDFBOX-3612
p675
aVPDFBOX-3611
p676
aVPDFBOX-3610
p677
aVPDFBOX-3609
p678
aVPDFBOX-3608
p679
aVPDFBOX-3607
p680
aVPDFBOX-3606
p681
aVPDFBOX-3605
p682
aVPDFBOX-3604
p683
aVPDFBOX-3603
p684
aVPDFBOX-3602
p685
aVPDFBOX-3601
p686
aVPDFBOX-3600
p687
aVPDFBOX-3599
p688
aVPDFBOX-3598
p689
aVPDFBOX-3597
p690
aVPDFBOX-3596
p691
aVPDFBOX-3595
p692
aVPDFBOX-3594
p693
aVPDFBOX-3593
p694
aVPDFBOX-3592
p695
aVPDFBOX-3591
p696
aVPDFBOX-3590
p697
aVPDFBOX-3589
p698
aVPDFBOX-3588
p699
aVPDFBOX-3587
p700
aVPDFBOX-3586
p701
aVPDFBOX-3585
p702
aVPDFBOX-3584
p703
aVPDFBOX-3583
p704
aVPDFBOX-3582
p705
aVPDFBOX-3581
p706
aVPDFBOX-3580
p707
aVPDFBOX-3579
p708
aVPDFBOX-3578
p709
aVPDFBOX-3577
p710
aVPDFBOX-3576
p711
aVPDFBOX-3575
p712
aVPDFBOX-3574
p713
aVPDFBOX-3573
p714
aVPDFBOX-3572
p715
aVPDFBOX-3571
p716
aVPDFBOX-3570
p717
aVPDFBOX-3569
p718
aVPDFBOX-3568
p719
aVPDFBOX-3567
p720
aVPDFBOX-3566
p721
aVPDFBOX-3565
p722
aVPDFBOX-3564
p723
aVPDFBOX-3563
p724
aVPDFBOX-3562
p725
aVPDFBOX-3561
p726
aVPDFBOX-3560
p727
aVPDFBOX-3559
p728
aVPDFBOX-3558
p729
aVPDFBOX-3557
p730
aVPDFBOX-3556
p731
aVPDFBOX-3555
p732
aVPDFBOX-3554
p733
aVPDFBOX-3553
p734
aVPDFBOX-3552
p735
aVPDFBOX-3551
p736
aVPDFBOX-3550
p737
aVPDFBOX-3549
p738
aVPDFBOX-3548
p739
aVPDFBOX-3547
p740
aVPDFBOX-3546
p741
aVPDFBOX-3545
p742
aVPDFBOX-3544
p743
aVPDFBOX-3543
p744
aVPDFBOX-3542
p745
aVPDFBOX-3541
p746
aVPDFBOX-3540
p747
aVPDFBOX-3539
p748
aVPDFBOX-3538
p749
aVPDFBOX-3537
p750
aVPDFBOX-3536
p751
aVPDFBOX-3535
p752
aVPDFBOX-3534
p753
aVPDFBOX-3533
p754
aVPDFBOX-3532
p755
aVPDFBOX-3531
p756
aVPDFBOX-3530
p757
aVPDFBOX-3529
p758
aVPDFBOX-3528
p759
aVPDFBOX-3527
p760
aVPDFBOX-3526
p761
aVPDFBOX-3525
p762
aVPDFBOX-3524
p763
aVPDFBOX-3523
p764
aVPDFBOX-3522
p765
aVPDFBOX-3521
p766
aVPDFBOX-3520
p767
aVPDFBOX-3519
p768
aVPDFBOX-3518
p769
aVPDFBOX-3517
p770
aVPDFBOX-3516
p771
aVPDFBOX-3515
p772
aVPDFBOX-3514
p773
aVPDFBOX-3513
p774
aVPDFBOX-3512
p775
aVPDFBOX-3511
p776
aVPDFBOX-3510
p777
aVPDFBOX-3509
p778
aVPDFBOX-3508
p779
aVPDFBOX-3507
p780
aVPDFBOX-3506
p781
aVPDFBOX-3505
p782
aVPDFBOX-3504
p783
aVPDFBOX-3503
p784
aVPDFBOX-3502
p785
aVPDFBOX-3501
p786
aVPDFBOX-3500
p787
aVPDFBOX-3499
p788
aVPDFBOX-3498
p789
aVPDFBOX-3497
p790
aVPDFBOX-3496
p791
aVPDFBOX-3495
p792
aVPDFBOX-3494
p793
aVPDFBOX-3493
p794
aVPDFBOX-3492
p795
aVPDFBOX-3491
p796
aVPDFBOX-3490
p797
aVPDFBOX-3489
p798
aVPDFBOX-3488
p799
aVPDFBOX-3487
p800
aVPDFBOX-3486
p801
aVPDFBOX-3485
p802
aVPDFBOX-3484
p803
aVPDFBOX-3483
p804
aVPDFBOX-3482
p805
aVPDFBOX-3481
p806
aVPDFBOX-3480
p807
aVPDFBOX-3479
p808
aVPDFBOX-3478
p809
aVPDFBOX-3477
p810
aVPDFBOX-3476
p811
aVPDFBOX-3475
p812
aVPDFBOX-3474
p813
aVPDFBOX-3473
p814
aVPDFBOX-3472
p815
aVPDFBOX-3471
p816
aVPDFBOX-3470
p817
aVPDFBOX-3469
p818
aVPDFBOX-3468
p819
aVPDFBOX-3467
p820
aVPDFBOX-3466
p821
aVPDFBOX-3465
p822
aVPDFBOX-3464
p823
aVPDFBOX-3463
p824
aVPDFBOX-3462
p825
aVPDFBOX-3461
p826
aVPDFBOX-3460
p827
aVPDFBOX-3459
p828
aVPDFBOX-3458
p829
aVPDFBOX-3457
p830
aVPDFBOX-3456
p831
aVPDFBOX-3455
p832
aVPDFBOX-3454
p833
aVPDFBOX-3453
p834
aVPDFBOX-3452
p835
aVPDFBOX-3451
p836
aVPDFBOX-3450
p837
aVPDFBOX-3449
p838
aVPDFBOX-3448
p839
aVPDFBOX-3447
p840
aVPDFBOX-3446
p841
aVPDFBOX-3445
p842
aVPDFBOX-3444
p843
aVPDFBOX-3443
p844
aVPDFBOX-3442
p845
aVPDFBOX-3441
p846
aVPDFBOX-3440
p847
aVPDFBOX-3439
p848
aVPDFBOX-3438
p849
aVPDFBOX-3437
p850
aVPDFBOX-3436
p851
aVPDFBOX-3435
p852
aVPDFBOX-3434
p853
aVPDFBOX-3433
p854
aVPDFBOX-3432
p855
aVPDFBOX-3431
p856
aVPDFBOX-3430
p857
aVPDFBOX-3429
p858
aVPDFBOX-3428
p859
aVPDFBOX-3427
p860
aVPDFBOX-3426
p861
aVPDFBOX-3425
p862
aVPDFBOX-3424
p863
aVPDFBOX-3423
p864
aVPDFBOX-3422
p865
aVPDFBOX-3421
p866
aVPDFBOX-3420
p867
aVPDFBOX-3419
p868
aVPDFBOX-3418
p869
aVPDFBOX-3417
p870
aVPDFBOX-3416
p871
aVPDFBOX-3415
p872
aVPDFBOX-3414
p873
aVPDFBOX-3413
p874
aVPDFBOX-3412
p875
aVPDFBOX-3411
p876
aVPDFBOX-3410
p877
aVPDFBOX-3409
p878
aVPDFBOX-3408
p879
aVPDFBOX-3407
p880
aVPDFBOX-3406
p881
aVPDFBOX-3405
p882
aVPDFBOX-3404
p883
aVPDFBOX-3403
p884
aVPDFBOX-3402
p885
aVPDFBOX-3401
p886
aVPDFBOX-3400
p887
aVPDFBOX-3399
p888
aVPDFBOX-3398
p889
aVPDFBOX-3397
p890
aVPDFBOX-3396
p891
aVPDFBOX-3395
p892
aVPDFBOX-3394
p893
aVPDFBOX-3393
p894
aVPDFBOX-3391
p895
aVPDFBOX-3390
p896
aVPDFBOX-3389
p897
aVPDFBOX-3388
p898
aVPDFBOX-3387
p899
aVPDFBOX-3386
p900
aVPDFBOX-3385
p901
aVPDFBOX-3384
p902
aVPDFBOX-3383
p903
aVPDFBOX-3382
p904
aVPDFBOX-3381
p905
aVPDFBOX-3380
p906
aVPDFBOX-3379
p907
aVPDFBOX-3378
p908
aVPDFBOX-3377
p909
aVPDFBOX-3376
p910
aVPDFBOX-3375
p911
aVPDFBOX-3374
p912
aVPDFBOX-3373
p913
aVPDFBOX-3372
p914
aVPDFBOX-3371
p915
aVPDFBOX-3370
p916
aVPDFBOX-3369
p917
aVPDFBOX-3368
p918
aVPDFBOX-3367
p919
aVPDFBOX-3366
p920
aVPDFBOX-3365
p921
aVPDFBOX-3364
p922
aVPDFBOX-3363
p923
aVPDFBOX-3362
p924
aVPDFBOX-3361
p925
aVPDFBOX-3360
p926
aVPDFBOX-3359
p927
aVPDFBOX-3358
p928
aVPDFBOX-3357
p929
aVPDFBOX-3356
p930
aVPDFBOX-3355
p931
aVPDFBOX-3354
p932
aVPDFBOX-3353
p933
aVPDFBOX-3352
p934
aVPDFBOX-3351
p935
aVPDFBOX-3350
p936
aVPDFBOX-3349
p937
aVPDFBOX-3348
p938
aVPDFBOX-3347
p939
aVPDFBOX-3346
p940
aVPDFBOX-3345
p941
aVPDFBOX-3344
p942
aVPDFBOX-3343
p943
aVPDFBOX-3342
p944
aVPDFBOX-3341
p945
aVPDFBOX-3340
p946
aVPDFBOX-3339
p947
aVPDFBOX-3338
p948
aVPDFBOX-3337
p949
aVPDFBOX-3336
p950
aVPDFBOX-3335
p951
aVPDFBOX-3334
p952
aVPDFBOX-3333
p953
aVPDFBOX-3332
p954
aVPDFBOX-3331
p955
aVPDFBOX-3330
p956
aVPDFBOX-3329
p957
aVPDFBOX-3328
p958
aVPDFBOX-3327
p959
aVPDFBOX-3326
p960
aVPDFBOX-3325
p961
aVPDFBOX-3324
p962
aVPDFBOX-3323
p963
aVPDFBOX-3322
p964
aVPDFBOX-3321
p965
aVPDFBOX-3320
p966
aVPDFBOX-3319
p967
aVPDFBOX-3318
p968
aVPDFBOX-3317
p969
aVPDFBOX-3316
p970
aVPDFBOX-3315
p971
aVPDFBOX-3314
p972
aVPDFBOX-3313
p973
aVPDFBOX-3312
p974
aVPDFBOX-3311
p975
aVPDFBOX-3310
p976
aVPDFBOX-3309
p977
aVPDFBOX-3308
p978
aVPDFBOX-3307
p979
aVPDFBOX-3306
p980
aVPDFBOX-3305
p981
aVPDFBOX-3304
p982
aVPDFBOX-3303
p983
aVPDFBOX-3302
p984
aVPDFBOX-3301
p985
aVPDFBOX-3300
p986
aVPDFBOX-3299
p987
aVPDFBOX-3298
p988
aVPDFBOX-3297
p989
aVPDFBOX-3296
p990
aVPDFBOX-3295
p991
aVPDFBOX-3294
p992
aVPDFBOX-3293
p993
aVPDFBOX-3292
p994
aVPDFBOX-3291
p995
aVPDFBOX-3290
p996
aVPDFBOX-3289
p997
aVPDFBOX-3288
p998
aVPDFBOX-3287
p999
aVPDFBOX-3286
p1000
aVPDFBOX-3285
p1001
aVPDFBOX-3284
p1002
aVPDFBOX-3283
p1003
aVPDFBOX-3282
p1004
aVPDFBOX-3281
p1005
aVPDFBOX-3280
p1006
aVPDFBOX-3279
p1007
aVPDFBOX-3278
p1008
aVPDFBOX-3277
p1009
aVPDFBOX-3276
p1010
aVPDFBOX-3275
p1011
aVPDFBOX-3274
p1012
aVPDFBOX-3273
p1013
aVPDFBOX-3272
p1014
aVPDFBOX-3271
p1015
aVPDFBOX-3270
p1016
aVPDFBOX-3269
p1017
aVPDFBOX-3268
p1018
aVPDFBOX-3267
p1019
aVPDFBOX-3266
p1020
aVPDFBOX-3265
p1021
aVPDFBOX-3264
p1022
aVPDFBOX-3263
p1023
aVPDFBOX-3262
p1024
aVPDFBOX-3261
p1025
aVPDFBOX-3260
p1026
aVPDFBOX-3259
p1027
aVPDFBOX-3258
p1028
aVPDFBOX-3257
p1029
aVPDFBOX-3256
p1030
aVPDFBOX-3255
p1031
aVPDFBOX-3254
p1032
aVPDFBOX-3253
p1033
aVPDFBOX-3252
p1034
aVPDFBOX-3251
p1035
aVPDFBOX-3250
p1036
aVPDFBOX-3249
p1037
aVPDFBOX-3248
p1038
aVPDFBOX-3247
p1039
aVPDFBOX-3246
p1040
aVPDFBOX-3245
p1041
aVPDFBOX-3244
p1042
aVPDFBOX-3243
p1043
aVPDFBOX-3242
p1044
aVPDFBOX-3241
p1045
aVPDFBOX-3240
p1046
aVPDFBOX-3239
p1047
aVPDFBOX-3238
p1048
aVPDFBOX-3237
p1049
aVPDFBOX-3236
p1050
aVPDFBOX-3235
p1051
aVPDFBOX-3234
p1052
aVPDFBOX-3233
p1053
aVPDFBOX-3232
p1054
aVPDFBOX-3231
p1055
aVPDFBOX-3230
p1056
aVPDFBOX-3229
p1057
aVPDFBOX-3228
p1058
aVPDFBOX-3227
p1059
aVPDFBOX-3226
p1060
aVPDFBOX-3225
p1061
aVPDFBOX-3224
p1062
aVPDFBOX-3223
p1063
aVPDFBOX-3222
p1064
aVPDFBOX-3221
p1065
aVPDFBOX-3220
p1066
aVPDFBOX-3219
p1067
aVPDFBOX-3218
p1068
aVPDFBOX-3217
p1069
aVPDFBOX-3216
p1070
aVPDFBOX-3215
p1071
aVPDFBOX-3214
p1072
aVPDFBOX-3213
p1073
aVPDFBOX-3212
p1074
aVPDFBOX-3211
p1075
aVPDFBOX-3210
p1076
aVPDFBOX-3209
p1077
aVPDFBOX-3208
p1078
aVPDFBOX-3207
p1079
aVPDFBOX-3206
p1080
aVPDFBOX-3205
p1081
aVPDFBOX-3204
p1082
aVPDFBOX-3203
p1083
aVPDFBOX-3202
p1084
aVPDFBOX-3201
p1085
aVPDFBOX-3200
p1086
aVPDFBOX-3199
p1087
aVPDFBOX-3198
p1088
aVPDFBOX-3197
p1089
aVPDFBOX-3196
p1090
aVPDFBOX-3195
p1091
aVPDFBOX-3194
p1092
aVPDFBOX-3193
p1093
aVPDFBOX-3192
p1094
aVPDFBOX-3191
p1095
aVPDFBOX-3190
p1096
aVPDFBOX-3189
p1097
aVPDFBOX-3188
p1098
aVPDFBOX-3187
p1099
aVPDFBOX-3186
p1100
aVPDFBOX-3185
p1101
aVPDFBOX-3184
p1102
aVPDFBOX-3183
p1103
aVPDFBOX-3182
p1104
aVPDFBOX-3181
p1105
aVPDFBOX-3180
p1106
aVPDFBOX-3179
p1107
aVPDFBOX-3178
p1108
aVPDFBOX-3177
p1109
aVPDFBOX-3176
p1110
aVPDFBOX-3175
p1111
aVPDFBOX-3174
p1112
aVPDFBOX-3173
p1113
aVPDFBOX-3172
p1114
aVPDFBOX-3171
p1115
aVPDFBOX-3170
p1116
aVPDFBOX-3169
p1117
aVPDFBOX-3168
p1118
aVPDFBOX-3167
p1119
aVPDFBOX-3166
p1120
aVPDFBOX-3165
p1121
aVPDFBOX-3164
p1122
aVPDFBOX-3163
p1123
aVPDFBOX-3162
p1124
aVPDFBOX-3161
p1125
aVPDFBOX-3160
p1126
aVPDFBOX-3159
p1127
aVPDFBOX-3158
p1128
aVPDFBOX-3157
p1129
aVPDFBOX-3156
p1130
aVPDFBOX-3155
p1131
aVPDFBOX-3154
p1132
aVPDFBOX-3153
p1133
aVPDFBOX-3152
p1134
aVPDFBOX-3151
p1135
aVPDFBOX-3150
p1136
aVPDFBOX-3149
p1137
aVPDFBOX-3148
p1138
aVPDFBOX-3147
p1139
aVPDFBOX-3146
p1140
aVPDFBOX-3145
p1141
aVPDFBOX-3144
p1142
aVPDFBOX-3143
p1143
aVPDFBOX-3142
p1144
aVPDFBOX-3141
p1145
aVPDFBOX-3140
p1146
aVPDFBOX-3139
p1147
aVPDFBOX-3138
p1148
aVPDFBOX-3137
p1149
aVPDFBOX-3136
p1150
aVPDFBOX-3135
p1151
aVPDFBOX-3134
p1152
aVPDFBOX-3133
p1153
aVPDFBOX-3132
p1154
aVPDFBOX-3131
p1155
aVPDFBOX-3130
p1156
aVPDFBOX-3129
p1157
aVPDFBOX-3128
p1158
aVPDFBOX-3127
p1159
aVPDFBOX-3126
p1160
aVPDFBOX-3125
p1161
aVPDFBOX-3124
p1162
aVPDFBOX-3123
p1163
aVPDFBOX-3122
p1164
aVPDFBOX-3121
p1165
aVPDFBOX-3120
p1166
aVPDFBOX-3119
p1167
aVPDFBOX-3118
p1168
aVPDFBOX-3117
p1169
aVPDFBOX-3116
p1170
aVPDFBOX-3115
p1171
aVPDFBOX-3114
p1172
aVPDFBOX-3113
p1173
aVPDFBOX-3112
p1174
aVPDFBOX-3111
p1175
aVPDFBOX-3110
p1176
aVPDFBOX-3109
p1177
aVPDFBOX-3108
p1178
aVPDFBOX-3107
p1179
aVPDFBOX-3106
p1180
aVPDFBOX-3105
p1181
aVPDFBOX-3104
p1182
aVPDFBOX-3103
p1183
aVPDFBOX-3102
p1184
aVPDFBOX-3101
p1185
aVPDFBOX-3100
p1186
aVPDFBOX-3099
p1187
aVPDFBOX-3098
p1188
aVPDFBOX-3097
p1189
aVPDFBOX-3096
p1190
aVPDFBOX-3095
p1191
aVPDFBOX-3094
p1192
aVPDFBOX-3093
p1193
aVPDFBOX-3092
p1194
aVPDFBOX-3091
p1195
aVPDFBOX-3090
p1196
aVPDFBOX-3089
p1197
aVPDFBOX-3088
p1198
aVPDFBOX-3087
p1199
aVPDFBOX-3086
p1200
aVPDFBOX-3085
p1201
aVPDFBOX-3084
p1202
aVPDFBOX-3083
p1203
aVPDFBOX-3082
p1204
aVPDFBOX-3081
p1205
aVPDFBOX-3080
p1206
aVPDFBOX-3079
p1207
aVPDFBOX-3078
p1208
aVPDFBOX-3077
p1209
aVPDFBOX-3076
p1210
aVPDFBOX-3075
p1211
aVPDFBOX-3074
p1212
aVPDFBOX-3073
p1213
aVPDFBOX-3072
p1214
aVPDFBOX-3071
p1215
aVPDFBOX-3070
p1216
aVPDFBOX-3069
p1217
aVPDFBOX-3068
p1218
aVPDFBOX-3067
p1219
aVPDFBOX-3066
p1220
aVPDFBOX-3065
p1221
aVPDFBOX-3064
p1222
aVPDFBOX-3063
p1223
aVPDFBOX-3062
p1224
aVPDFBOX-3061
p1225
aVPDFBOX-3060
p1226
aVPDFBOX-3059
p1227
aVPDFBOX-3058
p1228
aVPDFBOX-3057
p1229
aVPDFBOX-3056
p1230
aVPDFBOX-3055
p1231
aVPDFBOX-3054
p1232
aVPDFBOX-3053
p1233
aVPDFBOX-3052
p1234
aVPDFBOX-3051
p1235
aVPDFBOX-3050
p1236
aVPDFBOX-3049
p1237
aVPDFBOX-3048
p1238
aVPDFBOX-3047
p1239
aVPDFBOX-3046
p1240
aVPDFBOX-3045
p1241
aVPDFBOX-3044
p1242
aVPDFBOX-3043
p1243
aVPDFBOX-3042
p1244
aVPDFBOX-3041
p1245
aVPDFBOX-3040
p1246
aVPDFBOX-3039
p1247
aVPDFBOX-3038
p1248
aVPDFBOX-3037
p1249
aVPDFBOX-3036
p1250
aVPDFBOX-3035
p1251
aVPDFBOX-3034
p1252
aVPDFBOX-3033
p1253
aVPDFBOX-3032
p1254
aVPDFBOX-3031
p1255
aVPDFBOX-3030
p1256
aVPDFBOX-3029
p1257
aVPDFBOX-3028
p1258
aVPDFBOX-3027
p1259
aVPDFBOX-3026
p1260
aVPDFBOX-3025
p1261
aVPDFBOX-3024
p1262
aVPDFBOX-3023
p1263
aVPDFBOX-3022
p1264
aVPDFBOX-3021
p1265
aVPDFBOX-3020
p1266
aVPDFBOX-3019
p1267
aVPDFBOX-3018
p1268
aVPDFBOX-3017
p1269
aVPDFBOX-3016
p1270
aVPDFBOX-3015
p1271
aVPDFBOX-3014
p1272
aVPDFBOX-3013
p1273
aVPDFBOX-3012
p1274
aVPDFBOX-3011
p1275
aVPDFBOX-3010
p1276
aVPDFBOX-3009
p1277
aVPDFBOX-3008
p1278
aVPDFBOX-3007
p1279
aVPDFBOX-3006
p1280
aVPDFBOX-3005
p1281
aVPDFBOX-3004
p1282
aVPDFBOX-3003
p1283
aVPDFBOX-3002
p1284
aVPDFBOX-3001
p1285
aVPDFBOX-3000
p1286
aVPDFBOX-2999
p1287
aVPDFBOX-2998
p1288
aVPDFBOX-2997
p1289
aVPDFBOX-2996
p1290
aVPDFBOX-2995
p1291
aVPDFBOX-2994
p1292
aVPDFBOX-2993
p1293
aVPDFBOX-2992
p1294
aVPDFBOX-2991
p1295
aVPDFBOX-2990
p1296
aVPDFBOX-2989
p1297
aVPDFBOX-2988
p1298
aVPDFBOX-2987
p1299
aVPDFBOX-2986
p1300
aVPDFBOX-2985
p1301
aVPDFBOX-2984
p1302
aVPDFBOX-2983
p1303
aVPDFBOX-2982
p1304
aVPDFBOX-2981
p1305
aVPDFBOX-2980
p1306
aVPDFBOX-2979
p1307
aVPDFBOX-2978
p1308
aVPDFBOX-2977
p1309
aVPDFBOX-2976
p1310
aVPDFBOX-2975
p1311
aVPDFBOX-2974
p1312
aVPDFBOX-2973
p1313
aVPDFBOX-2972
p1314
aVPDFBOX-2971
p1315
aVPDFBOX-2970
p1316
aVPDFBOX-2969
p1317
aVPDFBOX-2968
p1318
aVPDFBOX-2967
p1319
aVPDFBOX-2966
p1320
aVPDFBOX-2965
p1321
aVPDFBOX-2964
p1322
aVPDFBOX-2963
p1323
aVPDFBOX-2962
p1324
aVPDFBOX-2961
p1325
aVPDFBOX-2960
p1326
aVPDFBOX-2959
p1327
aVPDFBOX-2958
p1328
aVPDFBOX-2957
p1329
aVPDFBOX-2956
p1330
aVPDFBOX-2955
p1331
aVPDFBOX-2954
p1332
aVPDFBOX-2953
p1333
aVPDFBOX-2952
p1334
aVPDFBOX-2951
p1335
aVPDFBOX-2950
p1336
aVPDFBOX-2949
p1337
aVPDFBOX-2948
p1338
aVPDFBOX-2947
p1339
aVPDFBOX-2946
p1340
aVPDFBOX-2945
p1341
aVPDFBOX-2944
p1342
aVPDFBOX-2943
p1343
aVPDFBOX-2942
p1344
aVPDFBOX-2941
p1345
aVPDFBOX-2940
p1346
aVPDFBOX-2939
p1347
aVPDFBOX-2938
p1348
aVPDFBOX-2937
p1349
aVPDFBOX-2936
p1350
aVPDFBOX-2935
p1351
aVPDFBOX-2934
p1352
aVPDFBOX-2933
p1353
aVPDFBOX-2932
p1354
aVPDFBOX-2931
p1355
aVPDFBOX-2930
p1356
aVPDFBOX-2929
p1357
aVPDFBOX-2928
p1358
aVPDFBOX-2927
p1359
aVPDFBOX-2926
p1360
aVPDFBOX-2925
p1361
aVPDFBOX-2924
p1362
aVPDFBOX-2923
p1363
aVPDFBOX-2922
p1364
aVPDFBOX-2921
p1365
aVPDFBOX-2920
p1366
aVPDFBOX-2919
p1367
aVPDFBOX-2918
p1368
aVPDFBOX-2917
p1369
aVPDFBOX-2916
p1370
aVPDFBOX-2915
p1371
aVPDFBOX-2914
p1372
aVPDFBOX-2913
p1373
aVPDFBOX-2912
p1374
aVPDFBOX-2911
p1375
aVPDFBOX-2910
p1376
aVPDFBOX-2909
p1377
aVPDFBOX-2908
p1378
aVPDFBOX-2907
p1379
aVPDFBOX-2906
p1380
aVPDFBOX-2905
p1381
aVPDFBOX-2904
p1382
aVPDFBOX-2903
p1383
aVPDFBOX-2902
p1384
aVPDFBOX-2901
p1385
aVPDFBOX-2900
p1386
aVPDFBOX-2899
p1387
aVPDFBOX-2898
p1388
aVPDFBOX-2897
p1389
aVPDFBOX-2896
p1390
aVPDFBOX-2895
p1391
aVPDFBOX-2894
p1392
aVPDFBOX-2893
p1393
aVPDFBOX-2892
p1394
aVPDFBOX-2891
p1395
aVPDFBOX-2890
p1396
aVPDFBOX-2889
p1397
aVPDFBOX-2888
p1398
aVPDFBOX-2887
p1399
aVPDFBOX-2886
p1400
aVPDFBOX-2885
p1401
aVPDFBOX-2884
p1402
aVPDFBOX-2883
p1403
aVPDFBOX-2882
p1404
aVPDFBOX-2881
p1405
aVPDFBOX-2880
p1406
aVPDFBOX-2879
p1407
aVPDFBOX-2878
p1408
aVPDFBOX-2877
p1409
aVPDFBOX-2876
p1410
aVPDFBOX-2875
p1411
aVPDFBOX-2874
p1412
aVPDFBOX-2873
p1413
aVPDFBOX-2872
p1414
aVPDFBOX-2871
p1415
aVPDFBOX-2870
p1416
aVPDFBOX-2869
p1417
aVPDFBOX-2868
p1418
aVPDFBOX-2867
p1419
aVPDFBOX-2866
p1420
aVPDFBOX-2865
p1421
aVPDFBOX-2864
p1422
aVPDFBOX-2863
p1423
aVPDFBOX-2862
p1424
aVPDFBOX-2861
p1425
aVPDFBOX-2860
p1426
aVPDFBOX-2859
p1427
aVPDFBOX-2858
p1428
aVPDFBOX-2857
p1429
aVPDFBOX-2856
p1430
aVPDFBOX-2855
p1431
aVPDFBOX-2854
p1432
aVPDFBOX-2853
p1433
aVPDFBOX-2852
p1434
aVPDFBOX-2851
p1435
aVPDFBOX-2850
p1436
aVPDFBOX-2849
p1437
aVPDFBOX-2848
p1438
aVPDFBOX-2847
p1439
aVPDFBOX-2846
p1440
aVPDFBOX-2845
p1441
aVPDFBOX-2844
p1442
aVPDFBOX-2843
p1443
aVPDFBOX-2842
p1444
aVPDFBOX-2841
p1445
aVPDFBOX-2840
p1446
aVPDFBOX-2839
p1447
aVPDFBOX-2838
p1448
aVPDFBOX-2837
p1449
aVPDFBOX-2836
p1450
aVPDFBOX-2835
p1451
aVPDFBOX-2834
p1452
aVPDFBOX-2833
p1453
aVPDFBOX-2832
p1454
aVPDFBOX-2831
p1455
aVPDFBOX-2830
p1456
aVPDFBOX-2829
p1457
aVPDFBOX-2828
p1458
aVPDFBOX-2827
p1459
aVPDFBOX-2826
p1460
aVPDFBOX-2825
p1461
aVPDFBOX-2824
p1462
aVPDFBOX-2823
p1463
aVPDFBOX-2822
p1464
aVPDFBOX-2821
p1465
aVPDFBOX-2820
p1466
aVPDFBOX-2819
p1467
aVPDFBOX-2818
p1468
aVPDFBOX-2817
p1469
aVPDFBOX-2816
p1470
aVPDFBOX-2815
p1471
aVPDFBOX-2814
p1472
aVPDFBOX-2813
p1473
aVPDFBOX-2812
p1474
aVPDFBOX-2811
p1475
aVPDFBOX-2810
p1476
aVPDFBOX-2809
p1477
aVPDFBOX-2808
p1478
aVPDFBOX-2807
p1479
aVPDFBOX-2806
p1480
aVPDFBOX-2805
p1481
aVPDFBOX-2804
p1482
aVPDFBOX-2803
p1483
aVPDFBOX-2802
p1484
aVPDFBOX-2801
p1485
aVPDFBOX-2800
p1486
aVPDFBOX-2799
p1487
aVPDFBOX-2798
p1488
aVPDFBOX-2797
p1489
aVPDFBOX-2796
p1490
aVPDFBOX-2795
p1491
aVPDFBOX-2794
p1492
aVPDFBOX-2793
p1493
aVPDFBOX-2792
p1494
aVPDFBOX-2791
p1495
aVPDFBOX-2790
p1496
aVPDFBOX-2789
p1497
aVPDFBOX-2788
p1498
aVPDFBOX-2787
p1499
aVPDFBOX-2786
p1500
aVPDFBOX-2785
p1501
aVPDFBOX-2784
p1502
aVPDFBOX-2783
p1503
aVPDFBOX-2782
p1504
aVPDFBOX-2781
p1505
aVPDFBOX-2780
p1506
aVPDFBOX-2779
p1507
aVPDFBOX-2778
p1508
aVPDFBOX-2777
p1509
aVPDFBOX-2776
p1510
aVPDFBOX-2775
p1511
aVPDFBOX-2774
p1512
aVPDFBOX-2773
p1513
aVPDFBOX-2772
p1514
aVPDFBOX-2771
p1515
aVPDFBOX-2770
p1516
aVPDFBOX-2769
p1517
aVPDFBOX-2768
p1518
aVPDFBOX-2767
p1519
aVPDFBOX-2766
p1520
aVPDFBOX-2765
p1521
aVPDFBOX-2764
p1522
aVPDFBOX-2763
p1523
aVPDFBOX-2762
p1524
aVPDFBOX-2761
p1525
aVPDFBOX-2760
p1526
aVPDFBOX-2759
p1527
aVPDFBOX-2758
p1528
aVPDFBOX-2757
p1529
aVPDFBOX-2756
p1530
aVPDFBOX-2755
p1531
aVPDFBOX-2754
p1532
aVPDFBOX-2753
p1533
aVPDFBOX-2752
p1534
aVPDFBOX-2751
p1535
aVPDFBOX-2750
p1536
aVPDFBOX-2749
p1537
aVPDFBOX-2748
p1538
aVPDFBOX-2747
p1539
aVPDFBOX-2746
p1540
aVPDFBOX-2745
p1541
aVPDFBOX-2744
p1542
aVPDFBOX-2743
p1543
aVPDFBOX-2742
p1544
aVPDFBOX-2741
p1545
aVPDFBOX-2740
p1546
aVPDFBOX-2739
p1547
aVPDFBOX-2738
p1548
aVPDFBOX-2737
p1549
aVPDFBOX-2736
p1550
aVPDFBOX-2735
p1551
aVPDFBOX-2734
p1552
aVPDFBOX-2733
p1553
aVPDFBOX-2732
p1554
aVPDFBOX-2731
p1555
aVPDFBOX-2730
p1556
aVPDFBOX-2729
p1557
aVPDFBOX-2728
p1558
aVPDFBOX-2727
p1559
aVPDFBOX-2726
p1560
aVPDFBOX-2725
p1561
aVPDFBOX-2724
p1562
aVPDFBOX-2723
p1563
aVPDFBOX-2722
p1564
aVPDFBOX-2721
p1565
aVPDFBOX-2720
p1566
aVPDFBOX-2719
p1567
aVPDFBOX-2718
p1568
aVPDFBOX-2717
p1569
aVPDFBOX-2716
p1570
aVPDFBOX-2715
p1571
aVPDFBOX-2714
p1572
aVPDFBOX-2713
p1573
aVPDFBOX-2712
p1574
aVPDFBOX-2711
p1575
aVPDFBOX-2710
p1576
aVPDFBOX-2709
p1577
aVPDFBOX-2708
p1578
aVPDFBOX-2707
p1579
aVPDFBOX-2706
p1580
aVPDFBOX-2705
p1581
aVPDFBOX-2704
p1582
aVPDFBOX-2703
p1583
aVPDFBOX-2702
p1584
aVPDFBOX-2701
p1585
aVPDFBOX-2700
p1586
aVPDFBOX-2699
p1587
aVPDFBOX-2698
p1588
aVPDFBOX-2697
p1589
aVPDFBOX-2696
p1590
aVPDFBOX-2695
p1591
aVPDFBOX-2694
p1592
aVPDFBOX-2693
p1593
aVPDFBOX-2692
p1594
aVPDFBOX-2691
p1595
aVPDFBOX-2690
p1596
aVPDFBOX-2689
p1597
aVPDFBOX-2688
p1598
aVPDFBOX-2687
p1599
aVPDFBOX-2686
p1600
aVPDFBOX-2685
p1601
aVPDFBOX-2684
p1602
aVPDFBOX-2683
p1603
aVPDFBOX-2682
p1604
aVPDFBOX-2681
p1605
aVPDFBOX-2680
p1606
aVPDFBOX-2679
p1607
aVPDFBOX-2678
p1608
aVPDFBOX-2677
p1609
aVPDFBOX-2676
p1610
aVPDFBOX-2675
p1611
aVPDFBOX-2674
p1612
aVPDFBOX-2673
p1613
aVPDFBOX-2672
p1614
aVPDFBOX-2671
p1615
aVPDFBOX-2670
p1616
aVPDFBOX-2669
p1617
aVPDFBOX-2668
p1618
aVPDFBOX-2667
p1619
aVPDFBOX-2666
p1620
aVPDFBOX-2665
p1621
aVPDFBOX-2664
p1622
aVPDFBOX-2663
p1623
aVPDFBOX-2662
p1624
aVPDFBOX-2661
p1625
aVPDFBOX-2660
p1626
aVPDFBOX-2659
p1627
aVPDFBOX-2658
p1628
aVPDFBOX-2657
p1629
aVPDFBOX-2656
p1630
aVPDFBOX-2655
p1631
aVPDFBOX-2654
p1632
aVPDFBOX-2653
p1633
aVPDFBOX-2652
p1634
aVPDFBOX-2651
p1635
aVPDFBOX-2650
p1636
aVPDFBOX-2649
p1637
aVPDFBOX-2648
p1638
aVPDFBOX-2647
p1639
aVPDFBOX-2646
p1640
aVPDFBOX-2645
p1641
aVPDFBOX-2644
p1642
aVPDFBOX-2643
p1643
aVPDFBOX-2642
p1644
aVPDFBOX-2641
p1645
aVPDFBOX-2640
p1646
aVPDFBOX-2639
p1647
aVPDFBOX-2638
p1648
aVPDFBOX-2637
p1649
aVPDFBOX-2636
p1650
aVPDFBOX-2635
p1651
aVPDFBOX-2634
p1652
aVPDFBOX-2633
p1653
aVPDFBOX-2632
p1654
aVPDFBOX-2631
p1655
aVPDFBOX-2630
p1656
aVPDFBOX-2629
p1657
aVPDFBOX-2628
p1658
aVPDFBOX-2627
p1659
aVPDFBOX-2626
p1660
aVPDFBOX-2625
p1661
aVPDFBOX-2624
p1662
aVPDFBOX-2623
p1663
aVPDFBOX-2622
p1664
aVPDFBOX-2621
p1665
aVPDFBOX-2620
p1666
aVPDFBOX-2619
p1667
aVPDFBOX-2618
p1668
aVPDFBOX-2617
p1669
aVPDFBOX-2616
p1670
aVPDFBOX-2615
p1671
aVPDFBOX-2614
p1672
aVPDFBOX-2613
p1673
aVPDFBOX-2612
p1674
aVPDFBOX-2611
p1675
aVPDFBOX-2610
p1676
aVPDFBOX-2609
p1677
aVPDFBOX-2608
p1678
aVPDFBOX-2607
p1679
aVPDFBOX-2606
p1680
aVPDFBOX-2605
p1681
aVPDFBOX-2604
p1682
aVPDFBOX-2603
p1683
aVPDFBOX-2602
p1684
aVPDFBOX-2601
p1685
aVPDFBOX-2600
p1686
aVPDFBOX-2599
p1687
aVPDFBOX-2598
p1688
aVPDFBOX-2597
p1689
aVPDFBOX-2596
p1690
aVPDFBOX-2595
p1691
aVPDFBOX-2594
p1692
aVPDFBOX-2593
p1693
aVPDFBOX-2592
p1694
aVPDFBOX-2591
p1695
aVPDFBOX-2590
p1696
aVPDFBOX-2589
p1697
aVPDFBOX-2588
p1698
aVPDFBOX-2587
p1699
aVPDFBOX-2586
p1700
aVPDFBOX-2585
p1701
aVPDFBOX-2584
p1702
aVPDFBOX-2583
p1703
aVPDFBOX-2582
p1704
aVPDFBOX-2581
p1705
aVPDFBOX-2580
p1706
aVPDFBOX-2579
p1707
aVPDFBOX-2578
p1708
aVPDFBOX-2577
p1709
aVPDFBOX-2576
p1710
aVPDFBOX-2575
p1711
aVPDFBOX-2574
p1712
aVPDFBOX-2573
p1713
aVPDFBOX-2572
p1714
aVPDFBOX-2571
p1715
aVPDFBOX-2570
p1716
aVPDFBOX-2569
p1717
aVPDFBOX-2568
p1718
aVPDFBOX-2567
p1719
aVPDFBOX-2566
p1720
aVPDFBOX-2565
p1721
aVPDFBOX-2564
p1722
aVPDFBOX-2563
p1723
aVPDFBOX-2562
p1724
aVPDFBOX-2561
p1725
aVPDFBOX-2560
p1726
aVPDFBOX-2559
p1727
aVPDFBOX-2558
p1728
aVPDFBOX-2557
p1729
aVPDFBOX-2556
p1730
aVPDFBOX-2555
p1731
aVPDFBOX-2554
p1732
aVPDFBOX-2553
p1733
aVPDFBOX-2552
p1734
aVPDFBOX-2551
p1735
aVPDFBOX-2550
p1736
aVPDFBOX-2549
p1737
aVPDFBOX-2548
p1738
aVPDFBOX-2547
p1739
aVPDFBOX-2546
p1740
aVPDFBOX-2545
p1741
aVPDFBOX-2544
p1742
aVPDFBOX-2543
p1743
aVPDFBOX-2542
p1744
aVPDFBOX-2541
p1745
aVPDFBOX-2540
p1746
aVPDFBOX-2539
p1747
aVPDFBOX-2538
p1748
aVPDFBOX-2537
p1749
aVPDFBOX-2536
p1750
aVPDFBOX-2535
p1751
aVPDFBOX-2534
p1752
aVPDFBOX-2533
p1753
aVPDFBOX-2532
p1754
aVPDFBOX-2531
p1755
aVPDFBOX-2530
p1756
aVPDFBOX-2529
p1757
aVPDFBOX-2528
p1758
aVPDFBOX-2527
p1759
aVPDFBOX-2526
p1760
aVPDFBOX-2525
p1761
aVPDFBOX-2524
p1762
aVPDFBOX-2523
p1763
aVPDFBOX-2522
p1764
aVPDFBOX-2521
p1765
aVPDFBOX-2520
p1766
aVPDFBOX-2519
p1767
aVPDFBOX-2518
p1768
aVPDFBOX-2517
p1769
aVPDFBOX-2516
p1770
aVPDFBOX-2515
p1771
aVPDFBOX-2514
p1772
aVPDFBOX-2513
p1773
aVPDFBOX-2512
p1774
aVPDFBOX-2511
p1775
aVPDFBOX-2510
p1776
aVPDFBOX-2509
p1777
aVPDFBOX-2508
p1778
aVPDFBOX-2507
p1779
aVPDFBOX-2506
p1780
aVPDFBOX-2505
p1781
aVPDFBOX-2504
p1782
aVPDFBOX-2503
p1783
aVPDFBOX-2502
p1784
aVPDFBOX-2501
p1785
aVPDFBOX-2500
p1786
aVPDFBOX-2499
p1787
aVPDFBOX-2498
p1788
aVPDFBOX-2497
p1789
aVPDFBOX-2496
p1790
aVPDFBOX-2495
p1791
aVPDFBOX-2494
p1792
aVPDFBOX-2493
p1793
aVPDFBOX-2492
p1794
aVPDFBOX-2491
p1795
aVPDFBOX-2490
p1796
aVPDFBOX-2489
p1797
aVPDFBOX-2488
p1798
aVPDFBOX-2487
p1799
aVPDFBOX-2486
p1800
aVPDFBOX-2485
p1801
aVPDFBOX-2484
p1802
aVPDFBOX-2483
p1803
aVPDFBOX-2482
p1804
aVPDFBOX-2481
p1805
aVPDFBOX-2480
p1806
aVPDFBOX-2479
p1807
aVPDFBOX-2478
p1808
aVPDFBOX-2477
p1809
aVPDFBOX-2476
p1810
aVPDFBOX-2475
p1811
aVPDFBOX-2474
p1812
aVPDFBOX-2473
p1813
aVPDFBOX-2472
p1814
aVPDFBOX-2471
p1815
aVPDFBOX-2470
p1816
aVPDFBOX-2469
p1817
aVPDFBOX-2468
p1818
aVPDFBOX-2467
p1819
aVPDFBOX-2466
p1820
aVPDFBOX-2465
p1821
aVPDFBOX-2464
p1822
aVPDFBOX-2463
p1823
aVPDFBOX-2462
p1824
aVPDFBOX-2461
p1825
aVPDFBOX-2460
p1826
aVPDFBOX-2459
p1827
aVPDFBOX-2458
p1828
aVPDFBOX-2457
p1829
aVPDFBOX-2456
p1830
aVPDFBOX-2455
p1831
aVPDFBOX-2454
p1832
aVPDFBOX-2453
p1833
aVPDFBOX-2452
p1834
aVPDFBOX-2451
p1835
aVPDFBOX-2450
p1836
aVPDFBOX-2449
p1837
aVPDFBOX-2448
p1838
aVPDFBOX-2447
p1839
aVPDFBOX-2446
p1840
aVPDFBOX-2445
p1841
aVPDFBOX-2444
p1842
aVPDFBOX-2443
p1843
aVPDFBOX-2442
p1844
aVPDFBOX-2441
p1845
aVPDFBOX-2440
p1846
aVPDFBOX-2439
p1847
aVPDFBOX-2438
p1848
aVPDFBOX-2437
p1849
aVPDFBOX-2436
p1850
aVPDFBOX-2435
p1851
aVPDFBOX-2434
p1852
aVPDFBOX-2433
p1853
aVPDFBOX-2432
p1854
aVPDFBOX-2431
p1855
aVPDFBOX-2430
p1856
aVPDFBOX-2429
p1857
aVPDFBOX-2428
p1858
aVPDFBOX-2427
p1859
aVPDFBOX-2426
p1860
aVPDFBOX-2425
p1861
aVPDFBOX-2424
p1862
aVPDFBOX-2423
p1863
aVPDFBOX-2422
p1864
aVPDFBOX-2421
p1865
aVPDFBOX-2420
p1866
aVPDFBOX-2419
p1867
aVPDFBOX-2418
p1868
aVPDFBOX-2417
p1869
aVPDFBOX-2416
p1870
aVPDFBOX-2415
p1871
aVPDFBOX-2414
p1872
aVPDFBOX-2413
p1873
aVPDFBOX-2412
p1874
aVPDFBOX-2411
p1875
aVPDFBOX-2410
p1876
aVPDFBOX-2409
p1877
aVPDFBOX-2408
p1878
aVPDFBOX-2407
p1879
aVPDFBOX-2406
p1880
aVPDFBOX-2405
p1881
aVPDFBOX-2404
p1882
aVPDFBOX-2403
p1883
aVPDFBOX-2402
p1884
aVPDFBOX-2401
p1885
aVPDFBOX-2400
p1886
aVPDFBOX-2399
p1887
aVPDFBOX-2398
p1888
aVPDFBOX-2397
p1889
aVPDFBOX-2396
p1890
aVPDFBOX-2395
p1891
aVPDFBOX-2394
p1892
aVPDFBOX-2393
p1893
aVPDFBOX-2392
p1894
aVPDFBOX-2391
p1895
aVPDFBOX-2390
p1896
aVPDFBOX-2389
p1897
aVPDFBOX-2388
p1898
aVPDFBOX-2387
p1899
aVPDFBOX-2386
p1900
aVPDFBOX-2385
p1901
aVPDFBOX-2384
p1902
aVPDFBOX-2383
p1903
aVPDFBOX-2382
p1904
aVPDFBOX-2381
p1905
aVPDFBOX-2380
p1906
aVPDFBOX-2379
p1907
aVPDFBOX-2378
p1908
aVPDFBOX-2377
p1909
aVPDFBOX-2376
p1910
aVPDFBOX-2375
p1911
aVPDFBOX-2374
p1912
aVPDFBOX-2373
p1913
aVPDFBOX-2372
p1914
aVPDFBOX-2371
p1915
aVPDFBOX-2370
p1916
aVPDFBOX-2369
p1917
aVPDFBOX-2368
p1918
aVPDFBOX-2367
p1919
aVPDFBOX-2366
p1920
aVPDFBOX-2365
p1921
aVPDFBOX-2364
p1922
aVPDFBOX-2363
p1923
aVPDFBOX-2362
p1924
aVPDFBOX-2361
p1925
aVPDFBOX-2360
p1926
aVPDFBOX-2359
p1927
aVPDFBOX-2358
p1928
aVPDFBOX-2357
p1929
aVPDFBOX-2356
p1930
aVPDFBOX-2355
p1931
aVPDFBOX-2354
p1932
aVPDFBOX-2353
p1933
aVPDFBOX-2352
p1934
aVPDFBOX-2351
p1935
aVPDFBOX-2350
p1936
aVPDFBOX-2349
p1937
aVPDFBOX-2348
p1938
aVPDFBOX-2347
p1939
aVPDFBOX-2346
p1940
aVPDFBOX-2345
p1941
aVPDFBOX-2344
p1942
aVPDFBOX-2343
p1943
aVPDFBOX-2342
p1944
aVPDFBOX-2341
p1945
aVPDFBOX-2340
p1946
aVPDFBOX-2339
p1947
aVPDFBOX-2338
p1948
aVPDFBOX-2337
p1949
aVPDFBOX-2336
p1950
aVPDFBOX-2335
p1951
aVPDFBOX-2334
p1952
aVPDFBOX-2333
p1953
aVPDFBOX-2332
p1954
aVPDFBOX-2331
p1955
aVPDFBOX-2330
p1956
aVPDFBOX-2329
p1957
aVPDFBOX-2328
p1958
aVPDFBOX-2327
p1959
aVPDFBOX-2326
p1960
aVPDFBOX-2325
p1961
aVPDFBOX-2324
p1962
aVPDFBOX-2323
p1963
aVPDFBOX-2322
p1964
aVPDFBOX-2321
p1965
aVPDFBOX-2320
p1966
aVPDFBOX-2319
p1967
aVPDFBOX-2318
p1968
aVPDFBOX-2317
p1969
aVPDFBOX-2316
p1970
aVPDFBOX-2315
p1971
aVPDFBOX-2314
p1972
aVPDFBOX-2313
p1973
aVPDFBOX-2312
p1974
aVPDFBOX-2311
p1975
aVPDFBOX-2310
p1976
aVPDFBOX-2309
p1977
aVPDFBOX-2308
p1978
aVPDFBOX-2307
p1979
aVPDFBOX-2306
p1980
aVPDFBOX-2305
p1981
aVPDFBOX-2304
p1982
aVPDFBOX-2303
p1983
aVPDFBOX-2302
p1984
aVPDFBOX-2301
p1985
aVPDFBOX-2300
p1986
aVPDFBOX-2299
p1987
aVPDFBOX-2298
p1988
aVPDFBOX-2297
p1989
aVPDFBOX-2296
p1990
aVPDFBOX-2295
p1991
aVPDFBOX-2294
p1992
aVPDFBOX-2293
p1993
aVPDFBOX-2292
p1994
aVPDFBOX-2291
p1995
aVPDFBOX-2290
p1996
aVPDFBOX-2289
p1997
aVPDFBOX-2288
p1998
aVPDFBOX-2287
p1999
aVPDFBOX-2286
p2000
aVPDFBOX-2285
p2001
aVPDFBOX-2284
p2002
aVPDFBOX-2283
p2003
aVPDFBOX-2282
p2004
aVPDFBOX-2281
p2005
aVPDFBOX-2280
p2006
aVPDFBOX-2279
p2007
aVPDFBOX-2278
p2008
aVPDFBOX-2277
p2009
aVPDFBOX-2276
p2010
aVPDFBOX-2275
p2011
aVPDFBOX-2274
p2012
aVPDFBOX-2273
p2013
aVPDFBOX-2272
p2014
aVPDFBOX-2271
p2015
aVPDFBOX-2270
p2016
aVPDFBOX-2269
p2017
aVPDFBOX-2268
p2018
aVPDFBOX-2267
p2019
aVPDFBOX-2266
p2020
aVPDFBOX-2265
p2021
aVPDFBOX-2264
p2022
aVPDFBOX-2263
p2023
aVPDFBOX-2262
p2024
aVPDFBOX-2261
p2025
aVPDFBOX-2260
p2026
aVPDFBOX-2259
p2027
aVPDFBOX-2258
p2028
aVPDFBOX-2257
p2029
aVPDFBOX-2256
p2030
aVPDFBOX-2255
p2031
aVPDFBOX-2254
p2032
aVPDFBOX-2253
p2033
aVPDFBOX-2252
p2034
aVPDFBOX-2251
p2035
aVPDFBOX-2250
p2036
aVPDFBOX-2249
p2037
aVPDFBOX-2248
p2038
aVPDFBOX-2247
p2039
aVPDFBOX-2246
p2040
aVPDFBOX-2245
p2041
aVPDFBOX-2244
p2042
aVPDFBOX-2243
p2043
aVPDFBOX-2242
p2044
aVPDFBOX-2241
p2045
aVPDFBOX-2240
p2046
aVPDFBOX-2239
p2047
aVPDFBOX-2238
p2048
aVPDFBOX-2237
p2049
aVPDFBOX-2236
p2050
aVPDFBOX-2235
p2051
aVPDFBOX-2234
p2052
aVPDFBOX-2233
p2053
aVPDFBOX-2232
p2054
aVPDFBOX-2231
p2055
aVPDFBOX-2230
p2056
aVPDFBOX-2229
p2057
aVPDFBOX-2228
p2058
aVPDFBOX-2227
p2059
aVPDFBOX-2226
p2060
aVPDFBOX-2225
p2061
aVPDFBOX-2224
p2062
aVPDFBOX-2223
p2063
aVPDFBOX-2222
p2064
aVPDFBOX-2221
p2065
aVPDFBOX-2220
p2066
aVPDFBOX-2219
p2067
aVPDFBOX-2218
p2068
aVPDFBOX-2217
p2069
aVPDFBOX-2216
p2070
aVPDFBOX-2215
p2071
aVPDFBOX-2214
p2072
aVPDFBOX-2213
p2073
aVPDFBOX-2212
p2074
aVPDFBOX-2211
p2075
aVPDFBOX-2210
p2076
aVPDFBOX-2209
p2077
aVPDFBOX-2208
p2078
aVPDFBOX-2207
p2079
aVPDFBOX-2206
p2080
aVPDFBOX-2205
p2081
aVPDFBOX-2204
p2082
aVPDFBOX-2203
p2083
aVPDFBOX-2202
p2084
aVPDFBOX-2201
p2085
aVPDFBOX-2200
p2086
aVPDFBOX-2199
p2087
aVPDFBOX-2198
p2088
aVPDFBOX-2197
p2089
aVPDFBOX-2196
p2090
aVPDFBOX-2195
p2091
aVPDFBOX-2194
p2092
aVPDFBOX-2193
p2093
aVPDFBOX-2192
p2094
aVPDFBOX-2191
p2095
aVPDFBOX-2190
p2096
aVPDFBOX-2189
p2097
aVPDFBOX-2188
p2098
aVPDFBOX-2187
p2099
aVPDFBOX-2186
p2100
aVPDFBOX-2185
p2101
aVPDFBOX-2184
p2102
aVPDFBOX-2183
p2103
aVPDFBOX-2182
p2104
aVPDFBOX-2181
p2105
aVPDFBOX-2180
p2106
aVPDFBOX-2179
p2107
aVPDFBOX-2178
p2108
aVPDFBOX-2177
p2109
aVPDFBOX-2176
p2110
aVPDFBOX-2175
p2111
aVPDFBOX-2174
p2112
aVPDFBOX-2173
p2113
aVPDFBOX-2172
p2114
aVPDFBOX-2171
p2115
aVPDFBOX-2170
p2116
aVPDFBOX-2169
p2117
aVPDFBOX-2168
p2118
aVPDFBOX-2167
p2119
aVPDFBOX-2166
p2120
aVPDFBOX-2165
p2121
aVPDFBOX-2164
p2122
aVPDFBOX-2163
p2123
aVPDFBOX-2162
p2124
aVPDFBOX-2161
p2125
aVPDFBOX-2160
p2126
aVPDFBOX-2159
p2127
aVPDFBOX-2158
p2128
aVPDFBOX-2157
p2129
aVPDFBOX-2156
p2130
aVPDFBOX-2155
p2131
aVPDFBOX-2154
p2132
aVPDFBOX-2153
p2133
aVPDFBOX-2152
p2134
aVPDFBOX-2151
p2135
aVPDFBOX-2150
p2136
aVPDFBOX-2149
p2137
aVPDFBOX-2148
p2138
aVPDFBOX-2147
p2139
aVPDFBOX-2146
p2140
aVPDFBOX-2145
p2141
aVPDFBOX-2144
p2142
aVPDFBOX-2143
p2143
aVPDFBOX-2142
p2144
aVPDFBOX-2141
p2145
aVPDFBOX-2140
p2146
aVPDFBOX-2139
p2147
aVPDFBOX-2138
p2148
aVPDFBOX-2137
p2149
aVPDFBOX-2136
p2150
aVPDFBOX-2135
p2151
aVPDFBOX-2134
p2152
aVPDFBOX-2133
p2153
aVPDFBOX-2132
p2154
aVPDFBOX-2131
p2155
aVPDFBOX-2130
p2156
aVPDFBOX-2129
p2157
aVPDFBOX-2128
p2158
aVPDFBOX-2127
p2159
aVPDFBOX-2126
p2160
aVPDFBOX-2125
p2161
aVPDFBOX-2124
p2162
aVPDFBOX-2123
p2163
aVPDFBOX-2122
p2164
aVPDFBOX-2121
p2165
aVPDFBOX-2120
p2166
aVPDFBOX-2119
p2167
aVPDFBOX-2118
p2168
aVPDFBOX-2117
p2169
aVPDFBOX-2116
p2170
aVPDFBOX-2115
p2171
aVPDFBOX-2114
p2172
aVPDFBOX-2113
p2173
aVPDFBOX-2112
p2174
aVPDFBOX-2111
p2175
aVPDFBOX-2110
p2176
aVPDFBOX-2109
p2177
aVPDFBOX-2108
p2178
aVPDFBOX-2107
p2179
aVPDFBOX-2106
p2180
aVPDFBOX-2105
p2181
aVPDFBOX-2104
p2182
aVPDFBOX-2103
p2183
aVPDFBOX-2102
p2184
aVPDFBOX-2101
p2185
aVPDFBOX-2100
p2186
aVPDFBOX-2099
p2187
aVPDFBOX-2098
p2188
aVPDFBOX-2097
p2189
aVPDFBOX-2096
p2190
aVPDFBOX-2095
p2191
aVPDFBOX-2094
p2192
aVPDFBOX-2093
p2193
aVPDFBOX-2092
p2194
aVPDFBOX-2091
p2195
aVPDFBOX-2090
p2196
aVPDFBOX-2089
p2197
aVPDFBOX-2088
p2198
aVPDFBOX-2087
p2199
aVPDFBOX-2086
p2200
aVPDFBOX-2085
p2201
aVPDFBOX-2084
p2202
aVPDFBOX-2083
p2203
aVPDFBOX-2082
p2204
aVPDFBOX-2081
p2205
aVPDFBOX-2080
p2206
aVPDFBOX-2079
p2207
aVPDFBOX-2078
p2208
aVPDFBOX-2077
p2209
aVPDFBOX-2076
p2210
aVPDFBOX-2075
p2211
aVPDFBOX-2074
p2212
aVPDFBOX-2073
p2213
aVPDFBOX-2072
p2214
aVPDFBOX-2071
p2215
aVPDFBOX-2070
p2216
aVPDFBOX-2069
p2217
aVPDFBOX-2068
p2218
aVPDFBOX-2067
p2219
aVPDFBOX-2066
p2220
aVPDFBOX-2065
p2221
aVPDFBOX-2064
p2222
aVPDFBOX-2063
p2223
aVPDFBOX-2062
p2224
aVPDFBOX-2061
p2225
aVPDFBOX-2060
p2226
aVPDFBOX-2059
p2227
aVPDFBOX-2058
p2228
aVPDFBOX-2057
p2229
aVPDFBOX-2056
p2230
aVPDFBOX-2055
p2231
aVPDFBOX-2054
p2232
aVPDFBOX-2053
p2233
aVPDFBOX-2052
p2234
aVPDFBOX-2051
p2235
aVPDFBOX-2050
p2236
aVPDFBOX-2049
p2237
aVPDFBOX-2048
p2238
aVPDFBOX-2047
p2239
aVPDFBOX-2046
p2240
aVPDFBOX-2045
p2241
aVPDFBOX-2044
p2242
aVPDFBOX-2043
p2243
aVPDFBOX-2042
p2244
aVPDFBOX-2041
p2245
aVPDFBOX-2040
p2246
aVPDFBOX-2039
p2247
aVPDFBOX-2038
p2248
aVPDFBOX-2037
p2249
aVPDFBOX-2036
p2250
aVPDFBOX-2035
p2251
aVPDFBOX-2034
p2252
aVPDFBOX-2033
p2253
aVPDFBOX-2032
p2254
aVPDFBOX-2031
p2255
aVPDFBOX-2030
p2256
aVPDFBOX-2029
p2257
aVPDFBOX-2028
p2258
aVPDFBOX-2027
p2259
aVPDFBOX-2026
p2260
aVPDFBOX-2025
p2261
aVPDFBOX-2024
p2262
aVPDFBOX-2023
p2263
aVPDFBOX-2022
p2264
aVPDFBOX-2021
p2265
aVPDFBOX-2020
p2266
aVPDFBOX-2019
p2267
aVPDFBOX-2018
p2268
aVPDFBOX-2017
p2269
aVPDFBOX-2016
p2270
aVPDFBOX-2015
p2271
aVPDFBOX-2014
p2272
aVPDFBOX-2013
p2273
aVPDFBOX-2012
p2274
aVPDFBOX-2011
p2275
aVPDFBOX-2010
p2276
aVPDFBOX-2009
p2277
aVPDFBOX-2008
p2278
aVPDFBOX-2007
p2279
aVPDFBOX-2006
p2280
aVPDFBOX-2005
p2281
aVPDFBOX-2004
p2282
aVPDFBOX-2003
p2283
aVPDFBOX-2002
p2284
aVPDFBOX-2001
p2285
aVPDFBOX-2000
p2286
aVPDFBOX-1999
p2287
aVPDFBOX-1998
p2288
aVPDFBOX-1997
p2289
aVPDFBOX-1996
p2290
aVPDFBOX-1995
p2291
aVPDFBOX-1994
p2292
aVPDFBOX-1993
p2293
aVPDFBOX-1992
p2294
aVPDFBOX-1991
p2295
aVPDFBOX-1990
p2296
aVPDFBOX-1989
p2297
aVPDFBOX-1988
p2298
aVPDFBOX-1987
p2299
aVPDFBOX-1986
p2300
aVPDFBOX-1985
p2301
aVPDFBOX-1984
p2302
aVPDFBOX-1983
p2303
aVPDFBOX-1982
p2304
aVPDFBOX-1981
p2305
aVPDFBOX-1980
p2306
aVPDFBOX-1979
p2307
aVPDFBOX-1978
p2308
aVPDFBOX-1977
p2309
aVPDFBOX-1976
p2310
aVPDFBOX-1975
p2311
aVPDFBOX-1974
p2312
aVPDFBOX-1973
p2313
aVPDFBOX-1972
p2314
aVPDFBOX-1971
p2315
aVPDFBOX-1970
p2316
aVPDFBOX-1969
p2317
aVPDFBOX-1968
p2318
aVPDFBOX-1967
p2319
aVPDFBOX-1966
p2320
aVPDFBOX-1965
p2321
aVPDFBOX-1964
p2322
aVPDFBOX-1963
p2323
aVPDFBOX-1962
p2324
aVPDFBOX-1961
p2325
aVPDFBOX-1960
p2326
aVPDFBOX-1959
p2327
aVPDFBOX-1958
p2328
aVPDFBOX-1957
p2329
aVPDFBOX-1956
p2330
aVPDFBOX-1955
p2331
aVPDFBOX-1954
p2332
aVPDFBOX-1953
p2333
aVPDFBOX-1952
p2334
aVPDFBOX-1951
p2335
aVPDFBOX-1950
p2336
aVPDFBOX-1949
p2337
aVPDFBOX-1948
p2338
aVPDFBOX-1947
p2339
aVPDFBOX-1946
p2340
aVPDFBOX-1945
p2341
aVPDFBOX-1944
p2342
aVPDFBOX-1943
p2343
aVPDFBOX-1942
p2344
aVPDFBOX-1941
p2345
aVPDFBOX-1940
p2346
aVPDFBOX-1939
p2347
aVPDFBOX-1938
p2348
aVPDFBOX-1937
p2349
aVPDFBOX-1936
p2350
aVPDFBOX-1935
p2351
aVPDFBOX-1934
p2352
aVPDFBOX-1933
p2353
aVPDFBOX-1932
p2354
aVPDFBOX-1931
p2355
aVPDFBOX-1930
p2356
aVPDFBOX-1929
p2357
aVPDFBOX-1928
p2358
aVPDFBOX-1927
p2359
aVPDFBOX-1926
p2360
aVPDFBOX-1925
p2361
aVPDFBOX-1924
p2362
aVPDFBOX-1923
p2363
aVPDFBOX-1922
p2364
aVPDFBOX-1921
p2365
aVPDFBOX-1920
p2366
aVPDFBOX-1919
p2367
aVPDFBOX-1918
p2368
aVPDFBOX-1917
p2369
aVPDFBOX-1916
p2370
aVPDFBOX-1915
p2371
aVPDFBOX-1914
p2372
aVPDFBOX-1913
p2373
aVPDFBOX-1912
p2374
aVPDFBOX-1911
p2375
aVPDFBOX-1910
p2376
aVPDFBOX-1909
p2377
aVPDFBOX-1908
p2378
aVPDFBOX-1907
p2379
aVPDFBOX-1906
p2380
aVPDFBOX-1905
p2381
aVPDFBOX-1904
p2382
aVPDFBOX-1903
p2383
aVPDFBOX-1902
p2384
aVPDFBOX-1901
p2385
aVPDFBOX-1900
p2386
aVPDFBOX-1899
p2387
aVPDFBOX-1898
p2388
aVPDFBOX-1897
p2389
aVPDFBOX-1896
p2390
aVPDFBOX-1895
p2391
aVPDFBOX-1894
p2392
aVPDFBOX-1893
p2393
aVPDFBOX-1892
p2394
aVPDFBOX-1891
p2395
aVPDFBOX-1890
p2396
aVPDFBOX-1889
p2397
aVPDFBOX-1888
p2398
aVPDFBOX-1887
p2399
aVPDFBOX-1886
p2400
aVPDFBOX-1885
p2401
aVPDFBOX-1884
p2402
aVPDFBOX-1883
p2403
aVPDFBOX-1882
p2404
aVPDFBOX-1881
p2405
aVPDFBOX-1880
p2406
aVPDFBOX-1879
p2407
aVPDFBOX-1878
p2408
aVPDFBOX-1877
p2409
aVPDFBOX-1876
p2410
aVPDFBOX-1875
p2411
aVPDFBOX-1874
p2412
aVPDFBOX-1873
p2413
aVPDFBOX-1872
p2414
aVPDFBOX-1871
p2415
aVPDFBOX-1870
p2416
aVPDFBOX-1869
p2417
aVPDFBOX-1868
p2418
aVPDFBOX-1867
p2419
aVPDFBOX-1866
p2420
aVPDFBOX-1865
p2421
aVPDFBOX-1864
p2422
aVPDFBOX-1863
p2423
aVPDFBOX-1862
p2424
aVPDFBOX-1861
p2425
aVPDFBOX-1860
p2426
aVPDFBOX-1859
p2427
aVPDFBOX-1858
p2428
aVPDFBOX-1857
p2429
aVPDFBOX-1856
p2430
aVPDFBOX-1855
p2431
aVPDFBOX-1854
p2432
aVPDFBOX-1853
p2433
aVPDFBOX-1852
p2434
aVPDFBOX-1851
p2435
aVPDFBOX-1850
p2436
aVPDFBOX-1849
p2437
aVPDFBOX-1848
p2438
aVPDFBOX-1847
p2439
aVPDFBOX-1846
p2440
aVPDFBOX-1845
p2441
aVPDFBOX-1844
p2442
aVPDFBOX-1843
p2443
aVPDFBOX-1842
p2444
aVPDFBOX-1841
p2445
aVPDFBOX-1840
p2446
aVPDFBOX-1839
p2447
aVPDFBOX-1838
p2448
aVPDFBOX-1837
p2449
aVPDFBOX-1836
p2450
aVPDFBOX-1835
p2451
aVPDFBOX-1834
p2452
aVPDFBOX-1833
p2453
aVPDFBOX-1832
p2454
aVPDFBOX-1831
p2455
aVPDFBOX-1830
p2456
aVPDFBOX-1829
p2457
aVPDFBOX-1828
p2458
aVPDFBOX-1827
p2459
aVPDFBOX-1826
p2460
aVPDFBOX-1825
p2461
aVPDFBOX-1824
p2462
aVPDFBOX-1823
p2463
aVPDFBOX-1822
p2464
aVPDFBOX-1821
p2465
aVPDFBOX-1820
p2466
aVPDFBOX-1819
p2467
aVPDFBOX-1818
p2468
aVPDFBOX-1817
p2469
aVPDFBOX-1816
p2470
aVPDFBOX-1815
p2471
aVPDFBOX-1814
p2472
aVPDFBOX-1813
p2473
aVPDFBOX-1812
p2474
aVPDFBOX-1811
p2475
aVPDFBOX-1810
p2476
aVPDFBOX-1809
p2477
aVPDFBOX-1808
p2478
aVPDFBOX-1807
p2479
aVPDFBOX-1806
p2480
aVPDFBOX-1805
p2481
aVPDFBOX-1804
p2482
aVPDFBOX-1803
p2483
aVPDFBOX-1802
p2484
aVPDFBOX-1801
p2485
aVPDFBOX-1800
p2486
aVPDFBOX-1799
p2487
aVPDFBOX-1798
p2488
aVPDFBOX-1797
p2489
aVPDFBOX-1796
p2490
aVPDFBOX-1795
p2491
aVPDFBOX-1794
p2492
aVPDFBOX-1793
p2493
aVPDFBOX-1792
p2494
aVPDFBOX-1791
p2495
aVPDFBOX-1790
p2496
aVPDFBOX-1789
p2497
aVPDFBOX-1788
p2498
aVPDFBOX-1787
p2499
aVPDFBOX-1786
p2500
aVPDFBOX-1785
p2501
aVPDFBOX-1784
p2502
aVPDFBOX-1783
p2503
aVPDFBOX-1782
p2504
aVPDFBOX-1781
p2505
aVPDFBOX-1780
p2506
aVPDFBOX-1779
p2507
aVPDFBOX-1778
p2508
aVPDFBOX-1777
p2509
aVPDFBOX-1776
p2510
aVPDFBOX-1775
p2511
aVPDFBOX-1774
p2512
aVPDFBOX-1773
p2513
aVPDFBOX-1772
p2514
aVPDFBOX-1771
p2515
aVPDFBOX-1770
p2516
aVPDFBOX-1769
p2517
aVPDFBOX-1768
p2518
aVPDFBOX-1767
p2519
aVPDFBOX-1766
p2520
aVPDFBOX-1765
p2521
aVPDFBOX-1764
p2522
aVPDFBOX-1763
p2523
aVPDFBOX-1762
p2524
aVPDFBOX-1761
p2525
aVPDFBOX-1760
p2526
aVPDFBOX-1759
p2527
aVPDFBOX-1758
p2528
aVPDFBOX-1757
p2529
aVPDFBOX-1756
p2530
aVPDFBOX-1755
p2531
aVPDFBOX-1754
p2532
aVPDFBOX-1753
p2533
aVPDFBOX-1752
p2534
aVPDFBOX-1751
p2535
aVPDFBOX-1750
p2536
aVPDFBOX-1749
p2537
aVPDFBOX-1748
p2538
aVPDFBOX-1747
p2539
aVPDFBOX-1746
p2540
aVPDFBOX-1745
p2541
aVPDFBOX-1744
p2542
aVPDFBOX-1743
p2543
aVPDFBOX-1742
p2544
aVPDFBOX-1741
p2545
aVPDFBOX-1740
p2546
aVPDFBOX-1739
p2547
aVPDFBOX-1738
p2548
aVPDFBOX-1737
p2549
aVPDFBOX-1736
p2550
aVPDFBOX-1735
p2551
aVPDFBOX-1734
p2552
aVPDFBOX-1733
p2553
aVPDFBOX-1732
p2554
aVPDFBOX-1731
p2555
aVPDFBOX-1730
p2556
aVPDFBOX-1729
p2557
aVPDFBOX-1728
p2558
aVPDFBOX-1727
p2559
aVPDFBOX-1726
p2560
aVPDFBOX-1725
p2561
aVPDFBOX-1724
p2562
aVPDFBOX-1723
p2563
aVPDFBOX-1722
p2564
aVPDFBOX-1721
p2565
aVPDFBOX-1720
p2566
aVPDFBOX-1719
p2567
aVPDFBOX-1718
p2568
aVPDFBOX-1717
p2569
aVPDFBOX-1716
p2570
aVPDFBOX-1715
p2571
aVPDFBOX-1714
p2572
aVPDFBOX-1713
p2573
aVPDFBOX-1712
p2574
aVPDFBOX-1711
p2575
aVPDFBOX-1710
p2576
aVPDFBOX-1709
p2577
aVPDFBOX-1708
p2578
aVPDFBOX-1707
p2579
aVPDFBOX-1706
p2580
aVPDFBOX-1705
p2581
aVPDFBOX-1704
p2582
aVPDFBOX-1703
p2583
aVPDFBOX-1702
p2584
aVPDFBOX-1701
p2585
aVPDFBOX-1700
p2586
aVPDFBOX-1699
p2587
aVPDFBOX-1698
p2588
aVPDFBOX-1697
p2589
aVPDFBOX-1696
p2590
aVPDFBOX-1695
p2591
aVPDFBOX-1694
p2592
aVPDFBOX-1693
p2593
aVPDFBOX-1692
p2594
aVPDFBOX-1691
p2595
aVPDFBOX-1690
p2596
aVPDFBOX-1689
p2597
aVPDFBOX-1688
p2598
aVPDFBOX-1687
p2599
aVPDFBOX-1686
p2600
aVPDFBOX-1685
p2601
aVPDFBOX-1684
p2602
aVPDFBOX-1683
p2603
aVPDFBOX-1682
p2604
aVPDFBOX-1681
p2605
aVPDFBOX-1680
p2606
aVPDFBOX-1679
p2607
aVPDFBOX-1678
p2608
aVPDFBOX-1677
p2609
aVPDFBOX-1676
p2610
aVPDFBOX-1675
p2611
aVPDFBOX-1674
p2612
aVPDFBOX-1673
p2613
aVPDFBOX-1672
p2614
aVPDFBOX-1671
p2615
aVPDFBOX-1670
p2616
aVPDFBOX-1669
p2617
aVPDFBOX-1668
p2618
aVPDFBOX-1667
p2619
aVPDFBOX-1666
p2620
aVPDFBOX-1665
p2621
aVPDFBOX-1664
p2622
aVPDFBOX-1663
p2623
aVPDFBOX-1662
p2624
aVPDFBOX-1661
p2625
aVPDFBOX-1660
p2626
aVPDFBOX-1659
p2627
aVPDFBOX-1658
p2628
aVPDFBOX-1657
p2629
aVPDFBOX-1656
p2630
aVPDFBOX-1655
p2631
aVPDFBOX-1654
p2632
aVPDFBOX-1653
p2633
aVPDFBOX-1652
p2634
aVPDFBOX-1651
p2635
aVPDFBOX-1650
p2636
aVPDFBOX-1649
p2637
aVPDFBOX-1648
p2638
aVPDFBOX-1647
p2639
aVPDFBOX-1646
p2640
aVPDFBOX-1645
p2641
aVPDFBOX-1644
p2642
aVPDFBOX-1643
p2643
aVPDFBOX-1642
p2644
aVPDFBOX-1641
p2645
aVPDFBOX-1640
p2646
aVPDFBOX-1639
p2647
aVPDFBOX-1638
p2648
aVPDFBOX-1637
p2649
aVPDFBOX-1636
p2650
aVPDFBOX-1635
p2651
aVPDFBOX-1634
p2652
aVPDFBOX-1633
p2653
aVPDFBOX-1632
p2654
aVPDFBOX-1631
p2655
aVPDFBOX-1630
p2656
aVPDFBOX-1629
p2657
aVPDFBOX-1628
p2658
aVPDFBOX-1627
p2659
aVPDFBOX-1626
p2660
aVPDFBOX-1625
p2661
aVPDFBOX-1624
p2662
aVPDFBOX-1623
p2663
aVPDFBOX-1622
p2664
aVPDFBOX-1621
p2665
aVPDFBOX-1620
p2666
aVPDFBOX-1619
p2667
aVPDFBOX-1618
p2668
aVPDFBOX-1617
p2669
aVPDFBOX-1616
p2670
aVPDFBOX-1615
p2671
aVPDFBOX-1614
p2672
aVPDFBOX-1613
p2673
aVPDFBOX-1612
p2674
aVPDFBOX-1611
p2675
aVPDFBOX-1610
p2676
aVPDFBOX-1609
p2677
aVPDFBOX-1608
p2678
aVPDFBOX-1607
p2679
aVPDFBOX-1606
p2680
aVPDFBOX-1605
p2681
aVPDFBOX-1604
p2682
aVPDFBOX-1603
p2683
aVPDFBOX-1602
p2684
aVPDFBOX-1601
p2685
aVPDFBOX-1600
p2686
aVPDFBOX-1599
p2687
aVPDFBOX-1598
p2688
aVPDFBOX-1597
p2689
aVPDFBOX-1596
p2690
aVPDFBOX-1595
p2691
aVPDFBOX-1594
p2692
aVPDFBOX-1593
p2693
aVPDFBOX-1592
p2694
aVPDFBOX-1591
p2695
aVPDFBOX-1590
p2696
aVPDFBOX-1589
p2697
aVPDFBOX-1588
p2698
aVPDFBOX-1587
p2699
aVPDFBOX-1586
p2700
aVPDFBOX-1585
p2701
aVPDFBOX-1584
p2702
aVPDFBOX-1583
p2703
aVPDFBOX-1582
p2704
aVPDFBOX-1581
p2705
aVPDFBOX-1580
p2706
aVPDFBOX-1579
p2707
aVPDFBOX-1578
p2708
aVPDFBOX-1577
p2709
aVPDFBOX-1576
p2710
aVPDFBOX-1575
p2711
aVPDFBOX-1574
p2712
aVPDFBOX-1573
p2713
aVPDFBOX-1572
p2714
aVPDFBOX-1571
p2715
aVPDFBOX-1570
p2716
aVPDFBOX-1569
p2717
aVPDFBOX-1568
p2718
aVPDFBOX-1567
p2719
aVPDFBOX-1566
p2720
aVPDFBOX-1565
p2721
aVPDFBOX-1564
p2722
aVPDFBOX-1563
p2723
aVPDFBOX-1562
p2724
aVPDFBOX-1561
p2725
aVPDFBOX-1560
p2726
aVPDFBOX-1559
p2727
aVPDFBOX-1558
p2728
aVPDFBOX-1557
p2729
aVPDFBOX-1556
p2730
aVPDFBOX-1555
p2731
aVPDFBOX-1554
p2732
aVPDFBOX-1553
p2733
aVPDFBOX-1552
p2734
aVPDFBOX-1551
p2735
aVPDFBOX-1550
p2736
aVPDFBOX-1549
p2737
aVPDFBOX-1548
p2738
aVPDFBOX-1547
p2739
aVPDFBOX-1546
p2740
aVPDFBOX-1545
p2741
aVPDFBOX-1544
p2742
aVPDFBOX-1543
p2743
aVPDFBOX-1542
p2744
aVPDFBOX-1541
p2745
aVPDFBOX-1540
p2746
aVPDFBOX-1539
p2747
aVPDFBOX-1538
p2748
aVPDFBOX-1537
p2749
aVPDFBOX-1536
p2750
aVPDFBOX-1535
p2751
aVPDFBOX-1534
p2752
aVPDFBOX-1533
p2753
aVPDFBOX-1532
p2754
aVPDFBOX-1531
p2755
aVPDFBOX-1530
p2756
aVPDFBOX-1529
p2757
aVPDFBOX-1528
p2758
aVPDFBOX-1527
p2759
aVPDFBOX-1526
p2760
aVPDFBOX-1525
p2761
aVPDFBOX-1524
p2762
aVPDFBOX-1523
p2763
aVPDFBOX-1522
p2764
aVPDFBOX-1521
p2765
aVPDFBOX-1520
p2766
aVPDFBOX-1519
p2767
aVPDFBOX-1518
p2768
aVPDFBOX-1517
p2769
aVPDFBOX-1516
p2770
aVPDFBOX-1515
p2771
aVPDFBOX-1514
p2772
aVPDFBOX-1513
p2773
aVPDFBOX-1512
p2774
aVPDFBOX-1511
p2775
aVPDFBOX-1510
p2776
aVPDFBOX-1509
p2777
aVPDFBOX-1508
p2778
aVPDFBOX-1507
p2779
aVPDFBOX-1506
p2780
aVPDFBOX-1505
p2781
aVPDFBOX-1504
p2782
aVPDFBOX-1503
p2783
aVPDFBOX-1502
p2784
aVPDFBOX-1501
p2785
aVPDFBOX-1500
p2786
aVPDFBOX-1499
p2787
aVPDFBOX-1498
p2788
aVPDFBOX-1497
p2789
aVPDFBOX-1496
p2790
aVPDFBOX-1495
p2791
aVPDFBOX-1494
p2792
aVPDFBOX-1493
p2793
aVPDFBOX-1492
p2794
aVPDFBOX-1491
p2795
aVPDFBOX-1490
p2796
aVPDFBOX-1489
p2797
aVPDFBOX-1488
p2798
aVPDFBOX-1487
p2799
aVPDFBOX-1486
p2800
aVPDFBOX-1485
p2801
aVPDFBOX-1484
p2802
aVPDFBOX-1483
p2803
aVPDFBOX-1482
p2804
aVPDFBOX-1481
p2805
aVPDFBOX-1480
p2806
aVPDFBOX-1479
p2807
aVPDFBOX-1478
p2808
aVPDFBOX-1477
p2809
aVPDFBOX-1476
p2810
aVPDFBOX-1475
p2811
aVPDFBOX-1474
p2812
aVPDFBOX-1473
p2813
aVPDFBOX-1472
p2814
aVPDFBOX-1471
p2815
aVPDFBOX-1470
p2816
aVPDFBOX-1469
p2817
aVPDFBOX-1468
p2818
aVPDFBOX-1467
p2819
aVPDFBOX-1466
p2820
aVPDFBOX-1465
p2821
aVPDFBOX-1464
p2822
aVPDFBOX-1463
p2823
aVPDFBOX-1462
p2824
aVPDFBOX-1461
p2825
aVPDFBOX-1460
p2826
aVPDFBOX-1459
p2827
aVPDFBOX-1458
p2828
aVPDFBOX-1457
p2829
aVPDFBOX-1456
p2830
aVPDFBOX-1455
p2831
aVPDFBOX-1454
p2832
aVPDFBOX-1453
p2833
aVPDFBOX-1452
p2834
aVPDFBOX-1451
p2835
aVPDFBOX-1450
p2836
aVPDFBOX-1449
p2837
aVPDFBOX-1448
p2838
aVPDFBOX-1447
p2839
aVPDFBOX-1446
p2840
aVPDFBOX-1445
p2841
aVPDFBOX-1444
p2842
aVPDFBOX-1443
p2843
aVPDFBOX-1442
p2844
aVPDFBOX-1441
p2845
aVPDFBOX-1440
p2846
aVPDFBOX-1439
p2847
aVPDFBOX-1438
p2848
aVPDFBOX-1437
p2849
aVPDFBOX-1436
p2850
aVPDFBOX-1435
p2851
aVPDFBOX-1434
p2852
aVPDFBOX-1433
p2853
aVPDFBOX-1432
p2854
aVPDFBOX-1431
p2855
aVPDFBOX-1430
p2856
aVPDFBOX-1429
p2857
aVPDFBOX-1428
p2858
aVPDFBOX-1427
p2859
aVPDFBOX-1426
p2860
aVPDFBOX-1425
p2861
aVPDFBOX-1424
p2862
aVPDFBOX-1423
p2863
aVPDFBOX-1422
p2864
aVPDFBOX-1421
p2865
aVPDFBOX-1420
p2866
aVPDFBOX-1419
p2867
aVPDFBOX-1418
p2868
aVPDFBOX-1417
p2869
aVPDFBOX-1416
p2870
aVPDFBOX-1415
p2871
aVPDFBOX-1414
p2872
aVPDFBOX-1413
p2873
aVPDFBOX-1412
p2874
aVPDFBOX-1411
p2875
aVPDFBOX-1410
p2876
aVPDFBOX-1409
p2877
aVPDFBOX-1408
p2878
aVPDFBOX-1407
p2879
aVPDFBOX-1406
p2880
aVPDFBOX-1405
p2881
aVPDFBOX-1404
p2882
aVPDFBOX-1403
p2883
aVPDFBOX-1402
p2884
aVPDFBOX-1401
p2885
aVPDFBOX-1400
p2886
aVPDFBOX-1399
p2887
aVPDFBOX-1398
p2888
aVPDFBOX-1397
p2889
aVPDFBOX-1396
p2890
aVPDFBOX-1395
p2891
aVPDFBOX-1394
p2892
aVPDFBOX-1393
p2893
aVPDFBOX-1392
p2894
aVPDFBOX-1391
p2895
aVPDFBOX-1390
p2896
aVPDFBOX-1389
p2897
aVPDFBOX-1388
p2898
aVPDFBOX-1387
p2899
aVPDFBOX-1386
p2900
aVPDFBOX-1385
p2901
aVPDFBOX-1384
p2902
aVPDFBOX-1383
p2903
aVPDFBOX-1382
p2904
aVPDFBOX-1381
p2905
aVPDFBOX-1380
p2906
aVPDFBOX-1379
p2907
aVPDFBOX-1378
p2908
aVPDFBOX-1377
p2909
aVPDFBOX-1376
p2910
aVPDFBOX-1375
p2911
aVPDFBOX-1374
p2912
aVPDFBOX-1373
p2913
aVPDFBOX-1372
p2914
aVPDFBOX-1371
p2915
aVPDFBOX-1370
p2916
aVPDFBOX-1369
p2917
aVPDFBOX-1368
p2918
aVPDFBOX-1367
p2919
aVPDFBOX-1366
p2920
aVPDFBOX-1365
p2921
aVPDFBOX-1364
p2922
aVPDFBOX-1363
p2923
aVPDFBOX-1362
p2924
aVPDFBOX-1361
p2925
aVPDFBOX-1360
p2926
aVPDFBOX-1359
p2927
aVPDFBOX-1358
p2928
aVPDFBOX-1357
p2929
aVPDFBOX-1356
p2930
aVPDFBOX-1355
p2931
aVPDFBOX-1354
p2932
aVPDFBOX-1353
p2933
aVPDFBOX-1352
p2934
aVPDFBOX-1351
p2935
aVPDFBOX-1350
p2936
aVPDFBOX-1349
p2937
aVPDFBOX-1348
p2938
aVPDFBOX-1347
p2939
aVPDFBOX-1346
p2940
aVPDFBOX-1345
p2941
aVPDFBOX-1344
p2942
aVPDFBOX-1343
p2943
aVPDFBOX-1342
p2944
aVPDFBOX-1341
p2945
aVPDFBOX-1340
p2946
aVPDFBOX-1339
p2947
aVPDFBOX-1338
p2948
aVPDFBOX-1337
p2949
aVPDFBOX-1336
p2950
aVPDFBOX-1335
p2951
aVPDFBOX-1334
p2952
aVPDFBOX-1333
p2953
aVPDFBOX-1332
p2954
aVPDFBOX-1331
p2955
aVPDFBOX-1330
p2956
aVPDFBOX-1329
p2957
aVPDFBOX-1328
p2958
aVPDFBOX-1327
p2959
aVPDFBOX-1326
p2960
aVPDFBOX-1325
p2961
aVPDFBOX-1324
p2962
aVPDFBOX-1323
p2963
aVPDFBOX-1322
p2964
aVPDFBOX-1321
p2965
aVPDFBOX-1320
p2966
aVPDFBOX-1319
p2967
aVPDFBOX-1318
p2968
aVPDFBOX-1317
p2969
aVPDFBOX-1316
p2970
aVPDFBOX-1315
p2971
aVPDFBOX-1314
p2972
aVPDFBOX-1313
p2973
aVPDFBOX-1312
p2974
aVPDFBOX-1311
p2975
aVPDFBOX-1310
p2976
aVPDFBOX-1309
p2977
aVPDFBOX-1308
p2978
aVPDFBOX-1307
p2979
aVPDFBOX-1306
p2980
aVPDFBOX-1305
p2981
aVPDFBOX-1304
p2982
aVPDFBOX-1302
p2983
aVPDFBOX-1301
p2984
aVPDFBOX-1300
p2985
aVPDFBOX-1299
p2986
aVPDFBOX-1298
p2987
aVPDFBOX-1297
p2988
aVPDFBOX-1296
p2989
aVPDFBOX-1295
p2990
aVPDFBOX-1294
p2991
aVPDFBOX-1293
p2992
aVPDFBOX-1292
p2993
aVPDFBOX-1291
p2994
aVPDFBOX-1290
p2995
aVPDFBOX-1289
p2996
aVPDFBOX-1288
p2997
aVPDFBOX-1287
p2998
aVPDFBOX-1286
p2999
aVPDFBOX-1285
p3000
aVPDFBOX-1284
p3001
aVPDFBOX-1283
p3002
aVPDFBOX-1282
p3003
aVPDFBOX-1281
p3004
aVPDFBOX-1280
p3005
aVPDFBOX-1279
p3006
aVPDFBOX-1278
p3007
aVPDFBOX-1277
p3008
aVPDFBOX-1276
p3009
aVPDFBOX-1275
p3010
aVPDFBOX-1274
p3011
aVPDFBOX-1273
p3012
aVPDFBOX-1272
p3013
aVPDFBOX-1271
p3014
aVPDFBOX-1270
p3015
aVPDFBOX-1269
p3016
aVPDFBOX-1268
p3017
aVPDFBOX-1267
p3018
aVPDFBOX-1266
p3019
aVPDFBOX-1265
p3020
aVPDFBOX-1264
p3021
aVPDFBOX-1263
p3022
aVPDFBOX-1262
p3023
aVPDFBOX-1261
p3024
aVPDFBOX-1260
p3025
aVPDFBOX-1259
p3026
aVPDFBOX-1258
p3027
aVPDFBOX-1257
p3028
aVPDFBOX-1256
p3029
aVPDFBOX-1255
p3030
aVPDFBOX-1254
p3031
aVPDFBOX-1253
p3032
aVPDFBOX-1252
p3033
aVPDFBOX-1251
p3034
aVPDFBOX-1250
p3035
aVPDFBOX-1249
p3036
aVPDFBOX-1248
p3037
aVPDFBOX-1247
p3038
aVPDFBOX-1246
p3039
aVPDFBOX-1245
p3040
aVPDFBOX-1244
p3041
aVPDFBOX-1243
p3042
aVPDFBOX-1242
p3043
aVPDFBOX-1241
p3044
aVPDFBOX-1240
p3045
aVPDFBOX-1239
p3046
aVPDFBOX-1238
p3047
aVPDFBOX-1237
p3048
aVPDFBOX-1236
p3049
aVPDFBOX-1235
p3050
aVPDFBOX-1234
p3051
aVPDFBOX-1233
p3052
aVPDFBOX-1232
p3053
aVPDFBOX-1231
p3054
aVPDFBOX-1230
p3055
aVPDFBOX-1229
p3056
aVPDFBOX-1228
p3057
aVPDFBOX-1227
p3058
aVPDFBOX-1226
p3059
aVPDFBOX-1225
p3060
aVPDFBOX-1224
p3061
aVPDFBOX-1223
p3062
aVPDFBOX-1222
p3063
aVPDFBOX-1221
p3064
aVPDFBOX-1220
p3065
aVPDFBOX-1219
p3066
aVPDFBOX-1218
p3067
aVPDFBOX-1217
p3068
aVPDFBOX-1216
p3069
aVPDFBOX-1215
p3070
aVPDFBOX-1214
p3071
aVPDFBOX-1213
p3072
aVPDFBOX-1212
p3073
aVPDFBOX-1211
p3074
aVPDFBOX-1210
p3075
aVPDFBOX-1209
p3076
aVPDFBOX-1208
p3077
aVPDFBOX-1207
p3078
aVPDFBOX-1206
p3079
aVPDFBOX-1205
p3080
aVPDFBOX-1204
p3081
aVPDFBOX-1203
p3082
aVPDFBOX-1202
p3083
aVPDFBOX-1201
p3084
aVPDFBOX-1200
p3085
aVPDFBOX-1199
p3086
aVPDFBOX-1198
p3087
aVPDFBOX-1197
p3088
aVPDFBOX-1196
p3089
aVPDFBOX-1195
p3090
aVPDFBOX-1194
p3091
aVPDFBOX-1193
p3092
aVPDFBOX-1192
p3093
aVPDFBOX-1191
p3094
aVPDFBOX-1190
p3095
aVPDFBOX-1189
p3096
aVPDFBOX-1188
p3097
aVPDFBOX-1187
p3098
aVPDFBOX-1186
p3099
aVPDFBOX-1185
p3100
aVPDFBOX-1184
p3101
aVPDFBOX-1183
p3102
aVPDFBOX-1182
p3103
aVPDFBOX-1181
p3104
aVPDFBOX-1180
p3105
aVPDFBOX-1179
p3106
aVPDFBOX-1178
p3107
aVPDFBOX-1177
p3108
aVPDFBOX-1176
p3109
aVPDFBOX-1175
p3110
aVPDFBOX-1174
p3111
aVPDFBOX-1173
p3112
aVPDFBOX-1172
p3113
aVPDFBOX-1171
p3114
aVPDFBOX-1170
p3115
aVPDFBOX-1169
p3116
aVPDFBOX-1168
p3117
aVPDFBOX-1167
p3118
aVPDFBOX-1166
p3119
aVPDFBOX-1165
p3120
aVPDFBOX-1164
p3121
aVPDFBOX-1163
p3122
aVPDFBOX-1162
p3123
aVPDFBOX-1161
p3124
aVPDFBOX-1160
p3125
aVPDFBOX-1159
p3126
aVPDFBOX-1158
p3127
aVPDFBOX-1157
p3128
aVPDFBOX-1156
p3129
aVPDFBOX-1155
p3130
aVPDFBOX-1154
p3131
aVPDFBOX-1153
p3132
aVPDFBOX-1152
p3133
aVPDFBOX-1151
p3134
aVPDFBOX-1150
p3135
aVPDFBOX-1149
p3136
aVPDFBOX-1148
p3137
aVPDFBOX-1147
p3138
aVPDFBOX-1146
p3139
aVPDFBOX-1145
p3140
aVPDFBOX-1144
p3141
aVPDFBOX-1143
p3142
aVPDFBOX-1142
p3143
aVPDFBOX-1141
p3144
aVPDFBOX-1140
p3145
aVPDFBOX-1139
p3146
aVPDFBOX-1138
p3147
aVPDFBOX-1137
p3148
aVPDFBOX-1136
p3149
aVPDFBOX-1135
p3150
aVPDFBOX-1134
p3151
aVPDFBOX-1133
p3152
aVPDFBOX-1132
p3153
aVPDFBOX-1131
p3154
aVPDFBOX-1130
p3155
aVPDFBOX-1129
p3156
aVPDFBOX-1128
p3157
aVPDFBOX-1127
p3158
aVPDFBOX-1126
p3159
aVPDFBOX-1125
p3160
aVPDFBOX-1124
p3161
aVPDFBOX-1123
p3162
aVPDFBOX-1122
p3163
aVPDFBOX-1121
p3164
aVPDFBOX-1120
p3165
aVPDFBOX-1119
p3166
aVPDFBOX-1118
p3167
aVPDFBOX-1117
p3168
aVPDFBOX-1116
p3169
aVPDFBOX-1115
p3170
aVPDFBOX-1114
p3171
aVPDFBOX-1113
p3172
aVPDFBOX-1112
p3173
aVPDFBOX-1111
p3174
aVPDFBOX-1110
p3175
aVPDFBOX-1109
p3176
aVPDFBOX-1108
p3177
aVPDFBOX-1107
p3178
aVPDFBOX-1106
p3179
aVPDFBOX-1105
p3180
aVPDFBOX-1104
p3181
aVPDFBOX-1103
p3182
aVPDFBOX-1102
p3183
aVPDFBOX-1101
p3184
aVPDFBOX-1100
p3185
aVPDFBOX-1099
p3186
aVPDFBOX-1098
p3187
aVPDFBOX-1097
p3188
aVPDFBOX-1096
p3189
aVPDFBOX-1095
p3190
aVPDFBOX-1094
p3191
aVPDFBOX-1093
p3192
aVPDFBOX-1092
p3193
aVPDFBOX-1091
p3194
aVPDFBOX-1090
p3195
aVPDFBOX-1089
p3196
aVPDFBOX-1088
p3197
aVPDFBOX-1087
p3198
aVPDFBOX-1086
p3199
aVPDFBOX-1085
p3200
aVPDFBOX-1084
p3201
aVPDFBOX-1083
p3202
aVPDFBOX-1082
p3203
aVPDFBOX-1081
p3204
aVPDFBOX-1080
p3205
aVPDFBOX-1079
p3206
aVPDFBOX-1078
p3207
aVPDFBOX-1077
p3208
aVPDFBOX-1076
p3209
aVPDFBOX-1075
p3210
aVPDFBOX-1074
p3211
aVPDFBOX-1073
p3212
aVPDFBOX-1072
p3213
aVPDFBOX-1071
p3214
aVPDFBOX-1070
p3215
aVPDFBOX-1069
p3216
aVPDFBOX-1068
p3217
aVPDFBOX-1067
p3218
aVPDFBOX-1066
p3219
aVPDFBOX-1065
p3220
aVPDFBOX-1064
p3221
aVPDFBOX-1063
p3222
aVPDFBOX-1062
p3223
aVPDFBOX-1061
p3224
aVPDFBOX-1060
p3225
aVPDFBOX-1059
p3226
aVPDFBOX-1058
p3227
aVPDFBOX-1057
p3228
aVPDFBOX-1056
p3229
aVPDFBOX-1055
p3230
aVPDFBOX-1054
p3231
aVPDFBOX-1053
p3232
aVPDFBOX-1052
p3233
aVPDFBOX-1051
p3234
aVPDFBOX-1050
p3235
aVPDFBOX-1049
p3236
aVPDFBOX-1048
p3237
aVPDFBOX-1047
p3238
aVPDFBOX-1046
p3239
aVPDFBOX-1045
p3240
aVPDFBOX-1044
p3241
aVPDFBOX-1043
p3242
aVPDFBOX-1042
p3243
aVPDFBOX-1041
p3244
aVPDFBOX-1040
p3245
aVPDFBOX-1039
p3246
aVPDFBOX-1038
p3247
aVPDFBOX-1037
p3248
aVPDFBOX-1036
p3249
aVPDFBOX-1035
p3250
aVPDFBOX-1034
p3251
aVPDFBOX-1033
p3252
aVPDFBOX-1032
p3253
aVPDFBOX-1031
p3254
aVPDFBOX-1030
p3255
aVPDFBOX-1029
p3256
aVPDFBOX-1028
p3257
aVPDFBOX-1027
p3258
aVPDFBOX-1026
p3259
aVPDFBOX-1025
p3260
aVPDFBOX-1024
p3261
aVPDFBOX-1023
p3262
aVPDFBOX-1022
p3263
aVPDFBOX-1021
p3264
aVPDFBOX-1020
p3265
aVPDFBOX-1019
p3266
aVPDFBOX-1018
p3267
aVPDFBOX-1017
p3268
aVPDFBOX-1016
p3269
aVPDFBOX-1015
p3270
aVPDFBOX-1014
p3271
aVPDFBOX-1013
p3272
aVPDFBOX-1012
p3273
aVPDFBOX-1011
p3274
aVPDFBOX-1010
p3275
aVPDFBOX-1009
p3276
aVPDFBOX-1008
p3277
aVPDFBOX-1007
p3278
aVPDFBOX-1006
p3279
aVPDFBOX-1005
p3280
aVPDFBOX-1004
p3281
aVPDFBOX-1003
p3282
aVPDFBOX-1002
p3283
aVPDFBOX-1001
p3284
aVPDFBOX-1000
p3285
aVPDFBOX-999
p3286
aVPDFBOX-998
p3287
aVPDFBOX-996
p3288
aVPDFBOX-995
p3289
aVPDFBOX-994
p3290
aVPDFBOX-993
p3291
aVPDFBOX-992
p3292
aVPDFBOX-991
p3293
aVPDFBOX-990
p3294
aVPDFBOX-989
p3295
aVPDFBOX-988
p3296
aVPDFBOX-987
p3297
aVPDFBOX-986
p3298
aVPDFBOX-985
p3299
aVPDFBOX-984
p3300
aVPDFBOX-983
p3301
aVPDFBOX-982
p3302
aVPDFBOX-981
p3303
aVPDFBOX-980
p3304
aVPDFBOX-979
p3305
aVPDFBOX-978
p3306
aVPDFBOX-977
p3307
aVPDFBOX-976
p3308
aVPDFBOX-975
p3309
aVPDFBOX-974
p3310
aVPDFBOX-973
p3311
aVPDFBOX-972
p3312
aVPDFBOX-971
p3313
aVPDFBOX-970
p3314
aVPDFBOX-969
p3315
aVPDFBOX-968
p3316
aVPDFBOX-967
p3317
aVPDFBOX-966
p3318
aVPDFBOX-965
p3319
aVPDFBOX-964
p3320
aVPDFBOX-963
p3321
aVPDFBOX-962
p3322
aVPDFBOX-961
p3323
aVPDFBOX-960
p3324
aVPDFBOX-959
p3325
aVPDFBOX-958
p3326
aVPDFBOX-957
p3327
aVPDFBOX-956
p3328
aVPDFBOX-955
p3329
aVPDFBOX-954
p3330
aVPDFBOX-953
p3331
aVPDFBOX-952
p3332
aVPDFBOX-951
p3333
aVPDFBOX-950
p3334
aVPDFBOX-949
p3335
aVPDFBOX-948
p3336
aVPDFBOX-947
p3337
aVPDFBOX-946
p3338
aVPDFBOX-945
p3339
aVPDFBOX-944
p3340
aVPDFBOX-943
p3341
aVPDFBOX-942
p3342
aVPDFBOX-941
p3343
aVPDFBOX-940
p3344
aVPDFBOX-939
p3345
aVPDFBOX-938
p3346
aVPDFBOX-937
p3347
aVPDFBOX-936
p3348
aVPDFBOX-935
p3349
aVPDFBOX-934
p3350
aVPDFBOX-933
p3351
aVPDFBOX-932
p3352
aVPDFBOX-931
p3353
aVPDFBOX-930
p3354
aVPDFBOX-929
p3355
aVPDFBOX-928
p3356
aVPDFBOX-927
p3357
aVPDFBOX-926
p3358
aVPDFBOX-925
p3359
aVPDFBOX-924
p3360
aVPDFBOX-923
p3361
aVPDFBOX-922
p3362
aVPDFBOX-921
p3363
aVPDFBOX-920
p3364
aVPDFBOX-919
p3365
aVPDFBOX-918
p3366
aVPDFBOX-917
p3367
aVPDFBOX-916
p3368
aVPDFBOX-915
p3369
aVPDFBOX-914
p3370
aVPDFBOX-913
p3371
aVPDFBOX-912
p3372
aVPDFBOX-911
p3373
aVPDFBOX-910
p3374
aVPDFBOX-909
p3375
aVPDFBOX-908
p3376
aVPDFBOX-907
p3377
aVPDFBOX-906
p3378
aVPDFBOX-905
p3379
aVPDFBOX-904
p3380
aVPDFBOX-903
p3381
aVPDFBOX-902
p3382
aVPDFBOX-901
p3383
aVPDFBOX-900
p3384
aVPDFBOX-899
p3385
aVPDFBOX-898
p3386
aVPDFBOX-897
p3387
aVPDFBOX-896
p3388
aVPDFBOX-895
p3389
aVPDFBOX-894
p3390
aVPDFBOX-893
p3391
aVPDFBOX-892
p3392
aVPDFBOX-891
p3393
aVPDFBOX-890
p3394
aVPDFBOX-889
p3395
aVPDFBOX-888
p3396
aVPDFBOX-887
p3397
aVPDFBOX-886
p3398
aVPDFBOX-885
p3399
aVPDFBOX-884
p3400
aVPDFBOX-883
p3401
aVPDFBOX-882
p3402
aVPDFBOX-881
p3403
aVPDFBOX-880
p3404
aVPDFBOX-879
p3405
aVPDFBOX-878
p3406
aVPDFBOX-877
p3407
aVPDFBOX-876
p3408
aVPDFBOX-875
p3409
aVPDFBOX-874
p3410
aVPDFBOX-873
p3411
aVPDFBOX-872
p3412
aVPDFBOX-871
p3413
aVPDFBOX-870
p3414
aVPDFBOX-869
p3415
aVPDFBOX-868
p3416
aVPDFBOX-867
p3417
aVPDFBOX-866
p3418
aVPDFBOX-865
p3419
aVPDFBOX-864
p3420
aVPDFBOX-863
p3421
aVPDFBOX-862
p3422
aVPDFBOX-861
p3423
aVPDFBOX-860
p3424
aVPDFBOX-859
p3425
aVPDFBOX-858
p3426
aVPDFBOX-857
p3427
aVPDFBOX-856
p3428
aVPDFBOX-855
p3429
aVPDFBOX-854
p3430
aVPDFBOX-853
p3431
aVPDFBOX-852
p3432
aVPDFBOX-851
p3433
aVPDFBOX-850
p3434
aVPDFBOX-849
p3435
aVPDFBOX-848
p3436
aVPDFBOX-847
p3437
aVPDFBOX-846
p3438
aVPDFBOX-845
p3439
aVPDFBOX-844
p3440
aVPDFBOX-843
p3441
aVPDFBOX-842
p3442
aVPDFBOX-841
p3443
aVPDFBOX-840
p3444
aVPDFBOX-839
p3445
aVPDFBOX-838
p3446
aVPDFBOX-837
p3447
aVPDFBOX-836
p3448
aVPDFBOX-835
p3449
aVPDFBOX-834
p3450
aVPDFBOX-833
p3451
aVPDFBOX-832
p3452
aVPDFBOX-831
p3453
aVPDFBOX-830
p3454
aVPDFBOX-829
p3455
aVPDFBOX-828
p3456
aVPDFBOX-827
p3457
aVPDFBOX-826
p3458
aVPDFBOX-825
p3459
aVPDFBOX-824
p3460
aVPDFBOX-823
p3461
aVPDFBOX-822
p3462
aVPDFBOX-821
p3463
aVPDFBOX-820
p3464
aVPDFBOX-819
p3465
aVPDFBOX-818
p3466
aVPDFBOX-817
p3467
aVPDFBOX-816
p3468
aVPDFBOX-815
p3469
aVPDFBOX-814
p3470
aVPDFBOX-813
p3471
aVPDFBOX-812
p3472
aVPDFBOX-811
p3473
aVPDFBOX-810
p3474
aVPDFBOX-809
p3475
aVPDFBOX-808
p3476
aVPDFBOX-807
p3477
aVPDFBOX-806
p3478
aVPDFBOX-805
p3479
aVPDFBOX-804
p3480
aVPDFBOX-803
p3481
aVPDFBOX-802
p3482
aVPDFBOX-801
p3483
aVPDFBOX-800
p3484
aVPDFBOX-799
p3485
aVPDFBOX-798
p3486
aVPDFBOX-797
p3487
aVPDFBOX-796
p3488
aVPDFBOX-795
p3489
aVPDFBOX-794
p3490
aVPDFBOX-793
p3491
aVPDFBOX-792
p3492
aVPDFBOX-791
p3493
aVPDFBOX-790
p3494
aVPDFBOX-789
p3495
aVPDFBOX-788
p3496
aVPDFBOX-787
p3497
aVPDFBOX-786
p3498
aVPDFBOX-785
p3499
aVPDFBOX-784
p3500
aVPDFBOX-783
p3501
aVPDFBOX-782
p3502
aVPDFBOX-781
p3503
aVPDFBOX-780
p3504
aVPDFBOX-779
p3505
aVPDFBOX-778
p3506
aVPDFBOX-777
p3507
aVPDFBOX-776
p3508
aVPDFBOX-775
p3509
aVPDFBOX-774
p3510
aVPDFBOX-773
p3511
aVPDFBOX-772
p3512
aVPDFBOX-771
p3513
aVPDFBOX-770
p3514
aVPDFBOX-769
p3515
aVPDFBOX-768
p3516
aVPDFBOX-767
p3517
aVPDFBOX-766
p3518
aVPDFBOX-765
p3519
aVPDFBOX-764
p3520
aVPDFBOX-763
p3521
aVPDFBOX-762
p3522
aVPDFBOX-761
p3523
aVPDFBOX-760
p3524
aVPDFBOX-759
p3525
aVPDFBOX-758
p3526
aVPDFBOX-757
p3527
aVPDFBOX-756
p3528
aVPDFBOX-755
p3529
aVPDFBOX-754
p3530
aVPDFBOX-753
p3531
aVPDFBOX-752
p3532
aVPDFBOX-751
p3533
aVPDFBOX-750
p3534
aVPDFBOX-749
p3535
aVPDFBOX-748
p3536
aVPDFBOX-747
p3537
aVPDFBOX-745
p3538
aVPDFBOX-744
p3539
aVPDFBOX-743
p3540
aVPDFBOX-742
p3541
aVPDFBOX-741
p3542
aVPDFBOX-740
p3543
aVPDFBOX-739
p3544
aVPDFBOX-738
p3545
aVPDFBOX-737
p3546
aVPDFBOX-736
p3547
aVPDFBOX-735
p3548
aVPDFBOX-734
p3549
aVPDFBOX-733
p3550
aVPDFBOX-732
p3551
aVPDFBOX-731
p3552
aVPDFBOX-730
p3553
aVPDFBOX-729
p3554
aVPDFBOX-728
p3555
aVPDFBOX-727
p3556
aVPDFBOX-726
p3557
aVPDFBOX-725
p3558
aVPDFBOX-724
p3559
aVPDFBOX-723
p3560
aVPDFBOX-722
p3561
aVPDFBOX-721
p3562
aVPDFBOX-720
p3563
aVPDFBOX-719
p3564
aVPDFBOX-718
p3565
aVPDFBOX-717
p3566
aVPDFBOX-716
p3567
aVPDFBOX-715
p3568
aVPDFBOX-714
p3569
aVPDFBOX-713
p3570
aVPDFBOX-712
p3571
aVPDFBOX-711
p3572
aVPDFBOX-710
p3573
aVPDFBOX-709
p3574
aVPDFBOX-708
p3575
aVPDFBOX-707
p3576
aVPDFBOX-706
p3577
aVPDFBOX-705
p3578
aVPDFBOX-704
p3579
aVPDFBOX-703
p3580
aVPDFBOX-702
p3581
aVPDFBOX-701
p3582
aVPDFBOX-700
p3583
aVPDFBOX-699
p3584
aVPDFBOX-698
p3585
aVPDFBOX-697
p3586
aVPDFBOX-696
p3587
aVPDFBOX-695
p3588
aVPDFBOX-694
p3589
aVPDFBOX-693
p3590
aVPDFBOX-692
p3591
aVPDFBOX-691
p3592
aVPDFBOX-690
p3593
aVPDFBOX-689
p3594
aVPDFBOX-688
p3595
aVPDFBOX-687
p3596
aVPDFBOX-686
p3597
aVPDFBOX-685
p3598
aVPDFBOX-684
p3599
aVPDFBOX-683
p3600
aVPDFBOX-682
p3601
aVPDFBOX-681
p3602
aVPDFBOX-680
p3603
aVPDFBOX-679
p3604
aVPDFBOX-678
p3605
aVPDFBOX-677
p3606
aVPDFBOX-676
p3607
aVPDFBOX-675
p3608
aVPDFBOX-674
p3609
aVPDFBOX-673
p3610
aVPDFBOX-672
p3611
aVPDFBOX-671
p3612
aVPDFBOX-670
p3613
aVPDFBOX-669
p3614
aVPDFBOX-668
p3615
aVPDFBOX-667
p3616
aVPDFBOX-666
p3617
aVPDFBOX-665
p3618
aVPDFBOX-664
p3619
aVPDFBOX-663
p3620
aVPDFBOX-662
p3621
aVPDFBOX-661
p3622
aVPDFBOX-660
p3623
aVPDFBOX-659
p3624
aVPDFBOX-658
p3625
aVPDFBOX-657
p3626
aVPDFBOX-656
p3627
aVPDFBOX-655
p3628
aVPDFBOX-654
p3629
aVPDFBOX-653
p3630
aVPDFBOX-652
p3631
aVPDFBOX-651
p3632
aVPDFBOX-650
p3633
aVPDFBOX-649
p3634
aVPDFBOX-648
p3635
aVPDFBOX-647
p3636
aVPDFBOX-646
p3637
aVPDFBOX-645
p3638
aVPDFBOX-644
p3639
aVPDFBOX-643
p3640
aVPDFBOX-642
p3641
aVPDFBOX-641
p3642
aVPDFBOX-640
p3643
aVPDFBOX-639
p3644
aVPDFBOX-638
p3645
aVPDFBOX-637
p3646
aVPDFBOX-636
p3647
aVPDFBOX-635
p3648
aVPDFBOX-634
p3649
aVPDFBOX-633
p3650
aVPDFBOX-632
p3651
aVPDFBOX-631
p3652
aVPDFBOX-630
p3653
aVPDFBOX-629
p3654
aVPDFBOX-628
p3655
aVPDFBOX-627
p3656
aVPDFBOX-626
p3657
aVPDFBOX-625
p3658
aVPDFBOX-624
p3659
aVPDFBOX-623
p3660
aVPDFBOX-622
p3661
aVPDFBOX-621
p3662
aVPDFBOX-620
p3663
aVPDFBOX-619
p3664
aVPDFBOX-618
p3665
aVPDFBOX-617
p3666
aVPDFBOX-616
p3667
aVPDFBOX-615
p3668
aVPDFBOX-614
p3669
aVPDFBOX-613
p3670
aVPDFBOX-612
p3671
aVPDFBOX-611
p3672
aVPDFBOX-610
p3673
aVPDFBOX-609
p3674
aVPDFBOX-608
p3675
aVPDFBOX-607
p3676
aVPDFBOX-606
p3677
aVPDFBOX-605
p3678
aVPDFBOX-604
p3679
aVPDFBOX-603
p3680
aVPDFBOX-602
p3681
aVPDFBOX-601
p3682
aVPDFBOX-600
p3683
aVPDFBOX-599
p3684
aVPDFBOX-598
p3685
aVPDFBOX-597
p3686
aVPDFBOX-596
p3687
aVPDFBOX-595
p3688
aVPDFBOX-594
p3689
aVPDFBOX-593
p3690
aVPDFBOX-592
p3691
aVPDFBOX-591
p3692
aVPDFBOX-590
p3693
aVPDFBOX-589
p3694
aVPDFBOX-588
p3695
aVPDFBOX-587
p3696
aVPDFBOX-586
p3697
aVPDFBOX-585
p3698
aVPDFBOX-584
p3699
aVPDFBOX-583
p3700
aVPDFBOX-582
p3701
aVPDFBOX-581
p3702
aVPDFBOX-580
p3703
aVPDFBOX-579
p3704
aVPDFBOX-578
p3705
aVPDFBOX-577
p3706
aVPDFBOX-576
p3707
aVPDFBOX-575
p3708
aVPDFBOX-574
p3709
aVPDFBOX-573
p3710
aVPDFBOX-572
p3711
aVPDFBOX-571
p3712
aVPDFBOX-570
p3713
aVPDFBOX-569
p3714
aVPDFBOX-568
p3715
aVPDFBOX-567
p3716
aVPDFBOX-566
p3717
aVPDFBOX-565
p3718
aVPDFBOX-564
p3719
aVPDFBOX-563
p3720
aVPDFBOX-562
p3721
aVPDFBOX-561
p3722
aVPDFBOX-560
p3723
aVPDFBOX-559
p3724
aVPDFBOX-558
p3725
aVPDFBOX-557
p3726
aVPDFBOX-556
p3727
aVPDFBOX-555
p3728
aVPDFBOX-554
p3729
aVPDFBOX-553
p3730
aVPDFBOX-552
p3731
aVPDFBOX-551
p3732
aVPDFBOX-550
p3733
aVPDFBOX-549
p3734
aVPDFBOX-548
p3735
aVPDFBOX-547
p3736
aVPDFBOX-546
p3737
aVPDFBOX-545
p3738
aVPDFBOX-544
p3739
aVPDFBOX-543
p3740
aVPDFBOX-542
p3741
aVPDFBOX-541
p3742
aVPDFBOX-540
p3743
aVPDFBOX-539
p3744
aVPDFBOX-538
p3745
aVPDFBOX-537
p3746
aVPDFBOX-536
p3747
aVPDFBOX-535
p3748
aVPDFBOX-534
p3749
aVPDFBOX-533
p3750
aVPDFBOX-532
p3751
aVPDFBOX-531
p3752
aVPDFBOX-530
p3753
aVPDFBOX-529
p3754
aVPDFBOX-528
p3755
aVPDFBOX-527
p3756
aVPDFBOX-526
p3757
aVPDFBOX-525
p3758
aVPDFBOX-524
p3759
aVPDFBOX-523
p3760
aVPDFBOX-522
p3761
aVPDFBOX-521
p3762
aVPDFBOX-520
p3763
aVPDFBOX-519
p3764
aVPDFBOX-518
p3765
aVPDFBOX-517
p3766
aVPDFBOX-516
p3767
aVPDFBOX-515
p3768
aVPDFBOX-514
p3769
aVPDFBOX-513
p3770
aVPDFBOX-512
p3771
aVPDFBOX-511
p3772
aVPDFBOX-510
p3773
aVPDFBOX-509
p3774
aVPDFBOX-508
p3775
aVPDFBOX-507
p3776
aVPDFBOX-506
p3777
aVPDFBOX-505
p3778
aVPDFBOX-504
p3779
aVPDFBOX-503
p3780
aVPDFBOX-502
p3781
aVPDFBOX-501
p3782
aVPDFBOX-500
p3783
aVPDFBOX-499
p3784
aVPDFBOX-498
p3785
aVPDFBOX-497
p3786
aVPDFBOX-496
p3787
aVPDFBOX-495
p3788
aVPDFBOX-494
p3789
aVPDFBOX-493
p3790
aVPDFBOX-492
p3791
aVPDFBOX-491
p3792
aVPDFBOX-490
p3793
aVPDFBOX-489
p3794
aVPDFBOX-488
p3795
aVPDFBOX-487
p3796
aVPDFBOX-486
p3797
aVPDFBOX-485
p3798
aVPDFBOX-484
p3799
aVPDFBOX-483
p3800
aVPDFBOX-482
p3801
aVPDFBOX-481
p3802
aVPDFBOX-480
p3803
aVPDFBOX-479
p3804
aVPDFBOX-478
p3805
aVPDFBOX-477
p3806
aVPDFBOX-476
p3807
aVPDFBOX-475
p3808
aVPDFBOX-474
p3809
aVPDFBOX-473
p3810
aVPDFBOX-472
p3811
aVPDFBOX-471
p3812
aVPDFBOX-470
p3813
aVPDFBOX-469
p3814
aVPDFBOX-468
p3815
aVPDFBOX-467
p3816
aVPDFBOX-466
p3817
aVPDFBOX-465
p3818
aVPDFBOX-464
p3819
aVPDFBOX-463
p3820
aVPDFBOX-462
p3821
aVPDFBOX-461
p3822
aVPDFBOX-460
p3823
aVPDFBOX-459
p3824
aVPDFBOX-458
p3825
aVPDFBOX-457
p3826
aVPDFBOX-456
p3827
aVPDFBOX-455
p3828
aVPDFBOX-454
p3829
aVPDFBOX-453
p3830
aVPDFBOX-452
p3831
aVPDFBOX-451
p3832
aVPDFBOX-450
p3833
aVPDFBOX-449
p3834
aVPDFBOX-448
p3835
aVPDFBOX-447
p3836
aVPDFBOX-446
p3837
aVPDFBOX-445
p3838
aVPDFBOX-444
p3839
aVPDFBOX-443
p3840
aVPDFBOX-442
p3841
aVPDFBOX-441
p3842
aVPDFBOX-440
p3843
aVPDFBOX-439
p3844
aVPDFBOX-438
p3845
aVPDFBOX-437
p3846
aVPDFBOX-436
p3847
aVPDFBOX-435
p3848
aVPDFBOX-434
p3849
aVPDFBOX-433
p3850
aVPDFBOX-432
p3851
aVPDFBOX-431
p3852
aVPDFBOX-430
p3853
aVPDFBOX-429
p3854
aVPDFBOX-428
p3855
aVPDFBOX-427
p3856
aVPDFBOX-426
p3857
aVPDFBOX-425
p3858
aVPDFBOX-424
p3859
aVPDFBOX-423
p3860
aVPDFBOX-422
p3861
aVPDFBOX-421
p3862
aVPDFBOX-420
p3863
aVPDFBOX-419
p3864
aVPDFBOX-418
p3865
aVPDFBOX-417
p3866
aVPDFBOX-416
p3867
aVPDFBOX-415
p3868
aVPDFBOX-414
p3869
aVPDFBOX-413
p3870
aVPDFBOX-412
p3871
aVPDFBOX-411
p3872
aVPDFBOX-410
p3873
aVPDFBOX-409
p3874
aVPDFBOX-408
p3875
aVPDFBOX-407
p3876
aVPDFBOX-406
p3877
aVPDFBOX-405
p3878
aVPDFBOX-404
p3879
aVPDFBOX-403
p3880
aVPDFBOX-402
p3881
aVPDFBOX-401
p3882
aVPDFBOX-400
p3883
aVPDFBOX-399
p3884
aVPDFBOX-398
p3885
aVPDFBOX-397
p3886
aVPDFBOX-396
p3887
aVPDFBOX-395
p3888
aVPDFBOX-394
p3889
aVPDFBOX-393
p3890
aVPDFBOX-392
p3891
aVPDFBOX-391
p3892
aVPDFBOX-390
p3893
aVPDFBOX-389
p3894
aVPDFBOX-388
p3895
aVPDFBOX-387
p3896
aVPDFBOX-386
p3897
aVPDFBOX-385
p3898
aVPDFBOX-384
p3899
aVPDFBOX-383
p3900
aVPDFBOX-382
p3901
aVPDFBOX-381
p3902
aVPDFBOX-380
p3903
aVPDFBOX-379
p3904
aVPDFBOX-378
p3905
aVPDFBOX-377
p3906
aVPDFBOX-376
p3907
aVPDFBOX-375
p3908
aVPDFBOX-374
p3909
aVPDFBOX-373
p3910
aVPDFBOX-372
p3911
aVPDFBOX-371
p3912
aVPDFBOX-370
p3913
aVPDFBOX-369
p3914
aVPDFBOX-368
p3915
aVPDFBOX-367
p3916
aVPDFBOX-366
p3917
aVPDFBOX-365
p3918
aVPDFBOX-364
p3919
aVPDFBOX-363
p3920
aVPDFBOX-362
p3921
aVPDFBOX-361
p3922
aVPDFBOX-360
p3923
aVPDFBOX-359
p3924
aVPDFBOX-358
p3925
aVPDFBOX-357
p3926
aVPDFBOX-356
p3927
aVPDFBOX-355
p3928
aVPDFBOX-354
p3929
aVPDFBOX-353
p3930
aVPDFBOX-352
p3931
aVPDFBOX-351
p3932
aVPDFBOX-350
p3933
aVPDFBOX-349
p3934
aVPDFBOX-348
p3935
aVPDFBOX-347
p3936
aVPDFBOX-346
p3937
aVPDFBOX-345
p3938
aVPDFBOX-344
p3939
aVPDFBOX-343
p3940
aVPDFBOX-342
p3941
aVPDFBOX-341
p3942
aVPDFBOX-340
p3943
aVPDFBOX-339
p3944
aVPDFBOX-338
p3945
aVPDFBOX-337
p3946
aVPDFBOX-336
p3947
aVPDFBOX-335
p3948
aVPDFBOX-334
p3949
aVPDFBOX-333
p3950
aVPDFBOX-332
p3951
aVPDFBOX-331
p3952
aVPDFBOX-330
p3953
aVPDFBOX-329
p3954
aVPDFBOX-328
p3955
aVPDFBOX-327
p3956
aVPDFBOX-326
p3957
aVPDFBOX-325
p3958
aVPDFBOX-324
p3959
aVPDFBOX-323
p3960
aVPDFBOX-322
p3961
aVPDFBOX-321
p3962
aVPDFBOX-320
p3963
aVPDFBOX-319
p3964
aVPDFBOX-318
p3965
aVPDFBOX-317
p3966
aVPDFBOX-316
p3967
aVPDFBOX-315
p3968
aVPDFBOX-314
p3969
aVPDFBOX-313
p3970
aVPDFBOX-312
p3971
aVPDFBOX-311
p3972
aVPDFBOX-310
p3973
aVPDFBOX-309
p3974
aVPDFBOX-308
p3975
aVPDFBOX-307
p3976
aVPDFBOX-306
p3977
aVPDFBOX-305
p3978
aVPDFBOX-304
p3979
aVPDFBOX-303
p3980
aVPDFBOX-302
p3981
aVPDFBOX-301
p3982
aVPDFBOX-300
p3983
aVPDFBOX-299
p3984
aVPDFBOX-298
p3985
aVPDFBOX-297
p3986
aVPDFBOX-296
p3987
aVPDFBOX-295
p3988
aVPDFBOX-294
p3989
aVPDFBOX-293
p3990
aVPDFBOX-292
p3991
aVPDFBOX-291
p3992
aVPDFBOX-290
p3993
aVPDFBOX-289
p3994
aVPDFBOX-288
p3995
aVPDFBOX-287
p3996
aVPDFBOX-286
p3997
aVPDFBOX-285
p3998
aVPDFBOX-284
p3999
aVPDFBOX-283
p4000
aVPDFBOX-282
p4001
aVPDFBOX-281
p4002
aVPDFBOX-280
p4003
aVPDFBOX-279
p4004
aVPDFBOX-278
p4005
aVPDFBOX-277
p4006
aVPDFBOX-276
p4007
aVPDFBOX-275
p4008
aVPDFBOX-274
p4009
aVPDFBOX-273
p4010
aVPDFBOX-272
p4011
aVPDFBOX-271
p4012
aVPDFBOX-270
p4013
aVPDFBOX-269
p4014
aVPDFBOX-268
p4015
aVPDFBOX-267
p4016
aVPDFBOX-266
p4017
aVPDFBOX-265
p4018
aVPDFBOX-264
p4019
aVPDFBOX-263
p4020
aVPDFBOX-262
p4021
aVPDFBOX-261
p4022
aVPDFBOX-260
p4023
aVPDFBOX-259
p4024
aVPDFBOX-258
p4025
aVPDFBOX-257
p4026
aVPDFBOX-256
p4027
aVPDFBOX-255
p4028
aVPDFBOX-254
p4029
aVPDFBOX-253
p4030
aVPDFBOX-252
p4031
aVPDFBOX-251
p4032
aVPDFBOX-250
p4033
aVPDFBOX-249
p4034
aVPDFBOX-248
p4035
aVPDFBOX-247
p4036
aVPDFBOX-246
p4037
aVPDFBOX-245
p4038
aVPDFBOX-244
p4039
aVPDFBOX-243
p4040
aVPDFBOX-242
p4041
aVPDFBOX-241
p4042
aVPDFBOX-240
p4043
aVPDFBOX-239
p4044
aVPDFBOX-238
p4045
aVPDFBOX-237
p4046
aVPDFBOX-236
p4047
aVPDFBOX-235
p4048
aVPDFBOX-234
p4049
aVPDFBOX-233
p4050
aVPDFBOX-232
p4051
aVPDFBOX-231
p4052
aVPDFBOX-230
p4053
aVPDFBOX-229
p4054
aVPDFBOX-228
p4055
aVPDFBOX-227
p4056
aVPDFBOX-226
p4057
aVPDFBOX-225
p4058
aVPDFBOX-224
p4059
aVPDFBOX-223
p4060
aVPDFBOX-222
p4061
aVPDFBOX-221
p4062
aVPDFBOX-220
p4063
aVPDFBOX-219
p4064
aVPDFBOX-218
p4065
aVPDFBOX-217
p4066
aVPDFBOX-216
p4067
aVPDFBOX-215
p4068
aVPDFBOX-214
p4069
aVPDFBOX-213
p4070
aVPDFBOX-212
p4071
aVPDFBOX-211
p4072
aVPDFBOX-210
p4073
aVPDFBOX-209
p4074
aVPDFBOX-208
p4075
aVPDFBOX-207
p4076
aVPDFBOX-206
p4077
aVPDFBOX-205
p4078
aVPDFBOX-204
p4079
aVPDFBOX-203
p4080
aVPDFBOX-202
p4081
aVPDFBOX-201
p4082
aVPDFBOX-200
p4083
aVPDFBOX-199
p4084
aVPDFBOX-198
p4085
aVPDFBOX-197
p4086
aVPDFBOX-196
p4087
aVPDFBOX-195
p4088
aVPDFBOX-194
p4089
aVPDFBOX-193
p4090
aVPDFBOX-192
p4091
aVPDFBOX-191
p4092
aVPDFBOX-190
p4093
aVPDFBOX-189
p4094
aVPDFBOX-188
p4095
aVPDFBOX-187
p4096
aVPDFBOX-186
p4097
aVPDFBOX-185
p4098
aVPDFBOX-184
p4099
aVPDFBOX-183
p4100
aVPDFBOX-182
p4101
aVPDFBOX-181
p4102
aVPDFBOX-180
p4103
aVPDFBOX-179
p4104
aVPDFBOX-178
p4105
aVPDFBOX-177
p4106
aVPDFBOX-176
p4107
aVPDFBOX-175
p4108
aVPDFBOX-174
p4109
aVPDFBOX-173
p4110
aVPDFBOX-172
p4111
aVPDFBOX-171
p4112
aVPDFBOX-170
p4113
aVPDFBOX-169
p4114
aVPDFBOX-168
p4115
aVPDFBOX-167
p4116
aVPDFBOX-166
p4117
aVPDFBOX-165
p4118
aVPDFBOX-164
p4119
aVPDFBOX-163
p4120
aVPDFBOX-162
p4121
aVPDFBOX-161
p4122
aVPDFBOX-160
p4123
aVPDFBOX-159
p4124
aVPDFBOX-158
p4125
aVPDFBOX-157
p4126
aVPDFBOX-156
p4127
aVPDFBOX-155
p4128
aVPDFBOX-154
p4129
aVPDFBOX-153
p4130
aVPDFBOX-152
p4131
aVPDFBOX-151
p4132
aVPDFBOX-150
p4133
aVPDFBOX-149
p4134
aVPDFBOX-148
p4135
aVPDFBOX-147
p4136
aVPDFBOX-146
p4137
aVPDFBOX-145
p4138
aVPDFBOX-144
p4139
aVPDFBOX-143
p4140
aVPDFBOX-142
p4141
aVPDFBOX-141
p4142
aVPDFBOX-140
p4143
aVPDFBOX-139
p4144
aVPDFBOX-138
p4145
aVPDFBOX-137
p4146
aVPDFBOX-136
p4147
aVPDFBOX-135
p4148
aVPDFBOX-134
p4149
aVPDFBOX-133
p4150
aVPDFBOX-132
p4151
aVPDFBOX-131
p4152
aVPDFBOX-130
p4153
aVPDFBOX-129
p4154
aVPDFBOX-128
p4155
aVPDFBOX-127
p4156
aVPDFBOX-126
p4157
aVPDFBOX-125
p4158
aVPDFBOX-124
p4159
aVPDFBOX-123
p4160
aVPDFBOX-122
p4161
aVPDFBOX-121
p4162
aVPDFBOX-120
p4163
aVPDFBOX-119
p4164
aVPDFBOX-118
p4165
aVPDFBOX-117
p4166
aVPDFBOX-116
p4167
aVPDFBOX-115
p4168
aVPDFBOX-114
p4169
aVPDFBOX-113
p4170
aVPDFBOX-112
p4171
aVPDFBOX-111
p4172
aVPDFBOX-110
p4173
aVPDFBOX-109
p4174
aVPDFBOX-108
p4175
aVPDFBOX-107
p4176
aVPDFBOX-106
p4177
aVPDFBOX-105
p4178
aVPDFBOX-104
p4179
aVPDFBOX-103
p4180
aVPDFBOX-102
p4181
aVPDFBOX-101
p4182
aVPDFBOX-100
p4183
aVPDFBOX-99
p4184
aVPDFBOX-98
p4185
aVPDFBOX-97
p4186
aVPDFBOX-96
p4187
aVPDFBOX-95
p4188
aVPDFBOX-94
p4189
aVPDFBOX-93
p4190
aVPDFBOX-92
p4191
aVPDFBOX-91
p4192
aVPDFBOX-90
p4193
aVPDFBOX-89
p4194
aVPDFBOX-88
p4195
aVPDFBOX-87
p4196
aVPDFBOX-86
p4197
aVPDFBOX-85
p4198
aVPDFBOX-84
p4199
aVPDFBOX-83
p4200
aVPDFBOX-82
p4201
aVPDFBOX-81
p4202
aVPDFBOX-80
p4203
aVPDFBOX-79
p4204
aVPDFBOX-78
p4205
aVPDFBOX-77
p4206
aVPDFBOX-76
p4207
aVPDFBOX-75
p4208
aVPDFBOX-74
p4209
aVPDFBOX-73
p4210
aVPDFBOX-72
p4211
aVPDFBOX-71
p4212
aVPDFBOX-70
p4213
aVPDFBOX-69
p4214
aVPDFBOX-68
p4215
aVPDFBOX-67
p4216
aVPDFBOX-66
p4217
aVPDFBOX-65
p4218
aVPDFBOX-64
p4219
aVPDFBOX-63
p4220
aVPDFBOX-62
p4221
aVPDFBOX-61
p4222
aVPDFBOX-60
p4223
aVPDFBOX-59
p4224
aVPDFBOX-58
p4225
aVPDFBOX-57
p4226
aVPDFBOX-56
p4227
aVPDFBOX-55
p4228
aVPDFBOX-54
p4229
aVPDFBOX-53
p4230
aVPDFBOX-52
p4231
aVPDFBOX-51
p4232
aVPDFBOX-50
p4233
aVPDFBOX-49
p4234
aVPDFBOX-48
p4235
aVPDFBOX-47
p4236
aVPDFBOX-46
p4237
aVPDFBOX-45
p4238
aVPDFBOX-44
p4239
aVPDFBOX-43
p4240
aVPDFBOX-42
p4241
aVPDFBOX-41
p4242
aVPDFBOX-40
p4243
aVPDFBOX-39
p4244
aVPDFBOX-38
p4245
aVPDFBOX-37
p4246
aVPDFBOX-36
p4247
aVPDFBOX-35
p4248
aVPDFBOX-34
p4249
aVPDFBOX-33
p4250
aVPDFBOX-32
p4251
aVPDFBOX-31
p4252
aVPDFBOX-30
p4253
aVPDFBOX-29
p4254
aVPDFBOX-28
p4255
aVPDFBOX-27
p4256
aVPDFBOX-26
p4257
aVPDFBOX-25
p4258
aVPDFBOX-24
p4259
aVPDFBOX-23
p4260
aVPDFBOX-22
p4261
aVPDFBOX-21
p4262
aVPDFBOX-20
p4263
aVPDFBOX-19
p4264
aVPDFBOX-18
p4265
aVPDFBOX-17
p4266
aVPDFBOX-16
p4267
aVPDFBOX-15
p4268
aVPDFBOX-14
p4269
aVPDFBOX-13
p4270
aVPDFBOX-12
p4271
aVPDFBOX-11
p4272
aVPDFBOX-10
p4273
aVPDFBOX-9
p4274
aVPDFBOX-8
p4275
aVPDFBOX-7
p4276
aVPDFBOX-6
p4277
aVPDFBOX-5
p4278
aVPDFBOX-4
p4279
aVPDFBOX-3
p4280
aVPDFBOX-2
p4281
aVPDFBOX-1
p4282
a.