(lp0
VPHOENIX-4833
p1
aVPHOENIX-4832
p2
aVPHOENIX-4831
p3
aVPHOENIX-4830
p4
aVPHOENIX-4829
p5
aVPHOENIX-4828
p6
aVPHOENIX-4827
p7
aVPHOENIX-4826
p8
aVPHOENIX-4825
p9
aVPHOENIX-4824
p10
aVPHOENIX-4823
p11
aVPHOENIX-4822
p12
aVPHOENIX-4821
p13
aVPHOENIX-4820
p14
aVPHOENIX-4819
p15
aVPHOENIX-4818
p16
aVPHOENIX-4817
p17
aVPHOENIX-4816
p18
aVPHOENIX-4815
p19
aVPHOENIX-4814
p20
aVPHOENIX-4813
p21
aVPHOENIX-4812
p22
aVPHOENIX-4811
p23
aVPHOENIX-4810
p24
aVPHOENIX-4809
p25
aVPHOENIX-4808
p26
aVPHOENIX-4807
p27
aVPHOENIX-4806
p28
aVPHOENIX-4805
p29
aVPHOENIX-4804
p30
aVPHOENIX-4803
p31
aVPHOENIX-4802
p32
aVPHOENIX-4801
p33
aVPHOENIX-4800
p34
aVPHOENIX-4799
p35
aVPHOENIX-4798
p36
aVPHOENIX-4797
p37
aVPHOENIX-4796
p38
aVPHOENIX-4795
p39
aVPHOENIX-4794
p40
aVPHOENIX-4793
p41
aVPHOENIX-4792
p42
aVPHOENIX-4791
p43
aVPHOENIX-4790
p44
aVPHOENIX-4789
p45
aVPHOENIX-4788
p46
aVPHOENIX-4787
p47
aVPHOENIX-4786
p48
aVPHOENIX-4785
p49
aVPHOENIX-4784
p50
aVPHOENIX-4783
p51
aVPHOENIX-4782
p52
aVPHOENIX-4781
p53
aVPHOENIX-4780
p54
aVPHOENIX-4779
p55
aVPHOENIX-4778
p56
aVPHOENIX-4777
p57
aVPHOENIX-4776
p58
aVPHOENIX-4775
p59
aVPHOENIX-4774
p60
aVPHOENIX-4773
p61
aVPHOENIX-4772
p62
aVPHOENIX-4771
p63
aVPHOENIX-4770
p64
aVPHOENIX-4769
p65
aVPHOENIX-4768
p66
aVPHOENIX-4767
p67
aVPHOENIX-4766
p68
aVPHOENIX-4765
p69
aVPHOENIX-4764
p70
aVPHOENIX-4763
p71
aVPHOENIX-4762
p72
aVPHOENIX-4761
p73
aVPHOENIX-4760
p74
aVPHOENIX-4759
p75
aVPHOENIX-4758
p76
aVPHOENIX-4757
p77
aVPHOENIX-4756
p78
aVPHOENIX-4755
p79
aVPHOENIX-4754
p80
aVPHOENIX-4753
p81
aVPHOENIX-4752
p82
aVPHOENIX-4751
p83
aVPHOENIX-4750
p84
aVPHOENIX-4749
p85
aVPHOENIX-4748
p86
aVPHOENIX-4747
p87
aVPHOENIX-4746
p88
aVPHOENIX-4745
p89
aVPHOENIX-4744
p90
aVPHOENIX-4743
p91
aVPHOENIX-4742
p92
aVPHOENIX-4741
p93
aVPHOENIX-4740
p94
aVPHOENIX-4739
p95
aVPHOENIX-4738
p96
aVPHOENIX-4737
p97
aVPHOENIX-4736
p98
aVPHOENIX-4735
p99
aVPHOENIX-4734
p100
aVPHOENIX-4733
p101
aVPHOENIX-4732
p102
aVPHOENIX-4731
p103
aVPHOENIX-4730
p104
aVPHOENIX-4729
p105
aVPHOENIX-4728
p106
aVPHOENIX-4727
p107
aVPHOENIX-4726
p108
aVPHOENIX-4725
p109
aVPHOENIX-4724
p110
aVPHOENIX-4723
p111
aVPHOENIX-4722
p112
aVPHOENIX-4721
p113
aVPHOENIX-4720
p114
aVPHOENIX-4719
p115
aVPHOENIX-4718
p116
aVPHOENIX-4717
p117
aVPHOENIX-4716
p118
aVPHOENIX-4715
p119
aVPHOENIX-4714
p120
aVPHOENIX-4713
p121
aVPHOENIX-4712
p122
aVPHOENIX-4711
p123
aVPHOENIX-4710
p124
aVPHOENIX-4709
p125
aVPHOENIX-4708
p126
aVPHOENIX-4707
p127
aVPHOENIX-4706
p128
aVPHOENIX-4705
p129
aVPHOENIX-4704
p130
aVPHOENIX-4703
p131
aVPHOENIX-4702
p132
aVPHOENIX-4701
p133
aVPHOENIX-4700
p134
aVPHOENIX-4699
p135
aVPHOENIX-4698
p136
aVPHOENIX-4697
p137
aVPHOENIX-4696
p138
aVPHOENIX-4694
p139
aVPHOENIX-4693
p140
aVPHOENIX-4692
p141
aVPHOENIX-4691
p142
aVPHOENIX-4690
p143
aVPHOENIX-4689
p144
aVPHOENIX-4688
p145
aVPHOENIX-4687
p146
aVPHOENIX-4686
p147
aVPHOENIX-4685
p148
aVPHOENIX-4684
p149
aVPHOENIX-4683
p150
aVPHOENIX-4682
p151
aVPHOENIX-4681
p152
aVPHOENIX-4680
p153
aVPHOENIX-4679
p154
aVPHOENIX-4678
p155
aVPHOENIX-4677
p156
aVPHOENIX-4676
p157
aVPHOENIX-4675
p158
aVPHOENIX-4674
p159
aVPHOENIX-4673
p160
aVPHOENIX-4672
p161
aVPHOENIX-4671
p162
aVPHOENIX-4670
p163
aVPHOENIX-4669
p164
aVPHOENIX-4668
p165
aVPHOENIX-4667
p166
aVPHOENIX-4666
p167
aVPHOENIX-4665
p168
aVPHOENIX-4664
p169
aVPHOENIX-4663
p170
aVPHOENIX-4662
p171
aVPHOENIX-4661
p172
aVPHOENIX-4660
p173
aVPHOENIX-4659
p174
aVPHOENIX-4658
p175
aVPHOENIX-4657
p176
aVPHOENIX-4656
p177
aVPHOENIX-4655
p178
aVPHOENIX-4654
p179
aVPHOENIX-4653
p180
aVPHOENIX-4652
p181
aVPHOENIX-4651
p182
aVPHOENIX-4650
p183
aVPHOENIX-4649
p184
aVPHOENIX-4648
p185
aVPHOENIX-4647
p186
aVPHOENIX-4646
p187
aVPHOENIX-4645
p188
aVPHOENIX-4644
p189
aVPHOENIX-4643
p190
aVPHOENIX-4642
p191
aVPHOENIX-4641
p192
aVPHOENIX-4640
p193
aVPHOENIX-4639
p194
aVPHOENIX-4638
p195
aVPHOENIX-4637
p196
aVPHOENIX-4636
p197
aVPHOENIX-4635
p198
aVPHOENIX-4634
p199
aVPHOENIX-4633
p200
aVPHOENIX-4632
p201
aVPHOENIX-4631
p202
aVPHOENIX-4630
p203
aVPHOENIX-4629
p204
aVPHOENIX-4628
p205
aVPHOENIX-4627
p206
aVPHOENIX-4626
p207
aVPHOENIX-4625
p208
aVPHOENIX-4624
p209
aVPHOENIX-4623
p210
aVPHOENIX-4622
p211
aVPHOENIX-4621
p212
aVPHOENIX-4620
p213
aVPHOENIX-4619
p214
aVPHOENIX-4618
p215
aVPHOENIX-4617
p216
aVPHOENIX-4616
p217
aVPHOENIX-4615
p218
aVPHOENIX-4614
p219
aVPHOENIX-4613
p220
aVPHOENIX-4612
p221
aVPHOENIX-4611
p222
aVPHOENIX-4610
p223
aVPHOENIX-4609
p224
aVPHOENIX-4608
p225
aVPHOENIX-4607
p226
aVPHOENIX-4606
p227
aVPHOENIX-4605
p228
aVPHOENIX-4604
p229
aVPHOENIX-4603
p230
aVPHOENIX-4602
p231
aVPHOENIX-4601
p232
aVPHOENIX-4600
p233
aVPHOENIX-4599
p234
aVPHOENIX-4598
p235
aVPHOENIX-4597
p236
aVPHOENIX-4596
p237
aVPHOENIX-4595
p238
aVPHOENIX-4594
p239
aVPHOENIX-4593
p240
aVPHOENIX-4592
p241
aVPHOENIX-4591
p242
aVPHOENIX-4590
p243
aVPHOENIX-4589
p244
aVPHOENIX-4588
p245
aVPHOENIX-4587
p246
aVPHOENIX-4586
p247
aVPHOENIX-4585
p248
aVPHOENIX-4584
p249
aVPHOENIX-4583
p250
aVPHOENIX-4582
p251
aVPHOENIX-4581
p252
aVPHOENIX-4580
p253
aVPHOENIX-4579
p254
aVPHOENIX-4578
p255
aVPHOENIX-4577
p256
aVPHOENIX-4576
p257
aVPHOENIX-4575
p258
aVPHOENIX-4574
p259
aVPHOENIX-4573
p260
aVPHOENIX-4572
p261
aVPHOENIX-4571
p262
aVPHOENIX-4570
p263
aVPHOENIX-4569
p264
aVPHOENIX-4568
p265
aVPHOENIX-4567
p266
aVPHOENIX-4566
p267
aVPHOENIX-4565
p268
aVPHOENIX-4564
p269
aVPHOENIX-4563
p270
aVPHOENIX-4562
p271
aVPHOENIX-4561
p272
aVPHOENIX-4560
p273
aVPHOENIX-4559
p274
aVPHOENIX-4558
p275
aVPHOENIX-4557
p276
aVPHOENIX-4556
p277
aVPHOENIX-4555
p278
aVPHOENIX-4554
p279
aVPHOENIX-4553
p280
aVPHOENIX-4552
p281
aVPHOENIX-4551
p282
aVPHOENIX-4550
p283
aVPHOENIX-4549
p284
aVPHOENIX-4548
p285
aVPHOENIX-4547
p286
aVPHOENIX-4546
p287
aVPHOENIX-4545
p288
aVPHOENIX-4544
p289
aVPHOENIX-4543
p290
aVPHOENIX-4542
p291
aVPHOENIX-4541
p292
aVPHOENIX-4540
p293
aVPHOENIX-4539
p294
aVPHOENIX-4538
p295
aVPHOENIX-4537
p296
aVPHOENIX-4536
p297
aVPHOENIX-4535
p298
aVPHOENIX-4534
p299
aVPHOENIX-4533
p300
aVPHOENIX-4532
p301
aVPHOENIX-4531
p302
aVPHOENIX-4530
p303
aVPHOENIX-4529
p304
aVPHOENIX-4528
p305
aVPHOENIX-4527
p306
aVPHOENIX-4526
p307
aVPHOENIX-4525
p308
aVPHOENIX-4524
p309
aVPHOENIX-4523
p310
aVPHOENIX-4522
p311
aVPHOENIX-4521
p312
aVPHOENIX-4520
p313
aVPHOENIX-4519
p314
aVPHOENIX-4518
p315
aVPHOENIX-4517
p316
aVPHOENIX-4516
p317
aVPHOENIX-4515
p318
aVPHOENIX-4514
p319
aVPHOENIX-4513
p320
aVPHOENIX-4512
p321
aVPHOENIX-4511
p322
aVPHOENIX-4510
p323
aVPHOENIX-4509
p324
aVPHOENIX-4508
p325
aVPHOENIX-4506
p326
aVPHOENIX-4505
p327
aVPHOENIX-4504
p328
aVPHOENIX-4503
p329
aVPHOENIX-4502
p330
aVPHOENIX-4501
p331
aVPHOENIX-4500
p332
aVPHOENIX-4499
p333
aVPHOENIX-4498
p334
aVPHOENIX-4497
p335
aVPHOENIX-4496
p336
aVPHOENIX-4495
p337
aVPHOENIX-4494
p338
aVPHOENIX-4493
p339
aVPHOENIX-4492
p340
aVPHOENIX-4491
p341
aVPHOENIX-4490
p342
aVPHOENIX-4489
p343
aVPHOENIX-4488
p344
aVPHOENIX-4487
p345
aVPHOENIX-4486
p346
aVPHOENIX-4485
p347
aVPHOENIX-4484
p348
aVPHOENIX-4483
p349
aVPHOENIX-4482
p350
aVPHOENIX-4481
p351
aVPHOENIX-4480
p352
aVPHOENIX-4479
p353
aVPHOENIX-4478
p354
aVPHOENIX-4477
p355
aVPHOENIX-4476
p356
aVPHOENIX-4475
p357
aVPHOENIX-4474
p358
aVPHOENIX-4473
p359
aVPHOENIX-4472
p360
aVPHOENIX-4471
p361
aVPHOENIX-4470
p362
aVPHOENIX-4469
p363
aVPHOENIX-4468
p364
aVPHOENIX-4467
p365
aVPHOENIX-4466
p366
aVPHOENIX-4465
p367
aVPHOENIX-4464
p368
aVPHOENIX-4463
p369
aVPHOENIX-4462
p370
aVPHOENIX-4461
p371
aVPHOENIX-4460
p372
aVPHOENIX-4459
p373
aVPHOENIX-4458
p374
aVPHOENIX-4457
p375
aVPHOENIX-4456
p376
aVPHOENIX-4455
p377
aVPHOENIX-4454
p378
aVPHOENIX-4453
p379
aVPHOENIX-4452
p380
aVPHOENIX-4451
p381
aVPHOENIX-4450
p382
aVPHOENIX-4449
p383
aVPHOENIX-4448
p384
aVPHOENIX-4447
p385
aVPHOENIX-4446
p386
aVPHOENIX-4445
p387
aVPHOENIX-4444
p388
aVPHOENIX-4443
p389
aVPHOENIX-4442
p390
aVPHOENIX-4441
p391
aVPHOENIX-4440
p392
aVPHOENIX-4439
p393
aVPHOENIX-4438
p394
aVPHOENIX-4437
p395
aVPHOENIX-4436
p396
aVPHOENIX-4435
p397
aVPHOENIX-4434
p398
aVPHOENIX-4433
p399
aVPHOENIX-4432
p400
aVPHOENIX-4431
p401
aVPHOENIX-4430
p402
aVPHOENIX-4429
p403
aVPHOENIX-4428
p404
aVPHOENIX-4427
p405
aVPHOENIX-4426
p406
aVPHOENIX-4425
p407
aVPHOENIX-4424
p408
aVPHOENIX-4423
p409
aVPHOENIX-4422
p410
aVPHOENIX-4421
p411
aVPHOENIX-4420
p412
aVPHOENIX-4419
p413
aVPHOENIX-4418
p414
aVPHOENIX-4417
p415
aVPHOENIX-4416
p416
aVPHOENIX-4415
p417
aVPHOENIX-4414
p418
aVPHOENIX-4413
p419
aVPHOENIX-4412
p420
aVPHOENIX-4411
p421
aVPHOENIX-4410
p422
aVPHOENIX-4409
p423
aVPHOENIX-4408
p424
aVPHOENIX-4407
p425
aVPHOENIX-4406
p426
aVPHOENIX-4405
p427
aVPHOENIX-4404
p428
aVPHOENIX-4403
p429
aVPHOENIX-4402
p430
aVPHOENIX-4401
p431
aVPHOENIX-4400
p432
aVPHOENIX-4399
p433
aVPHOENIX-4398
p434
aVPHOENIX-4397
p435
aVPHOENIX-4396
p436
aVPHOENIX-4395
p437
aVPHOENIX-4394
p438
aVPHOENIX-4393
p439
aVPHOENIX-4392
p440
aVPHOENIX-4391
p441
aVPHOENIX-4390
p442
aVPHOENIX-4389
p443
aVPHOENIX-4388
p444
aVPHOENIX-4387
p445
aVPHOENIX-4386
p446
aVPHOENIX-4385
p447
aVPHOENIX-4384
p448
aVPHOENIX-4383
p449
aVPHOENIX-4382
p450
aVPHOENIX-4381
p451
aVPHOENIX-4380
p452
aVPHOENIX-4379
p453
aVPHOENIX-4378
p454
aVPHOENIX-4377
p455
aVPHOENIX-4376
p456
aVPHOENIX-4375
p457
aVPHOENIX-4374
p458
aVPHOENIX-4373
p459
aVPHOENIX-4372
p460
aVPHOENIX-4371
p461
aVPHOENIX-4370
p462
aVPHOENIX-4369
p463
aVPHOENIX-4368
p464
aVPHOENIX-4367
p465
aVPHOENIX-4366
p466
aVPHOENIX-4365
p467
aVPHOENIX-4364
p468
aVPHOENIX-4363
p469
aVPHOENIX-4362
p470
aVPHOENIX-4361
p471
aVPHOENIX-4360
p472
aVPHOENIX-4359
p473
aVPHOENIX-4358
p474
aVPHOENIX-4357
p475
aVPHOENIX-4356
p476
aVPHOENIX-4355
p477
aVPHOENIX-4354
p478
aVPHOENIX-4353
p479
aVPHOENIX-4352
p480
aVPHOENIX-4351
p481
aVPHOENIX-4350
p482
aVPHOENIX-4349
p483
aVPHOENIX-4348
p484
aVPHOENIX-4347
p485
aVPHOENIX-4346
p486
aVPHOENIX-4345
p487
aVPHOENIX-4344
p488
aVPHOENIX-4343
p489
aVPHOENIX-4342
p490
aVPHOENIX-4341
p491
aVPHOENIX-4340
p492
aVPHOENIX-4339
p493
aVPHOENIX-4338
p494
aVPHOENIX-4337
p495
aVPHOENIX-4336
p496
aVPHOENIX-4335
p497
aVPHOENIX-4334
p498
aVPHOENIX-4333
p499
aVPHOENIX-4332
p500
aVPHOENIX-4331
p501
aVPHOENIX-4330
p502
aVPHOENIX-4329
p503
aVPHOENIX-4328
p504
aVPHOENIX-4326
p505
aVPHOENIX-4325
p506
aVPHOENIX-4324
p507
aVPHOENIX-4323
p508
aVPHOENIX-4322
p509
aVPHOENIX-4321
p510
aVPHOENIX-4320
p511
aVPHOENIX-4319
p512
aVPHOENIX-4318
p513
aVPHOENIX-4317
p514
aVPHOENIX-4316
p515
aVPHOENIX-4315
p516
aVPHOENIX-4314
p517
aVPHOENIX-4313
p518
aVPHOENIX-4312
p519
aVPHOENIX-4311
p520
aVPHOENIX-4310
p521
aVPHOENIX-4309
p522
aVPHOENIX-4308
p523
aVPHOENIX-4307
p524
aVPHOENIX-4306
p525
aVPHOENIX-4305
p526
aVPHOENIX-4304
p527
aVPHOENIX-4303
p528
aVPHOENIX-4302
p529
aVPHOENIX-4301
p530
aVPHOENIX-4300
p531
aVPHOENIX-4299
p532
aVPHOENIX-4298
p533
aVPHOENIX-4297
p534
aVPHOENIX-4296
p535
aVPHOENIX-4295
p536
aVPHOENIX-4294
p537
aVPHOENIX-4293
p538
aVPHOENIX-4292
p539
aVPHOENIX-4291
p540
aVPHOENIX-4290
p541
aVPHOENIX-4289
p542
aVPHOENIX-4288
p543
aVPHOENIX-4287
p544
aVPHOENIX-4286
p545
aVPHOENIX-4285
p546
aVPHOENIX-4284
p547
aVPHOENIX-4283
p548
aVPHOENIX-4282
p549
aVPHOENIX-4281
p550
aVPHOENIX-4280
p551
aVPHOENIX-4279
p552
aVPHOENIX-4278
p553
aVPHOENIX-4277
p554
aVPHOENIX-4276
p555
aVPHOENIX-4275
p556
aVPHOENIX-4274
p557
aVPHOENIX-4273
p558
aVPHOENIX-4272
p559
aVPHOENIX-4271
p560
aVPHOENIX-4270
p561
aVPHOENIX-4269
p562
aVPHOENIX-4268
p563
aVPHOENIX-4267
p564
aVPHOENIX-4266
p565
aVPHOENIX-4265
p566
aVPHOENIX-4264
p567
aVPHOENIX-4263
p568
aVPHOENIX-4262
p569
aVPHOENIX-4261
p570
aVPHOENIX-4260
p571
aVPHOENIX-4259
p572
aVPHOENIX-4258
p573
aVPHOENIX-4257
p574
aVPHOENIX-4256
p575
aVPHOENIX-4255
p576
aVPHOENIX-4254
p577
aVPHOENIX-4253
p578
aVPHOENIX-4252
p579
aVPHOENIX-4251
p580
aVPHOENIX-4250
p581
aVPHOENIX-4249
p582
aVPHOENIX-4248
p583
aVPHOENIX-4247
p584
aVPHOENIX-4246
p585
aVPHOENIX-4245
p586
aVPHOENIX-4244
p587
aVPHOENIX-4243
p588
aVPHOENIX-4242
p589
aVPHOENIX-4241
p590
aVPHOENIX-4240
p591
aVPHOENIX-4239
p592
aVPHOENIX-4238
p593
aVPHOENIX-4237
p594
aVPHOENIX-4236
p595
aVPHOENIX-4235
p596
aVPHOENIX-4234
p597
aVPHOENIX-4233
p598
aVPHOENIX-4232
p599
aVPHOENIX-4231
p600
aVPHOENIX-4230
p601
aVPHOENIX-4229
p602
aVPHOENIX-4228
p603
aVPHOENIX-4227
p604
aVPHOENIX-4226
p605
aVPHOENIX-4225
p606
aVPHOENIX-4224
p607
aVPHOENIX-4223
p608
aVPHOENIX-4222
p609
aVPHOENIX-4221
p610
aVPHOENIX-4220
p611
aVPHOENIX-4219
p612
aVPHOENIX-4218
p613
aVPHOENIX-4217
p614
aVPHOENIX-4216
p615
aVPHOENIX-4215
p616
aVPHOENIX-4214
p617
aVPHOENIX-4213
p618
aVPHOENIX-4212
p619
aVPHOENIX-4211
p620
aVPHOENIX-4210
p621
aVPHOENIX-4209
p622
aVPHOENIX-4208
p623
aVPHOENIX-4207
p624
aVPHOENIX-4206
p625
aVPHOENIX-4205
p626
aVPHOENIX-4204
p627
aVPHOENIX-4203
p628
aVPHOENIX-4202
p629
aVPHOENIX-4201
p630
aVPHOENIX-4200
p631
aVPHOENIX-4199
p632
aVPHOENIX-4198
p633
aVPHOENIX-4197
p634
aVPHOENIX-4196
p635
aVPHOENIX-4195
p636
aVPHOENIX-4194
p637
aVPHOENIX-4193
p638
aVPHOENIX-4192
p639
aVPHOENIX-4191
p640
aVPHOENIX-4190
p641
aVPHOENIX-4189
p642
aVPHOENIX-4188
p643
aVPHOENIX-4187
p644
aVPHOENIX-4186
p645
aVPHOENIX-4185
p646
aVPHOENIX-4184
p647
aVPHOENIX-4183
p648
aVPHOENIX-4182
p649
aVPHOENIX-4181
p650
aVPHOENIX-4180
p651
aVPHOENIX-4179
p652
aVPHOENIX-4178
p653
aVPHOENIX-4177
p654
aVPHOENIX-4176
p655
aVPHOENIX-4175
p656
aVPHOENIX-4174
p657
aVPHOENIX-4173
p658
aVPHOENIX-4172
p659
aVPHOENIX-4171
p660
aVPHOENIX-4170
p661
aVPHOENIX-4169
p662
aVPHOENIX-4168
p663
aVPHOENIX-4167
p664
aVPHOENIX-4166
p665
aVPHOENIX-4165
p666
aVPHOENIX-4164
p667
aVPHOENIX-4163
p668
aVPHOENIX-4162
p669
aVPHOENIX-4161
p670
aVPHOENIX-4160
p671
aVPHOENIX-4159
p672
aVPHOENIX-4158
p673
aVPHOENIX-4157
p674
aVPHOENIX-4156
p675
aVPHOENIX-4155
p676
aVPHOENIX-4154
p677
aVPHOENIX-4153
p678
aVPHOENIX-4152
p679
aVPHOENIX-4151
p680
aVPHOENIX-4150
p681
aVPHOENIX-4149
p682
aVPHOENIX-4148
p683
aVPHOENIX-4147
p684
aVPHOENIX-4146
p685
aVPHOENIX-4145
p686
aVPHOENIX-4144
p687
aVPHOENIX-4143
p688
aVPHOENIX-4142
p689
aVPHOENIX-4141
p690
aVPHOENIX-4140
p691
aVPHOENIX-4139
p692
aVPHOENIX-4138
p693
aVPHOENIX-4137
p694
aVPHOENIX-4136
p695
aVPHOENIX-4135
p696
aVPHOENIX-4134
p697
aVPHOENIX-4133
p698
aVPHOENIX-4132
p699
aVPHOENIX-4131
p700
aVPHOENIX-4130
p701
aVPHOENIX-4129
p702
aVPHOENIX-4128
p703
aVPHOENIX-4127
p704
aVPHOENIX-4126
p705
aVPHOENIX-4125
p706
aVPHOENIX-4124
p707
aVPHOENIX-4123
p708
aVPHOENIX-4122
p709
aVPHOENIX-4121
p710
aVPHOENIX-4120
p711
aVPHOENIX-4119
p712
aVPHOENIX-4118
p713
aVPHOENIX-4117
p714
aVPHOENIX-4116
p715
aVPHOENIX-4115
p716
aVPHOENIX-4114
p717
aVPHOENIX-4113
p718
aVPHOENIX-4112
p719
aVPHOENIX-4111
p720
aVPHOENIX-4110
p721
aVPHOENIX-4109
p722
aVPHOENIX-4108
p723
aVPHOENIX-4107
p724
aVPHOENIX-4106
p725
aVPHOENIX-4105
p726
aVPHOENIX-4104
p727
aVPHOENIX-4103
p728
aVPHOENIX-4102
p729
aVPHOENIX-4101
p730
aVPHOENIX-4100
p731
aVPHOENIX-4099
p732
aVPHOENIX-4098
p733
aVPHOENIX-4097
p734
aVPHOENIX-4096
p735
aVPHOENIX-4095
p736
aVPHOENIX-4094
p737
aVPHOENIX-4093
p738
aVPHOENIX-4092
p739
aVPHOENIX-4091
p740
aVPHOENIX-4090
p741
aVPHOENIX-4089
p742
aVPHOENIX-4088
p743
aVPHOENIX-4087
p744
aVPHOENIX-4086
p745
aVPHOENIX-4085
p746
aVPHOENIX-4084
p747
aVPHOENIX-4083
p748
aVPHOENIX-4082
p749
aVPHOENIX-4081
p750
aVPHOENIX-4080
p751
aVPHOENIX-4079
p752
aVPHOENIX-4078
p753
aVPHOENIX-4077
p754
aVPHOENIX-4076
p755
aVPHOENIX-4075
p756
aVPHOENIX-4074
p757
aVPHOENIX-4073
p758
aVPHOENIX-4072
p759
aVPHOENIX-4071
p760
aVPHOENIX-4070
p761
aVPHOENIX-4069
p762
aVPHOENIX-4068
p763
aVPHOENIX-4067
p764
aVPHOENIX-4066
p765
aVPHOENIX-4065
p766
aVPHOENIX-4064
p767
aVPHOENIX-4063
p768
aVPHOENIX-4062
p769
aVPHOENIX-4061
p770
aVPHOENIX-4060
p771
aVPHOENIX-4059
p772
aVPHOENIX-4058
p773
aVPHOENIX-4057
p774
aVPHOENIX-4056
p775
aVPHOENIX-4055
p776
aVPHOENIX-4054
p777
aVPHOENIX-4053
p778
aVPHOENIX-4052
p779
aVPHOENIX-4051
p780
aVPHOENIX-4050
p781
aVPHOENIX-4049
p782
aVPHOENIX-4048
p783
aVPHOENIX-4047
p784
aVPHOENIX-4046
p785
aVPHOENIX-4045
p786
aVPHOENIX-4044
p787
aVPHOENIX-4043
p788
aVPHOENIX-4042
p789
aVPHOENIX-4041
p790
aVPHOENIX-4040
p791
aVPHOENIX-4039
p792
aVPHOENIX-4038
p793
aVPHOENIX-4037
p794
aVPHOENIX-4036
p795
aVPHOENIX-4035
p796
aVPHOENIX-4034
p797
aVPHOENIX-4033
p798
aVPHOENIX-4032
p799
aVPHOENIX-4031
p800
aVPHOENIX-4030
p801
aVPHOENIX-4029
p802
aVPHOENIX-4028
p803
aVPHOENIX-4027
p804
aVPHOENIX-4026
p805
aVPHOENIX-4025
p806
aVPHOENIX-4024
p807
aVPHOENIX-4023
p808
aVPHOENIX-4022
p809
aVPHOENIX-4021
p810
aVPHOENIX-4020
p811
aVPHOENIX-4019
p812
aVPHOENIX-4018
p813
aVPHOENIX-4017
p814
aVPHOENIX-4016
p815
aVPHOENIX-4015
p816
aVPHOENIX-4014
p817
aVPHOENIX-4013
p818
aVPHOENIX-4012
p819
aVPHOENIX-4011
p820
aVPHOENIX-4010
p821
aVPHOENIX-4009
p822
aVPHOENIX-4008
p823
aVPHOENIX-4007
p824
aVPHOENIX-4006
p825
aVPHOENIX-4005
p826
aVPHOENIX-4004
p827
aVPHOENIX-4003
p828
aVPHOENIX-4002
p829
aVPHOENIX-4001
p830
aVPHOENIX-4000
p831
aVPHOENIX-3999
p832
aVPHOENIX-3998
p833
aVPHOENIX-3997
p834
aVPHOENIX-3996
p835
aVPHOENIX-3995
p836
aVPHOENIX-3994
p837
aVPHOENIX-3993
p838
aVPHOENIX-3992
p839
aVPHOENIX-3991
p840
aVPHOENIX-3990
p841
aVPHOENIX-3989
p842
aVPHOENIX-3988
p843
aVPHOENIX-3987
p844
aVPHOENIX-3986
p845
aVPHOENIX-3985
p846
aVPHOENIX-3984
p847
aVPHOENIX-3983
p848
aVPHOENIX-3982
p849
aVPHOENIX-3981
p850
aVPHOENIX-3980
p851
aVPHOENIX-3979
p852
aVPHOENIX-3978
p853
aVPHOENIX-3977
p854
aVPHOENIX-3976
p855
aVPHOENIX-3975
p856
aVPHOENIX-3974
p857
aVPHOENIX-3973
p858
aVPHOENIX-3972
p859
aVPHOENIX-3971
p860
aVPHOENIX-3970
p861
aVPHOENIX-3969
p862
aVPHOENIX-3968
p863
aVPHOENIX-3967
p864
aVPHOENIX-3966
p865
aVPHOENIX-3965
p866
aVPHOENIX-3964
p867
aVPHOENIX-3963
p868
aVPHOENIX-3962
p869
aVPHOENIX-3961
p870
aVPHOENIX-3960
p871
aVPHOENIX-3959
p872
aVPHOENIX-3958
p873
aVPHOENIX-3957
p874
aVPHOENIX-3956
p875
aVPHOENIX-3955
p876
aVPHOENIX-3954
p877
aVPHOENIX-3953
p878
aVPHOENIX-3952
p879
aVPHOENIX-3951
p880
aVPHOENIX-3950
p881
aVPHOENIX-3949
p882
aVPHOENIX-3948
p883
aVPHOENIX-3947
p884
aVPHOENIX-3946
p885
aVPHOENIX-3945
p886
aVPHOENIX-3944
p887
aVPHOENIX-3943
p888
aVPHOENIX-3942
p889
aVPHOENIX-3941
p890
aVPHOENIX-3940
p891
aVPHOENIX-3939
p892
aVPHOENIX-3938
p893
aVPHOENIX-3937
p894
aVPHOENIX-3936
p895
aVPHOENIX-3935
p896
aVPHOENIX-3934
p897
aVPHOENIX-3933
p898
aVPHOENIX-3932
p899
aVPHOENIX-3931
p900
aVPHOENIX-3930
p901
aVPHOENIX-3929
p902
aVPHOENIX-3928
p903
aVPHOENIX-3927
p904
aVPHOENIX-3926
p905
aVPHOENIX-3925
p906
aVPHOENIX-3924
p907
aVPHOENIX-3923
p908
aVPHOENIX-3922
p909
aVPHOENIX-3921
p910
aVPHOENIX-3920
p911
aVPHOENIX-3919
p912
aVPHOENIX-3918
p913
aVPHOENIX-3917
p914
aVPHOENIX-3916
p915
aVPHOENIX-3915
p916
aVPHOENIX-3914
p917
aVPHOENIX-3913
p918
aVPHOENIX-3912
p919
aVPHOENIX-3911
p920
aVPHOENIX-3910
p921
aVPHOENIX-3909
p922
aVPHOENIX-3908
p923
aVPHOENIX-3907
p924
aVPHOENIX-3906
p925
aVPHOENIX-3905
p926
aVPHOENIX-3904
p927
aVPHOENIX-3903
p928
aVPHOENIX-3902
p929
aVPHOENIX-3901
p930
aVPHOENIX-3900
p931
aVPHOENIX-3899
p932
aVPHOENIX-3898
p933
aVPHOENIX-3897
p934
aVPHOENIX-3896
p935
aVPHOENIX-3895
p936
aVPHOENIX-3894
p937
aVPHOENIX-3893
p938
aVPHOENIX-3891
p939
aVPHOENIX-3890
p940
aVPHOENIX-3889
p941
aVPHOENIX-3888
p942
aVPHOENIX-3887
p943
aVPHOENIX-3886
p944
aVPHOENIX-3885
p945
aVPHOENIX-3884
p946
aVPHOENIX-3883
p947
aVPHOENIX-3882
p948
aVPHOENIX-3881
p949
aVPHOENIX-3880
p950
aVPHOENIX-3879
p951
aVPHOENIX-3878
p952
aVPHOENIX-3877
p953
aVPHOENIX-3876
p954
aVPHOENIX-3875
p955
aVPHOENIX-3874
p956
aVPHOENIX-3873
p957
aVPHOENIX-3872
p958
aVPHOENIX-3871
p959
aVPHOENIX-3870
p960
aVPHOENIX-3869
p961
aVPHOENIX-3868
p962
aVPHOENIX-3867
p963
aVPHOENIX-3866
p964
aVPHOENIX-3865
p965
aVPHOENIX-3864
p966
aVPHOENIX-3863
p967
aVPHOENIX-3862
p968
aVPHOENIX-3861
p969
aVPHOENIX-3860
p970
aVPHOENIX-3859
p971
aVPHOENIX-3858
p972
aVPHOENIX-3857
p973
aVPHOENIX-3856
p974
aVPHOENIX-3855
p975
aVPHOENIX-3854
p976
aVPHOENIX-3853
p977
aVPHOENIX-3852
p978
aVPHOENIX-3851
p979
aVPHOENIX-3850
p980
aVPHOENIX-3849
p981
aVPHOENIX-3848
p982
aVPHOENIX-3847
p983
aVPHOENIX-3846
p984
aVPHOENIX-3845
p985
aVPHOENIX-3844
p986
aVPHOENIX-3843
p987
aVPHOENIX-3842
p988
aVPHOENIX-3841
p989
aVPHOENIX-3840
p990
aVPHOENIX-3839
p991
aVPHOENIX-3838
p992
aVPHOENIX-3837
p993
aVPHOENIX-3836
p994
aVPHOENIX-3835
p995
aVPHOENIX-3834
p996
aVPHOENIX-3833
p997
aVPHOENIX-3832
p998
aVPHOENIX-3831
p999
aVPHOENIX-3830
p1000
aVPHOENIX-3829
p1001
aVPHOENIX-3828
p1002
aVPHOENIX-3827
p1003
aVPHOENIX-3826
p1004
aVPHOENIX-3825
p1005
aVPHOENIX-3824
p1006
aVPHOENIX-3823
p1007
aVPHOENIX-3822
p1008
aVPHOENIX-3821
p1009
aVPHOENIX-3820
p1010
aVPHOENIX-3819
p1011
aVPHOENIX-3818
p1012
aVPHOENIX-3817
p1013
aVPHOENIX-3816
p1014
aVPHOENIX-3815
p1015
aVPHOENIX-3814
p1016
aVPHOENIX-3813
p1017
aVPHOENIX-3812
p1018
aVPHOENIX-3811
p1019
aVPHOENIX-3810
p1020
aVPHOENIX-3809
p1021
aVPHOENIX-3808
p1022
aVPHOENIX-3807
p1023
aVPHOENIX-3806
p1024
aVPHOENIX-3805
p1025
aVPHOENIX-3804
p1026
aVPHOENIX-3803
p1027
aVPHOENIX-3802
p1028
aVPHOENIX-3801
p1029
aVPHOENIX-3800
p1030
aVPHOENIX-3799
p1031
aVPHOENIX-3798
p1032
aVPHOENIX-3797
p1033
aVPHOENIX-3796
p1034
aVPHOENIX-3795
p1035
aVPHOENIX-3794
p1036
aVPHOENIX-3793
p1037
aVPHOENIX-3792
p1038
aVPHOENIX-3791
p1039
aVPHOENIX-3790
p1040
aVPHOENIX-3789
p1041
aVPHOENIX-3788
p1042
aVPHOENIX-3787
p1043
aVPHOENIX-3786
p1044
aVPHOENIX-3785
p1045
aVPHOENIX-3784
p1046
aVPHOENIX-3783
p1047
aVPHOENIX-3782
p1048
aVPHOENIX-3781
p1049
aVPHOENIX-3780
p1050
aVPHOENIX-3779
p1051
aVPHOENIX-3778
p1052
aVPHOENIX-3777
p1053
aVPHOENIX-3776
p1054
aVPHOENIX-3775
p1055
aVPHOENIX-3774
p1056
aVPHOENIX-3773
p1057
aVPHOENIX-3772
p1058
aVPHOENIX-3771
p1059
aVPHOENIX-3770
p1060
aVPHOENIX-3769
p1061
aVPHOENIX-3768
p1062
aVPHOENIX-3767
p1063
aVPHOENIX-3766
p1064
aVPHOENIX-3765
p1065
aVPHOENIX-3764
p1066
aVPHOENIX-3763
p1067
aVPHOENIX-3762
p1068
aVPHOENIX-3761
p1069
aVPHOENIX-3760
p1070
aVPHOENIX-3759
p1071
aVPHOENIX-3758
p1072
aVPHOENIX-3757
p1073
aVPHOENIX-3756
p1074
aVPHOENIX-3755
p1075
aVPHOENIX-3754
p1076
aVPHOENIX-3753
p1077
aVPHOENIX-3752
p1078
aVPHOENIX-3751
p1079
aVPHOENIX-3750
p1080
aVPHOENIX-3749
p1081
aVPHOENIX-3748
p1082
aVPHOENIX-3747
p1083
aVPHOENIX-3746
p1084
aVPHOENIX-3745
p1085
aVPHOENIX-3744
p1086
aVPHOENIX-3743
p1087
aVPHOENIX-3742
p1088
aVPHOENIX-3741
p1089
aVPHOENIX-3740
p1090
aVPHOENIX-3739
p1091
aVPHOENIX-3738
p1092
aVPHOENIX-3737
p1093
aVPHOENIX-3736
p1094
aVPHOENIX-3735
p1095
aVPHOENIX-3734
p1096
aVPHOENIX-3733
p1097
aVPHOENIX-3732
p1098
aVPHOENIX-3731
p1099
aVPHOENIX-3730
p1100
aVPHOENIX-3729
p1101
aVPHOENIX-3728
p1102
aVPHOENIX-3727
p1103
aVPHOENIX-3726
p1104
aVPHOENIX-3725
p1105
aVPHOENIX-3724
p1106
aVPHOENIX-3723
p1107
aVPHOENIX-3722
p1108
aVPHOENIX-3721
p1109
aVPHOENIX-3720
p1110
aVPHOENIX-3719
p1111
aVPHOENIX-3718
p1112
aVPHOENIX-3717
p1113
aVPHOENIX-3716
p1114
aVPHOENIX-3715
p1115
aVPHOENIX-3714
p1116
aVPHOENIX-3713
p1117
aVPHOENIX-3712
p1118
aVPHOENIX-3711
p1119
aVPHOENIX-3710
p1120
aVPHOENIX-3709
p1121
aVPHOENIX-3708
p1122
aVPHOENIX-3707
p1123
aVPHOENIX-3706
p1124
aVPHOENIX-3705
p1125
aVPHOENIX-3704
p1126
aVPHOENIX-3703
p1127
aVPHOENIX-3702
p1128
aVPHOENIX-3701
p1129
aVPHOENIX-3700
p1130
aVPHOENIX-3699
p1131
aVPHOENIX-3698
p1132
aVPHOENIX-3697
p1133
aVPHOENIX-3696
p1134
aVPHOENIX-3695
p1135
aVPHOENIX-3694
p1136
aVPHOENIX-3693
p1137
aVPHOENIX-3692
p1138
aVPHOENIX-3691
p1139
aVPHOENIX-3690
p1140
aVPHOENIX-3689
p1141
aVPHOENIX-3688
p1142
aVPHOENIX-3687
p1143
aVPHOENIX-3686
p1144
aVPHOENIX-3685
p1145
aVPHOENIX-3684
p1146
aVPHOENIX-3683
p1147
aVPHOENIX-3682
p1148
aVPHOENIX-3681
p1149
aVPHOENIX-3680
p1150
aVPHOENIX-3679
p1151
aVPHOENIX-3678
p1152
aVPHOENIX-3677
p1153
aVPHOENIX-3676
p1154
aVPHOENIX-3675
p1155
aVPHOENIX-3674
p1156
aVPHOENIX-3673
p1157
aVPHOENIX-3672
p1158
aVPHOENIX-3671
p1159
aVPHOENIX-3670
p1160
aVPHOENIX-3669
p1161
aVPHOENIX-3668
p1162
aVPHOENIX-3667
p1163
aVPHOENIX-3666
p1164
aVPHOENIX-3665
p1165
aVPHOENIX-3664
p1166
aVPHOENIX-3663
p1167
aVPHOENIX-3662
p1168
aVPHOENIX-3661
p1169
aVPHOENIX-3660
p1170
aVPHOENIX-3659
p1171
aVPHOENIX-3658
p1172
aVPHOENIX-3657
p1173
aVPHOENIX-3656
p1174
aVPHOENIX-3655
p1175
aVPHOENIX-3654
p1176
aVPHOENIX-3653
p1177
aVPHOENIX-3652
p1178
aVPHOENIX-3651
p1179
aVPHOENIX-3650
p1180
aVPHOENIX-3649
p1181
aVPHOENIX-3648
p1182
aVPHOENIX-3647
p1183
aVPHOENIX-3646
p1184
aVPHOENIX-3645
p1185
aVPHOENIX-3644
p1186
aVPHOENIX-3643
p1187
aVPHOENIX-3642
p1188
aVPHOENIX-3641
p1189
aVPHOENIX-3640
p1190
aVPHOENIX-3639
p1191
aVPHOENIX-3638
p1192
aVPHOENIX-3637
p1193
aVPHOENIX-3636
p1194
aVPHOENIX-3635
p1195
aVPHOENIX-3634
p1196
aVPHOENIX-3633
p1197
aVPHOENIX-3632
p1198
aVPHOENIX-3631
p1199
aVPHOENIX-3630
p1200
aVPHOENIX-3629
p1201
aVPHOENIX-3628
p1202
aVPHOENIX-3627
p1203
aVPHOENIX-3626
p1204
aVPHOENIX-3625
p1205
aVPHOENIX-3624
p1206
aVPHOENIX-3623
p1207
aVPHOENIX-3622
p1208
aVPHOENIX-3621
p1209
aVPHOENIX-3620
p1210
aVPHOENIX-3619
p1211
aVPHOENIX-3618
p1212
aVPHOENIX-3617
p1213
aVPHOENIX-3616
p1214
aVPHOENIX-3615
p1215
aVPHOENIX-3614
p1216
aVPHOENIX-3613
p1217
aVPHOENIX-3612
p1218
aVPHOENIX-3611
p1219
aVPHOENIX-3610
p1220
aVPHOENIX-3609
p1221
aVPHOENIX-3608
p1222
aVPHOENIX-3607
p1223
aVPHOENIX-3606
p1224
aVPHOENIX-3605
p1225
aVPHOENIX-3604
p1226
aVPHOENIX-3603
p1227
aVPHOENIX-3602
p1228
aVPHOENIX-3601
p1229
aVPHOENIX-3600
p1230
aVPHOENIX-3599
p1231
aVPHOENIX-3598
p1232
aVPHOENIX-3594
p1233
aVPHOENIX-3592
p1234
aVPHOENIX-3591
p1235
aVPHOENIX-3590
p1236
aVPHOENIX-3589
p1237
aVPHOENIX-3588
p1238
aVPHOENIX-3587
p1239
aVPHOENIX-3586
p1240
aVPHOENIX-3585
p1241
aVPHOENIX-3584
p1242
aVPHOENIX-3583
p1243
aVPHOENIX-3582
p1244
aVPHOENIX-3581
p1245
aVPHOENIX-3580
p1246
aVPHOENIX-3579
p1247
aVPHOENIX-3578
p1248
aVPHOENIX-3577
p1249
aVPHOENIX-3576
p1250
aVPHOENIX-3575
p1251
aVPHOENIX-3574
p1252
aVPHOENIX-3573
p1253
aVPHOENIX-3572
p1254
aVPHOENIX-3571
p1255
aVPHOENIX-3570
p1256
aVPHOENIX-3569
p1257
aVPHOENIX-3568
p1258
aVPHOENIX-3567
p1259
aVPHOENIX-3566
p1260
aVPHOENIX-3565
p1261
aVPHOENIX-3564
p1262
aVPHOENIX-3563
p1263
aVPHOENIX-3562
p1264
aVPHOENIX-3561
p1265
aVPHOENIX-3560
p1266
aVPHOENIX-3559
p1267
aVPHOENIX-3558
p1268
aVPHOENIX-3557
p1269
aVPHOENIX-3556
p1270
aVPHOENIX-3555
p1271
aVPHOENIX-3554
p1272
aVPHOENIX-3553
p1273
aVPHOENIX-3552
p1274
aVPHOENIX-3551
p1275
aVPHOENIX-3550
p1276
aVPHOENIX-3549
p1277
aVPHOENIX-3548
p1278
aVPHOENIX-3547
p1279
aVPHOENIX-3546
p1280
aVPHOENIX-3545
p1281
aVPHOENIX-3544
p1282
aVPHOENIX-3543
p1283
aVPHOENIX-3542
p1284
aVPHOENIX-3541
p1285
aVPHOENIX-3540
p1286
aVPHOENIX-3539
p1287
aVPHOENIX-3538
p1288
aVPHOENIX-3537
p1289
aVPHOENIX-3536
p1290
aVPHOENIX-3535
p1291
aVPHOENIX-3534
p1292
aVPHOENIX-3533
p1293
aVPHOENIX-3532
p1294
aVPHOENIX-3531
p1295
aVPHOENIX-3530
p1296
aVPHOENIX-3529
p1297
aVPHOENIX-3528
p1298
aVPHOENIX-3527
p1299
aVPHOENIX-3526
p1300
aVPHOENIX-3525
p1301
aVPHOENIX-3524
p1302
aVPHOENIX-3523
p1303
aVPHOENIX-3522
p1304
aVPHOENIX-3521
p1305
aVPHOENIX-3520
p1306
aVPHOENIX-3519
p1307
aVPHOENIX-3518
p1308
aVPHOENIX-3517
p1309
aVPHOENIX-3516
p1310
aVPHOENIX-3515
p1311
aVPHOENIX-3514
p1312
aVPHOENIX-3513
p1313
aVPHOENIX-3512
p1314
aVPHOENIX-3511
p1315
aVPHOENIX-3510
p1316
aVPHOENIX-3509
p1317
aVPHOENIX-3508
p1318
aVPHOENIX-3507
p1319
aVPHOENIX-3506
p1320
aVPHOENIX-3505
p1321
aVPHOENIX-3504
p1322
aVPHOENIX-3503
p1323
aVPHOENIX-3502
p1324
aVPHOENIX-3501
p1325
aVPHOENIX-3500
p1326
aVPHOENIX-3499
p1327
aVPHOENIX-3498
p1328
aVPHOENIX-3497
p1329
aVPHOENIX-3496
p1330
aVPHOENIX-3495
p1331
aVPHOENIX-3494
p1332
aVPHOENIX-3493
p1333
aVPHOENIX-3492
p1334
aVPHOENIX-3491
p1335
aVPHOENIX-3490
p1336
aVPHOENIX-3489
p1337
aVPHOENIX-3488
p1338
aVPHOENIX-3487
p1339
aVPHOENIX-3486
p1340
aVPHOENIX-3485
p1341
aVPHOENIX-3484
p1342
aVPHOENIX-3483
p1343
aVPHOENIX-3482
p1344
aVPHOENIX-3481
p1345
aVPHOENIX-3480
p1346
aVPHOENIX-3479
p1347
aVPHOENIX-3478
p1348
aVPHOENIX-3477
p1349
aVPHOENIX-3476
p1350
aVPHOENIX-3475
p1351
aVPHOENIX-3474
p1352
aVPHOENIX-3473
p1353
aVPHOENIX-3472
p1354
aVPHOENIX-3471
p1355
aVPHOENIX-3470
p1356
aVPHOENIX-3469
p1357
aVPHOENIX-3468
p1358
aVPHOENIX-3467
p1359
aVPHOENIX-3466
p1360
aVPHOENIX-3465
p1361
aVPHOENIX-3464
p1362
aVPHOENIX-3463
p1363
aVPHOENIX-3462
p1364
aVPHOENIX-3461
p1365
aVPHOENIX-3460
p1366
aVPHOENIX-3459
p1367
aVPHOENIX-3458
p1368
aVPHOENIX-3457
p1369
aVPHOENIX-3456
p1370
aVPHOENIX-3455
p1371
aVPHOENIX-3454
p1372
aVPHOENIX-3453
p1373
aVPHOENIX-3452
p1374
aVPHOENIX-3451
p1375
aVPHOENIX-3450
p1376
aVPHOENIX-3449
p1377
aVPHOENIX-3448
p1378
aVPHOENIX-3447
p1379
aVPHOENIX-3446
p1380
aVPHOENIX-3445
p1381
aVPHOENIX-3444
p1382
aVPHOENIX-3443
p1383
aVPHOENIX-3442
p1384
aVPHOENIX-3441
p1385
aVPHOENIX-3440
p1386
aVPHOENIX-3439
p1387
aVPHOENIX-3438
p1388
aVPHOENIX-3437
p1389
aVPHOENIX-3436
p1390
aVPHOENIX-3435
p1391
aVPHOENIX-3434
p1392
aVPHOENIX-3433
p1393
aVPHOENIX-3432
p1394
aVPHOENIX-3431
p1395
aVPHOENIX-3430
p1396
aVPHOENIX-3429
p1397
aVPHOENIX-3428
p1398
aVPHOENIX-3427
p1399
aVPHOENIX-3426
p1400
aVPHOENIX-3425
p1401
aVPHOENIX-3424
p1402
aVPHOENIX-3423
p1403
aVPHOENIX-3422
p1404
aVPHOENIX-3421
p1405
aVPHOENIX-3420
p1406
aVPHOENIX-3419
p1407
aVPHOENIX-3418
p1408
aVPHOENIX-3417
p1409
aVPHOENIX-3416
p1410
aVPHOENIX-3415
p1411
aVPHOENIX-3414
p1412
aVPHOENIX-3413
p1413
aVPHOENIX-3412
p1414
aVPHOENIX-3411
p1415
aVPHOENIX-3410
p1416
aVPHOENIX-3409
p1417
aVPHOENIX-3408
p1418
aVPHOENIX-3407
p1419
aVPHOENIX-3406
p1420
aVPHOENIX-3405
p1421
aVPHOENIX-3404
p1422
aVPHOENIX-3403
p1423
aVPHOENIX-3402
p1424
aVPHOENIX-3401
p1425
aVPHOENIX-3400
p1426
aVPHOENIX-3399
p1427
aVPHOENIX-3398
p1428
aVPHOENIX-3397
p1429
aVPHOENIX-3396
p1430
aVPHOENIX-3395
p1431
aVPHOENIX-3394
p1432
aVPHOENIX-3393
p1433
aVPHOENIX-3392
p1434
aVPHOENIX-3391
p1435
aVPHOENIX-3390
p1436
aVPHOENIX-3389
p1437
aVPHOENIX-3388
p1438
aVPHOENIX-3387
p1439
aVPHOENIX-3386
p1440
aVPHOENIX-3385
p1441
aVPHOENIX-3384
p1442
aVPHOENIX-3383
p1443
aVPHOENIX-3382
p1444
aVPHOENIX-3381
p1445
aVPHOENIX-3380
p1446
aVPHOENIX-3379
p1447
aVPHOENIX-3378
p1448
aVPHOENIX-3377
p1449
aVPHOENIX-3376
p1450
aVPHOENIX-3375
p1451
aVPHOENIX-3374
p1452
aVPHOENIX-3373
p1453
aVPHOENIX-3372
p1454
aVPHOENIX-3371
p1455
aVPHOENIX-3370
p1456
aVPHOENIX-3369
p1457
aVPHOENIX-3368
p1458
aVPHOENIX-3367
p1459
aVPHOENIX-3366
p1460
aVPHOENIX-3365
p1461
aVPHOENIX-3364
p1462
aVPHOENIX-3363
p1463
aVPHOENIX-3362
p1464
aVPHOENIX-3361
p1465
aVPHOENIX-3360
p1466
aVPHOENIX-3359
p1467
aVPHOENIX-3358
p1468
aVPHOENIX-3357
p1469
aVPHOENIX-3356
p1470
aVPHOENIX-3355
p1471
aVPHOENIX-3354
p1472
aVPHOENIX-3353
p1473
aVPHOENIX-3352
p1474
aVPHOENIX-3351
p1475
aVPHOENIX-3350
p1476
aVPHOENIX-3349
p1477
aVPHOENIX-3348
p1478
aVPHOENIX-3347
p1479
aVPHOENIX-3346
p1480
aVPHOENIX-3345
p1481
aVPHOENIX-3344
p1482
aVPHOENIX-3343
p1483
aVPHOENIX-3342
p1484
aVPHOENIX-3341
p1485
aVPHOENIX-3340
p1486
aVPHOENIX-3339
p1487
aVPHOENIX-3338
p1488
aVPHOENIX-3337
p1489
aVPHOENIX-3336
p1490
aVPHOENIX-3335
p1491
aVPHOENIX-3334
p1492
aVPHOENIX-3333
p1493
aVPHOENIX-3332
p1494
aVPHOENIX-3331
p1495
aVPHOENIX-3330
p1496
aVPHOENIX-3329
p1497
aVPHOENIX-3328
p1498
aVPHOENIX-3327
p1499
aVPHOENIX-3326
p1500
aVPHOENIX-3325
p1501
aVPHOENIX-3324
p1502
aVPHOENIX-3323
p1503
aVPHOENIX-3322
p1504
aVPHOENIX-3321
p1505
aVPHOENIX-3320
p1506
aVPHOENIX-3319
p1507
aVPHOENIX-3318
p1508
aVPHOENIX-3317
p1509
aVPHOENIX-3316
p1510
aVPHOENIX-3314
p1511
aVPHOENIX-3313
p1512
aVPHOENIX-3312
p1513
aVPHOENIX-3311
p1514
aVPHOENIX-3310
p1515
aVPHOENIX-3309
p1516
aVPHOENIX-3308
p1517
aVPHOENIX-3307
p1518
aVPHOENIX-3306
p1519
aVPHOENIX-3305
p1520
aVPHOENIX-3304
p1521
aVPHOENIX-3303
p1522
aVPHOENIX-3302
p1523
aVPHOENIX-3301
p1524
aVPHOENIX-3300
p1525
aVPHOENIX-3299
p1526
aVPHOENIX-3298
p1527
aVPHOENIX-3297
p1528
aVPHOENIX-3296
p1529
aVPHOENIX-3295
p1530
aVPHOENIX-3294
p1531
aVPHOENIX-3293
p1532
aVPHOENIX-3292
p1533
aVPHOENIX-3291
p1534
aVPHOENIX-3290
p1535
aVPHOENIX-3289
p1536
aVPHOENIX-3288
p1537
aVPHOENIX-3287
p1538
aVPHOENIX-3286
p1539
aVPHOENIX-3285
p1540
aVPHOENIX-3284
p1541
aVPHOENIX-3283
p1542
aVPHOENIX-3282
p1543
aVPHOENIX-3281
p1544
aVPHOENIX-3280
p1545
aVPHOENIX-3279
p1546
aVPHOENIX-3278
p1547
aVPHOENIX-3277
p1548
aVPHOENIX-3276
p1549
aVPHOENIX-3275
p1550
aVPHOENIX-3274
p1551
aVPHOENIX-3273
p1552
aVPHOENIX-3272
p1553
aVPHOENIX-3271
p1554
aVPHOENIX-3270
p1555
aVPHOENIX-3269
p1556
aVPHOENIX-3268
p1557
aVPHOENIX-3267
p1558
aVPHOENIX-3266
p1559
aVPHOENIX-3265
p1560
aVPHOENIX-3264
p1561
aVPHOENIX-3263
p1562
aVPHOENIX-3262
p1563
aVPHOENIX-3261
p1564
aVPHOENIX-3260
p1565
aVPHOENIX-3259
p1566
aVPHOENIX-3258
p1567
aVPHOENIX-3257
p1568
aVPHOENIX-3256
p1569
aVPHOENIX-3255
p1570
aVPHOENIX-3254
p1571
aVPHOENIX-3253
p1572
aVPHOENIX-3252
p1573
aVPHOENIX-3251
p1574
aVPHOENIX-3250
p1575
aVPHOENIX-3249
p1576
aVPHOENIX-3248
p1577
aVPHOENIX-3247
p1578
aVPHOENIX-3246
p1579
aVPHOENIX-3245
p1580
aVPHOENIX-3244
p1581
aVPHOENIX-3243
p1582
aVPHOENIX-3242
p1583
aVPHOENIX-3241
p1584
aVPHOENIX-3240
p1585
aVPHOENIX-3239
p1586
aVPHOENIX-3238
p1587
aVPHOENIX-3237
p1588
aVPHOENIX-3236
p1589
aVPHOENIX-3235
p1590
aVPHOENIX-3234
p1591
aVPHOENIX-3233
p1592
aVPHOENIX-3232
p1593
aVPHOENIX-3230
p1594
aVPHOENIX-3229
p1595
aVPHOENIX-3228
p1596
aVPHOENIX-3227
p1597
aVPHOENIX-3226
p1598
aVPHOENIX-3225
p1599
aVPHOENIX-3224
p1600
aVPHOENIX-3223
p1601
aVPHOENIX-3222
p1602
aVPHOENIX-3221
p1603
aVPHOENIX-3220
p1604
aVPHOENIX-3219
p1605
aVPHOENIX-3218
p1606
aVPHOENIX-3217
p1607
aVPHOENIX-3216
p1608
aVPHOENIX-3215
p1609
aVPHOENIX-3214
p1610
aVPHOENIX-3213
p1611
aVPHOENIX-3212
p1612
aVPHOENIX-3211
p1613
aVPHOENIX-3210
p1614
aVPHOENIX-3209
p1615
aVPHOENIX-3208
p1616
aVPHOENIX-3207
p1617
aVPHOENIX-3206
p1618
aVPHOENIX-3205
p1619
aVPHOENIX-3204
p1620
aVPHOENIX-3203
p1621
aVPHOENIX-3202
p1622
aVPHOENIX-3201
p1623
aVPHOENIX-3200
p1624
aVPHOENIX-3199
p1625
aVPHOENIX-3198
p1626
aVPHOENIX-3197
p1627
aVPHOENIX-3196
p1628
aVPHOENIX-3195
p1629
aVPHOENIX-3194
p1630
aVPHOENIX-3193
p1631
aVPHOENIX-3192
p1632
aVPHOENIX-3191
p1633
aVPHOENIX-3190
p1634
aVPHOENIX-3189
p1635
aVPHOENIX-3188
p1636
aVPHOENIX-3187
p1637
aVPHOENIX-3186
p1638
aVPHOENIX-3185
p1639
aVPHOENIX-3184
p1640
aVPHOENIX-3183
p1641
aVPHOENIX-3182
p1642
aVPHOENIX-3181
p1643
aVPHOENIX-3180
p1644
aVPHOENIX-3179
p1645
aVPHOENIX-3178
p1646
aVPHOENIX-3177
p1647
aVPHOENIX-3176
p1648
aVPHOENIX-3175
p1649
aVPHOENIX-3174
p1650
aVPHOENIX-3173
p1651
aVPHOENIX-3172
p1652
aVPHOENIX-3171
p1653
aVPHOENIX-3170
p1654
aVPHOENIX-3169
p1655
aVPHOENIX-3168
p1656
aVPHOENIX-3167
p1657
aVPHOENIX-3166
p1658
aVPHOENIX-3165
p1659
aVPHOENIX-3164
p1660
aVPHOENIX-3163
p1661
aVPHOENIX-3162
p1662
aVPHOENIX-3161
p1663
aVPHOENIX-3160
p1664
aVPHOENIX-3159
p1665
aVPHOENIX-3158
p1666
aVPHOENIX-3157
p1667
aVPHOENIX-3156
p1668
aVPHOENIX-3155
p1669
aVPHOENIX-3154
p1670
aVPHOENIX-3153
p1671
aVPHOENIX-3152
p1672
aVPHOENIX-3151
p1673
aVPHOENIX-3150
p1674
aVPHOENIX-3149
p1675
aVPHOENIX-3148
p1676
aVPHOENIX-3147
p1677
aVPHOENIX-3146
p1678
aVPHOENIX-3145
p1679
aVPHOENIX-3144
p1680
aVPHOENIX-3143
p1681
aVPHOENIX-3142
p1682
aVPHOENIX-3141
p1683
aVPHOENIX-3140
p1684
aVPHOENIX-3139
p1685
aVPHOENIX-3138
p1686
aVPHOENIX-3137
p1687
aVPHOENIX-3136
p1688
aVPHOENIX-3135
p1689
aVPHOENIX-3134
p1690
aVPHOENIX-3133
p1691
aVPHOENIX-3132
p1692
aVPHOENIX-3131
p1693
aVPHOENIX-3130
p1694
aVPHOENIX-3129
p1695
aVPHOENIX-3128
p1696
aVPHOENIX-3127
p1697
aVPHOENIX-3126
p1698
aVPHOENIX-3125
p1699
aVPHOENIX-3124
p1700
aVPHOENIX-3123
p1701
aVPHOENIX-3122
p1702
aVPHOENIX-3121
p1703
aVPHOENIX-3120
p1704
aVPHOENIX-3119
p1705
aVPHOENIX-3118
p1706
aVPHOENIX-3117
p1707
aVPHOENIX-3116
p1708
aVPHOENIX-3115
p1709
aVPHOENIX-3114
p1710
aVPHOENIX-3113
p1711
aVPHOENIX-3112
p1712
aVPHOENIX-3111
p1713
aVPHOENIX-3110
p1714
aVPHOENIX-3109
p1715
aVPHOENIX-3108
p1716
aVPHOENIX-3107
p1717
aVPHOENIX-3106
p1718
aVPHOENIX-3105
p1719
aVPHOENIX-3104
p1720
aVPHOENIX-3103
p1721
aVPHOENIX-3102
p1722
aVPHOENIX-3101
p1723
aVPHOENIX-3100
p1724
aVPHOENIX-3099
p1725
aVPHOENIX-3098
p1726
aVPHOENIX-3097
p1727
aVPHOENIX-3096
p1728
aVPHOENIX-3095
p1729
aVPHOENIX-3094
p1730
aVPHOENIX-3093
p1731
aVPHOENIX-3092
p1732
aVPHOENIX-3091
p1733
aVPHOENIX-3090
p1734
aVPHOENIX-3089
p1735
aVPHOENIX-3088
p1736
aVPHOENIX-3087
p1737
aVPHOENIX-3086
p1738
aVPHOENIX-3085
p1739
aVPHOENIX-3084
p1740
aVPHOENIX-3083
p1741
aVPHOENIX-3082
p1742
aVPHOENIX-3081
p1743
aVPHOENIX-3080
p1744
aVPHOENIX-3079
p1745
aVPHOENIX-3078
p1746
aVPHOENIX-3077
p1747
aVPHOENIX-3076
p1748
aVPHOENIX-3075
p1749
aVPHOENIX-3074
p1750
aVPHOENIX-3073
p1751
aVPHOENIX-3072
p1752
aVPHOENIX-3071
p1753
aVPHOENIX-3070
p1754
aVPHOENIX-3069
p1755
aVPHOENIX-3068
p1756
aVPHOENIX-3067
p1757
aVPHOENIX-3066
p1758
aVPHOENIX-3065
p1759
aVPHOENIX-3064
p1760
aVPHOENIX-3063
p1761
aVPHOENIX-3062
p1762
aVPHOENIX-3061
p1763
aVPHOENIX-3060
p1764
aVPHOENIX-3059
p1765
aVPHOENIX-3058
p1766
aVPHOENIX-3057
p1767
aVPHOENIX-3056
p1768
aVPHOENIX-3055
p1769
aVPHOENIX-3054
p1770
aVPHOENIX-3053
p1771
aVPHOENIX-3052
p1772
aVPHOENIX-3051
p1773
aVPHOENIX-3050
p1774
aVPHOENIX-3049
p1775
aVPHOENIX-3048
p1776
aVPHOENIX-3047
p1777
aVPHOENIX-3046
p1778
aVPHOENIX-3045
p1779
aVPHOENIX-3044
p1780
aVPHOENIX-3043
p1781
aVPHOENIX-3042
p1782
aVPHOENIX-3041
p1783
aVPHOENIX-3040
p1784
aVPHOENIX-3039
p1785
aVPHOENIX-3038
p1786
aVPHOENIX-3037
p1787
aVPHOENIX-3036
p1788
aVPHOENIX-3035
p1789
aVPHOENIX-3034
p1790
aVPHOENIX-3033
p1791
aVPHOENIX-3032
p1792
aVPHOENIX-3031
p1793
aVPHOENIX-3030
p1794
aVPHOENIX-3029
p1795
aVPHOENIX-3028
p1796
aVPHOENIX-3027
p1797
aVPHOENIX-3026
p1798
aVPHOENIX-3025
p1799
aVPHOENIX-3024
p1800
aVPHOENIX-3023
p1801
aVPHOENIX-3022
p1802
aVPHOENIX-3021
p1803
aVPHOENIX-3020
p1804
aVPHOENIX-3019
p1805
aVPHOENIX-3018
p1806
aVPHOENIX-3017
p1807
aVPHOENIX-3016
p1808
aVPHOENIX-3015
p1809
aVPHOENIX-3014
p1810
aVPHOENIX-3013
p1811
aVPHOENIX-3012
p1812
aVPHOENIX-3011
p1813
aVPHOENIX-3010
p1814
aVPHOENIX-3009
p1815
aVPHOENIX-3008
p1816
aVPHOENIX-3007
p1817
aVPHOENIX-3006
p1818
aVPHOENIX-3005
p1819
aVPHOENIX-3004
p1820
aVPHOENIX-3003
p1821
aVPHOENIX-3002
p1822
aVPHOENIX-3001
p1823
aVPHOENIX-3000
p1824
aVPHOENIX-2999
p1825
aVPHOENIX-2998
p1826
aVPHOENIX-2997
p1827
aVPHOENIX-2996
p1828
aVPHOENIX-2995
p1829
aVPHOENIX-2994
p1830
aVPHOENIX-2993
p1831
aVPHOENIX-2992
p1832
aVPHOENIX-2991
p1833
aVPHOENIX-2990
p1834
aVPHOENIX-2989
p1835
aVPHOENIX-2988
p1836
aVPHOENIX-2987
p1837
aVPHOENIX-2986
p1838
aVPHOENIX-2985
p1839
aVPHOENIX-2984
p1840
aVPHOENIX-2983
p1841
aVPHOENIX-2982
p1842
aVPHOENIX-2981
p1843
aVPHOENIX-2980
p1844
aVPHOENIX-2979
p1845
aVPHOENIX-2978
p1846
aVPHOENIX-2977
p1847
aVPHOENIX-2976
p1848
aVPHOENIX-2975
p1849
aVPHOENIX-2974
p1850
aVPHOENIX-2973
p1851
aVPHOENIX-2972
p1852
aVPHOENIX-2971
p1853
aVPHOENIX-2970
p1854
aVPHOENIX-2969
p1855
aVPHOENIX-2968
p1856
aVPHOENIX-2967
p1857
aVPHOENIX-2966
p1858
aVPHOENIX-2965
p1859
aVPHOENIX-2964
p1860
aVPHOENIX-2963
p1861
aVPHOENIX-2962
p1862
aVPHOENIX-2961
p1863
aVPHOENIX-2960
p1864
aVPHOENIX-2959
p1865
aVPHOENIX-2958
p1866
aVPHOENIX-2957
p1867
aVPHOENIX-2956
p1868
aVPHOENIX-2955
p1869
aVPHOENIX-2954
p1870
aVPHOENIX-2953
p1871
aVPHOENIX-2952
p1872
aVPHOENIX-2951
p1873
aVPHOENIX-2950
p1874
aVPHOENIX-2949
p1875
aVPHOENIX-2948
p1876
aVPHOENIX-2947
p1877
aVPHOENIX-2946
p1878
aVPHOENIX-2945
p1879
aVPHOENIX-2944
p1880
aVPHOENIX-2943
p1881
aVPHOENIX-2942
p1882
aVPHOENIX-2941
p1883
aVPHOENIX-2940
p1884
aVPHOENIX-2939
p1885
aVPHOENIX-2938
p1886
aVPHOENIX-2937
p1887
aVPHOENIX-2936
p1888
aVPHOENIX-2935
p1889
aVPHOENIX-2934
p1890
aVPHOENIX-2933
p1891
aVPHOENIX-2932
p1892
aVPHOENIX-2931
p1893
aVPHOENIX-2930
p1894
aVPHOENIX-2929
p1895
aVPHOENIX-2928
p1896
aVPHOENIX-2927
p1897
aVPHOENIX-2926
p1898
aVPHOENIX-2925
p1899
aVPHOENIX-2924
p1900
aVPHOENIX-2923
p1901
aVPHOENIX-2922
p1902
aVPHOENIX-2921
p1903
aVPHOENIX-2920
p1904
aVPHOENIX-2919
p1905
aVPHOENIX-2918
p1906
aVPHOENIX-2917
p1907
aVPHOENIX-2916
p1908
aVPHOENIX-2915
p1909
aVPHOENIX-2914
p1910
aVPHOENIX-2913
p1911
aVPHOENIX-2912
p1912
aVPHOENIX-2911
p1913
aVPHOENIX-2910
p1914
aVPHOENIX-2909
p1915
aVPHOENIX-2908
p1916
aVPHOENIX-2907
p1917
aVPHOENIX-2906
p1918
aVPHOENIX-2905
p1919
aVPHOENIX-2904
p1920
aVPHOENIX-2903
p1921
aVPHOENIX-2902
p1922
aVPHOENIX-2901
p1923
aVPHOENIX-2900
p1924
aVPHOENIX-2899
p1925
aVPHOENIX-2898
p1926
aVPHOENIX-2897
p1927
aVPHOENIX-2896
p1928
aVPHOENIX-2895
p1929
aVPHOENIX-2894
p1930
aVPHOENIX-2893
p1931
aVPHOENIX-2892
p1932
aVPHOENIX-2891
p1933
aVPHOENIX-2890
p1934
aVPHOENIX-2889
p1935
aVPHOENIX-2888
p1936
aVPHOENIX-2887
p1937
aVPHOENIX-2886
p1938
aVPHOENIX-2885
p1939
aVPHOENIX-2884
p1940
aVPHOENIX-2883
p1941
aVPHOENIX-2882
p1942
aVPHOENIX-2881
p1943
aVPHOENIX-2880
p1944
aVPHOENIX-2879
p1945
aVPHOENIX-2878
p1946
aVPHOENIX-2877
p1947
aVPHOENIX-2876
p1948
aVPHOENIX-2875
p1949
aVPHOENIX-2874
p1950
aVPHOENIX-2873
p1951
aVPHOENIX-2872
p1952
aVPHOENIX-2871
p1953
aVPHOENIX-2870
p1954
aVPHOENIX-2869
p1955
aVPHOENIX-2868
p1956
aVPHOENIX-2867
p1957
aVPHOENIX-2866
p1958
aVPHOENIX-2865
p1959
aVPHOENIX-2864
p1960
aVPHOENIX-2863
p1961
aVPHOENIX-2862
p1962
aVPHOENIX-2861
p1963
aVPHOENIX-2860
p1964
aVPHOENIX-2859
p1965
aVPHOENIX-2858
p1966
aVPHOENIX-2857
p1967
aVPHOENIX-2856
p1968
aVPHOENIX-2855
p1969
aVPHOENIX-2854
p1970
aVPHOENIX-2853
p1971
aVPHOENIX-2852
p1972
aVPHOENIX-2851
p1973
aVPHOENIX-2850
p1974
aVPHOENIX-2849
p1975
aVPHOENIX-2848
p1976
aVPHOENIX-2847
p1977
aVPHOENIX-2846
p1978
aVPHOENIX-2845
p1979
aVPHOENIX-2844
p1980
aVPHOENIX-2843
p1981
aVPHOENIX-2842
p1982
aVPHOENIX-2841
p1983
aVPHOENIX-2840
p1984
aVPHOENIX-2839
p1985
aVPHOENIX-2838
p1986
aVPHOENIX-2837
p1987
aVPHOENIX-2836
p1988
aVPHOENIX-2835
p1989
aVPHOENIX-2834
p1990
aVPHOENIX-2833
p1991
aVPHOENIX-2832
p1992
aVPHOENIX-2831
p1993
aVPHOENIX-2830
p1994
aVPHOENIX-2829
p1995
aVPHOENIX-2828
p1996
aVPHOENIX-2827
p1997
aVPHOENIX-2826
p1998
aVPHOENIX-2825
p1999
aVPHOENIX-2824
p2000
aVPHOENIX-2823
p2001
aVPHOENIX-2822
p2002
aVPHOENIX-2821
p2003
aVPHOENIX-2820
p2004
aVPHOENIX-2819
p2005
aVPHOENIX-2818
p2006
aVPHOENIX-2817
p2007
aVPHOENIX-2816
p2008
aVPHOENIX-2815
p2009
aVPHOENIX-2814
p2010
aVPHOENIX-2813
p2011
aVPHOENIX-2812
p2012
aVPHOENIX-2811
p2013
aVPHOENIX-2810
p2014
aVPHOENIX-2809
p2015
aVPHOENIX-2808
p2016
aVPHOENIX-2807
p2017
aVPHOENIX-2806
p2018
aVPHOENIX-2805
p2019
aVPHOENIX-2804
p2020
aVPHOENIX-2803
p2021
aVPHOENIX-2802
p2022
aVPHOENIX-2801
p2023
aVPHOENIX-2800
p2024
aVPHOENIX-2799
p2025
aVPHOENIX-2798
p2026
aVPHOENIX-2797
p2027
aVPHOENIX-2796
p2028
aVPHOENIX-2795
p2029
aVPHOENIX-2794
p2030
aVPHOENIX-2793
p2031
aVPHOENIX-2792
p2032
aVPHOENIX-2791
p2033
aVPHOENIX-2790
p2034
aVPHOENIX-2789
p2035
aVPHOENIX-2788
p2036
aVPHOENIX-2787
p2037
aVPHOENIX-2786
p2038
aVPHOENIX-2785
p2039
aVPHOENIX-2784
p2040
aVPHOENIX-2783
p2041
aVPHOENIX-2782
p2042
aVPHOENIX-2781
p2043
aVPHOENIX-2780
p2044
aVPHOENIX-2779
p2045
aVPHOENIX-2778
p2046
aVPHOENIX-2777
p2047
aVPHOENIX-2776
p2048
aVPHOENIX-2775
p2049
aVPHOENIX-2774
p2050
aVPHOENIX-2773
p2051
aVPHOENIX-2772
p2052
aVPHOENIX-2771
p2053
aVPHOENIX-2770
p2054
aVPHOENIX-2769
p2055
aVPHOENIX-2768
p2056
aVPHOENIX-2767
p2057
aVPHOENIX-2766
p2058
aVPHOENIX-2765
p2059
aVPHOENIX-2764
p2060
aVPHOENIX-2763
p2061
aVPHOENIX-2762
p2062
aVPHOENIX-2761
p2063
aVPHOENIX-2760
p2064
aVPHOENIX-2759
p2065
aVPHOENIX-2758
p2066
aVPHOENIX-2757
p2067
aVPHOENIX-2756
p2068
aVPHOENIX-2755
p2069
aVPHOENIX-2754
p2070
aVPHOENIX-2753
p2071
aVPHOENIX-2752
p2072
aVPHOENIX-2751
p2073
aVPHOENIX-2750
p2074
aVPHOENIX-2749
p2075
aVPHOENIX-2748
p2076
aVPHOENIX-2747
p2077
aVPHOENIX-2746
p2078
aVPHOENIX-2745
p2079
aVPHOENIX-2744
p2080
aVPHOENIX-2743
p2081
aVPHOENIX-2742
p2082
aVPHOENIX-2741
p2083
aVPHOENIX-2740
p2084
aVPHOENIX-2739
p2085
aVPHOENIX-2738
p2086
aVPHOENIX-2737
p2087
aVPHOENIX-2736
p2088
aVPHOENIX-2735
p2089
aVPHOENIX-2734
p2090
aVPHOENIX-2733
p2091
aVPHOENIX-2732
p2092
aVPHOENIX-2731
p2093
aVPHOENIX-2730
p2094
aVPHOENIX-2729
p2095
aVPHOENIX-2728
p2096
aVPHOENIX-2727
p2097
aVPHOENIX-2726
p2098
aVPHOENIX-2725
p2099
aVPHOENIX-2724
p2100
aVPHOENIX-2723
p2101
aVPHOENIX-2722
p2102
aVPHOENIX-2721
p2103
aVPHOENIX-2720
p2104
aVPHOENIX-2719
p2105
aVPHOENIX-2718
p2106
aVPHOENIX-2717
p2107
aVPHOENIX-2716
p2108
aVPHOENIX-2715
p2109
aVPHOENIX-2714
p2110
aVPHOENIX-2713
p2111
aVPHOENIX-2712
p2112
aVPHOENIX-2711
p2113
aVPHOENIX-2710
p2114
aVPHOENIX-2709
p2115
aVPHOENIX-2708
p2116
aVPHOENIX-2707
p2117
aVPHOENIX-2706
p2118
aVPHOENIX-2705
p2119
aVPHOENIX-2704
p2120
aVPHOENIX-2703
p2121
aVPHOENIX-2702
p2122
aVPHOENIX-2701
p2123
aVPHOENIX-2700
p2124
aVPHOENIX-2699
p2125
aVPHOENIX-2698
p2126
aVPHOENIX-2697
p2127
aVPHOENIX-2696
p2128
aVPHOENIX-2695
p2129
aVPHOENIX-2694
p2130
aVPHOENIX-2693
p2131
aVPHOENIX-2692
p2132
aVPHOENIX-2691
p2133
aVPHOENIX-2690
p2134
aVPHOENIX-2689
p2135
aVPHOENIX-2688
p2136
aVPHOENIX-2687
p2137
aVPHOENIX-2686
p2138
aVPHOENIX-2685
p2139
aVPHOENIX-2684
p2140
aVPHOENIX-2683
p2141
aVPHOENIX-2682
p2142
aVPHOENIX-2681
p2143
aVPHOENIX-2680
p2144
aVPHOENIX-2679
p2145
aVPHOENIX-2678
p2146
aVPHOENIX-2677
p2147
aVPHOENIX-2676
p2148
aVPHOENIX-2675
p2149
aVPHOENIX-2674
p2150
aVPHOENIX-2673
p2151
aVPHOENIX-2672
p2152
aVPHOENIX-2671
p2153
aVPHOENIX-2670
p2154
aVPHOENIX-2669
p2155
aVPHOENIX-2668
p2156
aVPHOENIX-2667
p2157
aVPHOENIX-2666
p2158
aVPHOENIX-2665
p2159
aVPHOENIX-2664
p2160
aVPHOENIX-2663
p2161
aVPHOENIX-2662
p2162
aVPHOENIX-2659
p2163
aVPHOENIX-2658
p2164
aVPHOENIX-2657
p2165
aVPHOENIX-2656
p2166
aVPHOENIX-2655
p2167
aVPHOENIX-2654
p2168
aVPHOENIX-2653
p2169
aVPHOENIX-2652
p2170
aVPHOENIX-2651
p2171
aVPHOENIX-2650
p2172
aVPHOENIX-2649
p2173
aVPHOENIX-2648
p2174
aVPHOENIX-2647
p2175
aVPHOENIX-2646
p2176
aVPHOENIX-2645
p2177
aVPHOENIX-2644
p2178
aVPHOENIX-2643
p2179
aVPHOENIX-2642
p2180
aVPHOENIX-2641
p2181
aVPHOENIX-2640
p2182
aVPHOENIX-2639
p2183
aVPHOENIX-2638
p2184
aVPHOENIX-2637
p2185
aVPHOENIX-2636
p2186
aVPHOENIX-2635
p2187
aVPHOENIX-2634
p2188
aVPHOENIX-2633
p2189
aVPHOENIX-2632
p2190
aVPHOENIX-2631
p2191
aVPHOENIX-2630
p2192
aVPHOENIX-2629
p2193
aVPHOENIX-2628
p2194
aVPHOENIX-2627
p2195
aVPHOENIX-2626
p2196
aVPHOENIX-2625
p2197
aVPHOENIX-2624
p2198
aVPHOENIX-2623
p2199
aVPHOENIX-2622
p2200
aVPHOENIX-2621
p2201
aVPHOENIX-2620
p2202
aVPHOENIX-2619
p2203
aVPHOENIX-2618
p2204
aVPHOENIX-2617
p2205
aVPHOENIX-2616
p2206
aVPHOENIX-2615
p2207
aVPHOENIX-2614
p2208
aVPHOENIX-2613
p2209
aVPHOENIX-2612
p2210
aVPHOENIX-2611
p2211
aVPHOENIX-2610
p2212
aVPHOENIX-2609
p2213
aVPHOENIX-2608
p2214
aVPHOENIX-2607
p2215
aVPHOENIX-2606
p2216
aVPHOENIX-2605
p2217
aVPHOENIX-2604
p2218
aVPHOENIX-2603
p2219
aVPHOENIX-2602
p2220
aVPHOENIX-2601
p2221
aVPHOENIX-2600
p2222
aVPHOENIX-2599
p2223
aVPHOENIX-2598
p2224
aVPHOENIX-2597
p2225
aVPHOENIX-2596
p2226
aVPHOENIX-2595
p2227
aVPHOENIX-2594
p2228
aVPHOENIX-2593
p2229
aVPHOENIX-2592
p2230
aVPHOENIX-2591
p2231
aVPHOENIX-2590
p2232
aVPHOENIX-2589
p2233
aVPHOENIX-2588
p2234
aVPHOENIX-2587
p2235
aVPHOENIX-2586
p2236
aVPHOENIX-2585
p2237
aVPHOENIX-2584
p2238
aVPHOENIX-2582
p2239
aVPHOENIX-2581
p2240
aVPHOENIX-2580
p2241
aVPHOENIX-2579
p2242
aVPHOENIX-2578
p2243
aVPHOENIX-2577
p2244
aVPHOENIX-2576
p2245
aVPHOENIX-2575
p2246
aVPHOENIX-2574
p2247
aVPHOENIX-2573
p2248
aVPHOENIX-2572
p2249
aVPHOENIX-2571
p2250
aVPHOENIX-2570
p2251
aVPHOENIX-2569
p2252
aVPHOENIX-2568
p2253
aVPHOENIX-2567
p2254
aVPHOENIX-2566
p2255
aVPHOENIX-2565
p2256
aVPHOENIX-2564
p2257
aVPHOENIX-2563
p2258
aVPHOENIX-2562
p2259
aVPHOENIX-2561
p2260
aVPHOENIX-2560
p2261
aVPHOENIX-2559
p2262
aVPHOENIX-2558
p2263
aVPHOENIX-2557
p2264
aVPHOENIX-2556
p2265
aVPHOENIX-2555
p2266
aVPHOENIX-2554
p2267
aVPHOENIX-2553
p2268
aVPHOENIX-2552
p2269
aVPHOENIX-2551
p2270
aVPHOENIX-2550
p2271
aVPHOENIX-2549
p2272
aVPHOENIX-2548
p2273
aVPHOENIX-2547
p2274
aVPHOENIX-2546
p2275
aVPHOENIX-2545
p2276
aVPHOENIX-2544
p2277
aVPHOENIX-2543
p2278
aVPHOENIX-2542
p2279
aVPHOENIX-2541
p2280
aVPHOENIX-2540
p2281
aVPHOENIX-2539
p2282
aVPHOENIX-2538
p2283
aVPHOENIX-2537
p2284
aVPHOENIX-2536
p2285
aVPHOENIX-2535
p2286
aVPHOENIX-2534
p2287
aVPHOENIX-2533
p2288
aVPHOENIX-2532
p2289
aVPHOENIX-2531
p2290
aVPHOENIX-2530
p2291
aVPHOENIX-2529
p2292
aVPHOENIX-2528
p2293
aVPHOENIX-2527
p2294
aVPHOENIX-2526
p2295
aVPHOENIX-2525
p2296
aVPHOENIX-2524
p2297
aVPHOENIX-2523
p2298
aVPHOENIX-2522
p2299
aVPHOENIX-2521
p2300
aVPHOENIX-2520
p2301
aVPHOENIX-2519
p2302
aVPHOENIX-2518
p2303
aVPHOENIX-2517
p2304
aVPHOENIX-2516
p2305
aVPHOENIX-2515
p2306
aVPHOENIX-2514
p2307
aVPHOENIX-2513
p2308
aVPHOENIX-2512
p2309
aVPHOENIX-2511
p2310
aVPHOENIX-2510
p2311
aVPHOENIX-2509
p2312
aVPHOENIX-2508
p2313
aVPHOENIX-2507
p2314
aVPHOENIX-2506
p2315
aVPHOENIX-2505
p2316
aVPHOENIX-2504
p2317
aVPHOENIX-2503
p2318
aVPHOENIX-2502
p2319
aVPHOENIX-2501
p2320
aVPHOENIX-2500
p2321
aVPHOENIX-2499
p2322
aVPHOENIX-2498
p2323
aVPHOENIX-2497
p2324
aVPHOENIX-2496
p2325
aVPHOENIX-2495
p2326
aVPHOENIX-2494
p2327
aVPHOENIX-2493
p2328
aVPHOENIX-2492
p2329
aVPHOENIX-2491
p2330
aVPHOENIX-2490
p2331
aVPHOENIX-2489
p2332
aVPHOENIX-2488
p2333
aVPHOENIX-2487
p2334
aVPHOENIX-2486
p2335
aVPHOENIX-2485
p2336
aVPHOENIX-2484
p2337
aVPHOENIX-2483
p2338
aVPHOENIX-2482
p2339
aVPHOENIX-2481
p2340
aVPHOENIX-2480
p2341
aVPHOENIX-2479
p2342
aVPHOENIX-2478
p2343
aVPHOENIX-2477
p2344
aVPHOENIX-2476
p2345
aVPHOENIX-2475
p2346
aVPHOENIX-2474
p2347
aVPHOENIX-2473
p2348
aVPHOENIX-2472
p2349
aVPHOENIX-2471
p2350
aVPHOENIX-2470
p2351
aVPHOENIX-2469
p2352
aVPHOENIX-2468
p2353
aVPHOENIX-2467
p2354
aVPHOENIX-2466
p2355
aVPHOENIX-2465
p2356
aVPHOENIX-2464
p2357
aVPHOENIX-2463
p2358
aVPHOENIX-2462
p2359
aVPHOENIX-2461
p2360
aVPHOENIX-2460
p2361
aVPHOENIX-2459
p2362
aVPHOENIX-2458
p2363
aVPHOENIX-2457
p2364
aVPHOENIX-2456
p2365
aVPHOENIX-2455
p2366
aVPHOENIX-2454
p2367
aVPHOENIX-2453
p2368
aVPHOENIX-2452
p2369
aVPHOENIX-2451
p2370
aVPHOENIX-2450
p2371
aVPHOENIX-2449
p2372
aVPHOENIX-2448
p2373
aVPHOENIX-2447
p2374
aVPHOENIX-2446
p2375
aVPHOENIX-2445
p2376
aVPHOENIX-2444
p2377
aVPHOENIX-2443
p2378
aVPHOENIX-2442
p2379
aVPHOENIX-2441
p2380
aVPHOENIX-2440
p2381
aVPHOENIX-2439
p2382
aVPHOENIX-2438
p2383
aVPHOENIX-2437
p2384
aVPHOENIX-2436
p2385
aVPHOENIX-2435
p2386
aVPHOENIX-2434
p2387
aVPHOENIX-2433
p2388
aVPHOENIX-2432
p2389
aVPHOENIX-2431
p2390
aVPHOENIX-2430
p2391
aVPHOENIX-2429
p2392
aVPHOENIX-2428
p2393
aVPHOENIX-2427
p2394
aVPHOENIX-2426
p2395
aVPHOENIX-2425
p2396
aVPHOENIX-2424
p2397
aVPHOENIX-2423
p2398
aVPHOENIX-2422
p2399
aVPHOENIX-2421
p2400
aVPHOENIX-2420
p2401
aVPHOENIX-2419
p2402
aVPHOENIX-2418
p2403
aVPHOENIX-2417
p2404
aVPHOENIX-2416
p2405
aVPHOENIX-2415
p2406
aVPHOENIX-2414
p2407
aVPHOENIX-2413
p2408
aVPHOENIX-2412
p2409
aVPHOENIX-2411
p2410
aVPHOENIX-2410
p2411
aVPHOENIX-2409
p2412
aVPHOENIX-2408
p2413
aVPHOENIX-2407
p2414
aVPHOENIX-2406
p2415
aVPHOENIX-2405
p2416
aVPHOENIX-2404
p2417
aVPHOENIX-2403
p2418
aVPHOENIX-2402
p2419
aVPHOENIX-2401
p2420
aVPHOENIX-2400
p2421
aVPHOENIX-2399
p2422
aVPHOENIX-2398
p2423
aVPHOENIX-2397
p2424
aVPHOENIX-2396
p2425
aVPHOENIX-2395
p2426
aVPHOENIX-2394
p2427
aVPHOENIX-2393
p2428
aVPHOENIX-2391
p2429
aVPHOENIX-2390
p2430
aVPHOENIX-2389
p2431
aVPHOENIX-2388
p2432
aVPHOENIX-2387
p2433
aVPHOENIX-2386
p2434
aVPHOENIX-2385
p2435
aVPHOENIX-2384
p2436
aVPHOENIX-2383
p2437
aVPHOENIX-2382
p2438
aVPHOENIX-2381
p2439
aVPHOENIX-2380
p2440
aVPHOENIX-2379
p2441
aVPHOENIX-2378
p2442
aVPHOENIX-2377
p2443
aVPHOENIX-2376
p2444
aVPHOENIX-2375
p2445
aVPHOENIX-2374
p2446
aVPHOENIX-2373
p2447
aVPHOENIX-2372
p2448
aVPHOENIX-2371
p2449
aVPHOENIX-2370
p2450
aVPHOENIX-2369
p2451
aVPHOENIX-2368
p2452
aVPHOENIX-2367
p2453
aVPHOENIX-2366
p2454
aVPHOENIX-2365
p2455
aVPHOENIX-2364
p2456
aVPHOENIX-2363
p2457
aVPHOENIX-2362
p2458
aVPHOENIX-2361
p2459
aVPHOENIX-2360
p2460
aVPHOENIX-2359
p2461
aVPHOENIX-2358
p2462
aVPHOENIX-2357
p2463
aVPHOENIX-2356
p2464
aVPHOENIX-2354
p2465
aVPHOENIX-2353
p2466
aVPHOENIX-2352
p2467
aVPHOENIX-2351
p2468
aVPHOENIX-2350
p2469
aVPHOENIX-2349
p2470
aVPHOENIX-2348
p2471
aVPHOENIX-2346
p2472
aVPHOENIX-2345
p2473
aVPHOENIX-2344
p2474
aVPHOENIX-2343
p2475
aVPHOENIX-2342
p2476
aVPHOENIX-2341
p2477
aVPHOENIX-2340
p2478
aVPHOENIX-2339
p2479
aVPHOENIX-2338
p2480
aVPHOENIX-2337
p2481
aVPHOENIX-2336
p2482
aVPHOENIX-2335
p2483
aVPHOENIX-2334
p2484
aVPHOENIX-2333
p2485
aVPHOENIX-2332
p2486
aVPHOENIX-2331
p2487
aVPHOENIX-2330
p2488
aVPHOENIX-2329
p2489
aVPHOENIX-2328
p2490
aVPHOENIX-2327
p2491
aVPHOENIX-2326
p2492
aVPHOENIX-2325
p2493
aVPHOENIX-2324
p2494
aVPHOENIX-2323
p2495
aVPHOENIX-2321
p2496
aVPHOENIX-2320
p2497
aVPHOENIX-2319
p2498
aVPHOENIX-2317
p2499
aVPHOENIX-2316
p2500
aVPHOENIX-2315
p2501
aVPHOENIX-2314
p2502
aVPHOENIX-2313
p2503
aVPHOENIX-2312
p2504
aVPHOENIX-2311
p2505
aVPHOENIX-2310
p2506
aVPHOENIX-2309
p2507
aVPHOENIX-2308
p2508
aVPHOENIX-2307
p2509
aVPHOENIX-2306
p2510
aVPHOENIX-2305
p2511
aVPHOENIX-2304
p2512
aVPHOENIX-2303
p2513
aVPHOENIX-2302
p2514
aVPHOENIX-2301
p2515
aVPHOENIX-2300
p2516
aVPHOENIX-2299
p2517
aVPHOENIX-2298
p2518
aVPHOENIX-2297
p2519
aVPHOENIX-2296
p2520
aVPHOENIX-2295
p2521
aVPHOENIX-2294
p2522
aVPHOENIX-2293
p2523
aVPHOENIX-2292
p2524
aVPHOENIX-2291
p2525
aVPHOENIX-2290
p2526
aVPHOENIX-2289
p2527
aVPHOENIX-2288
p2528
aVPHOENIX-2287
p2529
aVPHOENIX-2286
p2530
aVPHOENIX-2285
p2531
aVPHOENIX-2284
p2532
aVPHOENIX-2283
p2533
aVPHOENIX-2282
p2534
aVPHOENIX-2281
p2535
aVPHOENIX-2280
p2536
aVPHOENIX-2279
p2537
aVPHOENIX-2278
p2538
aVPHOENIX-2277
p2539
aVPHOENIX-2276
p2540
aVPHOENIX-2275
p2541
aVPHOENIX-2274
p2542
aVPHOENIX-2273
p2543
aVPHOENIX-2272
p2544
aVPHOENIX-2271
p2545
aVPHOENIX-2270
p2546
aVPHOENIX-2269
p2547
aVPHOENIX-2268
p2548
aVPHOENIX-2267
p2549
aVPHOENIX-2266
p2550
aVPHOENIX-2265
p2551
aVPHOENIX-2264
p2552
aVPHOENIX-2263
p2553
aVPHOENIX-2262
p2554
aVPHOENIX-2261
p2555
aVPHOENIX-2260
p2556
aVPHOENIX-2259
p2557
aVPHOENIX-2258
p2558
aVPHOENIX-2257
p2559
aVPHOENIX-2256
p2560
aVPHOENIX-2255
p2561
aVPHOENIX-2254
p2562
aVPHOENIX-2253
p2563
aVPHOENIX-2252
p2564
aVPHOENIX-2251
p2565
aVPHOENIX-2250
p2566
aVPHOENIX-2249
p2567
aVPHOENIX-2248
p2568
aVPHOENIX-2247
p2569
aVPHOENIX-2246
p2570
aVPHOENIX-2245
p2571
aVPHOENIX-2244
p2572
aVPHOENIX-2243
p2573
aVPHOENIX-2242
p2574
aVPHOENIX-2241
p2575
aVPHOENIX-2240
p2576
aVPHOENIX-2239
p2577
aVPHOENIX-2238
p2578
aVPHOENIX-2237
p2579
aVPHOENIX-2236
p2580
aVPHOENIX-2235
p2581
aVPHOENIX-2234
p2582
aVPHOENIX-2233
p2583
aVPHOENIX-2232
p2584
aVPHOENIX-2231
p2585
aVPHOENIX-2230
p2586
aVPHOENIX-2229
p2587
aVPHOENIX-2228
p2588
aVPHOENIX-2227
p2589
aVPHOENIX-2226
p2590
aVPHOENIX-2225
p2591
aVPHOENIX-2224
p2592
aVPHOENIX-2223
p2593
aVPHOENIX-2222
p2594
aVPHOENIX-2221
p2595
aVPHOENIX-2220
p2596
aVPHOENIX-2219
p2597
aVPHOENIX-2218
p2598
aVPHOENIX-2217
p2599
aVPHOENIX-2216
p2600
aVPHOENIX-2215
p2601
aVPHOENIX-2214
p2602
aVPHOENIX-2213
p2603
aVPHOENIX-2212
p2604
aVPHOENIX-2211
p2605
aVPHOENIX-2210
p2606
aVPHOENIX-2209
p2607
aVPHOENIX-2208
p2608
aVPHOENIX-2207
p2609
aVPHOENIX-2206
p2610
aVPHOENIX-2205
p2611
aVPHOENIX-2204
p2612
aVPHOENIX-2203
p2613
aVPHOENIX-2202
p2614
aVPHOENIX-2201
p2615
aVPHOENIX-2200
p2616
aVPHOENIX-2199
p2617
aVPHOENIX-2198
p2618
aVPHOENIX-2197
p2619
aVPHOENIX-2196
p2620
aVPHOENIX-2195
p2621
aVPHOENIX-2194
p2622
aVPHOENIX-2193
p2623
aVPHOENIX-2192
p2624
aVPHOENIX-2191
p2625
aVPHOENIX-2190
p2626
aVPHOENIX-2189
p2627
aVPHOENIX-2188
p2628
aVPHOENIX-2187
p2629
aVPHOENIX-2186
p2630
aVPHOENIX-2185
p2631
aVPHOENIX-2184
p2632
aVPHOENIX-2183
p2633
aVPHOENIX-2182
p2634
aVPHOENIX-2181
p2635
aVPHOENIX-2180
p2636
aVPHOENIX-2179
p2637
aVPHOENIX-2178
p2638
aVPHOENIX-2177
p2639
aVPHOENIX-2176
p2640
aVPHOENIX-2175
p2641
aVPHOENIX-2174
p2642
aVPHOENIX-2173
p2643
aVPHOENIX-2172
p2644
aVPHOENIX-2171
p2645
aVPHOENIX-2170
p2646
aVPHOENIX-2169
p2647
aVPHOENIX-2168
p2648
aVPHOENIX-2167
p2649
aVPHOENIX-2166
p2650
aVPHOENIX-2165
p2651
aVPHOENIX-2164
p2652
aVPHOENIX-2163
p2653
aVPHOENIX-2162
p2654
aVPHOENIX-2161
p2655
aVPHOENIX-2160
p2656
aVPHOENIX-2159
p2657
aVPHOENIX-2158
p2658
aVPHOENIX-2157
p2659
aVPHOENIX-2156
p2660
aVPHOENIX-2155
p2661
aVPHOENIX-2154
p2662
aVPHOENIX-2153
p2663
aVPHOENIX-2152
p2664
aVPHOENIX-2151
p2665
aVPHOENIX-2150
p2666
aVPHOENIX-2149
p2667
aVPHOENIX-2148
p2668
aVPHOENIX-2147
p2669
aVPHOENIX-2146
p2670
aVPHOENIX-2145
p2671
aVPHOENIX-2144
p2672
aVPHOENIX-2143
p2673
aVPHOENIX-2142
p2674
aVPHOENIX-2141
p2675
aVPHOENIX-2140
p2676
aVPHOENIX-2139
p2677
aVPHOENIX-2138
p2678
aVPHOENIX-2137
p2679
aVPHOENIX-2136
p2680
aVPHOENIX-2135
p2681
aVPHOENIX-2134
p2682
aVPHOENIX-2133
p2683
aVPHOENIX-2132
p2684
aVPHOENIX-2131
p2685
aVPHOENIX-2130
p2686
aVPHOENIX-2129
p2687
aVPHOENIX-2128
p2688
aVPHOENIX-2127
p2689
aVPHOENIX-2126
p2690
aVPHOENIX-2125
p2691
aVPHOENIX-2124
p2692
aVPHOENIX-2123
p2693
aVPHOENIX-2122
p2694
aVPHOENIX-2121
p2695
aVPHOENIX-2120
p2696
aVPHOENIX-2119
p2697
aVPHOENIX-2118
p2698
aVPHOENIX-2117
p2699
aVPHOENIX-2116
p2700
aVPHOENIX-2115
p2701
aVPHOENIX-2114
p2702
aVPHOENIX-2113
p2703
aVPHOENIX-2112
p2704
aVPHOENIX-2111
p2705
aVPHOENIX-2110
p2706
aVPHOENIX-2109
p2707
aVPHOENIX-2108
p2708
aVPHOENIX-2107
p2709
aVPHOENIX-2106
p2710
aVPHOENIX-2105
p2711
aVPHOENIX-2104
p2712
aVPHOENIX-2103
p2713
aVPHOENIX-2102
p2714
aVPHOENIX-2101
p2715
aVPHOENIX-2100
p2716
aVPHOENIX-2099
p2717
aVPHOENIX-2098
p2718
aVPHOENIX-2097
p2719
aVPHOENIX-2096
p2720
aVPHOENIX-2095
p2721
aVPHOENIX-2094
p2722
aVPHOENIX-2093
p2723
aVPHOENIX-2092
p2724
aVPHOENIX-2091
p2725
aVPHOENIX-2090
p2726
aVPHOENIX-2089
p2727
aVPHOENIX-2088
p2728
aVPHOENIX-2087
p2729
aVPHOENIX-2086
p2730
aVPHOENIX-2085
p2731
aVPHOENIX-2084
p2732
aVPHOENIX-2083
p2733
aVPHOENIX-2082
p2734
aVPHOENIX-2081
p2735
aVPHOENIX-2080
p2736
aVPHOENIX-2079
p2737
aVPHOENIX-2078
p2738
aVPHOENIX-2077
p2739
aVPHOENIX-2076
p2740
aVPHOENIX-2075
p2741
aVPHOENIX-2074
p2742
aVPHOENIX-2073
p2743
aVPHOENIX-2072
p2744
aVPHOENIX-2070
p2745
aVPHOENIX-2069
p2746
aVPHOENIX-2068
p2747
aVPHOENIX-2067
p2748
aVPHOENIX-2066
p2749
aVPHOENIX-2065
p2750
aVPHOENIX-2064
p2751
aVPHOENIX-2063
p2752
aVPHOENIX-2062
p2753
aVPHOENIX-2061
p2754
aVPHOENIX-2060
p2755
aVPHOENIX-2059
p2756
aVPHOENIX-2058
p2757
aVPHOENIX-2057
p2758
aVPHOENIX-2056
p2759
aVPHOENIX-2055
p2760
aVPHOENIX-2054
p2761
aVPHOENIX-2053
p2762
aVPHOENIX-2052
p2763
aVPHOENIX-2051
p2764
aVPHOENIX-2050
p2765
aVPHOENIX-2049
p2766
aVPHOENIX-2048
p2767
aVPHOENIX-2047
p2768
aVPHOENIX-2046
p2769
aVPHOENIX-2045
p2770
aVPHOENIX-2044
p2771
aVPHOENIX-2043
p2772
aVPHOENIX-2042
p2773
aVPHOENIX-2041
p2774
aVPHOENIX-2040
p2775
aVPHOENIX-2039
p2776
aVPHOENIX-2038
p2777
aVPHOENIX-2037
p2778
aVPHOENIX-2036
p2779
aVPHOENIX-2035
p2780
aVPHOENIX-2034
p2781
aVPHOENIX-2033
p2782
aVPHOENIX-2032
p2783
aVPHOENIX-2031
p2784
aVPHOENIX-2030
p2785
aVPHOENIX-2029
p2786
aVPHOENIX-2028
p2787
aVPHOENIX-2027
p2788
aVPHOENIX-2026
p2789
aVPHOENIX-2025
p2790
aVPHOENIX-2024
p2791
aVPHOENIX-2023
p2792
aVPHOENIX-2022
p2793
aVPHOENIX-2021
p2794
aVPHOENIX-2020
p2795
aVPHOENIX-2019
p2796
aVPHOENIX-2018
p2797
aVPHOENIX-2017
p2798
aVPHOENIX-2016
p2799
aVPHOENIX-2015
p2800
aVPHOENIX-2014
p2801
aVPHOENIX-2013
p2802
aVPHOENIX-2012
p2803
aVPHOENIX-2011
p2804
aVPHOENIX-2010
p2805
aVPHOENIX-2009
p2806
aVPHOENIX-2008
p2807
aVPHOENIX-2007
p2808
aVPHOENIX-2006
p2809
aVPHOENIX-2005
p2810
aVPHOENIX-2004
p2811
aVPHOENIX-2003
p2812
aVPHOENIX-2002
p2813
aVPHOENIX-2001
p2814
aVPHOENIX-2000
p2815
aVPHOENIX-1999
p2816
aVPHOENIX-1998
p2817
aVPHOENIX-1997
p2818
aVPHOENIX-1996
p2819
aVPHOENIX-1995
p2820
aVPHOENIX-1994
p2821
aVPHOENIX-1993
p2822
aVPHOENIX-1992
p2823
aVPHOENIX-1991
p2824
aVPHOENIX-1990
p2825
aVPHOENIX-1989
p2826
aVPHOENIX-1988
p2827
aVPHOENIX-1987
p2828
aVPHOENIX-1986
p2829
aVPHOENIX-1985
p2830
aVPHOENIX-1984
p2831
aVPHOENIX-1983
p2832
aVPHOENIX-1982
p2833
aVPHOENIX-1981
p2834
aVPHOENIX-1980
p2835
aVPHOENIX-1979
p2836
aVPHOENIX-1978
p2837
aVPHOENIX-1977
p2838
aVPHOENIX-1976
p2839
aVPHOENIX-1975
p2840
aVPHOENIX-1974
p2841
aVPHOENIX-1973
p2842
aVPHOENIX-1972
p2843
aVPHOENIX-1971
p2844
aVPHOENIX-1970
p2845
aVPHOENIX-1969
p2846
aVPHOENIX-1968
p2847
aVPHOENIX-1967
p2848
aVPHOENIX-1966
p2849
aVPHOENIX-1965
p2850
aVPHOENIX-1964
p2851
aVPHOENIX-1963
p2852
aVPHOENIX-1962
p2853
aVPHOENIX-1961
p2854
aVPHOENIX-1960
p2855
aVPHOENIX-1959
p2856
aVPHOENIX-1958
p2857
aVPHOENIX-1957
p2858
aVPHOENIX-1956
p2859
aVPHOENIX-1955
p2860
aVPHOENIX-1954
p2861
aVPHOENIX-1953
p2862
aVPHOENIX-1952
p2863
aVPHOENIX-1951
p2864
aVPHOENIX-1950
p2865
aVPHOENIX-1949
p2866
aVPHOENIX-1948
p2867
aVPHOENIX-1947
p2868
aVPHOENIX-1946
p2869
aVPHOENIX-1945
p2870
aVPHOENIX-1944
p2871
aVPHOENIX-1943
p2872
aVPHOENIX-1942
p2873
aVPHOENIX-1941
p2874
aVPHOENIX-1940
p2875
aVPHOENIX-1939
p2876
aVPHOENIX-1938
p2877
aVPHOENIX-1937
p2878
aVPHOENIX-1936
p2879
aVPHOENIX-1935
p2880
aVPHOENIX-1934
p2881
aVPHOENIX-1933
p2882
aVPHOENIX-1932
p2883
aVPHOENIX-1931
p2884
aVPHOENIX-1930
p2885
aVPHOENIX-1929
p2886
aVPHOENIX-1928
p2887
aVPHOENIX-1927
p2888
aVPHOENIX-1926
p2889
aVPHOENIX-1925
p2890
aVPHOENIX-1924
p2891
aVPHOENIX-1923
p2892
aVPHOENIX-1922
p2893
aVPHOENIX-1921
p2894
aVPHOENIX-1920
p2895
aVPHOENIX-1919
p2896
aVPHOENIX-1918
p2897
aVPHOENIX-1917
p2898
aVPHOENIX-1916
p2899
aVPHOENIX-1915
p2900
aVPHOENIX-1914
p2901
aVPHOENIX-1913
p2902
aVPHOENIX-1912
p2903
aVPHOENIX-1911
p2904
aVPHOENIX-1910
p2905
aVPHOENIX-1909
p2906
aVPHOENIX-1908
p2907
aVPHOENIX-1907
p2908
aVPHOENIX-1906
p2909
aVPHOENIX-1905
p2910
aVPHOENIX-1904
p2911
aVPHOENIX-1903
p2912
aVPHOENIX-1902
p2913
aVPHOENIX-1901
p2914
aVPHOENIX-1900
p2915
aVPHOENIX-1899
p2916
aVPHOENIX-1898
p2917
aVPHOENIX-1897
p2918
aVPHOENIX-1896
p2919
aVPHOENIX-1895
p2920
aVPHOENIX-1894
p2921
aVPHOENIX-1893
p2922
aVPHOENIX-1892
p2923
aVPHOENIX-1891
p2924
aVPHOENIX-1890
p2925
aVPHOENIX-1889
p2926
aVPHOENIX-1888
p2927
aVPHOENIX-1887
p2928
aVPHOENIX-1886
p2929
aVPHOENIX-1885
p2930
aVPHOENIX-1884
p2931
aVPHOENIX-1883
p2932
aVPHOENIX-1882
p2933
aVPHOENIX-1881
p2934
aVPHOENIX-1880
p2935
aVPHOENIX-1879
p2936
aVPHOENIX-1878
p2937
aVPHOENIX-1877
p2938
aVPHOENIX-1876
p2939
aVPHOENIX-1875
p2940
aVPHOENIX-1874
p2941
aVPHOENIX-1873
p2942
aVPHOENIX-1872
p2943
aVPHOENIX-1871
p2944
aVPHOENIX-1870
p2945
aVPHOENIX-1869
p2946
aVPHOENIX-1868
p2947
aVPHOENIX-1867
p2948
aVPHOENIX-1866
p2949
aVPHOENIX-1865
p2950
aVPHOENIX-1864
p2951
aVPHOENIX-1863
p2952
aVPHOENIX-1862
p2953
aVPHOENIX-1861
p2954
aVPHOENIX-1860
p2955
aVPHOENIX-1859
p2956
aVPHOENIX-1858
p2957
aVPHOENIX-1857
p2958
aVPHOENIX-1856
p2959
aVPHOENIX-1855
p2960
aVPHOENIX-1854
p2961
aVPHOENIX-1853
p2962
aVPHOENIX-1852
p2963
aVPHOENIX-1851
p2964
aVPHOENIX-1850
p2965
aVPHOENIX-1849
p2966
aVPHOENIX-1848
p2967
aVPHOENIX-1847
p2968
aVPHOENIX-1846
p2969
aVPHOENIX-1845
p2970
aVPHOENIX-1844
p2971
aVPHOENIX-1843
p2972
aVPHOENIX-1842
p2973
aVPHOENIX-1841
p2974
aVPHOENIX-1840
p2975
aVPHOENIX-1839
p2976
aVPHOENIX-1838
p2977
aVPHOENIX-1837
p2978
aVPHOENIX-1836
p2979
aVPHOENIX-1835
p2980
aVPHOENIX-1834
p2981
aVPHOENIX-1833
p2982
aVPHOENIX-1832
p2983
aVPHOENIX-1831
p2984
aVPHOENIX-1830
p2985
aVPHOENIX-1829
p2986
aVPHOENIX-1828
p2987
aVPHOENIX-1827
p2988
aVPHOENIX-1826
p2989
aVPHOENIX-1825
p2990
aVPHOENIX-1824
p2991
aVPHOENIX-1823
p2992
aVPHOENIX-1822
p2993
aVPHOENIX-1821
p2994
aVPHOENIX-1820
p2995
aVPHOENIX-1819
p2996
aVPHOENIX-1818
p2997
aVPHOENIX-1817
p2998
aVPHOENIX-1816
p2999
aVPHOENIX-1815
p3000
aVPHOENIX-1814
p3001
aVPHOENIX-1813
p3002
aVPHOENIX-1812
p3003
aVPHOENIX-1811
p3004
aVPHOENIX-1810
p3005
aVPHOENIX-1809
p3006
aVPHOENIX-1808
p3007
aVPHOENIX-1807
p3008
aVPHOENIX-1806
p3009
aVPHOENIX-1805
p3010
aVPHOENIX-1804
p3011
aVPHOENIX-1803
p3012
aVPHOENIX-1802
p3013
aVPHOENIX-1801
p3014
aVPHOENIX-1800
p3015
aVPHOENIX-1799
p3016
aVPHOENIX-1798
p3017
aVPHOENIX-1797
p3018
aVPHOENIX-1796
p3019
aVPHOENIX-1795
p3020
aVPHOENIX-1794
p3021
aVPHOENIX-1793
p3022
aVPHOENIX-1792
p3023
aVPHOENIX-1791
p3024
aVPHOENIX-1790
p3025
aVPHOENIX-1789
p3026
aVPHOENIX-1788
p3027
aVPHOENIX-1787
p3028
aVPHOENIX-1786
p3029
aVPHOENIX-1785
p3030
aVPHOENIX-1784
p3031
aVPHOENIX-1783
p3032
aVPHOENIX-1782
p3033
aVPHOENIX-1781
p3034
aVPHOENIX-1780
p3035
aVPHOENIX-1779
p3036
aVPHOENIX-1778
p3037
aVPHOENIX-1777
p3038
aVPHOENIX-1776
p3039
aVPHOENIX-1775
p3040
aVPHOENIX-1774
p3041
aVPHOENIX-1773
p3042
aVPHOENIX-1772
p3043
aVPHOENIX-1771
p3044
aVPHOENIX-1770
p3045
aVPHOENIX-1769
p3046
aVPHOENIX-1768
p3047
aVPHOENIX-1767
p3048
aVPHOENIX-1766
p3049
aVPHOENIX-1765
p3050
aVPHOENIX-1764
p3051
aVPHOENIX-1763
p3052
aVPHOENIX-1762
p3053
aVPHOENIX-1761
p3054
aVPHOENIX-1760
p3055
aVPHOENIX-1759
p3056
aVPHOENIX-1758
p3057
aVPHOENIX-1757
p3058
aVPHOENIX-1756
p3059
aVPHOENIX-1755
p3060
aVPHOENIX-1754
p3061
aVPHOENIX-1753
p3062
aVPHOENIX-1752
p3063
aVPHOENIX-1751
p3064
aVPHOENIX-1750
p3065
aVPHOENIX-1749
p3066
aVPHOENIX-1748
p3067
aVPHOENIX-1747
p3068
aVPHOENIX-1746
p3069
aVPHOENIX-1745
p3070
aVPHOENIX-1744
p3071
aVPHOENIX-1743
p3072
aVPHOENIX-1742
p3073
aVPHOENIX-1741
p3074
aVPHOENIX-1740
p3075
aVPHOENIX-1739
p3076
aVPHOENIX-1738
p3077
aVPHOENIX-1737
p3078
aVPHOENIX-1736
p3079
aVPHOENIX-1735
p3080
aVPHOENIX-1734
p3081
aVPHOENIX-1733
p3082
aVPHOENIX-1732
p3083
aVPHOENIX-1731
p3084
aVPHOENIX-1730
p3085
aVPHOENIX-1729
p3086
aVPHOENIX-1728
p3087
aVPHOENIX-1727
p3088
aVPHOENIX-1726
p3089
aVPHOENIX-1725
p3090
aVPHOENIX-1724
p3091
aVPHOENIX-1723
p3092
aVPHOENIX-1722
p3093
aVPHOENIX-1721
p3094
aVPHOENIX-1720
p3095
aVPHOENIX-1719
p3096
aVPHOENIX-1718
p3097
aVPHOENIX-1717
p3098
aVPHOENIX-1716
p3099
aVPHOENIX-1715
p3100
aVPHOENIX-1714
p3101
aVPHOENIX-1713
p3102
aVPHOENIX-1712
p3103
aVPHOENIX-1711
p3104
aVPHOENIX-1710
p3105
aVPHOENIX-1709
p3106
aVPHOENIX-1708
p3107
aVPHOENIX-1707
p3108
aVPHOENIX-1706
p3109
aVPHOENIX-1705
p3110
aVPHOENIX-1704
p3111
aVPHOENIX-1703
p3112
aVPHOENIX-1702
p3113
aVPHOENIX-1701
p3114
aVPHOENIX-1700
p3115
aVPHOENIX-1699
p3116
aVPHOENIX-1698
p3117
aVPHOENIX-1697
p3118
aVPHOENIX-1696
p3119
aVPHOENIX-1695
p3120
aVPHOENIX-1694
p3121
aVPHOENIX-1693
p3122
aVPHOENIX-1692
p3123
aVPHOENIX-1691
p3124
aVPHOENIX-1690
p3125
aVPHOENIX-1689
p3126
aVPHOENIX-1688
p3127
aVPHOENIX-1687
p3128
aVPHOENIX-1686
p3129
aVPHOENIX-1685
p3130
aVPHOENIX-1684
p3131
aVPHOENIX-1683
p3132
aVPHOENIX-1682
p3133
aVPHOENIX-1681
p3134
aVPHOENIX-1680
p3135
aVPHOENIX-1679
p3136
aVPHOENIX-1678
p3137
aVPHOENIX-1677
p3138
aVPHOENIX-1676
p3139
aVPHOENIX-1675
p3140
aVPHOENIX-1674
p3141
aVPHOENIX-1673
p3142
aVPHOENIX-1672
p3143
aVPHOENIX-1671
p3144
aVPHOENIX-1670
p3145
aVPHOENIX-1669
p3146
aVPHOENIX-1668
p3147
aVPHOENIX-1667
p3148
aVPHOENIX-1666
p3149
aVPHOENIX-1665
p3150
aVPHOENIX-1664
p3151
aVPHOENIX-1663
p3152
aVPHOENIX-1662
p3153
aVPHOENIX-1661
p3154
aVPHOENIX-1660
p3155
aVPHOENIX-1659
p3156
aVPHOENIX-1658
p3157
aVPHOENIX-1657
p3158
aVPHOENIX-1656
p3159
aVPHOENIX-1655
p3160
aVPHOENIX-1654
p3161
aVPHOENIX-1653
p3162
aVPHOENIX-1652
p3163
aVPHOENIX-1651
p3164
aVPHOENIX-1650
p3165
aVPHOENIX-1649
p3166
aVPHOENIX-1648
p3167
aVPHOENIX-1647
p3168
aVPHOENIX-1646
p3169
aVPHOENIX-1645
p3170
aVPHOENIX-1644
p3171
aVPHOENIX-1643
p3172
aVPHOENIX-1642
p3173
aVPHOENIX-1641
p3174
aVPHOENIX-1640
p3175
aVPHOENIX-1639
p3176
aVPHOENIX-1638
p3177
aVPHOENIX-1637
p3178
aVPHOENIX-1636
p3179
aVPHOENIX-1635
p3180
aVPHOENIX-1634
p3181
aVPHOENIX-1633
p3182
aVPHOENIX-1632
p3183
aVPHOENIX-1631
p3184
aVPHOENIX-1630
p3185
aVPHOENIX-1629
p3186
aVPHOENIX-1628
p3187
aVPHOENIX-1627
p3188
aVPHOENIX-1626
p3189
aVPHOENIX-1625
p3190
aVPHOENIX-1624
p3191
aVPHOENIX-1623
p3192
aVPHOENIX-1622
p3193
aVPHOENIX-1621
p3194
aVPHOENIX-1620
p3195
aVPHOENIX-1619
p3196
aVPHOENIX-1618
p3197
aVPHOENIX-1617
p3198
aVPHOENIX-1616
p3199
aVPHOENIX-1615
p3200
aVPHOENIX-1614
p3201
aVPHOENIX-1613
p3202
aVPHOENIX-1612
p3203
aVPHOENIX-1611
p3204
aVPHOENIX-1610
p3205
aVPHOENIX-1609
p3206
aVPHOENIX-1608
p3207
aVPHOENIX-1607
p3208
aVPHOENIX-1606
p3209
aVPHOENIX-1605
p3210
aVPHOENIX-1604
p3211
aVPHOENIX-1603
p3212
aVPHOENIX-1602
p3213
aVPHOENIX-1601
p3214
aVPHOENIX-1600
p3215
aVPHOENIX-1599
p3216
aVPHOENIX-1598
p3217
aVPHOENIX-1597
p3218
aVPHOENIX-1596
p3219
aVPHOENIX-1595
p3220
aVPHOENIX-1594
p3221
aVPHOENIX-1593
p3222
aVPHOENIX-1592
p3223
aVPHOENIX-1591
p3224
aVPHOENIX-1590
p3225
aVPHOENIX-1589
p3226
aVPHOENIX-1588
p3227
aVPHOENIX-1587
p3228
aVPHOENIX-1586
p3229
aVPHOENIX-1585
p3230
aVPHOENIX-1584
p3231
aVPHOENIX-1583
p3232
aVPHOENIX-1582
p3233
aVPHOENIX-1581
p3234
aVPHOENIX-1580
p3235
aVPHOENIX-1579
p3236
aVPHOENIX-1578
p3237
aVPHOENIX-1577
p3238
aVPHOENIX-1576
p3239
aVPHOENIX-1575
p3240
aVPHOENIX-1574
p3241
aVPHOENIX-1573
p3242
aVPHOENIX-1572
p3243
aVPHOENIX-1571
p3244
aVPHOENIX-1570
p3245
aVPHOENIX-1569
p3246
aVPHOENIX-1568
p3247
aVPHOENIX-1567
p3248
aVPHOENIX-1566
p3249
aVPHOENIX-1565
p3250
aVPHOENIX-1564
p3251
aVPHOENIX-1563
p3252
aVPHOENIX-1562
p3253
aVPHOENIX-1561
p3254
aVPHOENIX-1560
p3255
aVPHOENIX-1559
p3256
aVPHOENIX-1558
p3257
aVPHOENIX-1557
p3258
aVPHOENIX-1556
p3259
aVPHOENIX-1555
p3260
aVPHOENIX-1554
p3261
aVPHOENIX-1553
p3262
aVPHOENIX-1552
p3263
aVPHOENIX-1551
p3264
aVPHOENIX-1550
p3265
aVPHOENIX-1549
p3266
aVPHOENIX-1548
p3267
aVPHOENIX-1547
p3268
aVPHOENIX-1546
p3269
aVPHOENIX-1545
p3270
aVPHOENIX-1544
p3271
aVPHOENIX-1543
p3272
aVPHOENIX-1542
p3273
aVPHOENIX-1541
p3274
aVPHOENIX-1540
p3275
aVPHOENIX-1539
p3276
aVPHOENIX-1538
p3277
aVPHOENIX-1537
p3278
aVPHOENIX-1536
p3279
aVPHOENIX-1535
p3280
aVPHOENIX-1534
p3281
aVPHOENIX-1533
p3282
aVPHOENIX-1532
p3283
aVPHOENIX-1531
p3284
aVPHOENIX-1530
p3285
aVPHOENIX-1529
p3286
aVPHOENIX-1528
p3287
aVPHOENIX-1527
p3288
aVPHOENIX-1526
p3289
aVPHOENIX-1525
p3290
aVPHOENIX-1524
p3291
aVPHOENIX-1523
p3292
aVPHOENIX-1522
p3293
aVPHOENIX-1521
p3294
aVPHOENIX-1520
p3295
aVPHOENIX-1519
p3296
aVPHOENIX-1518
p3297
aVPHOENIX-1517
p3298
aVPHOENIX-1516
p3299
aVPHOENIX-1515
p3300
aVPHOENIX-1514
p3301
aVPHOENIX-1513
p3302
aVPHOENIX-1512
p3303
aVPHOENIX-1511
p3304
aVPHOENIX-1510
p3305
aVPHOENIX-1509
p3306
aVPHOENIX-1508
p3307
aVPHOENIX-1507
p3308
aVPHOENIX-1506
p3309
aVPHOENIX-1505
p3310
aVPHOENIX-1504
p3311
aVPHOENIX-1503
p3312
aVPHOENIX-1502
p3313
aVPHOENIX-1501
p3314
aVPHOENIX-1500
p3315
aVPHOENIX-1499
p3316
aVPHOENIX-1498
p3317
aVPHOENIX-1497
p3318
aVPHOENIX-1496
p3319
aVPHOENIX-1495
p3320
aVPHOENIX-1494
p3321
aVPHOENIX-1493
p3322
aVPHOENIX-1492
p3323
aVPHOENIX-1491
p3324
aVPHOENIX-1490
p3325
aVPHOENIX-1489
p3326
aVPHOENIX-1488
p3327
aVPHOENIX-1487
p3328
aVPHOENIX-1486
p3329
aVPHOENIX-1485
p3330
aVPHOENIX-1484
p3331
aVPHOENIX-1483
p3332
aVPHOENIX-1482
p3333
aVPHOENIX-1481
p3334
aVPHOENIX-1480
p3335
aVPHOENIX-1479
p3336
aVPHOENIX-1478
p3337
aVPHOENIX-1477
p3338
aVPHOENIX-1476
p3339
aVPHOENIX-1475
p3340
aVPHOENIX-1474
p3341
aVPHOENIX-1473
p3342
aVPHOENIX-1472
p3343
aVPHOENIX-1471
p3344
aVPHOENIX-1470
p3345
aVPHOENIX-1469
p3346
aVPHOENIX-1468
p3347
aVPHOENIX-1467
p3348
aVPHOENIX-1466
p3349
aVPHOENIX-1465
p3350
aVPHOENIX-1464
p3351
aVPHOENIX-1463
p3352
aVPHOENIX-1462
p3353
aVPHOENIX-1461
p3354
aVPHOENIX-1460
p3355
aVPHOENIX-1459
p3356
aVPHOENIX-1458
p3357
aVPHOENIX-1457
p3358
aVPHOENIX-1456
p3359
aVPHOENIX-1455
p3360
aVPHOENIX-1454
p3361
aVPHOENIX-1453
p3362
aVPHOENIX-1452
p3363
aVPHOENIX-1451
p3364
aVPHOENIX-1450
p3365
aVPHOENIX-1449
p3366
aVPHOENIX-1448
p3367
aVPHOENIX-1447
p3368
aVPHOENIX-1446
p3369
aVPHOENIX-1445
p3370
aVPHOENIX-1444
p3371
aVPHOENIX-1443
p3372
aVPHOENIX-1442
p3373
aVPHOENIX-1441
p3374
aVPHOENIX-1440
p3375
aVPHOENIX-1439
p3376
aVPHOENIX-1438
p3377
aVPHOENIX-1437
p3378
aVPHOENIX-1436
p3379
aVPHOENIX-1435
p3380
aVPHOENIX-1434
p3381
aVPHOENIX-1433
p3382
aVPHOENIX-1432
p3383
aVPHOENIX-1431
p3384
aVPHOENIX-1430
p3385
aVPHOENIX-1429
p3386
aVPHOENIX-1428
p3387
aVPHOENIX-1427
p3388
aVPHOENIX-1426
p3389
aVPHOENIX-1425
p3390
aVPHOENIX-1424
p3391
aVPHOENIX-1423
p3392
aVPHOENIX-1422
p3393
aVPHOENIX-1421
p3394
aVPHOENIX-1420
p3395
aVPHOENIX-1419
p3396
aVPHOENIX-1418
p3397
aVPHOENIX-1417
p3398
aVPHOENIX-1416
p3399
aVPHOENIX-1415
p3400
aVPHOENIX-1414
p3401
aVPHOENIX-1413
p3402
aVPHOENIX-1412
p3403
aVPHOENIX-1411
p3404
aVPHOENIX-1410
p3405
aVPHOENIX-1409
p3406
aVPHOENIX-1408
p3407
aVPHOENIX-1407
p3408
aVPHOENIX-1406
p3409
aVPHOENIX-1405
p3410
aVPHOENIX-1404
p3411
aVPHOENIX-1403
p3412
aVPHOENIX-1402
p3413
aVPHOENIX-1401
p3414
aVPHOENIX-1400
p3415
aVPHOENIX-1399
p3416
aVPHOENIX-1398
p3417
aVPHOENIX-1397
p3418
aVPHOENIX-1396
p3419
aVPHOENIX-1395
p3420
aVPHOENIX-1394
p3421
aVPHOENIX-1393
p3422
aVPHOENIX-1392
p3423
aVPHOENIX-1391
p3424
aVPHOENIX-1390
p3425
aVPHOENIX-1389
p3426
aVPHOENIX-1388
p3427
aVPHOENIX-1387
p3428
aVPHOENIX-1386
p3429
aVPHOENIX-1385
p3430
aVPHOENIX-1384
p3431
aVPHOENIX-1383
p3432
aVPHOENIX-1382
p3433
aVPHOENIX-1381
p3434
aVPHOENIX-1380
p3435
aVPHOENIX-1379
p3436
aVPHOENIX-1378
p3437
aVPHOENIX-1377
p3438
aVPHOENIX-1376
p3439
aVPHOENIX-1375
p3440
aVPHOENIX-1374
p3441
aVPHOENIX-1373
p3442
aVPHOENIX-1372
p3443
aVPHOENIX-1371
p3444
aVPHOENIX-1370
p3445
aVPHOENIX-1369
p3446
aVPHOENIX-1368
p3447
aVPHOENIX-1367
p3448
aVPHOENIX-1366
p3449
aVPHOENIX-1365
p3450
aVPHOENIX-1364
p3451
aVPHOENIX-1363
p3452
aVPHOENIX-1362
p3453
aVPHOENIX-1361
p3454
aVPHOENIX-1360
p3455
aVPHOENIX-1359
p3456
aVPHOENIX-1358
p3457
aVPHOENIX-1357
p3458
aVPHOENIX-1356
p3459
aVPHOENIX-1355
p3460
aVPHOENIX-1354
p3461
aVPHOENIX-1353
p3462
aVPHOENIX-1352
p3463
aVPHOENIX-1351
p3464
aVPHOENIX-1350
p3465
aVPHOENIX-1349
p3466
aVPHOENIX-1347
p3467
aVPHOENIX-1346
p3468
aVPHOENIX-1345
p3469
aVPHOENIX-1344
p3470
aVPHOENIX-1343
p3471
aVPHOENIX-1342
p3472
aVPHOENIX-1341
p3473
aVPHOENIX-1340
p3474
aVPHOENIX-1339
p3475
aVPHOENIX-1338
p3476
aVPHOENIX-1337
p3477
aVPHOENIX-1336
p3478
aVPHOENIX-1335
p3479
aVPHOENIX-1334
p3480
aVPHOENIX-1333
p3481
aVPHOENIX-1332
p3482
aVPHOENIX-1331
p3483
aVPHOENIX-1330
p3484
aVPHOENIX-1329
p3485
aVPHOENIX-1328
p3486
aVPHOENIX-1327
p3487
aVPHOENIX-1326
p3488
aVPHOENIX-1325
p3489
aVPHOENIX-1324
p3490
aVPHOENIX-1323
p3491
aVPHOENIX-1322
p3492
aVPHOENIX-1321
p3493
aVPHOENIX-1320
p3494
aVPHOENIX-1319
p3495
aVPHOENIX-1318
p3496
aVPHOENIX-1317
p3497
aVPHOENIX-1316
p3498
aVPHOENIX-1315
p3499
aVPHOENIX-1314
p3500
aVPHOENIX-1313
p3501
aVPHOENIX-1312
p3502
aVPHOENIX-1311
p3503
aVPHOENIX-1310
p3504
aVPHOENIX-1309
p3505
aVPHOENIX-1308
p3506
aVPHOENIX-1307
p3507
aVPHOENIX-1306
p3508
aVPHOENIX-1305
p3509
aVPHOENIX-1304
p3510
aVPHOENIX-1303
p3511
aVPHOENIX-1302
p3512
aVPHOENIX-1301
p3513
aVPHOENIX-1300
p3514
aVPHOENIX-1299
p3515
aVPHOENIX-1298
p3516
aVPHOENIX-1297
p3517
aVPHOENIX-1296
p3518
aVPHOENIX-1295
p3519
aVPHOENIX-1294
p3520
aVPHOENIX-1293
p3521
aVPHOENIX-1292
p3522
aVPHOENIX-1291
p3523
aVPHOENIX-1290
p3524
aVPHOENIX-1289
p3525
aVPHOENIX-1288
p3526
aVPHOENIX-1287
p3527
aVPHOENIX-1286
p3528
aVPHOENIX-1285
p3529
aVPHOENIX-1284
p3530
aVPHOENIX-1283
p3531
aVPHOENIX-1282
p3532
aVPHOENIX-1281
p3533
aVPHOENIX-1280
p3534
aVPHOENIX-1279
p3535
aVPHOENIX-1278
p3536
aVPHOENIX-1277
p3537
aVPHOENIX-1276
p3538
aVPHOENIX-1275
p3539
aVPHOENIX-1274
p3540
aVPHOENIX-1273
p3541
aVPHOENIX-1272
p3542
aVPHOENIX-1271
p3543
aVPHOENIX-1270
p3544
aVPHOENIX-1269
p3545
aVPHOENIX-1268
p3546
aVPHOENIX-1267
p3547
aVPHOENIX-1266
p3548
aVPHOENIX-1265
p3549
aVPHOENIX-1264
p3550
aVPHOENIX-1263
p3551
aVPHOENIX-1262
p3552
aVPHOENIX-1261
p3553
aVPHOENIX-1260
p3554
aVPHOENIX-1259
p3555
aVPHOENIX-1258
p3556
aVPHOENIX-1257
p3557
aVPHOENIX-1256
p3558
aVPHOENIX-1255
p3559
aVPHOENIX-1254
p3560
aVPHOENIX-1253
p3561
aVPHOENIX-1252
p3562
aVPHOENIX-1251
p3563
aVPHOENIX-1250
p3564
aVPHOENIX-1249
p3565
aVPHOENIX-1248
p3566
aVPHOENIX-1247
p3567
aVPHOENIX-1246
p3568
aVPHOENIX-1245
p3569
aVPHOENIX-1244
p3570
aVPHOENIX-1243
p3571
aVPHOENIX-1242
p3572
aVPHOENIX-1241
p3573
aVPHOENIX-1240
p3574
aVPHOENIX-1239
p3575
aVPHOENIX-1238
p3576
aVPHOENIX-1237
p3577
aVPHOENIX-1236
p3578
aVPHOENIX-1235
p3579
aVPHOENIX-1234
p3580
aVPHOENIX-1233
p3581
aVPHOENIX-1232
p3582
aVPHOENIX-1231
p3583
aVPHOENIX-1230
p3584
aVPHOENIX-1229
p3585
aVPHOENIX-1228
p3586
aVPHOENIX-1227
p3587
aVPHOENIX-1226
p3588
aVPHOENIX-1225
p3589
aVPHOENIX-1224
p3590
aVPHOENIX-1223
p3591
aVPHOENIX-1222
p3592
aVPHOENIX-1221
p3593
aVPHOENIX-1220
p3594
aVPHOENIX-1219
p3595
aVPHOENIX-1218
p3596
aVPHOENIX-1217
p3597
aVPHOENIX-1216
p3598
aVPHOENIX-1215
p3599
aVPHOENIX-1214
p3600
aVPHOENIX-1213
p3601
aVPHOENIX-1212
p3602
aVPHOENIX-1211
p3603
aVPHOENIX-1210
p3604
aVPHOENIX-1209
p3605
aVPHOENIX-1208
p3606
aVPHOENIX-1207
p3607
aVPHOENIX-1206
p3608
aVPHOENIX-1205
p3609
aVPHOENIX-1204
p3610
aVPHOENIX-1203
p3611
aVPHOENIX-1202
p3612
aVPHOENIX-1201
p3613
aVPHOENIX-1200
p3614
aVPHOENIX-1199
p3615
aVPHOENIX-1198
p3616
aVPHOENIX-1197
p3617
aVPHOENIX-1196
p3618
aVPHOENIX-1195
p3619
aVPHOENIX-1194
p3620
aVPHOENIX-1193
p3621
aVPHOENIX-1192
p3622
aVPHOENIX-1191
p3623
aVPHOENIX-1190
p3624
aVPHOENIX-1189
p3625
aVPHOENIX-1188
p3626
aVPHOENIX-1187
p3627
aVPHOENIX-1186
p3628
aVPHOENIX-1185
p3629
aVPHOENIX-1184
p3630
aVPHOENIX-1183
p3631
aVPHOENIX-1182
p3632
aVPHOENIX-1181
p3633
aVPHOENIX-1180
p3634
aVPHOENIX-1179
p3635
aVPHOENIX-1178
p3636
aVPHOENIX-1177
p3637
aVPHOENIX-1176
p3638
aVPHOENIX-1175
p3639
aVPHOENIX-1174
p3640
aVPHOENIX-1173
p3641
aVPHOENIX-1172
p3642
aVPHOENIX-1171
p3643
aVPHOENIX-1170
p3644
aVPHOENIX-1169
p3645
aVPHOENIX-1168
p3646
aVPHOENIX-1167
p3647
aVPHOENIX-1166
p3648
aVPHOENIX-1165
p3649
aVPHOENIX-1164
p3650
aVPHOENIX-1163
p3651
aVPHOENIX-1162
p3652
aVPHOENIX-1161
p3653
aVPHOENIX-1160
p3654
aVPHOENIX-1159
p3655
aVPHOENIX-1158
p3656
aVPHOENIX-1157
p3657
aVPHOENIX-1156
p3658
aVPHOENIX-1155
p3659
aVPHOENIX-1154
p3660
aVPHOENIX-1153
p3661
aVPHOENIX-1152
p3662
aVPHOENIX-1151
p3663
aVPHOENIX-1150
p3664
aVPHOENIX-1149
p3665
aVPHOENIX-1148
p3666
aVPHOENIX-1147
p3667
aVPHOENIX-1146
p3668
aVPHOENIX-1145
p3669
aVPHOENIX-1144
p3670
aVPHOENIX-1143
p3671
aVPHOENIX-1142
p3672
aVPHOENIX-1141
p3673
aVPHOENIX-1140
p3674
aVPHOENIX-1139
p3675
aVPHOENIX-1138
p3676
aVPHOENIX-1137
p3677
aVPHOENIX-1136
p3678
aVPHOENIX-1135
p3679
aVPHOENIX-1134
p3680
aVPHOENIX-1133
p3681
aVPHOENIX-1132
p3682
aVPHOENIX-1131
p3683
aVPHOENIX-1130
p3684
aVPHOENIX-1129
p3685
aVPHOENIX-1128
p3686
aVPHOENIX-1127
p3687
aVPHOENIX-1126
p3688
aVPHOENIX-1125
p3689
aVPHOENIX-1124
p3690
aVPHOENIX-1123
p3691
aVPHOENIX-1122
p3692
aVPHOENIX-1121
p3693
aVPHOENIX-1120
p3694
aVPHOENIX-1119
p3695
aVPHOENIX-1118
p3696
aVPHOENIX-1117
p3697
aVPHOENIX-1116
p3698
aVPHOENIX-1115
p3699
aVPHOENIX-1114
p3700
aVPHOENIX-1113
p3701
aVPHOENIX-1112
p3702
aVPHOENIX-1111
p3703
aVPHOENIX-1110
p3704
aVPHOENIX-1109
p3705
aVPHOENIX-1108
p3706
aVPHOENIX-1107
p3707
aVPHOENIX-1106
p3708
aVPHOENIX-1105
p3709
aVPHOENIX-1104
p3710
aVPHOENIX-1103
p3711
aVPHOENIX-1102
p3712
aVPHOENIX-1101
p3713
aVPHOENIX-1100
p3714
aVPHOENIX-1099
p3715
aVPHOENIX-1098
p3716
aVPHOENIX-1097
p3717
aVPHOENIX-1096
p3718
aVPHOENIX-1095
p3719
aVPHOENIX-1094
p3720
aVPHOENIX-1093
p3721
aVPHOENIX-1092
p3722
aVPHOENIX-1091
p3723
aVPHOENIX-1090
p3724
aVPHOENIX-1089
p3725
aVPHOENIX-1088
p3726
aVPHOENIX-1087
p3727
aVPHOENIX-1086
p3728
aVPHOENIX-1085
p3729
aVPHOENIX-1084
p3730
aVPHOENIX-1083
p3731
aVPHOENIX-1082
p3732
aVPHOENIX-1081
p3733
aVPHOENIX-1080
p3734
aVPHOENIX-1079
p3735
aVPHOENIX-1078
p3736
aVPHOENIX-1077
p3737
aVPHOENIX-1076
p3738
aVPHOENIX-1075
p3739
aVPHOENIX-1074
p3740
aVPHOENIX-1073
p3741
aVPHOENIX-1072
p3742
aVPHOENIX-1071
p3743
aVPHOENIX-1070
p3744
aVPHOENIX-1069
p3745
aVPHOENIX-1068
p3746
aVPHOENIX-1067
p3747
aVPHOENIX-1066
p3748
aVPHOENIX-1065
p3749
aVPHOENIX-1064
p3750
aVPHOENIX-1063
p3751
aVPHOENIX-1062
p3752
aVPHOENIX-1061
p3753
aVPHOENIX-1060
p3754
aVPHOENIX-1059
p3755
aVPHOENIX-1058
p3756
aVPHOENIX-1057
p3757
aVPHOENIX-1056
p3758
aVPHOENIX-1055
p3759
aVPHOENIX-1054
p3760
aVPHOENIX-1053
p3761
aVPHOENIX-1052
p3762
aVPHOENIX-1051
p3763
aVPHOENIX-1050
p3764
aVPHOENIX-1049
p3765
aVPHOENIX-1048
p3766
aVPHOENIX-1047
p3767
aVPHOENIX-1046
p3768
aVPHOENIX-1045
p3769
aVPHOENIX-1044
p3770
aVPHOENIX-1043
p3771
aVPHOENIX-1042
p3772
aVPHOENIX-1041
p3773
aVPHOENIX-1040
p3774
aVPHOENIX-1039
p3775
aVPHOENIX-1038
p3776
aVPHOENIX-1037
p3777
aVPHOENIX-1036
p3778
aVPHOENIX-1035
p3779
aVPHOENIX-1034
p3780
aVPHOENIX-1033
p3781
aVPHOENIX-1032
p3782
aVPHOENIX-1031
p3783
aVPHOENIX-1030
p3784
aVPHOENIX-1029
p3785
aVPHOENIX-1028
p3786
aVPHOENIX-1027
p3787
aVPHOENIX-1026
p3788
aVPHOENIX-1025
p3789
aVPHOENIX-1024
p3790
aVPHOENIX-1023
p3791
aVPHOENIX-1022
p3792
aVPHOENIX-1021
p3793
aVPHOENIX-1020
p3794
aVPHOENIX-1019
p3795
aVPHOENIX-1018
p3796
aVPHOENIX-1017
p3797
aVPHOENIX-1016
p3798
aVPHOENIX-1015
p3799
aVPHOENIX-1014
p3800
aVPHOENIX-1013
p3801
aVPHOENIX-1012
p3802
aVPHOENIX-1011
p3803
aVPHOENIX-1010
p3804
aVPHOENIX-1009
p3805
aVPHOENIX-1008
p3806
aVPHOENIX-1007
p3807
aVPHOENIX-1006
p3808
aVPHOENIX-1005
p3809
aVPHOENIX-1004
p3810
aVPHOENIX-1003
p3811
aVPHOENIX-1002
p3812
aVPHOENIX-1001
p3813
aVPHOENIX-1000
p3814
aVPHOENIX-999
p3815
aVPHOENIX-998
p3816
aVPHOENIX-997
p3817
aVPHOENIX-996
p3818
aVPHOENIX-995
p3819
aVPHOENIX-994
p3820
aVPHOENIX-993
p3821
aVPHOENIX-992
p3822
aVPHOENIX-991
p3823
aVPHOENIX-990
p3824
aVPHOENIX-989
p3825
aVPHOENIX-988
p3826
aVPHOENIX-987
p3827
aVPHOENIX-986
p3828
aVPHOENIX-985
p3829
aVPHOENIX-984
p3830
aVPHOENIX-983
p3831
aVPHOENIX-982
p3832
aVPHOENIX-981
p3833
aVPHOENIX-980
p3834
aVPHOENIX-979
p3835
aVPHOENIX-978
p3836
aVPHOENIX-977
p3837
aVPHOENIX-976
p3838
aVPHOENIX-975
p3839
aVPHOENIX-974
p3840
aVPHOENIX-973
p3841
aVPHOENIX-972
p3842
aVPHOENIX-971
p3843
aVPHOENIX-970
p3844
aVPHOENIX-969
p3845
aVPHOENIX-968
p3846
aVPHOENIX-967
p3847
aVPHOENIX-966
p3848
aVPHOENIX-965
p3849
aVPHOENIX-964
p3850
aVPHOENIX-963
p3851
aVPHOENIX-962
p3852
aVPHOENIX-961
p3853
aVPHOENIX-960
p3854
aVPHOENIX-959
p3855
aVPHOENIX-958
p3856
aVPHOENIX-957
p3857
aVPHOENIX-956
p3858
aVPHOENIX-955
p3859
aVPHOENIX-954
p3860
aVPHOENIX-953
p3861
aVPHOENIX-952
p3862
aVPHOENIX-951
p3863
aVPHOENIX-950
p3864
aVPHOENIX-949
p3865
aVPHOENIX-948
p3866
aVPHOENIX-947
p3867
aVPHOENIX-946
p3868
aVPHOENIX-945
p3869
aVPHOENIX-944
p3870
aVPHOENIX-943
p3871
aVPHOENIX-942
p3872
aVPHOENIX-941
p3873
aVPHOENIX-940
p3874
aVPHOENIX-939
p3875
aVPHOENIX-938
p3876
aVPHOENIX-937
p3877
aVPHOENIX-936
p3878
aVPHOENIX-935
p3879
aVPHOENIX-934
p3880
aVPHOENIX-933
p3881
aVPHOENIX-932
p3882
aVPHOENIX-931
p3883
aVPHOENIX-930
p3884
aVPHOENIX-929
p3885
aVPHOENIX-928
p3886
aVPHOENIX-927
p3887
aVPHOENIX-926
p3888
aVPHOENIX-925
p3889
aVPHOENIX-924
p3890
aVPHOENIX-923
p3891
aVPHOENIX-922
p3892
aVPHOENIX-921
p3893
aVPHOENIX-920
p3894
aVPHOENIX-919
p3895
aVPHOENIX-918
p3896
aVPHOENIX-917
p3897
aVPHOENIX-916
p3898
aVPHOENIX-915
p3899
aVPHOENIX-914
p3900
aVPHOENIX-913
p3901
aVPHOENIX-912
p3902
aVPHOENIX-911
p3903
aVPHOENIX-910
p3904
aVPHOENIX-909
p3905
aVPHOENIX-908
p3906
aVPHOENIX-907
p3907
aVPHOENIX-906
p3908
aVPHOENIX-905
p3909
aVPHOENIX-904
p3910
aVPHOENIX-903
p3911
aVPHOENIX-902
p3912
aVPHOENIX-901
p3913
aVPHOENIX-900
p3914
aVPHOENIX-899
p3915
aVPHOENIX-898
p3916
aVPHOENIX-897
p3917
aVPHOENIX-896
p3918
aVPHOENIX-895
p3919
aVPHOENIX-894
p3920
aVPHOENIX-893
p3921
aVPHOENIX-892
p3922
aVPHOENIX-891
p3923
aVPHOENIX-890
p3924
aVPHOENIX-889
p3925
aVPHOENIX-888
p3926
aVPHOENIX-887
p3927
aVPHOENIX-886
p3928
aVPHOENIX-885
p3929
aVPHOENIX-884
p3930
aVPHOENIX-883
p3931
aVPHOENIX-882
p3932
aVPHOENIX-881
p3933
aVPHOENIX-880
p3934
aVPHOENIX-879
p3935
aVPHOENIX-878
p3936
aVPHOENIX-877
p3937
aVPHOENIX-876
p3938
aVPHOENIX-875
p3939
aVPHOENIX-874
p3940
aVPHOENIX-873
p3941
aVPHOENIX-872
p3942
aVPHOENIX-871
p3943
aVPHOENIX-870
p3944
aVPHOENIX-869
p3945
aVPHOENIX-868
p3946
aVPHOENIX-867
p3947
aVPHOENIX-866
p3948
aVPHOENIX-865
p3949
aVPHOENIX-864
p3950
aVPHOENIX-863
p3951
aVPHOENIX-862
p3952
aVPHOENIX-861
p3953
aVPHOENIX-860
p3954
aVPHOENIX-859
p3955
aVPHOENIX-858
p3956
aVPHOENIX-857
p3957
aVPHOENIX-856
p3958
aVPHOENIX-855
p3959
aVPHOENIX-854
p3960
aVPHOENIX-853
p3961
aVPHOENIX-852
p3962
aVPHOENIX-851
p3963
aVPHOENIX-850
p3964
aVPHOENIX-849
p3965
aVPHOENIX-848
p3966
aVPHOENIX-847
p3967
aVPHOENIX-846
p3968
aVPHOENIX-845
p3969
aVPHOENIX-844
p3970
aVPHOENIX-843
p3971
aVPHOENIX-842
p3972
aVPHOENIX-841
p3973
aVPHOENIX-840
p3974
aVPHOENIX-839
p3975
aVPHOENIX-838
p3976
aVPHOENIX-837
p3977
aVPHOENIX-836
p3978
aVPHOENIX-835
p3979
aVPHOENIX-834
p3980
aVPHOENIX-833
p3981
aVPHOENIX-832
p3982
aVPHOENIX-831
p3983
aVPHOENIX-830
p3984
aVPHOENIX-829
p3985
aVPHOENIX-828
p3986
aVPHOENIX-827
p3987
aVPHOENIX-826
p3988
aVPHOENIX-825
p3989
aVPHOENIX-824
p3990
aVPHOENIX-823
p3991
aVPHOENIX-822
p3992
aVPHOENIX-821
p3993
aVPHOENIX-820
p3994
aVPHOENIX-819
p3995
aVPHOENIX-818
p3996
aVPHOENIX-817
p3997
aVPHOENIX-816
p3998
aVPHOENIX-815
p3999
aVPHOENIX-814
p4000
aVPHOENIX-813
p4001
aVPHOENIX-812
p4002
aVPHOENIX-811
p4003
aVPHOENIX-810
p4004
aVPHOENIX-809
p4005
aVPHOENIX-808
p4006
aVPHOENIX-807
p4007
aVPHOENIX-806
p4008
aVPHOENIX-805
p4009
aVPHOENIX-804
p4010
aVPHOENIX-803
p4011
aVPHOENIX-802
p4012
aVPHOENIX-801
p4013
aVPHOENIX-800
p4014
aVPHOENIX-799
p4015
aVPHOENIX-798
p4016
aVPHOENIX-797
p4017
aVPHOENIX-796
p4018
aVPHOENIX-795
p4019
aVPHOENIX-794
p4020
aVPHOENIX-793
p4021
aVPHOENIX-792
p4022
aVPHOENIX-791
p4023
aVPHOENIX-790
p4024
aVPHOENIX-789
p4025
aVPHOENIX-788
p4026
aVPHOENIX-787
p4027
aVPHOENIX-786
p4028
aVPHOENIX-785
p4029
aVPHOENIX-784
p4030
aVPHOENIX-783
p4031
aVPHOENIX-782
p4032
aVPHOENIX-781
p4033
aVPHOENIX-780
p4034
aVPHOENIX-779
p4035
aVPHOENIX-778
p4036
aVPHOENIX-777
p4037
aVPHOENIX-776
p4038
aVPHOENIX-775
p4039
aVPHOENIX-774
p4040
aVPHOENIX-773
p4041
aVPHOENIX-772
p4042
aVPHOENIX-771
p4043
aVPHOENIX-770
p4044
aVPHOENIX-769
p4045
aVPHOENIX-768
p4046
aVPHOENIX-767
p4047
aVPHOENIX-766
p4048
aVPHOENIX-765
p4049
aVPHOENIX-764
p4050
aVPHOENIX-763
p4051
aVPHOENIX-762
p4052
aVPHOENIX-761
p4053
aVPHOENIX-760
p4054
aVPHOENIX-759
p4055
aVPHOENIX-758
p4056
aVPHOENIX-757
p4057
aVPHOENIX-756
p4058
aVPHOENIX-755
p4059
aVPHOENIX-754
p4060
aVPHOENIX-753
p4061
aVPHOENIX-752
p4062
aVPHOENIX-751
p4063
aVPHOENIX-750
p4064
aVPHOENIX-749
p4065
aVPHOENIX-748
p4066
aVPHOENIX-747
p4067
aVPHOENIX-746
p4068
aVPHOENIX-745
p4069
aVPHOENIX-744
p4070
aVPHOENIX-743
p4071
aVPHOENIX-742
p4072
aVPHOENIX-741
p4073
aVPHOENIX-740
p4074
aVPHOENIX-739
p4075
aVPHOENIX-738
p4076
aVPHOENIX-737
p4077
aVPHOENIX-736
p4078
aVPHOENIX-735
p4079
aVPHOENIX-734
p4080
aVPHOENIX-733
p4081
aVPHOENIX-732
p4082
aVPHOENIX-731
p4083
aVPHOENIX-730
p4084
aVPHOENIX-729
p4085
aVPHOENIX-728
p4086
aVPHOENIX-727
p4087
aVPHOENIX-726
p4088
aVPHOENIX-725
p4089
aVPHOENIX-724
p4090
aVPHOENIX-723
p4091
aVPHOENIX-722
p4092
aVPHOENIX-721
p4093
aVPHOENIX-720
p4094
aVPHOENIX-719
p4095
aVPHOENIX-718
p4096
aVPHOENIX-717
p4097
aVPHOENIX-716
p4098
aVPHOENIX-715
p4099
aVPHOENIX-714
p4100
aVPHOENIX-713
p4101
aVPHOENIX-712
p4102
aVPHOENIX-711
p4103
aVPHOENIX-710
p4104
aVPHOENIX-709
p4105
aVPHOENIX-708
p4106
aVPHOENIX-707
p4107
aVPHOENIX-706
p4108
aVPHOENIX-705
p4109
aVPHOENIX-704
p4110
aVPHOENIX-703
p4111
aVPHOENIX-702
p4112
aVPHOENIX-701
p4113
aVPHOENIX-700
p4114
aVPHOENIX-699
p4115
aVPHOENIX-698
p4116
aVPHOENIX-697
p4117
aVPHOENIX-696
p4118
aVPHOENIX-695
p4119
aVPHOENIX-694
p4120
aVPHOENIX-693
p4121
aVPHOENIX-692
p4122
aVPHOENIX-691
p4123
aVPHOENIX-690
p4124
aVPHOENIX-689
p4125
aVPHOENIX-688
p4126
aVPHOENIX-687
p4127
aVPHOENIX-686
p4128
aVPHOENIX-685
p4129
aVPHOENIX-684
p4130
aVPHOENIX-683
p4131
aVPHOENIX-682
p4132
aVPHOENIX-681
p4133
aVPHOENIX-680
p4134
aVPHOENIX-679
p4135
aVPHOENIX-678
p4136
aVPHOENIX-677
p4137
aVPHOENIX-676
p4138
aVPHOENIX-675
p4139
aVPHOENIX-674
p4140
aVPHOENIX-673
p4141
aVPHOENIX-672
p4142
aVPHOENIX-671
p4143
aVPHOENIX-670
p4144
aVPHOENIX-669
p4145
aVPHOENIX-668
p4146
aVPHOENIX-667
p4147
aVPHOENIX-666
p4148
aVPHOENIX-665
p4149
aVPHOENIX-664
p4150
aVPHOENIX-663
p4151
aVPHOENIX-662
p4152
aVPHOENIX-661
p4153
aVPHOENIX-660
p4154
aVPHOENIX-659
p4155
aVPHOENIX-658
p4156
aVPHOENIX-657
p4157
aVPHOENIX-656
p4158
aVPHOENIX-655
p4159
aVPHOENIX-654
p4160
aVPHOENIX-653
p4161
aVPHOENIX-652
p4162
aVPHOENIX-651
p4163
aVPHOENIX-650
p4164
aVPHOENIX-649
p4165
aVPHOENIX-648
p4166
aVPHOENIX-647
p4167
aVPHOENIX-646
p4168
aVPHOENIX-645
p4169
aVPHOENIX-644
p4170
aVPHOENIX-643
p4171
aVPHOENIX-642
p4172
aVPHOENIX-641
p4173
aVPHOENIX-640
p4174
aVPHOENIX-639
p4175
aVPHOENIX-638
p4176
aVPHOENIX-637
p4177
aVPHOENIX-636
p4178
aVPHOENIX-635
p4179
aVPHOENIX-634
p4180
aVPHOENIX-633
p4181
aVPHOENIX-632
p4182
aVPHOENIX-631
p4183
aVPHOENIX-630
p4184
aVPHOENIX-629
p4185
aVPHOENIX-628
p4186
aVPHOENIX-627
p4187
aVPHOENIX-626
p4188
aVPHOENIX-625
p4189
aVPHOENIX-624
p4190
aVPHOENIX-623
p4191
aVPHOENIX-622
p4192
aVPHOENIX-621
p4193
aVPHOENIX-620
p4194
aVPHOENIX-619
p4195
aVPHOENIX-618
p4196
aVPHOENIX-617
p4197
aVPHOENIX-616
p4198
aVPHOENIX-615
p4199
aVPHOENIX-614
p4200
aVPHOENIX-613
p4201
aVPHOENIX-612
p4202
aVPHOENIX-611
p4203
aVPHOENIX-610
p4204
aVPHOENIX-609
p4205
aVPHOENIX-608
p4206
aVPHOENIX-607
p4207
aVPHOENIX-606
p4208
aVPHOENIX-605
p4209
aVPHOENIX-604
p4210
aVPHOENIX-603
p4211
aVPHOENIX-602
p4212
aVPHOENIX-601
p4213
aVPHOENIX-600
p4214
aVPHOENIX-599
p4215
aVPHOENIX-598
p4216
aVPHOENIX-597
p4217
aVPHOENIX-596
p4218
aVPHOENIX-595
p4219
aVPHOENIX-594
p4220
aVPHOENIX-593
p4221
aVPHOENIX-592
p4222
aVPHOENIX-591
p4223
aVPHOENIX-590
p4224
aVPHOENIX-589
p4225
aVPHOENIX-588
p4226
aVPHOENIX-587
p4227
aVPHOENIX-586
p4228
aVPHOENIX-585
p4229
aVPHOENIX-584
p4230
aVPHOENIX-583
p4231
aVPHOENIX-582
p4232
aVPHOENIX-581
p4233
aVPHOENIX-580
p4234
aVPHOENIX-579
p4235
aVPHOENIX-578
p4236
aVPHOENIX-577
p4237
aVPHOENIX-576
p4238
aVPHOENIX-575
p4239
aVPHOENIX-574
p4240
aVPHOENIX-573
p4241
aVPHOENIX-572
p4242
aVPHOENIX-571
p4243
aVPHOENIX-570
p4244
aVPHOENIX-569
p4245
aVPHOENIX-568
p4246
aVPHOENIX-567
p4247
aVPHOENIX-566
p4248
aVPHOENIX-565
p4249
aVPHOENIX-564
p4250
aVPHOENIX-563
p4251
aVPHOENIX-562
p4252
aVPHOENIX-561
p4253
aVPHOENIX-560
p4254
aVPHOENIX-559
p4255
aVPHOENIX-558
p4256
aVPHOENIX-557
p4257
aVPHOENIX-556
p4258
aVPHOENIX-555
p4259
aVPHOENIX-554
p4260
aVPHOENIX-553
p4261
aVPHOENIX-552
p4262
aVPHOENIX-551
p4263
aVPHOENIX-550
p4264
aVPHOENIX-549
p4265
aVPHOENIX-548
p4266
aVPHOENIX-547
p4267
aVPHOENIX-546
p4268
aVPHOENIX-545
p4269
aVPHOENIX-544
p4270
aVPHOENIX-543
p4271
aVPHOENIX-542
p4272
aVPHOENIX-541
p4273
aVPHOENIX-540
p4274
aVPHOENIX-539
p4275
aVPHOENIX-538
p4276
aVPHOENIX-537
p4277
aVPHOENIX-536
p4278
aVPHOENIX-535
p4279
aVPHOENIX-534
p4280
aVPHOENIX-533
p4281
aVPHOENIX-532
p4282
aVPHOENIX-531
p4283
aVPHOENIX-530
p4284
aVPHOENIX-529
p4285
aVPHOENIX-528
p4286
aVPHOENIX-527
p4287
aVPHOENIX-526
p4288
aVPHOENIX-525
p4289
aVPHOENIX-524
p4290
aVPHOENIX-523
p4291
aVPHOENIX-522
p4292
aVPHOENIX-521
p4293
aVPHOENIX-520
p4294
aVPHOENIX-519
p4295
aVPHOENIX-518
p4296
aVPHOENIX-517
p4297
aVPHOENIX-516
p4298
aVPHOENIX-515
p4299
aVPHOENIX-514
p4300
aVPHOENIX-513
p4301
aVPHOENIX-512
p4302
aVPHOENIX-511
p4303
aVPHOENIX-510
p4304
aVPHOENIX-509
p4305
aVPHOENIX-508
p4306
aVPHOENIX-507
p4307
aVPHOENIX-506
p4308
aVPHOENIX-505
p4309
aVPHOENIX-504
p4310
aVPHOENIX-503
p4311
aVPHOENIX-502
p4312
aVPHOENIX-501
p4313
aVPHOENIX-500
p4314
aVPHOENIX-499
p4315
aVPHOENIX-498
p4316
aVPHOENIX-497
p4317
aVPHOENIX-496
p4318
aVPHOENIX-495
p4319
aVPHOENIX-494
p4320
aVPHOENIX-493
p4321
aVPHOENIX-492
p4322
aVPHOENIX-491
p4323
aVPHOENIX-490
p4324
aVPHOENIX-489
p4325
aVPHOENIX-488
p4326
aVPHOENIX-487
p4327
aVPHOENIX-486
p4328
aVPHOENIX-485
p4329
aVPHOENIX-484
p4330
aVPHOENIX-483
p4331
aVPHOENIX-482
p4332
aVPHOENIX-481
p4333
aVPHOENIX-480
p4334
aVPHOENIX-479
p4335
aVPHOENIX-478
p4336
aVPHOENIX-477
p4337
aVPHOENIX-476
p4338
aVPHOENIX-475
p4339
aVPHOENIX-474
p4340
aVPHOENIX-473
p4341
aVPHOENIX-472
p4342
aVPHOENIX-471
p4343
aVPHOENIX-470
p4344
aVPHOENIX-469
p4345
aVPHOENIX-468
p4346
aVPHOENIX-467
p4347
aVPHOENIX-466
p4348
aVPHOENIX-465
p4349
aVPHOENIX-464
p4350
aVPHOENIX-463
p4351
aVPHOENIX-462
p4352
aVPHOENIX-461
p4353
aVPHOENIX-460
p4354
aVPHOENIX-459
p4355
aVPHOENIX-458
p4356
aVPHOENIX-457
p4357
aVPHOENIX-456
p4358
aVPHOENIX-455
p4359
aVPHOENIX-454
p4360
aVPHOENIX-453
p4361
aVPHOENIX-452
p4362
aVPHOENIX-451
p4363
aVPHOENIX-450
p4364
aVPHOENIX-449
p4365
aVPHOENIX-448
p4366
aVPHOENIX-447
p4367
aVPHOENIX-446
p4368
aVPHOENIX-445
p4369
aVPHOENIX-444
p4370
aVPHOENIX-443
p4371
aVPHOENIX-442
p4372
aVPHOENIX-441
p4373
aVPHOENIX-440
p4374
aVPHOENIX-439
p4375
aVPHOENIX-438
p4376
aVPHOENIX-437
p4377
aVPHOENIX-436
p4378
aVPHOENIX-435
p4379
aVPHOENIX-434
p4380
aVPHOENIX-433
p4381
aVPHOENIX-432
p4382
aVPHOENIX-431
p4383
aVPHOENIX-430
p4384
aVPHOENIX-429
p4385
aVPHOENIX-428
p4386
aVPHOENIX-427
p4387
aVPHOENIX-426
p4388
aVPHOENIX-425
p4389
aVPHOENIX-424
p4390
aVPHOENIX-423
p4391
aVPHOENIX-422
p4392
aVPHOENIX-421
p4393
aVPHOENIX-420
p4394
aVPHOENIX-419
p4395
aVPHOENIX-418
p4396
aVPHOENIX-417
p4397
aVPHOENIX-416
p4398
aVPHOENIX-415
p4399
aVPHOENIX-414
p4400
aVPHOENIX-413
p4401
aVPHOENIX-412
p4402
aVPHOENIX-411
p4403
aVPHOENIX-410
p4404
aVPHOENIX-409
p4405
aVPHOENIX-408
p4406
aVPHOENIX-407
p4407
aVPHOENIX-406
p4408
aVPHOENIX-405
p4409
aVPHOENIX-404
p4410
aVPHOENIX-403
p4411
aVPHOENIX-402
p4412
aVPHOENIX-401
p4413
aVPHOENIX-400
p4414
aVPHOENIX-399
p4415
aVPHOENIX-398
p4416
aVPHOENIX-397
p4417
aVPHOENIX-396
p4418
aVPHOENIX-395
p4419
aVPHOENIX-394
p4420
aVPHOENIX-393
p4421
aVPHOENIX-392
p4422
aVPHOENIX-391
p4423
aVPHOENIX-390
p4424
aVPHOENIX-389
p4425
aVPHOENIX-388
p4426
aVPHOENIX-387
p4427
aVPHOENIX-386
p4428
aVPHOENIX-385
p4429
aVPHOENIX-384
p4430
aVPHOENIX-383
p4431
aVPHOENIX-382
p4432
aVPHOENIX-381
p4433
aVPHOENIX-380
p4434
aVPHOENIX-379
p4435
aVPHOENIX-378
p4436
aVPHOENIX-377
p4437
aVPHOENIX-376
p4438
aVPHOENIX-375
p4439
aVPHOENIX-374
p4440
aVPHOENIX-373
p4441
aVPHOENIX-372
p4442
aVPHOENIX-371
p4443
aVPHOENIX-370
p4444
aVPHOENIX-369
p4445
aVPHOENIX-368
p4446
aVPHOENIX-367
p4447
aVPHOENIX-366
p4448
aVPHOENIX-365
p4449
aVPHOENIX-364
p4450
aVPHOENIX-363
p4451
aVPHOENIX-362
p4452
aVPHOENIX-361
p4453
aVPHOENIX-360
p4454
aVPHOENIX-359
p4455
aVPHOENIX-358
p4456
aVPHOENIX-357
p4457
aVPHOENIX-356
p4458
aVPHOENIX-355
p4459
aVPHOENIX-354
p4460
aVPHOENIX-353
p4461
aVPHOENIX-352
p4462
aVPHOENIX-351
p4463
aVPHOENIX-350
p4464
aVPHOENIX-349
p4465
aVPHOENIX-348
p4466
aVPHOENIX-347
p4467
aVPHOENIX-346
p4468
aVPHOENIX-345
p4469
aVPHOENIX-344
p4470
aVPHOENIX-343
p4471
aVPHOENIX-342
p4472
aVPHOENIX-341
p4473
aVPHOENIX-340
p4474
aVPHOENIX-339
p4475
aVPHOENIX-338
p4476
aVPHOENIX-337
p4477
aVPHOENIX-336
p4478
aVPHOENIX-335
p4479
aVPHOENIX-334
p4480
aVPHOENIX-333
p4481
aVPHOENIX-332
p4482
aVPHOENIX-331
p4483
aVPHOENIX-330
p4484
aVPHOENIX-329
p4485
aVPHOENIX-328
p4486
aVPHOENIX-327
p4487
aVPHOENIX-326
p4488
aVPHOENIX-325
p4489
aVPHOENIX-324
p4490
aVPHOENIX-323
p4491
aVPHOENIX-322
p4492
aVPHOENIX-321
p4493
aVPHOENIX-320
p4494
aVPHOENIX-319
p4495
aVPHOENIX-318
p4496
aVPHOENIX-317
p4497
aVPHOENIX-316
p4498
aVPHOENIX-315
p4499
aVPHOENIX-314
p4500
aVPHOENIX-313
p4501
aVPHOENIX-312
p4502
aVPHOENIX-311
p4503
aVPHOENIX-310
p4504
aVPHOENIX-309
p4505
aVPHOENIX-308
p4506
aVPHOENIX-307
p4507
aVPHOENIX-306
p4508
aVPHOENIX-305
p4509
aVPHOENIX-304
p4510
aVPHOENIX-303
p4511
aVPHOENIX-302
p4512
aVPHOENIX-301
p4513
aVPHOENIX-300
p4514
aVPHOENIX-299
p4515
aVPHOENIX-298
p4516
aVPHOENIX-297
p4517
aVPHOENIX-296
p4518
aVPHOENIX-295
p4519
aVPHOENIX-294
p4520
aVPHOENIX-293
p4521
aVPHOENIX-292
p4522
aVPHOENIX-291
p4523
aVPHOENIX-290
p4524
aVPHOENIX-289
p4525
aVPHOENIX-288
p4526
aVPHOENIX-287
p4527
aVPHOENIX-286
p4528
aVPHOENIX-285
p4529
aVPHOENIX-284
p4530
aVPHOENIX-283
p4531
aVPHOENIX-282
p4532
aVPHOENIX-281
p4533
aVPHOENIX-280
p4534
aVPHOENIX-279
p4535
aVPHOENIX-278
p4536
aVPHOENIX-277
p4537
aVPHOENIX-276
p4538
aVPHOENIX-275
p4539
aVPHOENIX-274
p4540
aVPHOENIX-273
p4541
aVPHOENIX-272
p4542
aVPHOENIX-271
p4543
aVPHOENIX-270
p4544
aVPHOENIX-269
p4545
aVPHOENIX-268
p4546
aVPHOENIX-267
p4547
aVPHOENIX-266
p4548
aVPHOENIX-265
p4549
aVPHOENIX-264
p4550
aVPHOENIX-263
p4551
aVPHOENIX-262
p4552
aVPHOENIX-261
p4553
aVPHOENIX-260
p4554
aVPHOENIX-259
p4555
aVPHOENIX-258
p4556
aVPHOENIX-257
p4557
aVPHOENIX-256
p4558
aVPHOENIX-255
p4559
aVPHOENIX-254
p4560
aVPHOENIX-253
p4561
aVPHOENIX-252
p4562
aVPHOENIX-251
p4563
aVPHOENIX-250
p4564
aVPHOENIX-249
p4565
aVPHOENIX-248
p4566
aVPHOENIX-247
p4567
aVPHOENIX-246
p4568
aVPHOENIX-245
p4569
aVPHOENIX-244
p4570
aVPHOENIX-243
p4571
aVPHOENIX-242
p4572
aVPHOENIX-241
p4573
aVPHOENIX-240
p4574
aVPHOENIX-239
p4575
aVPHOENIX-238
p4576
aVPHOENIX-237
p4577
aVPHOENIX-236
p4578
aVPHOENIX-235
p4579
aVPHOENIX-234
p4580
aVPHOENIX-233
p4581
aVPHOENIX-232
p4582
aVPHOENIX-231
p4583
aVPHOENIX-230
p4584
aVPHOENIX-229
p4585
aVPHOENIX-228
p4586
aVPHOENIX-227
p4587
aVPHOENIX-226
p4588
aVPHOENIX-225
p4589
aVPHOENIX-224
p4590
aVPHOENIX-223
p4591
aVPHOENIX-222
p4592
aVPHOENIX-221
p4593
aVPHOENIX-220
p4594
aVPHOENIX-219
p4595
aVPHOENIX-218
p4596
aVPHOENIX-217
p4597
aVPHOENIX-216
p4598
aVPHOENIX-215
p4599
aVPHOENIX-214
p4600
aVPHOENIX-213
p4601
aVPHOENIX-212
p4602
aVPHOENIX-211
p4603
aVPHOENIX-210
p4604
aVPHOENIX-209
p4605
aVPHOENIX-208
p4606
aVPHOENIX-207
p4607
aVPHOENIX-206
p4608
aVPHOENIX-205
p4609
aVPHOENIX-204
p4610
aVPHOENIX-203
p4611
aVPHOENIX-202
p4612
aVPHOENIX-201
p4613
aVPHOENIX-200
p4614
aVPHOENIX-199
p4615
aVPHOENIX-198
p4616
aVPHOENIX-197
p4617
aVPHOENIX-196
p4618
aVPHOENIX-195
p4619
aVPHOENIX-194
p4620
aVPHOENIX-193
p4621
aVPHOENIX-192
p4622
aVPHOENIX-191
p4623
aVPHOENIX-190
p4624
aVPHOENIX-189
p4625
aVPHOENIX-188
p4626
aVPHOENIX-187
p4627
aVPHOENIX-186
p4628
aVPHOENIX-185
p4629
aVPHOENIX-184
p4630
aVPHOENIX-183
p4631
aVPHOENIX-182
p4632
aVPHOENIX-181
p4633
aVPHOENIX-180
p4634
aVPHOENIX-179
p4635
aVPHOENIX-178
p4636
aVPHOENIX-177
p4637
aVPHOENIX-176
p4638
aVPHOENIX-175
p4639
aVPHOENIX-174
p4640
aVPHOENIX-173
p4641
aVPHOENIX-172
p4642
aVPHOENIX-171
p4643
aVPHOENIX-170
p4644
aVPHOENIX-169
p4645
aVPHOENIX-168
p4646
aVPHOENIX-167
p4647
aVPHOENIX-166
p4648
aVPHOENIX-165
p4649
aVPHOENIX-164
p4650
aVPHOENIX-163
p4651
aVPHOENIX-162
p4652
aVPHOENIX-161
p4653
aVPHOENIX-160
p4654
aVPHOENIX-159
p4655
aVPHOENIX-158
p4656
aVPHOENIX-157
p4657
aVPHOENIX-156
p4658
aVPHOENIX-155
p4659
aVPHOENIX-154
p4660
aVPHOENIX-153
p4661
aVPHOENIX-152
p4662
aVPHOENIX-151
p4663
aVPHOENIX-150
p4664
aVPHOENIX-149
p4665
aVPHOENIX-148
p4666
aVPHOENIX-147
p4667
aVPHOENIX-146
p4668
aVPHOENIX-145
p4669
aVPHOENIX-144
p4670
aVPHOENIX-143
p4671
aVPHOENIX-142
p4672
aVPHOENIX-141
p4673
aVPHOENIX-140
p4674
aVPHOENIX-139
p4675
aVPHOENIX-138
p4676
aVPHOENIX-137
p4677
aVPHOENIX-136
p4678
aVPHOENIX-135
p4679
aVPHOENIX-134
p4680
aVPHOENIX-133
p4681
aVPHOENIX-132
p4682
aVPHOENIX-131
p4683
aVPHOENIX-130
p4684
aVPHOENIX-129
p4685
aVPHOENIX-128
p4686
aVPHOENIX-127
p4687
aVPHOENIX-126
p4688
aVPHOENIX-125
p4689
aVPHOENIX-124
p4690
aVPHOENIX-123
p4691
aVPHOENIX-122
p4692
aVPHOENIX-121
p4693
aVPHOENIX-120
p4694
aVPHOENIX-119
p4695
aVPHOENIX-118
p4696
aVPHOENIX-117
p4697
aVPHOENIX-116
p4698
aVPHOENIX-115
p4699
aVPHOENIX-114
p4700
aVPHOENIX-113
p4701
aVPHOENIX-112
p4702
aVPHOENIX-111
p4703
aVPHOENIX-110
p4704
aVPHOENIX-109
p4705
aVPHOENIX-108
p4706
aVPHOENIX-107
p4707
aVPHOENIX-106
p4708
aVPHOENIX-105
p4709
aVPHOENIX-104
p4710
aVPHOENIX-103
p4711
aVPHOENIX-102
p4712
aVPHOENIX-101
p4713
aVPHOENIX-100
p4714
aVPHOENIX-99
p4715
aVPHOENIX-98
p4716
aVPHOENIX-97
p4717
aVPHOENIX-96
p4718
aVPHOENIX-95
p4719
aVPHOENIX-94
p4720
aVPHOENIX-93
p4721
aVPHOENIX-92
p4722
aVPHOENIX-91
p4723
aVPHOENIX-90
p4724
aVPHOENIX-89
p4725
aVPHOENIX-88
p4726
aVPHOENIX-87
p4727
aVPHOENIX-86
p4728
aVPHOENIX-85
p4729
aVPHOENIX-84
p4730
aVPHOENIX-83
p4731
aVPHOENIX-82
p4732
aVPHOENIX-81
p4733
aVPHOENIX-80
p4734
aVPHOENIX-79
p4735
aVPHOENIX-78
p4736
aVPHOENIX-77
p4737
aVPHOENIX-76
p4738
aVPHOENIX-75
p4739
aVPHOENIX-74
p4740
aVPHOENIX-73
p4741
aVPHOENIX-72
p4742
aVPHOENIX-71
p4743
aVPHOENIX-70
p4744
aVPHOENIX-69
p4745
aVPHOENIX-68
p4746
aVPHOENIX-67
p4747
aVPHOENIX-66
p4748
aVPHOENIX-65
p4749
aVPHOENIX-64
p4750
aVPHOENIX-63
p4751
aVPHOENIX-62
p4752
aVPHOENIX-61
p4753
aVPHOENIX-60
p4754
aVPHOENIX-59
p4755
aVPHOENIX-58
p4756
aVPHOENIX-57
p4757
aVPHOENIX-56
p4758
aVPHOENIX-55
p4759
aVPHOENIX-54
p4760
aVPHOENIX-53
p4761
aVPHOENIX-52
p4762
aVPHOENIX-51
p4763
aVPHOENIX-50
p4764
aVPHOENIX-49
p4765
aVPHOENIX-48
p4766
aVPHOENIX-47
p4767
aVPHOENIX-46
p4768
aVPHOENIX-45
p4769
aVPHOENIX-44
p4770
aVPHOENIX-43
p4771
aVPHOENIX-42
p4772
aVPHOENIX-41
p4773
aVPHOENIX-40
p4774
aVPHOENIX-39
p4775
aVPHOENIX-38
p4776
aVPHOENIX-37
p4777
aVPHOENIX-36
p4778
aVPHOENIX-35
p4779
aVPHOENIX-34
p4780
aVPHOENIX-33
p4781
aVPHOENIX-32
p4782
aVPHOENIX-31
p4783
aVPHOENIX-30
p4784
aVPHOENIX-29
p4785
aVPHOENIX-28
p4786
aVPHOENIX-27
p4787
aVPHOENIX-26
p4788
aVPHOENIX-25
p4789
aVPHOENIX-24
p4790
aVPHOENIX-23
p4791
aVPHOENIX-22
p4792
aVPHOENIX-21
p4793
aVPHOENIX-20
p4794
aVPHOENIX-19
p4795
aVPHOENIX-18
p4796
aVPHOENIX-17
p4797
aVPHOENIX-16
p4798
aVPHOENIX-15
p4799
aVPHOENIX-14
p4800
aVPHOENIX-13
p4801
aVPHOENIX-12
p4802
aVPHOENIX-11
p4803
aVPHOENIX-10
p4804
aVPHOENIX-9
p4805
aVPHOENIX-8
p4806
aVPHOENIX-7
p4807
aVPHOENIX-6
p4808
aVPHOENIX-5
p4809
aVPHOENIX-4
p4810
aVPHOENIX-3
p4811
aVPHOENIX-2
p4812
aVPHOENIX-1
p4813
a.