(lp0
VPIVOT-1039
p1
aVPIVOT-1038
p2
aVPIVOT-1037
p3
aVPIVOT-1036
p4
aVPIVOT-1035
p5
aVPIVOT-1034
p6
aVPIVOT-1033
p7
aVPIVOT-1032
p8
aVPIVOT-1031
p9
aVPIVOT-1030
p10
aVPIVOT-1029
p11
aVPIVOT-1028
p12
aVPIVOT-1027
p13
aVPIVOT-1026
p14
aVPIVOT-1025
p15
aVPIVOT-1024
p16
aVPIVOT-1023
p17
aVPIVOT-1022
p18
aVPIVOT-1021
p19
aVPIVOT-1020
p20
aVPIVOT-1019
p21
aVPIVOT-1018
p22
aVPIVOT-1017
p23
aVPIVOT-1016
p24
aVPIVOT-1015
p25
aVPIVOT-1014
p26
aVPIVOT-1013
p27
aVPIVOT-1012
p28
aVPIVOT-1011
p29
aVPIVOT-1010
p30
aVPIVOT-1009
p31
aVPIVOT-1008
p32
aVPIVOT-1007
p33
aVPIVOT-1006
p34
aVPIVOT-1005
p35
aVPIVOT-1004
p36
aVPIVOT-1003
p37
aVPIVOT-1002
p38
aVPIVOT-1001
p39
aVPIVOT-1000
p40
aVPIVOT-999
p41
aVPIVOT-998
p42
aVPIVOT-997
p43
aVPIVOT-996
p44
aVPIVOT-995
p45
aVPIVOT-994
p46
aVPIVOT-993
p47
aVPIVOT-992
p48
aVPIVOT-991
p49
aVPIVOT-990
p50
aVPIVOT-989
p51
aVPIVOT-988
p52
aVPIVOT-987
p53
aVPIVOT-986
p54
aVPIVOT-985
p55
aVPIVOT-984
p56
aVPIVOT-983
p57
aVPIVOT-982
p58
aVPIVOT-981
p59
aVPIVOT-980
p60
aVPIVOT-979
p61
aVPIVOT-978
p62
aVPIVOT-977
p63
aVPIVOT-976
p64
aVPIVOT-975
p65
aVPIVOT-974
p66
aVPIVOT-973
p67
aVPIVOT-972
p68
aVPIVOT-971
p69
aVPIVOT-970
p70
aVPIVOT-969
p71
aVPIVOT-968
p72
aVPIVOT-967
p73
aVPIVOT-966
p74
aVPIVOT-965
p75
aVPIVOT-964
p76
aVPIVOT-963
p77
aVPIVOT-962
p78
aVPIVOT-961
p79
aVPIVOT-960
p80
aVPIVOT-959
p81
aVPIVOT-958
p82
aVPIVOT-957
p83
aVPIVOT-956
p84
aVPIVOT-955
p85
aVPIVOT-954
p86
aVPIVOT-953
p87
aVPIVOT-952
p88
aVPIVOT-951
p89
aVPIVOT-950
p90
aVPIVOT-949
p91
aVPIVOT-948
p92
aVPIVOT-947
p93
aVPIVOT-946
p94
aVPIVOT-945
p95
aVPIVOT-944
p96
aVPIVOT-943
p97
aVPIVOT-942
p98
aVPIVOT-941
p99
aVPIVOT-940
p100
aVPIVOT-939
p101
aVPIVOT-938
p102
aVPIVOT-937
p103
aVPIVOT-936
p104
aVPIVOT-935
p105
aVPIVOT-934
p106
aVPIVOT-933
p107
aVPIVOT-932
p108
aVPIVOT-931
p109
aVPIVOT-930
p110
aVPIVOT-929
p111
aVPIVOT-928
p112
aVPIVOT-927
p113
aVPIVOT-926
p114
aVPIVOT-925
p115
aVPIVOT-924
p116
aVPIVOT-923
p117
aVPIVOT-922
p118
aVPIVOT-921
p119
aVPIVOT-920
p120
aVPIVOT-919
p121
aVPIVOT-918
p122
aVPIVOT-917
p123
aVPIVOT-916
p124
aVPIVOT-915
p125
aVPIVOT-914
p126
aVPIVOT-913
p127
aVPIVOT-912
p128
aVPIVOT-911
p129
aVPIVOT-910
p130
aVPIVOT-909
p131
aVPIVOT-908
p132
aVPIVOT-907
p133
aVPIVOT-906
p134
aVPIVOT-905
p135
aVPIVOT-904
p136
aVPIVOT-903
p137
aVPIVOT-902
p138
aVPIVOT-901
p139
aVPIVOT-900
p140
aVPIVOT-899
p141
aVPIVOT-898
p142
aVPIVOT-897
p143
aVPIVOT-896
p144
aVPIVOT-895
p145
aVPIVOT-894
p146
aVPIVOT-893
p147
aVPIVOT-892
p148
aVPIVOT-891
p149
aVPIVOT-890
p150
aVPIVOT-889
p151
aVPIVOT-888
p152
aVPIVOT-887
p153
aVPIVOT-886
p154
aVPIVOT-885
p155
aVPIVOT-884
p156
aVPIVOT-883
p157
aVPIVOT-882
p158
aVPIVOT-881
p159
aVPIVOT-880
p160
aVPIVOT-879
p161
aVPIVOT-878
p162
aVPIVOT-877
p163
aVPIVOT-876
p164
aVPIVOT-875
p165
aVPIVOT-874
p166
aVPIVOT-873
p167
aVPIVOT-872
p168
aVPIVOT-871
p169
aVPIVOT-870
p170
aVPIVOT-868
p171
aVPIVOT-867
p172
aVPIVOT-866
p173
aVPIVOT-865
p174
aVPIVOT-864
p175
aVPIVOT-863
p176
aVPIVOT-862
p177
aVPIVOT-861
p178
aVPIVOT-860
p179
aVPIVOT-859
p180
aVPIVOT-858
p181
aVPIVOT-857
p182
aVPIVOT-856
p183
aVPIVOT-855
p184
aVPIVOT-854
p185
aVPIVOT-853
p186
aVPIVOT-852
p187
aVPIVOT-851
p188
aVPIVOT-850
p189
aVPIVOT-849
p190
aVPIVOT-848
p191
aVPIVOT-847
p192
aVPIVOT-846
p193
aVPIVOT-845
p194
aVPIVOT-844
p195
aVPIVOT-843
p196
aVPIVOT-842
p197
aVPIVOT-841
p198
aVPIVOT-840
p199
aVPIVOT-839
p200
aVPIVOT-838
p201
aVPIVOT-837
p202
aVPIVOT-836
p203
aVPIVOT-835
p204
aVPIVOT-834
p205
aVPIVOT-833
p206
aVPIVOT-832
p207
aVPIVOT-831
p208
aVPIVOT-830
p209
aVPIVOT-829
p210
aVPIVOT-828
p211
aVPIVOT-827
p212
aVPIVOT-826
p213
aVPIVOT-825
p214
aVPIVOT-824
p215
aVPIVOT-823
p216
aVPIVOT-822
p217
aVPIVOT-821
p218
aVPIVOT-820
p219
aVPIVOT-819
p220
aVPIVOT-818
p221
aVPIVOT-817
p222
aVPIVOT-816
p223
aVPIVOT-815
p224
aVPIVOT-814
p225
aVPIVOT-813
p226
aVPIVOT-812
p227
aVPIVOT-811
p228
aVPIVOT-810
p229
aVPIVOT-809
p230
aVPIVOT-808
p231
aVPIVOT-807
p232
aVPIVOT-806
p233
aVPIVOT-805
p234
aVPIVOT-804
p235
aVPIVOT-803
p236
aVPIVOT-802
p237
aVPIVOT-801
p238
aVPIVOT-800
p239
aVPIVOT-799
p240
aVPIVOT-798
p241
aVPIVOT-797
p242
aVPIVOT-796
p243
aVPIVOT-795
p244
aVPIVOT-794
p245
aVPIVOT-793
p246
aVPIVOT-792
p247
aVPIVOT-791
p248
aVPIVOT-790
p249
aVPIVOT-789
p250
aVPIVOT-788
p251
aVPIVOT-787
p252
aVPIVOT-786
p253
aVPIVOT-785
p254
aVPIVOT-784
p255
aVPIVOT-783
p256
aVPIVOT-782
p257
aVPIVOT-781
p258
aVPIVOT-780
p259
aVPIVOT-779
p260
aVPIVOT-778
p261
aVPIVOT-777
p262
aVPIVOT-776
p263
aVPIVOT-775
p264
aVPIVOT-774
p265
aVPIVOT-773
p266
aVPIVOT-772
p267
aVPIVOT-771
p268
aVPIVOT-770
p269
aVPIVOT-769
p270
aVPIVOT-768
p271
aVPIVOT-767
p272
aVPIVOT-766
p273
aVPIVOT-765
p274
aVPIVOT-764
p275
aVPIVOT-763
p276
aVPIVOT-762
p277
aVPIVOT-761
p278
aVPIVOT-760
p279
aVPIVOT-759
p280
aVPIVOT-758
p281
aVPIVOT-757
p282
aVPIVOT-756
p283
aVPIVOT-755
p284
aVPIVOT-754
p285
aVPIVOT-753
p286
aVPIVOT-752
p287
aVPIVOT-751
p288
aVPIVOT-750
p289
aVPIVOT-749
p290
aVPIVOT-748
p291
aVPIVOT-747
p292
aVPIVOT-746
p293
aVPIVOT-745
p294
aVPIVOT-744
p295
aVPIVOT-743
p296
aVPIVOT-742
p297
aVPIVOT-741
p298
aVPIVOT-740
p299
aVPIVOT-739
p300
aVPIVOT-738
p301
aVPIVOT-737
p302
aVPIVOT-736
p303
aVPIVOT-735
p304
aVPIVOT-734
p305
aVPIVOT-733
p306
aVPIVOT-732
p307
aVPIVOT-731
p308
aVPIVOT-730
p309
aVPIVOT-729
p310
aVPIVOT-728
p311
aVPIVOT-727
p312
aVPIVOT-726
p313
aVPIVOT-725
p314
aVPIVOT-724
p315
aVPIVOT-723
p316
aVPIVOT-722
p317
aVPIVOT-721
p318
aVPIVOT-720
p319
aVPIVOT-719
p320
aVPIVOT-718
p321
aVPIVOT-717
p322
aVPIVOT-716
p323
aVPIVOT-715
p324
aVPIVOT-714
p325
aVPIVOT-713
p326
aVPIVOT-712
p327
aVPIVOT-711
p328
aVPIVOT-710
p329
aVPIVOT-709
p330
aVPIVOT-708
p331
aVPIVOT-707
p332
aVPIVOT-706
p333
aVPIVOT-705
p334
aVPIVOT-704
p335
aVPIVOT-703
p336
aVPIVOT-702
p337
aVPIVOT-701
p338
aVPIVOT-700
p339
aVPIVOT-699
p340
aVPIVOT-698
p341
aVPIVOT-697
p342
aVPIVOT-696
p343
aVPIVOT-695
p344
aVPIVOT-694
p345
aVPIVOT-693
p346
aVPIVOT-692
p347
aVPIVOT-691
p348
aVPIVOT-690
p349
aVPIVOT-689
p350
aVPIVOT-688
p351
aVPIVOT-687
p352
aVPIVOT-686
p353
aVPIVOT-685
p354
aVPIVOT-684
p355
aVPIVOT-683
p356
aVPIVOT-682
p357
aVPIVOT-681
p358
aVPIVOT-680
p359
aVPIVOT-679
p360
aVPIVOT-678
p361
aVPIVOT-677
p362
aVPIVOT-676
p363
aVPIVOT-675
p364
aVPIVOT-674
p365
aVPIVOT-673
p366
aVPIVOT-672
p367
aVPIVOT-671
p368
aVPIVOT-670
p369
aVPIVOT-669
p370
aVPIVOT-668
p371
aVPIVOT-667
p372
aVPIVOT-666
p373
aVPIVOT-665
p374
aVPIVOT-664
p375
aVPIVOT-663
p376
aVPIVOT-662
p377
aVPIVOT-661
p378
aVPIVOT-660
p379
aVPIVOT-659
p380
aVPIVOT-658
p381
aVPIVOT-657
p382
aVPIVOT-656
p383
aVPIVOT-655
p384
aVPIVOT-654
p385
aVPIVOT-653
p386
aVPIVOT-652
p387
aVPIVOT-651
p388
aVPIVOT-650
p389
aVPIVOT-649
p390
aVPIVOT-648
p391
aVPIVOT-647
p392
aVPIVOT-646
p393
aVPIVOT-645
p394
aVPIVOT-644
p395
aVPIVOT-643
p396
aVPIVOT-642
p397
aVPIVOT-641
p398
aVPIVOT-640
p399
aVPIVOT-639
p400
aVPIVOT-638
p401
aVPIVOT-637
p402
aVPIVOT-636
p403
aVPIVOT-635
p404
aVPIVOT-634
p405
aVPIVOT-633
p406
aVPIVOT-632
p407
aVPIVOT-631
p408
aVPIVOT-630
p409
aVPIVOT-629
p410
aVPIVOT-628
p411
aVPIVOT-627
p412
aVPIVOT-626
p413
aVPIVOT-625
p414
aVPIVOT-624
p415
aVPIVOT-623
p416
aVPIVOT-622
p417
aVPIVOT-621
p418
aVPIVOT-620
p419
aVPIVOT-619
p420
aVPIVOT-618
p421
aVPIVOT-617
p422
aVPIVOT-616
p423
aVPIVOT-615
p424
aVPIVOT-614
p425
aVPIVOT-613
p426
aVPIVOT-612
p427
aVPIVOT-611
p428
aVPIVOT-610
p429
aVPIVOT-609
p430
aVPIVOT-608
p431
aVPIVOT-607
p432
aVPIVOT-606
p433
aVPIVOT-605
p434
aVPIVOT-604
p435
aVPIVOT-602
p436
aVPIVOT-601
p437
aVPIVOT-599
p438
aVPIVOT-598
p439
aVPIVOT-597
p440
aVPIVOT-596
p441
aVPIVOT-595
p442
aVPIVOT-593
p443
aVPIVOT-592
p444
aVPIVOT-591
p445
aVPIVOT-590
p446
aVPIVOT-589
p447
aVPIVOT-588
p448
aVPIVOT-587
p449
aVPIVOT-586
p450
aVPIVOT-585
p451
aVPIVOT-584
p452
aVPIVOT-583
p453
aVPIVOT-582
p454
aVPIVOT-581
p455
aVPIVOT-580
p456
aVPIVOT-579
p457
aVPIVOT-578
p458
aVPIVOT-577
p459
aVPIVOT-576
p460
aVPIVOT-574
p461
aVPIVOT-573
p462
aVPIVOT-572
p463
aVPIVOT-571
p464
aVPIVOT-570
p465
aVPIVOT-569
p466
aVPIVOT-568
p467
aVPIVOT-567
p468
aVPIVOT-566
p469
aVPIVOT-565
p470
aVPIVOT-564
p471
aVPIVOT-563
p472
aVPIVOT-562
p473
aVPIVOT-561
p474
aVPIVOT-560
p475
aVPIVOT-559
p476
aVPIVOT-558
p477
aVPIVOT-557
p478
aVPIVOT-556
p479
aVPIVOT-555
p480
aVPIVOT-554
p481
aVPIVOT-553
p482
aVPIVOT-552
p483
aVPIVOT-551
p484
aVPIVOT-550
p485
aVPIVOT-549
p486
aVPIVOT-548
p487
aVPIVOT-547
p488
aVPIVOT-546
p489
aVPIVOT-545
p490
aVPIVOT-544
p491
aVPIVOT-543
p492
aVPIVOT-542
p493
aVPIVOT-541
p494
aVPIVOT-540
p495
aVPIVOT-539
p496
aVPIVOT-538
p497
aVPIVOT-537
p498
aVPIVOT-536
p499
aVPIVOT-535
p500
aVPIVOT-534
p501
aVPIVOT-533
p502
aVPIVOT-532
p503
aVPIVOT-531
p504
aVPIVOT-530
p505
aVPIVOT-529
p506
aVPIVOT-528
p507
aVPIVOT-527
p508
aVPIVOT-526
p509
aVPIVOT-525
p510
aVPIVOT-524
p511
aVPIVOT-523
p512
aVPIVOT-522
p513
aVPIVOT-521
p514
aVPIVOT-520
p515
aVPIVOT-519
p516
aVPIVOT-518
p517
aVPIVOT-517
p518
aVPIVOT-516
p519
aVPIVOT-515
p520
aVPIVOT-514
p521
aVPIVOT-513
p522
aVPIVOT-512
p523
aVPIVOT-511
p524
aVPIVOT-510
p525
aVPIVOT-509
p526
aVPIVOT-508
p527
aVPIVOT-507
p528
aVPIVOT-506
p529
aVPIVOT-505
p530
aVPIVOT-504
p531
aVPIVOT-503
p532
aVPIVOT-502
p533
aVPIVOT-501
p534
aVPIVOT-500
p535
aVPIVOT-499
p536
aVPIVOT-498
p537
aVPIVOT-497
p538
aVPIVOT-496
p539
aVPIVOT-495
p540
aVPIVOT-493
p541
aVPIVOT-492
p542
aVPIVOT-491
p543
aVPIVOT-490
p544
aVPIVOT-489
p545
aVPIVOT-488
p546
aVPIVOT-487
p547
aVPIVOT-486
p548
aVPIVOT-485
p549
aVPIVOT-484
p550
aVPIVOT-483
p551
aVPIVOT-482
p552
aVPIVOT-481
p553
aVPIVOT-480
p554
aVPIVOT-479
p555
aVPIVOT-477
p556
aVPIVOT-476
p557
aVPIVOT-475
p558
aVPIVOT-474
p559
aVPIVOT-473
p560
aVPIVOT-472
p561
aVPIVOT-471
p562
aVPIVOT-470
p563
aVPIVOT-469
p564
aVPIVOT-468
p565
aVPIVOT-467
p566
aVPIVOT-466
p567
aVPIVOT-465
p568
aVPIVOT-464
p569
aVPIVOT-463
p570
aVPIVOT-462
p571
aVPIVOT-461
p572
aVPIVOT-460
p573
aVPIVOT-459
p574
aVPIVOT-458
p575
aVPIVOT-456
p576
aVPIVOT-455
p577
aVPIVOT-454
p578
aVPIVOT-451
p579
aVPIVOT-450
p580
aVPIVOT-449
p581
aVPIVOT-448
p582
aVPIVOT-447
p583
aVPIVOT-446
p584
aVPIVOT-445
p585
aVPIVOT-444
p586
aVPIVOT-443
p587
aVPIVOT-442
p588
aVPIVOT-441
p589
aVPIVOT-439
p590
aVPIVOT-438
p591
aVPIVOT-437
p592
aVPIVOT-436
p593
aVPIVOT-435
p594
aVPIVOT-434
p595
aVPIVOT-433
p596
aVPIVOT-432
p597
aVPIVOT-431
p598
aVPIVOT-429
p599
aVPIVOT-428
p600
aVPIVOT-427
p601
aVPIVOT-426
p602
aVPIVOT-425
p603
aVPIVOT-424
p604
aVPIVOT-421
p605
aVPIVOT-420
p606
aVPIVOT-419
p607
aVPIVOT-418
p608
aVPIVOT-417
p609
aVPIVOT-416
p610
aVPIVOT-415
p611
aVPIVOT-414
p612
aVPIVOT-413
p613
aVPIVOT-412
p614
aVPIVOT-411
p615
aVPIVOT-410
p616
aVPIVOT-409
p617
aVPIVOT-408
p618
aVPIVOT-407
p619
aVPIVOT-406
p620
aVPIVOT-405
p621
aVPIVOT-404
p622
aVPIVOT-403
p623
aVPIVOT-402
p624
aVPIVOT-401
p625
aVPIVOT-400
p626
aVPIVOT-399
p627
aVPIVOT-398
p628
aVPIVOT-397
p629
aVPIVOT-396
p630
aVPIVOT-395
p631
aVPIVOT-394
p632
aVPIVOT-393
p633
aVPIVOT-392
p634
aVPIVOT-391
p635
aVPIVOT-390
p636
aVPIVOT-389
p637
aVPIVOT-388
p638
aVPIVOT-387
p639
aVPIVOT-386
p640
aVPIVOT-385
p641
aVPIVOT-384
p642
aVPIVOT-383
p643
aVPIVOT-382
p644
aVPIVOT-381
p645
aVPIVOT-380
p646
aVPIVOT-379
p647
aVPIVOT-378
p648
aVPIVOT-377
p649
aVPIVOT-376
p650
aVPIVOT-375
p651
aVPIVOT-374
p652
aVPIVOT-373
p653
aVPIVOT-372
p654
aVPIVOT-371
p655
aVPIVOT-370
p656
aVPIVOT-369
p657
aVPIVOT-368
p658
aVPIVOT-367
p659
aVPIVOT-366
p660
aVPIVOT-365
p661
aVPIVOT-364
p662
aVPIVOT-363
p663
aVPIVOT-362
p664
aVPIVOT-361
p665
aVPIVOT-359
p666
aVPIVOT-358
p667
aVPIVOT-356
p668
aVPIVOT-355
p669
aVPIVOT-353
p670
aVPIVOT-352
p671
aVPIVOT-351
p672
aVPIVOT-350
p673
aVPIVOT-349
p674
aVPIVOT-348
p675
aVPIVOT-347
p676
aVPIVOT-346
p677
aVPIVOT-345
p678
aVPIVOT-344
p679
aVPIVOT-343
p680
aVPIVOT-342
p681
aVPIVOT-341
p682
aVPIVOT-340
p683
aVPIVOT-339
p684
aVPIVOT-338
p685
aVPIVOT-337
p686
aVPIVOT-336
p687
aVPIVOT-335
p688
aVPIVOT-334
p689
aVPIVOT-333
p690
aVPIVOT-331
p691
aVPIVOT-330
p692
aVPIVOT-329
p693
aVPIVOT-328
p694
aVPIVOT-327
p695
aVPIVOT-326
p696
aVPIVOT-325
p697
aVPIVOT-324
p698
aVPIVOT-323
p699
aVPIVOT-322
p700
aVPIVOT-321
p701
aVPIVOT-320
p702
aVPIVOT-319
p703
aVPIVOT-318
p704
aVPIVOT-317
p705
aVPIVOT-316
p706
aVPIVOT-315
p707
aVPIVOT-314
p708
aVPIVOT-313
p709
aVPIVOT-312
p710
aVPIVOT-311
p711
aVPIVOT-310
p712
aVPIVOT-309
p713
aVPIVOT-308
p714
aVPIVOT-307
p715
aVPIVOT-306
p716
aVPIVOT-305
p717
aVPIVOT-304
p718
aVPIVOT-303
p719
aVPIVOT-302
p720
aVPIVOT-301
p721
aVPIVOT-300
p722
aVPIVOT-299
p723
aVPIVOT-298
p724
aVPIVOT-297
p725
aVPIVOT-296
p726
aVPIVOT-295
p727
aVPIVOT-294
p728
aVPIVOT-292
p729
aVPIVOT-291
p730
aVPIVOT-290
p731
aVPIVOT-289
p732
aVPIVOT-288
p733
aVPIVOT-287
p734
aVPIVOT-286
p735
aVPIVOT-285
p736
aVPIVOT-284
p737
aVPIVOT-283
p738
aVPIVOT-282
p739
aVPIVOT-281
p740
aVPIVOT-280
p741
aVPIVOT-279
p742
aVPIVOT-278
p743
aVPIVOT-277
p744
aVPIVOT-276
p745
aVPIVOT-275
p746
aVPIVOT-274
p747
aVPIVOT-273
p748
aVPIVOT-272
p749
aVPIVOT-271
p750
aVPIVOT-270
p751
aVPIVOT-269
p752
aVPIVOT-268
p753
aVPIVOT-267
p754
aVPIVOT-266
p755
aVPIVOT-265
p756
aVPIVOT-264
p757
aVPIVOT-263
p758
aVPIVOT-262
p759
aVPIVOT-261
p760
aVPIVOT-260
p761
aVPIVOT-259
p762
aVPIVOT-258
p763
aVPIVOT-257
p764
aVPIVOT-256
p765
aVPIVOT-255
p766
aVPIVOT-254
p767
aVPIVOT-253
p768
aVPIVOT-252
p769
aVPIVOT-251
p770
aVPIVOT-250
p771
aVPIVOT-249
p772
aVPIVOT-248
p773
aVPIVOT-247
p774
aVPIVOT-246
p775
aVPIVOT-245
p776
aVPIVOT-244
p777
aVPIVOT-243
p778
aVPIVOT-242
p779
aVPIVOT-241
p780
aVPIVOT-240
p781
aVPIVOT-239
p782
aVPIVOT-238
p783
aVPIVOT-237
p784
aVPIVOT-236
p785
aVPIVOT-235
p786
aVPIVOT-234
p787
aVPIVOT-233
p788
aVPIVOT-232
p789
aVPIVOT-231
p790
aVPIVOT-230
p791
aVPIVOT-229
p792
aVPIVOT-228
p793
aVPIVOT-227
p794
aVPIVOT-226
p795
aVPIVOT-225
p796
aVPIVOT-224
p797
aVPIVOT-223
p798
aVPIVOT-222
p799
aVPIVOT-221
p800
aVPIVOT-220
p801
aVPIVOT-219
p802
aVPIVOT-218
p803
aVPIVOT-217
p804
aVPIVOT-216
p805
aVPIVOT-215
p806
aVPIVOT-214
p807
aVPIVOT-213
p808
aVPIVOT-212
p809
aVPIVOT-211
p810
aVPIVOT-210
p811
aVPIVOT-209
p812
aVPIVOT-208
p813
aVPIVOT-207
p814
aVPIVOT-206
p815
aVPIVOT-205
p816
aVPIVOT-204
p817
aVPIVOT-203
p818
aVPIVOT-202
p819
aVPIVOT-201
p820
aVPIVOT-200
p821
aVPIVOT-199
p822
aVPIVOT-198
p823
aVPIVOT-197
p824
aVPIVOT-196
p825
aVPIVOT-195
p826
aVPIVOT-194
p827
aVPIVOT-193
p828
aVPIVOT-192
p829
aVPIVOT-191
p830
aVPIVOT-190
p831
aVPIVOT-189
p832
aVPIVOT-188
p833
aVPIVOT-187
p834
aVPIVOT-186
p835
aVPIVOT-184
p836
aVPIVOT-183
p837
aVPIVOT-182
p838
aVPIVOT-181
p839
aVPIVOT-180
p840
aVPIVOT-179
p841
aVPIVOT-178
p842
aVPIVOT-177
p843
aVPIVOT-176
p844
aVPIVOT-175
p845
aVPIVOT-174
p846
aVPIVOT-173
p847
aVPIVOT-172
p848
aVPIVOT-169
p849
aVPIVOT-168
p850
aVPIVOT-167
p851
aVPIVOT-166
p852
aVPIVOT-165
p853
aVPIVOT-164
p854
aVPIVOT-163
p855
aVPIVOT-162
p856
aVPIVOT-161
p857
aVPIVOT-160
p858
aVPIVOT-159
p859
aVPIVOT-158
p860
aVPIVOT-157
p861
aVPIVOT-156
p862
aVPIVOT-155
p863
aVPIVOT-154
p864
aVPIVOT-153
p865
aVPIVOT-152
p866
aVPIVOT-151
p867
aVPIVOT-150
p868
aVPIVOT-149
p869
aVPIVOT-148
p870
aVPIVOT-147
p871
aVPIVOT-146
p872
aVPIVOT-145
p873
aVPIVOT-144
p874
aVPIVOT-143
p875
aVPIVOT-142
p876
aVPIVOT-141
p877
aVPIVOT-140
p878
aVPIVOT-139
p879
aVPIVOT-138
p880
aVPIVOT-137
p881
aVPIVOT-136
p882
aVPIVOT-135
p883
aVPIVOT-134
p884
aVPIVOT-133
p885
aVPIVOT-132
p886
aVPIVOT-131
p887
aVPIVOT-130
p888
aVPIVOT-129
p889
aVPIVOT-128
p890
aVPIVOT-127
p891
aVPIVOT-126
p892
aVPIVOT-125
p893
aVPIVOT-124
p894
aVPIVOT-123
p895
aVPIVOT-122
p896
aVPIVOT-121
p897
aVPIVOT-120
p898
aVPIVOT-119
p899
aVPIVOT-118
p900
aVPIVOT-117
p901
aVPIVOT-116
p902
aVPIVOT-115
p903
aVPIVOT-114
p904
aVPIVOT-113
p905
aVPIVOT-112
p906
aVPIVOT-111
p907
aVPIVOT-109
p908
aVPIVOT-108
p909
aVPIVOT-107
p910
aVPIVOT-106
p911
aVPIVOT-105
p912
aVPIVOT-104
p913
aVPIVOT-103
p914
aVPIVOT-102
p915
aVPIVOT-101
p916
aVPIVOT-100
p917
aVPIVOT-99
p918
aVPIVOT-98
p919
aVPIVOT-97
p920
aVPIVOT-96
p921
aVPIVOT-95
p922
aVPIVOT-94
p923
aVPIVOT-93
p924
aVPIVOT-92
p925
aVPIVOT-91
p926
aVPIVOT-90
p927
aVPIVOT-89
p928
aVPIVOT-88
p929
aVPIVOT-86
p930
aVPIVOT-85
p931
aVPIVOT-84
p932
aVPIVOT-83
p933
aVPIVOT-82
p934
aVPIVOT-81
p935
aVPIVOT-80
p936
aVPIVOT-79
p937
aVPIVOT-78
p938
aVPIVOT-77
p939
aVPIVOT-76
p940
aVPIVOT-75
p941
aVPIVOT-74
p942
aVPIVOT-73
p943
aVPIVOT-72
p944
aVPIVOT-71
p945
aVPIVOT-70
p946
aVPIVOT-69
p947
aVPIVOT-68
p948
aVPIVOT-67
p949
aVPIVOT-66
p950
aVPIVOT-65
p951
aVPIVOT-64
p952
aVPIVOT-63
p953
aVPIVOT-62
p954
aVPIVOT-61
p955
aVPIVOT-60
p956
aVPIVOT-59
p957
aVPIVOT-58
p958
aVPIVOT-57
p959
aVPIVOT-56
p960
aVPIVOT-55
p961
aVPIVOT-54
p962
aVPIVOT-53
p963
aVPIVOT-52
p964
aVPIVOT-51
p965
aVPIVOT-50
p966
aVPIVOT-49
p967
aVPIVOT-48
p968
aVPIVOT-47
p969
aVPIVOT-46
p970
aVPIVOT-45
p971
aVPIVOT-44
p972
aVPIVOT-43
p973
aVPIVOT-42
p974
aVPIVOT-41
p975
aVPIVOT-40
p976
aVPIVOT-38
p977
aVPIVOT-37
p978
aVPIVOT-36
p979
aVPIVOT-35
p980
aVPIVOT-34
p981
aVPIVOT-33
p982
aVPIVOT-32
p983
aVPIVOT-31
p984
aVPIVOT-30
p985
aVPIVOT-29
p986
aVPIVOT-28
p987
aVPIVOT-27
p988
aVPIVOT-26
p989
aVPIVOT-25
p990
aVPIVOT-24
p991
aVPIVOT-23
p992
aVPIVOT-22
p993
aVPIVOT-21
p994
aVPIVOT-20
p995
aVPIVOT-19
p996
aVPIVOT-18
p997
aVPIVOT-17
p998
aVPIVOT-16
p999
aVPIVOT-15
p1000
aVPIVOT-14
p1001
aVPIVOT-13
p1002
aVPIVOT-12
p1003
aVPIVOT-11
p1004
aVPIVOT-10
p1005
aVPIVOT-9
p1006
aVPIVOT-8
p1007
aVPIVOT-7
p1008
aVPIVOT-6
p1009
aVPIVOT-5
p1010
aVPIVOT-4
p1011
aVPIVOT-3
p1012
aVPIVOT-2
p1013
aVPIVOT-1
p1014
a.