(lp0
VPOOL-347
p1
aVPOOL-346
p2
aVPOOL-345
p3
aVPOOL-344
p4
aVPOOL-343
p5
aVPOOL-342
p6
aVPOOL-341
p7
aVPOOL-340
p8
aVPOOL-339
p9
aVPOOL-338
p10
aVPOOL-337
p11
aVPOOL-336
p12
aVPOOL-335
p13
aVPOOL-334
p14
aVPOOL-333
p15
aVPOOL-332
p16
aVPOOL-331
p17
aVPOOL-330
p18
aVPOOL-329
p19
aVPOOL-328
p20
aVPOOL-327
p21
aVPOOL-326
p22
aVPOOL-325
p23
aVPOOL-324
p24
aVPOOL-323
p25
aVPOOL-322
p26
aVPOOL-321
p27
aVPOOL-320
p28
aVPOOL-319
p29
aVPOOL-318
p30
aVPOOL-317
p31
aVPOOL-316
p32
aVPOOL-315
p33
aVPOOL-314
p34
aVPOOL-313
p35
aVPOOL-312
p36
aVPOOL-311
p37
aVPOOL-310
p38
aVPOOL-309
p39
aVPOOL-308
p40
aVPOOL-307
p41
aVPOOL-306
p42
aVPOOL-305
p43
aVPOOL-304
p44
aVPOOL-303
p45
aVPOOL-302
p46
aVPOOL-301
p47
aVPOOL-300
p48
aVPOOL-299
p49
aVPOOL-298
p50
aVPOOL-297
p51
aVPOOL-296
p52
aVPOOL-295
p53
aVPOOL-294
p54
aVPOOL-293
p55
aVPOOL-292
p56
aVPOOL-291
p57
aVPOOL-290
p58
aVPOOL-289
p59
aVPOOL-288
p60
aVPOOL-287
p61
aVPOOL-286
p62
aVPOOL-285
p63
aVPOOL-284
p64
aVPOOL-283
p65
aVPOOL-282
p66
aVPOOL-281
p67
aVPOOL-280
p68
aVPOOL-279
p69
aVPOOL-278
p70
aVPOOL-277
p71
aVPOOL-276
p72
aVPOOL-275
p73
aVPOOL-274
p74
aVPOOL-273
p75
aVPOOL-272
p76
aVPOOL-271
p77
aVPOOL-270
p78
aVPOOL-269
p79
aVPOOL-268
p80
aVPOOL-267
p81
aVPOOL-266
p82
aVPOOL-265
p83
aVPOOL-264
p84
aVPOOL-263
p85
aVPOOL-262
p86
aVPOOL-261
p87
aVPOOL-260
p88
aVPOOL-259
p89
aVPOOL-250
p90
aVPOOL-249
p91
aVPOOL-248
p92
aVPOOL-247
p93
aVPOOL-246
p94
aVPOOL-245
p95
aVPOOL-244
p96
aVPOOL-243
p97
aVPOOL-242
p98
aVPOOL-241
p99
aVPOOL-240
p100
aVPOOL-239
p101
aVPOOL-238
p102
aVPOOL-237
p103
aVPOOL-236
p104
aVPOOL-235
p105
aVPOOL-234
p106
aVPOOL-233
p107
aVPOOL-232
p108
aVPOOL-231
p109
aVPOOL-230
p110
aVPOOL-229
p111
aVPOOL-228
p112
aVPOOL-227
p113
aVPOOL-226
p114
aVPOOL-225
p115
aVPOOL-224
p116
aVPOOL-223
p117
aVPOOL-222
p118
aVPOOL-221
p119
aVPOOL-220
p120
aVPOOL-219
p121
aVPOOL-218
p122
aVPOOL-217
p123
aVPOOL-216
p124
aVPOOL-215
p125
aVPOOL-214
p126
aVPOOL-213
p127
aVPOOL-212
p128
aVPOOL-211
p129
aVPOOL-210
p130
aVPOOL-209
p131
aVPOOL-208
p132
aVPOOL-207
p133
aVPOOL-206
p134
aVPOOL-205
p135
aVPOOL-204
p136
aVPOOL-203
p137
aVPOOL-202
p138
aVPOOL-201
p139
aVPOOL-200
p140
aVPOOL-199
p141
aVPOOL-198
p142
aVPOOL-197
p143
aVPOOL-196
p144
aVPOOL-195
p145
aVPOOL-194
p146
aVPOOL-193
p147
aVPOOL-192
p148
aVPOOL-191
p149
aVPOOL-190
p150
aVPOOL-189
p151
aVPOOL-188
p152
aVPOOL-187
p153
aVPOOL-186
p154
aVPOOL-185
p155
aVPOOL-184
p156
aVPOOL-183
p157
aVPOOL-182
p158
aVPOOL-181
p159
aVPOOL-180
p160
aVPOOL-179
p161
aVPOOL-178
p162
aVPOOL-177
p163
aVPOOL-176
p164
aVPOOL-175
p165
aVPOOL-174
p166
aVPOOL-173
p167
aVPOOL-172
p168
aVPOOL-171
p169
aVPOOL-169
p170
aVPOOL-168
p171
aVPOOL-167
p172
aVPOOL-166
p173
aVPOOL-165
p174
aVPOOL-164
p175
aVPOOL-162
p176
aVPOOL-161
p177
aVPOOL-160
p178
aVPOOL-159
p179
aVPOOL-158
p180
aVPOOL-157
p181
aVPOOL-156
p182
aVPOOL-155
p183
aVPOOL-154
p184
aVPOOL-153
p185
aVPOOL-152
p186
aVPOOL-151
p187
aVPOOL-150
p188
aVPOOL-149
p189
aVPOOL-148
p190
aVPOOL-147
p191
aVPOOL-146
p192
aVPOOL-145
p193
aVPOOL-144
p194
aVPOOL-143
p195
aVPOOL-142
p196
aVPOOL-141
p197
aVPOOL-140
p198
aVPOOL-139
p199
aVPOOL-138
p200
aVPOOL-137
p201
aVPOOL-136
p202
aVPOOL-135
p203
aVPOOL-134
p204
aVPOOL-133
p205
aVPOOL-132
p206
aVPOOL-131
p207
aVPOOL-130
p208
aVPOOL-129
p209
aVPOOL-125
p210
aVPOOL-124
p211
aVPOOL-122
p212
aVPOOL-121
p213
aVPOOL-120
p214
aVPOOL-119
p215
aVPOOL-118
p216
aVPOOL-117
p217
aVPOOL-116
p218
aVPOOL-115
p219
aVPOOL-114
p220
aVPOOL-113
p221
aVPOOL-112
p222
aVPOOL-111
p223
aVPOOL-110
p224
aVPOOL-108
p225
aVPOOL-106
p226
aVPOOL-105
p227
aVPOOL-104
p228
aVPOOL-103
p229
aVPOOL-102
p230
aVPOOL-101
p231
aVPOOL-100
p232
aVPOOL-99
p233
aVPOOL-98
p234
aVPOOL-97
p235
aVPOOL-96
p236
aVPOOL-95
p237
aVPOOL-94
p238
aVPOOL-93
p239
aVPOOL-92
p240
aVPOOL-91
p241
aVPOOL-90
p242
aVPOOL-89
p243
aVPOOL-88
p244
aVPOOL-87
p245
aVPOOL-86
p246
aVPOOL-85
p247
aVPOOL-84
p248
aVPOOL-83
p249
aVPOOL-82
p250
aVPOOL-81
p251
aVPOOL-80
p252
aVPOOL-79
p253
aVPOOL-78
p254
aVPOOL-77
p255
aVPOOL-76
p256
aVPOOL-75
p257
aVPOOL-74
p258
aVPOOL-73
p259
aVPOOL-72
p260
aVPOOL-71
p261
aVPOOL-70
p262
aVPOOL-69
p263
aVPOOL-68
p264
aVPOOL-67
p265
aVPOOL-66
p266
aVPOOL-65
p267
aVPOOL-64
p268
aVPOOL-63
p269
aVPOOL-62
p270
aVPOOL-61
p271
aVPOOL-60
p272
aVPOOL-59
p273
aVPOOL-58
p274
aVPOOL-57
p275
aVPOOL-56
p276
aVPOOL-55
p277
aVPOOL-54
p278
aVPOOL-53
p279
aVPOOL-52
p280
aVPOOL-51
p281
aVPOOL-50
p282
aVPOOL-49
p283
aVPOOL-48
p284
aVPOOL-47
p285
aVPOOL-46
p286
aVPOOL-45
p287
aVPOOL-44
p288
aVPOOL-43
p289
aVPOOL-42
p290
aVPOOL-41
p291
aVPOOL-40
p292
aVPOOL-39
p293
aVPOOL-38
p294
aVPOOL-37
p295
aVPOOL-36
p296
aVPOOL-35
p297
aVPOOL-34
p298
aVPOOL-33
p299
aVPOOL-32
p300
aVPOOL-31
p301
aVPOOL-30
p302
aVPOOL-29
p303
aVPOOL-28
p304
aVPOOL-27
p305
aVPOOL-26
p306
aVPOOL-25
p307
aVPOOL-24
p308
aVPOOL-23
p309
aVPOOL-22
p310
aVPOOL-21
p311
aVPOOL-20
p312
aVPOOL-19
p313
aVPOOL-18
p314
aVPOOL-17
p315
aVPOOL-16
p316
aVPOOL-15
p317
aVPOOL-14
p318
aVPOOL-13
p319
aVPOOL-12
p320
aVPOOL-11
p321
aVPOOL-10
p322
aVPOOL-9
p323
aVPOOL-8
p324
aVPOOL-7
p325
aVPOOL-6
p326
aVPOOL-5
p327
aVPOOL-4
p328
aVPOOL-3
p329
aVPOOL-2
p330
aVPOOL-1
p331
a.