(lp0
VPOSTAGE-25
p1
aVPOSTAGE-24
p2
aVPOSTAGE-23
p3
aVPOSTAGE-22
p4
aVPOSTAGE-21
p5
aVPOSTAGE-20
p6
aVPOSTAGE-19
p7
aVPOSTAGE-18
p8
aVPOSTAGE-17
p9
aVPOSTAGE-16
p10
aVPOSTAGE-15
p11
aVPOSTAGE-14
p12
aVPOSTAGE-13
p13
aVPOSTAGE-12
p14
aVPOSTAGE-11
p15
aVPOSTAGE-10
p16
aVPOSTAGE-9
p17
aVPOSTAGE-8
p18
aVPOSTAGE-7
p19
aVPOSTAGE-6
p20
aVPOSTAGE-5
p21
aVPOSTAGE-4
p22
aVPOSTAGE-3
p23
aVPOSTAGE-2
p24
aVPOSTAGE-1
p25
a.