(lp0
VPROXY-28
p1
aVPROXY-27
p2
aVPROXY-26
p3
aVPROXY-25
p4
aVPROXY-24
p5
aVPROXY-23
p6
aVPROXY-22
p7
aVPROXY-21
p8
aVPROXY-20
p9
aVPROXY-19
p10
aVPROXY-18
p11
aVPROXY-16
p12
aVPROXY-15
p13
aVPROXY-14
p14
aVPROXY-13
p15
aVPROXY-12
p16
aVPROXY-11
p17
aVPROXY-10
p18
aVPROXY-9
p19
aVPROXY-8
p20
aVPROXY-7
p21
aVPROXY-6
p22
aVPROXY-5
p23
aVPROXY-4
p24
aVPROXY-3
p25
aVPROXY-2
p26
aVPROXY-1
p27
a.