(lp0
VQPIDJMS-406
p1
aVQPIDJMS-405
p2
aVQPIDJMS-404
p3
aVQPIDJMS-403
p4
aVQPIDJMS-402
p5
aVQPIDJMS-401
p6
aVQPIDJMS-400
p7
aVQPIDJMS-399
p8
aVQPIDJMS-398
p9
aVQPIDJMS-397
p10
aVQPIDJMS-396
p11
aVQPIDJMS-395
p12
aVQPIDJMS-394
p13
aVQPIDJMS-393
p14
aVQPIDJMS-392
p15
aVQPIDJMS-391
p16
aVQPIDJMS-390
p17
aVQPIDJMS-389
p18
aVQPIDJMS-388
p19
aVQPIDJMS-387
p20
aVQPIDJMS-386
p21
aVQPIDJMS-385
p22
aVQPIDJMS-384
p23
aVQPIDJMS-383
p24
aVQPIDJMS-382
p25
aVQPIDJMS-381
p26
aVQPIDJMS-380
p27
aVQPIDJMS-379
p28
aVQPIDJMS-378
p29
aVQPIDJMS-377
p30
aVQPIDJMS-376
p31
aVQPIDJMS-375
p32
aVQPIDJMS-374
p33
aVQPIDJMS-373
p34
aVQPIDJMS-372
p35
aVQPIDJMS-371
p36
aVQPIDJMS-370
p37
aVQPIDJMS-369
p38
aVQPIDJMS-368
p39
aVQPIDJMS-367
p40
aVQPIDJMS-366
p41
aVQPIDJMS-365
p42
aVQPIDJMS-364
p43
aVQPIDJMS-363
p44
aVQPIDJMS-362
p45
aVQPIDJMS-361
p46
aVQPIDJMS-360
p47
aVQPIDJMS-359
p48
aVQPIDJMS-358
p49
aVQPIDJMS-357
p50
aVQPIDJMS-356
p51
aVQPIDJMS-355
p52
aVQPIDJMS-354
p53
aVQPIDJMS-353
p54
aVQPIDJMS-352
p55
aVQPIDJMS-351
p56
aVQPIDJMS-350
p57
aVQPIDJMS-349
p58
aVQPIDJMS-348
p59
aVQPIDJMS-347
p60
aVQPIDJMS-346
p61
aVQPIDJMS-345
p62
aVQPIDJMS-344
p63
aVQPIDJMS-343
p64
aVQPIDJMS-342
p65
aVQPIDJMS-341
p66
aVQPIDJMS-340
p67
aVQPIDJMS-339
p68
aVQPIDJMS-338
p69
aVQPIDJMS-337
p70
aVQPIDJMS-336
p71
aVQPIDJMS-335
p72
aVQPIDJMS-334
p73
aVQPIDJMS-333
p74
aVQPIDJMS-332
p75
aVQPIDJMS-331
p76
aVQPIDJMS-330
p77
aVQPIDJMS-329
p78
aVQPIDJMS-328
p79
aVQPIDJMS-327
p80
aVQPIDJMS-326
p81
aVQPIDJMS-325
p82
aVQPIDJMS-324
p83
aVQPIDJMS-323
p84
aVQPIDJMS-322
p85
aVQPIDJMS-321
p86
aVQPIDJMS-320
p87
aVQPIDJMS-319
p88
aVQPIDJMS-318
p89
aVQPIDJMS-317
p90
aVQPIDJMS-316
p91
aVQPIDJMS-315
p92
aVQPIDJMS-314
p93
aVQPIDJMS-313
p94
aVQPIDJMS-312
p95
aVQPIDJMS-311
p96
aVQPIDJMS-310
p97
aVQPIDJMS-309
p98
aVQPIDJMS-308
p99
aVQPIDJMS-307
p100
aVQPIDJMS-306
p101
aVQPIDJMS-305
p102
aVQPIDJMS-304
p103
aVQPIDJMS-303
p104
aVQPIDJMS-302
p105
aVQPIDJMS-301
p106
aVQPIDJMS-300
p107
aVQPIDJMS-299
p108
aVQPIDJMS-298
p109
aVQPIDJMS-297
p110
aVQPIDJMS-296
p111
aVQPIDJMS-295
p112
aVQPIDJMS-294
p113
aVQPIDJMS-293
p114
aVQPIDJMS-292
p115
aVQPIDJMS-291
p116
aVQPIDJMS-290
p117
aVQPIDJMS-289
p118
aVQPIDJMS-288
p119
aVQPIDJMS-287
p120
aVQPIDJMS-286
p121
aVQPIDJMS-285
p122
aVQPIDJMS-284
p123
aVQPIDJMS-283
p124
aVQPIDJMS-282
p125
aVQPIDJMS-281
p126
aVQPIDJMS-280
p127
aVQPIDJMS-279
p128
aVQPIDJMS-278
p129
aVQPIDJMS-277
p130
aVQPIDJMS-276
p131
aVQPIDJMS-275
p132
aVQPIDJMS-274
p133
aVQPIDJMS-273
p134
aVQPIDJMS-272
p135
aVQPIDJMS-271
p136
aVQPIDJMS-270
p137
aVQPIDJMS-269
p138
aVQPIDJMS-268
p139
aVQPIDJMS-267
p140
aVQPIDJMS-266
p141
aVQPIDJMS-265
p142
aVQPIDJMS-264
p143
aVQPIDJMS-263
p144
aVQPIDJMS-262
p145
aVQPIDJMS-261
p146
aVQPIDJMS-260
p147
aVQPIDJMS-259
p148
aVQPIDJMS-258
p149
aVQPIDJMS-257
p150
aVQPIDJMS-256
p151
aVQPIDJMS-255
p152
aVQPIDJMS-254
p153
aVQPIDJMS-253
p154
aVQPIDJMS-252
p155
aVQPIDJMS-251
p156
aVQPIDJMS-250
p157
aVQPIDJMS-249
p158
aVQPIDJMS-248
p159
aVQPIDJMS-247
p160
aVQPIDJMS-246
p161
aVQPIDJMS-245
p162
aVQPIDJMS-244
p163
aVQPIDJMS-243
p164
aVQPIDJMS-242
p165
aVQPIDJMS-241
p166
aVQPIDJMS-240
p167
aVQPIDJMS-239
p168
aVQPIDJMS-238
p169
aVQPIDJMS-237
p170
aVQPIDJMS-236
p171
aVQPIDJMS-235
p172
aVQPIDJMS-234
p173
aVQPIDJMS-233
p174
aVQPIDJMS-232
p175
aVQPIDJMS-231
p176
aVQPIDJMS-230
p177
aVQPIDJMS-229
p178
aVQPIDJMS-228
p179
aVQPIDJMS-227
p180
aVQPIDJMS-226
p181
aVQPIDJMS-225
p182
aVQPIDJMS-224
p183
aVQPIDJMS-223
p184
aVQPIDJMS-222
p185
aVQPIDJMS-221
p186
aVQPIDJMS-220
p187
aVQPIDJMS-219
p188
aVQPIDJMS-218
p189
aVQPIDJMS-217
p190
aVQPIDJMS-216
p191
aVQPIDJMS-215
p192
aVQPIDJMS-214
p193
aVQPIDJMS-213
p194
aVQPIDJMS-212
p195
aVQPIDJMS-211
p196
aVQPIDJMS-210
p197
aVQPIDJMS-209
p198
aVQPIDJMS-208
p199
aVQPIDJMS-207
p200
aVQPIDJMS-206
p201
aVQPIDJMS-205
p202
aVQPIDJMS-204
p203
aVQPIDJMS-203
p204
aVQPIDJMS-202
p205
aVQPIDJMS-201
p206
aVQPIDJMS-200
p207
aVQPIDJMS-199
p208
aVQPIDJMS-198
p209
aVQPIDJMS-197
p210
aVQPIDJMS-196
p211
aVQPIDJMS-195
p212
aVQPIDJMS-194
p213
aVQPIDJMS-193
p214
aVQPIDJMS-192
p215
aVQPIDJMS-191
p216
aVQPIDJMS-190
p217
aVQPIDJMS-189
p218
aVQPIDJMS-188
p219
aVQPIDJMS-187
p220
aVQPIDJMS-186
p221
aVQPIDJMS-185
p222
aVQPIDJMS-184
p223
aVQPIDJMS-183
p224
aVQPIDJMS-182
p225
aVQPIDJMS-181
p226
aVQPIDJMS-180
p227
aVQPIDJMS-179
p228
aVQPIDJMS-178
p229
aVQPIDJMS-177
p230
aVQPIDJMS-176
p231
aVQPIDJMS-175
p232
aVQPIDJMS-174
p233
aVQPIDJMS-173
p234
aVQPIDJMS-172
p235
aVQPIDJMS-171
p236
aVQPIDJMS-170
p237
aVQPIDJMS-169
p238
aVQPIDJMS-168
p239
aVQPIDJMS-167
p240
aVQPIDJMS-166
p241
aVQPIDJMS-165
p242
aVQPIDJMS-164
p243
aVQPIDJMS-163
p244
aVQPIDJMS-162
p245
aVQPIDJMS-161
p246
aVQPIDJMS-160
p247
aVQPIDJMS-159
p248
aVQPIDJMS-158
p249
aVQPIDJMS-157
p250
aVQPIDJMS-156
p251
aVQPIDJMS-155
p252
aVQPIDJMS-154
p253
aVQPIDJMS-153
p254
aVQPIDJMS-152
p255
aVQPIDJMS-151
p256
aVQPIDJMS-150
p257
aVQPIDJMS-149
p258
aVQPIDJMS-148
p259
aVQPIDJMS-147
p260
aVQPIDJMS-146
p261
aVQPIDJMS-145
p262
aVQPIDJMS-144
p263
aVQPIDJMS-143
p264
aVQPIDJMS-142
p265
aVQPIDJMS-141
p266
aVQPIDJMS-140
p267
aVQPIDJMS-139
p268
aVQPIDJMS-138
p269
aVQPIDJMS-137
p270
aVQPIDJMS-136
p271
aVQPIDJMS-135
p272
aVQPIDJMS-134
p273
aVQPIDJMS-133
p274
aVQPIDJMS-132
p275
aVQPIDJMS-131
p276
aVQPIDJMS-130
p277
aVQPIDJMS-129
p278
aVQPIDJMS-128
p279
aVQPIDJMS-127
p280
aVQPIDJMS-126
p281
aVQPIDJMS-125
p282
aVQPIDJMS-124
p283
aVQPIDJMS-123
p284
aVQPIDJMS-122
p285
aVQPIDJMS-121
p286
aVQPIDJMS-120
p287
aVQPIDJMS-119
p288
aVQPIDJMS-118
p289
aVQPIDJMS-117
p290
aVQPIDJMS-116
p291
aVQPIDJMS-115
p292
aVQPIDJMS-114
p293
aVQPIDJMS-113
p294
aVQPIDJMS-112
p295
aVQPIDJMS-111
p296
aVQPIDJMS-110
p297
aVQPIDJMS-109
p298
aVQPIDJMS-108
p299
aVQPIDJMS-107
p300
aVQPIDJMS-106
p301
aVQPIDJMS-105
p302
aVQPIDJMS-104
p303
aVQPIDJMS-103
p304
aVQPIDJMS-102
p305
aVQPIDJMS-101
p306
aVQPIDJMS-100
p307
aVQPIDJMS-99
p308
aVQPIDJMS-98
p309
aVQPIDJMS-97
p310
aVQPIDJMS-96
p311
aVQPIDJMS-95
p312
aVQPIDJMS-94
p313
aVQPIDJMS-93
p314
aVQPIDJMS-92
p315
aVQPIDJMS-91
p316
aVQPIDJMS-90
p317
aVQPIDJMS-89
p318
aVQPIDJMS-88
p319
aVQPIDJMS-87
p320
aVQPIDJMS-86
p321
aVQPIDJMS-85
p322
aVQPIDJMS-84
p323
aVQPIDJMS-83
p324
aVQPIDJMS-82
p325
aVQPIDJMS-81
p326
aVQPIDJMS-80
p327
aVQPIDJMS-79
p328
aVQPIDJMS-78
p329
aVQPIDJMS-77
p330
aVQPIDJMS-76
p331
aVQPIDJMS-75
p332
aVQPIDJMS-74
p333
aVQPIDJMS-73
p334
aVQPIDJMS-72
p335
aVQPIDJMS-71
p336
aVQPIDJMS-70
p337
aVQPIDJMS-69
p338
aVQPIDJMS-68
p339
aVQPIDJMS-67
p340
aVQPIDJMS-66
p341
aVQPIDJMS-65
p342
aVQPIDJMS-64
p343
aVQPIDJMS-63
p344
aVQPIDJMS-62
p345
aVQPIDJMS-61
p346
aVQPIDJMS-60
p347
aVQPIDJMS-59
p348
aVQPIDJMS-58
p349
aVQPIDJMS-57
p350
aVQPIDJMS-56
p351
aVQPIDJMS-55
p352
aVQPIDJMS-54
p353
aVQPIDJMS-53
p354
aVQPIDJMS-52
p355
aVQPIDJMS-51
p356
aVQPIDJMS-50
p357
aVQPIDJMS-49
p358
aVQPIDJMS-48
p359
aVQPIDJMS-47
p360
aVQPIDJMS-46
p361
aVQPIDJMS-45
p362
aVQPIDJMS-44
p363
aVQPIDJMS-43
p364
aVQPIDJMS-42
p365
aVQPIDJMS-41
p366
aVQPIDJMS-40
p367
aVQPIDJMS-39
p368
aVQPIDJMS-38
p369
aVQPIDJMS-37
p370
aVQPIDJMS-36
p371
aVQPIDJMS-35
p372
aVQPIDJMS-34
p373
aVQPIDJMS-33
p374
aVQPIDJMS-31
p375
aVQPIDJMS-28
p376
aVQPIDJMS-27
p377
aVQPIDJMS-26
p378
aVQPIDJMS-25
p379
aVQPIDJMS-24
p380
aVQPIDJMS-23
p381
aVQPIDJMS-22
p382
aVQPIDJMS-21
p383
aVQPIDJMS-20
p384
aVQPIDJMS-18
p385
aVQPIDJMS-16
p386
aVQPIDJMS-15
p387
aVQPIDJMS-14
p388
aVQPIDJMS-13
p389
aVQPIDJMS-12
p390
aVQPIDJMS-11
p391
aVQPIDJMS-10
p392
aVQPIDJMS-9
p393
aVQPIDJMS-8
p394
aVQPIDJMS-7
p395
aVQPIDJMS-6
p396
aVQPIDJMS-5
p397
aVQPIDJMS-4
p398
aVQPIDJMS-3
p399
aVQPIDJMS-2
p400
aVQPIDJMS-1
p401
a.