(lp0
VRAMPART-444
p1
aVRAMPART-443
p2
aVRAMPART-442
p3
aVRAMPART-441
p4
aVRAMPART-440
p5
aVRAMPART-439
p6
aVRAMPART-438
p7
aVRAMPART-437
p8
aVRAMPART-436
p9
aVRAMPART-435
p10
aVRAMPART-434
p11
aVRAMPART-433
p12
aVRAMPART-432
p13
aVRAMPART-431
p14
aVRAMPART-430
p15
aVRAMPART-429
p16
aVRAMPART-428
p17
aVRAMPART-427
p18
aVRAMPART-426
p19
aVRAMPART-425
p20
aVRAMPART-424
p21
aVRAMPART-423
p22
aVRAMPART-422
p23
aVRAMPART-421
p24
aVRAMPART-420
p25
aVRAMPART-419
p26
aVRAMPART-418
p27
aVRAMPART-417
p28
aVRAMPART-416
p29
aVRAMPART-415
p30
aVRAMPART-414
p31
aVRAMPART-413
p32
aVRAMPART-412
p33
aVRAMPART-411
p34
aVRAMPART-410
p35
aVRAMPART-409
p36
aVRAMPART-408
p37
aVRAMPART-406
p38
aVRAMPART-405
p39
aVRAMPART-404
p40
aVRAMPART-403
p41
aVRAMPART-402
p42
aVRAMPART-401
p43
aVRAMPART-400
p44
aVRAMPART-399
p45
aVRAMPART-398
p46
aVRAMPART-397
p47
aVRAMPART-396
p48
aVRAMPART-395
p49
aVRAMPART-394
p50
aVRAMPART-393
p51
aVRAMPART-392
p52
aVRAMPART-391
p53
aVRAMPART-390
p54
aVRAMPART-389
p55
aVRAMPART-388
p56
aVRAMPART-387
p57
aVRAMPART-386
p58
aVRAMPART-385
p59
aVRAMPART-384
p60
aVRAMPART-383
p61
aVRAMPART-382
p62
aVRAMPART-381
p63
aVRAMPART-380
p64
aVRAMPART-379
p65
aVRAMPART-378
p66
aVRAMPART-377
p67
aVRAMPART-376
p68
aVRAMPART-375
p69
aVRAMPART-374
p70
aVRAMPART-373
p71
aVRAMPART-372
p72
aVRAMPART-371
p73
aVRAMPART-370
p74
aVRAMPART-369
p75
aVRAMPART-368
p76
aVRAMPART-367
p77
aVRAMPART-366
p78
aVRAMPART-365
p79
aVRAMPART-364
p80
aVRAMPART-363
p81
aVRAMPART-362
p82
aVRAMPART-361
p83
aVRAMPART-360
p84
aVRAMPART-359
p85
aVRAMPART-358
p86
aVRAMPART-357
p87
aVRAMPART-356
p88
aVRAMPART-355
p89
aVRAMPART-354
p90
aVRAMPART-353
p91
aVRAMPART-352
p92
aVRAMPART-351
p93
aVRAMPART-350
p94
aVRAMPART-349
p95
aVRAMPART-348
p96
aVRAMPART-347
p97
aVRAMPART-346
p98
aVRAMPART-345
p99
aVRAMPART-344
p100
aVRAMPART-343
p101
aVRAMPART-342
p102
aVRAMPART-341
p103
aVRAMPART-340
p104
aVRAMPART-339
p105
aVRAMPART-338
p106
aVRAMPART-337
p107
aVRAMPART-336
p108
aVRAMPART-335
p109
aVRAMPART-334
p110
aVRAMPART-333
p111
aVRAMPART-331
p112
aVRAMPART-330
p113
aVRAMPART-329
p114
aVRAMPART-328
p115
aVRAMPART-327
p116
aVRAMPART-326
p117
aVRAMPART-325
p118
aVRAMPART-324
p119
aVRAMPART-323
p120
aVRAMPART-322
p121
aVRAMPART-321
p122
aVRAMPART-320
p123
aVRAMPART-319
p124
aVRAMPART-318
p125
aVRAMPART-317
p126
aVRAMPART-316
p127
aVRAMPART-315
p128
aVRAMPART-314
p129
aVRAMPART-313
p130
aVRAMPART-312
p131
aVRAMPART-311
p132
aVRAMPART-310
p133
aVRAMPART-309
p134
aVRAMPART-308
p135
aVRAMPART-307
p136
aVRAMPART-306
p137
aVRAMPART-305
p138
aVRAMPART-304
p139
aVRAMPART-303
p140
aVRAMPART-302
p141
aVRAMPART-301
p142
aVRAMPART-300
p143
aVRAMPART-299
p144
aVRAMPART-298
p145
aVRAMPART-297
p146
aVRAMPART-296
p147
aVRAMPART-294
p148
aVRAMPART-293
p149
aVRAMPART-292
p150
aVRAMPART-291
p151
aVRAMPART-290
p152
aVRAMPART-289
p153
aVRAMPART-288
p154
aVRAMPART-287
p155
aVRAMPART-286
p156
aVRAMPART-285
p157
aVRAMPART-284
p158
aVRAMPART-283
p159
aVRAMPART-282
p160
aVRAMPART-281
p161
aVRAMPART-280
p162
aVRAMPART-279
p163
aVRAMPART-278
p164
aVRAMPART-277
p165
aVRAMPART-276
p166
aVRAMPART-275
p167
aVRAMPART-274
p168
aVRAMPART-273
p169
aVRAMPART-272
p170
aVRAMPART-271
p171
aVRAMPART-270
p172
aVRAMPART-269
p173
aVRAMPART-268
p174
aVRAMPART-267
p175
aVRAMPART-266
p176
aVRAMPART-265
p177
aVRAMPART-264
p178
aVRAMPART-263
p179
aVRAMPART-262
p180
aVRAMPART-261
p181
aVRAMPART-260
p182
aVRAMPART-259
p183
aVRAMPART-258
p184
aVRAMPART-257
p185
aVRAMPART-256
p186
aVRAMPART-255
p187
aVRAMPART-254
p188
aVRAMPART-253
p189
aVRAMPART-252
p190
aVRAMPART-251
p191
aVRAMPART-250
p192
aVRAMPART-249
p193
aVRAMPART-248
p194
aVRAMPART-247
p195
aVRAMPART-246
p196
aVRAMPART-245
p197
aVRAMPART-244
p198
aVRAMPART-243
p199
aVRAMPART-242
p200
aVRAMPART-241
p201
aVRAMPART-240
p202
aVRAMPART-239
p203
aVRAMPART-238
p204
aVRAMPART-237
p205
aVRAMPART-236
p206
aVRAMPART-235
p207
aVRAMPART-234
p208
aVRAMPART-233
p209
aVRAMPART-232
p210
aVRAMPART-231
p211
aVRAMPART-230
p212
aVRAMPART-229
p213
aVRAMPART-228
p214
aVRAMPART-227
p215
aVRAMPART-226
p216
aVRAMPART-225
p217
aVRAMPART-224
p218
aVRAMPART-223
p219
aVRAMPART-222
p220
aVRAMPART-220
p221
aVRAMPART-219
p222
aVRAMPART-218
p223
aVRAMPART-217
p224
aVRAMPART-216
p225
aVRAMPART-215
p226
aVRAMPART-214
p227
aVRAMPART-213
p228
aVRAMPART-212
p229
aVRAMPART-211
p230
aVRAMPART-210
p231
aVRAMPART-209
p232
aVRAMPART-208
p233
aVRAMPART-207
p234
aVRAMPART-206
p235
aVRAMPART-205
p236
aVRAMPART-204
p237
aVRAMPART-203
p238
aVRAMPART-202
p239
aVRAMPART-201
p240
aVRAMPART-200
p241
aVRAMPART-199
p242
aVRAMPART-198
p243
aVRAMPART-197
p244
aVRAMPART-196
p245
aVRAMPART-195
p246
aVRAMPART-194
p247
aVRAMPART-193
p248
aVRAMPART-192
p249
aVRAMPART-191
p250
aVRAMPART-190
p251
aVRAMPART-189
p252
aVRAMPART-188
p253
aVRAMPART-187
p254
aVRAMPART-186
p255
aVRAMPART-185
p256
aVRAMPART-184
p257
aVRAMPART-183
p258
aVRAMPART-182
p259
aVRAMPART-181
p260
aVRAMPART-180
p261
aVRAMPART-179
p262
aVRAMPART-178
p263
aVRAMPART-177
p264
aVRAMPART-176
p265
aVRAMPART-175
p266
aVRAMPART-174
p267
aVRAMPART-173
p268
aVRAMPART-172
p269
aVRAMPART-171
p270
aVRAMPART-170
p271
aVRAMPART-169
p272
aVRAMPART-168
p273
aVRAMPART-167
p274
aVRAMPART-166
p275
aVRAMPART-165
p276
aVRAMPART-164
p277
aVRAMPART-163
p278
aVRAMPART-162
p279
aVRAMPART-161
p280
aVRAMPART-160
p281
aVRAMPART-159
p282
aVRAMPART-158
p283
aVRAMPART-157
p284
aVRAMPART-156
p285
aVRAMPART-155
p286
aVRAMPART-154
p287
aVRAMPART-153
p288
aVRAMPART-152
p289
aVRAMPART-151
p290
aVRAMPART-150
p291
aVRAMPART-149
p292
aVRAMPART-148
p293
aVRAMPART-147
p294
aVRAMPART-146
p295
aVRAMPART-145
p296
aVRAMPART-144
p297
aVRAMPART-143
p298
aVRAMPART-142
p299
aVRAMPART-141
p300
aVRAMPART-140
p301
aVRAMPART-139
p302
aVRAMPART-138
p303
aVRAMPART-137
p304
aVRAMPART-136
p305
aVRAMPART-135
p306
aVRAMPART-134
p307
aVRAMPART-133
p308
aVRAMPART-132
p309
aVRAMPART-131
p310
aVRAMPART-130
p311
aVRAMPART-129
p312
aVRAMPART-128
p313
aVRAMPART-127
p314
aVRAMPART-126
p315
aVRAMPART-125
p316
aVRAMPART-124
p317
aVRAMPART-123
p318
aVRAMPART-122
p319
aVRAMPART-121
p320
aVRAMPART-120
p321
aVRAMPART-119
p322
aVRAMPART-118
p323
aVRAMPART-117
p324
aVRAMPART-116
p325
aVRAMPART-115
p326
aVRAMPART-114
p327
aVRAMPART-113
p328
aVRAMPART-112
p329
aVRAMPART-111
p330
aVRAMPART-110
p331
aVRAMPART-109
p332
aVRAMPART-108
p333
aVRAMPART-107
p334
aVRAMPART-106
p335
aVRAMPART-105
p336
aVRAMPART-104
p337
aVRAMPART-103
p338
aVRAMPART-102
p339
aVRAMPART-101
p340
aVRAMPART-100
p341
aVRAMPART-99
p342
aVRAMPART-98
p343
aVRAMPART-97
p344
aVRAMPART-96
p345
aVRAMPART-95
p346
aVRAMPART-94
p347
aVRAMPART-93
p348
aVRAMPART-92
p349
aVRAMPART-91
p350
aVRAMPART-90
p351
aVRAMPART-89
p352
aVRAMPART-88
p353
aVRAMPART-87
p354
aVRAMPART-86
p355
aVRAMPART-85
p356
aVRAMPART-84
p357
aVRAMPART-83
p358
aVRAMPART-82
p359
aVRAMPART-81
p360
aVRAMPART-80
p361
aVRAMPART-79
p362
aVRAMPART-78
p363
aVRAMPART-77
p364
aVRAMPART-76
p365
aVRAMPART-75
p366
aVRAMPART-74
p367
aVRAMPART-73
p368
aVRAMPART-72
p369
aVRAMPART-71
p370
aVRAMPART-70
p371
aVRAMPART-69
p372
aVRAMPART-68
p373
aVRAMPART-67
p374
aVRAMPART-66
p375
aVRAMPART-65
p376
aVRAMPART-64
p377
aVRAMPART-63
p378
aVRAMPART-62
p379
aVRAMPART-61
p380
aVRAMPART-60
p381
aVRAMPART-59
p382
aVRAMPART-58
p383
aVRAMPART-57
p384
aVRAMPART-56
p385
aVRAMPART-55
p386
aVRAMPART-54
p387
aVRAMPART-53
p388
aVRAMPART-52
p389
aVRAMPART-51
p390
aVRAMPART-50
p391
aVRAMPART-49
p392
aVRAMPART-48
p393
aVRAMPART-47
p394
aVRAMPART-46
p395
aVRAMPART-45
p396
aVRAMPART-44
p397
aVRAMPART-43
p398
aVRAMPART-42
p399
aVRAMPART-41
p400
aVRAMPART-40
p401
aVRAMPART-39
p402
aVRAMPART-38
p403
aVRAMPART-37
p404
aVRAMPART-36
p405
aVRAMPART-35
p406
aVRAMPART-34
p407
aVRAMPART-33
p408
aVRAMPART-32
p409
aVRAMPART-31
p410
aVRAMPART-30
p411
aVRAMPART-29
p412
aVRAMPART-28
p413
aVRAMPART-27
p414
aVRAMPART-26
p415
aVRAMPART-25
p416
aVRAMPART-24
p417
aVRAMPART-23
p418
aVRAMPART-22
p419
aVRAMPART-21
p420
aVRAMPART-20
p421
aVRAMPART-19
p422
aVRAMPART-18
p423
aVRAMPART-17
p424
aVRAMPART-16
p425
aVRAMPART-15
p426
aVRAMPART-14
p427
aVRAMPART-13
p428
aVRAMPART-12
p429
aVRAMPART-11
p430
aVRAMPART-10
p431
aVRAMPART-9
p432
aVRAMPART-8
p433
aVRAMPART-7
p434
aVRAMPART-6
p435
aVRAMPART-4
p436
aVRAMPART-1
p437
a.