(lp0
VRANGER-2182
p1
aVRANGER-2181
p2
aVRANGER-2180
p3
aVRANGER-2179
p4
aVRANGER-2178
p5
aVRANGER-2177
p6
aVRANGER-2176
p7
aVRANGER-2175
p8
aVRANGER-2174
p9
aVRANGER-2173
p10
aVRANGER-2172
p11
aVRANGER-2171
p12
aVRANGER-2170
p13
aVRANGER-2169
p14
aVRANGER-2168
p15
aVRANGER-2167
p16
aVRANGER-2166
p17
aVRANGER-2165
p18
aVRANGER-2164
p19
aVRANGER-2163
p20
aVRANGER-2162
p21
aVRANGER-2161
p22
aVRANGER-2160
p23
aVRANGER-2159
p24
aVRANGER-2158
p25
aVRANGER-2157
p26
aVRANGER-2156
p27
aVRANGER-2155
p28
aVRANGER-2154
p29
aVRANGER-2153
p30
aVRANGER-2152
p31
aVRANGER-2151
p32
aVRANGER-2150
p33
aVRANGER-2149
p34
aVRANGER-2148
p35
aVRANGER-2147
p36
aVRANGER-2146
p37
aVRANGER-2145
p38
aVRANGER-2144
p39
aVRANGER-2143
p40
aVRANGER-2142
p41
aVRANGER-2141
p42
aVRANGER-2140
p43
aVRANGER-2139
p44
aVRANGER-2138
p45
aVRANGER-2137
p46
aVRANGER-2136
p47
aVRANGER-2135
p48
aVRANGER-2134
p49
aVRANGER-2133
p50
aVRANGER-2132
p51
aVRANGER-2131
p52
aVRANGER-2130
p53
aVRANGER-2129
p54
aVRANGER-2128
p55
aVRANGER-2127
p56
aVRANGER-2126
p57
aVRANGER-2125
p58
aVRANGER-2124
p59
aVRANGER-2123
p60
aVRANGER-2122
p61
aVRANGER-2121
p62
aVRANGER-2120
p63
aVRANGER-2119
p64
aVRANGER-2118
p65
aVRANGER-2117
p66
aVRANGER-2116
p67
aVRANGER-2115
p68
aVRANGER-2114
p69
aVRANGER-2113
p70
aVRANGER-2112
p71
aVRANGER-2111
p72
aVRANGER-2110
p73
aVRANGER-2109
p74
aVRANGER-2108
p75
aVRANGER-2107
p76
aVRANGER-2106
p77
aVRANGER-2105
p78
aVRANGER-2104
p79
aVRANGER-2103
p80
aVRANGER-2102
p81
aVRANGER-2101
p82
aVRANGER-2100
p83
aVRANGER-2099
p84
aVRANGER-2098
p85
aVRANGER-2097
p86
aVRANGER-2096
p87
aVRANGER-2095
p88
aVRANGER-2094
p89
aVRANGER-2093
p90
aVRANGER-2092
p91
aVRANGER-2091
p92
aVRANGER-2090
p93
aVRANGER-2089
p94
aVRANGER-2088
p95
aVRANGER-2087
p96
aVRANGER-2086
p97
aVRANGER-2085
p98
aVRANGER-2084
p99
aVRANGER-2083
p100
aVRANGER-2082
p101
aVRANGER-2081
p102
aVRANGER-2080
p103
aVRANGER-2079
p104
aVRANGER-2078
p105
aVRANGER-2077
p106
aVRANGER-2076
p107
aVRANGER-2075
p108
aVRANGER-2074
p109
aVRANGER-2073
p110
aVRANGER-2072
p111
aVRANGER-2071
p112
aVRANGER-2070
p113
aVRANGER-2069
p114
aVRANGER-2068
p115
aVRANGER-2067
p116
aVRANGER-2066
p117
aVRANGER-2065
p118
aVRANGER-2064
p119
aVRANGER-2063
p120
aVRANGER-2062
p121
aVRANGER-2061
p122
aVRANGER-2060
p123
aVRANGER-2059
p124
aVRANGER-2058
p125
aVRANGER-2057
p126
aVRANGER-2056
p127
aVRANGER-2055
p128
aVRANGER-2054
p129
aVRANGER-2053
p130
aVRANGER-2052
p131
aVRANGER-2051
p132
aVRANGER-2050
p133
aVRANGER-2049
p134
aVRANGER-2048
p135
aVRANGER-2047
p136
aVRANGER-2046
p137
aVRANGER-2045
p138
aVRANGER-2044
p139
aVRANGER-2043
p140
aVRANGER-2042
p141
aVRANGER-2041
p142
aVRANGER-2040
p143
aVRANGER-2039
p144
aVRANGER-2038
p145
aVRANGER-2037
p146
aVRANGER-2036
p147
aVRANGER-2035
p148
aVRANGER-2034
p149
aVRANGER-2033
p150
aVRANGER-2032
p151
aVRANGER-2031
p152
aVRANGER-2030
p153
aVRANGER-2029
p154
aVRANGER-2028
p155
aVRANGER-2027
p156
aVRANGER-2026
p157
aVRANGER-2025
p158
aVRANGER-2024
p159
aVRANGER-2023
p160
aVRANGER-2022
p161
aVRANGER-2021
p162
aVRANGER-2020
p163
aVRANGER-2019
p164
aVRANGER-2018
p165
aVRANGER-2017
p166
aVRANGER-2016
p167
aVRANGER-2015
p168
aVRANGER-2014
p169
aVRANGER-2013
p170
aVRANGER-2012
p171
aVRANGER-2011
p172
aVRANGER-2010
p173
aVRANGER-2009
p174
aVRANGER-2008
p175
aVRANGER-2007
p176
aVRANGER-2006
p177
aVRANGER-2005
p178
aVRANGER-2004
p179
aVRANGER-2003
p180
aVRANGER-2002
p181
aVRANGER-2001
p182
aVRANGER-2000
p183
aVRANGER-1999
p184
aVRANGER-1998
p185
aVRANGER-1997
p186
aVRANGER-1996
p187
aVRANGER-1995
p188
aVRANGER-1994
p189
aVRANGER-1993
p190
aVRANGER-1992
p191
aVRANGER-1991
p192
aVRANGER-1990
p193
aVRANGER-1989
p194
aVRANGER-1988
p195
aVRANGER-1987
p196
aVRANGER-1986
p197
aVRANGER-1985
p198
aVRANGER-1984
p199
aVRANGER-1983
p200
aVRANGER-1982
p201
aVRANGER-1981
p202
aVRANGER-1980
p203
aVRANGER-1979
p204
aVRANGER-1978
p205
aVRANGER-1977
p206
aVRANGER-1976
p207
aVRANGER-1975
p208
aVRANGER-1974
p209
aVRANGER-1973
p210
aVRANGER-1972
p211
aVRANGER-1971
p212
aVRANGER-1970
p213
aVRANGER-1969
p214
aVRANGER-1968
p215
aVRANGER-1967
p216
aVRANGER-1966
p217
aVRANGER-1965
p218
aVRANGER-1964
p219
aVRANGER-1963
p220
aVRANGER-1962
p221
aVRANGER-1961
p222
aVRANGER-1960
p223
aVRANGER-1959
p224
aVRANGER-1958
p225
aVRANGER-1957
p226
aVRANGER-1956
p227
aVRANGER-1955
p228
aVRANGER-1954
p229
aVRANGER-1953
p230
aVRANGER-1952
p231
aVRANGER-1951
p232
aVRANGER-1950
p233
aVRANGER-1949
p234
aVRANGER-1948
p235
aVRANGER-1947
p236
aVRANGER-1946
p237
aVRANGER-1945
p238
aVRANGER-1944
p239
aVRANGER-1943
p240
aVRANGER-1942
p241
aVRANGER-1941
p242
aVRANGER-1940
p243
aVRANGER-1939
p244
aVRANGER-1938
p245
aVRANGER-1937
p246
aVRANGER-1936
p247
aVRANGER-1935
p248
aVRANGER-1934
p249
aVRANGER-1933
p250
aVRANGER-1932
p251
aVRANGER-1931
p252
aVRANGER-1930
p253
aVRANGER-1929
p254
aVRANGER-1928
p255
aVRANGER-1927
p256
aVRANGER-1926
p257
aVRANGER-1925
p258
aVRANGER-1924
p259
aVRANGER-1923
p260
aVRANGER-1922
p261
aVRANGER-1921
p262
aVRANGER-1920
p263
aVRANGER-1919
p264
aVRANGER-1918
p265
aVRANGER-1917
p266
aVRANGER-1916
p267
aVRANGER-1915
p268
aVRANGER-1914
p269
aVRANGER-1913
p270
aVRANGER-1912
p271
aVRANGER-1911
p272
aVRANGER-1910
p273
aVRANGER-1909
p274
aVRANGER-1908
p275
aVRANGER-1907
p276
aVRANGER-1906
p277
aVRANGER-1905
p278
aVRANGER-1904
p279
aVRANGER-1903
p280
aVRANGER-1902
p281
aVRANGER-1901
p282
aVRANGER-1900
p283
aVRANGER-1899
p284
aVRANGER-1898
p285
aVRANGER-1897
p286
aVRANGER-1896
p287
aVRANGER-1895
p288
aVRANGER-1894
p289
aVRANGER-1893
p290
aVRANGER-1892
p291
aVRANGER-1891
p292
aVRANGER-1890
p293
aVRANGER-1889
p294
aVRANGER-1888
p295
aVRANGER-1887
p296
aVRANGER-1886
p297
aVRANGER-1885
p298
aVRANGER-1884
p299
aVRANGER-1883
p300
aVRANGER-1882
p301
aVRANGER-1881
p302
aVRANGER-1880
p303
aVRANGER-1879
p304
aVRANGER-1878
p305
aVRANGER-1877
p306
aVRANGER-1876
p307
aVRANGER-1875
p308
aVRANGER-1874
p309
aVRANGER-1873
p310
aVRANGER-1872
p311
aVRANGER-1871
p312
aVRANGER-1870
p313
aVRANGER-1869
p314
aVRANGER-1868
p315
aVRANGER-1867
p316
aVRANGER-1866
p317
aVRANGER-1865
p318
aVRANGER-1864
p319
aVRANGER-1863
p320
aVRANGER-1862
p321
aVRANGER-1861
p322
aVRANGER-1860
p323
aVRANGER-1859
p324
aVRANGER-1858
p325
aVRANGER-1857
p326
aVRANGER-1856
p327
aVRANGER-1855
p328
aVRANGER-1854
p329
aVRANGER-1853
p330
aVRANGER-1852
p331
aVRANGER-1851
p332
aVRANGER-1850
p333
aVRANGER-1849
p334
aVRANGER-1848
p335
aVRANGER-1847
p336
aVRANGER-1846
p337
aVRANGER-1845
p338
aVRANGER-1844
p339
aVRANGER-1843
p340
aVRANGER-1842
p341
aVRANGER-1841
p342
aVRANGER-1840
p343
aVRANGER-1839
p344
aVRANGER-1838
p345
aVRANGER-1837
p346
aVRANGER-1836
p347
aVRANGER-1835
p348
aVRANGER-1834
p349
aVRANGER-1833
p350
aVRANGER-1832
p351
aVRANGER-1831
p352
aVRANGER-1830
p353
aVRANGER-1829
p354
aVRANGER-1828
p355
aVRANGER-1827
p356
aVRANGER-1826
p357
aVRANGER-1825
p358
aVRANGER-1824
p359
aVRANGER-1823
p360
aVRANGER-1822
p361
aVRANGER-1821
p362
aVRANGER-1820
p363
aVRANGER-1819
p364
aVRANGER-1818
p365
aVRANGER-1817
p366
aVRANGER-1816
p367
aVRANGER-1815
p368
aVRANGER-1814
p369
aVRANGER-1813
p370
aVRANGER-1812
p371
aVRANGER-1811
p372
aVRANGER-1810
p373
aVRANGER-1809
p374
aVRANGER-1808
p375
aVRANGER-1807
p376
aVRANGER-1806
p377
aVRANGER-1805
p378
aVRANGER-1804
p379
aVRANGER-1803
p380
aVRANGER-1802
p381
aVRANGER-1801
p382
aVRANGER-1800
p383
aVRANGER-1799
p384
aVRANGER-1798
p385
aVRANGER-1797
p386
aVRANGER-1796
p387
aVRANGER-1795
p388
aVRANGER-1794
p389
aVRANGER-1793
p390
aVRANGER-1792
p391
aVRANGER-1791
p392
aVRANGER-1790
p393
aVRANGER-1789
p394
aVRANGER-1788
p395
aVRANGER-1787
p396
aVRANGER-1786
p397
aVRANGER-1785
p398
aVRANGER-1784
p399
aVRANGER-1783
p400
aVRANGER-1782
p401
aVRANGER-1781
p402
aVRANGER-1780
p403
aVRANGER-1779
p404
aVRANGER-1778
p405
aVRANGER-1777
p406
aVRANGER-1776
p407
aVRANGER-1775
p408
aVRANGER-1774
p409
aVRANGER-1773
p410
aVRANGER-1772
p411
aVRANGER-1771
p412
aVRANGER-1770
p413
aVRANGER-1769
p414
aVRANGER-1768
p415
aVRANGER-1767
p416
aVRANGER-1766
p417
aVRANGER-1765
p418
aVRANGER-1764
p419
aVRANGER-1763
p420
aVRANGER-1762
p421
aVRANGER-1761
p422
aVRANGER-1760
p423
aVRANGER-1759
p424
aVRANGER-1758
p425
aVRANGER-1757
p426
aVRANGER-1756
p427
aVRANGER-1755
p428
aVRANGER-1754
p429
aVRANGER-1753
p430
aVRANGER-1752
p431
aVRANGER-1751
p432
aVRANGER-1750
p433
aVRANGER-1749
p434
aVRANGER-1748
p435
aVRANGER-1747
p436
aVRANGER-1746
p437
aVRANGER-1745
p438
aVRANGER-1744
p439
aVRANGER-1743
p440
aVRANGER-1742
p441
aVRANGER-1741
p442
aVRANGER-1740
p443
aVRANGER-1739
p444
aVRANGER-1738
p445
aVRANGER-1737
p446
aVRANGER-1736
p447
aVRANGER-1735
p448
aVRANGER-1734
p449
aVRANGER-1733
p450
aVRANGER-1732
p451
aVRANGER-1731
p452
aVRANGER-1730
p453
aVRANGER-1729
p454
aVRANGER-1728
p455
aVRANGER-1727
p456
aVRANGER-1726
p457
aVRANGER-1725
p458
aVRANGER-1724
p459
aVRANGER-1723
p460
aVRANGER-1722
p461
aVRANGER-1721
p462
aVRANGER-1720
p463
aVRANGER-1719
p464
aVRANGER-1718
p465
aVRANGER-1717
p466
aVRANGER-1716
p467
aVRANGER-1715
p468
aVRANGER-1714
p469
aVRANGER-1713
p470
aVRANGER-1712
p471
aVRANGER-1711
p472
aVRANGER-1710
p473
aVRANGER-1709
p474
aVRANGER-1708
p475
aVRANGER-1707
p476
aVRANGER-1706
p477
aVRANGER-1705
p478
aVRANGER-1704
p479
aVRANGER-1703
p480
aVRANGER-1702
p481
aVRANGER-1701
p482
aVRANGER-1700
p483
aVRANGER-1699
p484
aVRANGER-1698
p485
aVRANGER-1697
p486
aVRANGER-1696
p487
aVRANGER-1695
p488
aVRANGER-1694
p489
aVRANGER-1693
p490
aVRANGER-1692
p491
aVRANGER-1691
p492
aVRANGER-1690
p493
aVRANGER-1689
p494
aVRANGER-1688
p495
aVRANGER-1687
p496
aVRANGER-1686
p497
aVRANGER-1685
p498
aVRANGER-1684
p499
aVRANGER-1683
p500
aVRANGER-1682
p501
aVRANGER-1681
p502
aVRANGER-1680
p503
aVRANGER-1679
p504
aVRANGER-1678
p505
aVRANGER-1677
p506
aVRANGER-1676
p507
aVRANGER-1675
p508
aVRANGER-1674
p509
aVRANGER-1673
p510
aVRANGER-1672
p511
aVRANGER-1671
p512
aVRANGER-1670
p513
aVRANGER-1669
p514
aVRANGER-1668
p515
aVRANGER-1667
p516
aVRANGER-1666
p517
aVRANGER-1665
p518
aVRANGER-1664
p519
aVRANGER-1663
p520
aVRANGER-1662
p521
aVRANGER-1661
p522
aVRANGER-1660
p523
aVRANGER-1659
p524
aVRANGER-1658
p525
aVRANGER-1657
p526
aVRANGER-1656
p527
aVRANGER-1655
p528
aVRANGER-1654
p529
aVRANGER-1653
p530
aVRANGER-1652
p531
aVRANGER-1651
p532
aVRANGER-1650
p533
aVRANGER-1649
p534
aVRANGER-1648
p535
aVRANGER-1647
p536
aVRANGER-1646
p537
aVRANGER-1645
p538
aVRANGER-1644
p539
aVRANGER-1643
p540
aVRANGER-1642
p541
aVRANGER-1641
p542
aVRANGER-1640
p543
aVRANGER-1639
p544
aVRANGER-1638
p545
aVRANGER-1637
p546
aVRANGER-1636
p547
aVRANGER-1635
p548
aVRANGER-1634
p549
aVRANGER-1633
p550
aVRANGER-1632
p551
aVRANGER-1631
p552
aVRANGER-1630
p553
aVRANGER-1629
p554
aVRANGER-1628
p555
aVRANGER-1627
p556
aVRANGER-1626
p557
aVRANGER-1625
p558
aVRANGER-1624
p559
aVRANGER-1623
p560
aVRANGER-1622
p561
aVRANGER-1621
p562
aVRANGER-1620
p563
aVRANGER-1619
p564
aVRANGER-1618
p565
aVRANGER-1617
p566
aVRANGER-1616
p567
aVRANGER-1615
p568
aVRANGER-1614
p569
aVRANGER-1613
p570
aVRANGER-1612
p571
aVRANGER-1611
p572
aVRANGER-1610
p573
aVRANGER-1609
p574
aVRANGER-1608
p575
aVRANGER-1607
p576
aVRANGER-1606
p577
aVRANGER-1605
p578
aVRANGER-1604
p579
aVRANGER-1603
p580
aVRANGER-1602
p581
aVRANGER-1601
p582
aVRANGER-1600
p583
aVRANGER-1599
p584
aVRANGER-1598
p585
aVRANGER-1597
p586
aVRANGER-1596
p587
aVRANGER-1595
p588
aVRANGER-1594
p589
aVRANGER-1593
p590
aVRANGER-1592
p591
aVRANGER-1591
p592
aVRANGER-1590
p593
aVRANGER-1589
p594
aVRANGER-1588
p595
aVRANGER-1587
p596
aVRANGER-1586
p597
aVRANGER-1585
p598
aVRANGER-1584
p599
aVRANGER-1583
p600
aVRANGER-1582
p601
aVRANGER-1581
p602
aVRANGER-1580
p603
aVRANGER-1579
p604
aVRANGER-1578
p605
aVRANGER-1577
p606
aVRANGER-1576
p607
aVRANGER-1575
p608
aVRANGER-1574
p609
aVRANGER-1573
p610
aVRANGER-1572
p611
aVRANGER-1571
p612
aVRANGER-1570
p613
aVRANGER-1569
p614
aVRANGER-1568
p615
aVRANGER-1567
p616
aVRANGER-1566
p617
aVRANGER-1565
p618
aVRANGER-1564
p619
aVRANGER-1563
p620
aVRANGER-1562
p621
aVRANGER-1561
p622
aVRANGER-1560
p623
aVRANGER-1559
p624
aVRANGER-1558
p625
aVRANGER-1557
p626
aVRANGER-1556
p627
aVRANGER-1555
p628
aVRANGER-1554
p629
aVRANGER-1553
p630
aVRANGER-1552
p631
aVRANGER-1551
p632
aVRANGER-1550
p633
aVRANGER-1549
p634
aVRANGER-1548
p635
aVRANGER-1547
p636
aVRANGER-1546
p637
aVRANGER-1545
p638
aVRANGER-1544
p639
aVRANGER-1543
p640
aVRANGER-1542
p641
aVRANGER-1541
p642
aVRANGER-1540
p643
aVRANGER-1539
p644
aVRANGER-1538
p645
aVRANGER-1537
p646
aVRANGER-1536
p647
aVRANGER-1535
p648
aVRANGER-1534
p649
aVRANGER-1533
p650
aVRANGER-1532
p651
aVRANGER-1531
p652
aVRANGER-1530
p653
aVRANGER-1529
p654
aVRANGER-1528
p655
aVRANGER-1527
p656
aVRANGER-1526
p657
aVRANGER-1525
p658
aVRANGER-1524
p659
aVRANGER-1523
p660
aVRANGER-1522
p661
aVRANGER-1521
p662
aVRANGER-1520
p663
aVRANGER-1519
p664
aVRANGER-1518
p665
aVRANGER-1517
p666
aVRANGER-1516
p667
aVRANGER-1515
p668
aVRANGER-1514
p669
aVRANGER-1513
p670
aVRANGER-1512
p671
aVRANGER-1511
p672
aVRANGER-1510
p673
aVRANGER-1509
p674
aVRANGER-1508
p675
aVRANGER-1507
p676
aVRANGER-1506
p677
aVRANGER-1505
p678
aVRANGER-1504
p679
aVRANGER-1503
p680
aVRANGER-1502
p681
aVRANGER-1501
p682
aVRANGER-1500
p683
aVRANGER-1499
p684
aVRANGER-1498
p685
aVRANGER-1497
p686
aVRANGER-1496
p687
aVRANGER-1495
p688
aVRANGER-1494
p689
aVRANGER-1493
p690
aVRANGER-1492
p691
aVRANGER-1491
p692
aVRANGER-1490
p693
aVRANGER-1489
p694
aVRANGER-1488
p695
aVRANGER-1487
p696
aVRANGER-1486
p697
aVRANGER-1485
p698
aVRANGER-1484
p699
aVRANGER-1483
p700
aVRANGER-1482
p701
aVRANGER-1481
p702
aVRANGER-1480
p703
aVRANGER-1479
p704
aVRANGER-1478
p705
aVRANGER-1477
p706
aVRANGER-1476
p707
aVRANGER-1475
p708
aVRANGER-1474
p709
aVRANGER-1473
p710
aVRANGER-1472
p711
aVRANGER-1471
p712
aVRANGER-1470
p713
aVRANGER-1469
p714
aVRANGER-1468
p715
aVRANGER-1467
p716
aVRANGER-1466
p717
aVRANGER-1465
p718
aVRANGER-1464
p719
aVRANGER-1463
p720
aVRANGER-1462
p721
aVRANGER-1461
p722
aVRANGER-1460
p723
aVRANGER-1459
p724
aVRANGER-1458
p725
aVRANGER-1457
p726
aVRANGER-1456
p727
aVRANGER-1455
p728
aVRANGER-1454
p729
aVRANGER-1453
p730
aVRANGER-1452
p731
aVRANGER-1451
p732
aVRANGER-1450
p733
aVRANGER-1449
p734
aVRANGER-1448
p735
aVRANGER-1447
p736
aVRANGER-1446
p737
aVRANGER-1445
p738
aVRANGER-1444
p739
aVRANGER-1443
p740
aVRANGER-1442
p741
aVRANGER-1441
p742
aVRANGER-1440
p743
aVRANGER-1439
p744
aVRANGER-1438
p745
aVRANGER-1437
p746
aVRANGER-1436
p747
aVRANGER-1435
p748
aVRANGER-1434
p749
aVRANGER-1433
p750
aVRANGER-1432
p751
aVRANGER-1431
p752
aVRANGER-1430
p753
aVRANGER-1429
p754
aVRANGER-1428
p755
aVRANGER-1427
p756
aVRANGER-1426
p757
aVRANGER-1425
p758
aVRANGER-1424
p759
aVRANGER-1423
p760
aVRANGER-1422
p761
aVRANGER-1421
p762
aVRANGER-1420
p763
aVRANGER-1419
p764
aVRANGER-1418
p765
aVRANGER-1417
p766
aVRANGER-1416
p767
aVRANGER-1415
p768
aVRANGER-1414
p769
aVRANGER-1413
p770
aVRANGER-1412
p771
aVRANGER-1411
p772
aVRANGER-1410
p773
aVRANGER-1409
p774
aVRANGER-1408
p775
aVRANGER-1407
p776
aVRANGER-1406
p777
aVRANGER-1405
p778
aVRANGER-1404
p779
aVRANGER-1403
p780
aVRANGER-1402
p781
aVRANGER-1401
p782
aVRANGER-1400
p783
aVRANGER-1399
p784
aVRANGER-1398
p785
aVRANGER-1397
p786
aVRANGER-1396
p787
aVRANGER-1395
p788
aVRANGER-1394
p789
aVRANGER-1393
p790
aVRANGER-1392
p791
aVRANGER-1391
p792
aVRANGER-1390
p793
aVRANGER-1389
p794
aVRANGER-1388
p795
aVRANGER-1387
p796
aVRANGER-1386
p797
aVRANGER-1385
p798
aVRANGER-1384
p799
aVRANGER-1383
p800
aVRANGER-1382
p801
aVRANGER-1381
p802
aVRANGER-1380
p803
aVRANGER-1379
p804
aVRANGER-1378
p805
aVRANGER-1377
p806
aVRANGER-1376
p807
aVRANGER-1375
p808
aVRANGER-1374
p809
aVRANGER-1373
p810
aVRANGER-1372
p811
aVRANGER-1371
p812
aVRANGER-1370
p813
aVRANGER-1369
p814
aVRANGER-1368
p815
aVRANGER-1367
p816
aVRANGER-1366
p817
aVRANGER-1365
p818
aVRANGER-1364
p819
aVRANGER-1363
p820
aVRANGER-1362
p821
aVRANGER-1361
p822
aVRANGER-1360
p823
aVRANGER-1359
p824
aVRANGER-1358
p825
aVRANGER-1357
p826
aVRANGER-1356
p827
aVRANGER-1355
p828
aVRANGER-1354
p829
aVRANGER-1353
p830
aVRANGER-1352
p831
aVRANGER-1351
p832
aVRANGER-1350
p833
aVRANGER-1349
p834
aVRANGER-1348
p835
aVRANGER-1347
p836
aVRANGER-1345
p837
aVRANGER-1344
p838
aVRANGER-1343
p839
aVRANGER-1342
p840
aVRANGER-1341
p841
aVRANGER-1340
p842
aVRANGER-1339
p843
aVRANGER-1338
p844
aVRANGER-1337
p845
aVRANGER-1336
p846
aVRANGER-1335
p847
aVRANGER-1334
p848
aVRANGER-1333
p849
aVRANGER-1332
p850
aVRANGER-1331
p851
aVRANGER-1330
p852
aVRANGER-1329
p853
aVRANGER-1328
p854
aVRANGER-1327
p855
aVRANGER-1326
p856
aVRANGER-1325
p857
aVRANGER-1324
p858
aVRANGER-1323
p859
aVRANGER-1322
p860
aVRANGER-1321
p861
aVRANGER-1320
p862
aVRANGER-1319
p863
aVRANGER-1318
p864
aVRANGER-1317
p865
aVRANGER-1316
p866
aVRANGER-1315
p867
aVRANGER-1314
p868
aVRANGER-1313
p869
aVRANGER-1312
p870
aVRANGER-1311
p871
aVRANGER-1310
p872
aVRANGER-1309
p873
aVRANGER-1308
p874
aVRANGER-1307
p875
aVRANGER-1306
p876
aVRANGER-1305
p877
aVRANGER-1304
p878
aVRANGER-1303
p879
aVRANGER-1302
p880
aVRANGER-1301
p881
aVRANGER-1300
p882
aVRANGER-1299
p883
aVRANGER-1298
p884
aVRANGER-1297
p885
aVRANGER-1296
p886
aVRANGER-1295
p887
aVRANGER-1294
p888
aVRANGER-1293
p889
aVRANGER-1292
p890
aVRANGER-1291
p891
aVRANGER-1290
p892
aVRANGER-1289
p893
aVRANGER-1288
p894
aVRANGER-1287
p895
aVRANGER-1286
p896
aVRANGER-1285
p897
aVRANGER-1284
p898
aVRANGER-1283
p899
aVRANGER-1282
p900
aVRANGER-1281
p901
aVRANGER-1280
p902
aVRANGER-1279
p903
aVRANGER-1278
p904
aVRANGER-1277
p905
aVRANGER-1276
p906
aVRANGER-1275
p907
aVRANGER-1274
p908
aVRANGER-1273
p909
aVRANGER-1272
p910
aVRANGER-1271
p911
aVRANGER-1270
p912
aVRANGER-1269
p913
aVRANGER-1268
p914
aVRANGER-1267
p915
aVRANGER-1266
p916
aVRANGER-1265
p917
aVRANGER-1264
p918
aVRANGER-1263
p919
aVRANGER-1262
p920
aVRANGER-1261
p921
aVRANGER-1260
p922
aVRANGER-1259
p923
aVRANGER-1258
p924
aVRANGER-1257
p925
aVRANGER-1256
p926
aVRANGER-1255
p927
aVRANGER-1254
p928
aVRANGER-1253
p929
aVRANGER-1252
p930
aVRANGER-1251
p931
aVRANGER-1250
p932
aVRANGER-1249
p933
aVRANGER-1248
p934
aVRANGER-1247
p935
aVRANGER-1246
p936
aVRANGER-1245
p937
aVRANGER-1244
p938
aVRANGER-1243
p939
aVRANGER-1242
p940
aVRANGER-1241
p941
aVRANGER-1240
p942
aVRANGER-1239
p943
aVRANGER-1238
p944
aVRANGER-1237
p945
aVRANGER-1236
p946
aVRANGER-1235
p947
aVRANGER-1234
p948
aVRANGER-1233
p949
aVRANGER-1232
p950
aVRANGER-1231
p951
aVRANGER-1230
p952
aVRANGER-1229
p953
aVRANGER-1228
p954
aVRANGER-1227
p955
aVRANGER-1226
p956
aVRANGER-1225
p957
aVRANGER-1224
p958
aVRANGER-1223
p959
aVRANGER-1222
p960
aVRANGER-1221
p961
aVRANGER-1220
p962
aVRANGER-1219
p963
aVRANGER-1218
p964
aVRANGER-1217
p965
aVRANGER-1216
p966
aVRANGER-1215
p967
aVRANGER-1214
p968
aVRANGER-1213
p969
aVRANGER-1212
p970
aVRANGER-1211
p971
aVRANGER-1210
p972
aVRANGER-1209
p973
aVRANGER-1208
p974
aVRANGER-1207
p975
aVRANGER-1206
p976
aVRANGER-1205
p977
aVRANGER-1204
p978
aVRANGER-1203
p979
aVRANGER-1202
p980
aVRANGER-1201
p981
aVRANGER-1200
p982
aVRANGER-1199
p983
aVRANGER-1198
p984
aVRANGER-1197
p985
aVRANGER-1196
p986
aVRANGER-1195
p987
aVRANGER-1194
p988
aVRANGER-1193
p989
aVRANGER-1192
p990
aVRANGER-1191
p991
aVRANGER-1190
p992
aVRANGER-1189
p993
aVRANGER-1188
p994
aVRANGER-1187
p995
aVRANGER-1186
p996
aVRANGER-1185
p997
aVRANGER-1184
p998
aVRANGER-1183
p999
aVRANGER-1182
p1000
aVRANGER-1181
p1001
aVRANGER-1180
p1002
aVRANGER-1179
p1003
aVRANGER-1178
p1004
aVRANGER-1177
p1005
aVRANGER-1176
p1006
aVRANGER-1175
p1007
aVRANGER-1174
p1008
aVRANGER-1173
p1009
aVRANGER-1172
p1010
aVRANGER-1171
p1011
aVRANGER-1170
p1012
aVRANGER-1169
p1013
aVRANGER-1168
p1014
aVRANGER-1167
p1015
aVRANGER-1166
p1016
aVRANGER-1165
p1017
aVRANGER-1164
p1018
aVRANGER-1163
p1019
aVRANGER-1162
p1020
aVRANGER-1161
p1021
aVRANGER-1160
p1022
aVRANGER-1159
p1023
aVRANGER-1158
p1024
aVRANGER-1157
p1025
aVRANGER-1156
p1026
aVRANGER-1155
p1027
aVRANGER-1154
p1028
aVRANGER-1153
p1029
aVRANGER-1152
p1030
aVRANGER-1151
p1031
aVRANGER-1150
p1032
aVRANGER-1149
p1033
aVRANGER-1148
p1034
aVRANGER-1147
p1035
aVRANGER-1146
p1036
aVRANGER-1145
p1037
aVRANGER-1144
p1038
aVRANGER-1143
p1039
aVRANGER-1142
p1040
aVRANGER-1141
p1041
aVRANGER-1140
p1042
aVRANGER-1139
p1043
aVRANGER-1138
p1044
aVRANGER-1137
p1045
aVRANGER-1136
p1046
aVRANGER-1135
p1047
aVRANGER-1134
p1048
aVRANGER-1133
p1049
aVRANGER-1132
p1050
aVRANGER-1131
p1051
aVRANGER-1130
p1052
aVRANGER-1129
p1053
aVRANGER-1128
p1054
aVRANGER-1127
p1055
aVRANGER-1126
p1056
aVRANGER-1125
p1057
aVRANGER-1124
p1058
aVRANGER-1123
p1059
aVRANGER-1122
p1060
aVRANGER-1121
p1061
aVRANGER-1120
p1062
aVRANGER-1119
p1063
aVRANGER-1118
p1064
aVRANGER-1117
p1065
aVRANGER-1116
p1066
aVRANGER-1115
p1067
aVRANGER-1114
p1068
aVRANGER-1113
p1069
aVRANGER-1112
p1070
aVRANGER-1111
p1071
aVRANGER-1110
p1072
aVRANGER-1109
p1073
aVRANGER-1108
p1074
aVRANGER-1107
p1075
aVRANGER-1106
p1076
aVRANGER-1105
p1077
aVRANGER-1104
p1078
aVRANGER-1103
p1079
aVRANGER-1102
p1080
aVRANGER-1101
p1081
aVRANGER-1100
p1082
aVRANGER-1099
p1083
aVRANGER-1098
p1084
aVRANGER-1097
p1085
aVRANGER-1096
p1086
aVRANGER-1095
p1087
aVRANGER-1094
p1088
aVRANGER-1093
p1089
aVRANGER-1092
p1090
aVRANGER-1091
p1091
aVRANGER-1090
p1092
aVRANGER-1089
p1093
aVRANGER-1088
p1094
aVRANGER-1087
p1095
aVRANGER-1086
p1096
aVRANGER-1085
p1097
aVRANGER-1084
p1098
aVRANGER-1083
p1099
aVRANGER-1082
p1100
aVRANGER-1081
p1101
aVRANGER-1080
p1102
aVRANGER-1079
p1103
aVRANGER-1078
p1104
aVRANGER-1077
p1105
aVRANGER-1076
p1106
aVRANGER-1075
p1107
aVRANGER-1074
p1108
aVRANGER-1073
p1109
aVRANGER-1072
p1110
aVRANGER-1071
p1111
aVRANGER-1070
p1112
aVRANGER-1069
p1113
aVRANGER-1068
p1114
aVRANGER-1067
p1115
aVRANGER-1066
p1116
aVRANGER-1065
p1117
aVRANGER-1064
p1118
aVRANGER-1063
p1119
aVRANGER-1062
p1120
aVRANGER-1061
p1121
aVRANGER-1060
p1122
aVRANGER-1059
p1123
aVRANGER-1058
p1124
aVRANGER-1057
p1125
aVRANGER-1056
p1126
aVRANGER-1055
p1127
aVRANGER-1054
p1128
aVRANGER-1053
p1129
aVRANGER-1052
p1130
aVRANGER-1051
p1131
aVRANGER-1050
p1132
aVRANGER-1049
p1133
aVRANGER-1048
p1134
aVRANGER-1047
p1135
aVRANGER-1046
p1136
aVRANGER-1045
p1137
aVRANGER-1044
p1138
aVRANGER-1043
p1139
aVRANGER-1042
p1140
aVRANGER-1041
p1141
aVRANGER-1040
p1142
aVRANGER-1039
p1143
aVRANGER-1038
p1144
aVRANGER-1037
p1145
aVRANGER-1036
p1146
aVRANGER-1035
p1147
aVRANGER-1034
p1148
aVRANGER-1033
p1149
aVRANGER-1032
p1150
aVRANGER-1031
p1151
aVRANGER-1030
p1152
aVRANGER-1029
p1153
aVRANGER-1028
p1154
aVRANGER-1027
p1155
aVRANGER-1026
p1156
aVRANGER-1025
p1157
aVRANGER-1024
p1158
aVRANGER-1023
p1159
aVRANGER-1022
p1160
aVRANGER-1021
p1161
aVRANGER-1020
p1162
aVRANGER-1019
p1163
aVRANGER-1018
p1164
aVRANGER-1017
p1165
aVRANGER-1016
p1166
aVRANGER-1015
p1167
aVRANGER-1014
p1168
aVRANGER-1013
p1169
aVRANGER-1012
p1170
aVRANGER-1011
p1171
aVRANGER-1010
p1172
aVRANGER-1009
p1173
aVRANGER-1008
p1174
aVRANGER-1007
p1175
aVRANGER-1006
p1176
aVRANGER-1005
p1177
aVRANGER-1004
p1178
aVRANGER-1003
p1179
aVRANGER-1002
p1180
aVRANGER-1001
p1181
aVRANGER-1000
p1182
aVRANGER-999
p1183
aVRANGER-998
p1184
aVRANGER-997
p1185
aVRANGER-996
p1186
aVRANGER-995
p1187
aVRANGER-994
p1188
aVRANGER-993
p1189
aVRANGER-992
p1190
aVRANGER-991
p1191
aVRANGER-990
p1192
aVRANGER-989
p1193
aVRANGER-988
p1194
aVRANGER-987
p1195
aVRANGER-986
p1196
aVRANGER-985
p1197
aVRANGER-984
p1198
aVRANGER-983
p1199
aVRANGER-982
p1200
aVRANGER-981
p1201
aVRANGER-980
p1202
aVRANGER-979
p1203
aVRANGER-978
p1204
aVRANGER-977
p1205
aVRANGER-976
p1206
aVRANGER-975
p1207
aVRANGER-974
p1208
aVRANGER-973
p1209
aVRANGER-972
p1210
aVRANGER-971
p1211
aVRANGER-970
p1212
aVRANGER-969
p1213
aVRANGER-968
p1214
aVRANGER-967
p1215
aVRANGER-966
p1216
aVRANGER-965
p1217
aVRANGER-964
p1218
aVRANGER-963
p1219
aVRANGER-962
p1220
aVRANGER-961
p1221
aVRANGER-960
p1222
aVRANGER-959
p1223
aVRANGER-958
p1224
aVRANGER-957
p1225
aVRANGER-956
p1226
aVRANGER-955
p1227
aVRANGER-954
p1228
aVRANGER-953
p1229
aVRANGER-952
p1230
aVRANGER-951
p1231
aVRANGER-950
p1232
aVRANGER-949
p1233
aVRANGER-948
p1234
aVRANGER-947
p1235
aVRANGER-946
p1236
aVRANGER-945
p1237
aVRANGER-944
p1238
aVRANGER-942
p1239
aVRANGER-941
p1240
aVRANGER-940
p1241
aVRANGER-939
p1242
aVRANGER-938
p1243
aVRANGER-937
p1244
aVRANGER-936
p1245
aVRANGER-935
p1246
aVRANGER-934
p1247
aVRANGER-933
p1248
aVRANGER-932
p1249
aVRANGER-931
p1250
aVRANGER-930
p1251
aVRANGER-929
p1252
aVRANGER-928
p1253
aVRANGER-927
p1254
aVRANGER-926
p1255
aVRANGER-925
p1256
aVRANGER-924
p1257
aVRANGER-923
p1258
aVRANGER-922
p1259
aVRANGER-921
p1260
aVRANGER-920
p1261
aVRANGER-919
p1262
aVRANGER-918
p1263
aVRANGER-917
p1264
aVRANGER-916
p1265
aVRANGER-915
p1266
aVRANGER-914
p1267
aVRANGER-913
p1268
aVRANGER-912
p1269
aVRANGER-911
p1270
aVRANGER-910
p1271
aVRANGER-909
p1272
aVRANGER-908
p1273
aVRANGER-907
p1274
aVRANGER-906
p1275
aVRANGER-905
p1276
aVRANGER-904
p1277
aVRANGER-903
p1278
aVRANGER-902
p1279
aVRANGER-901
p1280
aVRANGER-900
p1281
aVRANGER-899
p1282
aVRANGER-898
p1283
aVRANGER-897
p1284
aVRANGER-896
p1285
aVRANGER-895
p1286
aVRANGER-894
p1287
aVRANGER-893
p1288
aVRANGER-892
p1289
aVRANGER-891
p1290
aVRANGER-890
p1291
aVRANGER-889
p1292
aVRANGER-888
p1293
aVRANGER-887
p1294
aVRANGER-886
p1295
aVRANGER-885
p1296
aVRANGER-884
p1297
aVRANGER-883
p1298
aVRANGER-882
p1299
aVRANGER-881
p1300
aVRANGER-880
p1301
aVRANGER-879
p1302
aVRANGER-878
p1303
aVRANGER-877
p1304
aVRANGER-876
p1305
aVRANGER-875
p1306
aVRANGER-874
p1307
aVRANGER-873
p1308
aVRANGER-872
p1309
aVRANGER-871
p1310
aVRANGER-870
p1311
aVRANGER-869
p1312
aVRANGER-868
p1313
aVRANGER-867
p1314
aVRANGER-866
p1315
aVRANGER-865
p1316
aVRANGER-864
p1317
aVRANGER-863
p1318
aVRANGER-862
p1319
aVRANGER-861
p1320
aVRANGER-860
p1321
aVRANGER-859
p1322
aVRANGER-858
p1323
aVRANGER-857
p1324
aVRANGER-856
p1325
aVRANGER-855
p1326
aVRANGER-854
p1327
aVRANGER-853
p1328
aVRANGER-852
p1329
aVRANGER-851
p1330
aVRANGER-850
p1331
aVRANGER-849
p1332
aVRANGER-848
p1333
aVRANGER-847
p1334
aVRANGER-846
p1335
aVRANGER-845
p1336
aVRANGER-844
p1337
aVRANGER-843
p1338
aVRANGER-842
p1339
aVRANGER-841
p1340
aVRANGER-840
p1341
aVRANGER-839
p1342
aVRANGER-838
p1343
aVRANGER-837
p1344
aVRANGER-836
p1345
aVRANGER-835
p1346
aVRANGER-834
p1347
aVRANGER-833
p1348
aVRANGER-832
p1349
aVRANGER-831
p1350
aVRANGER-830
p1351
aVRANGER-829
p1352
aVRANGER-828
p1353
aVRANGER-827
p1354
aVRANGER-826
p1355
aVRANGER-825
p1356
aVRANGER-824
p1357
aVRANGER-823
p1358
aVRANGER-822
p1359
aVRANGER-821
p1360
aVRANGER-820
p1361
aVRANGER-819
p1362
aVRANGER-818
p1363
aVRANGER-817
p1364
aVRANGER-816
p1365
aVRANGER-815
p1366
aVRANGER-814
p1367
aVRANGER-813
p1368
aVRANGER-812
p1369
aVRANGER-811
p1370
aVRANGER-810
p1371
aVRANGER-809
p1372
aVRANGER-808
p1373
aVRANGER-807
p1374
aVRANGER-806
p1375
aVRANGER-805
p1376
aVRANGER-804
p1377
aVRANGER-803
p1378
aVRANGER-802
p1379
aVRANGER-801
p1380
aVRANGER-800
p1381
aVRANGER-799
p1382
aVRANGER-798
p1383
aVRANGER-797
p1384
aVRANGER-796
p1385
aVRANGER-795
p1386
aVRANGER-794
p1387
aVRANGER-793
p1388
aVRANGER-792
p1389
aVRANGER-791
p1390
aVRANGER-790
p1391
aVRANGER-789
p1392
aVRANGER-788
p1393
aVRANGER-787
p1394
aVRANGER-786
p1395
aVRANGER-785
p1396
aVRANGER-784
p1397
aVRANGER-783
p1398
aVRANGER-782
p1399
aVRANGER-781
p1400
aVRANGER-780
p1401
aVRANGER-779
p1402
aVRANGER-778
p1403
aVRANGER-777
p1404
aVRANGER-776
p1405
aVRANGER-775
p1406
aVRANGER-773
p1407
aVRANGER-772
p1408
aVRANGER-771
p1409
aVRANGER-770
p1410
aVRANGER-769
p1411
aVRANGER-768
p1412
aVRANGER-767
p1413
aVRANGER-766
p1414
aVRANGER-765
p1415
aVRANGER-764
p1416
aVRANGER-763
p1417
aVRANGER-762
p1418
aVRANGER-761
p1419
aVRANGER-760
p1420
aVRANGER-759
p1421
aVRANGER-758
p1422
aVRANGER-757
p1423
aVRANGER-756
p1424
aVRANGER-755
p1425
aVRANGER-754
p1426
aVRANGER-753
p1427
aVRANGER-752
p1428
aVRANGER-751
p1429
aVRANGER-750
p1430
aVRANGER-749
p1431
aVRANGER-748
p1432
aVRANGER-747
p1433
aVRANGER-746
p1434
aVRANGER-745
p1435
aVRANGER-744
p1436
aVRANGER-743
p1437
aVRANGER-742
p1438
aVRANGER-741
p1439
aVRANGER-740
p1440
aVRANGER-739
p1441
aVRANGER-738
p1442
aVRANGER-737
p1443
aVRANGER-736
p1444
aVRANGER-735
p1445
aVRANGER-734
p1446
aVRANGER-733
p1447
aVRANGER-732
p1448
aVRANGER-731
p1449
aVRANGER-730
p1450
aVRANGER-729
p1451
aVRANGER-728
p1452
aVRANGER-727
p1453
aVRANGER-726
p1454
aVRANGER-725
p1455
aVRANGER-724
p1456
aVRANGER-723
p1457
aVRANGER-722
p1458
aVRANGER-721
p1459
aVRANGER-720
p1460
aVRANGER-719
p1461
aVRANGER-718
p1462
aVRANGER-717
p1463
aVRANGER-716
p1464
aVRANGER-715
p1465
aVRANGER-714
p1466
aVRANGER-713
p1467
aVRANGER-712
p1468
aVRANGER-711
p1469
aVRANGER-710
p1470
aVRANGER-709
p1471
aVRANGER-708
p1472
aVRANGER-707
p1473
aVRANGER-706
p1474
aVRANGER-705
p1475
aVRANGER-704
p1476
aVRANGER-703
p1477
aVRANGER-702
p1478
aVRANGER-701
p1479
aVRANGER-700
p1480
aVRANGER-699
p1481
aVRANGER-698
p1482
aVRANGER-697
p1483
aVRANGER-696
p1484
aVRANGER-695
p1485
aVRANGER-694
p1486
aVRANGER-693
p1487
aVRANGER-692
p1488
aVRANGER-691
p1489
aVRANGER-690
p1490
aVRANGER-689
p1491
aVRANGER-688
p1492
aVRANGER-687
p1493
aVRANGER-686
p1494
aVRANGER-685
p1495
aVRANGER-684
p1496
aVRANGER-683
p1497
aVRANGER-682
p1498
aVRANGER-681
p1499
aVRANGER-680
p1500
aVRANGER-679
p1501
aVRANGER-678
p1502
aVRANGER-677
p1503
aVRANGER-676
p1504
aVRANGER-675
p1505
aVRANGER-674
p1506
aVRANGER-673
p1507
aVRANGER-672
p1508
aVRANGER-671
p1509
aVRANGER-670
p1510
aVRANGER-669
p1511
aVRANGER-668
p1512
aVRANGER-667
p1513
aVRANGER-666
p1514
aVRANGER-665
p1515
aVRANGER-664
p1516
aVRANGER-663
p1517
aVRANGER-662
p1518
aVRANGER-661
p1519
aVRANGER-660
p1520
aVRANGER-659
p1521
aVRANGER-658
p1522
aVRANGER-657
p1523
aVRANGER-656
p1524
aVRANGER-655
p1525
aVRANGER-654
p1526
aVRANGER-653
p1527
aVRANGER-652
p1528
aVRANGER-651
p1529
aVRANGER-650
p1530
aVRANGER-649
p1531
aVRANGER-648
p1532
aVRANGER-647
p1533
aVRANGER-646
p1534
aVRANGER-645
p1535
aVRANGER-644
p1536
aVRANGER-643
p1537
aVRANGER-642
p1538
aVRANGER-641
p1539
aVRANGER-640
p1540
aVRANGER-639
p1541
aVRANGER-638
p1542
aVRANGER-637
p1543
aVRANGER-636
p1544
aVRANGER-635
p1545
aVRANGER-634
p1546
aVRANGER-633
p1547
aVRANGER-632
p1548
aVRANGER-631
p1549
aVRANGER-630
p1550
aVRANGER-629
p1551
aVRANGER-628
p1552
aVRANGER-627
p1553
aVRANGER-626
p1554
aVRANGER-625
p1555
aVRANGER-624
p1556
aVRANGER-623
p1557
aVRANGER-622
p1558
aVRANGER-621
p1559
aVRANGER-620
p1560
aVRANGER-619
p1561
aVRANGER-618
p1562
aVRANGER-617
p1563
aVRANGER-616
p1564
aVRANGER-615
p1565
aVRANGER-614
p1566
aVRANGER-613
p1567
aVRANGER-612
p1568
aVRANGER-611
p1569
aVRANGER-610
p1570
aVRANGER-609
p1571
aVRANGER-608
p1572
aVRANGER-607
p1573
aVRANGER-606
p1574
aVRANGER-605
p1575
aVRANGER-604
p1576
aVRANGER-603
p1577
aVRANGER-602
p1578
aVRANGER-601
p1579
aVRANGER-600
p1580
aVRANGER-599
p1581
aVRANGER-598
p1582
aVRANGER-597
p1583
aVRANGER-596
p1584
aVRANGER-595
p1585
aVRANGER-594
p1586
aVRANGER-593
p1587
aVRANGER-592
p1588
aVRANGER-591
p1589
aVRANGER-590
p1590
aVRANGER-589
p1591
aVRANGER-588
p1592
aVRANGER-587
p1593
aVRANGER-586
p1594
aVRANGER-585
p1595
aVRANGER-584
p1596
aVRANGER-583
p1597
aVRANGER-582
p1598
aVRANGER-581
p1599
aVRANGER-580
p1600
aVRANGER-579
p1601
aVRANGER-578
p1602
aVRANGER-577
p1603
aVRANGER-576
p1604
aVRANGER-575
p1605
aVRANGER-574
p1606
aVRANGER-573
p1607
aVRANGER-572
p1608
aVRANGER-571
p1609
aVRANGER-570
p1610
aVRANGER-569
p1611
aVRANGER-568
p1612
aVRANGER-567
p1613
aVRANGER-566
p1614
aVRANGER-565
p1615
aVRANGER-564
p1616
aVRANGER-563
p1617
aVRANGER-562
p1618
aVRANGER-561
p1619
aVRANGER-560
p1620
aVRANGER-559
p1621
aVRANGER-558
p1622
aVRANGER-557
p1623
aVRANGER-556
p1624
aVRANGER-555
p1625
aVRANGER-554
p1626
aVRANGER-553
p1627
aVRANGER-552
p1628
aVRANGER-551
p1629
aVRANGER-550
p1630
aVRANGER-549
p1631
aVRANGER-548
p1632
aVRANGER-547
p1633
aVRANGER-546
p1634
aVRANGER-545
p1635
aVRANGER-544
p1636
aVRANGER-543
p1637
aVRANGER-542
p1638
aVRANGER-541
p1639
aVRANGER-540
p1640
aVRANGER-539
p1641
aVRANGER-538
p1642
aVRANGER-537
p1643
aVRANGER-536
p1644
aVRANGER-535
p1645
aVRANGER-534
p1646
aVRANGER-533
p1647
aVRANGER-532
p1648
aVRANGER-531
p1649
aVRANGER-530
p1650
aVRANGER-529
p1651
aVRANGER-528
p1652
aVRANGER-527
p1653
aVRANGER-526
p1654
aVRANGER-525
p1655
aVRANGER-524
p1656
aVRANGER-523
p1657
aVRANGER-522
p1658
aVRANGER-521
p1659
aVRANGER-520
p1660
aVRANGER-519
p1661
aVRANGER-518
p1662
aVRANGER-517
p1663
aVRANGER-516
p1664
aVRANGER-515
p1665
aVRANGER-514
p1666
aVRANGER-513
p1667
aVRANGER-512
p1668
aVRANGER-511
p1669
aVRANGER-510
p1670
aVRANGER-509
p1671
aVRANGER-508
p1672
aVRANGER-507
p1673
aVRANGER-506
p1674
aVRANGER-505
p1675
aVRANGER-504
p1676
aVRANGER-503
p1677
aVRANGER-502
p1678
aVRANGER-501
p1679
aVRANGER-500
p1680
aVRANGER-499
p1681
aVRANGER-498
p1682
aVRANGER-497
p1683
aVRANGER-496
p1684
aVRANGER-495
p1685
aVRANGER-494
p1686
aVRANGER-493
p1687
aVRANGER-492
p1688
aVRANGER-491
p1689
aVRANGER-490
p1690
aVRANGER-489
p1691
aVRANGER-488
p1692
aVRANGER-487
p1693
aVRANGER-486
p1694
aVRANGER-485
p1695
aVRANGER-484
p1696
aVRANGER-483
p1697
aVRANGER-482
p1698
aVRANGER-481
p1699
aVRANGER-480
p1700
aVRANGER-479
p1701
aVRANGER-478
p1702
aVRANGER-477
p1703
aVRANGER-476
p1704
aVRANGER-475
p1705
aVRANGER-474
p1706
aVRANGER-473
p1707
aVRANGER-472
p1708
aVRANGER-471
p1709
aVRANGER-470
p1710
aVRANGER-469
p1711
aVRANGER-468
p1712
aVRANGER-467
p1713
aVRANGER-466
p1714
aVRANGER-465
p1715
aVRANGER-464
p1716
aVRANGER-463
p1717
aVRANGER-462
p1718
aVRANGER-461
p1719
aVRANGER-460
p1720
aVRANGER-459
p1721
aVRANGER-458
p1722
aVRANGER-457
p1723
aVRANGER-456
p1724
aVRANGER-455
p1725
aVRANGER-454
p1726
aVRANGER-453
p1727
aVRANGER-452
p1728
aVRANGER-451
p1729
aVRANGER-450
p1730
aVRANGER-449
p1731
aVRANGER-448
p1732
aVRANGER-447
p1733
aVRANGER-446
p1734
aVRANGER-445
p1735
aVRANGER-444
p1736
aVRANGER-443
p1737
aVRANGER-442
p1738
aVRANGER-441
p1739
aVRANGER-440
p1740
aVRANGER-439
p1741
aVRANGER-438
p1742
aVRANGER-437
p1743
aVRANGER-436
p1744
aVRANGER-435
p1745
aVRANGER-434
p1746
aVRANGER-433
p1747
aVRANGER-432
p1748
aVRANGER-431
p1749
aVRANGER-430
p1750
aVRANGER-429
p1751
aVRANGER-428
p1752
aVRANGER-427
p1753
aVRANGER-426
p1754
aVRANGER-425
p1755
aVRANGER-424
p1756
aVRANGER-423
p1757
aVRANGER-422
p1758
aVRANGER-421
p1759
aVRANGER-420
p1760
aVRANGER-419
p1761
aVRANGER-418
p1762
aVRANGER-417
p1763
aVRANGER-416
p1764
aVRANGER-415
p1765
aVRANGER-414
p1766
aVRANGER-413
p1767
aVRANGER-412
p1768
aVRANGER-411
p1769
aVRANGER-410
p1770
aVRANGER-409
p1771
aVRANGER-408
p1772
aVRANGER-407
p1773
aVRANGER-406
p1774
aVRANGER-405
p1775
aVRANGER-404
p1776
aVRANGER-403
p1777
aVRANGER-402
p1778
aVRANGER-401
p1779
aVRANGER-400
p1780
aVRANGER-399
p1781
aVRANGER-398
p1782
aVRANGER-397
p1783
aVRANGER-396
p1784
aVRANGER-395
p1785
aVRANGER-394
p1786
aVRANGER-393
p1787
aVRANGER-392
p1788
aVRANGER-391
p1789
aVRANGER-390
p1790
aVRANGER-389
p1791
aVRANGER-388
p1792
aVRANGER-387
p1793
aVRANGER-386
p1794
aVRANGER-385
p1795
aVRANGER-384
p1796
aVRANGER-383
p1797
aVRANGER-382
p1798
aVRANGER-381
p1799
aVRANGER-380
p1800
aVRANGER-379
p1801
aVRANGER-378
p1802
aVRANGER-377
p1803
aVRANGER-376
p1804
aVRANGER-375
p1805
aVRANGER-374
p1806
aVRANGER-373
p1807
aVRANGER-372
p1808
aVRANGER-371
p1809
aVRANGER-370
p1810
aVRANGER-369
p1811
aVRANGER-368
p1812
aVRANGER-367
p1813
aVRANGER-366
p1814
aVRANGER-365
p1815
aVRANGER-364
p1816
aVRANGER-363
p1817
aVRANGER-362
p1818
aVRANGER-361
p1819
aVRANGER-360
p1820
aVRANGER-359
p1821
aVRANGER-358
p1822
aVRANGER-357
p1823
aVRANGER-356
p1824
aVRANGER-355
p1825
aVRANGER-354
p1826
aVRANGER-353
p1827
aVRANGER-352
p1828
aVRANGER-351
p1829
aVRANGER-350
p1830
aVRANGER-349
p1831
aVRANGER-348
p1832
aVRANGER-347
p1833
aVRANGER-346
p1834
aVRANGER-345
p1835
aVRANGER-344
p1836
aVRANGER-343
p1837
aVRANGER-342
p1838
aVRANGER-341
p1839
aVRANGER-340
p1840
aVRANGER-339
p1841
aVRANGER-338
p1842
aVRANGER-337
p1843
aVRANGER-336
p1844
aVRANGER-335
p1845
aVRANGER-334
p1846
aVRANGER-333
p1847
aVRANGER-332
p1848
aVRANGER-331
p1849
aVRANGER-330
p1850
aVRANGER-329
p1851
aVRANGER-328
p1852
aVRANGER-327
p1853
aVRANGER-326
p1854
aVRANGER-325
p1855
aVRANGER-324
p1856
aVRANGER-323
p1857
aVRANGER-322
p1858
aVRANGER-321
p1859
aVRANGER-320
p1860
aVRANGER-319
p1861
aVRANGER-318
p1862
aVRANGER-317
p1863
aVRANGER-316
p1864
aVRANGER-315
p1865
aVRANGER-314
p1866
aVRANGER-313
p1867
aVRANGER-312
p1868
aVRANGER-311
p1869
aVRANGER-310
p1870
aVRANGER-309
p1871
aVRANGER-308
p1872
aVRANGER-307
p1873
aVRANGER-306
p1874
aVRANGER-305
p1875
aVRANGER-304
p1876
aVRANGER-303
p1877
aVRANGER-302
p1878
aVRANGER-301
p1879
aVRANGER-300
p1880
aVRANGER-299
p1881
aVRANGER-298
p1882
aVRANGER-297
p1883
aVRANGER-296
p1884
aVRANGER-295
p1885
aVRANGER-294
p1886
aVRANGER-293
p1887
aVRANGER-292
p1888
aVRANGER-291
p1889
aVRANGER-290
p1890
aVRANGER-289
p1891
aVRANGER-288
p1892
aVRANGER-287
p1893
aVRANGER-286
p1894
aVRANGER-285
p1895
aVRANGER-284
p1896
aVRANGER-283
p1897
aVRANGER-282
p1898
aVRANGER-281
p1899
aVRANGER-280
p1900
aVRANGER-279
p1901
aVRANGER-278
p1902
aVRANGER-277
p1903
aVRANGER-276
p1904
aVRANGER-275
p1905
aVRANGER-274
p1906
aVRANGER-273
p1907
aVRANGER-272
p1908
aVRANGER-271
p1909
aVRANGER-270
p1910
aVRANGER-269
p1911
aVRANGER-268
p1912
aVRANGER-267
p1913
aVRANGER-266
p1914
aVRANGER-265
p1915
aVRANGER-264
p1916
aVRANGER-263
p1917
aVRANGER-262
p1918
aVRANGER-261
p1919
aVRANGER-260
p1920
aVRANGER-259
p1921
aVRANGER-258
p1922
aVRANGER-257
p1923
aVRANGER-256
p1924
aVRANGER-255
p1925
aVRANGER-254
p1926
aVRANGER-253
p1927
aVRANGER-252
p1928
aVRANGER-251
p1929
aVRANGER-250
p1930
aVRANGER-249
p1931
aVRANGER-248
p1932
aVRANGER-247
p1933
aVRANGER-246
p1934
aVRANGER-245
p1935
aVRANGER-244
p1936
aVRANGER-243
p1937
aVRANGER-242
p1938
aVRANGER-241
p1939
aVRANGER-240
p1940
aVRANGER-239
p1941
aVRANGER-238
p1942
aVRANGER-237
p1943
aVRANGER-236
p1944
aVRANGER-235
p1945
aVRANGER-234
p1946
aVRANGER-233
p1947
aVRANGER-232
p1948
aVRANGER-231
p1949
aVRANGER-230
p1950
aVRANGER-229
p1951
aVRANGER-228
p1952
aVRANGER-227
p1953
aVRANGER-226
p1954
aVRANGER-225
p1955
aVRANGER-224
p1956
aVRANGER-223
p1957
aVRANGER-222
p1958
aVRANGER-221
p1959
aVRANGER-220
p1960
aVRANGER-219
p1961
aVRANGER-218
p1962
aVRANGER-217
p1963
aVRANGER-216
p1964
aVRANGER-215
p1965
aVRANGER-214
p1966
aVRANGER-213
p1967
aVRANGER-212
p1968
aVRANGER-211
p1969
aVRANGER-210
p1970
aVRANGER-209
p1971
aVRANGER-208
p1972
aVRANGER-207
p1973
aVRANGER-206
p1974
aVRANGER-205
p1975
aVRANGER-204
p1976
aVRANGER-203
p1977
aVRANGER-202
p1978
aVRANGER-201
p1979
aVRANGER-200
p1980
aVRANGER-199
p1981
aVRANGER-198
p1982
aVRANGER-197
p1983
aVRANGER-196
p1984
aVRANGER-195
p1985
aVRANGER-194
p1986
aVRANGER-193
p1987
aVRANGER-192
p1988
aVRANGER-191
p1989
aVRANGER-190
p1990
aVRANGER-189
p1991
aVRANGER-188
p1992
aVRANGER-187
p1993
aVRANGER-186
p1994
aVRANGER-185
p1995
aVRANGER-184
p1996
aVRANGER-183
p1997
aVRANGER-182
p1998
aVRANGER-181
p1999
aVRANGER-180
p2000
aVRANGER-179
p2001
aVRANGER-178
p2002
aVRANGER-177
p2003
aVRANGER-176
p2004
aVRANGER-175
p2005
aVRANGER-174
p2006
aVRANGER-173
p2007
aVRANGER-172
p2008
aVRANGER-171
p2009
aVRANGER-170
p2010
aVRANGER-169
p2011
aVRANGER-168
p2012
aVRANGER-167
p2013
aVRANGER-166
p2014
aVRANGER-165
p2015
aVRANGER-164
p2016
aVRANGER-163
p2017
aVRANGER-162
p2018
aVRANGER-161
p2019
aVRANGER-160
p2020
aVRANGER-159
p2021
aVRANGER-158
p2022
aVRANGER-157
p2023
aVRANGER-156
p2024
aVRANGER-155
p2025
aVRANGER-154
p2026
aVRANGER-153
p2027
aVRANGER-152
p2028
aVRANGER-151
p2029
aVRANGER-150
p2030
aVRANGER-149
p2031
aVRANGER-148
p2032
aVRANGER-147
p2033
aVRANGER-146
p2034
aVRANGER-145
p2035
aVRANGER-144
p2036
aVRANGER-143
p2037
aVRANGER-142
p2038
aVRANGER-141
p2039
aVRANGER-140
p2040
aVRANGER-139
p2041
aVRANGER-138
p2042
aVRANGER-137
p2043
aVRANGER-136
p2044
aVRANGER-135
p2045
aVRANGER-134
p2046
aVRANGER-133
p2047
aVRANGER-132
p2048
aVRANGER-131
p2049
aVRANGER-130
p2050
aVRANGER-129
p2051
aVRANGER-128
p2052
aVRANGER-127
p2053
aVRANGER-126
p2054
aVRANGER-125
p2055
aVRANGER-124
p2056
aVRANGER-123
p2057
aVRANGER-122
p2058
aVRANGER-121
p2059
aVRANGER-120
p2060
aVRANGER-119
p2061
aVRANGER-118
p2062
aVRANGER-117
p2063
aVRANGER-116
p2064
aVRANGER-115
p2065
aVRANGER-114
p2066
aVRANGER-113
p2067
aVRANGER-112
p2068
aVRANGER-111
p2069
aVRANGER-110
p2070
aVRANGER-109
p2071
aVRANGER-108
p2072
aVRANGER-107
p2073
aVRANGER-106
p2074
aVRANGER-105
p2075
aVRANGER-104
p2076
aVRANGER-103
p2077
aVRANGER-102
p2078
aVRANGER-101
p2079
aVRANGER-100
p2080
aVRANGER-99
p2081
aVRANGER-98
p2082
aVRANGER-97
p2083
aVRANGER-96
p2084
aVRANGER-95
p2085
aVRANGER-94
p2086
aVRANGER-93
p2087
aVRANGER-92
p2088
aVRANGER-91
p2089
aVRANGER-90
p2090
aVRANGER-89
p2091
aVRANGER-88
p2092
aVRANGER-87
p2093
aVRANGER-86
p2094
aVRANGER-85
p2095
aVRANGER-84
p2096
aVRANGER-83
p2097
aVRANGER-82
p2098
aVRANGER-81
p2099
aVRANGER-80
p2100
aVRANGER-79
p2101
aVRANGER-78
p2102
aVRANGER-77
p2103
aVRANGER-76
p2104
aVRANGER-75
p2105
aVRANGER-74
p2106
aVRANGER-73
p2107
aVRANGER-72
p2108
aVRANGER-71
p2109
aVRANGER-70
p2110
aVRANGER-69
p2111
aVRANGER-68
p2112
aVRANGER-67
p2113
aVRANGER-66
p2114
aVRANGER-65
p2115
aVRANGER-64
p2116
aVRANGER-63
p2117
aVRANGER-62
p2118
aVRANGER-61
p2119
aVRANGER-60
p2120
aVRANGER-59
p2121
aVRANGER-58
p2122
aVRANGER-57
p2123
aVRANGER-56
p2124
aVRANGER-55
p2125
aVRANGER-54
p2126
aVRANGER-53
p2127
aVRANGER-52
p2128
aVRANGER-51
p2129
aVRANGER-50
p2130
aVRANGER-49
p2131
aVRANGER-48
p2132
aVRANGER-47
p2133
aVRANGER-46
p2134
aVRANGER-45
p2135
aVRANGER-44
p2136
aVRANGER-43
p2137
aVRANGER-42
p2138
aVRANGER-41
p2139
aVRANGER-40
p2140
aVRANGER-39
p2141
aVRANGER-38
p2142
aVRANGER-37
p2143
aVRANGER-36
p2144
aVRANGER-35
p2145
aVRANGER-34
p2146
aVRANGER-33
p2147
aVRANGER-32
p2148
aVRANGER-31
p2149
aVRANGER-30
p2150
aVRANGER-29
p2151
aVRANGER-28
p2152
aVRANGER-27
p2153
aVRANGER-26
p2154
aVRANGER-25
p2155
aVRANGER-24
p2156
aVRANGER-23
p2157
aVRANGER-22
p2158
aVRANGER-21
p2159
aVRANGER-20
p2160
aVRANGER-19
p2161
aVRANGER-18
p2162
aVRANGER-17
p2163
aVRANGER-16
p2164
aVRANGER-15
p2165
aVRANGER-14
p2166
aVRANGER-13
p2167
aVRANGER-12
p2168
aVRANGER-11
p2169
aVRANGER-10
p2170
aVRANGER-9
p2171
aVRANGER-8
p2172
aVRANGER-7
p2173
aVRANGER-6
p2174
aVRANGER-5
p2175
aVRANGER-4
p2176
aVRANGER-3
p2177
aVRANGER-2
p2178
aVRANGER-1
p2179
a.