(lp0
VRAT-249
p1
aVRAT-248
p2
aVRAT-247
p3
aVRAT-246
p4
aVRAT-245
p5
aVRAT-244
p6
aVRAT-243
p7
aVRAT-242
p8
aVRAT-241
p9
aVRAT-240
p10
aVRAT-239
p11
aVRAT-238
p12
aVRAT-237
p13
aVRAT-236
p14
aVRAT-235
p15
aVRAT-234
p16
aVRAT-233
p17
aVRAT-232
p18
aVRAT-231
p19
aVRAT-230
p20
aVRAT-229
p21
aVRAT-228
p22
aVRAT-227
p23
aVRAT-226
p24
aVRAT-225
p25
aVRAT-224
p26
aVRAT-223
p27
aVRAT-222
p28
aVRAT-221
p29
aVRAT-220
p30
aVRAT-219
p31
aVRAT-218
p32
aVRAT-217
p33
aVRAT-216
p34
aVRAT-215
p35
aVRAT-214
p36
aVRAT-213
p37
aVRAT-212
p38
aVRAT-211
p39
aVRAT-210
p40
aVRAT-209
p41
aVRAT-208
p42
aVRAT-207
p43
aVRAT-206
p44
aVRAT-204
p45
aVRAT-203
p46
aVRAT-202
p47
aVRAT-201
p48
aVRAT-200
p49
aVRAT-199
p50
aVRAT-198
p51
aVRAT-197
p52
aVRAT-196
p53
aVRAT-195
p54
aVRAT-194
p55
aVRAT-193
p56
aVRAT-192
p57
aVRAT-191
p58
aVRAT-190
p59
aVRAT-189
p60
aVRAT-188
p61
aVRAT-187
p62
aVRAT-186
p63
aVRAT-185
p64
aVRAT-184
p65
aVRAT-183
p66
aVRAT-182
p67
aVRAT-181
p68
aVRAT-180
p69
aVRAT-179
p70
aVRAT-178
p71
aVRAT-177
p72
aVRAT-176
p73
aVRAT-175
p74
aVRAT-174
p75
aVRAT-173
p76
aVRAT-172
p77
aVRAT-171
p78
aVRAT-170
p79
aVRAT-169
p80
aVRAT-168
p81
aVRAT-167
p82
aVRAT-165
p83
aVRAT-164
p84
aVRAT-163
p85
aVRAT-162
p86
aVRAT-161
p87
aVRAT-160
p88
aVRAT-159
p89
aVRAT-158
p90
aVRAT-157
p91
aVRAT-156
p92
aVRAT-155
p93
aVRAT-154
p94
aVRAT-153
p95
aVRAT-152
p96
aVRAT-151
p97
aVRAT-150
p98
aVRAT-149
p99
aVRAT-148
p100
aVRAT-147
p101
aVRAT-146
p102
aVRAT-145
p103
aVRAT-144
p104
aVRAT-143
p105
aVRAT-142
p106
aVRAT-141
p107
aVRAT-140
p108
aVRAT-139
p109
aVRAT-138
p110
aVRAT-137
p111
aVRAT-136
p112
aVRAT-135
p113
aVRAT-134
p114
aVRAT-133
p115
aVRAT-132
p116
aVRAT-131
p117
aVRAT-130
p118
aVRAT-129
p119
aVRAT-128
p120
aVRAT-127
p121
aVRAT-126
p122
aVRAT-125
p123
aVRAT-124
p124
aVRAT-123
p125
aVRAT-122
p126
aVRAT-121
p127
aVRAT-120
p128
aVRAT-119
p129
aVRAT-118
p130
aVRAT-117
p131
aVRAT-116
p132
aVRAT-115
p133
aVRAT-114
p134
aVRAT-113
p135
aVRAT-112
p136
aVRAT-111
p137
aVRAT-110
p138
aVRAT-109
p139
aVRAT-108
p140
aVRAT-107
p141
aVRAT-106
p142
aVRAT-105
p143
aVRAT-104
p144
aVRAT-103
p145
aVRAT-102
p146
aVRAT-101
p147
aVRAT-100
p148
aVRAT-99
p149
aVRAT-98
p150
aVRAT-97
p151
aVRAT-96
p152
aVRAT-95
p153
aVRAT-94
p154
aVRAT-93
p155
aVRAT-92
p156
aVRAT-91
p157
aVRAT-90
p158
aVRAT-89
p159
aVRAT-88
p160
aVRAT-87
p161
aVRAT-86
p162
aVRAT-85
p163
aVRAT-84
p164
aVRAT-83
p165
aVRAT-82
p166
aVRAT-81
p167
aVRAT-80
p168
aVRAT-79
p169
aVRAT-78
p170
aVRAT-77
p171
aVRAT-76
p172
aVRAT-75
p173
aVRAT-74
p174
aVRAT-73
p175
aVRAT-72
p176
aVRAT-71
p177
aVRAT-70
p178
aVRAT-69
p179
aVRAT-68
p180
aVRAT-67
p181
aVRAT-66
p182
aVRAT-65
p183
aVRAT-64
p184
aVRAT-63
p185
aVRAT-62
p186
aVRAT-61
p187
aVRAT-60
p188
aVRAT-59
p189
aVRAT-58
p190
aVRAT-57
p191
aVRAT-56
p192
aVRAT-55
p193
aVRAT-54
p194
aVRAT-53
p195
aVRAT-52
p196
aVRAT-51
p197
aVRAT-50
p198
aVRAT-49
p199
aVRAT-48
p200
aVRAT-47
p201
aVRAT-46
p202
aVRAT-45
p203
aVRAT-44
p204
aVRAT-43
p205
aVRAT-42
p206
aVRAT-41
p207
aVRAT-40
p208
aVRAT-39
p209
aVRAT-38
p210
aVRAT-37
p211
aVRAT-36
p212
aVRAT-35
p213
aVRAT-34
p214
aVRAT-33
p215
aVRAT-32
p216
aVRAT-31
p217
aVRAT-30
p218
aVRAT-29
p219
aVRAT-28
p220
aVRAT-27
p221
aVRAT-26
p222
aVRAT-25
p223
aVRAT-24
p224
aVRAT-23
p225
aVRAT-22
p226
aVRAT-21
p227
aVRAT-20
p228
aVRAT-19
p229
aVRAT-18
p230
aVRAT-17
p231
aVRAT-16
p232
aVRAT-15
p233
aVRAT-14
p234
aVRAT-13
p235
aVRAT-12
p236
aVRAT-11
p237
aVRAT-10
p238
aVRAT-9
p239
aVRAT-8
p240
aVRAT-7
p241
aVRAT-6
p242
aVRAT-5
p243
aVRAT-4
p244
aVRAT-3
p245
aVRAT-2
p246
aVRAT-1
p247
a.