(lp0
VRAVE-1293
p1
aVRAVE-1292
p2
aVRAVE-1291
p3
aVRAVE-1290
p4
aVRAVE-1289
p5
aVRAVE-1288
p6
aVRAVE-1287
p7
aVRAVE-1286
p8
aVRAVE-1285
p9
aVRAVE-1284
p10
aVRAVE-1283
p11
aVRAVE-1282
p12
aVRAVE-1281
p13
aVRAVE-1280
p14
aVRAVE-1279
p15
aVRAVE-1278
p16
aVRAVE-1277
p17
aVRAVE-1276
p18
aVRAVE-1275
p19
aVRAVE-1274
p20
aVRAVE-1273
p21
aVRAVE-1272
p22
aVRAVE-1271
p23
aVRAVE-1270
p24
aVRAVE-1269
p25
aVRAVE-1268
p26
aVRAVE-1267
p27
aVRAVE-1266
p28
aVRAVE-1265
p29
aVRAVE-1264
p30
aVRAVE-1263
p31
aVRAVE-1262
p32
aVRAVE-1261
p33
aVRAVE-1260
p34
aVRAVE-1259
p35
aVRAVE-1258
p36
aVRAVE-1257
p37
aVRAVE-1256
p38
aVRAVE-1255
p39
aVRAVE-1254
p40
aVRAVE-1253
p41
aVRAVE-1252
p42
aVRAVE-1251
p43
aVRAVE-1250
p44
aVRAVE-1249
p45
aVRAVE-1248
p46
aVRAVE-1247
p47
aVRAVE-1246
p48
aVRAVE-1245
p49
aVRAVE-1244
p50
aVRAVE-1243
p51
aVRAVE-1242
p52
aVRAVE-1241
p53
aVRAVE-1240
p54
aVRAVE-1239
p55
aVRAVE-1238
p56
aVRAVE-1237
p57
aVRAVE-1236
p58
aVRAVE-1235
p59
aVRAVE-1234
p60
aVRAVE-1233
p61
aVRAVE-1232
p62
aVRAVE-1231
p63
aVRAVE-1230
p64
aVRAVE-1229
p65
aVRAVE-1228
p66
aVRAVE-1227
p67
aVRAVE-1226
p68
aVRAVE-1225
p69
aVRAVE-1224
p70
aVRAVE-1223
p71
aVRAVE-1222
p72
aVRAVE-1221
p73
aVRAVE-1220
p74
aVRAVE-1219
p75
aVRAVE-1218
p76
aVRAVE-1217
p77
aVRAVE-1216
p78
aVRAVE-1215
p79
aVRAVE-1214
p80
aVRAVE-1213
p81
aVRAVE-1212
p82
aVRAVE-1211
p83
aVRAVE-1210
p84
aVRAVE-1209
p85
aVRAVE-1208
p86
aVRAVE-1207
p87
aVRAVE-1206
p88
aVRAVE-1205
p89
aVRAVE-1204
p90
aVRAVE-1203
p91
aVRAVE-1202
p92
aVRAVE-1201
p93
aVRAVE-1200
p94
aVRAVE-1199
p95
aVRAVE-1198
p96
aVRAVE-1197
p97
aVRAVE-1196
p98
aVRAVE-1195
p99
aVRAVE-1194
p100
aVRAVE-1193
p101
aVRAVE-1192
p102
aVRAVE-1191
p103
aVRAVE-1190
p104
aVRAVE-1189
p105
aVRAVE-1188
p106
aVRAVE-1187
p107
aVRAVE-1186
p108
aVRAVE-1185
p109
aVRAVE-1184
p110
aVRAVE-1183
p111
aVRAVE-1182
p112
aVRAVE-1181
p113
aVRAVE-1180
p114
aVRAVE-1179
p115
aVRAVE-1178
p116
aVRAVE-1177
p117
aVRAVE-1176
p118
aVRAVE-1175
p119
aVRAVE-1174
p120
aVRAVE-1173
p121
aVRAVE-1172
p122
aVRAVE-1171
p123
aVRAVE-1170
p124
aVRAVE-1169
p125
aVRAVE-1168
p126
aVRAVE-1167
p127
aVRAVE-1166
p128
aVRAVE-1165
p129
aVRAVE-1164
p130
aVRAVE-1163
p131
aVRAVE-1162
p132
aVRAVE-1161
p133
aVRAVE-1160
p134
aVRAVE-1159
p135
aVRAVE-1158
p136
aVRAVE-1157
p137
aVRAVE-1156
p138
aVRAVE-1155
p139
aVRAVE-1154
p140
aVRAVE-1153
p141
aVRAVE-1152
p142
aVRAVE-1151
p143
aVRAVE-1150
p144
aVRAVE-1149
p145
aVRAVE-1148
p146
aVRAVE-1147
p147
aVRAVE-1146
p148
aVRAVE-1145
p149
aVRAVE-1144
p150
aVRAVE-1143
p151
aVRAVE-1142
p152
aVRAVE-1141
p153
aVRAVE-1140
p154
aVRAVE-1139
p155
aVRAVE-1138
p156
aVRAVE-1137
p157
aVRAVE-1136
p158
aVRAVE-1135
p159
aVRAVE-1134
p160
aVRAVE-1133
p161
aVRAVE-1132
p162
aVRAVE-1131
p163
aVRAVE-1130
p164
aVRAVE-1129
p165
aVRAVE-1128
p166
aVRAVE-1127
p167
aVRAVE-1126
p168
aVRAVE-1125
p169
aVRAVE-1124
p170
aVRAVE-1123
p171
aVRAVE-1122
p172
aVRAVE-1121
p173
aVRAVE-1120
p174
aVRAVE-1119
p175
aVRAVE-1118
p176
aVRAVE-1117
p177
aVRAVE-1116
p178
aVRAVE-1115
p179
aVRAVE-1114
p180
aVRAVE-1113
p181
aVRAVE-1112
p182
aVRAVE-1111
p183
aVRAVE-1110
p184
aVRAVE-1109
p185
aVRAVE-1108
p186
aVRAVE-1107
p187
aVRAVE-1106
p188
aVRAVE-1105
p189
aVRAVE-1104
p190
aVRAVE-1103
p191
aVRAVE-1102
p192
aVRAVE-1101
p193
aVRAVE-1100
p194
aVRAVE-1099
p195
aVRAVE-1098
p196
aVRAVE-1097
p197
aVRAVE-1096
p198
aVRAVE-1095
p199
aVRAVE-1094
p200
aVRAVE-1093
p201
aVRAVE-1092
p202
aVRAVE-1091
p203
aVRAVE-1090
p204
aVRAVE-1089
p205
aVRAVE-1088
p206
aVRAVE-1087
p207
aVRAVE-1086
p208
aVRAVE-1085
p209
aVRAVE-1084
p210
aVRAVE-1083
p211
aVRAVE-1082
p212
aVRAVE-1081
p213
aVRAVE-1080
p214
aVRAVE-1079
p215
aVRAVE-1078
p216
aVRAVE-1077
p217
aVRAVE-1076
p218
aVRAVE-1075
p219
aVRAVE-1074
p220
aVRAVE-1073
p221
aVRAVE-1072
p222
aVRAVE-1071
p223
aVRAVE-1070
p224
aVRAVE-1069
p225
aVRAVE-1068
p226
aVRAVE-1067
p227
aVRAVE-1066
p228
aVRAVE-1065
p229
aVRAVE-1064
p230
aVRAVE-1063
p231
aVRAVE-1062
p232
aVRAVE-1061
p233
aVRAVE-1060
p234
aVRAVE-1059
p235
aVRAVE-1058
p236
aVRAVE-1057
p237
aVRAVE-1056
p238
aVRAVE-1055
p239
aVRAVE-1054
p240
aVRAVE-1053
p241
aVRAVE-1052
p242
aVRAVE-1051
p243
aVRAVE-1050
p244
aVRAVE-1049
p245
aVRAVE-1048
p246
aVRAVE-1047
p247
aVRAVE-1046
p248
aVRAVE-1045
p249
aVRAVE-1044
p250
aVRAVE-1043
p251
aVRAVE-1042
p252
aVRAVE-1041
p253
aVRAVE-1040
p254
aVRAVE-1039
p255
aVRAVE-1038
p256
aVRAVE-1037
p257
aVRAVE-1036
p258
aVRAVE-1035
p259
aVRAVE-1034
p260
aVRAVE-1033
p261
aVRAVE-1032
p262
aVRAVE-1031
p263
aVRAVE-1030
p264
aVRAVE-1029
p265
aVRAVE-1028
p266
aVRAVE-1027
p267
aVRAVE-1026
p268
aVRAVE-1025
p269
aVRAVE-1024
p270
aVRAVE-1023
p271
aVRAVE-1022
p272
aVRAVE-1021
p273
aVRAVE-1020
p274
aVRAVE-1019
p275
aVRAVE-1017
p276
aVRAVE-1016
p277
aVRAVE-1015
p278
aVRAVE-1014
p279
aVRAVE-1013
p280
aVRAVE-1012
p281
aVRAVE-1011
p282
aVRAVE-1010
p283
aVRAVE-1009
p284
aVRAVE-1008
p285
aVRAVE-1007
p286
aVRAVE-1006
p287
aVRAVE-1005
p288
aVRAVE-1004
p289
aVRAVE-1003
p290
aVRAVE-1002
p291
aVRAVE-1001
p292
aVRAVE-1000
p293
aVRAVE-999
p294
aVRAVE-998
p295
aVRAVE-997
p296
aVRAVE-996
p297
aVRAVE-995
p298
aVRAVE-994
p299
aVRAVE-993
p300
aVRAVE-992
p301
aVRAVE-991
p302
aVRAVE-990
p303
aVRAVE-989
p304
aVRAVE-988
p305
aVRAVE-987
p306
aVRAVE-986
p307
aVRAVE-985
p308
aVRAVE-984
p309
aVRAVE-983
p310
aVRAVE-982
p311
aVRAVE-981
p312
aVRAVE-980
p313
aVRAVE-979
p314
aVRAVE-978
p315
aVRAVE-977
p316
aVRAVE-976
p317
aVRAVE-975
p318
aVRAVE-974
p319
aVRAVE-973
p320
aVRAVE-972
p321
aVRAVE-971
p322
aVRAVE-970
p323
aVRAVE-969
p324
aVRAVE-968
p325
aVRAVE-967
p326
aVRAVE-966
p327
aVRAVE-965
p328
aVRAVE-964
p329
aVRAVE-963
p330
aVRAVE-962
p331
aVRAVE-961
p332
aVRAVE-960
p333
aVRAVE-959
p334
aVRAVE-958
p335
aVRAVE-957
p336
aVRAVE-956
p337
aVRAVE-955
p338
aVRAVE-954
p339
aVRAVE-953
p340
aVRAVE-952
p341
aVRAVE-951
p342
aVRAVE-950
p343
aVRAVE-949
p344
aVRAVE-948
p345
aVRAVE-947
p346
aVRAVE-946
p347
aVRAVE-945
p348
aVRAVE-944
p349
aVRAVE-943
p350
aVRAVE-942
p351
aVRAVE-941
p352
aVRAVE-940
p353
aVRAVE-939
p354
aVRAVE-938
p355
aVRAVE-937
p356
aVRAVE-936
p357
aVRAVE-935
p358
aVRAVE-934
p359
aVRAVE-933
p360
aVRAVE-932
p361
aVRAVE-931
p362
aVRAVE-930
p363
aVRAVE-929
p364
aVRAVE-928
p365
aVRAVE-927
p366
aVRAVE-926
p367
aVRAVE-925
p368
aVRAVE-924
p369
aVRAVE-923
p370
aVRAVE-922
p371
aVRAVE-921
p372
aVRAVE-920
p373
aVRAVE-919
p374
aVRAVE-918
p375
aVRAVE-917
p376
aVRAVE-916
p377
aVRAVE-915
p378
aVRAVE-914
p379
aVRAVE-913
p380
aVRAVE-912
p381
aVRAVE-911
p382
aVRAVE-910
p383
aVRAVE-909
p384
aVRAVE-908
p385
aVRAVE-907
p386
aVRAVE-906
p387
aVRAVE-905
p388
aVRAVE-904
p389
aVRAVE-903
p390
aVRAVE-902
p391
aVRAVE-901
p392
aVRAVE-900
p393
aVRAVE-899
p394
aVRAVE-898
p395
aVRAVE-897
p396
aVRAVE-896
p397
aVRAVE-895
p398
aVRAVE-894
p399
aVRAVE-893
p400
aVRAVE-892
p401
aVRAVE-891
p402
aVRAVE-890
p403
aVRAVE-889
p404
aVRAVE-888
p405
aVRAVE-887
p406
aVRAVE-886
p407
aVRAVE-885
p408
aVRAVE-884
p409
aVRAVE-883
p410
aVRAVE-882
p411
aVRAVE-881
p412
aVRAVE-880
p413
aVRAVE-879
p414
aVRAVE-878
p415
aVRAVE-877
p416
aVRAVE-876
p417
aVRAVE-875
p418
aVRAVE-874
p419
aVRAVE-873
p420
aVRAVE-872
p421
aVRAVE-871
p422
aVRAVE-870
p423
aVRAVE-869
p424
aVRAVE-868
p425
aVRAVE-867
p426
aVRAVE-866
p427
aVRAVE-865
p428
aVRAVE-864
p429
aVRAVE-863
p430
aVRAVE-862
p431
aVRAVE-861
p432
aVRAVE-860
p433
aVRAVE-859
p434
aVRAVE-858
p435
aVRAVE-857
p436
aVRAVE-856
p437
aVRAVE-855
p438
aVRAVE-854
p439
aVRAVE-853
p440
aVRAVE-852
p441
aVRAVE-851
p442
aVRAVE-850
p443
aVRAVE-849
p444
aVRAVE-848
p445
aVRAVE-847
p446
aVRAVE-846
p447
aVRAVE-845
p448
aVRAVE-844
p449
aVRAVE-843
p450
aVRAVE-842
p451
aVRAVE-841
p452
aVRAVE-840
p453
aVRAVE-839
p454
aVRAVE-838
p455
aVRAVE-837
p456
aVRAVE-836
p457
aVRAVE-835
p458
aVRAVE-834
p459
aVRAVE-833
p460
aVRAVE-832
p461
aVRAVE-831
p462
aVRAVE-830
p463
aVRAVE-829
p464
aVRAVE-828
p465
aVRAVE-827
p466
aVRAVE-826
p467
aVRAVE-825
p468
aVRAVE-824
p469
aVRAVE-823
p470
aVRAVE-822
p471
aVRAVE-821
p472
aVRAVE-820
p473
aVRAVE-819
p474
aVRAVE-818
p475
aVRAVE-817
p476
aVRAVE-816
p477
aVRAVE-815
p478
aVRAVE-814
p479
aVRAVE-813
p480
aVRAVE-812
p481
aVRAVE-811
p482
aVRAVE-810
p483
aVRAVE-809
p484
aVRAVE-808
p485
aVRAVE-807
p486
aVRAVE-806
p487
aVRAVE-805
p488
aVRAVE-804
p489
aVRAVE-803
p490
aVRAVE-802
p491
aVRAVE-801
p492
aVRAVE-800
p493
aVRAVE-799
p494
aVRAVE-798
p495
aVRAVE-797
p496
aVRAVE-796
p497
aVRAVE-795
p498
aVRAVE-794
p499
aVRAVE-793
p500
aVRAVE-792
p501
aVRAVE-791
p502
aVRAVE-790
p503
aVRAVE-789
p504
aVRAVE-788
p505
aVRAVE-787
p506
aVRAVE-786
p507
aVRAVE-785
p508
aVRAVE-784
p509
aVRAVE-783
p510
aVRAVE-782
p511
aVRAVE-781
p512
aVRAVE-780
p513
aVRAVE-779
p514
aVRAVE-778
p515
aVRAVE-777
p516
aVRAVE-776
p517
aVRAVE-775
p518
aVRAVE-774
p519
aVRAVE-773
p520
aVRAVE-772
p521
aVRAVE-771
p522
aVRAVE-770
p523
aVRAVE-769
p524
aVRAVE-768
p525
aVRAVE-767
p526
aVRAVE-766
p527
aVRAVE-765
p528
aVRAVE-764
p529
aVRAVE-763
p530
aVRAVE-762
p531
aVRAVE-761
p532
aVRAVE-760
p533
aVRAVE-758
p534
aVRAVE-757
p535
aVRAVE-756
p536
aVRAVE-755
p537
aVRAVE-754
p538
aVRAVE-753
p539
aVRAVE-752
p540
aVRAVE-751
p541
aVRAVE-750
p542
aVRAVE-749
p543
aVRAVE-748
p544
aVRAVE-747
p545
aVRAVE-746
p546
aVRAVE-745
p547
aVRAVE-744
p548
aVRAVE-743
p549
aVRAVE-742
p550
aVRAVE-741
p551
aVRAVE-740
p552
aVRAVE-739
p553
aVRAVE-738
p554
aVRAVE-737
p555
aVRAVE-736
p556
aVRAVE-735
p557
aVRAVE-734
p558
aVRAVE-733
p559
aVRAVE-732
p560
aVRAVE-731
p561
aVRAVE-730
p562
aVRAVE-729
p563
aVRAVE-728
p564
aVRAVE-727
p565
aVRAVE-726
p566
aVRAVE-725
p567
aVRAVE-724
p568
aVRAVE-723
p569
aVRAVE-722
p570
aVRAVE-721
p571
aVRAVE-720
p572
aVRAVE-719
p573
aVRAVE-718
p574
aVRAVE-717
p575
aVRAVE-716
p576
aVRAVE-715
p577
aVRAVE-714
p578
aVRAVE-713
p579
aVRAVE-712
p580
aVRAVE-711
p581
aVRAVE-710
p582
aVRAVE-709
p583
aVRAVE-708
p584
aVRAVE-707
p585
aVRAVE-706
p586
aVRAVE-705
p587
aVRAVE-704
p588
aVRAVE-703
p589
aVRAVE-702
p590
aVRAVE-701
p591
aVRAVE-700
p592
aVRAVE-699
p593
aVRAVE-698
p594
aVRAVE-697
p595
aVRAVE-696
p596
aVRAVE-695
p597
aVRAVE-694
p598
aVRAVE-693
p599
aVRAVE-692
p600
aVRAVE-691
p601
aVRAVE-690
p602
aVRAVE-689
p603
aVRAVE-688
p604
aVRAVE-687
p605
aVRAVE-686
p606
aVRAVE-685
p607
aVRAVE-684
p608
aVRAVE-683
p609
aVRAVE-682
p610
aVRAVE-681
p611
aVRAVE-680
p612
aVRAVE-679
p613
aVRAVE-678
p614
aVRAVE-677
p615
aVRAVE-676
p616
aVRAVE-675
p617
aVRAVE-674
p618
aVRAVE-673
p619
aVRAVE-672
p620
aVRAVE-671
p621
aVRAVE-670
p622
aVRAVE-669
p623
aVRAVE-668
p624
aVRAVE-667
p625
aVRAVE-666
p626
aVRAVE-665
p627
aVRAVE-664
p628
aVRAVE-663
p629
aVRAVE-662
p630
aVRAVE-661
p631
aVRAVE-660
p632
aVRAVE-659
p633
aVRAVE-658
p634
aVRAVE-657
p635
aVRAVE-656
p636
aVRAVE-655
p637
aVRAVE-654
p638
aVRAVE-653
p639
aVRAVE-652
p640
aVRAVE-651
p641
aVRAVE-650
p642
aVRAVE-649
p643
aVRAVE-648
p644
aVRAVE-647
p645
aVRAVE-646
p646
aVRAVE-645
p647
aVRAVE-644
p648
aVRAVE-643
p649
aVRAVE-642
p650
aVRAVE-641
p651
aVRAVE-640
p652
aVRAVE-639
p653
aVRAVE-638
p654
aVRAVE-637
p655
aVRAVE-636
p656
aVRAVE-635
p657
aVRAVE-634
p658
aVRAVE-633
p659
aVRAVE-632
p660
aVRAVE-631
p661
aVRAVE-630
p662
aVRAVE-629
p663
aVRAVE-628
p664
aVRAVE-627
p665
aVRAVE-626
p666
aVRAVE-625
p667
aVRAVE-624
p668
aVRAVE-623
p669
aVRAVE-622
p670
aVRAVE-621
p671
aVRAVE-620
p672
aVRAVE-619
p673
aVRAVE-618
p674
aVRAVE-617
p675
aVRAVE-616
p676
aVRAVE-615
p677
aVRAVE-614
p678
aVRAVE-613
p679
aVRAVE-612
p680
aVRAVE-611
p681
aVRAVE-610
p682
aVRAVE-609
p683
aVRAVE-608
p684
aVRAVE-607
p685
aVRAVE-606
p686
aVRAVE-605
p687
aVRAVE-604
p688
aVRAVE-603
p689
aVRAVE-602
p690
aVRAVE-601
p691
aVRAVE-600
p692
aVRAVE-599
p693
aVRAVE-598
p694
aVRAVE-597
p695
aVRAVE-596
p696
aVRAVE-595
p697
aVRAVE-594
p698
aVRAVE-593
p699
aVRAVE-592
p700
aVRAVE-591
p701
aVRAVE-590
p702
aVRAVE-589
p703
aVRAVE-588
p704
aVRAVE-587
p705
aVRAVE-586
p706
aVRAVE-585
p707
aVRAVE-584
p708
aVRAVE-583
p709
aVRAVE-582
p710
aVRAVE-581
p711
aVRAVE-580
p712
aVRAVE-579
p713
aVRAVE-578
p714
aVRAVE-577
p715
aVRAVE-576
p716
aVRAVE-575
p717
aVRAVE-574
p718
aVRAVE-573
p719
aVRAVE-572
p720
aVRAVE-571
p721
aVRAVE-570
p722
aVRAVE-569
p723
aVRAVE-568
p724
aVRAVE-567
p725
aVRAVE-566
p726
aVRAVE-565
p727
aVRAVE-564
p728
aVRAVE-563
p729
aVRAVE-562
p730
aVRAVE-561
p731
aVRAVE-560
p732
aVRAVE-559
p733
aVRAVE-558
p734
aVRAVE-557
p735
aVRAVE-556
p736
aVRAVE-555
p737
aVRAVE-554
p738
aVRAVE-553
p739
aVRAVE-552
p740
aVRAVE-551
p741
aVRAVE-550
p742
aVRAVE-549
p743
aVRAVE-548
p744
aVRAVE-547
p745
aVRAVE-546
p746
aVRAVE-545
p747
aVRAVE-544
p748
aVRAVE-543
p749
aVRAVE-542
p750
aVRAVE-541
p751
aVRAVE-540
p752
aVRAVE-539
p753
aVRAVE-538
p754
aVRAVE-537
p755
aVRAVE-536
p756
aVRAVE-535
p757
aVRAVE-534
p758
aVRAVE-533
p759
aVRAVE-532
p760
aVRAVE-531
p761
aVRAVE-530
p762
aVRAVE-529
p763
aVRAVE-528
p764
aVRAVE-527
p765
aVRAVE-526
p766
aVRAVE-525
p767
aVRAVE-524
p768
aVRAVE-523
p769
aVRAVE-522
p770
aVRAVE-520
p771
aVRAVE-519
p772
aVRAVE-518
p773
aVRAVE-517
p774
aVRAVE-516
p775
aVRAVE-515
p776
aVRAVE-514
p777
aVRAVE-513
p778
aVRAVE-512
p779
aVRAVE-511
p780
aVRAVE-510
p781
aVRAVE-509
p782
aVRAVE-508
p783
aVRAVE-507
p784
aVRAVE-506
p785
aVRAVE-505
p786
aVRAVE-504
p787
aVRAVE-503
p788
aVRAVE-502
p789
aVRAVE-501
p790
aVRAVE-500
p791
aVRAVE-499
p792
aVRAVE-498
p793
aVRAVE-497
p794
aVRAVE-496
p795
aVRAVE-495
p796
aVRAVE-494
p797
aVRAVE-493
p798
aVRAVE-492
p799
aVRAVE-491
p800
aVRAVE-490
p801
aVRAVE-489
p802
aVRAVE-488
p803
aVRAVE-487
p804
aVRAVE-486
p805
aVRAVE-485
p806
aVRAVE-484
p807
aVRAVE-483
p808
aVRAVE-482
p809
aVRAVE-481
p810
aVRAVE-480
p811
aVRAVE-479
p812
aVRAVE-478
p813
aVRAVE-477
p814
aVRAVE-476
p815
aVRAVE-475
p816
aVRAVE-474
p817
aVRAVE-473
p818
aVRAVE-472
p819
aVRAVE-471
p820
aVRAVE-470
p821
aVRAVE-469
p822
aVRAVE-468
p823
aVRAVE-467
p824
aVRAVE-466
p825
aVRAVE-465
p826
aVRAVE-464
p827
aVRAVE-463
p828
aVRAVE-462
p829
aVRAVE-461
p830
aVRAVE-460
p831
aVRAVE-459
p832
aVRAVE-458
p833
aVRAVE-457
p834
aVRAVE-456
p835
aVRAVE-455
p836
aVRAVE-454
p837
aVRAVE-453
p838
aVRAVE-452
p839
aVRAVE-451
p840
aVRAVE-450
p841
aVRAVE-449
p842
aVRAVE-448
p843
aVRAVE-447
p844
aVRAVE-446
p845
aVRAVE-445
p846
aVRAVE-444
p847
aVRAVE-443
p848
aVRAVE-442
p849
aVRAVE-441
p850
aVRAVE-440
p851
aVRAVE-439
p852
aVRAVE-438
p853
aVRAVE-437
p854
aVRAVE-436
p855
aVRAVE-435
p856
aVRAVE-434
p857
aVRAVE-433
p858
aVRAVE-432
p859
aVRAVE-431
p860
aVRAVE-430
p861
aVRAVE-429
p862
aVRAVE-428
p863
aVRAVE-427
p864
aVRAVE-426
p865
aVRAVE-425
p866
aVRAVE-424
p867
aVRAVE-423
p868
aVRAVE-422
p869
aVRAVE-421
p870
aVRAVE-420
p871
aVRAVE-419
p872
aVRAVE-418
p873
aVRAVE-417
p874
aVRAVE-416
p875
aVRAVE-415
p876
aVRAVE-414
p877
aVRAVE-413
p878
aVRAVE-412
p879
aVRAVE-411
p880
aVRAVE-410
p881
aVRAVE-409
p882
aVRAVE-408
p883
aVRAVE-407
p884
aVRAVE-406
p885
aVRAVE-405
p886
aVRAVE-404
p887
aVRAVE-403
p888
aVRAVE-402
p889
aVRAVE-401
p890
aVRAVE-400
p891
aVRAVE-399
p892
aVRAVE-398
p893
aVRAVE-397
p894
aVRAVE-396
p895
aVRAVE-395
p896
aVRAVE-394
p897
aVRAVE-393
p898
aVRAVE-392
p899
aVRAVE-391
p900
aVRAVE-390
p901
aVRAVE-389
p902
aVRAVE-388
p903
aVRAVE-387
p904
aVRAVE-386
p905
aVRAVE-385
p906
aVRAVE-384
p907
aVRAVE-383
p908
aVRAVE-382
p909
aVRAVE-381
p910
aVRAVE-380
p911
aVRAVE-379
p912
aVRAVE-378
p913
aVRAVE-377
p914
aVRAVE-376
p915
aVRAVE-375
p916
aVRAVE-374
p917
aVRAVE-373
p918
aVRAVE-372
p919
aVRAVE-371
p920
aVRAVE-369
p921
aVRAVE-368
p922
aVRAVE-367
p923
aVRAVE-366
p924
aVRAVE-365
p925
aVRAVE-364
p926
aVRAVE-363
p927
aVRAVE-362
p928
aVRAVE-361
p929
aVRAVE-360
p930
aVRAVE-359
p931
aVRAVE-358
p932
aVRAVE-357
p933
aVRAVE-356
p934
aVRAVE-355
p935
aVRAVE-354
p936
aVRAVE-353
p937
aVRAVE-352
p938
aVRAVE-351
p939
aVRAVE-350
p940
aVRAVE-349
p941
aVRAVE-348
p942
aVRAVE-347
p943
aVRAVE-346
p944
aVRAVE-345
p945
aVRAVE-344
p946
aVRAVE-343
p947
aVRAVE-342
p948
aVRAVE-341
p949
aVRAVE-340
p950
aVRAVE-339
p951
aVRAVE-338
p952
aVRAVE-337
p953
aVRAVE-336
p954
aVRAVE-335
p955
aVRAVE-334
p956
aVRAVE-333
p957
aVRAVE-332
p958
aVRAVE-331
p959
aVRAVE-329
p960
aVRAVE-328
p961
aVRAVE-327
p962
aVRAVE-326
p963
aVRAVE-325
p964
aVRAVE-324
p965
aVRAVE-323
p966
aVRAVE-322
p967
aVRAVE-321
p968
aVRAVE-320
p969
aVRAVE-319
p970
aVRAVE-318
p971
aVRAVE-317
p972
aVRAVE-316
p973
aVRAVE-315
p974
aVRAVE-314
p975
aVRAVE-313
p976
aVRAVE-312
p977
aVRAVE-311
p978
aVRAVE-310
p979
aVRAVE-309
p980
aVRAVE-308
p981
aVRAVE-307
p982
aVRAVE-306
p983
aVRAVE-305
p984
aVRAVE-304
p985
aVRAVE-303
p986
aVRAVE-302
p987
aVRAVE-301
p988
aVRAVE-300
p989
aVRAVE-299
p990
aVRAVE-298
p991
aVRAVE-297
p992
aVRAVE-296
p993
aVRAVE-295
p994
aVRAVE-294
p995
aVRAVE-293
p996
aVRAVE-292
p997
aVRAVE-291
p998
aVRAVE-290
p999
aVRAVE-289
p1000
aVRAVE-288
p1001
aVRAVE-287
p1002
aVRAVE-286
p1003
aVRAVE-285
p1004
aVRAVE-284
p1005
aVRAVE-283
p1006
aVRAVE-282
p1007
aVRAVE-281
p1008
aVRAVE-280
p1009
aVRAVE-279
p1010
aVRAVE-278
p1011
aVRAVE-277
p1012
aVRAVE-276
p1013
aVRAVE-275
p1014
aVRAVE-274
p1015
aVRAVE-273
p1016
aVRAVE-272
p1017
aVRAVE-271
p1018
aVRAVE-270
p1019
aVRAVE-269
p1020
aVRAVE-268
p1021
aVRAVE-267
p1022
aVRAVE-266
p1023
aVRAVE-265
p1024
aVRAVE-264
p1025
aVRAVE-263
p1026
aVRAVE-262
p1027
aVRAVE-261
p1028
aVRAVE-260
p1029
aVRAVE-259
p1030
aVRAVE-258
p1031
aVRAVE-257
p1032
aVRAVE-256
p1033
aVRAVE-255
p1034
aVRAVE-254
p1035
aVRAVE-253
p1036
aVRAVE-252
p1037
aVRAVE-251
p1038
aVRAVE-250
p1039
aVRAVE-249
p1040
aVRAVE-248
p1041
aVRAVE-247
p1042
aVRAVE-246
p1043
aVRAVE-245
p1044
aVRAVE-244
p1045
aVRAVE-243
p1046
aVRAVE-242
p1047
aVRAVE-241
p1048
aVRAVE-240
p1049
aVRAVE-239
p1050
aVRAVE-238
p1051
aVRAVE-237
p1052
aVRAVE-236
p1053
aVRAVE-235
p1054
aVRAVE-234
p1055
aVRAVE-233
p1056
aVRAVE-232
p1057
aVRAVE-231
p1058
aVRAVE-230
p1059
aVRAVE-229
p1060
aVRAVE-228
p1061
aVRAVE-227
p1062
aVRAVE-226
p1063
aVRAVE-225
p1064
aVRAVE-224
p1065
aVRAVE-223
p1066
aVRAVE-222
p1067
aVRAVE-221
p1068
aVRAVE-220
p1069
aVRAVE-219
p1070
aVRAVE-218
p1071
aVRAVE-217
p1072
aVRAVE-216
p1073
aVRAVE-215
p1074
aVRAVE-214
p1075
aVRAVE-213
p1076
aVRAVE-212
p1077
aVRAVE-211
p1078
aVRAVE-210
p1079
aVRAVE-209
p1080
aVRAVE-208
p1081
aVRAVE-207
p1082
aVRAVE-206
p1083
aVRAVE-205
p1084
aVRAVE-204
p1085
aVRAVE-203
p1086
aVRAVE-202
p1087
aVRAVE-201
p1088
aVRAVE-200
p1089
aVRAVE-199
p1090
aVRAVE-198
p1091
aVRAVE-197
p1092
aVRAVE-196
p1093
aVRAVE-195
p1094
aVRAVE-194
p1095
aVRAVE-193
p1096
aVRAVE-192
p1097
aVRAVE-191
p1098
aVRAVE-190
p1099
aVRAVE-189
p1100
aVRAVE-188
p1101
aVRAVE-187
p1102
aVRAVE-186
p1103
aVRAVE-185
p1104
aVRAVE-184
p1105
aVRAVE-183
p1106
aVRAVE-182
p1107
aVRAVE-180
p1108
aVRAVE-179
p1109
aVRAVE-178
p1110
aVRAVE-177
p1111
aVRAVE-176
p1112
aVRAVE-175
p1113
aVRAVE-174
p1114
aVRAVE-173
p1115
aVRAVE-172
p1116
aVRAVE-171
p1117
aVRAVE-170
p1118
aVRAVE-169
p1119
aVRAVE-168
p1120
aVRAVE-167
p1121
aVRAVE-166
p1122
aVRAVE-165
p1123
aVRAVE-164
p1124
aVRAVE-163
p1125
aVRAVE-162
p1126
aVRAVE-161
p1127
aVRAVE-160
p1128
aVRAVE-159
p1129
aVRAVE-158
p1130
aVRAVE-157
p1131
aVRAVE-156
p1132
aVRAVE-155
p1133
aVRAVE-154
p1134
aVRAVE-153
p1135
aVRAVE-152
p1136
aVRAVE-151
p1137
aVRAVE-150
p1138
aVRAVE-149
p1139
aVRAVE-148
p1140
aVRAVE-147
p1141
aVRAVE-146
p1142
aVRAVE-145
p1143
aVRAVE-144
p1144
aVRAVE-143
p1145
aVRAVE-142
p1146
aVRAVE-141
p1147
aVRAVE-140
p1148
aVRAVE-139
p1149
aVRAVE-138
p1150
aVRAVE-137
p1151
aVRAVE-136
p1152
aVRAVE-135
p1153
aVRAVE-134
p1154
aVRAVE-133
p1155
aVRAVE-132
p1156
aVRAVE-131
p1157
aVRAVE-130
p1158
aVRAVE-129
p1159
aVRAVE-128
p1160
aVRAVE-127
p1161
aVRAVE-126
p1162
aVRAVE-125
p1163
aVRAVE-124
p1164
aVRAVE-123
p1165
aVRAVE-122
p1166
aVRAVE-121
p1167
aVRAVE-120
p1168
aVRAVE-119
p1169
aVRAVE-118
p1170
aVRAVE-117
p1171
aVRAVE-116
p1172
aVRAVE-115
p1173
aVRAVE-113
p1174
aVRAVE-112
p1175
aVRAVE-111
p1176
aVRAVE-110
p1177
aVRAVE-109
p1178
aVRAVE-108
p1179
aVRAVE-107
p1180
aVRAVE-106
p1181
aVRAVE-105
p1182
aVRAVE-104
p1183
aVRAVE-103
p1184
aVRAVE-102
p1185
aVRAVE-101
p1186
aVRAVE-100
p1187
aVRAVE-99
p1188
aVRAVE-98
p1189
aVRAVE-97
p1190
aVRAVE-96
p1191
aVRAVE-95
p1192
aVRAVE-94
p1193
aVRAVE-93
p1194
aVRAVE-92
p1195
aVRAVE-91
p1196
aVRAVE-90
p1197
aVRAVE-89
p1198
aVRAVE-88
p1199
aVRAVE-87
p1200
aVRAVE-86
p1201
aVRAVE-85
p1202
aVRAVE-84
p1203
aVRAVE-83
p1204
aVRAVE-82
p1205
aVRAVE-81
p1206
aVRAVE-80
p1207
aVRAVE-79
p1208
aVRAVE-78
p1209
aVRAVE-77
p1210
aVRAVE-76
p1211
aVRAVE-75
p1212
aVRAVE-74
p1213
aVRAVE-73
p1214
aVRAVE-72
p1215
aVRAVE-71
p1216
aVRAVE-70
p1217
aVRAVE-69
p1218
aVRAVE-68
p1219
aVRAVE-67
p1220
aVRAVE-66
p1221
aVRAVE-65
p1222
aVRAVE-64
p1223
aVRAVE-63
p1224
aVRAVE-62
p1225
aVRAVE-61
p1226
aVRAVE-60
p1227
aVRAVE-59
p1228
aVRAVE-58
p1229
aVRAVE-57
p1230
aVRAVE-56
p1231
aVRAVE-55
p1232
aVRAVE-54
p1233
aVRAVE-53
p1234
aVRAVE-52
p1235
aVRAVE-51
p1236
aVRAVE-50
p1237
aVRAVE-49
p1238
aVRAVE-48
p1239
aVRAVE-47
p1240
aVRAVE-46
p1241
aVRAVE-45
p1242
aVRAVE-44
p1243
aVRAVE-43
p1244
aVRAVE-42
p1245
aVRAVE-41
p1246
aVRAVE-40
p1247
aVRAVE-39
p1248
aVRAVE-38
p1249
aVRAVE-37
p1250
aVRAVE-36
p1251
aVRAVE-35
p1252
aVRAVE-34
p1253
aVRAVE-33
p1254
aVRAVE-32
p1255
aVRAVE-31
p1256
aVRAVE-30
p1257
aVRAVE-29
p1258
aVRAVE-28
p1259
aVRAVE-27
p1260
aVRAVE-26
p1261
aVRAVE-25
p1262
aVRAVE-24
p1263
aVRAVE-23
p1264
aVRAVE-22
p1265
aVRAVE-21
p1266
aVRAVE-20
p1267
aVRAVE-19
p1268
aVRAVE-18
p1269
aVRAVE-17
p1270
aVRAVE-16
p1271
aVRAVE-15
p1272
aVRAVE-14
p1273
aVRAVE-13
p1274
aVRAVE-12
p1275
aVRAVE-11
p1276
aVRAVE-10
p1277
aVRAVE-9
p1278
aVRAVE-8
p1279
aVRAVE-7
p1280
aVRAVE-6
p1281
aVRAVE-5
p1282
aVRAVE-4
p1283
aVRAVE-3
p1284
aVRAVE-2
p1285
aVRAVE-1
p1286
a.