(lp0
VRIVER-466
p1
aVRIVER-465
p2
aVRIVER-464
p3
aVRIVER-463
p4
aVRIVER-462
p5
aVRIVER-461
p6
aVRIVER-460
p7
aVRIVER-459
p8
aVRIVER-458
p9
aVRIVER-457
p10
aVRIVER-456
p11
aVRIVER-455
p12
aVRIVER-454
p13
aVRIVER-453
p14
aVRIVER-452
p15
aVRIVER-451
p16
aVRIVER-450
p17
aVRIVER-449
p18
aVRIVER-448
p19
aVRIVER-447
p20
aVRIVER-446
p21
aVRIVER-445
p22
aVRIVER-444
p23
aVRIVER-443
p24
aVRIVER-442
p25
aVRIVER-441
p26
aVRIVER-440
p27
aVRIVER-439
p28
aVRIVER-438
p29
aVRIVER-437
p30
aVRIVER-436
p31
aVRIVER-435
p32
aVRIVER-434
p33
aVRIVER-433
p34
aVRIVER-432
p35
aVRIVER-431
p36
aVRIVER-430
p37
aVRIVER-429
p38
aVRIVER-428
p39
aVRIVER-427
p40
aVRIVER-426
p41
aVRIVER-425
p42
aVRIVER-424
p43
aVRIVER-423
p44
aVRIVER-422
p45
aVRIVER-421
p46
aVRIVER-420
p47
aVRIVER-419
p48
aVRIVER-418
p49
aVRIVER-417
p50
aVRIVER-416
p51
aVRIVER-415
p52
aVRIVER-414
p53
aVRIVER-413
p54
aVRIVER-412
p55
aVRIVER-411
p56
aVRIVER-410
p57
aVRIVER-409
p58
aVRIVER-408
p59
aVRIVER-407
p60
aVRIVER-406
p61
aVRIVER-405
p62
aVRIVER-404
p63
aVRIVER-403
p64
aVRIVER-402
p65
aVRIVER-401
p66
aVRIVER-400
p67
aVRIVER-399
p68
aVRIVER-398
p69
aVRIVER-397
p70
aVRIVER-396
p71
aVRIVER-395
p72
aVRIVER-394
p73
aVRIVER-393
p74
aVRIVER-392
p75
aVRIVER-391
p76
aVRIVER-390
p77
aVRIVER-389
p78
aVRIVER-388
p79
aVRIVER-387
p80
aVRIVER-386
p81
aVRIVER-385
p82
aVRIVER-384
p83
aVRIVER-383
p84
aVRIVER-382
p85
aVRIVER-381
p86
aVRIVER-380
p87
aVRIVER-379
p88
aVRIVER-378
p89
aVRIVER-376
p90
aVRIVER-374
p91
aVRIVER-373
p92
aVRIVER-372
p93
aVRIVER-371
p94
aVRIVER-370
p95
aVRIVER-369
p96
aVRIVER-368
p97
aVRIVER-367
p98
aVRIVER-366
p99
aVRIVER-365
p100
aVRIVER-364
p101
aVRIVER-363
p102
aVRIVER-362
p103
aVRIVER-361
p104
aVRIVER-360
p105
aVRIVER-359
p106
aVRIVER-358
p107
aVRIVER-357
p108
aVRIVER-356
p109
aVRIVER-355
p110
aVRIVER-354
p111
aVRIVER-353
p112
aVRIVER-352
p113
aVRIVER-351
p114
aVRIVER-350
p115
aVRIVER-349
p116
aVRIVER-348
p117
aVRIVER-347
p118
aVRIVER-346
p119
aVRIVER-345
p120
aVRIVER-344
p121
aVRIVER-343
p122
aVRIVER-342
p123
aVRIVER-341
p124
aVRIVER-340
p125
aVRIVER-339
p126
aVRIVER-338
p127
aVRIVER-337
p128
aVRIVER-336
p129
aVRIVER-335
p130
aVRIVER-334
p131
aVRIVER-333
p132
aVRIVER-332
p133
aVRIVER-331
p134
aVRIVER-330
p135
aVRIVER-329
p136
aVRIVER-328
p137
aVRIVER-327
p138
aVRIVER-326
p139
aVRIVER-325
p140
aVRIVER-324
p141
aVRIVER-323
p142
aVRIVER-322
p143
aVRIVER-321
p144
aVRIVER-320
p145
aVRIVER-319
p146
aVRIVER-318
p147
aVRIVER-317
p148
aVRIVER-316
p149
aVRIVER-315
p150
aVRIVER-314
p151
aVRIVER-313
p152
aVRIVER-312
p153
aVRIVER-311
p154
aVRIVER-310
p155
aVRIVER-309
p156
aVRIVER-308
p157
aVRIVER-307
p158
aVRIVER-306
p159
aVRIVER-305
p160
aVRIVER-304
p161
aVRIVER-303
p162
aVRIVER-302
p163
aVRIVER-301
p164
aVRIVER-300
p165
aVRIVER-299
p166
aVRIVER-298
p167
aVRIVER-297
p168
aVRIVER-296
p169
aVRIVER-295
p170
aVRIVER-294
p171
aVRIVER-293
p172
aVRIVER-292
p173
aVRIVER-291
p174
aVRIVER-290
p175
aVRIVER-289
p176
aVRIVER-288
p177
aVRIVER-287
p178
aVRIVER-286
p179
aVRIVER-285
p180
aVRIVER-284
p181
aVRIVER-283
p182
aVRIVER-282
p183
aVRIVER-281
p184
aVRIVER-280
p185
aVRIVER-279
p186
aVRIVER-278
p187
aVRIVER-277
p188
aVRIVER-276
p189
aVRIVER-275
p190
aVRIVER-274
p191
aVRIVER-273
p192
aVRIVER-272
p193
aVRIVER-271
p194
aVRIVER-270
p195
aVRIVER-269
p196
aVRIVER-268
p197
aVRIVER-267
p198
aVRIVER-266
p199
aVRIVER-265
p200
aVRIVER-264
p201
aVRIVER-263
p202
aVRIVER-262
p203
aVRIVER-261
p204
aVRIVER-260
p205
aVRIVER-259
p206
aVRIVER-258
p207
aVRIVER-257
p208
aVRIVER-256
p209
aVRIVER-255
p210
aVRIVER-254
p211
aVRIVER-253
p212
aVRIVER-252
p213
aVRIVER-251
p214
aVRIVER-250
p215
aVRIVER-249
p216
aVRIVER-248
p217
aVRIVER-247
p218
aVRIVER-246
p219
aVRIVER-245
p220
aVRIVER-244
p221
aVRIVER-243
p222
aVRIVER-242
p223
aVRIVER-241
p224
aVRIVER-240
p225
aVRIVER-239
p226
aVRIVER-238
p227
aVRIVER-237
p228
aVRIVER-236
p229
aVRIVER-235
p230
aVRIVER-234
p231
aVRIVER-233
p232
aVRIVER-232
p233
aVRIVER-231
p234
aVRIVER-230
p235
aVRIVER-229
p236
aVRIVER-228
p237
aVRIVER-227
p238
aVRIVER-226
p239
aVRIVER-225
p240
aVRIVER-224
p241
aVRIVER-223
p242
aVRIVER-222
p243
aVRIVER-221
p244
aVRIVER-220
p245
aVRIVER-219
p246
aVRIVER-218
p247
aVRIVER-217
p248
aVRIVER-216
p249
aVRIVER-215
p250
aVRIVER-214
p251
aVRIVER-213
p252
aVRIVER-212
p253
aVRIVER-211
p254
aVRIVER-210
p255
aVRIVER-209
p256
aVRIVER-208
p257
aVRIVER-207
p258
aVRIVER-206
p259
aVRIVER-204
p260
aVRIVER-203
p261
aVRIVER-202
p262
aVRIVER-201
p263
aVRIVER-200
p264
aVRIVER-199
p265
aVRIVER-198
p266
aVRIVER-197
p267
aVRIVER-196
p268
aVRIVER-195
p269
aVRIVER-194
p270
aVRIVER-193
p271
aVRIVER-192
p272
aVRIVER-191
p273
aVRIVER-190
p274
aVRIVER-189
p275
aVRIVER-188
p276
aVRIVER-187
p277
aVRIVER-186
p278
aVRIVER-185
p279
aVRIVER-184
p280
aVRIVER-183
p281
aVRIVER-182
p282
aVRIVER-181
p283
aVRIVER-180
p284
aVRIVER-179
p285
aVRIVER-178
p286
aVRIVER-177
p287
aVRIVER-176
p288
aVRIVER-175
p289
aVRIVER-174
p290
aVRIVER-173
p291
aVRIVER-172
p292
aVRIVER-171
p293
aVRIVER-170
p294
aVRIVER-169
p295
aVRIVER-168
p296
aVRIVER-167
p297
aVRIVER-166
p298
aVRIVER-165
p299
aVRIVER-164
p300
aVRIVER-163
p301
aVRIVER-162
p302
aVRIVER-161
p303
aVRIVER-160
p304
aVRIVER-159
p305
aVRIVER-158
p306
aVRIVER-157
p307
aVRIVER-156
p308
aVRIVER-155
p309
aVRIVER-154
p310
aVRIVER-153
p311
aVRIVER-152
p312
aVRIVER-151
p313
aVRIVER-150
p314
aVRIVER-149
p315
aVRIVER-148
p316
aVRIVER-147
p317
aVRIVER-146
p318
aVRIVER-145
p319
aVRIVER-144
p320
aVRIVER-143
p321
aVRIVER-142
p322
aVRIVER-141
p323
aVRIVER-140
p324
aVRIVER-139
p325
aVRIVER-138
p326
aVRIVER-137
p327
aVRIVER-136
p328
aVRIVER-135
p329
aVRIVER-134
p330
aVRIVER-133
p331
aVRIVER-132
p332
aVRIVER-131
p333
aVRIVER-130
p334
aVRIVER-129
p335
aVRIVER-128
p336
aVRIVER-127
p337
aVRIVER-126
p338
aVRIVER-125
p339
aVRIVER-124
p340
aVRIVER-123
p341
aVRIVER-122
p342
aVRIVER-121
p343
aVRIVER-120
p344
aVRIVER-119
p345
aVRIVER-118
p346
aVRIVER-117
p347
aVRIVER-116
p348
aVRIVER-115
p349
aVRIVER-114
p350
aVRIVER-113
p351
aVRIVER-112
p352
aVRIVER-111
p353
aVRIVER-110
p354
aVRIVER-109
p355
aVRIVER-108
p356
aVRIVER-107
p357
aVRIVER-106
p358
aVRIVER-105
p359
aVRIVER-104
p360
aVRIVER-103
p361
aVRIVER-102
p362
aVRIVER-101
p363
aVRIVER-100
p364
aVRIVER-99
p365
aVRIVER-98
p366
aVRIVER-97
p367
aVRIVER-96
p368
aVRIVER-95
p369
aVRIVER-94
p370
aVRIVER-93
p371
aVRIVER-92
p372
aVRIVER-91
p373
aVRIVER-90
p374
aVRIVER-89
p375
aVRIVER-88
p376
aVRIVER-87
p377
aVRIVER-86
p378
aVRIVER-85
p379
aVRIVER-84
p380
aVRIVER-83
p381
aVRIVER-82
p382
aVRIVER-81
p383
aVRIVER-80
p384
aVRIVER-79
p385
aVRIVER-78
p386
aVRIVER-77
p387
aVRIVER-76
p388
aVRIVER-75
p389
aVRIVER-74
p390
aVRIVER-73
p391
aVRIVER-72
p392
aVRIVER-71
p393
aVRIVER-70
p394
aVRIVER-69
p395
aVRIVER-68
p396
aVRIVER-67
p397
aVRIVER-66
p398
aVRIVER-65
p399
aVRIVER-64
p400
aVRIVER-63
p401
aVRIVER-62
p402
aVRIVER-61
p403
aVRIVER-60
p404
aVRIVER-59
p405
aVRIVER-58
p406
aVRIVER-57
p407
aVRIVER-56
p408
aVRIVER-55
p409
aVRIVER-54
p410
aVRIVER-53
p411
aVRIVER-52
p412
aVRIVER-51
p413
aVRIVER-50
p414
aVRIVER-49
p415
aVRIVER-48
p416
aVRIVER-47
p417
aVRIVER-46
p418
aVRIVER-45
p419
aVRIVER-44
p420
aVRIVER-43
p421
aVRIVER-42
p422
aVRIVER-41
p423
aVRIVER-40
p424
aVRIVER-39
p425
aVRIVER-38
p426
aVRIVER-37
p427
aVRIVER-36
p428
aVRIVER-35
p429
aVRIVER-34
p430
aVRIVER-33
p431
aVRIVER-32
p432
aVRIVER-31
p433
aVRIVER-30
p434
aVRIVER-29
p435
aVRIVER-28
p436
aVRIVER-27
p437
aVRIVER-26
p438
aVRIVER-25
p439
aVRIVER-24
p440
aVRIVER-23
p441
aVRIVER-22
p442
aVRIVER-21
p443
aVRIVER-20
p444
aVRIVER-19
p445
aVRIVER-18
p446
aVRIVER-17
p447
aVRIVER-16
p448
aVRIVER-15
p449
aVRIVER-14
p450
aVRIVER-13
p451
aVRIVER-12
p452
aVRIVER-11
p453
aVRIVER-10
p454
aVRIVER-9
p455
aVRIVER-8
p456
aVRIVER-7
p457
aVRIVER-6
p458
aVRIVER-5
p459
aVRIVER-4
p460
aVRIVER-3
p461
aVRIVER-2
p462
a.