(lp0
VRNG-50
p1
aVRNG-49
p2
aVRNG-48
p3
aVRNG-47
p4
aVRNG-46
p5
aVRNG-45
p6
aVRNG-44
p7
aVRNG-43
p8
aVRNG-42
p9
aVRNG-41
p10
aVRNG-40
p11
aVRNG-39
p12
aVRNG-38
p13
aVRNG-37
p14
aVRNG-36
p15
aVRNG-35
p16
aVRNG-34
p17
aVRNG-33
p18
aVRNG-32
p19
aVRNG-31
p20
aVRNG-30
p21
aVRNG-29
p22
aVRNG-28
p23
aVRNG-27
p24
aVRNG-26
p25
aVRNG-25
p26
aVRNG-24
p27
aVRNG-23
p28
aVRNG-22
p29
aVRNG-21
p30
aVRNG-20
p31
aVRNG-19
p32
aVRNG-18
p33
aVRNG-17
p34
aVRNG-16
p35
aVRNG-15
p36
aVRNG-14
p37
aVRNG-13
p38
aVRNG-12
p39
aVRNG-11
p40
aVRNG-10
p41
aVRNG-9
p42
aVRNG-8
p43
aVRNG-7
p44
aVRNG-6
p45
aVRNG-5
p46
aVRNG-4
p47
aVRNG-3
p48
aVRNG-2
p49
aVRNG-1
p50
a.