(lp0
VROCKETMQ-387
p1
aVROCKETMQ-386
p2
aVROCKETMQ-385
p3
aVROCKETMQ-384
p4
aVROCKETMQ-383
p5
aVROCKETMQ-382
p6
aVROCKETMQ-381
p7
aVROCKETMQ-380
p8
aVROCKETMQ-379
p9
aVROCKETMQ-378
p10
aVROCKETMQ-377
p11
aVROCKETMQ-376
p12
aVROCKETMQ-375
p13
aVROCKETMQ-374
p14
aVROCKETMQ-373
p15
aVROCKETMQ-372
p16
aVROCKETMQ-371
p17
aVROCKETMQ-370
p18
aVROCKETMQ-369
p19
aVROCKETMQ-368
p20
aVROCKETMQ-367
p21
aVROCKETMQ-366
p22
aVROCKETMQ-365
p23
aVROCKETMQ-364
p24
aVROCKETMQ-363
p25
aVROCKETMQ-362
p26
aVROCKETMQ-361
p27
aVROCKETMQ-360
p28
aVROCKETMQ-359
p29
aVROCKETMQ-358
p30
aVROCKETMQ-357
p31
aVROCKETMQ-356
p32
aVROCKETMQ-355
p33
aVROCKETMQ-354
p34
aVROCKETMQ-353
p35
aVROCKETMQ-352
p36
aVROCKETMQ-351
p37
aVROCKETMQ-350
p38
aVROCKETMQ-349
p39
aVROCKETMQ-348
p40
aVROCKETMQ-347
p41
aVROCKETMQ-346
p42
aVROCKETMQ-345
p43
aVROCKETMQ-344
p44
aVROCKETMQ-343
p45
aVROCKETMQ-342
p46
aVROCKETMQ-341
p47
aVROCKETMQ-340
p48
aVROCKETMQ-339
p49
aVROCKETMQ-338
p50
aVROCKETMQ-337
p51
aVROCKETMQ-336
p52
aVROCKETMQ-335
p53
aVROCKETMQ-334
p54
aVROCKETMQ-333
p55
aVROCKETMQ-332
p56
aVROCKETMQ-331
p57
aVROCKETMQ-330
p58
aVROCKETMQ-329
p59
aVROCKETMQ-328
p60
aVROCKETMQ-327
p61
aVROCKETMQ-326
p62
aVROCKETMQ-325
p63
aVROCKETMQ-324
p64
aVROCKETMQ-323
p65
aVROCKETMQ-322
p66
aVROCKETMQ-321
p67
aVROCKETMQ-320
p68
aVROCKETMQ-319
p69
aVROCKETMQ-318
p70
aVROCKETMQ-317
p71
aVROCKETMQ-316
p72
aVROCKETMQ-315
p73
aVROCKETMQ-314
p74
aVROCKETMQ-313
p75
aVROCKETMQ-312
p76
aVROCKETMQ-311
p77
aVROCKETMQ-310
p78
aVROCKETMQ-309
p79
aVROCKETMQ-308
p80
aVROCKETMQ-307
p81
aVROCKETMQ-306
p82
aVROCKETMQ-305
p83
aVROCKETMQ-304
p84
aVROCKETMQ-303
p85
aVROCKETMQ-302
p86
aVROCKETMQ-301
p87
aVROCKETMQ-300
p88
aVROCKETMQ-299
p89
aVROCKETMQ-298
p90
aVROCKETMQ-297
p91
aVROCKETMQ-296
p92
aVROCKETMQ-295
p93
aVROCKETMQ-294
p94
aVROCKETMQ-293
p95
aVROCKETMQ-292
p96
aVROCKETMQ-291
p97
aVROCKETMQ-290
p98
aVROCKETMQ-289
p99
aVROCKETMQ-288
p100
aVROCKETMQ-287
p101
aVROCKETMQ-286
p102
aVROCKETMQ-285
p103
aVROCKETMQ-284
p104
aVROCKETMQ-283
p105
aVROCKETMQ-282
p106
aVROCKETMQ-281
p107
aVROCKETMQ-280
p108
aVROCKETMQ-279
p109
aVROCKETMQ-278
p110
aVROCKETMQ-277
p111
aVROCKETMQ-276
p112
aVROCKETMQ-275
p113
aVROCKETMQ-274
p114
aVROCKETMQ-273
p115
aVROCKETMQ-272
p116
aVROCKETMQ-271
p117
aVROCKETMQ-270
p118
aVROCKETMQ-269
p119
aVROCKETMQ-268
p120
aVROCKETMQ-267
p121
aVROCKETMQ-266
p122
aVROCKETMQ-265
p123
aVROCKETMQ-264
p124
aVROCKETMQ-263
p125
aVROCKETMQ-262
p126
aVROCKETMQ-261
p127
aVROCKETMQ-260
p128
aVROCKETMQ-259
p129
aVROCKETMQ-258
p130
aVROCKETMQ-257
p131
aVROCKETMQ-256
p132
aVROCKETMQ-255
p133
aVROCKETMQ-254
p134
aVROCKETMQ-253
p135
aVROCKETMQ-252
p136
aVROCKETMQ-251
p137
aVROCKETMQ-250
p138
aVROCKETMQ-249
p139
aVROCKETMQ-248
p140
aVROCKETMQ-247
p141
aVROCKETMQ-246
p142
aVROCKETMQ-245
p143
aVROCKETMQ-244
p144
aVROCKETMQ-243
p145
aVROCKETMQ-242
p146
aVROCKETMQ-241
p147
aVROCKETMQ-240
p148
aVROCKETMQ-239
p149
aVROCKETMQ-238
p150
aVROCKETMQ-237
p151
aVROCKETMQ-236
p152
aVROCKETMQ-235
p153
aVROCKETMQ-234
p154
aVROCKETMQ-233
p155
aVROCKETMQ-232
p156
aVROCKETMQ-231
p157
aVROCKETMQ-230
p158
aVROCKETMQ-229
p159
aVROCKETMQ-228
p160
aVROCKETMQ-227
p161
aVROCKETMQ-226
p162
aVROCKETMQ-225
p163
aVROCKETMQ-224
p164
aVROCKETMQ-223
p165
aVROCKETMQ-222
p166
aVROCKETMQ-221
p167
aVROCKETMQ-220
p168
aVROCKETMQ-219
p169
aVROCKETMQ-218
p170
aVROCKETMQ-217
p171
aVROCKETMQ-216
p172
aVROCKETMQ-215
p173
aVROCKETMQ-214
p174
aVROCKETMQ-213
p175
aVROCKETMQ-212
p176
aVROCKETMQ-211
p177
aVROCKETMQ-210
p178
aVROCKETMQ-209
p179
aVROCKETMQ-208
p180
aVROCKETMQ-207
p181
aVROCKETMQ-206
p182
aVROCKETMQ-205
p183
aVROCKETMQ-204
p184
aVROCKETMQ-203
p185
aVROCKETMQ-202
p186
aVROCKETMQ-201
p187
aVROCKETMQ-200
p188
aVROCKETMQ-199
p189
aVROCKETMQ-198
p190
aVROCKETMQ-197
p191
aVROCKETMQ-196
p192
aVROCKETMQ-195
p193
aVROCKETMQ-194
p194
aVROCKETMQ-193
p195
aVROCKETMQ-192
p196
aVROCKETMQ-191
p197
aVROCKETMQ-190
p198
aVROCKETMQ-189
p199
aVROCKETMQ-188
p200
aVROCKETMQ-187
p201
aVROCKETMQ-186
p202
aVROCKETMQ-185
p203
aVROCKETMQ-184
p204
aVROCKETMQ-183
p205
aVROCKETMQ-182
p206
aVROCKETMQ-181
p207
aVROCKETMQ-180
p208
aVROCKETMQ-179
p209
aVROCKETMQ-178
p210
aVROCKETMQ-177
p211
aVROCKETMQ-176
p212
aVROCKETMQ-175
p213
aVROCKETMQ-174
p214
aVROCKETMQ-173
p215
aVROCKETMQ-172
p216
aVROCKETMQ-171
p217
aVROCKETMQ-170
p218
aVROCKETMQ-169
p219
aVROCKETMQ-168
p220
aVROCKETMQ-167
p221
aVROCKETMQ-166
p222
aVROCKETMQ-165
p223
aVROCKETMQ-164
p224
aVROCKETMQ-163
p225
aVROCKETMQ-162
p226
aVROCKETMQ-161
p227
aVROCKETMQ-160
p228
aVROCKETMQ-159
p229
aVROCKETMQ-158
p230
aVROCKETMQ-157
p231
aVROCKETMQ-156
p232
aVROCKETMQ-155
p233
aVROCKETMQ-154
p234
aVROCKETMQ-153
p235
aVROCKETMQ-152
p236
aVROCKETMQ-151
p237
aVROCKETMQ-150
p238
aVROCKETMQ-149
p239
aVROCKETMQ-148
p240
aVROCKETMQ-147
p241
aVROCKETMQ-146
p242
aVROCKETMQ-145
p243
aVROCKETMQ-144
p244
aVROCKETMQ-143
p245
aVROCKETMQ-142
p246
aVROCKETMQ-141
p247
aVROCKETMQ-140
p248
aVROCKETMQ-139
p249
aVROCKETMQ-138
p250
aVROCKETMQ-137
p251
aVROCKETMQ-136
p252
aVROCKETMQ-135
p253
aVROCKETMQ-134
p254
aVROCKETMQ-133
p255
aVROCKETMQ-132
p256
aVROCKETMQ-131
p257
aVROCKETMQ-130
p258
aVROCKETMQ-129
p259
aVROCKETMQ-128
p260
aVROCKETMQ-127
p261
aVROCKETMQ-126
p262
aVROCKETMQ-125
p263
aVROCKETMQ-124
p264
aVROCKETMQ-123
p265
aVROCKETMQ-122
p266
aVROCKETMQ-121
p267
aVROCKETMQ-120
p268
aVROCKETMQ-119
p269
aVROCKETMQ-118
p270
aVROCKETMQ-117
p271
aVROCKETMQ-116
p272
aVROCKETMQ-115
p273
aVROCKETMQ-114
p274
aVROCKETMQ-113
p275
aVROCKETMQ-112
p276
aVROCKETMQ-111
p277
aVROCKETMQ-110
p278
aVROCKETMQ-109
p279
aVROCKETMQ-108
p280
aVROCKETMQ-107
p281
aVROCKETMQ-106
p282
aVROCKETMQ-105
p283
aVROCKETMQ-104
p284
aVROCKETMQ-103
p285
aVROCKETMQ-102
p286
aVROCKETMQ-101
p287
aVROCKETMQ-100
p288
aVROCKETMQ-99
p289
aVROCKETMQ-98
p290
aVROCKETMQ-97
p291
aVROCKETMQ-96
p292
aVROCKETMQ-95
p293
aVROCKETMQ-94
p294
aVROCKETMQ-93
p295
aVROCKETMQ-92
p296
aVROCKETMQ-91
p297
aVROCKETMQ-90
p298
aVROCKETMQ-89
p299
aVROCKETMQ-88
p300
aVROCKETMQ-87
p301
aVROCKETMQ-86
p302
aVROCKETMQ-85
p303
aVROCKETMQ-84
p304
aVROCKETMQ-83
p305
aVROCKETMQ-82
p306
aVROCKETMQ-81
p307
aVROCKETMQ-80
p308
aVROCKETMQ-79
p309
aVROCKETMQ-78
p310
aVROCKETMQ-77
p311
aVROCKETMQ-76
p312
aVROCKETMQ-75
p313
aVROCKETMQ-74
p314
aVROCKETMQ-73
p315
aVROCKETMQ-72
p316
aVROCKETMQ-71
p317
aVROCKETMQ-70
p318
aVROCKETMQ-69
p319
aVROCKETMQ-67
p320
aVROCKETMQ-66
p321
aVROCKETMQ-65
p322
aVROCKETMQ-64
p323
aVROCKETMQ-63
p324
aVROCKETMQ-62
p325
aVROCKETMQ-60
p326
aVROCKETMQ-59
p327
aVROCKETMQ-58
p328
aVROCKETMQ-57
p329
aVROCKETMQ-56
p330
aVROCKETMQ-54
p331
aVROCKETMQ-53
p332
aVROCKETMQ-52
p333
aVROCKETMQ-51
p334
aVROCKETMQ-50
p335
aVROCKETMQ-49
p336
aVROCKETMQ-48
p337
aVROCKETMQ-47
p338
aVROCKETMQ-46
p339
aVROCKETMQ-45
p340
aVROCKETMQ-44
p341
aVROCKETMQ-43
p342
aVROCKETMQ-42
p343
aVROCKETMQ-41
p344
aVROCKETMQ-40
p345
aVROCKETMQ-39
p346
aVROCKETMQ-38
p347
aVROCKETMQ-37
p348
aVROCKETMQ-36
p349
aVROCKETMQ-35
p350
aVROCKETMQ-34
p351
aVROCKETMQ-33
p352
aVROCKETMQ-32
p353
aVROCKETMQ-31
p354
aVROCKETMQ-30
p355
aVROCKETMQ-29
p356
aVROCKETMQ-28
p357
aVROCKETMQ-27
p358
aVROCKETMQ-26
p359
aVROCKETMQ-25
p360
aVROCKETMQ-24
p361
aVROCKETMQ-23
p362
aVROCKETMQ-22
p363
aVROCKETMQ-21
p364
aVROCKETMQ-20
p365
aVROCKETMQ-19
p366
aVROCKETMQ-18
p367
aVROCKETMQ-17
p368
aVROCKETMQ-16
p369
aVROCKETMQ-15
p370
aVROCKETMQ-14
p371
aVROCKETMQ-13
p372
aVROCKETMQ-12
p373
aVROCKETMQ-11
p374
aVROCKETMQ-10
p375
aVROCKETMQ-9
p376
aVROCKETMQ-8
p377
aVROCKETMQ-7
p378
aVROCKETMQ-6
p379
aVROCKETMQ-5
p380
aVROCKETMQ-4
p381
aVROCKETMQ-3
p382
aVROCKETMQ-2
p383
aVROCKETMQ-1
p384
a.