(lp0
VSAMZA-1800
p1
aVSAMZA-1799
p2
aVSAMZA-1798
p3
aVSAMZA-1797
p4
aVSAMZA-1796
p5
aVSAMZA-1795
p6
aVSAMZA-1794
p7
aVSAMZA-1793
p8
aVSAMZA-1792
p9
aVSAMZA-1791
p10
aVSAMZA-1790
p11
aVSAMZA-1789
p12
aVSAMZA-1788
p13
aVSAMZA-1787
p14
aVSAMZA-1786
p15
aVSAMZA-1785
p16
aVSAMZA-1784
p17
aVSAMZA-1783
p18
aVSAMZA-1782
p19
aVSAMZA-1781
p20
aVSAMZA-1780
p21
aVSAMZA-1779
p22
aVSAMZA-1778
p23
aVSAMZA-1777
p24
aVSAMZA-1776
p25
aVSAMZA-1775
p26
aVSAMZA-1774
p27
aVSAMZA-1773
p28
aVSAMZA-1772
p29
aVSAMZA-1771
p30
aVSAMZA-1770
p31
aVSAMZA-1769
p32
aVSAMZA-1768
p33
aVSAMZA-1767
p34
aVSAMZA-1766
p35
aVSAMZA-1765
p36
aVSAMZA-1764
p37
aVSAMZA-1763
p38
aVSAMZA-1762
p39
aVSAMZA-1761
p40
aVSAMZA-1760
p41
aVSAMZA-1759
p42
aVSAMZA-1758
p43
aVSAMZA-1757
p44
aVSAMZA-1756
p45
aVSAMZA-1755
p46
aVSAMZA-1754
p47
aVSAMZA-1753
p48
aVSAMZA-1752
p49
aVSAMZA-1751
p50
aVSAMZA-1750
p51
aVSAMZA-1749
p52
aVSAMZA-1748
p53
aVSAMZA-1747
p54
aVSAMZA-1746
p55
aVSAMZA-1745
p56
aVSAMZA-1744
p57
aVSAMZA-1743
p58
aVSAMZA-1742
p59
aVSAMZA-1741
p60
aVSAMZA-1740
p61
aVSAMZA-1739
p62
aVSAMZA-1738
p63
aVSAMZA-1737
p64
aVSAMZA-1736
p65
aVSAMZA-1735
p66
aVSAMZA-1734
p67
aVSAMZA-1733
p68
aVSAMZA-1732
p69
aVSAMZA-1731
p70
aVSAMZA-1730
p71
aVSAMZA-1729
p72
aVSAMZA-1728
p73
aVSAMZA-1727
p74
aVSAMZA-1726
p75
aVSAMZA-1725
p76
aVSAMZA-1724
p77
aVSAMZA-1723
p78
aVSAMZA-1722
p79
aVSAMZA-1721
p80
aVSAMZA-1720
p81
aVSAMZA-1719
p82
aVSAMZA-1718
p83
aVSAMZA-1717
p84
aVSAMZA-1716
p85
aVSAMZA-1715
p86
aVSAMZA-1714
p87
aVSAMZA-1713
p88
aVSAMZA-1712
p89
aVSAMZA-1711
p90
aVSAMZA-1710
p91
aVSAMZA-1709
p92
aVSAMZA-1708
p93
aVSAMZA-1707
p94
aVSAMZA-1706
p95
aVSAMZA-1705
p96
aVSAMZA-1704
p97
aVSAMZA-1703
p98
aVSAMZA-1702
p99
aVSAMZA-1701
p100
aVSAMZA-1700
p101
aVSAMZA-1699
p102
aVSAMZA-1698
p103
aVSAMZA-1697
p104
aVSAMZA-1696
p105
aVSAMZA-1695
p106
aVSAMZA-1694
p107
aVSAMZA-1693
p108
aVSAMZA-1692
p109
aVSAMZA-1691
p110
aVSAMZA-1690
p111
aVSAMZA-1689
p112
aVSAMZA-1688
p113
aVSAMZA-1687
p114
aVSAMZA-1686
p115
aVSAMZA-1685
p116
aVSAMZA-1684
p117
aVSAMZA-1683
p118
aVSAMZA-1682
p119
aVSAMZA-1681
p120
aVSAMZA-1680
p121
aVSAMZA-1679
p122
aVSAMZA-1678
p123
aVSAMZA-1677
p124
aVSAMZA-1676
p125
aVSAMZA-1675
p126
aVSAMZA-1674
p127
aVSAMZA-1673
p128
aVSAMZA-1672
p129
aVSAMZA-1671
p130
aVSAMZA-1670
p131
aVSAMZA-1669
p132
aVSAMZA-1668
p133
aVSAMZA-1667
p134
aVSAMZA-1666
p135
aVSAMZA-1665
p136
aVSAMZA-1664
p137
aVSAMZA-1663
p138
aVSAMZA-1662
p139
aVSAMZA-1661
p140
aVSAMZA-1660
p141
aVSAMZA-1659
p142
aVSAMZA-1658
p143
aVSAMZA-1657
p144
aVSAMZA-1656
p145
aVSAMZA-1655
p146
aVSAMZA-1654
p147
aVSAMZA-1653
p148
aVSAMZA-1652
p149
aVSAMZA-1651
p150
aVSAMZA-1650
p151
aVSAMZA-1649
p152
aVSAMZA-1648
p153
aVSAMZA-1647
p154
aVSAMZA-1646
p155
aVSAMZA-1645
p156
aVSAMZA-1644
p157
aVSAMZA-1643
p158
aVSAMZA-1642
p159
aVSAMZA-1641
p160
aVSAMZA-1640
p161
aVSAMZA-1639
p162
aVSAMZA-1638
p163
aVSAMZA-1637
p164
aVSAMZA-1636
p165
aVSAMZA-1635
p166
aVSAMZA-1634
p167
aVSAMZA-1633
p168
aVSAMZA-1632
p169
aVSAMZA-1631
p170
aVSAMZA-1630
p171
aVSAMZA-1629
p172
aVSAMZA-1628
p173
aVSAMZA-1627
p174
aVSAMZA-1626
p175
aVSAMZA-1625
p176
aVSAMZA-1624
p177
aVSAMZA-1623
p178
aVSAMZA-1622
p179
aVSAMZA-1621
p180
aVSAMZA-1620
p181
aVSAMZA-1619
p182
aVSAMZA-1618
p183
aVSAMZA-1617
p184
aVSAMZA-1616
p185
aVSAMZA-1615
p186
aVSAMZA-1614
p187
aVSAMZA-1613
p188
aVSAMZA-1612
p189
aVSAMZA-1611
p190
aVSAMZA-1610
p191
aVSAMZA-1609
p192
aVSAMZA-1608
p193
aVSAMZA-1607
p194
aVSAMZA-1606
p195
aVSAMZA-1605
p196
aVSAMZA-1604
p197
aVSAMZA-1603
p198
aVSAMZA-1602
p199
aVSAMZA-1601
p200
aVSAMZA-1600
p201
aVSAMZA-1599
p202
aVSAMZA-1598
p203
aVSAMZA-1597
p204
aVSAMZA-1596
p205
aVSAMZA-1595
p206
aVSAMZA-1594
p207
aVSAMZA-1593
p208
aVSAMZA-1592
p209
aVSAMZA-1591
p210
aVSAMZA-1589
p211
aVSAMZA-1588
p212
aVSAMZA-1587
p213
aVSAMZA-1586
p214
aVSAMZA-1585
p215
aVSAMZA-1584
p216
aVSAMZA-1583
p217
aVSAMZA-1582
p218
aVSAMZA-1581
p219
aVSAMZA-1580
p220
aVSAMZA-1579
p221
aVSAMZA-1578
p222
aVSAMZA-1577
p223
aVSAMZA-1576
p224
aVSAMZA-1575
p225
aVSAMZA-1574
p226
aVSAMZA-1573
p227
aVSAMZA-1572
p228
aVSAMZA-1571
p229
aVSAMZA-1570
p230
aVSAMZA-1569
p231
aVSAMZA-1568
p232
aVSAMZA-1567
p233
aVSAMZA-1566
p234
aVSAMZA-1565
p235
aVSAMZA-1564
p236
aVSAMZA-1563
p237
aVSAMZA-1562
p238
aVSAMZA-1561
p239
aVSAMZA-1560
p240
aVSAMZA-1559
p241
aVSAMZA-1558
p242
aVSAMZA-1557
p243
aVSAMZA-1556
p244
aVSAMZA-1555
p245
aVSAMZA-1554
p246
aVSAMZA-1553
p247
aVSAMZA-1552
p248
aVSAMZA-1551
p249
aVSAMZA-1550
p250
aVSAMZA-1549
p251
aVSAMZA-1548
p252
aVSAMZA-1547
p253
aVSAMZA-1546
p254
aVSAMZA-1545
p255
aVSAMZA-1544
p256
aVSAMZA-1543
p257
aVSAMZA-1542
p258
aVSAMZA-1541
p259
aVSAMZA-1540
p260
aVSAMZA-1539
p261
aVSAMZA-1538
p262
aVSAMZA-1537
p263
aVSAMZA-1536
p264
aVSAMZA-1535
p265
aVSAMZA-1534
p266
aVSAMZA-1533
p267
aVSAMZA-1532
p268
aVSAMZA-1531
p269
aVSAMZA-1530
p270
aVSAMZA-1529
p271
aVSAMZA-1528
p272
aVSAMZA-1527
p273
aVSAMZA-1526
p274
aVSAMZA-1525
p275
aVSAMZA-1524
p276
aVSAMZA-1523
p277
aVSAMZA-1522
p278
aVSAMZA-1521
p279
aVSAMZA-1520
p280
aVSAMZA-1519
p281
aVSAMZA-1518
p282
aVSAMZA-1517
p283
aVSAMZA-1516
p284
aVSAMZA-1515
p285
aVSAMZA-1514
p286
aVSAMZA-1513
p287
aVSAMZA-1512
p288
aVSAMZA-1511
p289
aVSAMZA-1510
p290
aVSAMZA-1509
p291
aVSAMZA-1508
p292
aVSAMZA-1507
p293
aVSAMZA-1506
p294
aVSAMZA-1505
p295
aVSAMZA-1504
p296
aVSAMZA-1503
p297
aVSAMZA-1502
p298
aVSAMZA-1501
p299
aVSAMZA-1500
p300
aVSAMZA-1499
p301
aVSAMZA-1498
p302
aVSAMZA-1497
p303
aVSAMZA-1496
p304
aVSAMZA-1495
p305
aVSAMZA-1494
p306
aVSAMZA-1493
p307
aVSAMZA-1492
p308
aVSAMZA-1491
p309
aVSAMZA-1490
p310
aVSAMZA-1489
p311
aVSAMZA-1488
p312
aVSAMZA-1487
p313
aVSAMZA-1486
p314
aVSAMZA-1485
p315
aVSAMZA-1484
p316
aVSAMZA-1483
p317
aVSAMZA-1482
p318
aVSAMZA-1481
p319
aVSAMZA-1480
p320
aVSAMZA-1479
p321
aVSAMZA-1478
p322
aVSAMZA-1477
p323
aVSAMZA-1476
p324
aVSAMZA-1475
p325
aVSAMZA-1474
p326
aVSAMZA-1473
p327
aVSAMZA-1472
p328
aVSAMZA-1471
p329
aVSAMZA-1470
p330
aVSAMZA-1469
p331
aVSAMZA-1468
p332
aVSAMZA-1467
p333
aVSAMZA-1466
p334
aVSAMZA-1465
p335
aVSAMZA-1464
p336
aVSAMZA-1463
p337
aVSAMZA-1462
p338
aVSAMZA-1461
p339
aVSAMZA-1460
p340
aVSAMZA-1459
p341
aVSAMZA-1458
p342
aVSAMZA-1457
p343
aVSAMZA-1456
p344
aVSAMZA-1455
p345
aVSAMZA-1454
p346
aVSAMZA-1453
p347
aVSAMZA-1452
p348
aVSAMZA-1451
p349
aVSAMZA-1450
p350
aVSAMZA-1449
p351
aVSAMZA-1448
p352
aVSAMZA-1447
p353
aVSAMZA-1446
p354
aVSAMZA-1445
p355
aVSAMZA-1444
p356
aVSAMZA-1443
p357
aVSAMZA-1442
p358
aVSAMZA-1441
p359
aVSAMZA-1440
p360
aVSAMZA-1439
p361
aVSAMZA-1438
p362
aVSAMZA-1437
p363
aVSAMZA-1436
p364
aVSAMZA-1435
p365
aVSAMZA-1434
p366
aVSAMZA-1433
p367
aVSAMZA-1432
p368
aVSAMZA-1431
p369
aVSAMZA-1430
p370
aVSAMZA-1429
p371
aVSAMZA-1428
p372
aVSAMZA-1427
p373
aVSAMZA-1426
p374
aVSAMZA-1425
p375
aVSAMZA-1424
p376
aVSAMZA-1423
p377
aVSAMZA-1422
p378
aVSAMZA-1421
p379
aVSAMZA-1420
p380
aVSAMZA-1419
p381
aVSAMZA-1418
p382
aVSAMZA-1417
p383
aVSAMZA-1416
p384
aVSAMZA-1415
p385
aVSAMZA-1414
p386
aVSAMZA-1413
p387
aVSAMZA-1412
p388
aVSAMZA-1411
p389
aVSAMZA-1410
p390
aVSAMZA-1409
p391
aVSAMZA-1408
p392
aVSAMZA-1407
p393
aVSAMZA-1406
p394
aVSAMZA-1405
p395
aVSAMZA-1404
p396
aVSAMZA-1403
p397
aVSAMZA-1402
p398
aVSAMZA-1401
p399
aVSAMZA-1400
p400
aVSAMZA-1399
p401
aVSAMZA-1398
p402
aVSAMZA-1397
p403
aVSAMZA-1396
p404
aVSAMZA-1395
p405
aVSAMZA-1394
p406
aVSAMZA-1393
p407
aVSAMZA-1392
p408
aVSAMZA-1391
p409
aVSAMZA-1390
p410
aVSAMZA-1389
p411
aVSAMZA-1388
p412
aVSAMZA-1387
p413
aVSAMZA-1386
p414
aVSAMZA-1385
p415
aVSAMZA-1384
p416
aVSAMZA-1383
p417
aVSAMZA-1382
p418
aVSAMZA-1381
p419
aVSAMZA-1380
p420
aVSAMZA-1379
p421
aVSAMZA-1378
p422
aVSAMZA-1377
p423
aVSAMZA-1376
p424
aVSAMZA-1375
p425
aVSAMZA-1374
p426
aVSAMZA-1373
p427
aVSAMZA-1372
p428
aVSAMZA-1371
p429
aVSAMZA-1370
p430
aVSAMZA-1369
p431
aVSAMZA-1368
p432
aVSAMZA-1367
p433
aVSAMZA-1366
p434
aVSAMZA-1365
p435
aVSAMZA-1364
p436
aVSAMZA-1363
p437
aVSAMZA-1362
p438
aVSAMZA-1361
p439
aVSAMZA-1360
p440
aVSAMZA-1359
p441
aVSAMZA-1358
p442
aVSAMZA-1357
p443
aVSAMZA-1356
p444
aVSAMZA-1355
p445
aVSAMZA-1354
p446
aVSAMZA-1353
p447
aVSAMZA-1352
p448
aVSAMZA-1351
p449
aVSAMZA-1350
p450
aVSAMZA-1349
p451
aVSAMZA-1348
p452
aVSAMZA-1347
p453
aVSAMZA-1346
p454
aVSAMZA-1345
p455
aVSAMZA-1344
p456
aVSAMZA-1343
p457
aVSAMZA-1342
p458
aVSAMZA-1341
p459
aVSAMZA-1340
p460
aVSAMZA-1339
p461
aVSAMZA-1338
p462
aVSAMZA-1337
p463
aVSAMZA-1336
p464
aVSAMZA-1335
p465
aVSAMZA-1334
p466
aVSAMZA-1333
p467
aVSAMZA-1332
p468
aVSAMZA-1331
p469
aVSAMZA-1330
p470
aVSAMZA-1329
p471
aVSAMZA-1328
p472
aVSAMZA-1327
p473
aVSAMZA-1326
p474
aVSAMZA-1325
p475
aVSAMZA-1324
p476
aVSAMZA-1323
p477
aVSAMZA-1322
p478
aVSAMZA-1321
p479
aVSAMZA-1320
p480
aVSAMZA-1319
p481
aVSAMZA-1318
p482
aVSAMZA-1317
p483
aVSAMZA-1316
p484
aVSAMZA-1315
p485
aVSAMZA-1314
p486
aVSAMZA-1313
p487
aVSAMZA-1312
p488
aVSAMZA-1311
p489
aVSAMZA-1310
p490
aVSAMZA-1309
p491
aVSAMZA-1308
p492
aVSAMZA-1307
p493
aVSAMZA-1306
p494
aVSAMZA-1305
p495
aVSAMZA-1304
p496
aVSAMZA-1303
p497
aVSAMZA-1302
p498
aVSAMZA-1301
p499
aVSAMZA-1300
p500
aVSAMZA-1299
p501
aVSAMZA-1298
p502
aVSAMZA-1297
p503
aVSAMZA-1296
p504
aVSAMZA-1295
p505
aVSAMZA-1294
p506
aVSAMZA-1293
p507
aVSAMZA-1292
p508
aVSAMZA-1291
p509
aVSAMZA-1290
p510
aVSAMZA-1289
p511
aVSAMZA-1288
p512
aVSAMZA-1287
p513
aVSAMZA-1286
p514
aVSAMZA-1285
p515
aVSAMZA-1284
p516
aVSAMZA-1283
p517
aVSAMZA-1282
p518
aVSAMZA-1281
p519
aVSAMZA-1280
p520
aVSAMZA-1279
p521
aVSAMZA-1278
p522
aVSAMZA-1277
p523
aVSAMZA-1276
p524
aVSAMZA-1275
p525
aVSAMZA-1274
p526
aVSAMZA-1273
p527
aVSAMZA-1272
p528
aVSAMZA-1271
p529
aVSAMZA-1270
p530
aVSAMZA-1269
p531
aVSAMZA-1268
p532
aVSAMZA-1267
p533
aVSAMZA-1266
p534
aVSAMZA-1265
p535
aVSAMZA-1264
p536
aVSAMZA-1263
p537
aVSAMZA-1262
p538
aVSAMZA-1261
p539
aVSAMZA-1260
p540
aVSAMZA-1259
p541
aVSAMZA-1258
p542
aVSAMZA-1257
p543
aVSAMZA-1256
p544
aVSAMZA-1255
p545
aVSAMZA-1254
p546
aVSAMZA-1253
p547
aVSAMZA-1252
p548
aVSAMZA-1251
p549
aVSAMZA-1250
p550
aVSAMZA-1249
p551
aVSAMZA-1248
p552
aVSAMZA-1247
p553
aVSAMZA-1246
p554
aVSAMZA-1245
p555
aVSAMZA-1244
p556
aVSAMZA-1243
p557
aVSAMZA-1242
p558
aVSAMZA-1241
p559
aVSAMZA-1240
p560
aVSAMZA-1239
p561
aVSAMZA-1238
p562
aVSAMZA-1237
p563
aVSAMZA-1236
p564
aVSAMZA-1235
p565
aVSAMZA-1234
p566
aVSAMZA-1233
p567
aVSAMZA-1232
p568
aVSAMZA-1231
p569
aVSAMZA-1230
p570
aVSAMZA-1229
p571
aVSAMZA-1228
p572
aVSAMZA-1227
p573
aVSAMZA-1226
p574
aVSAMZA-1225
p575
aVSAMZA-1224
p576
aVSAMZA-1223
p577
aVSAMZA-1222
p578
aVSAMZA-1221
p579
aVSAMZA-1220
p580
aVSAMZA-1219
p581
aVSAMZA-1218
p582
aVSAMZA-1217
p583
aVSAMZA-1216
p584
aVSAMZA-1215
p585
aVSAMZA-1214
p586
aVSAMZA-1213
p587
aVSAMZA-1212
p588
aVSAMZA-1211
p589
aVSAMZA-1210
p590
aVSAMZA-1209
p591
aVSAMZA-1208
p592
aVSAMZA-1207
p593
aVSAMZA-1206
p594
aVSAMZA-1205
p595
aVSAMZA-1204
p596
aVSAMZA-1203
p597
aVSAMZA-1202
p598
aVSAMZA-1201
p599
aVSAMZA-1200
p600
aVSAMZA-1199
p601
aVSAMZA-1198
p602
aVSAMZA-1197
p603
aVSAMZA-1196
p604
aVSAMZA-1195
p605
aVSAMZA-1194
p606
aVSAMZA-1193
p607
aVSAMZA-1192
p608
aVSAMZA-1191
p609
aVSAMZA-1190
p610
aVSAMZA-1189
p611
aVSAMZA-1188
p612
aVSAMZA-1187
p613
aVSAMZA-1186
p614
aVSAMZA-1185
p615
aVSAMZA-1184
p616
aVSAMZA-1183
p617
aVSAMZA-1182
p618
aVSAMZA-1181
p619
aVSAMZA-1180
p620
aVSAMZA-1179
p621
aVSAMZA-1178
p622
aVSAMZA-1177
p623
aVSAMZA-1176
p624
aVSAMZA-1175
p625
aVSAMZA-1174
p626
aVSAMZA-1173
p627
aVSAMZA-1172
p628
aVSAMZA-1171
p629
aVSAMZA-1170
p630
aVSAMZA-1169
p631
aVSAMZA-1168
p632
aVSAMZA-1167
p633
aVSAMZA-1166
p634
aVSAMZA-1165
p635
aVSAMZA-1164
p636
aVSAMZA-1163
p637
aVSAMZA-1162
p638
aVSAMZA-1161
p639
aVSAMZA-1160
p640
aVSAMZA-1159
p641
aVSAMZA-1158
p642
aVSAMZA-1157
p643
aVSAMZA-1156
p644
aVSAMZA-1155
p645
aVSAMZA-1154
p646
aVSAMZA-1153
p647
aVSAMZA-1152
p648
aVSAMZA-1151
p649
aVSAMZA-1150
p650
aVSAMZA-1149
p651
aVSAMZA-1148
p652
aVSAMZA-1147
p653
aVSAMZA-1146
p654
aVSAMZA-1145
p655
aVSAMZA-1144
p656
aVSAMZA-1143
p657
aVSAMZA-1142
p658
aVSAMZA-1141
p659
aVSAMZA-1140
p660
aVSAMZA-1139
p661
aVSAMZA-1138
p662
aVSAMZA-1137
p663
aVSAMZA-1136
p664
aVSAMZA-1135
p665
aVSAMZA-1134
p666
aVSAMZA-1133
p667
aVSAMZA-1132
p668
aVSAMZA-1131
p669
aVSAMZA-1130
p670
aVSAMZA-1129
p671
aVSAMZA-1128
p672
aVSAMZA-1127
p673
aVSAMZA-1126
p674
aVSAMZA-1125
p675
aVSAMZA-1124
p676
aVSAMZA-1123
p677
aVSAMZA-1122
p678
aVSAMZA-1121
p679
aVSAMZA-1120
p680
aVSAMZA-1119
p681
aVSAMZA-1118
p682
aVSAMZA-1117
p683
aVSAMZA-1116
p684
aVSAMZA-1115
p685
aVSAMZA-1114
p686
aVSAMZA-1113
p687
aVSAMZA-1112
p688
aVSAMZA-1111
p689
aVSAMZA-1110
p690
aVSAMZA-1109
p691
aVSAMZA-1108
p692
aVSAMZA-1107
p693
aVSAMZA-1106
p694
aVSAMZA-1105
p695
aVSAMZA-1104
p696
aVSAMZA-1103
p697
aVSAMZA-1102
p698
aVSAMZA-1101
p699
aVSAMZA-1100
p700
aVSAMZA-1099
p701
aVSAMZA-1098
p702
aVSAMZA-1097
p703
aVSAMZA-1096
p704
aVSAMZA-1095
p705
aVSAMZA-1094
p706
aVSAMZA-1093
p707
aVSAMZA-1092
p708
aVSAMZA-1091
p709
aVSAMZA-1090
p710
aVSAMZA-1089
p711
aVSAMZA-1088
p712
aVSAMZA-1087
p713
aVSAMZA-1086
p714
aVSAMZA-1085
p715
aVSAMZA-1084
p716
aVSAMZA-1083
p717
aVSAMZA-1082
p718
aVSAMZA-1081
p719
aVSAMZA-1080
p720
aVSAMZA-1079
p721
aVSAMZA-1078
p722
aVSAMZA-1077
p723
aVSAMZA-1076
p724
aVSAMZA-1075
p725
aVSAMZA-1074
p726
aVSAMZA-1073
p727
aVSAMZA-1072
p728
aVSAMZA-1071
p729
aVSAMZA-1070
p730
aVSAMZA-1069
p731
aVSAMZA-1068
p732
aVSAMZA-1067
p733
aVSAMZA-1066
p734
aVSAMZA-1065
p735
aVSAMZA-1064
p736
aVSAMZA-1063
p737
aVSAMZA-1062
p738
aVSAMZA-1061
p739
aVSAMZA-1060
p740
aVSAMZA-1059
p741
aVSAMZA-1058
p742
aVSAMZA-1057
p743
aVSAMZA-1056
p744
aVSAMZA-1055
p745
aVSAMZA-1054
p746
aVSAMZA-1053
p747
aVSAMZA-1052
p748
aVSAMZA-1051
p749
aVSAMZA-1050
p750
aVSAMZA-1049
p751
aVSAMZA-1048
p752
aVSAMZA-1047
p753
aVSAMZA-1046
p754
aVSAMZA-1045
p755
aVSAMZA-1044
p756
aVSAMZA-1043
p757
aVSAMZA-1042
p758
aVSAMZA-1041
p759
aVSAMZA-1040
p760
aVSAMZA-1039
p761
aVSAMZA-1038
p762
aVSAMZA-1037
p763
aVSAMZA-1036
p764
aVSAMZA-1035
p765
aVSAMZA-1034
p766
aVSAMZA-1033
p767
aVSAMZA-1032
p768
aVSAMZA-1031
p769
aVSAMZA-1030
p770
aVSAMZA-1029
p771
aVSAMZA-1028
p772
aVSAMZA-1027
p773
aVSAMZA-1026
p774
aVSAMZA-1025
p775
aVSAMZA-1024
p776
aVSAMZA-1023
p777
aVSAMZA-1022
p778
aVSAMZA-1021
p779
aVSAMZA-1020
p780
aVSAMZA-1019
p781
aVSAMZA-1018
p782
aVSAMZA-1017
p783
aVSAMZA-1016
p784
aVSAMZA-1015
p785
aVSAMZA-1014
p786
aVSAMZA-1013
p787
aVSAMZA-1012
p788
aVSAMZA-1011
p789
aVSAMZA-1010
p790
aVSAMZA-1009
p791
aVSAMZA-1008
p792
aVSAMZA-1007
p793
aVSAMZA-1006
p794
aVSAMZA-1005
p795
aVSAMZA-1004
p796
aVSAMZA-1003
p797
aVSAMZA-1002
p798
aVSAMZA-1001
p799
aVSAMZA-1000
p800
aVSAMZA-999
p801
aVSAMZA-998
p802
aVSAMZA-997
p803
aVSAMZA-996
p804
aVSAMZA-995
p805
aVSAMZA-994
p806
aVSAMZA-993
p807
aVSAMZA-992
p808
aVSAMZA-991
p809
aVSAMZA-990
p810
aVSAMZA-989
p811
aVSAMZA-988
p812
aVSAMZA-987
p813
aVSAMZA-986
p814
aVSAMZA-985
p815
aVSAMZA-984
p816
aVSAMZA-983
p817
aVSAMZA-982
p818
aVSAMZA-981
p819
aVSAMZA-980
p820
aVSAMZA-979
p821
aVSAMZA-978
p822
aVSAMZA-977
p823
aVSAMZA-976
p824
aVSAMZA-975
p825
aVSAMZA-974
p826
aVSAMZA-973
p827
aVSAMZA-972
p828
aVSAMZA-971
p829
aVSAMZA-970
p830
aVSAMZA-969
p831
aVSAMZA-968
p832
aVSAMZA-967
p833
aVSAMZA-966
p834
aVSAMZA-965
p835
aVSAMZA-964
p836
aVSAMZA-963
p837
aVSAMZA-962
p838
aVSAMZA-961
p839
aVSAMZA-960
p840
aVSAMZA-959
p841
aVSAMZA-958
p842
aVSAMZA-957
p843
aVSAMZA-956
p844
aVSAMZA-955
p845
aVSAMZA-954
p846
aVSAMZA-953
p847
aVSAMZA-952
p848
aVSAMZA-951
p849
aVSAMZA-950
p850
aVSAMZA-949
p851
aVSAMZA-948
p852
aVSAMZA-947
p853
aVSAMZA-946
p854
aVSAMZA-945
p855
aVSAMZA-944
p856
aVSAMZA-943
p857
aVSAMZA-942
p858
aVSAMZA-941
p859
aVSAMZA-940
p860
aVSAMZA-939
p861
aVSAMZA-938
p862
aVSAMZA-937
p863
aVSAMZA-936
p864
aVSAMZA-935
p865
aVSAMZA-934
p866
aVSAMZA-933
p867
aVSAMZA-932
p868
aVSAMZA-931
p869
aVSAMZA-930
p870
aVSAMZA-929
p871
aVSAMZA-928
p872
aVSAMZA-927
p873
aVSAMZA-926
p874
aVSAMZA-925
p875
aVSAMZA-924
p876
aVSAMZA-923
p877
aVSAMZA-922
p878
aVSAMZA-921
p879
aVSAMZA-920
p880
aVSAMZA-919
p881
aVSAMZA-918
p882
aVSAMZA-917
p883
aVSAMZA-916
p884
aVSAMZA-915
p885
aVSAMZA-914
p886
aVSAMZA-913
p887
aVSAMZA-912
p888
aVSAMZA-911
p889
aVSAMZA-910
p890
aVSAMZA-909
p891
aVSAMZA-908
p892
aVSAMZA-907
p893
aVSAMZA-906
p894
aVSAMZA-905
p895
aVSAMZA-904
p896
aVSAMZA-903
p897
aVSAMZA-902
p898
aVSAMZA-901
p899
aVSAMZA-900
p900
aVSAMZA-899
p901
aVSAMZA-898
p902
aVSAMZA-897
p903
aVSAMZA-896
p904
aVSAMZA-895
p905
aVSAMZA-894
p906
aVSAMZA-893
p907
aVSAMZA-892
p908
aVSAMZA-891
p909
aVSAMZA-890
p910
aVSAMZA-889
p911
aVSAMZA-888
p912
aVSAMZA-887
p913
aVSAMZA-886
p914
aVSAMZA-885
p915
aVSAMZA-884
p916
aVSAMZA-883
p917
aVSAMZA-882
p918
aVSAMZA-881
p919
aVSAMZA-880
p920
aVSAMZA-879
p921
aVSAMZA-878
p922
aVSAMZA-877
p923
aVSAMZA-876
p924
aVSAMZA-875
p925
aVSAMZA-874
p926
aVSAMZA-873
p927
aVSAMZA-872
p928
aVSAMZA-871
p929
aVSAMZA-870
p930
aVSAMZA-869
p931
aVSAMZA-868
p932
aVSAMZA-867
p933
aVSAMZA-866
p934
aVSAMZA-865
p935
aVSAMZA-864
p936
aVSAMZA-863
p937
aVSAMZA-862
p938
aVSAMZA-861
p939
aVSAMZA-860
p940
aVSAMZA-859
p941
aVSAMZA-858
p942
aVSAMZA-857
p943
aVSAMZA-856
p944
aVSAMZA-855
p945
aVSAMZA-854
p946
aVSAMZA-853
p947
aVSAMZA-852
p948
aVSAMZA-851
p949
aVSAMZA-850
p950
aVSAMZA-849
p951
aVSAMZA-848
p952
aVSAMZA-847
p953
aVSAMZA-846
p954
aVSAMZA-845
p955
aVSAMZA-844
p956
aVSAMZA-843
p957
aVSAMZA-842
p958
aVSAMZA-841
p959
aVSAMZA-840
p960
aVSAMZA-839
p961
aVSAMZA-838
p962
aVSAMZA-837
p963
aVSAMZA-836
p964
aVSAMZA-835
p965
aVSAMZA-834
p966
aVSAMZA-833
p967
aVSAMZA-832
p968
aVSAMZA-831
p969
aVSAMZA-830
p970
aVSAMZA-829
p971
aVSAMZA-828
p972
aVSAMZA-827
p973
aVSAMZA-826
p974
aVSAMZA-825
p975
aVSAMZA-824
p976
aVSAMZA-823
p977
aVSAMZA-822
p978
aVSAMZA-821
p979
aVSAMZA-820
p980
aVSAMZA-819
p981
aVSAMZA-818
p982
aVSAMZA-817
p983
aVSAMZA-816
p984
aVSAMZA-815
p985
aVSAMZA-814
p986
aVSAMZA-813
p987
aVSAMZA-812
p988
aVSAMZA-811
p989
aVSAMZA-810
p990
aVSAMZA-809
p991
aVSAMZA-808
p992
aVSAMZA-807
p993
aVSAMZA-806
p994
aVSAMZA-805
p995
aVSAMZA-804
p996
aVSAMZA-803
p997
aVSAMZA-802
p998
aVSAMZA-801
p999
aVSAMZA-800
p1000
aVSAMZA-799
p1001
aVSAMZA-798
p1002
aVSAMZA-797
p1003
aVSAMZA-796
p1004
aVSAMZA-795
p1005
aVSAMZA-794
p1006
aVSAMZA-793
p1007
aVSAMZA-792
p1008
aVSAMZA-791
p1009
aVSAMZA-790
p1010
aVSAMZA-789
p1011
aVSAMZA-788
p1012
aVSAMZA-787
p1013
aVSAMZA-786
p1014
aVSAMZA-785
p1015
aVSAMZA-784
p1016
aVSAMZA-783
p1017
aVSAMZA-782
p1018
aVSAMZA-781
p1019
aVSAMZA-780
p1020
aVSAMZA-779
p1021
aVSAMZA-778
p1022
aVSAMZA-777
p1023
aVSAMZA-776
p1024
aVSAMZA-775
p1025
aVSAMZA-774
p1026
aVSAMZA-773
p1027
aVSAMZA-772
p1028
aVSAMZA-771
p1029
aVSAMZA-770
p1030
aVSAMZA-769
p1031
aVSAMZA-768
p1032
aVSAMZA-767
p1033
aVSAMZA-766
p1034
aVSAMZA-765
p1035
aVSAMZA-764
p1036
aVSAMZA-763
p1037
aVSAMZA-762
p1038
aVSAMZA-761
p1039
aVSAMZA-760
p1040
aVSAMZA-759
p1041
aVSAMZA-758
p1042
aVSAMZA-757
p1043
aVSAMZA-756
p1044
aVSAMZA-755
p1045
aVSAMZA-754
p1046
aVSAMZA-753
p1047
aVSAMZA-752
p1048
aVSAMZA-751
p1049
aVSAMZA-750
p1050
aVSAMZA-749
p1051
aVSAMZA-748
p1052
aVSAMZA-747
p1053
aVSAMZA-746
p1054
aVSAMZA-745
p1055
aVSAMZA-744
p1056
aVSAMZA-743
p1057
aVSAMZA-742
p1058
aVSAMZA-741
p1059
aVSAMZA-740
p1060
aVSAMZA-739
p1061
aVSAMZA-738
p1062
aVSAMZA-737
p1063
aVSAMZA-736
p1064
aVSAMZA-735
p1065
aVSAMZA-734
p1066
aVSAMZA-733
p1067
aVSAMZA-732
p1068
aVSAMZA-731
p1069
aVSAMZA-730
p1070
aVSAMZA-729
p1071
aVSAMZA-728
p1072
aVSAMZA-727
p1073
aVSAMZA-726
p1074
aVSAMZA-725
p1075
aVSAMZA-724
p1076
aVSAMZA-723
p1077
aVSAMZA-722
p1078
aVSAMZA-721
p1079
aVSAMZA-720
p1080
aVSAMZA-719
p1081
aVSAMZA-718
p1082
aVSAMZA-717
p1083
aVSAMZA-716
p1084
aVSAMZA-715
p1085
aVSAMZA-714
p1086
aVSAMZA-713
p1087
aVSAMZA-712
p1088
aVSAMZA-711
p1089
aVSAMZA-710
p1090
aVSAMZA-709
p1091
aVSAMZA-708
p1092
aVSAMZA-707
p1093
aVSAMZA-706
p1094
aVSAMZA-705
p1095
aVSAMZA-704
p1096
aVSAMZA-703
p1097
aVSAMZA-702
p1098
aVSAMZA-701
p1099
aVSAMZA-700
p1100
aVSAMZA-699
p1101
aVSAMZA-698
p1102
aVSAMZA-697
p1103
aVSAMZA-696
p1104
aVSAMZA-695
p1105
aVSAMZA-694
p1106
aVSAMZA-693
p1107
aVSAMZA-692
p1108
aVSAMZA-691
p1109
aVSAMZA-690
p1110
aVSAMZA-689
p1111
aVSAMZA-688
p1112
aVSAMZA-687
p1113
aVSAMZA-686
p1114
aVSAMZA-685
p1115
aVSAMZA-684
p1116
aVSAMZA-683
p1117
aVSAMZA-682
p1118
aVSAMZA-681
p1119
aVSAMZA-680
p1120
aVSAMZA-679
p1121
aVSAMZA-678
p1122
aVSAMZA-677
p1123
aVSAMZA-676
p1124
aVSAMZA-675
p1125
aVSAMZA-674
p1126
aVSAMZA-673
p1127
aVSAMZA-672
p1128
aVSAMZA-671
p1129
aVSAMZA-670
p1130
aVSAMZA-669
p1131
aVSAMZA-668
p1132
aVSAMZA-667
p1133
aVSAMZA-666
p1134
aVSAMZA-665
p1135
aVSAMZA-664
p1136
aVSAMZA-663
p1137
aVSAMZA-662
p1138
aVSAMZA-661
p1139
aVSAMZA-660
p1140
aVSAMZA-659
p1141
aVSAMZA-658
p1142
aVSAMZA-657
p1143
aVSAMZA-656
p1144
aVSAMZA-655
p1145
aVSAMZA-654
p1146
aVSAMZA-653
p1147
aVSAMZA-652
p1148
aVSAMZA-651
p1149
aVSAMZA-650
p1150
aVSAMZA-649
p1151
aVSAMZA-648
p1152
aVSAMZA-647
p1153
aVSAMZA-646
p1154
aVSAMZA-645
p1155
aVSAMZA-644
p1156
aVSAMZA-643
p1157
aVSAMZA-642
p1158
aVSAMZA-641
p1159
aVSAMZA-640
p1160
aVSAMZA-639
p1161
aVSAMZA-638
p1162
aVSAMZA-637
p1163
aVSAMZA-636
p1164
aVSAMZA-635
p1165
aVSAMZA-634
p1166
aVSAMZA-633
p1167
aVSAMZA-632
p1168
aVSAMZA-631
p1169
aVSAMZA-630
p1170
aVSAMZA-629
p1171
aVSAMZA-628
p1172
aVSAMZA-627
p1173
aVSAMZA-626
p1174
aVSAMZA-625
p1175
aVSAMZA-624
p1176
aVSAMZA-623
p1177
aVSAMZA-622
p1178
aVSAMZA-621
p1179
aVSAMZA-620
p1180
aVSAMZA-619
p1181
aVSAMZA-618
p1182
aVSAMZA-617
p1183
aVSAMZA-616
p1184
aVSAMZA-615
p1185
aVSAMZA-614
p1186
aVSAMZA-613
p1187
aVSAMZA-612
p1188
aVSAMZA-611
p1189
aVSAMZA-610
p1190
aVSAMZA-609
p1191
aVSAMZA-608
p1192
aVSAMZA-607
p1193
aVSAMZA-606
p1194
aVSAMZA-605
p1195
aVSAMZA-604
p1196
aVSAMZA-603
p1197
aVSAMZA-602
p1198
aVSAMZA-601
p1199
aVSAMZA-600
p1200
aVSAMZA-599
p1201
aVSAMZA-598
p1202
aVSAMZA-597
p1203
aVSAMZA-596
p1204
aVSAMZA-595
p1205
aVSAMZA-594
p1206
aVSAMZA-593
p1207
aVSAMZA-592
p1208
aVSAMZA-591
p1209
aVSAMZA-590
p1210
aVSAMZA-589
p1211
aVSAMZA-588
p1212
aVSAMZA-587
p1213
aVSAMZA-586
p1214
aVSAMZA-585
p1215
aVSAMZA-584
p1216
aVSAMZA-583
p1217
aVSAMZA-582
p1218
aVSAMZA-581
p1219
aVSAMZA-580
p1220
aVSAMZA-579
p1221
aVSAMZA-578
p1222
aVSAMZA-577
p1223
aVSAMZA-576
p1224
aVSAMZA-575
p1225
aVSAMZA-574
p1226
aVSAMZA-573
p1227
aVSAMZA-572
p1228
aVSAMZA-571
p1229
aVSAMZA-570
p1230
aVSAMZA-569
p1231
aVSAMZA-568
p1232
aVSAMZA-567
p1233
aVSAMZA-566
p1234
aVSAMZA-565
p1235
aVSAMZA-564
p1236
aVSAMZA-563
p1237
aVSAMZA-562
p1238
aVSAMZA-561
p1239
aVSAMZA-560
p1240
aVSAMZA-559
p1241
aVSAMZA-558
p1242
aVSAMZA-557
p1243
aVSAMZA-556
p1244
aVSAMZA-555
p1245
aVSAMZA-554
p1246
aVSAMZA-553
p1247
aVSAMZA-552
p1248
aVSAMZA-551
p1249
aVSAMZA-550
p1250
aVSAMZA-549
p1251
aVSAMZA-548
p1252
aVSAMZA-547
p1253
aVSAMZA-546
p1254
aVSAMZA-545
p1255
aVSAMZA-544
p1256
aVSAMZA-543
p1257
aVSAMZA-542
p1258
aVSAMZA-541
p1259
aVSAMZA-540
p1260
aVSAMZA-539
p1261
aVSAMZA-538
p1262
aVSAMZA-537
p1263
aVSAMZA-536
p1264
aVSAMZA-535
p1265
aVSAMZA-534
p1266
aVSAMZA-533
p1267
aVSAMZA-532
p1268
aVSAMZA-531
p1269
aVSAMZA-530
p1270
aVSAMZA-529
p1271
aVSAMZA-528
p1272
aVSAMZA-527
p1273
aVSAMZA-526
p1274
aVSAMZA-525
p1275
aVSAMZA-524
p1276
aVSAMZA-523
p1277
aVSAMZA-522
p1278
aVSAMZA-521
p1279
aVSAMZA-520
p1280
aVSAMZA-519
p1281
aVSAMZA-518
p1282
aVSAMZA-517
p1283
aVSAMZA-516
p1284
aVSAMZA-515
p1285
aVSAMZA-514
p1286
aVSAMZA-513
p1287
aVSAMZA-512
p1288
aVSAMZA-511
p1289
aVSAMZA-510
p1290
aVSAMZA-509
p1291
aVSAMZA-508
p1292
aVSAMZA-507
p1293
aVSAMZA-506
p1294
aVSAMZA-505
p1295
aVSAMZA-504
p1296
aVSAMZA-503
p1297
aVSAMZA-502
p1298
aVSAMZA-501
p1299
aVSAMZA-500
p1300
aVSAMZA-499
p1301
aVSAMZA-498
p1302
aVSAMZA-497
p1303
aVSAMZA-496
p1304
aVSAMZA-495
p1305
aVSAMZA-494
p1306
aVSAMZA-493
p1307
aVSAMZA-492
p1308
aVSAMZA-491
p1309
aVSAMZA-490
p1310
aVSAMZA-489
p1311
aVSAMZA-488
p1312
aVSAMZA-487
p1313
aVSAMZA-486
p1314
aVSAMZA-485
p1315
aVSAMZA-484
p1316
aVSAMZA-483
p1317
aVSAMZA-482
p1318
aVSAMZA-481
p1319
aVSAMZA-480
p1320
aVSAMZA-479
p1321
aVSAMZA-478
p1322
aVSAMZA-477
p1323
aVSAMZA-476
p1324
aVSAMZA-475
p1325
aVSAMZA-474
p1326
aVSAMZA-473
p1327
aVSAMZA-472
p1328
aVSAMZA-471
p1329
aVSAMZA-470
p1330
aVSAMZA-469
p1331
aVSAMZA-468
p1332
aVSAMZA-467
p1333
aVSAMZA-466
p1334
aVSAMZA-465
p1335
aVSAMZA-464
p1336
aVSAMZA-463
p1337
aVSAMZA-462
p1338
aVSAMZA-461
p1339
aVSAMZA-460
p1340
aVSAMZA-459
p1341
aVSAMZA-458
p1342
aVSAMZA-457
p1343
aVSAMZA-456
p1344
aVSAMZA-455
p1345
aVSAMZA-454
p1346
aVSAMZA-453
p1347
aVSAMZA-452
p1348
aVSAMZA-451
p1349
aVSAMZA-450
p1350
aVSAMZA-449
p1351
aVSAMZA-448
p1352
aVSAMZA-447
p1353
aVSAMZA-446
p1354
aVSAMZA-445
p1355
aVSAMZA-444
p1356
aVSAMZA-443
p1357
aVSAMZA-442
p1358
aVSAMZA-441
p1359
aVSAMZA-440
p1360
aVSAMZA-439
p1361
aVSAMZA-438
p1362
aVSAMZA-437
p1363
aVSAMZA-436
p1364
aVSAMZA-435
p1365
aVSAMZA-434
p1366
aVSAMZA-433
p1367
aVSAMZA-432
p1368
aVSAMZA-431
p1369
aVSAMZA-430
p1370
aVSAMZA-429
p1371
aVSAMZA-428
p1372
aVSAMZA-427
p1373
aVSAMZA-426
p1374
aVSAMZA-425
p1375
aVSAMZA-424
p1376
aVSAMZA-423
p1377
aVSAMZA-422
p1378
aVSAMZA-421
p1379
aVSAMZA-420
p1380
aVSAMZA-419
p1381
aVSAMZA-418
p1382
aVSAMZA-417
p1383
aVSAMZA-416
p1384
aVSAMZA-415
p1385
aVSAMZA-414
p1386
aVSAMZA-413
p1387
aVSAMZA-412
p1388
aVSAMZA-411
p1389
aVSAMZA-410
p1390
aVSAMZA-409
p1391
aVSAMZA-408
p1392
aVSAMZA-407
p1393
aVSAMZA-406
p1394
aVSAMZA-405
p1395
aVSAMZA-404
p1396
aVSAMZA-403
p1397
aVSAMZA-402
p1398
aVSAMZA-401
p1399
aVSAMZA-400
p1400
aVSAMZA-399
p1401
aVSAMZA-398
p1402
aVSAMZA-397
p1403
aVSAMZA-396
p1404
aVSAMZA-395
p1405
aVSAMZA-394
p1406
aVSAMZA-393
p1407
aVSAMZA-392
p1408
aVSAMZA-391
p1409
aVSAMZA-390
p1410
aVSAMZA-389
p1411
aVSAMZA-388
p1412
aVSAMZA-387
p1413
aVSAMZA-386
p1414
aVSAMZA-385
p1415
aVSAMZA-384
p1416
aVSAMZA-383
p1417
aVSAMZA-382
p1418
aVSAMZA-381
p1419
aVSAMZA-380
p1420
aVSAMZA-379
p1421
aVSAMZA-378
p1422
aVSAMZA-377
p1423
aVSAMZA-376
p1424
aVSAMZA-375
p1425
aVSAMZA-374
p1426
aVSAMZA-373
p1427
aVSAMZA-372
p1428
aVSAMZA-371
p1429
aVSAMZA-370
p1430
aVSAMZA-369
p1431
aVSAMZA-368
p1432
aVSAMZA-367
p1433
aVSAMZA-366
p1434
aVSAMZA-365
p1435
aVSAMZA-364
p1436
aVSAMZA-363
p1437
aVSAMZA-362
p1438
aVSAMZA-361
p1439
aVSAMZA-360
p1440
aVSAMZA-359
p1441
aVSAMZA-358
p1442
aVSAMZA-357
p1443
aVSAMZA-356
p1444
aVSAMZA-355
p1445
aVSAMZA-354
p1446
aVSAMZA-353
p1447
aVSAMZA-352
p1448
aVSAMZA-351
p1449
aVSAMZA-350
p1450
aVSAMZA-349
p1451
aVSAMZA-348
p1452
aVSAMZA-347
p1453
aVSAMZA-346
p1454
aVSAMZA-345
p1455
aVSAMZA-344
p1456
aVSAMZA-343
p1457
aVSAMZA-342
p1458
aVSAMZA-341
p1459
aVSAMZA-340
p1460
aVSAMZA-339
p1461
aVSAMZA-338
p1462
aVSAMZA-337
p1463
aVSAMZA-336
p1464
aVSAMZA-335
p1465
aVSAMZA-334
p1466
aVSAMZA-333
p1467
aVSAMZA-332
p1468
aVSAMZA-331
p1469
aVSAMZA-330
p1470
aVSAMZA-329
p1471
aVSAMZA-328
p1472
aVSAMZA-327
p1473
aVSAMZA-326
p1474
aVSAMZA-325
p1475
aVSAMZA-324
p1476
aVSAMZA-323
p1477
aVSAMZA-322
p1478
aVSAMZA-321
p1479
aVSAMZA-320
p1480
aVSAMZA-319
p1481
aVSAMZA-318
p1482
aVSAMZA-317
p1483
aVSAMZA-316
p1484
aVSAMZA-315
p1485
aVSAMZA-314
p1486
aVSAMZA-313
p1487
aVSAMZA-312
p1488
aVSAMZA-311
p1489
aVSAMZA-310
p1490
aVSAMZA-309
p1491
aVSAMZA-308
p1492
aVSAMZA-307
p1493
aVSAMZA-306
p1494
aVSAMZA-305
p1495
aVSAMZA-304
p1496
aVSAMZA-303
p1497
aVSAMZA-302
p1498
aVSAMZA-301
p1499
aVSAMZA-300
p1500
aVSAMZA-299
p1501
aVSAMZA-298
p1502
aVSAMZA-297
p1503
aVSAMZA-296
p1504
aVSAMZA-295
p1505
aVSAMZA-294
p1506
aVSAMZA-293
p1507
aVSAMZA-292
p1508
aVSAMZA-291
p1509
aVSAMZA-290
p1510
aVSAMZA-289
p1511
aVSAMZA-288
p1512
aVSAMZA-287
p1513
aVSAMZA-286
p1514
aVSAMZA-285
p1515
aVSAMZA-284
p1516
aVSAMZA-283
p1517
aVSAMZA-282
p1518
aVSAMZA-281
p1519
aVSAMZA-280
p1520
aVSAMZA-279
p1521
aVSAMZA-278
p1522
aVSAMZA-277
p1523
aVSAMZA-276
p1524
aVSAMZA-275
p1525
aVSAMZA-274
p1526
aVSAMZA-273
p1527
aVSAMZA-272
p1528
aVSAMZA-271
p1529
aVSAMZA-270
p1530
aVSAMZA-269
p1531
aVSAMZA-268
p1532
aVSAMZA-267
p1533
aVSAMZA-266
p1534
aVSAMZA-265
p1535
aVSAMZA-264
p1536
aVSAMZA-263
p1537
aVSAMZA-262
p1538
aVSAMZA-261
p1539
aVSAMZA-260
p1540
aVSAMZA-259
p1541
aVSAMZA-258
p1542
aVSAMZA-257
p1543
aVSAMZA-256
p1544
aVSAMZA-255
p1545
aVSAMZA-254
p1546
aVSAMZA-253
p1547
aVSAMZA-252
p1548
aVSAMZA-251
p1549
aVSAMZA-250
p1550
aVSAMZA-249
p1551
aVSAMZA-248
p1552
aVSAMZA-247
p1553
aVSAMZA-246
p1554
aVSAMZA-245
p1555
aVSAMZA-244
p1556
aVSAMZA-243
p1557
aVSAMZA-242
p1558
aVSAMZA-241
p1559
aVSAMZA-240
p1560
aVSAMZA-239
p1561
aVSAMZA-238
p1562
aVSAMZA-237
p1563
aVSAMZA-236
p1564
aVSAMZA-235
p1565
aVSAMZA-234
p1566
aVSAMZA-233
p1567
aVSAMZA-232
p1568
aVSAMZA-231
p1569
aVSAMZA-230
p1570
aVSAMZA-229
p1571
aVSAMZA-228
p1572
aVSAMZA-227
p1573
aVSAMZA-226
p1574
aVSAMZA-225
p1575
aVSAMZA-224
p1576
aVSAMZA-223
p1577
aVSAMZA-222
p1578
aVSAMZA-221
p1579
aVSAMZA-220
p1580
aVSAMZA-219
p1581
aVSAMZA-218
p1582
aVSAMZA-217
p1583
aVSAMZA-216
p1584
aVSAMZA-215
p1585
aVSAMZA-214
p1586
aVSAMZA-213
p1587
aVSAMZA-212
p1588
aVSAMZA-211
p1589
aVSAMZA-210
p1590
aVSAMZA-209
p1591
aVSAMZA-208
p1592
aVSAMZA-207
p1593
aVSAMZA-206
p1594
aVSAMZA-205
p1595
aVSAMZA-204
p1596
aVSAMZA-203
p1597
aVSAMZA-202
p1598
aVSAMZA-201
p1599
aVSAMZA-200
p1600
aVSAMZA-199
p1601
aVSAMZA-198
p1602
aVSAMZA-197
p1603
aVSAMZA-196
p1604
aVSAMZA-195
p1605
aVSAMZA-194
p1606
aVSAMZA-193
p1607
aVSAMZA-192
p1608
aVSAMZA-191
p1609
aVSAMZA-190
p1610
aVSAMZA-189
p1611
aVSAMZA-188
p1612
aVSAMZA-187
p1613
aVSAMZA-186
p1614
aVSAMZA-185
p1615
aVSAMZA-184
p1616
aVSAMZA-183
p1617
aVSAMZA-182
p1618
aVSAMZA-181
p1619
aVSAMZA-180
p1620
aVSAMZA-179
p1621
aVSAMZA-178
p1622
aVSAMZA-177
p1623
aVSAMZA-176
p1624
aVSAMZA-175
p1625
aVSAMZA-174
p1626
aVSAMZA-173
p1627
aVSAMZA-172
p1628
aVSAMZA-171
p1629
aVSAMZA-170
p1630
aVSAMZA-169
p1631
aVSAMZA-168
p1632
aVSAMZA-167
p1633
aVSAMZA-166
p1634
aVSAMZA-165
p1635
aVSAMZA-164
p1636
aVSAMZA-163
p1637
aVSAMZA-162
p1638
aVSAMZA-161
p1639
aVSAMZA-160
p1640
aVSAMZA-159
p1641
aVSAMZA-158
p1642
aVSAMZA-157
p1643
aVSAMZA-156
p1644
aVSAMZA-155
p1645
aVSAMZA-154
p1646
aVSAMZA-153
p1647
aVSAMZA-152
p1648
aVSAMZA-151
p1649
aVSAMZA-150
p1650
aVSAMZA-149
p1651
aVSAMZA-148
p1652
aVSAMZA-147
p1653
aVSAMZA-146
p1654
aVSAMZA-145
p1655
aVSAMZA-144
p1656
aVSAMZA-143
p1657
aVSAMZA-142
p1658
aVSAMZA-141
p1659
aVSAMZA-140
p1660
aVSAMZA-139
p1661
aVSAMZA-138
p1662
aVSAMZA-137
p1663
aVSAMZA-136
p1664
aVSAMZA-135
p1665
aVSAMZA-134
p1666
aVSAMZA-133
p1667
aVSAMZA-132
p1668
aVSAMZA-131
p1669
aVSAMZA-130
p1670
aVSAMZA-129
p1671
aVSAMZA-128
p1672
aVSAMZA-127
p1673
aVSAMZA-126
p1674
aVSAMZA-125
p1675
aVSAMZA-124
p1676
aVSAMZA-123
p1677
aVSAMZA-122
p1678
aVSAMZA-121
p1679
aVSAMZA-120
p1680
aVSAMZA-119
p1681
aVSAMZA-118
p1682
aVSAMZA-117
p1683
aVSAMZA-116
p1684
aVSAMZA-115
p1685
aVSAMZA-114
p1686
aVSAMZA-113
p1687
aVSAMZA-112
p1688
aVSAMZA-111
p1689
aVSAMZA-110
p1690
aVSAMZA-109
p1691
aVSAMZA-108
p1692
aVSAMZA-107
p1693
aVSAMZA-106
p1694
aVSAMZA-105
p1695
aVSAMZA-104
p1696
aVSAMZA-103
p1697
aVSAMZA-102
p1698
aVSAMZA-101
p1699
aVSAMZA-100
p1700
aVSAMZA-99
p1701
aVSAMZA-98
p1702
aVSAMZA-97
p1703
aVSAMZA-96
p1704
aVSAMZA-95
p1705
aVSAMZA-94
p1706
aVSAMZA-93
p1707
aVSAMZA-92
p1708
aVSAMZA-91
p1709
aVSAMZA-90
p1710
aVSAMZA-89
p1711
aVSAMZA-88
p1712
aVSAMZA-87
p1713
aVSAMZA-86
p1714
aVSAMZA-85
p1715
aVSAMZA-84
p1716
aVSAMZA-83
p1717
aVSAMZA-82
p1718
aVSAMZA-81
p1719
aVSAMZA-80
p1720
aVSAMZA-79
p1721
aVSAMZA-78
p1722
aVSAMZA-77
p1723
aVSAMZA-76
p1724
aVSAMZA-75
p1725
aVSAMZA-74
p1726
aVSAMZA-73
p1727
aVSAMZA-72
p1728
aVSAMZA-71
p1729
aVSAMZA-70
p1730
aVSAMZA-69
p1731
aVSAMZA-68
p1732
aVSAMZA-67
p1733
aVSAMZA-66
p1734
aVSAMZA-65
p1735
aVSAMZA-64
p1736
aVSAMZA-63
p1737
aVSAMZA-62
p1738
aVSAMZA-61
p1739
aVSAMZA-60
p1740
aVSAMZA-59
p1741
aVSAMZA-58
p1742
aVSAMZA-57
p1743
aVSAMZA-56
p1744
aVSAMZA-55
p1745
aVSAMZA-54
p1746
aVSAMZA-53
p1747
aVSAMZA-52
p1748
aVSAMZA-51
p1749
aVSAMZA-50
p1750
aVSAMZA-49
p1751
aVSAMZA-48
p1752
aVSAMZA-47
p1753
aVSAMZA-46
p1754
aVSAMZA-45
p1755
aVSAMZA-44
p1756
aVSAMZA-43
p1757
aVSAMZA-42
p1758
aVSAMZA-41
p1759
aVSAMZA-40
p1760
aVSAMZA-39
p1761
aVSAMZA-38
p1762
aVSAMZA-37
p1763
aVSAMZA-36
p1764
aVSAMZA-35
p1765
aVSAMZA-34
p1766
aVSAMZA-33
p1767
aVSAMZA-32
p1768
aVSAMZA-31
p1769
aVSAMZA-30
p1770
aVSAMZA-29
p1771
aVSAMZA-28
p1772
aVSAMZA-27
p1773
aVSAMZA-26
p1774
aVSAMZA-25
p1775
aVSAMZA-24
p1776
aVSAMZA-23
p1777
aVSAMZA-22
p1778
aVSAMZA-21
p1779
aVSAMZA-20
p1780
aVSAMZA-19
p1781
aVSAMZA-18
p1782
aVSAMZA-17
p1783
aVSAMZA-16
p1784
aVSAMZA-15
p1785
aVSAMZA-14
p1786
aVSAMZA-13
p1787
aVSAMZA-12
p1788
aVSAMZA-11
p1789
aVSAMZA-10
p1790
aVSAMZA-9
p1791
aVSAMZA-8
p1792
aVSAMZA-7
p1793
aVSAMZA-6
p1794
aVSAMZA-5
p1795
aVSAMZA-4
p1796
aVSAMZA-3
p1797
aVSAMZA-2
p1798
aVSAMZA-1
p1799
a.