(lp0
VSAND-17
p1
aVSAND-16
p2
aVSAND-15
p3
aVSAND-14
p4
aVSAND-13
p5
aVSAND-12
p6
aVSAND-11
p7
aVSAND-10
p8
aVSAND-9
p9
aVSAND-8
p10
aVSAND-7
p11
aVSAND-6
p12
aVSAND-5
p13
aVSAND-4
p14
aVSAND-3
p15
aVSAND-2
p16
aVSAND-1
p17
a.