(lp0
VSB-112
p1
aVSB-111
p2
aVSB-110
p3
aVSB-109
p4
aVSB-108
p5
aVSB-107
p6
aVSB-106
p7
aVSB-105
p8
aVSB-79
p9
aVSB-33
p10
aVSB-32
p11
aVSB-16
p12
aVSB-11
p13
aVSB-10
p14
aVSB-9
p15
aVSB-7
p16
aVSB-6
p17
aVSB-5
p18
aVSB-4
p19
aVSB-3
p20
aVSB-2
p21
aVSB-1
p22
a.