(lp0
VSCM-890
p1
aVSCM-889
p2
aVSCM-888
p3
aVSCM-887
p4
aVSCM-886
p5
aVSCM-885
p6
aVSCM-884
p7
aVSCM-883
p8
aVSCM-882
p9
aVSCM-881
p10
aVSCM-880
p11
aVSCM-879
p12
aVSCM-878
p13
aVSCM-877
p14
aVSCM-876
p15
aVSCM-875
p16
aVSCM-874
p17
aVSCM-873
p18
aVSCM-872
p19
aVSCM-871
p20
aVSCM-870
p21
aVSCM-869
p22
aVSCM-868
p23
aVSCM-867
p24
aVSCM-866
p25
aVSCM-865
p26
aVSCM-864
p27
aVSCM-863
p28
aVSCM-862
p29
aVSCM-861
p30
aVSCM-860
p31
aVSCM-859
p32
aVSCM-858
p33
aVSCM-857
p34
aVSCM-856
p35
aVSCM-855
p36
aVSCM-854
p37
aVSCM-853
p38
aVSCM-852
p39
aVSCM-851
p40
aVSCM-850
p41
aVSCM-849
p42
aVSCM-848
p43
aVSCM-847
p44
aVSCM-846
p45
aVSCM-845
p46
aVSCM-844
p47
aVSCM-843
p48
aVSCM-842
p49
aVSCM-841
p50
aVSCM-840
p51
aVSCM-839
p52
aVSCM-838
p53
aVSCM-837
p54
aVSCM-836
p55
aVSCM-835
p56
aVSCM-834
p57
aVSCM-833
p58
aVSCM-832
p59
aVSCM-831
p60
aVSCM-830
p61
aVSCM-829
p62
aVSCM-828
p63
aVSCM-827
p64
aVSCM-826
p65
aVSCM-825
p66
aVSCM-824
p67
aVSCM-823
p68
aVSCM-822
p69
aVSCM-821
p70
aVSCM-820
p71
aVSCM-819
p72
aVSCM-818
p73
aVSCM-817
p74
aVSCM-816
p75
aVSCM-815
p76
aVSCM-814
p77
aVSCM-813
p78
aVSCM-812
p79
aVSCM-811
p80
aVSCM-810
p81
aVSCM-809
p82
aVSCM-808
p83
aVSCM-807
p84
aVSCM-806
p85
aVSCM-805
p86
aVSCM-804
p87
aVSCM-803
p88
aVSCM-802
p89
aVSCM-801
p90
aVSCM-800
p91
aVSCM-799
p92
aVSCM-798
p93
aVSCM-797
p94
aVSCM-796
p95
aVSCM-795
p96
aVSCM-794
p97
aVSCM-793
p98
aVSCM-792
p99
aVSCM-791
p100
aVSCM-790
p101
aVSCM-789
p102
aVSCM-788
p103
aVSCM-787
p104
aVSCM-786
p105
aVSCM-785
p106
aVSCM-784
p107
aVSCM-783
p108
aVSCM-782
p109
aVSCM-781
p110
aVSCM-780
p111
aVSCM-779
p112
aVSCM-778
p113
aVSCM-777
p114
aVSCM-776
p115
aVSCM-775
p116
aVSCM-774
p117
aVSCM-773
p118
aVSCM-772
p119
aVSCM-771
p120
aVSCM-770
p121
aVSCM-769
p122
aVSCM-768
p123
aVSCM-767
p124
aVSCM-766
p125
aVSCM-765
p126
aVSCM-764
p127
aVSCM-763
p128
aVSCM-762
p129
aVSCM-761
p130
aVSCM-760
p131
aVSCM-759
p132
aVSCM-758
p133
aVSCM-757
p134
aVSCM-756
p135
aVSCM-755
p136
aVSCM-754
p137
aVSCM-753
p138
aVSCM-752
p139
aVSCM-751
p140
aVSCM-750
p141
aVSCM-749
p142
aVSCM-748
p143
aVSCM-747
p144
aVSCM-746
p145
aVSCM-745
p146
aVSCM-744
p147
aVSCM-743
p148
aVSCM-742
p149
aVSCM-741
p150
aVSCM-740
p151
aVSCM-739
p152
aVSCM-738
p153
aVSCM-737
p154
aVSCM-736
p155
aVSCM-735
p156
aVSCM-734
p157
aVSCM-733
p158
aVSCM-732
p159
aVSCM-731
p160
aVSCM-730
p161
aVSCM-729
p162
aVSCM-728
p163
aVSCM-727
p164
aVSCM-726
p165
aVSCM-725
p166
aVSCM-724
p167
aVSCM-723
p168
aVSCM-722
p169
aVSCM-721
p170
aVSCM-720
p171
aVSCM-719
p172
aVSCM-718
p173
aVSCM-717
p174
aVSCM-716
p175
aVSCM-715
p176
aVSCM-714
p177
aVSCM-713
p178
aVSCM-712
p179
aVSCM-711
p180
aVSCM-710
p181
aVSCM-709
p182
aVSCM-708
p183
aVSCM-707
p184
aVSCM-706
p185
aVSCM-705
p186
aVSCM-704
p187
aVSCM-703
p188
aVSCM-702
p189
aVSCM-701
p190
aVSCM-700
p191
aVSCM-699
p192
aVSCM-698
p193
aVSCM-697
p194
aVSCM-696
p195
aVSCM-695
p196
aVSCM-694
p197
aVSCM-693
p198
aVSCM-692
p199
aVSCM-691
p200
aVSCM-690
p201
aVSCM-689
p202
aVSCM-688
p203
aVSCM-687
p204
aVSCM-686
p205
aVSCM-685
p206
aVSCM-684
p207
aVSCM-683
p208
aVSCM-682
p209
aVSCM-681
p210
aVSCM-680
p211
aVSCM-679
p212
aVSCM-678
p213
aVSCM-677
p214
aVSCM-676
p215
aVSCM-675
p216
aVSCM-674
p217
aVSCM-673
p218
aVSCM-672
p219
aVSCM-671
p220
aVSCM-670
p221
aVSCM-669
p222
aVSCM-668
p223
aVSCM-667
p224
aVSCM-666
p225
aVSCM-665
p226
aVSCM-664
p227
aVSCM-663
p228
aVSCM-662
p229
aVSCM-661
p230
aVSCM-660
p231
aVSCM-659
p232
aVSCM-658
p233
aVSCM-657
p234
aVSCM-656
p235
aVSCM-654
p236
aVSCM-653
p237
aVSCM-652
p238
aVSCM-651
p239
aVSCM-650
p240
aVSCM-649
p241
aVSCM-648
p242
aVSCM-647
p243
aVSCM-646
p244
aVSCM-645
p245
aVSCM-644
p246
aVSCM-643
p247
aVSCM-642
p248
aVSCM-641
p249
aVSCM-640
p250
aVSCM-639
p251
aVSCM-638
p252
aVSCM-637
p253
aVSCM-636
p254
aVSCM-635
p255
aVSCM-634
p256
aVSCM-633
p257
aVSCM-632
p258
aVSCM-631
p259
aVSCM-630
p260
aVSCM-629
p261
aVSCM-628
p262
aVSCM-627
p263
aVSCM-626
p264
aVSCM-625
p265
aVSCM-624
p266
aVSCM-623
p267
aVSCM-622
p268
aVSCM-621
p269
aVSCM-620
p270
aVSCM-619
p271
aVSCM-618
p272
aVSCM-617
p273
aVSCM-616
p274
aVSCM-615
p275
aVSCM-614
p276
aVSCM-613
p277
aVSCM-612
p278
aVSCM-611
p279
aVSCM-610
p280
aVSCM-609
p281
aVSCM-608
p282
aVSCM-607
p283
aVSCM-606
p284
aVSCM-605
p285
aVSCM-604
p286
aVSCM-603
p287
aVSCM-601
p288
aVSCM-600
p289
aVSCM-599
p290
aVSCM-598
p291
aVSCM-597
p292
aVSCM-596
p293
aVSCM-595
p294
aVSCM-594
p295
aVSCM-593
p296
aVSCM-592
p297
aVSCM-591
p298
aVSCM-590
p299
aVSCM-589
p300
aVSCM-588
p301
aVSCM-587
p302
aVSCM-586
p303
aVSCM-585
p304
aVSCM-584
p305
aVSCM-583
p306
aVSCM-582
p307
aVSCM-581
p308
aVSCM-580
p309
aVSCM-579
p310
aVSCM-578
p311
aVSCM-577
p312
aVSCM-576
p313
aVSCM-575
p314
aVSCM-574
p315
aVSCM-573
p316
aVSCM-572
p317
aVSCM-571
p318
aVSCM-570
p319
aVSCM-569
p320
aVSCM-568
p321
aVSCM-567
p322
aVSCM-566
p323
aVSCM-565
p324
aVSCM-564
p325
aVSCM-563
p326
aVSCM-562
p327
aVSCM-561
p328
aVSCM-560
p329
aVSCM-559
p330
aVSCM-558
p331
aVSCM-557
p332
aVSCM-556
p333
aVSCM-555
p334
aVSCM-554
p335
aVSCM-553
p336
aVSCM-552
p337
aVSCM-551
p338
aVSCM-550
p339
aVSCM-549
p340
aVSCM-548
p341
aVSCM-547
p342
aVSCM-546
p343
aVSCM-545
p344
aVSCM-544
p345
aVSCM-543
p346
aVSCM-542
p347
aVSCM-541
p348
aVSCM-540
p349
aVSCM-539
p350
aVSCM-538
p351
aVSCM-537
p352
aVSCM-535
p353
aVSCM-534
p354
aVSCM-533
p355
aVSCM-532
p356
aVSCM-531
p357
aVSCM-530
p358
aVSCM-529
p359
aVSCM-528
p360
aVSCM-527
p361
aVSCM-526
p362
aVSCM-525
p363
aVSCM-524
p364
aVSCM-523
p365
aVSCM-522
p366
aVSCM-521
p367
aVSCM-520
p368
aVSCM-518
p369
aVSCM-516
p370
aVSCM-515
p371
aVSCM-514
p372
aVSCM-513
p373
aVSCM-512
p374
aVSCM-511
p375
aVSCM-510
p376
aVSCM-509
p377
aVSCM-508
p378
aVSCM-507
p379
aVSCM-506
p380
aVSCM-505
p381
aVSCM-504
p382
aVSCM-503
p383
aVSCM-502
p384
aVSCM-501
p385
aVSCM-500
p386
aVSCM-499
p387
aVSCM-498
p388
aVSCM-497
p389
aVSCM-496
p390
aVSCM-495
p391
aVSCM-494
p392
aVSCM-493
p393
aVSCM-492
p394
aVSCM-491
p395
aVSCM-490
p396
aVSCM-489
p397
aVSCM-488
p398
aVSCM-487
p399
aVSCM-486
p400
aVSCM-483
p401
aVSCM-482
p402
aVSCM-481
p403
aVSCM-480
p404
aVSCM-479
p405
aVSCM-478
p406
aVSCM-477
p407
aVSCM-476
p408
aVSCM-475
p409
aVSCM-474
p410
aVSCM-473
p411
aVSCM-472
p412
aVSCM-471
p413
aVSCM-470
p414
aVSCM-469
p415
aVSCM-468
p416
aVSCM-467
p417
aVSCM-466
p418
aVSCM-465
p419
aVSCM-464
p420
aVSCM-463
p421
aVSCM-462
p422
aVSCM-461
p423
aVSCM-460
p424
aVSCM-459
p425
aVSCM-458
p426
aVSCM-457
p427
aVSCM-456
p428
aVSCM-455
p429
aVSCM-454
p430
aVSCM-453
p431
aVSCM-452
p432
aVSCM-451
p433
aVSCM-450
p434
aVSCM-449
p435
aVSCM-448
p436
aVSCM-447
p437
aVSCM-446
p438
aVSCM-445
p439
aVSCM-444
p440
aVSCM-443
p441
aVSCM-442
p442
aVSCM-441
p443
aVSCM-440
p444
aVSCM-439
p445
aVSCM-438
p446
aVSCM-437
p447
aVSCM-436
p448
aVSCM-435
p449
aVSCM-434
p450
aVSCM-433
p451
aVSCM-432
p452
aVSCM-431
p453
aVSCM-430
p454
aVSCM-429
p455
aVSCM-428
p456
aVSCM-427
p457
aVSCM-426
p458
aVSCM-425
p459
aVSCM-424
p460
aVSCM-423
p461
aVSCM-422
p462
aVSCM-421
p463
aVSCM-419
p464
aVSCM-418
p465
aVSCM-417
p466
aVSCM-416
p467
aVSCM-415
p468
aVSCM-414
p469
aVSCM-413
p470
aVSCM-412
p471
aVSCM-411
p472
aVSCM-410
p473
aVSCM-409
p474
aVSCM-408
p475
aVSCM-407
p476
aVSCM-406
p477
aVSCM-405
p478
aVSCM-404
p479
aVSCM-403
p480
aVSCM-402
p481
aVSCM-401
p482
aVSCM-400
p483
aVSCM-399
p484
aVSCM-398
p485
aVSCM-397
p486
aVSCM-396
p487
aVSCM-395
p488
aVSCM-394
p489
aVSCM-393
p490
aVSCM-392
p491
aVSCM-391
p492
aVSCM-390
p493
aVSCM-389
p494
aVSCM-388
p495
aVSCM-387
p496
aVSCM-386
p497
aVSCM-385
p498
aVSCM-384
p499
aVSCM-383
p500
aVSCM-382
p501
aVSCM-381
p502
aVSCM-380
p503
aVSCM-379
p504
aVSCM-378
p505
aVSCM-377
p506
aVSCM-376
p507
aVSCM-375
p508
aVSCM-374
p509
aVSCM-372
p510
aVSCM-371
p511
aVSCM-370
p512
aVSCM-369
p513
aVSCM-368
p514
aVSCM-367
p515
aVSCM-366
p516
aVSCM-365
p517
aVSCM-364
p518
aVSCM-363
p519
aVSCM-362
p520
aVSCM-361
p521
aVSCM-360
p522
aVSCM-359
p523
aVSCM-358
p524
aVSCM-357
p525
aVSCM-356
p526
aVSCM-355
p527
aVSCM-354
p528
aVSCM-353
p529
aVSCM-352
p530
aVSCM-351
p531
aVSCM-350
p532
aVSCM-349
p533
aVSCM-348
p534
aVSCM-347
p535
aVSCM-346
p536
aVSCM-345
p537
aVSCM-344
p538
aVSCM-343
p539
aVSCM-342
p540
aVSCM-341
p541
aVSCM-340
p542
aVSCM-339
p543
aVSCM-338
p544
aVSCM-337
p545
aVSCM-336
p546
aVSCM-335
p547
aVSCM-334
p548
aVSCM-333
p549
aVSCM-332
p550
aVSCM-331
p551
aVSCM-330
p552
aVSCM-329
p553
aVSCM-328
p554
aVSCM-327
p555
aVSCM-326
p556
aVSCM-325
p557
aVSCM-324
p558
aVSCM-323
p559
aVSCM-322
p560
aVSCM-321
p561
aVSCM-320
p562
aVSCM-319
p563
aVSCM-318
p564
aVSCM-317
p565
aVSCM-316
p566
aVSCM-315
p567
aVSCM-314
p568
aVSCM-313
p569
aVSCM-312
p570
aVSCM-311
p571
aVSCM-310
p572
aVSCM-309
p573
aVSCM-308
p574
aVSCM-307
p575
aVSCM-306
p576
aVSCM-305
p577
aVSCM-304
p578
aVSCM-303
p579
aVSCM-302
p580
aVSCM-301
p581
aVSCM-300
p582
aVSCM-299
p583
aVSCM-298
p584
aVSCM-297
p585
aVSCM-296
p586
aVSCM-295
p587
aVSCM-294
p588
aVSCM-293
p589
aVSCM-292
p590
aVSCM-291
p591
aVSCM-290
p592
aVSCM-289
p593
aVSCM-288
p594
aVSCM-287
p595
aVSCM-286
p596
aVSCM-285
p597
aVSCM-284
p598
aVSCM-283
p599
aVSCM-282
p600
aVSCM-281
p601
aVSCM-280
p602
aVSCM-279
p603
aVSCM-278
p604
aVSCM-277
p605
aVSCM-276
p606
aVSCM-275
p607
aVSCM-274
p608
aVSCM-273
p609
aVSCM-272
p610
aVSCM-271
p611
aVSCM-270
p612
aVSCM-269
p613
aVSCM-268
p614
aVSCM-267
p615
aVSCM-266
p616
aVSCM-265
p617
aVSCM-264
p618
aVSCM-263
p619
aVSCM-262
p620
aVSCM-261
p621
aVSCM-260
p622
aVSCM-259
p623
aVSCM-258
p624
aVSCM-257
p625
aVSCM-256
p626
aVSCM-255
p627
aVSCM-254
p628
aVSCM-253
p629
aVSCM-252
p630
aVSCM-251
p631
aVSCM-250
p632
aVSCM-249
p633
aVSCM-248
p634
aVSCM-247
p635
aVSCM-246
p636
aVSCM-245
p637
aVSCM-244
p638
aVSCM-243
p639
aVSCM-242
p640
aVSCM-241
p641
aVSCM-240
p642
aVSCM-239
p643
aVSCM-238
p644
aVSCM-237
p645
aVSCM-236
p646
aVSCM-235
p647
aVSCM-234
p648
aVSCM-233
p649
aVSCM-232
p650
aVSCM-231
p651
aVSCM-230
p652
aVSCM-229
p653
aVSCM-228
p654
aVSCM-227
p655
aVSCM-226
p656
aVSCM-225
p657
aVSCM-224
p658
aVSCM-223
p659
aVSCM-222
p660
aVSCM-221
p661
aVSCM-220
p662
aVSCM-219
p663
aVSCM-218
p664
aVSCM-217
p665
aVSCM-216
p666
aVSCM-215
p667
aVSCM-214
p668
aVSCM-213
p669
aVSCM-212
p670
aVSCM-211
p671
aVSCM-210
p672
aVSCM-209
p673
aVSCM-208
p674
aVSCM-207
p675
aVSCM-206
p676
aVSCM-205
p677
aVSCM-204
p678
aVSCM-203
p679
aVSCM-202
p680
aVSCM-201
p681
aVSCM-200
p682
aVSCM-199
p683
aVSCM-198
p684
aVSCM-196
p685
aVSCM-194
p686
aVSCM-193
p687
aVSCM-192
p688
aVSCM-191
p689
aVSCM-190
p690
aVSCM-189
p691
aVSCM-188
p692
aVSCM-187
p693
aVSCM-186
p694
aVSCM-185
p695
aVSCM-184
p696
aVSCM-183
p697
aVSCM-182
p698
aVSCM-181
p699
aVSCM-179
p700
aVSCM-178
p701
aVSCM-177
p702
aVSCM-176
p703
aVSCM-175
p704
aVSCM-174
p705
aVSCM-173
p706
aVSCM-172
p707
aVSCM-171
p708
aVSCM-170
p709
aVSCM-169
p710
aVSCM-168
p711
aVSCM-167
p712
aVSCM-166
p713
aVSCM-165
p714
aVSCM-164
p715
aVSCM-163
p716
aVSCM-162
p717
aVSCM-161
p718
aVSCM-160
p719
aVSCM-159
p720
aVSCM-158
p721
aVSCM-157
p722
aVSCM-156
p723
aVSCM-155
p724
aVSCM-154
p725
aVSCM-153
p726
aVSCM-151
p727
aVSCM-150
p728
aVSCM-149
p729
aVSCM-148
p730
aVSCM-147
p731
aVSCM-146
p732
aVSCM-145
p733
aVSCM-144
p734
aVSCM-143
p735
aVSCM-142
p736
aVSCM-141
p737
aVSCM-140
p738
aVSCM-139
p739
aVSCM-138
p740
aVSCM-136
p741
aVSCM-135
p742
aVSCM-134
p743
aVSCM-133
p744
aVSCM-132
p745
aVSCM-131
p746
aVSCM-130
p747
aVSCM-129
p748
aVSCM-128
p749
aVSCM-127
p750
aVSCM-126
p751
aVSCM-125
p752
aVSCM-124
p753
aVSCM-123
p754
aVSCM-122
p755
aVSCM-121
p756
aVSCM-120
p757
aVSCM-119
p758
aVSCM-118
p759
aVSCM-117
p760
aVSCM-116
p761
aVSCM-115
p762
aVSCM-114
p763
aVSCM-113
p764
aVSCM-112
p765
aVSCM-111
p766
aVSCM-110
p767
aVSCM-109
p768
aVSCM-108
p769
aVSCM-107
p770
aVSCM-106
p771
aVSCM-105
p772
aVSCM-104
p773
aVSCM-103
p774
aVSCM-102
p775
aVSCM-101
p776
aVSCM-100
p777
aVSCM-99
p778
aVSCM-98
p779
aVSCM-97
p780
aVSCM-96
p781
aVSCM-95
p782
aVSCM-94
p783
aVSCM-93
p784
aVSCM-92
p785
aVSCM-91
p786
aVSCM-90
p787
aVSCM-89
p788
aVSCM-88
p789
aVSCM-87
p790
aVSCM-86
p791
aVSCM-85
p792
aVSCM-84
p793
aVSCM-83
p794
aVSCM-82
p795
aVSCM-81
p796
aVSCM-80
p797
aVSCM-79
p798
aVSCM-78
p799
aVSCM-77
p800
aVSCM-76
p801
aVSCM-75
p802
aVSCM-74
p803
aVSCM-73
p804
aVSCM-72
p805
aVSCM-71
p806
aVSCM-70
p807
aVSCM-69
p808
aVSCM-68
p809
aVSCM-67
p810
aVSCM-66
p811
aVSCM-65
p812
aVSCM-64
p813
aVSCM-63
p814
aVSCM-62
p815
aVSCM-61
p816
aVSCM-60
p817
aVSCM-59
p818
aVSCM-58
p819
aVSCM-57
p820
aVSCM-56
p821
aVSCM-55
p822
aVSCM-54
p823
aVSCM-53
p824
aVSCM-52
p825
aVSCM-51
p826
aVSCM-50
p827
aVSCM-49
p828
aVSCM-48
p829
aVSCM-47
p830
aVSCM-46
p831
aVSCM-45
p832
aVSCM-44
p833
aVSCM-43
p834
aVSCM-42
p835
aVSCM-41
p836
aVSCM-40
p837
aVSCM-39
p838
aVSCM-38
p839
aVSCM-37
p840
aVSCM-36
p841
aVSCM-35
p842
aVSCM-34
p843
aVSCM-33
p844
aVSCM-32
p845
aVSCM-31
p846
aVSCM-30
p847
aVSCM-29
p848
aVSCM-28
p849
aVSCM-27
p850
aVSCM-26
p851
aVSCM-25
p852
aVSCM-24
p853
aVSCM-23
p854
aVSCM-22
p855
aVSCM-21
p856
aVSCM-20
p857
aVSCM-19
p858
aVSCM-18
p859
aVSCM-17
p860
aVSCM-16
p861
aVSCM-15
p862
aVSCM-14
p863
aVSCM-13
p864
aVSCM-12
p865
aVSCM-9
p866
aVSCM-8
p867
aVSCM-7
p868
aVSCM-6
p869
aVSCM-5
p870
aVSCM-4
p871
aVSCM-3
p872
aVSCM-2
p873
aVSCM-1
p874
a.