(lp0
VSCXML-282
p1
aVSCXML-281
p2
aVSCXML-280
p3
aVSCXML-279
p4
aVSCXML-278
p5
aVSCXML-277
p6
aVSCXML-276
p7
aVSCXML-275
p8
aVSCXML-274
p9
aVSCXML-273
p10
aVSCXML-272
p11
aVSCXML-271
p12
aVSCXML-270
p13
aVSCXML-269
p14
aVSCXML-268
p15
aVSCXML-267
p16
aVSCXML-266
p17
aVSCXML-265
p18
aVSCXML-264
p19
aVSCXML-263
p20
aVSCXML-262
p21
aVSCXML-261
p22
aVSCXML-260
p23
aVSCXML-259
p24
aVSCXML-258
p25
aVSCXML-257
p26
aVSCXML-256
p27
aVSCXML-255
p28
aVSCXML-254
p29
aVSCXML-253
p30
aVSCXML-252
p31
aVSCXML-251
p32
aVSCXML-250
p33
aVSCXML-249
p34
aVSCXML-248
p35
aVSCXML-247
p36
aVSCXML-246
p37
aVSCXML-245
p38
aVSCXML-244
p39
aVSCXML-243
p40
aVSCXML-242
p41
aVSCXML-241
p42
aVSCXML-240
p43
aVSCXML-239
p44
aVSCXML-238
p45
aVSCXML-237
p46
aVSCXML-236
p47
aVSCXML-235
p48
aVSCXML-234
p49
aVSCXML-233
p50
aVSCXML-232
p51
aVSCXML-231
p52
aVSCXML-230
p53
aVSCXML-229
p54
aVSCXML-228
p55
aVSCXML-227
p56
aVSCXML-226
p57
aVSCXML-225
p58
aVSCXML-224
p59
aVSCXML-223
p60
aVSCXML-222
p61
aVSCXML-221
p62
aVSCXML-220
p63
aVSCXML-219
p64
aVSCXML-218
p65
aVSCXML-217
p66
aVSCXML-216
p67
aVSCXML-215
p68
aVSCXML-214
p69
aVSCXML-213
p70
aVSCXML-212
p71
aVSCXML-211
p72
aVSCXML-210
p73
aVSCXML-209
p74
aVSCXML-208
p75
aVSCXML-207
p76
aVSCXML-206
p77
aVSCXML-205
p78
aVSCXML-204
p79
aVSCXML-203
p80
aVSCXML-202
p81
aVSCXML-201
p82
aVSCXML-200
p83
aVSCXML-199
p84
aVSCXML-198
p85
aVSCXML-197
p86
aVSCXML-196
p87
aVSCXML-195
p88
aVSCXML-194
p89
aVSCXML-193
p90
aVSCXML-192
p91
aVSCXML-191
p92
aVSCXML-190
p93
aVSCXML-188
p94
aVSCXML-187
p95
aVSCXML-186
p96
aVSCXML-185
p97
aVSCXML-184
p98
aVSCXML-183
p99
aVSCXML-182
p100
aVSCXML-181
p101
aVSCXML-180
p102
aVSCXML-179
p103
aVSCXML-178
p104
aVSCXML-177
p105
aVSCXML-176
p106
aVSCXML-175
p107
aVSCXML-174
p108
aVSCXML-173
p109
aVSCXML-172
p110
aVSCXML-171
p111
aVSCXML-170
p112
aVSCXML-169
p113
aVSCXML-168
p114
aVSCXML-167
p115
aVSCXML-166
p116
aVSCXML-165
p117
aVSCXML-164
p118
aVSCXML-163
p119
aVSCXML-162
p120
aVSCXML-161
p121
aVSCXML-160
p122
aVSCXML-159
p123
aVSCXML-158
p124
aVSCXML-157
p125
aVSCXML-156
p126
aVSCXML-155
p127
aVSCXML-154
p128
aVSCXML-153
p129
aVSCXML-152
p130
aVSCXML-151
p131
aVSCXML-150
p132
aVSCXML-149
p133
aVSCXML-148
p134
aVSCXML-147
p135
aVSCXML-146
p136
aVSCXML-145
p137
aVSCXML-144
p138
aVSCXML-143
p139
aVSCXML-142
p140
aVSCXML-141
p141
aVSCXML-140
p142
aVSCXML-139
p143
aVSCXML-138
p144
aVSCXML-137
p145
aVSCXML-136
p146
aVSCXML-135
p147
aVSCXML-134
p148
aVSCXML-133
p149
aVSCXML-132
p150
aVSCXML-131
p151
aVSCXML-130
p152
aVSCXML-129
p153
aVSCXML-128
p154
aVSCXML-127
p155
aVSCXML-126
p156
aVSCXML-125
p157
aVSCXML-124
p158
aVSCXML-123
p159
aVSCXML-122
p160
aVSCXML-121
p161
aVSCXML-120
p162
aVSCXML-119
p163
aVSCXML-118
p164
aVSCXML-117
p165
aVSCXML-116
p166
aVSCXML-115
p167
aVSCXML-114
p168
aVSCXML-113
p169
aVSCXML-112
p170
aVSCXML-111
p171
aVSCXML-110
p172
aVSCXML-109
p173
aVSCXML-108
p174
aVSCXML-107
p175
aVSCXML-106
p176
aVSCXML-105
p177
aVSCXML-104
p178
aVSCXML-103
p179
aVSCXML-102
p180
aVSCXML-101
p181
aVSCXML-100
p182
aVSCXML-99
p183
aVSCXML-98
p184
aVSCXML-97
p185
aVSCXML-96
p186
aVSCXML-95
p187
aVSCXML-94
p188
aVSCXML-93
p189
aVSCXML-92
p190
aVSCXML-91
p191
aVSCXML-90
p192
aVSCXML-89
p193
aVSCXML-88
p194
aVSCXML-87
p195
aVSCXML-86
p196
aVSCXML-85
p197
aVSCXML-84
p198
aVSCXML-83
p199
aVSCXML-82
p200
aVSCXML-81
p201
aVSCXML-80
p202
aVSCXML-79
p203
aVSCXML-78
p204
aVSCXML-77
p205
aVSCXML-76
p206
aVSCXML-75
p207
aVSCXML-74
p208
aVSCXML-73
p209
aVSCXML-72
p210
aVSCXML-71
p211
aVSCXML-70
p212
aVSCXML-69
p213
aVSCXML-68
p214
aVSCXML-67
p215
aVSCXML-66
p216
aVSCXML-65
p217
aVSCXML-64
p218
aVSCXML-63
p219
aVSCXML-62
p220
aVSCXML-61
p221
aVSCXML-60
p222
aVSCXML-59
p223
aVSCXML-58
p224
aVSCXML-57
p225
aVSCXML-56
p226
aVSCXML-55
p227
aVSCXML-54
p228
aVSCXML-53
p229
aVSCXML-52
p230
aVSCXML-51
p231
aVSCXML-50
p232
aVSCXML-49
p233
aVSCXML-48
p234
aVSCXML-47
p235
aVSCXML-46
p236
aVSCXML-45
p237
aVSCXML-44
p238
aVSCXML-43
p239
aVSCXML-42
p240
aVSCXML-41
p241
aVSCXML-40
p242
aVSCXML-39
p243
aVSCXML-38
p244
aVSCXML-37
p245
aVSCXML-36
p246
aVSCXML-35
p247
aVSCXML-34
p248
aVSCXML-33
p249
aVSCXML-32
p250
aVSCXML-31
p251
aVSCXML-30
p252
aVSCXML-29
p253
aVSCXML-28
p254
aVSCXML-27
p255
aVSCXML-26
p256
aVSCXML-25
p257
aVSCXML-24
p258
aVSCXML-23
p259
aVSCXML-22
p260
aVSCXML-21
p261
aVSCXML-20
p262
aVSCXML-19
p263
aVSCXML-18
p264
aVSCXML-17
p265
aVSCXML-16
p266
aVSCXML-15
p267
aVSCXML-14
p268
aVSCXML-13
p269
aVSCXML-12
p270
aVSCXML-11
p271
aVSCXML-10
p272
aVSCXML-9
p273
aVSCXML-8
p274
aVSCXML-7
p275
aVSCXML-6
p276
aVSCXML-5
p277
aVSCXML-4
p278
aVSCXML-3
p279
aVSCXML-2
p280
aVSCXML-1
p281
a.