(lp0
VSENTRY-2333
p1
aVSENTRY-2332
p2
aVSENTRY-2331
p3
aVSENTRY-2330
p4
aVSENTRY-2329
p5
aVSENTRY-2328
p6
aVSENTRY-2327
p7
aVSENTRY-2326
p8
aVSENTRY-2325
p9
aVSENTRY-2324
p10
aVSENTRY-2323
p11
aVSENTRY-2322
p12
aVSENTRY-2321
p13
aVSENTRY-2320
p14
aVSENTRY-2319
p15
aVSENTRY-2318
p16
aVSENTRY-2317
p17
aVSENTRY-2316
p18
aVSENTRY-2315
p19
aVSENTRY-2314
p20
aVSENTRY-2313
p21
aVSENTRY-2312
p22
aVSENTRY-2311
p23
aVSENTRY-2310
p24
aVSENTRY-2309
p25
aVSENTRY-2308
p26
aVSENTRY-2307
p27
aVSENTRY-2306
p28
aVSENTRY-2305
p29
aVSENTRY-2304
p30
aVSENTRY-2303
p31
aVSENTRY-2302
p32
aVSENTRY-2301
p33
aVSENTRY-2300
p34
aVSENTRY-2299
p35
aVSENTRY-2298
p36
aVSENTRY-2297
p37
aVSENTRY-2296
p38
aVSENTRY-2295
p39
aVSENTRY-2294
p40
aVSENTRY-2293
p41
aVSENTRY-2292
p42
aVSENTRY-2291
p43
aVSENTRY-2290
p44
aVSENTRY-2289
p45
aVSENTRY-2288
p46
aVSENTRY-2287
p47
aVSENTRY-2286
p48
aVSENTRY-2285
p49
aVSENTRY-2284
p50
aVSENTRY-2283
p51
aVSENTRY-2282
p52
aVSENTRY-2281
p53
aVSENTRY-2280
p54
aVSENTRY-2279
p55
aVSENTRY-2278
p56
aVSENTRY-2277
p57
aVSENTRY-2276
p58
aVSENTRY-2275
p59
aVSENTRY-2274
p60
aVSENTRY-2273
p61
aVSENTRY-2272
p62
aVSENTRY-2271
p63
aVSENTRY-2270
p64
aVSENTRY-2269
p65
aVSENTRY-2268
p66
aVSENTRY-2267
p67
aVSENTRY-2266
p68
aVSENTRY-2265
p69
aVSENTRY-2264
p70
aVSENTRY-2263
p71
aVSENTRY-2262
p72
aVSENTRY-2261
p73
aVSENTRY-2260
p74
aVSENTRY-2259
p75
aVSENTRY-2258
p76
aVSENTRY-2257
p77
aVSENTRY-2256
p78
aVSENTRY-2255
p79
aVSENTRY-2254
p80
aVSENTRY-2253
p81
aVSENTRY-2252
p82
aVSENTRY-2251
p83
aVSENTRY-2250
p84
aVSENTRY-2249
p85
aVSENTRY-2248
p86
aVSENTRY-2247
p87
aVSENTRY-2246
p88
aVSENTRY-2245
p89
aVSENTRY-2244
p90
aVSENTRY-2243
p91
aVSENTRY-2242
p92
aVSENTRY-2241
p93
aVSENTRY-2240
p94
aVSENTRY-2239
p95
aVSENTRY-2238
p96
aVSENTRY-2237
p97
aVSENTRY-2236
p98
aVSENTRY-2235
p99
aVSENTRY-2234
p100
aVSENTRY-2233
p101
aVSENTRY-2232
p102
aVSENTRY-2231
p103
aVSENTRY-2230
p104
aVSENTRY-2229
p105
aVSENTRY-2228
p106
aVSENTRY-2227
p107
aVSENTRY-2226
p108
aVSENTRY-2225
p109
aVSENTRY-2224
p110
aVSENTRY-2223
p111
aVSENTRY-2222
p112
aVSENTRY-2221
p113
aVSENTRY-2220
p114
aVSENTRY-2219
p115
aVSENTRY-2218
p116
aVSENTRY-2217
p117
aVSENTRY-2216
p118
aVSENTRY-2215
p119
aVSENTRY-2214
p120
aVSENTRY-2213
p121
aVSENTRY-2212
p122
aVSENTRY-2211
p123
aVSENTRY-2210
p124
aVSENTRY-2209
p125
aVSENTRY-2208
p126
aVSENTRY-2207
p127
aVSENTRY-2206
p128
aVSENTRY-2205
p129
aVSENTRY-2204
p130
aVSENTRY-2203
p131
aVSENTRY-2202
p132
aVSENTRY-2201
p133
aVSENTRY-2200
p134
aVSENTRY-2199
p135
aVSENTRY-2198
p136
aVSENTRY-2197
p137
aVSENTRY-2196
p138
aVSENTRY-2195
p139
aVSENTRY-2194
p140
aVSENTRY-2193
p141
aVSENTRY-2192
p142
aVSENTRY-2191
p143
aVSENTRY-2190
p144
aVSENTRY-2189
p145
aVSENTRY-2188
p146
aVSENTRY-2187
p147
aVSENTRY-2186
p148
aVSENTRY-2185
p149
aVSENTRY-2184
p150
aVSENTRY-2183
p151
aVSENTRY-2182
p152
aVSENTRY-2181
p153
aVSENTRY-2180
p154
aVSENTRY-2179
p155
aVSENTRY-2178
p156
aVSENTRY-2177
p157
aVSENTRY-2176
p158
aVSENTRY-2175
p159
aVSENTRY-2174
p160
aVSENTRY-2173
p161
aVSENTRY-2172
p162
aVSENTRY-2171
p163
aVSENTRY-2170
p164
aVSENTRY-2169
p165
aVSENTRY-2168
p166
aVSENTRY-2167
p167
aVSENTRY-2166
p168
aVSENTRY-2165
p169
aVSENTRY-2164
p170
aVSENTRY-2163
p171
aVSENTRY-2162
p172
aVSENTRY-2161
p173
aVSENTRY-2160
p174
aVSENTRY-2159
p175
aVSENTRY-2158
p176
aVSENTRY-2157
p177
aVSENTRY-2156
p178
aVSENTRY-2155
p179
aVSENTRY-2154
p180
aVSENTRY-2153
p181
aVSENTRY-2152
p182
aVSENTRY-2151
p183
aVSENTRY-2150
p184
aVSENTRY-2149
p185
aVSENTRY-2148
p186
aVSENTRY-2147
p187
aVSENTRY-2146
p188
aVSENTRY-2145
p189
aVSENTRY-2144
p190
aVSENTRY-2143
p191
aVSENTRY-2142
p192
aVSENTRY-2141
p193
aVSENTRY-2140
p194
aVSENTRY-2139
p195
aVSENTRY-2138
p196
aVSENTRY-2137
p197
aVSENTRY-2136
p198
aVSENTRY-2135
p199
aVSENTRY-2134
p200
aVSENTRY-2133
p201
aVSENTRY-2132
p202
aVSENTRY-2131
p203
aVSENTRY-2130
p204
aVSENTRY-2129
p205
aVSENTRY-2128
p206
aVSENTRY-2127
p207
aVSENTRY-2126
p208
aVSENTRY-2125
p209
aVSENTRY-2124
p210
aVSENTRY-2123
p211
aVSENTRY-2122
p212
aVSENTRY-2121
p213
aVSENTRY-2120
p214
aVSENTRY-2119
p215
aVSENTRY-2118
p216
aVSENTRY-2117
p217
aVSENTRY-2116
p218
aVSENTRY-2115
p219
aVSENTRY-2114
p220
aVSENTRY-2113
p221
aVSENTRY-2112
p222
aVSENTRY-2111
p223
aVSENTRY-2110
p224
aVSENTRY-2109
p225
aVSENTRY-2108
p226
aVSENTRY-2107
p227
aVSENTRY-2106
p228
aVSENTRY-2105
p229
aVSENTRY-2104
p230
aVSENTRY-2103
p231
aVSENTRY-2102
p232
aVSENTRY-2101
p233
aVSENTRY-2100
p234
aVSENTRY-2099
p235
aVSENTRY-2098
p236
aVSENTRY-2097
p237
aVSENTRY-2096
p238
aVSENTRY-2095
p239
aVSENTRY-2094
p240
aVSENTRY-2093
p241
aVSENTRY-2092
p242
aVSENTRY-2091
p243
aVSENTRY-2090
p244
aVSENTRY-2089
p245
aVSENTRY-2088
p246
aVSENTRY-2087
p247
aVSENTRY-2086
p248
aVSENTRY-2085
p249
aVSENTRY-2084
p250
aVSENTRY-2083
p251
aVSENTRY-2082
p252
aVSENTRY-2081
p253
aVSENTRY-2080
p254
aVSENTRY-2079
p255
aVSENTRY-2078
p256
aVSENTRY-2077
p257
aVSENTRY-2076
p258
aVSENTRY-2075
p259
aVSENTRY-2074
p260
aVSENTRY-2073
p261
aVSENTRY-2072
p262
aVSENTRY-2071
p263
aVSENTRY-2070
p264
aVSENTRY-2069
p265
aVSENTRY-2068
p266
aVSENTRY-2067
p267
aVSENTRY-2066
p268
aVSENTRY-2065
p269
aVSENTRY-2064
p270
aVSENTRY-2063
p271
aVSENTRY-2062
p272
aVSENTRY-2061
p273
aVSENTRY-2060
p274
aVSENTRY-2059
p275
aVSENTRY-2058
p276
aVSENTRY-2057
p277
aVSENTRY-2056
p278
aVSENTRY-2055
p279
aVSENTRY-2054
p280
aVSENTRY-2053
p281
aVSENTRY-2052
p282
aVSENTRY-2051
p283
aVSENTRY-2050
p284
aVSENTRY-2049
p285
aVSENTRY-2048
p286
aVSENTRY-2047
p287
aVSENTRY-2046
p288
aVSENTRY-2045
p289
aVSENTRY-2044
p290
aVSENTRY-2043
p291
aVSENTRY-2042
p292
aVSENTRY-2041
p293
aVSENTRY-2040
p294
aVSENTRY-2039
p295
aVSENTRY-2038
p296
aVSENTRY-2037
p297
aVSENTRY-2036
p298
aVSENTRY-2035
p299
aVSENTRY-2034
p300
aVSENTRY-2033
p301
aVSENTRY-2032
p302
aVSENTRY-2031
p303
aVSENTRY-2030
p304
aVSENTRY-2029
p305
aVSENTRY-2028
p306
aVSENTRY-2027
p307
aVSENTRY-2026
p308
aVSENTRY-2025
p309
aVSENTRY-2024
p310
aVSENTRY-2023
p311
aVSENTRY-2022
p312
aVSENTRY-2021
p313
aVSENTRY-2020
p314
aVSENTRY-2019
p315
aVSENTRY-2018
p316
aVSENTRY-2017
p317
aVSENTRY-2016
p318
aVSENTRY-2015
p319
aVSENTRY-2014
p320
aVSENTRY-2013
p321
aVSENTRY-2012
p322
aVSENTRY-2011
p323
aVSENTRY-2010
p324
aVSENTRY-2009
p325
aVSENTRY-2008
p326
aVSENTRY-2007
p327
aVSENTRY-2006
p328
aVSENTRY-2005
p329
aVSENTRY-2004
p330
aVSENTRY-2003
p331
aVSENTRY-2002
p332
aVSENTRY-2001
p333
aVSENTRY-2000
p334
aVSENTRY-1999
p335
aVSENTRY-1998
p336
aVSENTRY-1997
p337
aVSENTRY-1996
p338
aVSENTRY-1995
p339
aVSENTRY-1994
p340
aVSENTRY-1993
p341
aVSENTRY-1992
p342
aVSENTRY-1991
p343
aVSENTRY-1990
p344
aVSENTRY-1989
p345
aVSENTRY-1988
p346
aVSENTRY-1987
p347
aVSENTRY-1986
p348
aVSENTRY-1985
p349
aVSENTRY-1984
p350
aVSENTRY-1983
p351
aVSENTRY-1982
p352
aVSENTRY-1981
p353
aVSENTRY-1980
p354
aVSENTRY-1979
p355
aVSENTRY-1978
p356
aVSENTRY-1977
p357
aVSENTRY-1976
p358
aVSENTRY-1975
p359
aVSENTRY-1974
p360
aVSENTRY-1973
p361
aVSENTRY-1972
p362
aVSENTRY-1971
p363
aVSENTRY-1970
p364
aVSENTRY-1969
p365
aVSENTRY-1968
p366
aVSENTRY-1967
p367
aVSENTRY-1966
p368
aVSENTRY-1965
p369
aVSENTRY-1964
p370
aVSENTRY-1963
p371
aVSENTRY-1962
p372
aVSENTRY-1961
p373
aVSENTRY-1960
p374
aVSENTRY-1959
p375
aVSENTRY-1958
p376
aVSENTRY-1957
p377
aVSENTRY-1956
p378
aVSENTRY-1955
p379
aVSENTRY-1954
p380
aVSENTRY-1953
p381
aVSENTRY-1952
p382
aVSENTRY-1951
p383
aVSENTRY-1950
p384
aVSENTRY-1949
p385
aVSENTRY-1948
p386
aVSENTRY-1947
p387
aVSENTRY-1946
p388
aVSENTRY-1945
p389
aVSENTRY-1944
p390
aVSENTRY-1943
p391
aVSENTRY-1942
p392
aVSENTRY-1941
p393
aVSENTRY-1940
p394
aVSENTRY-1939
p395
aVSENTRY-1938
p396
aVSENTRY-1937
p397
aVSENTRY-1936
p398
aVSENTRY-1935
p399
aVSENTRY-1934
p400
aVSENTRY-1933
p401
aVSENTRY-1932
p402
aVSENTRY-1931
p403
aVSENTRY-1930
p404
aVSENTRY-1929
p405
aVSENTRY-1928
p406
aVSENTRY-1927
p407
aVSENTRY-1926
p408
aVSENTRY-1925
p409
aVSENTRY-1924
p410
aVSENTRY-1923
p411
aVSENTRY-1922
p412
aVSENTRY-1921
p413
aVSENTRY-1920
p414
aVSENTRY-1919
p415
aVSENTRY-1918
p416
aVSENTRY-1917
p417
aVSENTRY-1916
p418
aVSENTRY-1915
p419
aVSENTRY-1914
p420
aVSENTRY-1913
p421
aVSENTRY-1912
p422
aVSENTRY-1911
p423
aVSENTRY-1910
p424
aVSENTRY-1909
p425
aVSENTRY-1908
p426
aVSENTRY-1907
p427
aVSENTRY-1906
p428
aVSENTRY-1905
p429
aVSENTRY-1904
p430
aVSENTRY-1903
p431
aVSENTRY-1902
p432
aVSENTRY-1901
p433
aVSENTRY-1900
p434
aVSENTRY-1899
p435
aVSENTRY-1898
p436
aVSENTRY-1897
p437
aVSENTRY-1896
p438
aVSENTRY-1895
p439
aVSENTRY-1894
p440
aVSENTRY-1893
p441
aVSENTRY-1892
p442
aVSENTRY-1891
p443
aVSENTRY-1890
p444
aVSENTRY-1889
p445
aVSENTRY-1888
p446
aVSENTRY-1887
p447
aVSENTRY-1886
p448
aVSENTRY-1885
p449
aVSENTRY-1884
p450
aVSENTRY-1883
p451
aVSENTRY-1882
p452
aVSENTRY-1881
p453
aVSENTRY-1880
p454
aVSENTRY-1879
p455
aVSENTRY-1878
p456
aVSENTRY-1877
p457
aVSENTRY-1876
p458
aVSENTRY-1875
p459
aVSENTRY-1874
p460
aVSENTRY-1873
p461
aVSENTRY-1872
p462
aVSENTRY-1871
p463
aVSENTRY-1870
p464
aVSENTRY-1869
p465
aVSENTRY-1868
p466
aVSENTRY-1867
p467
aVSENTRY-1866
p468
aVSENTRY-1865
p469
aVSENTRY-1864
p470
aVSENTRY-1863
p471
aVSENTRY-1862
p472
aVSENTRY-1861
p473
aVSENTRY-1860
p474
aVSENTRY-1859
p475
aVSENTRY-1858
p476
aVSENTRY-1857
p477
aVSENTRY-1856
p478
aVSENTRY-1855
p479
aVSENTRY-1854
p480
aVSENTRY-1853
p481
aVSENTRY-1852
p482
aVSENTRY-1851
p483
aVSENTRY-1850
p484
aVSENTRY-1849
p485
aVSENTRY-1848
p486
aVSENTRY-1847
p487
aVSENTRY-1846
p488
aVSENTRY-1845
p489
aVSENTRY-1844
p490
aVSENTRY-1843
p491
aVSENTRY-1842
p492
aVSENTRY-1841
p493
aVSENTRY-1840
p494
aVSENTRY-1839
p495
aVSENTRY-1838
p496
aVSENTRY-1837
p497
aVSENTRY-1836
p498
aVSENTRY-1835
p499
aVSENTRY-1834
p500
aVSENTRY-1833
p501
aVSENTRY-1832
p502
aVSENTRY-1831
p503
aVSENTRY-1830
p504
aVSENTRY-1829
p505
aVSENTRY-1828
p506
aVSENTRY-1827
p507
aVSENTRY-1826
p508
aVSENTRY-1825
p509
aVSENTRY-1824
p510
aVSENTRY-1823
p511
aVSENTRY-1822
p512
aVSENTRY-1821
p513
aVSENTRY-1820
p514
aVSENTRY-1819
p515
aVSENTRY-1818
p516
aVSENTRY-1817
p517
aVSENTRY-1816
p518
aVSENTRY-1815
p519
aVSENTRY-1814
p520
aVSENTRY-1813
p521
aVSENTRY-1812
p522
aVSENTRY-1811
p523
aVSENTRY-1810
p524
aVSENTRY-1809
p525
aVSENTRY-1808
p526
aVSENTRY-1807
p527
aVSENTRY-1806
p528
aVSENTRY-1805
p529
aVSENTRY-1804
p530
aVSENTRY-1803
p531
aVSENTRY-1802
p532
aVSENTRY-1801
p533
aVSENTRY-1800
p534
aVSENTRY-1799
p535
aVSENTRY-1798
p536
aVSENTRY-1797
p537
aVSENTRY-1796
p538
aVSENTRY-1795
p539
aVSENTRY-1794
p540
aVSENTRY-1793
p541
aVSENTRY-1792
p542
aVSENTRY-1791
p543
aVSENTRY-1790
p544
aVSENTRY-1789
p545
aVSENTRY-1788
p546
aVSENTRY-1787
p547
aVSENTRY-1786
p548
aVSENTRY-1785
p549
aVSENTRY-1784
p550
aVSENTRY-1783
p551
aVSENTRY-1782
p552
aVSENTRY-1781
p553
aVSENTRY-1780
p554
aVSENTRY-1779
p555
aVSENTRY-1778
p556
aVSENTRY-1777
p557
aVSENTRY-1776
p558
aVSENTRY-1775
p559
aVSENTRY-1774
p560
aVSENTRY-1773
p561
aVSENTRY-1772
p562
aVSENTRY-1771
p563
aVSENTRY-1770
p564
aVSENTRY-1769
p565
aVSENTRY-1768
p566
aVSENTRY-1767
p567
aVSENTRY-1766
p568
aVSENTRY-1765
p569
aVSENTRY-1764
p570
aVSENTRY-1763
p571
aVSENTRY-1762
p572
aVSENTRY-1761
p573
aVSENTRY-1760
p574
aVSENTRY-1759
p575
aVSENTRY-1758
p576
aVSENTRY-1757
p577
aVSENTRY-1756
p578
aVSENTRY-1755
p579
aVSENTRY-1754
p580
aVSENTRY-1753
p581
aVSENTRY-1752
p582
aVSENTRY-1751
p583
aVSENTRY-1750
p584
aVSENTRY-1749
p585
aVSENTRY-1748
p586
aVSENTRY-1747
p587
aVSENTRY-1746
p588
aVSENTRY-1745
p589
aVSENTRY-1744
p590
aVSENTRY-1743
p591
aVSENTRY-1742
p592
aVSENTRY-1741
p593
aVSENTRY-1740
p594
aVSENTRY-1739
p595
aVSENTRY-1738
p596
aVSENTRY-1737
p597
aVSENTRY-1736
p598
aVSENTRY-1735
p599
aVSENTRY-1734
p600
aVSENTRY-1733
p601
aVSENTRY-1732
p602
aVSENTRY-1731
p603
aVSENTRY-1730
p604
aVSENTRY-1729
p605
aVSENTRY-1728
p606
aVSENTRY-1727
p607
aVSENTRY-1726
p608
aVSENTRY-1725
p609
aVSENTRY-1724
p610
aVSENTRY-1723
p611
aVSENTRY-1722
p612
aVSENTRY-1721
p613
aVSENTRY-1720
p614
aVSENTRY-1719
p615
aVSENTRY-1718
p616
aVSENTRY-1717
p617
aVSENTRY-1716
p618
aVSENTRY-1715
p619
aVSENTRY-1714
p620
aVSENTRY-1713
p621
aVSENTRY-1712
p622
aVSENTRY-1711
p623
aVSENTRY-1710
p624
aVSENTRY-1709
p625
aVSENTRY-1708
p626
aVSENTRY-1707
p627
aVSENTRY-1706
p628
aVSENTRY-1705
p629
aVSENTRY-1704
p630
aVSENTRY-1703
p631
aVSENTRY-1702
p632
aVSENTRY-1701
p633
aVSENTRY-1700
p634
aVSENTRY-1699
p635
aVSENTRY-1698
p636
aVSENTRY-1697
p637
aVSENTRY-1696
p638
aVSENTRY-1695
p639
aVSENTRY-1694
p640
aVSENTRY-1693
p641
aVSENTRY-1692
p642
aVSENTRY-1691
p643
aVSENTRY-1690
p644
aVSENTRY-1689
p645
aVSENTRY-1688
p646
aVSENTRY-1687
p647
aVSENTRY-1686
p648
aVSENTRY-1685
p649
aVSENTRY-1684
p650
aVSENTRY-1683
p651
aVSENTRY-1682
p652
aVSENTRY-1681
p653
aVSENTRY-1680
p654
aVSENTRY-1679
p655
aVSENTRY-1678
p656
aVSENTRY-1677
p657
aVSENTRY-1676
p658
aVSENTRY-1675
p659
aVSENTRY-1674
p660
aVSENTRY-1673
p661
aVSENTRY-1672
p662
aVSENTRY-1671
p663
aVSENTRY-1670
p664
aVSENTRY-1669
p665
aVSENTRY-1668
p666
aVSENTRY-1667
p667
aVSENTRY-1666
p668
aVSENTRY-1665
p669
aVSENTRY-1664
p670
aVSENTRY-1663
p671
aVSENTRY-1662
p672
aVSENTRY-1661
p673
aVSENTRY-1660
p674
aVSENTRY-1659
p675
aVSENTRY-1658
p676
aVSENTRY-1657
p677
aVSENTRY-1656
p678
aVSENTRY-1655
p679
aVSENTRY-1654
p680
aVSENTRY-1653
p681
aVSENTRY-1652
p682
aVSENTRY-1651
p683
aVSENTRY-1650
p684
aVSENTRY-1649
p685
aVSENTRY-1648
p686
aVSENTRY-1647
p687
aVSENTRY-1646
p688
aVSENTRY-1645
p689
aVSENTRY-1644
p690
aVSENTRY-1643
p691
aVSENTRY-1642
p692
aVSENTRY-1641
p693
aVSENTRY-1640
p694
aVSENTRY-1639
p695
aVSENTRY-1638
p696
aVSENTRY-1637
p697
aVSENTRY-1636
p698
aVSENTRY-1635
p699
aVSENTRY-1634
p700
aVSENTRY-1633
p701
aVSENTRY-1632
p702
aVSENTRY-1631
p703
aVSENTRY-1630
p704
aVSENTRY-1629
p705
aVSENTRY-1628
p706
aVSENTRY-1627
p707
aVSENTRY-1626
p708
aVSENTRY-1625
p709
aVSENTRY-1624
p710
aVSENTRY-1623
p711
aVSENTRY-1622
p712
aVSENTRY-1621
p713
aVSENTRY-1620
p714
aVSENTRY-1619
p715
aVSENTRY-1618
p716
aVSENTRY-1617
p717
aVSENTRY-1616
p718
aVSENTRY-1615
p719
aVSENTRY-1614
p720
aVSENTRY-1613
p721
aVSENTRY-1612
p722
aVSENTRY-1611
p723
aVSENTRY-1610
p724
aVSENTRY-1609
p725
aVSENTRY-1608
p726
aVSENTRY-1607
p727
aVSENTRY-1606
p728
aVSENTRY-1605
p729
aVSENTRY-1604
p730
aVSENTRY-1603
p731
aVSENTRY-1602
p732
aVSENTRY-1601
p733
aVSENTRY-1600
p734
aVSENTRY-1599
p735
aVSENTRY-1598
p736
aVSENTRY-1597
p737
aVSENTRY-1596
p738
aVSENTRY-1595
p739
aVSENTRY-1594
p740
aVSENTRY-1593
p741
aVSENTRY-1592
p742
aVSENTRY-1591
p743
aVSENTRY-1590
p744
aVSENTRY-1589
p745
aVSENTRY-1588
p746
aVSENTRY-1587
p747
aVSENTRY-1586
p748
aVSENTRY-1585
p749
aVSENTRY-1584
p750
aVSENTRY-1583
p751
aVSENTRY-1582
p752
aVSENTRY-1581
p753
aVSENTRY-1580
p754
aVSENTRY-1579
p755
aVSENTRY-1578
p756
aVSENTRY-1577
p757
aVSENTRY-1576
p758
aVSENTRY-1575
p759
aVSENTRY-1574
p760
aVSENTRY-1573
p761
aVSENTRY-1572
p762
aVSENTRY-1571
p763
aVSENTRY-1570
p764
aVSENTRY-1569
p765
aVSENTRY-1568
p766
aVSENTRY-1567
p767
aVSENTRY-1566
p768
aVSENTRY-1565
p769
aVSENTRY-1564
p770
aVSENTRY-1563
p771
aVSENTRY-1562
p772
aVSENTRY-1561
p773
aVSENTRY-1560
p774
aVSENTRY-1559
p775
aVSENTRY-1558
p776
aVSENTRY-1557
p777
aVSENTRY-1556
p778
aVSENTRY-1555
p779
aVSENTRY-1554
p780
aVSENTRY-1553
p781
aVSENTRY-1552
p782
aVSENTRY-1551
p783
aVSENTRY-1550
p784
aVSENTRY-1549
p785
aVSENTRY-1548
p786
aVSENTRY-1547
p787
aVSENTRY-1546
p788
aVSENTRY-1545
p789
aVSENTRY-1544
p790
aVSENTRY-1543
p791
aVSENTRY-1542
p792
aVSENTRY-1541
p793
aVSENTRY-1540
p794
aVSENTRY-1539
p795
aVSENTRY-1538
p796
aVSENTRY-1537
p797
aVSENTRY-1536
p798
aVSENTRY-1535
p799
aVSENTRY-1534
p800
aVSENTRY-1533
p801
aVSENTRY-1532
p802
aVSENTRY-1531
p803
aVSENTRY-1530
p804
aVSENTRY-1529
p805
aVSENTRY-1528
p806
aVSENTRY-1527
p807
aVSENTRY-1526
p808
aVSENTRY-1525
p809
aVSENTRY-1524
p810
aVSENTRY-1523
p811
aVSENTRY-1522
p812
aVSENTRY-1521
p813
aVSENTRY-1520
p814
aVSENTRY-1519
p815
aVSENTRY-1518
p816
aVSENTRY-1517
p817
aVSENTRY-1516
p818
aVSENTRY-1515
p819
aVSENTRY-1514
p820
aVSENTRY-1513
p821
aVSENTRY-1512
p822
aVSENTRY-1511
p823
aVSENTRY-1510
p824
aVSENTRY-1509
p825
aVSENTRY-1508
p826
aVSENTRY-1507
p827
aVSENTRY-1506
p828
aVSENTRY-1505
p829
aVSENTRY-1504
p830
aVSENTRY-1503
p831
aVSENTRY-1502
p832
aVSENTRY-1501
p833
aVSENTRY-1500
p834
aVSENTRY-1499
p835
aVSENTRY-1498
p836
aVSENTRY-1497
p837
aVSENTRY-1496
p838
aVSENTRY-1495
p839
aVSENTRY-1494
p840
aVSENTRY-1493
p841
aVSENTRY-1492
p842
aVSENTRY-1491
p843
aVSENTRY-1490
p844
aVSENTRY-1489
p845
aVSENTRY-1488
p846
aVSENTRY-1487
p847
aVSENTRY-1486
p848
aVSENTRY-1485
p849
aVSENTRY-1484
p850
aVSENTRY-1483
p851
aVSENTRY-1482
p852
aVSENTRY-1481
p853
aVSENTRY-1480
p854
aVSENTRY-1479
p855
aVSENTRY-1478
p856
aVSENTRY-1477
p857
aVSENTRY-1476
p858
aVSENTRY-1475
p859
aVSENTRY-1474
p860
aVSENTRY-1473
p861
aVSENTRY-1472
p862
aVSENTRY-1471
p863
aVSENTRY-1470
p864
aVSENTRY-1469
p865
aVSENTRY-1468
p866
aVSENTRY-1467
p867
aVSENTRY-1466
p868
aVSENTRY-1465
p869
aVSENTRY-1464
p870
aVSENTRY-1463
p871
aVSENTRY-1462
p872
aVSENTRY-1461
p873
aVSENTRY-1460
p874
aVSENTRY-1459
p875
aVSENTRY-1458
p876
aVSENTRY-1457
p877
aVSENTRY-1456
p878
aVSENTRY-1455
p879
aVSENTRY-1454
p880
aVSENTRY-1453
p881
aVSENTRY-1452
p882
aVSENTRY-1451
p883
aVSENTRY-1450
p884
aVSENTRY-1449
p885
aVSENTRY-1448
p886
aVSENTRY-1447
p887
aVSENTRY-1446
p888
aVSENTRY-1445
p889
aVSENTRY-1444
p890
aVSENTRY-1443
p891
aVSENTRY-1442
p892
aVSENTRY-1441
p893
aVSENTRY-1440
p894
aVSENTRY-1439
p895
aVSENTRY-1438
p896
aVSENTRY-1437
p897
aVSENTRY-1436
p898
aVSENTRY-1435
p899
aVSENTRY-1434
p900
aVSENTRY-1433
p901
aVSENTRY-1432
p902
aVSENTRY-1431
p903
aVSENTRY-1430
p904
aVSENTRY-1429
p905
aVSENTRY-1428
p906
aVSENTRY-1427
p907
aVSENTRY-1426
p908
aVSENTRY-1425
p909
aVSENTRY-1424
p910
aVSENTRY-1423
p911
aVSENTRY-1422
p912
aVSENTRY-1421
p913
aVSENTRY-1420
p914
aVSENTRY-1419
p915
aVSENTRY-1418
p916
aVSENTRY-1417
p917
aVSENTRY-1416
p918
aVSENTRY-1415
p919
aVSENTRY-1414
p920
aVSENTRY-1413
p921
aVSENTRY-1412
p922
aVSENTRY-1411
p923
aVSENTRY-1410
p924
aVSENTRY-1409
p925
aVSENTRY-1408
p926
aVSENTRY-1407
p927
aVSENTRY-1406
p928
aVSENTRY-1405
p929
aVSENTRY-1404
p930
aVSENTRY-1403
p931
aVSENTRY-1402
p932
aVSENTRY-1401
p933
aVSENTRY-1400
p934
aVSENTRY-1399
p935
aVSENTRY-1398
p936
aVSENTRY-1397
p937
aVSENTRY-1396
p938
aVSENTRY-1395
p939
aVSENTRY-1394
p940
aVSENTRY-1393
p941
aVSENTRY-1392
p942
aVSENTRY-1391
p943
aVSENTRY-1390
p944
aVSENTRY-1389
p945
aVSENTRY-1388
p946
aVSENTRY-1387
p947
aVSENTRY-1386
p948
aVSENTRY-1385
p949
aVSENTRY-1384
p950
aVSENTRY-1383
p951
aVSENTRY-1382
p952
aVSENTRY-1381
p953
aVSENTRY-1380
p954
aVSENTRY-1379
p955
aVSENTRY-1378
p956
aVSENTRY-1377
p957
aVSENTRY-1376
p958
aVSENTRY-1375
p959
aVSENTRY-1374
p960
aVSENTRY-1373
p961
aVSENTRY-1372
p962
aVSENTRY-1371
p963
aVSENTRY-1370
p964
aVSENTRY-1369
p965
aVSENTRY-1368
p966
aVSENTRY-1367
p967
aVSENTRY-1366
p968
aVSENTRY-1365
p969
aVSENTRY-1364
p970
aVSENTRY-1363
p971
aVSENTRY-1362
p972
aVSENTRY-1361
p973
aVSENTRY-1360
p974
aVSENTRY-1359
p975
aVSENTRY-1358
p976
aVSENTRY-1357
p977
aVSENTRY-1356
p978
aVSENTRY-1355
p979
aVSENTRY-1354
p980
aVSENTRY-1353
p981
aVSENTRY-1352
p982
aVSENTRY-1351
p983
aVSENTRY-1350
p984
aVSENTRY-1349
p985
aVSENTRY-1348
p986
aVSENTRY-1347
p987
aVSENTRY-1346
p988
aVSENTRY-1345
p989
aVSENTRY-1344
p990
aVSENTRY-1343
p991
aVSENTRY-1342
p992
aVSENTRY-1341
p993
aVSENTRY-1340
p994
aVSENTRY-1339
p995
aVSENTRY-1338
p996
aVSENTRY-1337
p997
aVSENTRY-1336
p998
aVSENTRY-1335
p999
aVSENTRY-1334
p1000
aVSENTRY-1333
p1001
aVSENTRY-1332
p1002
aVSENTRY-1331
p1003
aVSENTRY-1330
p1004
aVSENTRY-1329
p1005
aVSENTRY-1328
p1006
aVSENTRY-1327
p1007
aVSENTRY-1326
p1008
aVSENTRY-1325
p1009
aVSENTRY-1324
p1010
aVSENTRY-1323
p1011
aVSENTRY-1322
p1012
aVSENTRY-1321
p1013
aVSENTRY-1320
p1014
aVSENTRY-1319
p1015
aVSENTRY-1317
p1016
aVSENTRY-1316
p1017
aVSENTRY-1315
p1018
aVSENTRY-1314
p1019
aVSENTRY-1313
p1020
aVSENTRY-1312
p1021
aVSENTRY-1311
p1022
aVSENTRY-1310
p1023
aVSENTRY-1309
p1024
aVSENTRY-1308
p1025
aVSENTRY-1307
p1026
aVSENTRY-1306
p1027
aVSENTRY-1305
p1028
aVSENTRY-1304
p1029
aVSENTRY-1303
p1030
aVSENTRY-1302
p1031
aVSENTRY-1301
p1032
aVSENTRY-1300
p1033
aVSENTRY-1299
p1034
aVSENTRY-1298
p1035
aVSENTRY-1297
p1036
aVSENTRY-1296
p1037
aVSENTRY-1295
p1038
aVSENTRY-1294
p1039
aVSENTRY-1293
p1040
aVSENTRY-1292
p1041
aVSENTRY-1291
p1042
aVSENTRY-1290
p1043
aVSENTRY-1289
p1044
aVSENTRY-1288
p1045
aVSENTRY-1287
p1046
aVSENTRY-1286
p1047
aVSENTRY-1285
p1048
aVSENTRY-1284
p1049
aVSENTRY-1283
p1050
aVSENTRY-1282
p1051
aVSENTRY-1281
p1052
aVSENTRY-1280
p1053
aVSENTRY-1279
p1054
aVSENTRY-1278
p1055
aVSENTRY-1277
p1056
aVSENTRY-1276
p1057
aVSENTRY-1275
p1058
aVSENTRY-1274
p1059
aVSENTRY-1273
p1060
aVSENTRY-1272
p1061
aVSENTRY-1271
p1062
aVSENTRY-1270
p1063
aVSENTRY-1269
p1064
aVSENTRY-1268
p1065
aVSENTRY-1267
p1066
aVSENTRY-1266
p1067
aVSENTRY-1265
p1068
aVSENTRY-1264
p1069
aVSENTRY-1263
p1070
aVSENTRY-1262
p1071
aVSENTRY-1261
p1072
aVSENTRY-1260
p1073
aVSENTRY-1259
p1074
aVSENTRY-1258
p1075
aVSENTRY-1257
p1076
aVSENTRY-1256
p1077
aVSENTRY-1255
p1078
aVSENTRY-1254
p1079
aVSENTRY-1253
p1080
aVSENTRY-1252
p1081
aVSENTRY-1251
p1082
aVSENTRY-1250
p1083
aVSENTRY-1249
p1084
aVSENTRY-1248
p1085
aVSENTRY-1247
p1086
aVSENTRY-1246
p1087
aVSENTRY-1245
p1088
aVSENTRY-1244
p1089
aVSENTRY-1243
p1090
aVSENTRY-1242
p1091
aVSENTRY-1241
p1092
aVSENTRY-1240
p1093
aVSENTRY-1239
p1094
aVSENTRY-1238
p1095
aVSENTRY-1237
p1096
aVSENTRY-1236
p1097
aVSENTRY-1235
p1098
aVSENTRY-1234
p1099
aVSENTRY-1233
p1100
aVSENTRY-1232
p1101
aVSENTRY-1231
p1102
aVSENTRY-1230
p1103
aVSENTRY-1229
p1104
aVSENTRY-1228
p1105
aVSENTRY-1227
p1106
aVSENTRY-1226
p1107
aVSENTRY-1225
p1108
aVSENTRY-1224
p1109
aVSENTRY-1223
p1110
aVSENTRY-1222
p1111
aVSENTRY-1221
p1112
aVSENTRY-1220
p1113
aVSENTRY-1219
p1114
aVSENTRY-1218
p1115
aVSENTRY-1217
p1116
aVSENTRY-1216
p1117
aVSENTRY-1215
p1118
aVSENTRY-1214
p1119
aVSENTRY-1213
p1120
aVSENTRY-1212
p1121
aVSENTRY-1211
p1122
aVSENTRY-1210
p1123
aVSENTRY-1209
p1124
aVSENTRY-1208
p1125
aVSENTRY-1207
p1126
aVSENTRY-1206
p1127
aVSENTRY-1205
p1128
aVSENTRY-1204
p1129
aVSENTRY-1203
p1130
aVSENTRY-1202
p1131
aVSENTRY-1201
p1132
aVSENTRY-1200
p1133
aVSENTRY-1199
p1134
aVSENTRY-1198
p1135
aVSENTRY-1197
p1136
aVSENTRY-1196
p1137
aVSENTRY-1195
p1138
aVSENTRY-1194
p1139
aVSENTRY-1193
p1140
aVSENTRY-1192
p1141
aVSENTRY-1191
p1142
aVSENTRY-1190
p1143
aVSENTRY-1189
p1144
aVSENTRY-1188
p1145
aVSENTRY-1187
p1146
aVSENTRY-1186
p1147
aVSENTRY-1185
p1148
aVSENTRY-1184
p1149
aVSENTRY-1183
p1150
aVSENTRY-1182
p1151
aVSENTRY-1181
p1152
aVSENTRY-1180
p1153
aVSENTRY-1179
p1154
aVSENTRY-1178
p1155
aVSENTRY-1177
p1156
aVSENTRY-1176
p1157
aVSENTRY-1175
p1158
aVSENTRY-1173
p1159
aVSENTRY-1172
p1160
aVSENTRY-1171
p1161
aVSENTRY-1170
p1162
aVSENTRY-1169
p1163
aVSENTRY-1168
p1164
aVSENTRY-1167
p1165
aVSENTRY-1166
p1166
aVSENTRY-1165
p1167
aVSENTRY-1164
p1168
aVSENTRY-1163
p1169
aVSENTRY-1162
p1170
aVSENTRY-1161
p1171
aVSENTRY-1160
p1172
aVSENTRY-1159
p1173
aVSENTRY-1158
p1174
aVSENTRY-1157
p1175
aVSENTRY-1156
p1176
aVSENTRY-1155
p1177
aVSENTRY-1154
p1178
aVSENTRY-1153
p1179
aVSENTRY-1152
p1180
aVSENTRY-1151
p1181
aVSENTRY-1150
p1182
aVSENTRY-1149
p1183
aVSENTRY-1148
p1184
aVSENTRY-1147
p1185
aVSENTRY-1146
p1186
aVSENTRY-1144
p1187
aVSENTRY-1143
p1188
aVSENTRY-1142
p1189
aVSENTRY-1141
p1190
aVSENTRY-1140
p1191
aVSENTRY-1139
p1192
aVSENTRY-1138
p1193
aVSENTRY-1137
p1194
aVSENTRY-1136
p1195
aVSENTRY-1135
p1196
aVSENTRY-1134
p1197
aVSENTRY-1133
p1198
aVSENTRY-1132
p1199
aVSENTRY-1131
p1200
aVSENTRY-1130
p1201
aVSENTRY-1129
p1202
aVSENTRY-1128
p1203
aVSENTRY-1127
p1204
aVSENTRY-1126
p1205
aVSENTRY-1125
p1206
aVSENTRY-1124
p1207
aVSENTRY-1123
p1208
aVSENTRY-1122
p1209
aVSENTRY-1121
p1210
aVSENTRY-1120
p1211
aVSENTRY-1119
p1212
aVSENTRY-1118
p1213
aVSENTRY-1117
p1214
aVSENTRY-1116
p1215
aVSENTRY-1115
p1216
aVSENTRY-1114
p1217
aVSENTRY-1113
p1218
aVSENTRY-1112
p1219
aVSENTRY-1111
p1220
aVSENTRY-1110
p1221
aVSENTRY-1109
p1222
aVSENTRY-1108
p1223
aVSENTRY-1107
p1224
aVSENTRY-1106
p1225
aVSENTRY-1105
p1226
aVSENTRY-1104
p1227
aVSENTRY-1103
p1228
aVSENTRY-1102
p1229
aVSENTRY-1101
p1230
aVSENTRY-1100
p1231
aVSENTRY-1099
p1232
aVSENTRY-1098
p1233
aVSENTRY-1097
p1234
aVSENTRY-1096
p1235
aVSENTRY-1095
p1236
aVSENTRY-1094
p1237
aVSENTRY-1093
p1238
aVSENTRY-1092
p1239
aVSENTRY-1091
p1240
aVSENTRY-1090
p1241
aVSENTRY-1089
p1242
aVSENTRY-1088
p1243
aVSENTRY-1087
p1244
aVSENTRY-1086
p1245
aVSENTRY-1085
p1246
aVSENTRY-1084
p1247
aVSENTRY-1083
p1248
aVSENTRY-1082
p1249
aVSENTRY-1081
p1250
aVSENTRY-1080
p1251
aVSENTRY-1079
p1252
aVSENTRY-1078
p1253
aVSENTRY-1077
p1254
aVSENTRY-1076
p1255
aVSENTRY-1075
p1256
aVSENTRY-1074
p1257
aVSENTRY-1073
p1258
aVSENTRY-1072
p1259
aVSENTRY-1071
p1260
aVSENTRY-1070
p1261
aVSENTRY-1069
p1262
aVSENTRY-1068
p1263
aVSENTRY-1067
p1264
aVSENTRY-1066
p1265
aVSENTRY-1065
p1266
aVSENTRY-1064
p1267
aVSENTRY-1063
p1268
aVSENTRY-1062
p1269
aVSENTRY-1061
p1270
aVSENTRY-1060
p1271
aVSENTRY-1059
p1272
aVSENTRY-1058
p1273
aVSENTRY-1057
p1274
aVSENTRY-1056
p1275
aVSENTRY-1055
p1276
aVSENTRY-1054
p1277
aVSENTRY-1053
p1278
aVSENTRY-1052
p1279
aVSENTRY-1051
p1280
aVSENTRY-1050
p1281
aVSENTRY-1049
p1282
aVSENTRY-1048
p1283
aVSENTRY-1047
p1284
aVSENTRY-1046
p1285
aVSENTRY-1045
p1286
aVSENTRY-1044
p1287
aVSENTRY-1043
p1288
aVSENTRY-1042
p1289
aVSENTRY-1041
p1290
aVSENTRY-1040
p1291
aVSENTRY-1039
p1292
aVSENTRY-1038
p1293
aVSENTRY-1037
p1294
aVSENTRY-1036
p1295
aVSENTRY-1035
p1296
aVSENTRY-1034
p1297
aVSENTRY-1033
p1298
aVSENTRY-1032
p1299
aVSENTRY-1031
p1300
aVSENTRY-1030
p1301
aVSENTRY-1029
p1302
aVSENTRY-1028
p1303
aVSENTRY-1027
p1304
aVSENTRY-1026
p1305
aVSENTRY-1025
p1306
aVSENTRY-1024
p1307
aVSENTRY-1023
p1308
aVSENTRY-1022
p1309
aVSENTRY-1021
p1310
aVSENTRY-1020
p1311
aVSENTRY-1019
p1312
aVSENTRY-1018
p1313
aVSENTRY-1017
p1314
aVSENTRY-1016
p1315
aVSENTRY-1015
p1316
aVSENTRY-1014
p1317
aVSENTRY-1013
p1318
aVSENTRY-1012
p1319
aVSENTRY-1011
p1320
aVSENTRY-1010
p1321
aVSENTRY-1009
p1322
aVSENTRY-1008
p1323
aVSENTRY-1007
p1324
aVSENTRY-1006
p1325
aVSENTRY-1005
p1326
aVSENTRY-1004
p1327
aVSENTRY-1003
p1328
aVSENTRY-1002
p1329
aVSENTRY-1001
p1330
aVSENTRY-1000
p1331
aVSENTRY-999
p1332
aVSENTRY-998
p1333
aVSENTRY-997
p1334
aVSENTRY-996
p1335
aVSENTRY-995
p1336
aVSENTRY-994
p1337
aVSENTRY-993
p1338
aVSENTRY-992
p1339
aVSENTRY-991
p1340
aVSENTRY-990
p1341
aVSENTRY-989
p1342
aVSENTRY-988
p1343
aVSENTRY-987
p1344
aVSENTRY-986
p1345
aVSENTRY-985
p1346
aVSENTRY-984
p1347
aVSENTRY-983
p1348
aVSENTRY-982
p1349
aVSENTRY-981
p1350
aVSENTRY-980
p1351
aVSENTRY-979
p1352
aVSENTRY-978
p1353
aVSENTRY-977
p1354
aVSENTRY-976
p1355
aVSENTRY-975
p1356
aVSENTRY-974
p1357
aVSENTRY-973
p1358
aVSENTRY-972
p1359
aVSENTRY-971
p1360
aVSENTRY-970
p1361
aVSENTRY-969
p1362
aVSENTRY-968
p1363
aVSENTRY-967
p1364
aVSENTRY-966
p1365
aVSENTRY-965
p1366
aVSENTRY-964
p1367
aVSENTRY-963
p1368
aVSENTRY-962
p1369
aVSENTRY-961
p1370
aVSENTRY-960
p1371
aVSENTRY-959
p1372
aVSENTRY-958
p1373
aVSENTRY-957
p1374
aVSENTRY-956
p1375
aVSENTRY-955
p1376
aVSENTRY-954
p1377
aVSENTRY-953
p1378
aVSENTRY-952
p1379
aVSENTRY-951
p1380
aVSENTRY-950
p1381
aVSENTRY-949
p1382
aVSENTRY-948
p1383
aVSENTRY-947
p1384
aVSENTRY-946
p1385
aVSENTRY-945
p1386
aVSENTRY-944
p1387
aVSENTRY-943
p1388
aVSENTRY-942
p1389
aVSENTRY-941
p1390
aVSENTRY-940
p1391
aVSENTRY-939
p1392
aVSENTRY-938
p1393
aVSENTRY-937
p1394
aVSENTRY-936
p1395
aVSENTRY-935
p1396
aVSENTRY-934
p1397
aVSENTRY-933
p1398
aVSENTRY-932
p1399
aVSENTRY-931
p1400
aVSENTRY-930
p1401
aVSENTRY-929
p1402
aVSENTRY-928
p1403
aVSENTRY-927
p1404
aVSENTRY-926
p1405
aVSENTRY-925
p1406
aVSENTRY-924
p1407
aVSENTRY-923
p1408
aVSENTRY-922
p1409
aVSENTRY-921
p1410
aVSENTRY-920
p1411
aVSENTRY-919
p1412
aVSENTRY-918
p1413
aVSENTRY-917
p1414
aVSENTRY-916
p1415
aVSENTRY-915
p1416
aVSENTRY-914
p1417
aVSENTRY-913
p1418
aVSENTRY-912
p1419
aVSENTRY-911
p1420
aVSENTRY-910
p1421
aVSENTRY-909
p1422
aVSENTRY-908
p1423
aVSENTRY-907
p1424
aVSENTRY-906
p1425
aVSENTRY-905
p1426
aVSENTRY-904
p1427
aVSENTRY-903
p1428
aVSENTRY-902
p1429
aVSENTRY-901
p1430
aVSENTRY-900
p1431
aVSENTRY-899
p1432
aVSENTRY-898
p1433
aVSENTRY-897
p1434
aVSENTRY-896
p1435
aVSENTRY-895
p1436
aVSENTRY-894
p1437
aVSENTRY-893
p1438
aVSENTRY-892
p1439
aVSENTRY-891
p1440
aVSENTRY-890
p1441
aVSENTRY-889
p1442
aVSENTRY-888
p1443
aVSENTRY-887
p1444
aVSENTRY-886
p1445
aVSENTRY-885
p1446
aVSENTRY-884
p1447
aVSENTRY-883
p1448
aVSENTRY-882
p1449
aVSENTRY-881
p1450
aVSENTRY-880
p1451
aVSENTRY-879
p1452
aVSENTRY-878
p1453
aVSENTRY-877
p1454
aVSENTRY-876
p1455
aVSENTRY-875
p1456
aVSENTRY-874
p1457
aVSENTRY-873
p1458
aVSENTRY-872
p1459
aVSENTRY-871
p1460
aVSENTRY-870
p1461
aVSENTRY-869
p1462
aVSENTRY-868
p1463
aVSENTRY-867
p1464
aVSENTRY-866
p1465
aVSENTRY-865
p1466
aVSENTRY-864
p1467
aVSENTRY-863
p1468
aVSENTRY-862
p1469
aVSENTRY-861
p1470
aVSENTRY-860
p1471
aVSENTRY-859
p1472
aVSENTRY-858
p1473
aVSENTRY-857
p1474
aVSENTRY-856
p1475
aVSENTRY-855
p1476
aVSENTRY-854
p1477
aVSENTRY-853
p1478
aVSENTRY-852
p1479
aVSENTRY-851
p1480
aVSENTRY-850
p1481
aVSENTRY-849
p1482
aVSENTRY-848
p1483
aVSENTRY-847
p1484
aVSENTRY-846
p1485
aVSENTRY-845
p1486
aVSENTRY-844
p1487
aVSENTRY-843
p1488
aVSENTRY-842
p1489
aVSENTRY-841
p1490
aVSENTRY-840
p1491
aVSENTRY-839
p1492
aVSENTRY-838
p1493
aVSENTRY-837
p1494
aVSENTRY-836
p1495
aVSENTRY-835
p1496
aVSENTRY-834
p1497
aVSENTRY-833
p1498
aVSENTRY-832
p1499
aVSENTRY-831
p1500
aVSENTRY-830
p1501
aVSENTRY-829
p1502
aVSENTRY-828
p1503
aVSENTRY-827
p1504
aVSENTRY-826
p1505
aVSENTRY-825
p1506
aVSENTRY-824
p1507
aVSENTRY-823
p1508
aVSENTRY-822
p1509
aVSENTRY-821
p1510
aVSENTRY-820
p1511
aVSENTRY-819
p1512
aVSENTRY-818
p1513
aVSENTRY-817
p1514
aVSENTRY-816
p1515
aVSENTRY-815
p1516
aVSENTRY-814
p1517
aVSENTRY-813
p1518
aVSENTRY-812
p1519
aVSENTRY-811
p1520
aVSENTRY-810
p1521
aVSENTRY-809
p1522
aVSENTRY-808
p1523
aVSENTRY-807
p1524
aVSENTRY-806
p1525
aVSENTRY-805
p1526
aVSENTRY-804
p1527
aVSENTRY-803
p1528
aVSENTRY-802
p1529
aVSENTRY-801
p1530
aVSENTRY-800
p1531
aVSENTRY-799
p1532
aVSENTRY-798
p1533
aVSENTRY-797
p1534
aVSENTRY-796
p1535
aVSENTRY-795
p1536
aVSENTRY-794
p1537
aVSENTRY-793
p1538
aVSENTRY-792
p1539
aVSENTRY-791
p1540
aVSENTRY-790
p1541
aVSENTRY-789
p1542
aVSENTRY-788
p1543
aVSENTRY-787
p1544
aVSENTRY-786
p1545
aVSENTRY-785
p1546
aVSENTRY-784
p1547
aVSENTRY-783
p1548
aVSENTRY-782
p1549
aVSENTRY-781
p1550
aVSENTRY-780
p1551
aVSENTRY-779
p1552
aVSENTRY-778
p1553
aVSENTRY-777
p1554
aVSENTRY-776
p1555
aVSENTRY-775
p1556
aVSENTRY-774
p1557
aVSENTRY-773
p1558
aVSENTRY-772
p1559
aVSENTRY-771
p1560
aVSENTRY-770
p1561
aVSENTRY-769
p1562
aVSENTRY-768
p1563
aVSENTRY-767
p1564
aVSENTRY-766
p1565
aVSENTRY-765
p1566
aVSENTRY-764
p1567
aVSENTRY-763
p1568
aVSENTRY-762
p1569
aVSENTRY-761
p1570
aVSENTRY-760
p1571
aVSENTRY-759
p1572
aVSENTRY-758
p1573
aVSENTRY-757
p1574
aVSENTRY-756
p1575
aVSENTRY-755
p1576
aVSENTRY-754
p1577
aVSENTRY-753
p1578
aVSENTRY-752
p1579
aVSENTRY-751
p1580
aVSENTRY-750
p1581
aVSENTRY-749
p1582
aVSENTRY-748
p1583
aVSENTRY-747
p1584
aVSENTRY-746
p1585
aVSENTRY-745
p1586
aVSENTRY-744
p1587
aVSENTRY-743
p1588
aVSENTRY-742
p1589
aVSENTRY-741
p1590
aVSENTRY-740
p1591
aVSENTRY-739
p1592
aVSENTRY-738
p1593
aVSENTRY-737
p1594
aVSENTRY-736
p1595
aVSENTRY-735
p1596
aVSENTRY-734
p1597
aVSENTRY-733
p1598
aVSENTRY-732
p1599
aVSENTRY-731
p1600
aVSENTRY-730
p1601
aVSENTRY-729
p1602
aVSENTRY-728
p1603
aVSENTRY-727
p1604
aVSENTRY-726
p1605
aVSENTRY-725
p1606
aVSENTRY-724
p1607
aVSENTRY-723
p1608
aVSENTRY-722
p1609
aVSENTRY-721
p1610
aVSENTRY-720
p1611
aVSENTRY-719
p1612
aVSENTRY-718
p1613
aVSENTRY-717
p1614
aVSENTRY-716
p1615
aVSENTRY-715
p1616
aVSENTRY-714
p1617
aVSENTRY-713
p1618
aVSENTRY-712
p1619
aVSENTRY-711
p1620
aVSENTRY-710
p1621
aVSENTRY-709
p1622
aVSENTRY-708
p1623
aVSENTRY-707
p1624
aVSENTRY-706
p1625
aVSENTRY-705
p1626
aVSENTRY-704
p1627
aVSENTRY-703
p1628
aVSENTRY-702
p1629
aVSENTRY-701
p1630
aVSENTRY-700
p1631
aVSENTRY-699
p1632
aVSENTRY-698
p1633
aVSENTRY-697
p1634
aVSENTRY-696
p1635
aVSENTRY-695
p1636
aVSENTRY-694
p1637
aVSENTRY-693
p1638
aVSENTRY-692
p1639
aVSENTRY-691
p1640
aVSENTRY-690
p1641
aVSENTRY-689
p1642
aVSENTRY-688
p1643
aVSENTRY-687
p1644
aVSENTRY-686
p1645
aVSENTRY-685
p1646
aVSENTRY-684
p1647
aVSENTRY-683
p1648
aVSENTRY-682
p1649
aVSENTRY-681
p1650
aVSENTRY-680
p1651
aVSENTRY-679
p1652
aVSENTRY-678
p1653
aVSENTRY-677
p1654
aVSENTRY-676
p1655
aVSENTRY-675
p1656
aVSENTRY-674
p1657
aVSENTRY-673
p1658
aVSENTRY-672
p1659
aVSENTRY-671
p1660
aVSENTRY-670
p1661
aVSENTRY-669
p1662
aVSENTRY-668
p1663
aVSENTRY-667
p1664
aVSENTRY-666
p1665
aVSENTRY-665
p1666
aVSENTRY-664
p1667
aVSENTRY-663
p1668
aVSENTRY-662
p1669
aVSENTRY-661
p1670
aVSENTRY-660
p1671
aVSENTRY-659
p1672
aVSENTRY-658
p1673
aVSENTRY-657
p1674
aVSENTRY-656
p1675
aVSENTRY-655
p1676
aVSENTRY-654
p1677
aVSENTRY-653
p1678
aVSENTRY-652
p1679
aVSENTRY-651
p1680
aVSENTRY-650
p1681
aVSENTRY-649
p1682
aVSENTRY-648
p1683
aVSENTRY-647
p1684
aVSENTRY-646
p1685
aVSENTRY-645
p1686
aVSENTRY-644
p1687
aVSENTRY-643
p1688
aVSENTRY-642
p1689
aVSENTRY-641
p1690
aVSENTRY-640
p1691
aVSENTRY-639
p1692
aVSENTRY-638
p1693
aVSENTRY-637
p1694
aVSENTRY-636
p1695
aVSENTRY-635
p1696
aVSENTRY-634
p1697
aVSENTRY-633
p1698
aVSENTRY-632
p1699
aVSENTRY-631
p1700
aVSENTRY-630
p1701
aVSENTRY-629
p1702
aVSENTRY-628
p1703
aVSENTRY-627
p1704
aVSENTRY-626
p1705
aVSENTRY-625
p1706
aVSENTRY-624
p1707
aVSENTRY-623
p1708
aVSENTRY-622
p1709
aVSENTRY-621
p1710
aVSENTRY-620
p1711
aVSENTRY-619
p1712
aVSENTRY-618
p1713
aVSENTRY-617
p1714
aVSENTRY-616
p1715
aVSENTRY-615
p1716
aVSENTRY-614
p1717
aVSENTRY-613
p1718
aVSENTRY-612
p1719
aVSENTRY-611
p1720
aVSENTRY-610
p1721
aVSENTRY-609
p1722
aVSENTRY-608
p1723
aVSENTRY-607
p1724
aVSENTRY-606
p1725
aVSENTRY-605
p1726
aVSENTRY-604
p1727
aVSENTRY-603
p1728
aVSENTRY-602
p1729
aVSENTRY-601
p1730
aVSENTRY-600
p1731
aVSENTRY-599
p1732
aVSENTRY-598
p1733
aVSENTRY-597
p1734
aVSENTRY-596
p1735
aVSENTRY-595
p1736
aVSENTRY-594
p1737
aVSENTRY-593
p1738
aVSENTRY-592
p1739
aVSENTRY-591
p1740
aVSENTRY-590
p1741
aVSENTRY-589
p1742
aVSENTRY-588
p1743
aVSENTRY-587
p1744
aVSENTRY-586
p1745
aVSENTRY-585
p1746
aVSENTRY-584
p1747
aVSENTRY-583
p1748
aVSENTRY-582
p1749
aVSENTRY-581
p1750
aVSENTRY-580
p1751
aVSENTRY-579
p1752
aVSENTRY-578
p1753
aVSENTRY-577
p1754
aVSENTRY-576
p1755
aVSENTRY-575
p1756
aVSENTRY-574
p1757
aVSENTRY-573
p1758
aVSENTRY-572
p1759
aVSENTRY-571
p1760
aVSENTRY-570
p1761
aVSENTRY-569
p1762
aVSENTRY-568
p1763
aVSENTRY-567
p1764
aVSENTRY-566
p1765
aVSENTRY-565
p1766
aVSENTRY-564
p1767
aVSENTRY-563
p1768
aVSENTRY-562
p1769
aVSENTRY-561
p1770
aVSENTRY-560
p1771
aVSENTRY-559
p1772
aVSENTRY-558
p1773
aVSENTRY-557
p1774
aVSENTRY-556
p1775
aVSENTRY-555
p1776
aVSENTRY-554
p1777
aVSENTRY-553
p1778
aVSENTRY-552
p1779
aVSENTRY-551
p1780
aVSENTRY-550
p1781
aVSENTRY-549
p1782
aVSENTRY-548
p1783
aVSENTRY-547
p1784
aVSENTRY-546
p1785
aVSENTRY-545
p1786
aVSENTRY-544
p1787
aVSENTRY-543
p1788
aVSENTRY-542
p1789
aVSENTRY-541
p1790
aVSENTRY-540
p1791
aVSENTRY-539
p1792
aVSENTRY-538
p1793
aVSENTRY-537
p1794
aVSENTRY-536
p1795
aVSENTRY-535
p1796
aVSENTRY-534
p1797
aVSENTRY-533
p1798
aVSENTRY-532
p1799
aVSENTRY-531
p1800
aVSENTRY-530
p1801
aVSENTRY-529
p1802
aVSENTRY-528
p1803
aVSENTRY-527
p1804
aVSENTRY-526
p1805
aVSENTRY-525
p1806
aVSENTRY-524
p1807
aVSENTRY-523
p1808
aVSENTRY-522
p1809
aVSENTRY-521
p1810
aVSENTRY-520
p1811
aVSENTRY-519
p1812
aVSENTRY-518
p1813
aVSENTRY-517
p1814
aVSENTRY-516
p1815
aVSENTRY-515
p1816
aVSENTRY-514
p1817
aVSENTRY-513
p1818
aVSENTRY-512
p1819
aVSENTRY-511
p1820
aVSENTRY-510
p1821
aVSENTRY-509
p1822
aVSENTRY-508
p1823
aVSENTRY-507
p1824
aVSENTRY-506
p1825
aVSENTRY-505
p1826
aVSENTRY-504
p1827
aVSENTRY-503
p1828
aVSENTRY-502
p1829
aVSENTRY-501
p1830
aVSENTRY-500
p1831
aVSENTRY-499
p1832
aVSENTRY-498
p1833
aVSENTRY-497
p1834
aVSENTRY-496
p1835
aVSENTRY-495
p1836
aVSENTRY-494
p1837
aVSENTRY-493
p1838
aVSENTRY-492
p1839
aVSENTRY-491
p1840
aVSENTRY-490
p1841
aVSENTRY-489
p1842
aVSENTRY-488
p1843
aVSENTRY-487
p1844
aVSENTRY-486
p1845
aVSENTRY-485
p1846
aVSENTRY-484
p1847
aVSENTRY-483
p1848
aVSENTRY-482
p1849
aVSENTRY-481
p1850
aVSENTRY-480
p1851
aVSENTRY-479
p1852
aVSENTRY-478
p1853
aVSENTRY-477
p1854
aVSENTRY-476
p1855
aVSENTRY-475
p1856
aVSENTRY-474
p1857
aVSENTRY-473
p1858
aVSENTRY-472
p1859
aVSENTRY-471
p1860
aVSENTRY-470
p1861
aVSENTRY-469
p1862
aVSENTRY-468
p1863
aVSENTRY-467
p1864
aVSENTRY-466
p1865
aVSENTRY-465
p1866
aVSENTRY-464
p1867
aVSENTRY-463
p1868
aVSENTRY-462
p1869
aVSENTRY-461
p1870
aVSENTRY-460
p1871
aVSENTRY-459
p1872
aVSENTRY-458
p1873
aVSENTRY-457
p1874
aVSENTRY-456
p1875
aVSENTRY-455
p1876
aVSENTRY-454
p1877
aVSENTRY-453
p1878
aVSENTRY-452
p1879
aVSENTRY-451
p1880
aVSENTRY-450
p1881
aVSENTRY-449
p1882
aVSENTRY-448
p1883
aVSENTRY-447
p1884
aVSENTRY-446
p1885
aVSENTRY-445
p1886
aVSENTRY-444
p1887
aVSENTRY-443
p1888
aVSENTRY-442
p1889
aVSENTRY-441
p1890
aVSENTRY-440
p1891
aVSENTRY-439
p1892
aVSENTRY-438
p1893
aVSENTRY-437
p1894
aVSENTRY-436
p1895
aVSENTRY-435
p1896
aVSENTRY-434
p1897
aVSENTRY-433
p1898
aVSENTRY-432
p1899
aVSENTRY-431
p1900
aVSENTRY-430
p1901
aVSENTRY-429
p1902
aVSENTRY-428
p1903
aVSENTRY-427
p1904
aVSENTRY-426
p1905
aVSENTRY-425
p1906
aVSENTRY-424
p1907
aVSENTRY-423
p1908
aVSENTRY-422
p1909
aVSENTRY-421
p1910
aVSENTRY-420
p1911
aVSENTRY-419
p1912
aVSENTRY-418
p1913
aVSENTRY-417
p1914
aVSENTRY-416
p1915
aVSENTRY-415
p1916
aVSENTRY-414
p1917
aVSENTRY-413
p1918
aVSENTRY-412
p1919
aVSENTRY-411
p1920
aVSENTRY-410
p1921
aVSENTRY-409
p1922
aVSENTRY-408
p1923
aVSENTRY-407
p1924
aVSENTRY-406
p1925
aVSENTRY-405
p1926
aVSENTRY-404
p1927
aVSENTRY-403
p1928
aVSENTRY-402
p1929
aVSENTRY-401
p1930
aVSENTRY-400
p1931
aVSENTRY-399
p1932
aVSENTRY-398
p1933
aVSENTRY-397
p1934
aVSENTRY-396
p1935
aVSENTRY-395
p1936
aVSENTRY-394
p1937
aVSENTRY-393
p1938
aVSENTRY-392
p1939
aVSENTRY-391
p1940
aVSENTRY-390
p1941
aVSENTRY-389
p1942
aVSENTRY-388
p1943
aVSENTRY-387
p1944
aVSENTRY-386
p1945
aVSENTRY-385
p1946
aVSENTRY-384
p1947
aVSENTRY-383
p1948
aVSENTRY-382
p1949
aVSENTRY-381
p1950
aVSENTRY-380
p1951
aVSENTRY-379
p1952
aVSENTRY-378
p1953
aVSENTRY-377
p1954
aVSENTRY-376
p1955
aVSENTRY-375
p1956
aVSENTRY-374
p1957
aVSENTRY-373
p1958
aVSENTRY-372
p1959
aVSENTRY-371
p1960
aVSENTRY-370
p1961
aVSENTRY-369
p1962
aVSENTRY-368
p1963
aVSENTRY-367
p1964
aVSENTRY-366
p1965
aVSENTRY-365
p1966
aVSENTRY-364
p1967
aVSENTRY-363
p1968
aVSENTRY-362
p1969
aVSENTRY-361
p1970
aVSENTRY-360
p1971
aVSENTRY-359
p1972
aVSENTRY-358
p1973
aVSENTRY-357
p1974
aVSENTRY-356
p1975
aVSENTRY-355
p1976
aVSENTRY-354
p1977
aVSENTRY-353
p1978
aVSENTRY-352
p1979
aVSENTRY-351
p1980
aVSENTRY-350
p1981
aVSENTRY-349
p1982
aVSENTRY-348
p1983
aVSENTRY-347
p1984
aVSENTRY-346
p1985
aVSENTRY-345
p1986
aVSENTRY-344
p1987
aVSENTRY-343
p1988
aVSENTRY-342
p1989
aVSENTRY-341
p1990
aVSENTRY-340
p1991
aVSENTRY-339
p1992
aVSENTRY-338
p1993
aVSENTRY-337
p1994
aVSENTRY-336
p1995
aVSENTRY-335
p1996
aVSENTRY-334
p1997
aVSENTRY-333
p1998
aVSENTRY-332
p1999
aVSENTRY-331
p2000
aVSENTRY-330
p2001
aVSENTRY-329
p2002
aVSENTRY-328
p2003
aVSENTRY-327
p2004
aVSENTRY-326
p2005
aVSENTRY-325
p2006
aVSENTRY-324
p2007
aVSENTRY-323
p2008
aVSENTRY-322
p2009
aVSENTRY-321
p2010
aVSENTRY-320
p2011
aVSENTRY-319
p2012
aVSENTRY-318
p2013
aVSENTRY-317
p2014
aVSENTRY-316
p2015
aVSENTRY-315
p2016
aVSENTRY-314
p2017
aVSENTRY-313
p2018
aVSENTRY-312
p2019
aVSENTRY-311
p2020
aVSENTRY-310
p2021
aVSENTRY-309
p2022
aVSENTRY-308
p2023
aVSENTRY-307
p2024
aVSENTRY-306
p2025
aVSENTRY-305
p2026
aVSENTRY-304
p2027
aVSENTRY-303
p2028
aVSENTRY-302
p2029
aVSENTRY-301
p2030
aVSENTRY-300
p2031
aVSENTRY-299
p2032
aVSENTRY-298
p2033
aVSENTRY-297
p2034
aVSENTRY-296
p2035
aVSENTRY-295
p2036
aVSENTRY-294
p2037
aVSENTRY-293
p2038
aVSENTRY-292
p2039
aVSENTRY-291
p2040
aVSENTRY-290
p2041
aVSENTRY-289
p2042
aVSENTRY-288
p2043
aVSENTRY-287
p2044
aVSENTRY-286
p2045
aVSENTRY-285
p2046
aVSENTRY-284
p2047
aVSENTRY-283
p2048
aVSENTRY-282
p2049
aVSENTRY-281
p2050
aVSENTRY-280
p2051
aVSENTRY-279
p2052
aVSENTRY-278
p2053
aVSENTRY-277
p2054
aVSENTRY-276
p2055
aVSENTRY-275
p2056
aVSENTRY-274
p2057
aVSENTRY-273
p2058
aVSENTRY-272
p2059
aVSENTRY-271
p2060
aVSENTRY-270
p2061
aVSENTRY-269
p2062
aVSENTRY-268
p2063
aVSENTRY-267
p2064
aVSENTRY-266
p2065
aVSENTRY-265
p2066
aVSENTRY-264
p2067
aVSENTRY-263
p2068
aVSENTRY-262
p2069
aVSENTRY-261
p2070
aVSENTRY-260
p2071
aVSENTRY-259
p2072
aVSENTRY-258
p2073
aVSENTRY-257
p2074
aVSENTRY-256
p2075
aVSENTRY-255
p2076
aVSENTRY-254
p2077
aVSENTRY-253
p2078
aVSENTRY-252
p2079
aVSENTRY-251
p2080
aVSENTRY-250
p2081
aVSENTRY-249
p2082
aVSENTRY-248
p2083
aVSENTRY-247
p2084
aVSENTRY-246
p2085
aVSENTRY-245
p2086
aVSENTRY-244
p2087
aVSENTRY-243
p2088
aVSENTRY-242
p2089
aVSENTRY-241
p2090
aVSENTRY-240
p2091
aVSENTRY-239
p2092
aVSENTRY-238
p2093
aVSENTRY-237
p2094
aVSENTRY-236
p2095
aVSENTRY-235
p2096
aVSENTRY-234
p2097
aVSENTRY-233
p2098
aVSENTRY-232
p2099
aVSENTRY-231
p2100
aVSENTRY-230
p2101
aVSENTRY-229
p2102
aVSENTRY-228
p2103
aVSENTRY-227
p2104
aVSENTRY-226
p2105
aVSENTRY-225
p2106
aVSENTRY-224
p2107
aVSENTRY-223
p2108
aVSENTRY-222
p2109
aVSENTRY-221
p2110
aVSENTRY-220
p2111
aVSENTRY-219
p2112
aVSENTRY-218
p2113
aVSENTRY-217
p2114
aVSENTRY-216
p2115
aVSENTRY-215
p2116
aVSENTRY-214
p2117
aVSENTRY-213
p2118
aVSENTRY-212
p2119
aVSENTRY-211
p2120
aVSENTRY-210
p2121
aVSENTRY-209
p2122
aVSENTRY-208
p2123
aVSENTRY-207
p2124
aVSENTRY-206
p2125
aVSENTRY-205
p2126
aVSENTRY-204
p2127
aVSENTRY-203
p2128
aVSENTRY-202
p2129
aVSENTRY-201
p2130
aVSENTRY-200
p2131
aVSENTRY-199
p2132
aVSENTRY-198
p2133
aVSENTRY-197
p2134
aVSENTRY-196
p2135
aVSENTRY-195
p2136
aVSENTRY-194
p2137
aVSENTRY-193
p2138
aVSENTRY-192
p2139
aVSENTRY-191
p2140
aVSENTRY-190
p2141
aVSENTRY-189
p2142
aVSENTRY-188
p2143
aVSENTRY-187
p2144
aVSENTRY-186
p2145
aVSENTRY-185
p2146
aVSENTRY-184
p2147
aVSENTRY-183
p2148
aVSENTRY-182
p2149
aVSENTRY-181
p2150
aVSENTRY-180
p2151
aVSENTRY-179
p2152
aVSENTRY-178
p2153
aVSENTRY-177
p2154
aVSENTRY-176
p2155
aVSENTRY-175
p2156
aVSENTRY-174
p2157
aVSENTRY-173
p2158
aVSENTRY-172
p2159
aVSENTRY-171
p2160
aVSENTRY-170
p2161
aVSENTRY-169
p2162
aVSENTRY-168
p2163
aVSENTRY-167
p2164
aVSENTRY-166
p2165
aVSENTRY-165
p2166
aVSENTRY-164
p2167
aVSENTRY-163
p2168
aVSENTRY-162
p2169
aVSENTRY-161
p2170
aVSENTRY-160
p2171
aVSENTRY-159
p2172
aVSENTRY-158
p2173
aVSENTRY-157
p2174
aVSENTRY-156
p2175
aVSENTRY-155
p2176
aVSENTRY-154
p2177
aVSENTRY-153
p2178
aVSENTRY-152
p2179
aVSENTRY-151
p2180
aVSENTRY-150
p2181
aVSENTRY-149
p2182
aVSENTRY-148
p2183
aVSENTRY-147
p2184
aVSENTRY-146
p2185
aVSENTRY-145
p2186
aVSENTRY-144
p2187
aVSENTRY-143
p2188
aVSENTRY-142
p2189
aVSENTRY-141
p2190
aVSENTRY-140
p2191
aVSENTRY-139
p2192
aVSENTRY-138
p2193
aVSENTRY-137
p2194
aVSENTRY-136
p2195
aVSENTRY-135
p2196
aVSENTRY-134
p2197
aVSENTRY-133
p2198
aVSENTRY-132
p2199
aVSENTRY-131
p2200
aVSENTRY-130
p2201
aVSENTRY-129
p2202
aVSENTRY-128
p2203
aVSENTRY-127
p2204
aVSENTRY-126
p2205
aVSENTRY-125
p2206
aVSENTRY-124
p2207
aVSENTRY-123
p2208
aVSENTRY-122
p2209
aVSENTRY-121
p2210
aVSENTRY-120
p2211
aVSENTRY-119
p2212
aVSENTRY-118
p2213
aVSENTRY-117
p2214
aVSENTRY-116
p2215
aVSENTRY-115
p2216
aVSENTRY-114
p2217
aVSENTRY-113
p2218
aVSENTRY-112
p2219
aVSENTRY-111
p2220
aVSENTRY-110
p2221
aVSENTRY-109
p2222
aVSENTRY-108
p2223
aVSENTRY-107
p2224
aVSENTRY-106
p2225
aVSENTRY-105
p2226
aVSENTRY-104
p2227
aVSENTRY-103
p2228
aVSENTRY-102
p2229
aVSENTRY-101
p2230
aVSENTRY-100
p2231
aVSENTRY-99
p2232
aVSENTRY-98
p2233
aVSENTRY-97
p2234
aVSENTRY-96
p2235
aVSENTRY-95
p2236
aVSENTRY-94
p2237
aVSENTRY-93
p2238
aVSENTRY-92
p2239
aVSENTRY-91
p2240
aVSENTRY-90
p2241
aVSENTRY-89
p2242
aVSENTRY-88
p2243
aVSENTRY-87
p2244
aVSENTRY-86
p2245
aVSENTRY-85
p2246
aVSENTRY-84
p2247
aVSENTRY-83
p2248
aVSENTRY-82
p2249
aVSENTRY-81
p2250
aVSENTRY-80
p2251
aVSENTRY-79
p2252
aVSENTRY-78
p2253
aVSENTRY-77
p2254
aVSENTRY-76
p2255
aVSENTRY-75
p2256
aVSENTRY-74
p2257
aVSENTRY-73
p2258
aVSENTRY-72
p2259
aVSENTRY-71
p2260
aVSENTRY-70
p2261
aVSENTRY-69
p2262
aVSENTRY-68
p2263
aVSENTRY-67
p2264
aVSENTRY-66
p2265
aVSENTRY-65
p2266
aVSENTRY-64
p2267
aVSENTRY-63
p2268
aVSENTRY-62
p2269
aVSENTRY-61
p2270
aVSENTRY-60
p2271
aVSENTRY-59
p2272
aVSENTRY-58
p2273
aVSENTRY-57
p2274
aVSENTRY-56
p2275
aVSENTRY-55
p2276
aVSENTRY-54
p2277
aVSENTRY-53
p2278
aVSENTRY-52
p2279
aVSENTRY-51
p2280
aVSENTRY-50
p2281
aVSENTRY-49
p2282
aVSENTRY-48
p2283
aVSENTRY-47
p2284
aVSENTRY-46
p2285
aVSENTRY-45
p2286
aVSENTRY-44
p2287
aVSENTRY-43
p2288
aVSENTRY-42
p2289
aVSENTRY-41
p2290
aVSENTRY-40
p2291
aVSENTRY-39
p2292
aVSENTRY-38
p2293
aVSENTRY-37
p2294
aVSENTRY-36
p2295
aVSENTRY-35
p2296
aVSENTRY-34
p2297
aVSENTRY-33
p2298
aVSENTRY-32
p2299
aVSENTRY-31
p2300
aVSENTRY-30
p2301
aVSENTRY-29
p2302
aVSENTRY-28
p2303
aVSENTRY-27
p2304
aVSENTRY-26
p2305
aVSENTRY-25
p2306
aVSENTRY-24
p2307
aVSENTRY-23
p2308
aVSENTRY-22
p2309
aVSENTRY-21
p2310
aVSENTRY-20
p2311
aVSENTRY-19
p2312
aVSENTRY-18
p2313
aVSENTRY-17
p2314
aVSENTRY-16
p2315
aVSENTRY-15
p2316
aVSENTRY-14
p2317
aVSENTRY-13
p2318
aVSENTRY-12
p2319
aVSENTRY-11
p2320
aVSENTRY-10
p2321
aVSENTRY-9
p2322
aVSENTRY-8
p2323
aVSENTRY-7
p2324
aVSENTRY-6
p2325
aVSENTRY-5
p2326
aVSENTRY-4
p2327
aVSENTRY-3
p2328
aVSENTRY-2
p2329
aVSENTRY-1
p2330
a.