(lp0
VSHINDIG-1997
p1
aVSHINDIG-1996
p2
aVSHINDIG-1995
p3
aVSHINDIG-1994
p4
aVSHINDIG-1993
p5
aVSHINDIG-1992
p6
aVSHINDIG-1991
p7
aVSHINDIG-1990
p8
aVSHINDIG-1989
p9
aVSHINDIG-1988
p10
aVSHINDIG-1987
p11
aVSHINDIG-1986
p12
aVSHINDIG-1985
p13
aVSHINDIG-1984
p14
aVSHINDIG-1983
p15
aVSHINDIG-1982
p16
aVSHINDIG-1981
p17
aVSHINDIG-1980
p18
aVSHINDIG-1979
p19
aVSHINDIG-1978
p20
aVSHINDIG-1977
p21
aVSHINDIG-1976
p22
aVSHINDIG-1975
p23
aVSHINDIG-1974
p24
aVSHINDIG-1973
p25
aVSHINDIG-1972
p26
aVSHINDIG-1971
p27
aVSHINDIG-1970
p28
aVSHINDIG-1969
p29
aVSHINDIG-1968
p30
aVSHINDIG-1967
p31
aVSHINDIG-1966
p32
aVSHINDIG-1965
p33
aVSHINDIG-1964
p34
aVSHINDIG-1963
p35
aVSHINDIG-1962
p36
aVSHINDIG-1961
p37
aVSHINDIG-1960
p38
aVSHINDIG-1959
p39
aVSHINDIG-1958
p40
aVSHINDIG-1957
p41
aVSHINDIG-1956
p42
aVSHINDIG-1955
p43
aVSHINDIG-1954
p44
aVSHINDIG-1953
p45
aVSHINDIG-1952
p46
aVSHINDIG-1951
p47
aVSHINDIG-1950
p48
aVSHINDIG-1949
p49
aVSHINDIG-1948
p50
aVSHINDIG-1947
p51
aVSHINDIG-1946
p52
aVSHINDIG-1945
p53
aVSHINDIG-1944
p54
aVSHINDIG-1943
p55
aVSHINDIG-1942
p56
aVSHINDIG-1941
p57
aVSHINDIG-1940
p58
aVSHINDIG-1939
p59
aVSHINDIG-1938
p60
aVSHINDIG-1937
p61
aVSHINDIG-1936
p62
aVSHINDIG-1935
p63
aVSHINDIG-1934
p64
aVSHINDIG-1933
p65
aVSHINDIG-1932
p66
aVSHINDIG-1931
p67
aVSHINDIG-1930
p68
aVSHINDIG-1929
p69
aVSHINDIG-1928
p70
aVSHINDIG-1927
p71
aVSHINDIG-1926
p72
aVSHINDIG-1925
p73
aVSHINDIG-1924
p74
aVSHINDIG-1923
p75
aVSHINDIG-1922
p76
aVSHINDIG-1921
p77
aVSHINDIG-1920
p78
aVSHINDIG-1919
p79
aVSHINDIG-1918
p80
aVSHINDIG-1917
p81
aVSHINDIG-1916
p82
aVSHINDIG-1915
p83
aVSHINDIG-1914
p84
aVSHINDIG-1913
p85
aVSHINDIG-1912
p86
aVSHINDIG-1911
p87
aVSHINDIG-1910
p88
aVSHINDIG-1909
p89
aVSHINDIG-1908
p90
aVSHINDIG-1907
p91
aVSHINDIG-1906
p92
aVSHINDIG-1905
p93
aVSHINDIG-1904
p94
aVSHINDIG-1903
p95
aVSHINDIG-1902
p96
aVSHINDIG-1901
p97
aVSHINDIG-1900
p98
aVSHINDIG-1899
p99
aVSHINDIG-1898
p100
aVSHINDIG-1897
p101
aVSHINDIG-1896
p102
aVSHINDIG-1895
p103
aVSHINDIG-1894
p104
aVSHINDIG-1893
p105
aVSHINDIG-1892
p106
aVSHINDIG-1891
p107
aVSHINDIG-1890
p108
aVSHINDIG-1889
p109
aVSHINDIG-1888
p110
aVSHINDIG-1887
p111
aVSHINDIG-1886
p112
aVSHINDIG-1885
p113
aVSHINDIG-1884
p114
aVSHINDIG-1883
p115
aVSHINDIG-1882
p116
aVSHINDIG-1881
p117
aVSHINDIG-1880
p118
aVSHINDIG-1878
p119
aVSHINDIG-1877
p120
aVSHINDIG-1876
p121
aVSHINDIG-1875
p122
aVSHINDIG-1874
p123
aVSHINDIG-1873
p124
aVSHINDIG-1872
p125
aVSHINDIG-1871
p126
aVSHINDIG-1870
p127
aVSHINDIG-1869
p128
aVSHINDIG-1868
p129
aVSHINDIG-1867
p130
aVSHINDIG-1866
p131
aVSHINDIG-1865
p132
aVSHINDIG-1864
p133
aVSHINDIG-1863
p134
aVSHINDIG-1862
p135
aVSHINDIG-1861
p136
aVSHINDIG-1860
p137
aVSHINDIG-1859
p138
aVSHINDIG-1858
p139
aVSHINDIG-1857
p140
aVSHINDIG-1856
p141
aVSHINDIG-1855
p142
aVSHINDIG-1854
p143
aVSHINDIG-1852
p144
aVSHINDIG-1839
p145
aVSHINDIG-1838
p146
aVSHINDIG-1837
p147
aVSHINDIG-1836
p148
aVSHINDIG-1835
p149
aVSHINDIG-1834
p150
aVSHINDIG-1833
p151
aVSHINDIG-1832
p152
aVSHINDIG-1831
p153
aVSHINDIG-1830
p154
aVSHINDIG-1829
p155
aVSHINDIG-1828
p156
aVSHINDIG-1827
p157
aVSHINDIG-1826
p158
aVSHINDIG-1825
p159
aVSHINDIG-1824
p160
aVSHINDIG-1823
p161
aVSHINDIG-1822
p162
aVSHINDIG-1821
p163
aVSHINDIG-1820
p164
aVSHINDIG-1819
p165
aVSHINDIG-1818
p166
aVSHINDIG-1817
p167
aVSHINDIG-1816
p168
aVSHINDIG-1815
p169
aVSHINDIG-1814
p170
aVSHINDIG-1813
p171
aVSHINDIG-1812
p172
aVSHINDIG-1811
p173
aVSHINDIG-1810
p174
aVSHINDIG-1809
p175
aVSHINDIG-1808
p176
aVSHINDIG-1807
p177
aVSHINDIG-1806
p178
aVSHINDIG-1805
p179
aVSHINDIG-1804
p180
aVSHINDIG-1803
p181
aVSHINDIG-1802
p182
aVSHINDIG-1801
p183
aVSHINDIG-1800
p184
aVSHINDIG-1799
p185
aVSHINDIG-1798
p186
aVSHINDIG-1797
p187
aVSHINDIG-1796
p188
aVSHINDIG-1795
p189
aVSHINDIG-1794
p190
aVSHINDIG-1793
p191
aVSHINDIG-1792
p192
aVSHINDIG-1791
p193
aVSHINDIG-1790
p194
aVSHINDIG-1789
p195
aVSHINDIG-1788
p196
aVSHINDIG-1787
p197
aVSHINDIG-1786
p198
aVSHINDIG-1785
p199
aVSHINDIG-1784
p200
aVSHINDIG-1783
p201
aVSHINDIG-1782
p202
aVSHINDIG-1781
p203
aVSHINDIG-1780
p204
aVSHINDIG-1779
p205
aVSHINDIG-1778
p206
aVSHINDIG-1777
p207
aVSHINDIG-1776
p208
aVSHINDIG-1775
p209
aVSHINDIG-1774
p210
aVSHINDIG-1773
p211
aVSHINDIG-1772
p212
aVSHINDIG-1771
p213
aVSHINDIG-1770
p214
aVSHINDIG-1769
p215
aVSHINDIG-1768
p216
aVSHINDIG-1767
p217
aVSHINDIG-1766
p218
aVSHINDIG-1765
p219
aVSHINDIG-1764
p220
aVSHINDIG-1763
p221
aVSHINDIG-1762
p222
aVSHINDIG-1761
p223
aVSHINDIG-1760
p224
aVSHINDIG-1759
p225
aVSHINDIG-1758
p226
aVSHINDIG-1757
p227
aVSHINDIG-1756
p228
aVSHINDIG-1755
p229
aVSHINDIG-1754
p230
aVSHINDIG-1753
p231
aVSHINDIG-1752
p232
aVSHINDIG-1751
p233
aVSHINDIG-1750
p234
aVSHINDIG-1749
p235
aVSHINDIG-1748
p236
aVSHINDIG-1747
p237
aVSHINDIG-1746
p238
aVSHINDIG-1745
p239
aVSHINDIG-1744
p240
aVSHINDIG-1743
p241
aVSHINDIG-1742
p242
aVSHINDIG-1741
p243
aVSHINDIG-1740
p244
aVSHINDIG-1739
p245
aVSHINDIG-1738
p246
aVSHINDIG-1737
p247
aVSHINDIG-1736
p248
aVSHINDIG-1735
p249
aVSHINDIG-1734
p250
aVSHINDIG-1733
p251
aVSHINDIG-1732
p252
aVSHINDIG-1731
p253
aVSHINDIG-1730
p254
aVSHINDIG-1729
p255
aVSHINDIG-1728
p256
aVSHINDIG-1727
p257
aVSHINDIG-1726
p258
aVSHINDIG-1725
p259
aVSHINDIG-1724
p260
aVSHINDIG-1723
p261
aVSHINDIG-1722
p262
aVSHINDIG-1721
p263
aVSHINDIG-1720
p264
aVSHINDIG-1719
p265
aVSHINDIG-1718
p266
aVSHINDIG-1717
p267
aVSHINDIG-1716
p268
aVSHINDIG-1715
p269
aVSHINDIG-1714
p270
aVSHINDIG-1713
p271
aVSHINDIG-1712
p272
aVSHINDIG-1711
p273
aVSHINDIG-1710
p274
aVSHINDIG-1709
p275
aVSHINDIG-1708
p276
aVSHINDIG-1707
p277
aVSHINDIG-1706
p278
aVSHINDIG-1705
p279
aVSHINDIG-1704
p280
aVSHINDIG-1703
p281
aVSHINDIG-1702
p282
aVSHINDIG-1701
p283
aVSHINDIG-1700
p284
aVSHINDIG-1699
p285
aVSHINDIG-1698
p286
aVSHINDIG-1697
p287
aVSHINDIG-1696
p288
aVSHINDIG-1695
p289
aVSHINDIG-1694
p290
aVSHINDIG-1693
p291
aVSHINDIG-1692
p292
aVSHINDIG-1691
p293
aVSHINDIG-1690
p294
aVSHINDIG-1689
p295
aVSHINDIG-1688
p296
aVSHINDIG-1687
p297
aVSHINDIG-1686
p298
aVSHINDIG-1685
p299
aVSHINDIG-1684
p300
aVSHINDIG-1683
p301
aVSHINDIG-1682
p302
aVSHINDIG-1681
p303
aVSHINDIG-1680
p304
aVSHINDIG-1679
p305
aVSHINDIG-1678
p306
aVSHINDIG-1677
p307
aVSHINDIG-1676
p308
aVSHINDIG-1675
p309
aVSHINDIG-1674
p310
aVSHINDIG-1673
p311
aVSHINDIG-1672
p312
aVSHINDIG-1671
p313
aVSHINDIG-1670
p314
aVSHINDIG-1669
p315
aVSHINDIG-1668
p316
aVSHINDIG-1667
p317
aVSHINDIG-1666
p318
aVSHINDIG-1665
p319
aVSHINDIG-1664
p320
aVSHINDIG-1663
p321
aVSHINDIG-1662
p322
aVSHINDIG-1661
p323
aVSHINDIG-1660
p324
aVSHINDIG-1659
p325
aVSHINDIG-1658
p326
aVSHINDIG-1657
p327
aVSHINDIG-1656
p328
aVSHINDIG-1655
p329
aVSHINDIG-1654
p330
aVSHINDIG-1653
p331
aVSHINDIG-1652
p332
aVSHINDIG-1651
p333
aVSHINDIG-1650
p334
aVSHINDIG-1649
p335
aVSHINDIG-1648
p336
aVSHINDIG-1647
p337
aVSHINDIG-1646
p338
aVSHINDIG-1645
p339
aVSHINDIG-1644
p340
aVSHINDIG-1643
p341
aVSHINDIG-1642
p342
aVSHINDIG-1641
p343
aVSHINDIG-1640
p344
aVSHINDIG-1639
p345
aVSHINDIG-1638
p346
aVSHINDIG-1637
p347
aVSHINDIG-1636
p348
aVSHINDIG-1635
p349
aVSHINDIG-1634
p350
aVSHINDIG-1633
p351
aVSHINDIG-1632
p352
aVSHINDIG-1631
p353
aVSHINDIG-1630
p354
aVSHINDIG-1629
p355
aVSHINDIG-1628
p356
aVSHINDIG-1627
p357
aVSHINDIG-1626
p358
aVSHINDIG-1625
p359
aVSHINDIG-1624
p360
aVSHINDIG-1623
p361
aVSHINDIG-1622
p362
aVSHINDIG-1621
p363
aVSHINDIG-1620
p364
aVSHINDIG-1619
p365
aVSHINDIG-1618
p366
aVSHINDIG-1617
p367
aVSHINDIG-1616
p368
aVSHINDIG-1615
p369
aVSHINDIG-1614
p370
aVSHINDIG-1613
p371
aVSHINDIG-1612
p372
aVSHINDIG-1611
p373
aVSHINDIG-1610
p374
aVSHINDIG-1609
p375
aVSHINDIG-1608
p376
aVSHINDIG-1607
p377
aVSHINDIG-1606
p378
aVSHINDIG-1605
p379
aVSHINDIG-1604
p380
aVSHINDIG-1603
p381
aVSHINDIG-1602
p382
aVSHINDIG-1601
p383
aVSHINDIG-1600
p384
aVSHINDIG-1599
p385
aVSHINDIG-1598
p386
aVSHINDIG-1597
p387
aVSHINDIG-1596
p388
aVSHINDIG-1595
p389
aVSHINDIG-1594
p390
aVSHINDIG-1593
p391
aVSHINDIG-1592
p392
aVSHINDIG-1591
p393
aVSHINDIG-1590
p394
aVSHINDIG-1589
p395
aVSHINDIG-1588
p396
aVSHINDIG-1587
p397
aVSHINDIG-1586
p398
aVSHINDIG-1585
p399
aVSHINDIG-1584
p400
aVSHINDIG-1583
p401
aVSHINDIG-1582
p402
aVSHINDIG-1581
p403
aVSHINDIG-1580
p404
aVSHINDIG-1579
p405
aVSHINDIG-1578
p406
aVSHINDIG-1577
p407
aVSHINDIG-1576
p408
aVSHINDIG-1575
p409
aVSHINDIG-1574
p410
aVSHINDIG-1573
p411
aVSHINDIG-1572
p412
aVSHINDIG-1571
p413
aVSHINDIG-1570
p414
aVSHINDIG-1569
p415
aVSHINDIG-1568
p416
aVSHINDIG-1567
p417
aVSHINDIG-1566
p418
aVSHINDIG-1565
p419
aVSHINDIG-1564
p420
aVSHINDIG-1563
p421
aVSHINDIG-1562
p422
aVSHINDIG-1561
p423
aVSHINDIG-1560
p424
aVSHINDIG-1559
p425
aVSHINDIG-1558
p426
aVSHINDIG-1557
p427
aVSHINDIG-1556
p428
aVSHINDIG-1555
p429
aVSHINDIG-1554
p430
aVSHINDIG-1553
p431
aVSHINDIG-1552
p432
aVSHINDIG-1551
p433
aVSHINDIG-1550
p434
aVSHINDIG-1549
p435
aVSHINDIG-1548
p436
aVSHINDIG-1547
p437
aVSHINDIG-1546
p438
aVSHINDIG-1545
p439
aVSHINDIG-1544
p440
aVSHINDIG-1543
p441
aVSHINDIG-1542
p442
aVSHINDIG-1541
p443
aVSHINDIG-1540
p444
aVSHINDIG-1539
p445
aVSHINDIG-1538
p446
aVSHINDIG-1537
p447
aVSHINDIG-1536
p448
aVSHINDIG-1535
p449
aVSHINDIG-1534
p450
aVSHINDIG-1533
p451
aVSHINDIG-1532
p452
aVSHINDIG-1531
p453
aVSHINDIG-1530
p454
aVSHINDIG-1529
p455
aVSHINDIG-1528
p456
aVSHINDIG-1527
p457
aVSHINDIG-1526
p458
aVSHINDIG-1525
p459
aVSHINDIG-1524
p460
aVSHINDIG-1523
p461
aVSHINDIG-1522
p462
aVSHINDIG-1521
p463
aVSHINDIG-1520
p464
aVSHINDIG-1519
p465
aVSHINDIG-1518
p466
aVSHINDIG-1517
p467
aVSHINDIG-1516
p468
aVSHINDIG-1515
p469
aVSHINDIG-1514
p470
aVSHINDIG-1513
p471
aVSHINDIG-1512
p472
aVSHINDIG-1511
p473
aVSHINDIG-1510
p474
aVSHINDIG-1509
p475
aVSHINDIG-1508
p476
aVSHINDIG-1507
p477
aVSHINDIG-1506
p478
aVSHINDIG-1505
p479
aVSHINDIG-1504
p480
aVSHINDIG-1503
p481
aVSHINDIG-1502
p482
aVSHINDIG-1501
p483
aVSHINDIG-1500
p484
aVSHINDIG-1499
p485
aVSHINDIG-1498
p486
aVSHINDIG-1497
p487
aVSHINDIG-1496
p488
aVSHINDIG-1495
p489
aVSHINDIG-1494
p490
aVSHINDIG-1493
p491
aVSHINDIG-1492
p492
aVSHINDIG-1491
p493
aVSHINDIG-1490
p494
aVSHINDIG-1489
p495
aVSHINDIG-1488
p496
aVSHINDIG-1487
p497
aVSHINDIG-1486
p498
aVSHINDIG-1485
p499
aVSHINDIG-1484
p500
aVSHINDIG-1483
p501
aVSHINDIG-1482
p502
aVSHINDIG-1481
p503
aVSHINDIG-1480
p504
aVSHINDIG-1479
p505
aVSHINDIG-1478
p506
aVSHINDIG-1477
p507
aVSHINDIG-1476
p508
aVSHINDIG-1475
p509
aVSHINDIG-1474
p510
aVSHINDIG-1473
p511
aVSHINDIG-1472
p512
aVSHINDIG-1471
p513
aVSHINDIG-1470
p514
aVSHINDIG-1469
p515
aVSHINDIG-1468
p516
aVSHINDIG-1467
p517
aVSHINDIG-1466
p518
aVSHINDIG-1465
p519
aVSHINDIG-1464
p520
aVSHINDIG-1463
p521
aVSHINDIG-1462
p522
aVSHINDIG-1461
p523
aVSHINDIG-1460
p524
aVSHINDIG-1459
p525
aVSHINDIG-1458
p526
aVSHINDIG-1457
p527
aVSHINDIG-1456
p528
aVSHINDIG-1455
p529
aVSHINDIG-1454
p530
aVSHINDIG-1453
p531
aVSHINDIG-1452
p532
aVSHINDIG-1451
p533
aVSHINDIG-1450
p534
aVSHINDIG-1449
p535
aVSHINDIG-1448
p536
aVSHINDIG-1447
p537
aVSHINDIG-1446
p538
aVSHINDIG-1445
p539
aVSHINDIG-1444
p540
aVSHINDIG-1443
p541
aVSHINDIG-1442
p542
aVSHINDIG-1441
p543
aVSHINDIG-1440
p544
aVSHINDIG-1439
p545
aVSHINDIG-1438
p546
aVSHINDIG-1437
p547
aVSHINDIG-1436
p548
aVSHINDIG-1435
p549
aVSHINDIG-1434
p550
aVSHINDIG-1433
p551
aVSHINDIG-1432
p552
aVSHINDIG-1431
p553
aVSHINDIG-1430
p554
aVSHINDIG-1429
p555
aVSHINDIG-1428
p556
aVSHINDIG-1427
p557
aVSHINDIG-1426
p558
aVSHINDIG-1425
p559
aVSHINDIG-1424
p560
aVSHINDIG-1423
p561
aVSHINDIG-1422
p562
aVSHINDIG-1421
p563
aVSHINDIG-1420
p564
aVSHINDIG-1419
p565
aVSHINDIG-1418
p566
aVSHINDIG-1417
p567
aVSHINDIG-1416
p568
aVSHINDIG-1415
p569
aVSHINDIG-1414
p570
aVSHINDIG-1413
p571
aVSHINDIG-1412
p572
aVSHINDIG-1411
p573
aVSHINDIG-1410
p574
aVSHINDIG-1409
p575
aVSHINDIG-1408
p576
aVSHINDIG-1407
p577
aVSHINDIG-1406
p578
aVSHINDIG-1405
p579
aVSHINDIG-1404
p580
aVSHINDIG-1403
p581
aVSHINDIG-1402
p582
aVSHINDIG-1401
p583
aVSHINDIG-1400
p584
aVSHINDIG-1399
p585
aVSHINDIG-1398
p586
aVSHINDIG-1397
p587
aVSHINDIG-1396
p588
aVSHINDIG-1395
p589
aVSHINDIG-1394
p590
aVSHINDIG-1393
p591
aVSHINDIG-1392
p592
aVSHINDIG-1391
p593
aVSHINDIG-1390
p594
aVSHINDIG-1389
p595
aVSHINDIG-1388
p596
aVSHINDIG-1387
p597
aVSHINDIG-1386
p598
aVSHINDIG-1385
p599
aVSHINDIG-1384
p600
aVSHINDIG-1383
p601
aVSHINDIG-1382
p602
aVSHINDIG-1381
p603
aVSHINDIG-1380
p604
aVSHINDIG-1379
p605
aVSHINDIG-1378
p606
aVSHINDIG-1377
p607
aVSHINDIG-1376
p608
aVSHINDIG-1375
p609
aVSHINDIG-1374
p610
aVSHINDIG-1373
p611
aVSHINDIG-1372
p612
aVSHINDIG-1371
p613
aVSHINDIG-1370
p614
aVSHINDIG-1369
p615
aVSHINDIG-1368
p616
aVSHINDIG-1367
p617
aVSHINDIG-1366
p618
aVSHINDIG-1365
p619
aVSHINDIG-1364
p620
aVSHINDIG-1363
p621
aVSHINDIG-1362
p622
aVSHINDIG-1361
p623
aVSHINDIG-1360
p624
aVSHINDIG-1359
p625
aVSHINDIG-1358
p626
aVSHINDIG-1357
p627
aVSHINDIG-1356
p628
aVSHINDIG-1355
p629
aVSHINDIG-1354
p630
aVSHINDIG-1353
p631
aVSHINDIG-1352
p632
aVSHINDIG-1351
p633
aVSHINDIG-1350
p634
aVSHINDIG-1349
p635
aVSHINDIG-1348
p636
aVSHINDIG-1347
p637
aVSHINDIG-1346
p638
aVSHINDIG-1345
p639
aVSHINDIG-1344
p640
aVSHINDIG-1343
p641
aVSHINDIG-1342
p642
aVSHINDIG-1341
p643
aVSHINDIG-1340
p644
aVSHINDIG-1339
p645
aVSHINDIG-1338
p646
aVSHINDIG-1337
p647
aVSHINDIG-1336
p648
aVSHINDIG-1335
p649
aVSHINDIG-1334
p650
aVSHINDIG-1333
p651
aVSHINDIG-1332
p652
aVSHINDIG-1331
p653
aVSHINDIG-1330
p654
aVSHINDIG-1329
p655
aVSHINDIG-1328
p656
aVSHINDIG-1327
p657
aVSHINDIG-1326
p658
aVSHINDIG-1325
p659
aVSHINDIG-1324
p660
aVSHINDIG-1323
p661
aVSHINDIG-1322
p662
aVSHINDIG-1321
p663
aVSHINDIG-1320
p664
aVSHINDIG-1319
p665
aVSHINDIG-1318
p666
aVSHINDIG-1317
p667
aVSHINDIG-1316
p668
aVSHINDIG-1315
p669
aVSHINDIG-1314
p670
aVSHINDIG-1313
p671
aVSHINDIG-1312
p672
aVSHINDIG-1311
p673
aVSHINDIG-1310
p674
aVSHINDIG-1309
p675
aVSHINDIG-1308
p676
aVSHINDIG-1307
p677
aVSHINDIG-1306
p678
aVSHINDIG-1305
p679
aVSHINDIG-1304
p680
aVSHINDIG-1303
p681
aVSHINDIG-1302
p682
aVSHINDIG-1301
p683
aVSHINDIG-1300
p684
aVSHINDIG-1299
p685
aVSHINDIG-1298
p686
aVSHINDIG-1297
p687
aVSHINDIG-1296
p688
aVSHINDIG-1295
p689
aVSHINDIG-1294
p690
aVSHINDIG-1293
p691
aVSHINDIG-1292
p692
aVSHINDIG-1291
p693
aVSHINDIG-1290
p694
aVSHINDIG-1289
p695
aVSHINDIG-1288
p696
aVSHINDIG-1287
p697
aVSHINDIG-1286
p698
aVSHINDIG-1285
p699
aVSHINDIG-1284
p700
aVSHINDIG-1283
p701
aVSHINDIG-1282
p702
aVSHINDIG-1281
p703
aVSHINDIG-1280
p704
aVSHINDIG-1279
p705
aVSHINDIG-1278
p706
aVSHINDIG-1277
p707
aVSHINDIG-1276
p708
aVSHINDIG-1275
p709
aVSHINDIG-1274
p710
aVSHINDIG-1273
p711
aVSHINDIG-1272
p712
aVSHINDIG-1271
p713
aVSHINDIG-1270
p714
aVSHINDIG-1269
p715
aVSHINDIG-1268
p716
aVSHINDIG-1267
p717
aVSHINDIG-1266
p718
aVSHINDIG-1265
p719
aVSHINDIG-1264
p720
aVSHINDIG-1263
p721
aVSHINDIG-1262
p722
aVSHINDIG-1261
p723
aVSHINDIG-1260
p724
aVSHINDIG-1259
p725
aVSHINDIG-1258
p726
aVSHINDIG-1257
p727
aVSHINDIG-1256
p728
aVSHINDIG-1255
p729
aVSHINDIG-1254
p730
aVSHINDIG-1253
p731
aVSHINDIG-1252
p732
aVSHINDIG-1251
p733
aVSHINDIG-1250
p734
aVSHINDIG-1249
p735
aVSHINDIG-1248
p736
aVSHINDIG-1247
p737
aVSHINDIG-1246
p738
aVSHINDIG-1245
p739
aVSHINDIG-1244
p740
aVSHINDIG-1243
p741
aVSHINDIG-1242
p742
aVSHINDIG-1241
p743
aVSHINDIG-1240
p744
aVSHINDIG-1239
p745
aVSHINDIG-1238
p746
aVSHINDIG-1237
p747
aVSHINDIG-1236
p748
aVSHINDIG-1235
p749
aVSHINDIG-1234
p750
aVSHINDIG-1233
p751
aVSHINDIG-1232
p752
aVSHINDIG-1231
p753
aVSHINDIG-1230
p754
aVSHINDIG-1229
p755
aVSHINDIG-1228
p756
aVSHINDIG-1227
p757
aVSHINDIG-1226
p758
aVSHINDIG-1225
p759
aVSHINDIG-1224
p760
aVSHINDIG-1223
p761
aVSHINDIG-1222
p762
aVSHINDIG-1221
p763
aVSHINDIG-1220
p764
aVSHINDIG-1219
p765
aVSHINDIG-1218
p766
aVSHINDIG-1217
p767
aVSHINDIG-1216
p768
aVSHINDIG-1215
p769
aVSHINDIG-1214
p770
aVSHINDIG-1213
p771
aVSHINDIG-1212
p772
aVSHINDIG-1211
p773
aVSHINDIG-1210
p774
aVSHINDIG-1209
p775
aVSHINDIG-1208
p776
aVSHINDIG-1207
p777
aVSHINDIG-1206
p778
aVSHINDIG-1205
p779
aVSHINDIG-1204
p780
aVSHINDIG-1203
p781
aVSHINDIG-1202
p782
aVSHINDIG-1201
p783
aVSHINDIG-1200
p784
aVSHINDIG-1199
p785
aVSHINDIG-1198
p786
aVSHINDIG-1197
p787
aVSHINDIG-1196
p788
aVSHINDIG-1195
p789
aVSHINDIG-1194
p790
aVSHINDIG-1193
p791
aVSHINDIG-1192
p792
aVSHINDIG-1191
p793
aVSHINDIG-1190
p794
aVSHINDIG-1189
p795
aVSHINDIG-1188
p796
aVSHINDIG-1187
p797
aVSHINDIG-1186
p798
aVSHINDIG-1185
p799
aVSHINDIG-1184
p800
aVSHINDIG-1183
p801
aVSHINDIG-1182
p802
aVSHINDIG-1181
p803
aVSHINDIG-1180
p804
aVSHINDIG-1179
p805
aVSHINDIG-1178
p806
aVSHINDIG-1177
p807
aVSHINDIG-1176
p808
aVSHINDIG-1175
p809
aVSHINDIG-1174
p810
aVSHINDIG-1173
p811
aVSHINDIG-1172
p812
aVSHINDIG-1171
p813
aVSHINDIG-1170
p814
aVSHINDIG-1169
p815
aVSHINDIG-1168
p816
aVSHINDIG-1167
p817
aVSHINDIG-1166
p818
aVSHINDIG-1165
p819
aVSHINDIG-1164
p820
aVSHINDIG-1163
p821
aVSHINDIG-1162
p822
aVSHINDIG-1161
p823
aVSHINDIG-1160
p824
aVSHINDIG-1159
p825
aVSHINDIG-1158
p826
aVSHINDIG-1157
p827
aVSHINDIG-1156
p828
aVSHINDIG-1155
p829
aVSHINDIG-1154
p830
aVSHINDIG-1153
p831
aVSHINDIG-1152
p832
aVSHINDIG-1151
p833
aVSHINDIG-1150
p834
aVSHINDIG-1149
p835
aVSHINDIG-1148
p836
aVSHINDIG-1147
p837
aVSHINDIG-1146
p838
aVSHINDIG-1145
p839
aVSHINDIG-1144
p840
aVSHINDIG-1143
p841
aVSHINDIG-1142
p842
aVSHINDIG-1141
p843
aVSHINDIG-1140
p844
aVSHINDIG-1139
p845
aVSHINDIG-1137
p846
aVSHINDIG-1136
p847
aVSHINDIG-1135
p848
aVSHINDIG-1134
p849
aVSHINDIG-1133
p850
aVSHINDIG-1132
p851
aVSHINDIG-1131
p852
aVSHINDIG-1130
p853
aVSHINDIG-1129
p854
aVSHINDIG-1128
p855
aVSHINDIG-1127
p856
aVSHINDIG-1126
p857
aVSHINDIG-1125
p858
aVSHINDIG-1124
p859
aVSHINDIG-1123
p860
aVSHINDIG-1122
p861
aVSHINDIG-1121
p862
aVSHINDIG-1120
p863
aVSHINDIG-1119
p864
aVSHINDIG-1118
p865
aVSHINDIG-1117
p866
aVSHINDIG-1116
p867
aVSHINDIG-1115
p868
aVSHINDIG-1114
p869
aVSHINDIG-1113
p870
aVSHINDIG-1112
p871
aVSHINDIG-1111
p872
aVSHINDIG-1110
p873
aVSHINDIG-1109
p874
aVSHINDIG-1108
p875
aVSHINDIG-1107
p876
aVSHINDIG-1106
p877
aVSHINDIG-1105
p878
aVSHINDIG-1104
p879
aVSHINDIG-1103
p880
aVSHINDIG-1102
p881
aVSHINDIG-1101
p882
aVSHINDIG-1100
p883
aVSHINDIG-1099
p884
aVSHINDIG-1098
p885
aVSHINDIG-1097
p886
aVSHINDIG-1096
p887
aVSHINDIG-1095
p888
aVSHINDIG-1094
p889
aVSHINDIG-1093
p890
aVSHINDIG-1092
p891
aVSHINDIG-1091
p892
aVSHINDIG-1090
p893
aVSHINDIG-1089
p894
aVSHINDIG-1088
p895
aVSHINDIG-1087
p896
aVSHINDIG-1086
p897
aVSHINDIG-1085
p898
aVSHINDIG-1084
p899
aVSHINDIG-1083
p900
aVSHINDIG-1082
p901
aVSHINDIG-1081
p902
aVSHINDIG-1080
p903
aVSHINDIG-1079
p904
aVSHINDIG-1078
p905
aVSHINDIG-1077
p906
aVSHINDIG-1076
p907
aVSHINDIG-1075
p908
aVSHINDIG-1074
p909
aVSHINDIG-1073
p910
aVSHINDIG-1072
p911
aVSHINDIG-1071
p912
aVSHINDIG-1070
p913
aVSHINDIG-1069
p914
aVSHINDIG-1068
p915
aVSHINDIG-1067
p916
aVSHINDIG-1066
p917
aVSHINDIG-1065
p918
aVSHINDIG-1064
p919
aVSHINDIG-1063
p920
aVSHINDIG-1062
p921
aVSHINDIG-1061
p922
aVSHINDIG-1060
p923
aVSHINDIG-1059
p924
aVSHINDIG-1058
p925
aVSHINDIG-1057
p926
aVSHINDIG-1056
p927
aVSHINDIG-1055
p928
aVSHINDIG-1054
p929
aVSHINDIG-1053
p930
aVSHINDIG-1052
p931
aVSHINDIG-1051
p932
aVSHINDIG-1050
p933
aVSHINDIG-1049
p934
aVSHINDIG-1048
p935
aVSHINDIG-1047
p936
aVSHINDIG-1046
p937
aVSHINDIG-1045
p938
aVSHINDIG-1044
p939
aVSHINDIG-1043
p940
aVSHINDIG-1042
p941
aVSHINDIG-1041
p942
aVSHINDIG-1040
p943
aVSHINDIG-1039
p944
aVSHINDIG-1038
p945
aVSHINDIG-1037
p946
aVSHINDIG-1036
p947
aVSHINDIG-1035
p948
aVSHINDIG-1034
p949
aVSHINDIG-1033
p950
aVSHINDIG-1032
p951
aVSHINDIG-1031
p952
aVSHINDIG-1030
p953
aVSHINDIG-1029
p954
aVSHINDIG-1028
p955
aVSHINDIG-1027
p956
aVSHINDIG-1026
p957
aVSHINDIG-1025
p958
aVSHINDIG-1024
p959
aVSHINDIG-1023
p960
aVSHINDIG-1022
p961
aVSHINDIG-1021
p962
aVSHINDIG-1020
p963
aVSHINDIG-1019
p964
aVSHINDIG-1018
p965
aVSHINDIG-1017
p966
aVSHINDIG-1016
p967
aVSHINDIG-1015
p968
aVSHINDIG-1014
p969
aVSHINDIG-1013
p970
aVSHINDIG-1012
p971
aVSHINDIG-1011
p972
aVSHINDIG-1010
p973
aVSHINDIG-1009
p974
aVSHINDIG-1008
p975
aVSHINDIG-1007
p976
aVSHINDIG-1006
p977
aVSHINDIG-1005
p978
aVSHINDIG-1003
p979
aVSHINDIG-1002
p980
aVSHINDIG-1001
p981
aVSHINDIG-1000
p982
aVSHINDIG-999
p983
aVSHINDIG-998
p984
aVSHINDIG-997
p985
aVSHINDIG-996
p986
aVSHINDIG-995
p987
aVSHINDIG-994
p988
aVSHINDIG-993
p989
aVSHINDIG-992
p990
aVSHINDIG-991
p991
aVSHINDIG-990
p992
aVSHINDIG-989
p993
aVSHINDIG-988
p994
aVSHINDIG-987
p995
aVSHINDIG-986
p996
aVSHINDIG-985
p997
aVSHINDIG-984
p998
aVSHINDIG-983
p999
aVSHINDIG-982
p1000
aVSHINDIG-981
p1001
aVSHINDIG-980
p1002
aVSHINDIG-979
p1003
aVSHINDIG-978
p1004
aVSHINDIG-977
p1005
aVSHINDIG-976
p1006
aVSHINDIG-975
p1007
aVSHINDIG-974
p1008
aVSHINDIG-973
p1009
aVSHINDIG-972
p1010
aVSHINDIG-971
p1011
aVSHINDIG-970
p1012
aVSHINDIG-969
p1013
aVSHINDIG-968
p1014
aVSHINDIG-967
p1015
aVSHINDIG-966
p1016
aVSHINDIG-965
p1017
aVSHINDIG-964
p1018
aVSHINDIG-963
p1019
aVSHINDIG-962
p1020
aVSHINDIG-961
p1021
aVSHINDIG-960
p1022
aVSHINDIG-959
p1023
aVSHINDIG-958
p1024
aVSHINDIG-957
p1025
aVSHINDIG-956
p1026
aVSHINDIG-955
p1027
aVSHINDIG-954
p1028
aVSHINDIG-953
p1029
aVSHINDIG-952
p1030
aVSHINDIG-951
p1031
aVSHINDIG-950
p1032
aVSHINDIG-949
p1033
aVSHINDIG-948
p1034
aVSHINDIG-947
p1035
aVSHINDIG-946
p1036
aVSHINDIG-945
p1037
aVSHINDIG-944
p1038
aVSHINDIG-943
p1039
aVSHINDIG-942
p1040
aVSHINDIG-941
p1041
aVSHINDIG-940
p1042
aVSHINDIG-939
p1043
aVSHINDIG-938
p1044
aVSHINDIG-937
p1045
aVSHINDIG-936
p1046
aVSHINDIG-935
p1047
aVSHINDIG-934
p1048
aVSHINDIG-933
p1049
aVSHINDIG-932
p1050
aVSHINDIG-931
p1051
aVSHINDIG-930
p1052
aVSHINDIG-929
p1053
aVSHINDIG-928
p1054
aVSHINDIG-927
p1055
aVSHINDIG-926
p1056
aVSHINDIG-925
p1057
aVSHINDIG-924
p1058
aVSHINDIG-923
p1059
aVSHINDIG-922
p1060
aVSHINDIG-921
p1061
aVSHINDIG-920
p1062
aVSHINDIG-919
p1063
aVSHINDIG-918
p1064
aVSHINDIG-917
p1065
aVSHINDIG-916
p1066
aVSHINDIG-915
p1067
aVSHINDIG-914
p1068
aVSHINDIG-913
p1069
aVSHINDIG-912
p1070
aVSHINDIG-911
p1071
aVSHINDIG-910
p1072
aVSHINDIG-909
p1073
aVSHINDIG-908
p1074
aVSHINDIG-907
p1075
aVSHINDIG-906
p1076
aVSHINDIG-905
p1077
aVSHINDIG-904
p1078
aVSHINDIG-903
p1079
aVSHINDIG-902
p1080
aVSHINDIG-901
p1081
aVSHINDIG-900
p1082
aVSHINDIG-899
p1083
aVSHINDIG-898
p1084
aVSHINDIG-897
p1085
aVSHINDIG-896
p1086
aVSHINDIG-895
p1087
aVSHINDIG-894
p1088
aVSHINDIG-893
p1089
aVSHINDIG-892
p1090
aVSHINDIG-891
p1091
aVSHINDIG-890
p1092
aVSHINDIG-889
p1093
aVSHINDIG-888
p1094
aVSHINDIG-887
p1095
aVSHINDIG-886
p1096
aVSHINDIG-885
p1097
aVSHINDIG-884
p1098
aVSHINDIG-883
p1099
aVSHINDIG-882
p1100
aVSHINDIG-881
p1101
aVSHINDIG-880
p1102
aVSHINDIG-879
p1103
aVSHINDIG-878
p1104
aVSHINDIG-877
p1105
aVSHINDIG-876
p1106
aVSHINDIG-875
p1107
aVSHINDIG-874
p1108
aVSHINDIG-873
p1109
aVSHINDIG-872
p1110
aVSHINDIG-871
p1111
aVSHINDIG-870
p1112
aVSHINDIG-869
p1113
aVSHINDIG-868
p1114
aVSHINDIG-867
p1115
aVSHINDIG-866
p1116
aVSHINDIG-865
p1117
aVSHINDIG-864
p1118
aVSHINDIG-863
p1119
aVSHINDIG-862
p1120
aVSHINDIG-861
p1121
aVSHINDIG-860
p1122
aVSHINDIG-859
p1123
aVSHINDIG-858
p1124
aVSHINDIG-857
p1125
aVSHINDIG-856
p1126
aVSHINDIG-855
p1127
aVSHINDIG-854
p1128
aVSHINDIG-853
p1129
aVSHINDIG-852
p1130
aVSHINDIG-851
p1131
aVSHINDIG-850
p1132
aVSHINDIG-849
p1133
aVSHINDIG-848
p1134
aVSHINDIG-847
p1135
aVSHINDIG-846
p1136
aVSHINDIG-845
p1137
aVSHINDIG-844
p1138
aVSHINDIG-843
p1139
aVSHINDIG-842
p1140
aVSHINDIG-841
p1141
aVSHINDIG-840
p1142
aVSHINDIG-839
p1143
aVSHINDIG-838
p1144
aVSHINDIG-837
p1145
aVSHINDIG-836
p1146
aVSHINDIG-835
p1147
aVSHINDIG-834
p1148
aVSHINDIG-833
p1149
aVSHINDIG-832
p1150
aVSHINDIG-831
p1151
aVSHINDIG-830
p1152
aVSHINDIG-829
p1153
aVSHINDIG-828
p1154
aVSHINDIG-827
p1155
aVSHINDIG-826
p1156
aVSHINDIG-825
p1157
aVSHINDIG-824
p1158
aVSHINDIG-823
p1159
aVSHINDIG-822
p1160
aVSHINDIG-821
p1161
aVSHINDIG-820
p1162
aVSHINDIG-819
p1163
aVSHINDIG-818
p1164
aVSHINDIG-817
p1165
aVSHINDIG-816
p1166
aVSHINDIG-815
p1167
aVSHINDIG-814
p1168
aVSHINDIG-813
p1169
aVSHINDIG-812
p1170
aVSHINDIG-811
p1171
aVSHINDIG-810
p1172
aVSHINDIG-809
p1173
aVSHINDIG-808
p1174
aVSHINDIG-807
p1175
aVSHINDIG-806
p1176
aVSHINDIG-805
p1177
aVSHINDIG-804
p1178
aVSHINDIG-803
p1179
aVSHINDIG-802
p1180
aVSHINDIG-801
p1181
aVSHINDIG-800
p1182
aVSHINDIG-799
p1183
aVSHINDIG-798
p1184
aVSHINDIG-797
p1185
aVSHINDIG-796
p1186
aVSHINDIG-795
p1187
aVSHINDIG-794
p1188
aVSHINDIG-793
p1189
aVSHINDIG-792
p1190
aVSHINDIG-791
p1191
aVSHINDIG-790
p1192
aVSHINDIG-789
p1193
aVSHINDIG-788
p1194
aVSHINDIG-787
p1195
aVSHINDIG-786
p1196
aVSHINDIG-785
p1197
aVSHINDIG-784
p1198
aVSHINDIG-782
p1199
aVSHINDIG-781
p1200
aVSHINDIG-780
p1201
aVSHINDIG-779
p1202
aVSHINDIG-778
p1203
aVSHINDIG-777
p1204
aVSHINDIG-776
p1205
aVSHINDIG-775
p1206
aVSHINDIG-774
p1207
aVSHINDIG-773
p1208
aVSHINDIG-772
p1209
aVSHINDIG-771
p1210
aVSHINDIG-770
p1211
aVSHINDIG-769
p1212
aVSHINDIG-768
p1213
aVSHINDIG-767
p1214
aVSHINDIG-766
p1215
aVSHINDIG-765
p1216
aVSHINDIG-764
p1217
aVSHINDIG-763
p1218
aVSHINDIG-762
p1219
aVSHINDIG-761
p1220
aVSHINDIG-760
p1221
aVSHINDIG-759
p1222
aVSHINDIG-758
p1223
aVSHINDIG-757
p1224
aVSHINDIG-756
p1225
aVSHINDIG-755
p1226
aVSHINDIG-754
p1227
aVSHINDIG-753
p1228
aVSHINDIG-752
p1229
aVSHINDIG-751
p1230
aVSHINDIG-750
p1231
aVSHINDIG-749
p1232
aVSHINDIG-748
p1233
aVSHINDIG-747
p1234
aVSHINDIG-746
p1235
aVSHINDIG-745
p1236
aVSHINDIG-744
p1237
aVSHINDIG-743
p1238
aVSHINDIG-742
p1239
aVSHINDIG-741
p1240
aVSHINDIG-740
p1241
aVSHINDIG-739
p1242
aVSHINDIG-738
p1243
aVSHINDIG-737
p1244
aVSHINDIG-736
p1245
aVSHINDIG-735
p1246
aVSHINDIG-734
p1247
aVSHINDIG-733
p1248
aVSHINDIG-732
p1249
aVSHINDIG-731
p1250
aVSHINDIG-730
p1251
aVSHINDIG-729
p1252
aVSHINDIG-728
p1253
aVSHINDIG-727
p1254
aVSHINDIG-726
p1255
aVSHINDIG-725
p1256
aVSHINDIG-724
p1257
aVSHINDIG-723
p1258
aVSHINDIG-722
p1259
aVSHINDIG-721
p1260
aVSHINDIG-720
p1261
aVSHINDIG-719
p1262
aVSHINDIG-718
p1263
aVSHINDIG-717
p1264
aVSHINDIG-716
p1265
aVSHINDIG-715
p1266
aVSHINDIG-714
p1267
aVSHINDIG-713
p1268
aVSHINDIG-712
p1269
aVSHINDIG-711
p1270
aVSHINDIG-710
p1271
aVSHINDIG-709
p1272
aVSHINDIG-708
p1273
aVSHINDIG-707
p1274
aVSHINDIG-706
p1275
aVSHINDIG-705
p1276
aVSHINDIG-704
p1277
aVSHINDIG-703
p1278
aVSHINDIG-702
p1279
aVSHINDIG-701
p1280
aVSHINDIG-700
p1281
aVSHINDIG-699
p1282
aVSHINDIG-698
p1283
aVSHINDIG-697
p1284
aVSHINDIG-696
p1285
aVSHINDIG-695
p1286
aVSHINDIG-694
p1287
aVSHINDIG-693
p1288
aVSHINDIG-692
p1289
aVSHINDIG-691
p1290
aVSHINDIG-690
p1291
aVSHINDIG-689
p1292
aVSHINDIG-688
p1293
aVSHINDIG-687
p1294
aVSHINDIG-686
p1295
aVSHINDIG-685
p1296
aVSHINDIG-684
p1297
aVSHINDIG-683
p1298
aVSHINDIG-682
p1299
aVSHINDIG-681
p1300
aVSHINDIG-680
p1301
aVSHINDIG-679
p1302
aVSHINDIG-678
p1303
aVSHINDIG-677
p1304
aVSHINDIG-676
p1305
aVSHINDIG-675
p1306
aVSHINDIG-674
p1307
aVSHINDIG-673
p1308
aVSHINDIG-672
p1309
aVSHINDIG-671
p1310
aVSHINDIG-670
p1311
aVSHINDIG-669
p1312
aVSHINDIG-668
p1313
aVSHINDIG-667
p1314
aVSHINDIG-666
p1315
aVSHINDIG-665
p1316
aVSHINDIG-664
p1317
aVSHINDIG-663
p1318
aVSHINDIG-662
p1319
aVSHINDIG-661
p1320
aVSHINDIG-660
p1321
aVSHINDIG-659
p1322
aVSHINDIG-658
p1323
aVSHINDIG-657
p1324
aVSHINDIG-656
p1325
aVSHINDIG-655
p1326
aVSHINDIG-654
p1327
aVSHINDIG-653
p1328
aVSHINDIG-652
p1329
aVSHINDIG-651
p1330
aVSHINDIG-650
p1331
aVSHINDIG-649
p1332
aVSHINDIG-648
p1333
aVSHINDIG-647
p1334
aVSHINDIG-646
p1335
aVSHINDIG-645
p1336
aVSHINDIG-644
p1337
aVSHINDIG-643
p1338
aVSHINDIG-642
p1339
aVSHINDIG-641
p1340
aVSHINDIG-640
p1341
aVSHINDIG-639
p1342
aVSHINDIG-638
p1343
aVSHINDIG-637
p1344
aVSHINDIG-636
p1345
aVSHINDIG-635
p1346
aVSHINDIG-634
p1347
aVSHINDIG-633
p1348
aVSHINDIG-632
p1349
aVSHINDIG-631
p1350
aVSHINDIG-630
p1351
aVSHINDIG-629
p1352
aVSHINDIG-628
p1353
aVSHINDIG-627
p1354
aVSHINDIG-626
p1355
aVSHINDIG-625
p1356
aVSHINDIG-624
p1357
aVSHINDIG-623
p1358
aVSHINDIG-622
p1359
aVSHINDIG-621
p1360
aVSHINDIG-620
p1361
aVSHINDIG-619
p1362
aVSHINDIG-618
p1363
aVSHINDIG-617
p1364
aVSHINDIG-616
p1365
aVSHINDIG-615
p1366
aVSHINDIG-614
p1367
aVSHINDIG-613
p1368
aVSHINDIG-612
p1369
aVSHINDIG-611
p1370
aVSHINDIG-610
p1371
aVSHINDIG-609
p1372
aVSHINDIG-608
p1373
aVSHINDIG-607
p1374
aVSHINDIG-606
p1375
aVSHINDIG-605
p1376
aVSHINDIG-604
p1377
aVSHINDIG-603
p1378
aVSHINDIG-602
p1379
aVSHINDIG-601
p1380
aVSHINDIG-600
p1381
aVSHINDIG-599
p1382
aVSHINDIG-598
p1383
aVSHINDIG-597
p1384
aVSHINDIG-596
p1385
aVSHINDIG-595
p1386
aVSHINDIG-594
p1387
aVSHINDIG-593
p1388
aVSHINDIG-592
p1389
aVSHINDIG-591
p1390
aVSHINDIG-590
p1391
aVSHINDIG-589
p1392
aVSHINDIG-588
p1393
aVSHINDIG-587
p1394
aVSHINDIG-586
p1395
aVSHINDIG-585
p1396
aVSHINDIG-584
p1397
aVSHINDIG-583
p1398
aVSHINDIG-582
p1399
aVSHINDIG-581
p1400
aVSHINDIG-580
p1401
aVSHINDIG-579
p1402
aVSHINDIG-578
p1403
aVSHINDIG-577
p1404
aVSHINDIG-576
p1405
aVSHINDIG-575
p1406
aVSHINDIG-574
p1407
aVSHINDIG-573
p1408
aVSHINDIG-572
p1409
aVSHINDIG-571
p1410
aVSHINDIG-570
p1411
aVSHINDIG-569
p1412
aVSHINDIG-568
p1413
aVSHINDIG-567
p1414
aVSHINDIG-566
p1415
aVSHINDIG-565
p1416
aVSHINDIG-564
p1417
aVSHINDIG-563
p1418
aVSHINDIG-562
p1419
aVSHINDIG-561
p1420
aVSHINDIG-560
p1421
aVSHINDIG-559
p1422
aVSHINDIG-558
p1423
aVSHINDIG-557
p1424
aVSHINDIG-556
p1425
aVSHINDIG-555
p1426
aVSHINDIG-554
p1427
aVSHINDIG-553
p1428
aVSHINDIG-552
p1429
aVSHINDIG-551
p1430
aVSHINDIG-550
p1431
aVSHINDIG-549
p1432
aVSHINDIG-548
p1433
aVSHINDIG-547
p1434
aVSHINDIG-546
p1435
aVSHINDIG-545
p1436
aVSHINDIG-544
p1437
aVSHINDIG-543
p1438
aVSHINDIG-542
p1439
aVSHINDIG-541
p1440
aVSHINDIG-540
p1441
aVSHINDIG-539
p1442
aVSHINDIG-538
p1443
aVSHINDIG-537
p1444
aVSHINDIG-536
p1445
aVSHINDIG-535
p1446
aVSHINDIG-534
p1447
aVSHINDIG-533
p1448
aVSHINDIG-532
p1449
aVSHINDIG-531
p1450
aVSHINDIG-530
p1451
aVSHINDIG-529
p1452
aVSHINDIG-528
p1453
aVSHINDIG-527
p1454
aVSHINDIG-526
p1455
aVSHINDIG-525
p1456
aVSHINDIG-524
p1457
aVSHINDIG-523
p1458
aVSHINDIG-521
p1459
aVSHINDIG-520
p1460
aVSHINDIG-519
p1461
aVSHINDIG-518
p1462
aVSHINDIG-517
p1463
aVSHINDIG-516
p1464
aVSHINDIG-515
p1465
aVSHINDIG-514
p1466
aVSHINDIG-513
p1467
aVSHINDIG-512
p1468
aVSHINDIG-511
p1469
aVSHINDIG-510
p1470
aVSHINDIG-509
p1471
aVSHINDIG-508
p1472
aVSHINDIG-507
p1473
aVSHINDIG-506
p1474
aVSHINDIG-505
p1475
aVSHINDIG-504
p1476
aVSHINDIG-503
p1477
aVSHINDIG-502
p1478
aVSHINDIG-501
p1479
aVSHINDIG-500
p1480
aVSHINDIG-499
p1481
aVSHINDIG-498
p1482
aVSHINDIG-497
p1483
aVSHINDIG-496
p1484
aVSHINDIG-495
p1485
aVSHINDIG-494
p1486
aVSHINDIG-493
p1487
aVSHINDIG-492
p1488
aVSHINDIG-491
p1489
aVSHINDIG-490
p1490
aVSHINDIG-489
p1491
aVSHINDIG-488
p1492
aVSHINDIG-487
p1493
aVSHINDIG-486
p1494
aVSHINDIG-485
p1495
aVSHINDIG-484
p1496
aVSHINDIG-483
p1497
aVSHINDIG-482
p1498
aVSHINDIG-481
p1499
aVSHINDIG-480
p1500
aVSHINDIG-479
p1501
aVSHINDIG-478
p1502
aVSHINDIG-477
p1503
aVSHINDIG-476
p1504
aVSHINDIG-475
p1505
aVSHINDIG-474
p1506
aVSHINDIG-473
p1507
aVSHINDIG-472
p1508
aVSHINDIG-471
p1509
aVSHINDIG-470
p1510
aVSHINDIG-469
p1511
aVSHINDIG-468
p1512
aVSHINDIG-467
p1513
aVSHINDIG-466
p1514
aVSHINDIG-465
p1515
aVSHINDIG-464
p1516
aVSHINDIG-463
p1517
aVSHINDIG-462
p1518
aVSHINDIG-461
p1519
aVSHINDIG-460
p1520
aVSHINDIG-459
p1521
aVSHINDIG-458
p1522
aVSHINDIG-457
p1523
aVSHINDIG-456
p1524
aVSHINDIG-455
p1525
aVSHINDIG-454
p1526
aVSHINDIG-453
p1527
aVSHINDIG-452
p1528
aVSHINDIG-451
p1529
aVSHINDIG-450
p1530
aVSHINDIG-449
p1531
aVSHINDIG-448
p1532
aVSHINDIG-447
p1533
aVSHINDIG-446
p1534
aVSHINDIG-445
p1535
aVSHINDIG-444
p1536
aVSHINDIG-443
p1537
aVSHINDIG-442
p1538
aVSHINDIG-441
p1539
aVSHINDIG-440
p1540
aVSHINDIG-439
p1541
aVSHINDIG-438
p1542
aVSHINDIG-437
p1543
aVSHINDIG-436
p1544
aVSHINDIG-435
p1545
aVSHINDIG-434
p1546
aVSHINDIG-433
p1547
aVSHINDIG-432
p1548
aVSHINDIG-431
p1549
aVSHINDIG-430
p1550
aVSHINDIG-429
p1551
aVSHINDIG-428
p1552
aVSHINDIG-427
p1553
aVSHINDIG-426
p1554
aVSHINDIG-425
p1555
aVSHINDIG-424
p1556
aVSHINDIG-423
p1557
aVSHINDIG-422
p1558
aVSHINDIG-421
p1559
aVSHINDIG-420
p1560
aVSHINDIG-419
p1561
aVSHINDIG-418
p1562
aVSHINDIG-417
p1563
aVSHINDIG-416
p1564
aVSHINDIG-415
p1565
aVSHINDIG-414
p1566
aVSHINDIG-413
p1567
aVSHINDIG-412
p1568
aVSHINDIG-411
p1569
aVSHINDIG-410
p1570
aVSHINDIG-409
p1571
aVSHINDIG-408
p1572
aVSHINDIG-407
p1573
aVSHINDIG-406
p1574
aVSHINDIG-405
p1575
aVSHINDIG-404
p1576
aVSHINDIG-403
p1577
aVSHINDIG-402
p1578
aVSHINDIG-401
p1579
aVSHINDIG-400
p1580
aVSHINDIG-399
p1581
aVSHINDIG-398
p1582
aVSHINDIG-397
p1583
aVSHINDIG-396
p1584
aVSHINDIG-395
p1585
aVSHINDIG-394
p1586
aVSHINDIG-393
p1587
aVSHINDIG-392
p1588
aVSHINDIG-391
p1589
aVSHINDIG-390
p1590
aVSHINDIG-389
p1591
aVSHINDIG-388
p1592
aVSHINDIG-387
p1593
aVSHINDIG-386
p1594
aVSHINDIG-385
p1595
aVSHINDIG-384
p1596
aVSHINDIG-383
p1597
aVSHINDIG-382
p1598
aVSHINDIG-381
p1599
aVSHINDIG-380
p1600
aVSHINDIG-379
p1601
aVSHINDIG-378
p1602
aVSHINDIG-377
p1603
aVSHINDIG-376
p1604
aVSHINDIG-375
p1605
aVSHINDIG-374
p1606
aVSHINDIG-373
p1607
aVSHINDIG-372
p1608
aVSHINDIG-371
p1609
aVSHINDIG-370
p1610
aVSHINDIG-369
p1611
aVSHINDIG-368
p1612
aVSHINDIG-367
p1613
aVSHINDIG-366
p1614
aVSHINDIG-365
p1615
aVSHINDIG-364
p1616
aVSHINDIG-363
p1617
aVSHINDIG-362
p1618
aVSHINDIG-361
p1619
aVSHINDIG-360
p1620
aVSHINDIG-359
p1621
aVSHINDIG-358
p1622
aVSHINDIG-357
p1623
aVSHINDIG-356
p1624
aVSHINDIG-355
p1625
aVSHINDIG-354
p1626
aVSHINDIG-353
p1627
aVSHINDIG-352
p1628
aVSHINDIG-351
p1629
aVSHINDIG-350
p1630
aVSHINDIG-349
p1631
aVSHINDIG-348
p1632
aVSHINDIG-347
p1633
aVSHINDIG-346
p1634
aVSHINDIG-345
p1635
aVSHINDIG-344
p1636
aVSHINDIG-343
p1637
aVSHINDIG-342
p1638
aVSHINDIG-341
p1639
aVSHINDIG-340
p1640
aVSHINDIG-339
p1641
aVSHINDIG-338
p1642
aVSHINDIG-337
p1643
aVSHINDIG-336
p1644
aVSHINDIG-335
p1645
aVSHINDIG-334
p1646
aVSHINDIG-333
p1647
aVSHINDIG-332
p1648
aVSHINDIG-331
p1649
aVSHINDIG-330
p1650
aVSHINDIG-329
p1651
aVSHINDIG-328
p1652
aVSHINDIG-327
p1653
aVSHINDIG-326
p1654
aVSHINDIG-325
p1655
aVSHINDIG-324
p1656
aVSHINDIG-323
p1657
aVSHINDIG-322
p1658
aVSHINDIG-321
p1659
aVSHINDIG-320
p1660
aVSHINDIG-319
p1661
aVSHINDIG-318
p1662
aVSHINDIG-317
p1663
aVSHINDIG-316
p1664
aVSHINDIG-315
p1665
aVSHINDIG-314
p1666
aVSHINDIG-313
p1667
aVSHINDIG-312
p1668
aVSHINDIG-311
p1669
aVSHINDIG-310
p1670
aVSHINDIG-309
p1671
aVSHINDIG-308
p1672
aVSHINDIG-307
p1673
aVSHINDIG-306
p1674
aVSHINDIG-305
p1675
aVSHINDIG-304
p1676
aVSHINDIG-303
p1677
aVSHINDIG-302
p1678
aVSHINDIG-301
p1679
aVSHINDIG-300
p1680
aVSHINDIG-299
p1681
aVSHINDIG-298
p1682
aVSHINDIG-297
p1683
aVSHINDIG-296
p1684
aVSHINDIG-295
p1685
aVSHINDIG-294
p1686
aVSHINDIG-293
p1687
aVSHINDIG-292
p1688
aVSHINDIG-291
p1689
aVSHINDIG-290
p1690
aVSHINDIG-289
p1691
aVSHINDIG-288
p1692
aVSHINDIG-287
p1693
aVSHINDIG-286
p1694
aVSHINDIG-285
p1695
aVSHINDIG-284
p1696
aVSHINDIG-283
p1697
aVSHINDIG-282
p1698
aVSHINDIG-281
p1699
aVSHINDIG-280
p1700
aVSHINDIG-279
p1701
aVSHINDIG-278
p1702
aVSHINDIG-277
p1703
aVSHINDIG-276
p1704
aVSHINDIG-275
p1705
aVSHINDIG-274
p1706
aVSHINDIG-273
p1707
aVSHINDIG-272
p1708
aVSHINDIG-271
p1709
aVSHINDIG-270
p1710
aVSHINDIG-269
p1711
aVSHINDIG-268
p1712
aVSHINDIG-267
p1713
aVSHINDIG-266
p1714
aVSHINDIG-265
p1715
aVSHINDIG-264
p1716
aVSHINDIG-263
p1717
aVSHINDIG-262
p1718
aVSHINDIG-261
p1719
aVSHINDIG-260
p1720
aVSHINDIG-259
p1721
aVSHINDIG-258
p1722
aVSHINDIG-257
p1723
aVSHINDIG-256
p1724
aVSHINDIG-255
p1725
aVSHINDIG-254
p1726
aVSHINDIG-253
p1727
aVSHINDIG-252
p1728
aVSHINDIG-251
p1729
aVSHINDIG-250
p1730
aVSHINDIG-249
p1731
aVSHINDIG-248
p1732
aVSHINDIG-247
p1733
aVSHINDIG-246
p1734
aVSHINDIG-245
p1735
aVSHINDIG-244
p1736
aVSHINDIG-243
p1737
aVSHINDIG-242
p1738
aVSHINDIG-241
p1739
aVSHINDIG-240
p1740
aVSHINDIG-239
p1741
aVSHINDIG-238
p1742
aVSHINDIG-237
p1743
aVSHINDIG-236
p1744
aVSHINDIG-235
p1745
aVSHINDIG-234
p1746
aVSHINDIG-233
p1747
aVSHINDIG-232
p1748
aVSHINDIG-231
p1749
aVSHINDIG-230
p1750
aVSHINDIG-229
p1751
aVSHINDIG-228
p1752
aVSHINDIG-227
p1753
aVSHINDIG-226
p1754
aVSHINDIG-225
p1755
aVSHINDIG-224
p1756
aVSHINDIG-223
p1757
aVSHINDIG-222
p1758
aVSHINDIG-221
p1759
aVSHINDIG-220
p1760
aVSHINDIG-219
p1761
aVSHINDIG-218
p1762
aVSHINDIG-217
p1763
aVSHINDIG-216
p1764
aVSHINDIG-215
p1765
aVSHINDIG-214
p1766
aVSHINDIG-213
p1767
aVSHINDIG-212
p1768
aVSHINDIG-211
p1769
aVSHINDIG-210
p1770
aVSHINDIG-209
p1771
aVSHINDIG-208
p1772
aVSHINDIG-207
p1773
aVSHINDIG-206
p1774
aVSHINDIG-205
p1775
aVSHINDIG-204
p1776
aVSHINDIG-203
p1777
aVSHINDIG-202
p1778
aVSHINDIG-201
p1779
aVSHINDIG-200
p1780
aVSHINDIG-199
p1781
aVSHINDIG-198
p1782
aVSHINDIG-197
p1783
aVSHINDIG-196
p1784
aVSHINDIG-195
p1785
aVSHINDIG-194
p1786
aVSHINDIG-193
p1787
aVSHINDIG-192
p1788
aVSHINDIG-191
p1789
aVSHINDIG-190
p1790
aVSHINDIG-189
p1791
aVSHINDIG-188
p1792
aVSHINDIG-187
p1793
aVSHINDIG-186
p1794
aVSHINDIG-185
p1795
aVSHINDIG-184
p1796
aVSHINDIG-183
p1797
aVSHINDIG-182
p1798
aVSHINDIG-181
p1799
aVSHINDIG-180
p1800
aVSHINDIG-179
p1801
aVSHINDIG-178
p1802
aVSHINDIG-177
p1803
aVSHINDIG-176
p1804
aVSHINDIG-175
p1805
aVSHINDIG-174
p1806
aVSHINDIG-173
p1807
aVSHINDIG-172
p1808
aVSHINDIG-171
p1809
aVSHINDIG-170
p1810
aVSHINDIG-169
p1811
aVSHINDIG-168
p1812
aVSHINDIG-167
p1813
aVSHINDIG-166
p1814
aVSHINDIG-165
p1815
aVSHINDIG-164
p1816
aVSHINDIG-163
p1817
aVSHINDIG-162
p1818
aVSHINDIG-161
p1819
aVSHINDIG-160
p1820
aVSHINDIG-159
p1821
aVSHINDIG-158
p1822
aVSHINDIG-157
p1823
aVSHINDIG-156
p1824
aVSHINDIG-155
p1825
aVSHINDIG-154
p1826
aVSHINDIG-153
p1827
aVSHINDIG-152
p1828
aVSHINDIG-151
p1829
aVSHINDIG-150
p1830
aVSHINDIG-149
p1831
aVSHINDIG-148
p1832
aVSHINDIG-147
p1833
aVSHINDIG-146
p1834
aVSHINDIG-145
p1835
aVSHINDIG-144
p1836
aVSHINDIG-143
p1837
aVSHINDIG-142
p1838
aVSHINDIG-141
p1839
aVSHINDIG-140
p1840
aVSHINDIG-139
p1841
aVSHINDIG-138
p1842
aVSHINDIG-137
p1843
aVSHINDIG-136
p1844
aVSHINDIG-135
p1845
aVSHINDIG-134
p1846
aVSHINDIG-133
p1847
aVSHINDIG-132
p1848
aVSHINDIG-131
p1849
aVSHINDIG-130
p1850
aVSHINDIG-129
p1851
aVSHINDIG-128
p1852
aVSHINDIG-127
p1853
aVSHINDIG-126
p1854
aVSHINDIG-125
p1855
aVSHINDIG-124
p1856
aVSHINDIG-123
p1857
aVSHINDIG-122
p1858
aVSHINDIG-121
p1859
aVSHINDIG-120
p1860
aVSHINDIG-119
p1861
aVSHINDIG-118
p1862
aVSHINDIG-117
p1863
aVSHINDIG-116
p1864
aVSHINDIG-115
p1865
aVSHINDIG-114
p1866
aVSHINDIG-113
p1867
aVSHINDIG-112
p1868
aVSHINDIG-111
p1869
aVSHINDIG-110
p1870
aVSHINDIG-109
p1871
aVSHINDIG-108
p1872
aVSHINDIG-107
p1873
aVSHINDIG-106
p1874
aVSHINDIG-105
p1875
aVSHINDIG-104
p1876
aVSHINDIG-103
p1877
aVSHINDIG-102
p1878
aVSHINDIG-101
p1879
aVSHINDIG-100
p1880
aVSHINDIG-99
p1881
aVSHINDIG-98
p1882
aVSHINDIG-97
p1883
aVSHINDIG-96
p1884
aVSHINDIG-95
p1885
aVSHINDIG-94
p1886
aVSHINDIG-93
p1887
aVSHINDIG-92
p1888
aVSHINDIG-91
p1889
aVSHINDIG-90
p1890
aVSHINDIG-89
p1891
aVSHINDIG-88
p1892
aVSHINDIG-87
p1893
aVSHINDIG-86
p1894
aVSHINDIG-85
p1895
aVSHINDIG-84
p1896
aVSHINDIG-83
p1897
aVSHINDIG-82
p1898
aVSHINDIG-81
p1899
aVSHINDIG-80
p1900
aVSHINDIG-79
p1901
aVSHINDIG-78
p1902
aVSHINDIG-77
p1903
aVSHINDIG-76
p1904
aVSHINDIG-75
p1905
aVSHINDIG-74
p1906
aVSHINDIG-73
p1907
aVSHINDIG-72
p1908
aVSHINDIG-71
p1909
aVSHINDIG-70
p1910
aVSHINDIG-69
p1911
aVSHINDIG-68
p1912
aVSHINDIG-67
p1913
aVSHINDIG-66
p1914
aVSHINDIG-65
p1915
aVSHINDIG-64
p1916
aVSHINDIG-63
p1917
aVSHINDIG-62
p1918
aVSHINDIG-61
p1919
aVSHINDIG-60
p1920
aVSHINDIG-59
p1921
aVSHINDIG-58
p1922
aVSHINDIG-57
p1923
aVSHINDIG-56
p1924
aVSHINDIG-55
p1925
aVSHINDIG-54
p1926
aVSHINDIG-53
p1927
aVSHINDIG-52
p1928
aVSHINDIG-51
p1929
aVSHINDIG-50
p1930
aVSHINDIG-49
p1931
aVSHINDIG-48
p1932
aVSHINDIG-47
p1933
aVSHINDIG-46
p1934
aVSHINDIG-45
p1935
aVSHINDIG-44
p1936
aVSHINDIG-43
p1937
aVSHINDIG-42
p1938
aVSHINDIG-41
p1939
aVSHINDIG-40
p1940
aVSHINDIG-39
p1941
aVSHINDIG-38
p1942
aVSHINDIG-37
p1943
aVSHINDIG-36
p1944
aVSHINDIG-35
p1945
aVSHINDIG-34
p1946
aVSHINDIG-33
p1947
aVSHINDIG-32
p1948
aVSHINDIG-31
p1949
aVSHINDIG-30
p1950
aVSHINDIG-29
p1951
aVSHINDIG-28
p1952
aVSHINDIG-27
p1953
aVSHINDIG-26
p1954
aVSHINDIG-25
p1955
aVSHINDIG-24
p1956
aVSHINDIG-23
p1957
aVSHINDIG-22
p1958
aVSHINDIG-21
p1959
aVSHINDIG-20
p1960
aVSHINDIG-19
p1961
aVSHINDIG-18
p1962
aVSHINDIG-17
p1963
aVSHINDIG-16
p1964
aVSHINDIG-15
p1965
aVSHINDIG-14
p1966
aVSHINDIG-13
p1967
aVSHINDIG-12
p1968
aVSHINDIG-11
p1969
aVSHINDIG-10
p1970
aVSHINDIG-9
p1971
aVSHINDIG-8
p1972
aVSHINDIG-7
p1973
aVSHINDIG-6
p1974
aVSHINDIG-5
p1975
aVSHINDIG-4
p1976
aVSHINDIG-3
p1977
aVSHINDIG-2
p1978
aVSHINDIG-1
p1979
a.