(lp0
VSHIRO-649
p1
aVSHIRO-648
p2
aVSHIRO-647
p3
aVSHIRO-646
p4
aVSHIRO-645
p5
aVSHIRO-644
p6
aVSHIRO-643
p7
aVSHIRO-642
p8
aVSHIRO-641
p9
aVSHIRO-640
p10
aVSHIRO-639
p11
aVSHIRO-638
p12
aVSHIRO-637
p13
aVSHIRO-636
p14
aVSHIRO-635
p15
aVSHIRO-634
p16
aVSHIRO-633
p17
aVSHIRO-632
p18
aVSHIRO-631
p19
aVSHIRO-630
p20
aVSHIRO-629
p21
aVSHIRO-628
p22
aVSHIRO-627
p23
aVSHIRO-626
p24
aVSHIRO-625
p25
aVSHIRO-624
p26
aVSHIRO-623
p27
aVSHIRO-622
p28
aVSHIRO-621
p29
aVSHIRO-620
p30
aVSHIRO-619
p31
aVSHIRO-618
p32
aVSHIRO-617
p33
aVSHIRO-616
p34
aVSHIRO-615
p35
aVSHIRO-614
p36
aVSHIRO-613
p37
aVSHIRO-612
p38
aVSHIRO-611
p39
aVSHIRO-610
p40
aVSHIRO-609
p41
aVSHIRO-608
p42
aVSHIRO-607
p43
aVSHIRO-606
p44
aVSHIRO-605
p45
aVSHIRO-604
p46
aVSHIRO-603
p47
aVSHIRO-602
p48
aVSHIRO-601
p49
aVSHIRO-600
p50
aVSHIRO-599
p51
aVSHIRO-598
p52
aVSHIRO-597
p53
aVSHIRO-596
p54
aVSHIRO-595
p55
aVSHIRO-594
p56
aVSHIRO-593
p57
aVSHIRO-592
p58
aVSHIRO-591
p59
aVSHIRO-590
p60
aVSHIRO-589
p61
aVSHIRO-588
p62
aVSHIRO-587
p63
aVSHIRO-586
p64
aVSHIRO-585
p65
aVSHIRO-584
p66
aVSHIRO-583
p67
aVSHIRO-582
p68
aVSHIRO-581
p69
aVSHIRO-580
p70
aVSHIRO-579
p71
aVSHIRO-578
p72
aVSHIRO-577
p73
aVSHIRO-576
p74
aVSHIRO-575
p75
aVSHIRO-574
p76
aVSHIRO-573
p77
aVSHIRO-572
p78
aVSHIRO-571
p79
aVSHIRO-570
p80
aVSHIRO-569
p81
aVSHIRO-568
p82
aVSHIRO-567
p83
aVSHIRO-566
p84
aVSHIRO-565
p85
aVSHIRO-564
p86
aVSHIRO-563
p87
aVSHIRO-562
p88
aVSHIRO-561
p89
aVSHIRO-560
p90
aVSHIRO-559
p91
aVSHIRO-558
p92
aVSHIRO-557
p93
aVSHIRO-556
p94
aVSHIRO-555
p95
aVSHIRO-554
p96
aVSHIRO-553
p97
aVSHIRO-552
p98
aVSHIRO-551
p99
aVSHIRO-550
p100
aVSHIRO-549
p101
aVSHIRO-548
p102
aVSHIRO-547
p103
aVSHIRO-546
p104
aVSHIRO-545
p105
aVSHIRO-544
p106
aVSHIRO-543
p107
aVSHIRO-542
p108
aVSHIRO-541
p109
aVSHIRO-540
p110
aVSHIRO-539
p111
aVSHIRO-538
p112
aVSHIRO-537
p113
aVSHIRO-536
p114
aVSHIRO-535
p115
aVSHIRO-534
p116
aVSHIRO-533
p117
aVSHIRO-532
p118
aVSHIRO-531
p119
aVSHIRO-530
p120
aVSHIRO-529
p121
aVSHIRO-528
p122
aVSHIRO-527
p123
aVSHIRO-526
p124
aVSHIRO-525
p125
aVSHIRO-524
p126
aVSHIRO-523
p127
aVSHIRO-522
p128
aVSHIRO-521
p129
aVSHIRO-520
p130
aVSHIRO-519
p131
aVSHIRO-518
p132
aVSHIRO-517
p133
aVSHIRO-516
p134
aVSHIRO-515
p135
aVSHIRO-514
p136
aVSHIRO-513
p137
aVSHIRO-512
p138
aVSHIRO-511
p139
aVSHIRO-510
p140
aVSHIRO-509
p141
aVSHIRO-508
p142
aVSHIRO-507
p143
aVSHIRO-506
p144
aVSHIRO-505
p145
aVSHIRO-504
p146
aVSHIRO-503
p147
aVSHIRO-502
p148
aVSHIRO-501
p149
aVSHIRO-500
p150
aVSHIRO-499
p151
aVSHIRO-498
p152
aVSHIRO-497
p153
aVSHIRO-496
p154
aVSHIRO-495
p155
aVSHIRO-494
p156
aVSHIRO-493
p157
aVSHIRO-492
p158
aVSHIRO-491
p159
aVSHIRO-490
p160
aVSHIRO-489
p161
aVSHIRO-488
p162
aVSHIRO-487
p163
aVSHIRO-486
p164
aVSHIRO-485
p165
aVSHIRO-484
p166
aVSHIRO-483
p167
aVSHIRO-482
p168
aVSHIRO-481
p169
aVSHIRO-480
p170
aVSHIRO-479
p171
aVSHIRO-478
p172
aVSHIRO-477
p173
aVSHIRO-476
p174
aVSHIRO-475
p175
aVSHIRO-474
p176
aVSHIRO-473
p177
aVSHIRO-472
p178
aVSHIRO-471
p179
aVSHIRO-470
p180
aVSHIRO-469
p181
aVSHIRO-468
p182
aVSHIRO-467
p183
aVSHIRO-466
p184
aVSHIRO-465
p185
aVSHIRO-464
p186
aVSHIRO-463
p187
aVSHIRO-462
p188
aVSHIRO-461
p189
aVSHIRO-460
p190
aVSHIRO-459
p191
aVSHIRO-458
p192
aVSHIRO-457
p193
aVSHIRO-456
p194
aVSHIRO-455
p195
aVSHIRO-454
p196
aVSHIRO-453
p197
aVSHIRO-452
p198
aVSHIRO-451
p199
aVSHIRO-450
p200
aVSHIRO-449
p201
aVSHIRO-448
p202
aVSHIRO-447
p203
aVSHIRO-446
p204
aVSHIRO-445
p205
aVSHIRO-444
p206
aVSHIRO-443
p207
aVSHIRO-442
p208
aVSHIRO-441
p209
aVSHIRO-440
p210
aVSHIRO-439
p211
aVSHIRO-438
p212
aVSHIRO-437
p213
aVSHIRO-436
p214
aVSHIRO-435
p215
aVSHIRO-434
p216
aVSHIRO-433
p217
aVSHIRO-432
p218
aVSHIRO-431
p219
aVSHIRO-430
p220
aVSHIRO-429
p221
aVSHIRO-428
p222
aVSHIRO-427
p223
aVSHIRO-426
p224
aVSHIRO-425
p225
aVSHIRO-424
p226
aVSHIRO-423
p227
aVSHIRO-422
p228
aVSHIRO-421
p229
aVSHIRO-420
p230
aVSHIRO-419
p231
aVSHIRO-418
p232
aVSHIRO-417
p233
aVSHIRO-416
p234
aVSHIRO-415
p235
aVSHIRO-414
p236
aVSHIRO-413
p237
aVSHIRO-412
p238
aVSHIRO-411
p239
aVSHIRO-410
p240
aVSHIRO-409
p241
aVSHIRO-408
p242
aVSHIRO-407
p243
aVSHIRO-406
p244
aVSHIRO-405
p245
aVSHIRO-404
p246
aVSHIRO-403
p247
aVSHIRO-402
p248
aVSHIRO-401
p249
aVSHIRO-400
p250
aVSHIRO-399
p251
aVSHIRO-398
p252
aVSHIRO-397
p253
aVSHIRO-396
p254
aVSHIRO-395
p255
aVSHIRO-394
p256
aVSHIRO-393
p257
aVSHIRO-392
p258
aVSHIRO-391
p259
aVSHIRO-390
p260
aVSHIRO-389
p261
aVSHIRO-388
p262
aVSHIRO-387
p263
aVSHIRO-386
p264
aVSHIRO-385
p265
aVSHIRO-384
p266
aVSHIRO-383
p267
aVSHIRO-382
p268
aVSHIRO-381
p269
aVSHIRO-380
p270
aVSHIRO-379
p271
aVSHIRO-378
p272
aVSHIRO-377
p273
aVSHIRO-376
p274
aVSHIRO-375
p275
aVSHIRO-374
p276
aVSHIRO-373
p277
aVSHIRO-372
p278
aVSHIRO-371
p279
aVSHIRO-370
p280
aVSHIRO-369
p281
aVSHIRO-368
p282
aVSHIRO-367
p283
aVSHIRO-366
p284
aVSHIRO-365
p285
aVSHIRO-364
p286
aVSHIRO-363
p287
aVSHIRO-362
p288
aVSHIRO-361
p289
aVSHIRO-360
p290
aVSHIRO-359
p291
aVSHIRO-358
p292
aVSHIRO-357
p293
aVSHIRO-356
p294
aVSHIRO-355
p295
aVSHIRO-354
p296
aVSHIRO-353
p297
aVSHIRO-352
p298
aVSHIRO-351
p299
aVSHIRO-350
p300
aVSHIRO-349
p301
aVSHIRO-348
p302
aVSHIRO-347
p303
aVSHIRO-346
p304
aVSHIRO-345
p305
aVSHIRO-344
p306
aVSHIRO-343
p307
aVSHIRO-342
p308
aVSHIRO-341
p309
aVSHIRO-340
p310
aVSHIRO-339
p311
aVSHIRO-338
p312
aVSHIRO-337
p313
aVSHIRO-336
p314
aVSHIRO-335
p315
aVSHIRO-334
p316
aVSHIRO-333
p317
aVSHIRO-332
p318
aVSHIRO-331
p319
aVSHIRO-330
p320
aVSHIRO-329
p321
aVSHIRO-328
p322
aVSHIRO-327
p323
aVSHIRO-326
p324
aVSHIRO-325
p325
aVSHIRO-324
p326
aVSHIRO-323
p327
aVSHIRO-322
p328
aVSHIRO-321
p329
aVSHIRO-320
p330
aVSHIRO-319
p331
aVSHIRO-318
p332
aVSHIRO-317
p333
aVSHIRO-316
p334
aVSHIRO-315
p335
aVSHIRO-314
p336
aVSHIRO-313
p337
aVSHIRO-312
p338
aVSHIRO-311
p339
aVSHIRO-310
p340
aVSHIRO-309
p341
aVSHIRO-308
p342
aVSHIRO-307
p343
aVSHIRO-306
p344
aVSHIRO-305
p345
aVSHIRO-304
p346
aVSHIRO-303
p347
aVSHIRO-302
p348
aVSHIRO-301
p349
aVSHIRO-300
p350
aVSHIRO-299
p351
aVSHIRO-298
p352
aVSHIRO-297
p353
aVSHIRO-296
p354
aVSHIRO-295
p355
aVSHIRO-294
p356
aVSHIRO-293
p357
aVSHIRO-292
p358
aVSHIRO-291
p359
aVSHIRO-290
p360
aVSHIRO-289
p361
aVSHIRO-288
p362
aVSHIRO-287
p363
aVSHIRO-286
p364
aVSHIRO-285
p365
aVSHIRO-284
p366
aVSHIRO-283
p367
aVSHIRO-282
p368
aVSHIRO-281
p369
aVSHIRO-280
p370
aVSHIRO-279
p371
aVSHIRO-278
p372
aVSHIRO-277
p373
aVSHIRO-276
p374
aVSHIRO-275
p375
aVSHIRO-274
p376
aVSHIRO-273
p377
aVSHIRO-272
p378
aVSHIRO-271
p379
aVSHIRO-270
p380
aVSHIRO-269
p381
aVSHIRO-268
p382
aVSHIRO-267
p383
aVSHIRO-266
p384
aVSHIRO-265
p385
aVSHIRO-264
p386
aVSHIRO-263
p387
aVSHIRO-262
p388
aVSHIRO-261
p389
aVSHIRO-260
p390
aVSHIRO-259
p391
aVSHIRO-258
p392
aVSHIRO-257
p393
aVSHIRO-256
p394
aVSHIRO-255
p395
aVSHIRO-254
p396
aVSHIRO-253
p397
aVSHIRO-252
p398
aVSHIRO-251
p399
aVSHIRO-250
p400
aVSHIRO-249
p401
aVSHIRO-248
p402
aVSHIRO-247
p403
aVSHIRO-246
p404
aVSHIRO-245
p405
aVSHIRO-244
p406
aVSHIRO-243
p407
aVSHIRO-242
p408
aVSHIRO-241
p409
aVSHIRO-240
p410
aVSHIRO-239
p411
aVSHIRO-238
p412
aVSHIRO-237
p413
aVSHIRO-236
p414
aVSHIRO-235
p415
aVSHIRO-234
p416
aVSHIRO-233
p417
aVSHIRO-232
p418
aVSHIRO-231
p419
aVSHIRO-230
p420
aVSHIRO-229
p421
aVSHIRO-228
p422
aVSHIRO-227
p423
aVSHIRO-226
p424
aVSHIRO-225
p425
aVSHIRO-224
p426
aVSHIRO-223
p427
aVSHIRO-222
p428
aVSHIRO-221
p429
aVSHIRO-220
p430
aVSHIRO-219
p431
aVSHIRO-218
p432
aVSHIRO-217
p433
aVSHIRO-216
p434
aVSHIRO-215
p435
aVSHIRO-214
p436
aVSHIRO-213
p437
aVSHIRO-212
p438
aVSHIRO-211
p439
aVSHIRO-210
p440
aVSHIRO-209
p441
aVSHIRO-208
p442
aVSHIRO-206
p443
aVSHIRO-205
p444
aVSHIRO-204
p445
aVSHIRO-203
p446
aVSHIRO-202
p447
aVSHIRO-201
p448
aVSHIRO-200
p449
aVSHIRO-199
p450
aVSHIRO-198
p451
aVSHIRO-197
p452
aVSHIRO-196
p453
aVSHIRO-195
p454
aVSHIRO-194
p455
aVSHIRO-193
p456
aVSHIRO-192
p457
aVSHIRO-191
p458
aVSHIRO-190
p459
aVSHIRO-189
p460
aVSHIRO-188
p461
aVSHIRO-187
p462
aVSHIRO-186
p463
aVSHIRO-185
p464
aVSHIRO-184
p465
aVSHIRO-183
p466
aVSHIRO-182
p467
aVSHIRO-181
p468
aVSHIRO-180
p469
aVSHIRO-179
p470
aVSHIRO-178
p471
aVSHIRO-177
p472
aVSHIRO-176
p473
aVSHIRO-175
p474
aVSHIRO-174
p475
aVSHIRO-173
p476
aVSHIRO-172
p477
aVSHIRO-171
p478
aVSHIRO-170
p479
aVSHIRO-169
p480
aVSHIRO-168
p481
aVSHIRO-167
p482
aVSHIRO-166
p483
aVSHIRO-165
p484
aVSHIRO-164
p485
aVSHIRO-163
p486
aVSHIRO-162
p487
aVSHIRO-161
p488
aVSHIRO-160
p489
aVSHIRO-159
p490
aVSHIRO-158
p491
aVSHIRO-157
p492
aVSHIRO-156
p493
aVSHIRO-155
p494
aVSHIRO-154
p495
aVSHIRO-153
p496
aVSHIRO-152
p497
aVSHIRO-151
p498
aVSHIRO-150
p499
aVSHIRO-149
p500
aVSHIRO-148
p501
aVSHIRO-147
p502
aVSHIRO-146
p503
aVSHIRO-145
p504
aVSHIRO-144
p505
aVSHIRO-143
p506
aVSHIRO-142
p507
aVSHIRO-141
p508
aVSHIRO-140
p509
aVSHIRO-139
p510
aVSHIRO-138
p511
aVSHIRO-137
p512
aVSHIRO-136
p513
aVSHIRO-135
p514
aVSHIRO-134
p515
aVSHIRO-133
p516
aVSHIRO-132
p517
aVSHIRO-131
p518
aVSHIRO-130
p519
aVSHIRO-129
p520
aVSHIRO-128
p521
aVSHIRO-127
p522
aVSHIRO-126
p523
aVSHIRO-125
p524
aVSHIRO-124
p525
aVSHIRO-123
p526
aVSHIRO-122
p527
aVSHIRO-121
p528
aVSHIRO-120
p529
aVSHIRO-119
p530
aVSHIRO-118
p531
aVSHIRO-117
p532
aVSHIRO-116
p533
aVSHIRO-115
p534
aVSHIRO-114
p535
aVSHIRO-113
p536
aVSHIRO-112
p537
aVSHIRO-111
p538
aVSHIRO-110
p539
aVSHIRO-109
p540
aVSHIRO-108
p541
aVSHIRO-107
p542
aVSHIRO-106
p543
aVSHIRO-105
p544
aVSHIRO-104
p545
aVSHIRO-103
p546
aVSHIRO-102
p547
aVSHIRO-101
p548
aVSHIRO-100
p549
aVSHIRO-99
p550
aVSHIRO-98
p551
aVSHIRO-97
p552
aVSHIRO-96
p553
aVSHIRO-95
p554
aVSHIRO-94
p555
aVSHIRO-93
p556
aVSHIRO-92
p557
aVSHIRO-91
p558
aVSHIRO-90
p559
aVSHIRO-89
p560
aVSHIRO-88
p561
aVSHIRO-87
p562
aVSHIRO-86
p563
aVSHIRO-85
p564
aVSHIRO-84
p565
aVSHIRO-83
p566
aVSHIRO-82
p567
aVSHIRO-81
p568
aVSHIRO-80
p569
aVSHIRO-79
p570
aVSHIRO-78
p571
aVSHIRO-77
p572
aVSHIRO-76
p573
aVSHIRO-75
p574
aVSHIRO-74
p575
aVSHIRO-73
p576
aVSHIRO-72
p577
aVSHIRO-71
p578
aVSHIRO-70
p579
aVSHIRO-69
p580
aVSHIRO-68
p581
aVSHIRO-67
p582
aVSHIRO-66
p583
aVSHIRO-65
p584
aVSHIRO-64
p585
aVSHIRO-63
p586
aVSHIRO-62
p587
aVSHIRO-61
p588
aVSHIRO-60
p589
aVSHIRO-59
p590
aVSHIRO-58
p591
aVSHIRO-57
p592
aVSHIRO-56
p593
aVSHIRO-55
p594
aVSHIRO-54
p595
aVSHIRO-53
p596
aVSHIRO-52
p597
aVSHIRO-51
p598
aVSHIRO-50
p599
aVSHIRO-49
p600
aVSHIRO-48
p601
aVSHIRO-47
p602
aVSHIRO-46
p603
aVSHIRO-45
p604
aVSHIRO-44
p605
aVSHIRO-43
p606
aVSHIRO-42
p607
aVSHIRO-41
p608
aVSHIRO-40
p609
aVSHIRO-39
p610
aVSHIRO-38
p611
aVSHIRO-37
p612
aVSHIRO-36
p613
aVSHIRO-35
p614
aVSHIRO-34
p615
aVSHIRO-33
p616
aVSHIRO-32
p617
aVSHIRO-31
p618
aVSHIRO-30
p619
aVSHIRO-29
p620
aVSHIRO-28
p621
aVSHIRO-27
p622
aVSHIRO-26
p623
aVSHIRO-25
p624
aVSHIRO-24
p625
aVSHIRO-23
p626
aVSHIRO-22
p627
aVSHIRO-21
p628
aVSHIRO-20
p629
aVSHIRO-19
p630
aVSHIRO-18
p631
aVSHIRO-17
p632
aVSHIRO-16
p633
aVSHIRO-15
p634
aVSHIRO-14
p635
aVSHIRO-13
p636
aVSHIRO-12
p637
aVSHIRO-11
p638
aVSHIRO-10
p639
aVSHIRO-9
p640
aVSHIRO-8
p641
aVSHIRO-7
p642
aVSHIRO-6
p643
aVSHIRO-5
p644
aVSHIRO-4
p645
aVSHIRO-3
p646
aVSHIRO-2
p647
aVSHIRO-1
p648
a.