(lp0
VSIS-429
p1
aVSIS-428
p2
aVSIS-427
p3
aVSIS-426
p4
aVSIS-425
p5
aVSIS-424
p6
aVSIS-423
p7
aVSIS-422
p8
aVSIS-421
p9
aVSIS-420
p10
aVSIS-419
p11
aVSIS-418
p12
aVSIS-417
p13
aVSIS-416
p14
aVSIS-415
p15
aVSIS-414
p16
aVSIS-413
p17
aVSIS-412
p18
aVSIS-411
p19
aVSIS-410
p20
aVSIS-409
p21
aVSIS-408
p22
aVSIS-407
p23
aVSIS-406
p24
aVSIS-405
p25
aVSIS-404
p26
aVSIS-403
p27
aVSIS-402
p28
aVSIS-401
p29
aVSIS-400
p30
aVSIS-399
p31
aVSIS-398
p32
aVSIS-397
p33
aVSIS-396
p34
aVSIS-395
p35
aVSIS-394
p36
aVSIS-393
p37
aVSIS-392
p38
aVSIS-391
p39
aVSIS-390
p40
aVSIS-389
p41
aVSIS-388
p42
aVSIS-387
p43
aVSIS-386
p44
aVSIS-385
p45
aVSIS-384
p46
aVSIS-383
p47
aVSIS-382
p48
aVSIS-381
p49
aVSIS-380
p50
aVSIS-379
p51
aVSIS-378
p52
aVSIS-377
p53
aVSIS-376
p54
aVSIS-375
p55
aVSIS-374
p56
aVSIS-373
p57
aVSIS-372
p58
aVSIS-371
p59
aVSIS-370
p60
aVSIS-369
p61
aVSIS-368
p62
aVSIS-367
p63
aVSIS-366
p64
aVSIS-365
p65
aVSIS-364
p66
aVSIS-363
p67
aVSIS-362
p68
aVSIS-361
p69
aVSIS-360
p70
aVSIS-359
p71
aVSIS-358
p72
aVSIS-357
p73
aVSIS-356
p74
aVSIS-355
p75
aVSIS-354
p76
aVSIS-353
p77
aVSIS-352
p78
aVSIS-351
p79
aVSIS-350
p80
aVSIS-349
p81
aVSIS-348
p82
aVSIS-347
p83
aVSIS-346
p84
aVSIS-345
p85
aVSIS-344
p86
aVSIS-343
p87
aVSIS-342
p88
aVSIS-341
p89
aVSIS-340
p90
aVSIS-339
p91
aVSIS-338
p92
aVSIS-337
p93
aVSIS-336
p94
aVSIS-335
p95
aVSIS-334
p96
aVSIS-333
p97
aVSIS-332
p98
aVSIS-331
p99
aVSIS-330
p100
aVSIS-329
p101
aVSIS-328
p102
aVSIS-327
p103
aVSIS-326
p104
aVSIS-325
p105
aVSIS-324
p106
aVSIS-323
p107
aVSIS-322
p108
aVSIS-321
p109
aVSIS-320
p110
aVSIS-319
p111
aVSIS-318
p112
aVSIS-317
p113
aVSIS-316
p114
aVSIS-315
p115
aVSIS-314
p116
aVSIS-313
p117
aVSIS-312
p118
aVSIS-311
p119
aVSIS-310
p120
aVSIS-309
p121
aVSIS-308
p122
aVSIS-307
p123
aVSIS-306
p124
aVSIS-305
p125
aVSIS-304
p126
aVSIS-303
p127
aVSIS-302
p128
aVSIS-301
p129
aVSIS-300
p130
aVSIS-299
p131
aVSIS-298
p132
aVSIS-297
p133
aVSIS-296
p134
aVSIS-295
p135
aVSIS-294
p136
aVSIS-293
p137
aVSIS-292
p138
aVSIS-291
p139
aVSIS-290
p140
aVSIS-289
p141
aVSIS-288
p142
aVSIS-287
p143
aVSIS-286
p144
aVSIS-285
p145
aVSIS-284
p146
aVSIS-283
p147
aVSIS-282
p148
aVSIS-281
p149
aVSIS-280
p150
aVSIS-279
p151
aVSIS-278
p152
aVSIS-277
p153
aVSIS-276
p154
aVSIS-275
p155
aVSIS-274
p156
aVSIS-273
p157
aVSIS-272
p158
aVSIS-271
p159
aVSIS-270
p160
aVSIS-269
p161
aVSIS-268
p162
aVSIS-267
p163
aVSIS-266
p164
aVSIS-265
p165
aVSIS-264
p166
aVSIS-263
p167
aVSIS-262
p168
aVSIS-261
p169
aVSIS-260
p170
aVSIS-259
p171
aVSIS-258
p172
aVSIS-257
p173
aVSIS-256
p174
aVSIS-255
p175
aVSIS-254
p176
aVSIS-253
p177
aVSIS-252
p178
aVSIS-251
p179
aVSIS-250
p180
aVSIS-249
p181
aVSIS-248
p182
aVSIS-247
p183
aVSIS-246
p184
aVSIS-245
p185
aVSIS-244
p186
aVSIS-243
p187
aVSIS-242
p188
aVSIS-241
p189
aVSIS-240
p190
aVSIS-239
p191
aVSIS-238
p192
aVSIS-237
p193
aVSIS-236
p194
aVSIS-235
p195
aVSIS-234
p196
aVSIS-233
p197
aVSIS-232
p198
aVSIS-231
p199
aVSIS-230
p200
aVSIS-229
p201
aVSIS-228
p202
aVSIS-227
p203
aVSIS-226
p204
aVSIS-225
p205
aVSIS-224
p206
aVSIS-223
p207
aVSIS-222
p208
aVSIS-221
p209
aVSIS-220
p210
aVSIS-219
p211
aVSIS-218
p212
aVSIS-217
p213
aVSIS-216
p214
aVSIS-215
p215
aVSIS-214
p216
aVSIS-213
p217
aVSIS-212
p218
aVSIS-211
p219
aVSIS-210
p220
aVSIS-209
p221
aVSIS-208
p222
aVSIS-207
p223
aVSIS-206
p224
aVSIS-205
p225
aVSIS-204
p226
aVSIS-203
p227
aVSIS-202
p228
aVSIS-201
p229
aVSIS-200
p230
aVSIS-199
p231
aVSIS-198
p232
aVSIS-197
p233
aVSIS-196
p234
aVSIS-195
p235
aVSIS-194
p236
aVSIS-193
p237
aVSIS-192
p238
aVSIS-191
p239
aVSIS-190
p240
aVSIS-189
p241
aVSIS-188
p242
aVSIS-187
p243
aVSIS-186
p244
aVSIS-185
p245
aVSIS-184
p246
aVSIS-183
p247
aVSIS-182
p248
aVSIS-181
p249
aVSIS-180
p250
aVSIS-179
p251
aVSIS-178
p252
aVSIS-177
p253
aVSIS-176
p254
aVSIS-175
p255
aVSIS-174
p256
aVSIS-173
p257
aVSIS-172
p258
aVSIS-171
p259
aVSIS-170
p260
aVSIS-169
p261
aVSIS-168
p262
aVSIS-167
p263
aVSIS-166
p264
aVSIS-165
p265
aVSIS-164
p266
aVSIS-163
p267
aVSIS-162
p268
aVSIS-161
p269
aVSIS-160
p270
aVSIS-159
p271
aVSIS-158
p272
aVSIS-157
p273
aVSIS-156
p274
aVSIS-155
p275
aVSIS-154
p276
aVSIS-153
p277
aVSIS-152
p278
aVSIS-151
p279
aVSIS-150
p280
aVSIS-149
p281
aVSIS-148
p282
aVSIS-147
p283
aVSIS-146
p284
aVSIS-145
p285
aVSIS-144
p286
aVSIS-143
p287
aVSIS-142
p288
aVSIS-141
p289
aVSIS-140
p290
aVSIS-139
p291
aVSIS-138
p292
aVSIS-137
p293
aVSIS-136
p294
aVSIS-135
p295
aVSIS-134
p296
aVSIS-133
p297
aVSIS-132
p298
aVSIS-131
p299
aVSIS-130
p300
aVSIS-129
p301
aVSIS-128
p302
aVSIS-127
p303
aVSIS-126
p304
aVSIS-125
p305
aVSIS-124
p306
aVSIS-123
p307
aVSIS-122
p308
aVSIS-121
p309
aVSIS-120
p310
aVSIS-119
p311
aVSIS-118
p312
aVSIS-117
p313
aVSIS-116
p314
aVSIS-115
p315
aVSIS-114
p316
aVSIS-113
p317
aVSIS-112
p318
aVSIS-111
p319
aVSIS-110
p320
aVSIS-109
p321
aVSIS-108
p322
aVSIS-107
p323
aVSIS-106
p324
aVSIS-105
p325
aVSIS-104
p326
aVSIS-103
p327
aVSIS-102
p328
aVSIS-101
p329
aVSIS-100
p330
aVSIS-99
p331
aVSIS-98
p332
aVSIS-97
p333
aVSIS-96
p334
aVSIS-95
p335
aVSIS-94
p336
aVSIS-93
p337
aVSIS-92
p338
aVSIS-91
p339
aVSIS-90
p340
aVSIS-89
p341
aVSIS-88
p342
aVSIS-87
p343
aVSIS-86
p344
aVSIS-85
p345
aVSIS-84
p346
aVSIS-83
p347
aVSIS-82
p348
aVSIS-81
p349
aVSIS-80
p350
aVSIS-79
p351
aVSIS-78
p352
aVSIS-77
p353
aVSIS-76
p354
aVSIS-75
p355
aVSIS-74
p356
aVSIS-73
p357
aVSIS-72
p358
aVSIS-71
p359
aVSIS-70
p360
aVSIS-69
p361
aVSIS-68
p362
aVSIS-67
p363
aVSIS-66
p364
aVSIS-65
p365
aVSIS-64
p366
aVSIS-63
p367
aVSIS-62
p368
aVSIS-61
p369
aVSIS-60
p370
aVSIS-59
p371
aVSIS-58
p372
aVSIS-57
p373
aVSIS-56
p374
aVSIS-55
p375
aVSIS-54
p376
aVSIS-53
p377
aVSIS-52
p378
aVSIS-51
p379
aVSIS-50
p380
aVSIS-49
p381
aVSIS-48
p382
aVSIS-47
p383
aVSIS-46
p384
aVSIS-45
p385
aVSIS-44
p386
aVSIS-43
p387
aVSIS-42
p388
aVSIS-41
p389
aVSIS-40
p390
aVSIS-39
p391
aVSIS-38
p392
aVSIS-37
p393
aVSIS-36
p394
aVSIS-35
p395
aVSIS-34
p396
aVSIS-33
p397
aVSIS-32
p398
aVSIS-31
p399
aVSIS-30
p400
aVSIS-29
p401
aVSIS-28
p402
aVSIS-27
p403
aVSIS-26
p404
aVSIS-25
p405
aVSIS-24
p406
aVSIS-23
p407
aVSIS-22
p408
aVSIS-21
p409
aVSIS-20
p410
aVSIS-19
p411
aVSIS-18
p412
aVSIS-17
p413
aVSIS-16
p414
aVSIS-15
p415
aVSIS-14
p416
aVSIS-13
p417
aVSIS-12
p418
aVSIS-11
p419
aVSIS-10
p420
aVSIS-9
p421
aVSIS-8
p422
aVSIS-7
p423
aVSIS-6
p424
aVSIS-5
p425
aVSIS-4
p426
aVSIS-3
p427
aVSIS-2
p428
aVSIS-1
p429
a.