(lp0
VSM-3774
p1
aVSM-3773
p2
aVSM-3772
p3
aVSM-3771
p4
aVSM-3770
p5
aVSM-3769
p6
aVSM-3768
p7
aVSM-3767
p8
aVSM-3766
p9
aVSM-3765
p10
aVSM-3764
p11
aVSM-3763
p12
aVSM-3762
p13
aVSM-3761
p14
aVSM-3760
p15
aVSM-3759
p16
aVSM-3758
p17
aVSM-3757
p18
aVSM-3756
p19
aVSM-3755
p20
aVSM-3754
p21
aVSM-3753
p22
aVSM-3752
p23
aVSM-3751
p24
aVSM-3750
p25
aVSM-3749
p26
aVSM-3748
p27
aVSM-3747
p28
aVSM-3746
p29
aVSM-3745
p30
aVSM-3744
p31
aVSM-3743
p32
aVSM-3742
p33
aVSM-3741
p34
aVSM-3740
p35
aVSM-3739
p36
aVSM-3738
p37
aVSM-3737
p38
aVSM-3736
p39
aVSM-3735
p40
aVSM-3734
p41
aVSM-3733
p42
aVSM-3732
p43
aVSM-3731
p44
aVSM-3730
p45
aVSM-3729
p46
aVSM-3728
p47
aVSM-3727
p48
aVSM-3726
p49
aVSM-3725
p50
aVSM-3724
p51
aVSM-3723
p52
aVSM-3722
p53
aVSM-3721
p54
aVSM-3720
p55
aVSM-3719
p56
aVSM-3718
p57
aVSM-3717
p58
aVSM-3716
p59
aVSM-3715
p60
aVSM-3714
p61
aVSM-3713
p62
aVSM-3712
p63
aVSM-3711
p64
aVSM-3710
p65
aVSM-3709
p66
aVSM-3708
p67
aVSM-3707
p68
aVSM-3706
p69
aVSM-3705
p70
aVSM-3704
p71
aVSM-3703
p72
aVSM-3702
p73
aVSM-3701
p74
aVSM-3700
p75
aVSM-3699
p76
aVSM-3698
p77
aVSM-3697
p78
aVSM-3695
p79
aVSM-3694
p80
aVSM-3693
p81
aVSM-3692
p82
aVSM-3691
p83
aVSM-3690
p84
aVSM-3689
p85
aVSM-3688
p86
aVSM-3687
p87
aVSM-3686
p88
aVSM-3685
p89
aVSM-3684
p90
aVSM-3683
p91
aVSM-3682
p92
aVSM-3680
p93
aVSM-3679
p94
aVSM-3678
p95
aVSM-3677
p96
aVSM-3676
p97
aVSM-3675
p98
aVSM-3674
p99
aVSM-3673
p100
aVSM-3672
p101
aVSM-3671
p102
aVSM-3670
p103
aVSM-3669
p104
aVSM-3668
p105
aVSM-3667
p106
aVSM-3666
p107
aVSM-3665
p108
aVSM-3663
p109
aVSM-3662
p110
aVSM-3661
p111
aVSM-3660
p112
aVSM-3659
p113
aVSM-3658
p114
aVSM-3657
p115
aVSM-3656
p116
aVSM-3655
p117
aVSM-3654
p118
aVSM-3653
p119
aVSM-3652
p120
aVSM-3651
p121
aVSM-3650
p122
aVSM-3649
p123
aVSM-3646
p124
aVSM-3645
p125
aVSM-3644
p126
aVSM-3643
p127
aVSM-3642
p128
aVSM-3641
p129
aVSM-3640
p130
aVSM-3639
p131
aVSM-3638
p132
aVSM-3637
p133
aVSM-3636
p134
aVSM-3635
p135
aVSM-3634
p136
aVSM-3633
p137
aVSM-3632
p138
aVSM-3631
p139
aVSM-3630
p140
aVSM-3629
p141
aVSM-3628
p142
aVSM-3627
p143
aVSM-3626
p144
aVSM-3625
p145
aVSM-3624
p146
aVSM-3623
p147
aVSM-3622
p148
aVSM-3621
p149
aVSM-3620
p150
aVSM-3619
p151
aVSM-3618
p152
aVSM-3616
p153
aVSM-3615
p154
aVSM-3614
p155
aVSM-3613
p156
aVSM-3612
p157
aVSM-3611
p158
aVSM-3609
p159
aVSM-3608
p160
aVSM-3607
p161
aVSM-3606
p162
aVSM-3605
p163
aVSM-3603
p164
aVSM-3602
p165
aVSM-3601
p166
aVSM-3600
p167
aVSM-3599
p168
aVSM-3598
p169
aVSM-3597
p170
aVSM-3596
p171
aVSM-3595
p172
aVSM-3594
p173
aVSM-3593
p174
aVSM-3592
p175
aVSM-3590
p176
aVSM-3589
p177
aVSM-3587
p178
aVSM-3586
p179
aVSM-3585
p180
aVSM-3583
p181
aVSM-3581
p182
aVSM-3580
p183
aVSM-3579
p184
aVSM-3578
p185
aVSM-3577
p186
aVSM-3576
p187
aVSM-3575
p188
aVSM-3574
p189
aVSM-3573
p190
aVSM-3572
p191
aVSM-3571
p192
aVSM-3569
p193
aVSM-3568
p194
aVSM-3567
p195
aVSM-3566
p196
aVSM-3565
p197
aVSM-3564
p198
aVSM-3563
p199
aVSM-3562
p200
aVSM-3560
p201
aVSM-3559
p202
aVSM-3558
p203
aVSM-3557
p204
aVSM-3554
p205
aVSM-3552
p206
aVSM-3551
p207
aVSM-3550
p208
aVSM-3549
p209
aVSM-3548
p210
aVSM-3547
p211
aVSM-3546
p212
aVSM-3545
p213
aVSM-3544
p214
aVSM-3543
p215
aVSM-3542
p216
aVSM-3541
p217
aVSM-3540
p218
aVSM-3539
p219
aVSM-3538
p220
aVSM-3537
p221
aVSM-3536
p222
aVSM-3535
p223
aVSM-3534
p224
aVSM-3533
p225
aVSM-3532
p226
aVSM-3531
p227
aVSM-3530
p228
aVSM-3529
p229
aVSM-3528
p230
aVSM-3527
p231
aVSM-3526
p232
aVSM-3525
p233
aVSM-3523
p234
aVSM-3522
p235
aVSM-3521
p236
aVSM-3519
p237
aVSM-3518
p238
aVSM-3516
p239
aVSM-3514
p240
aVSM-3513
p241
aVSM-3512
p242
aVSM-3511
p243
aVSM-3510
p244
aVSM-3509
p245
aVSM-3508
p246
aVSM-3507
p247
aVSM-3506
p248
aVSM-3505
p249
aVSM-3504
p250
aVSM-3503
p251
aVSM-3502
p252
aVSM-3501
p253
aVSM-3500
p254
aVSM-3499
p255
aVSM-3497
p256
aVSM-3495
p257
aVSM-3492
p258
aVSM-3491
p259
aVSM-3490
p260
aVSM-3489
p261
aVSM-3486
p262
aVSM-3485
p263
aVSM-3483
p264
aVSM-3482
p265
aVSM-3480
p266
aVSM-3479
p267
aVSM-3478
p268
aVSM-3477
p269
aVSM-3476
p270
aVSM-3475
p271
aVSM-3474
p272
aVSM-3472
p273
aVSM-3470
p274
aVSM-3469
p275
aVSM-3468
p276
aVSM-3467
p277
aVSM-3466
p278
aVSM-3465
p279
aVSM-3464
p280
aVSM-3463
p281
aVSM-3462
p282
aVSM-3461
p283
aVSM-3460
p284
aVSM-3459
p285
aVSM-3458
p286
aVSM-3457
p287
aVSM-3456
p288
aVSM-3455
p289
aVSM-3454
p290
aVSM-3453
p291
aVSM-3452
p292
aVSM-3451
p293
aVSM-3450
p294
aVSM-3449
p295
aVSM-3448
p296
aVSM-3447
p297
aVSM-3446
p298
aVSM-3445
p299
aVSM-3443
p300
aVSM-3441
p301
aVSM-3440
p302
aVSM-3439
p303
aVSM-3438
p304
aVSM-3437
p305
aVSM-3436
p306
aVSM-3435
p307
aVSM-3434
p308
aVSM-3433
p309
aVSM-3432
p310
aVSM-3431
p311
aVSM-3430
p312
aVSM-3429
p313
aVSM-3428
p314
aVSM-3427
p315
aVSM-3426
p316
aVSM-3424
p317
aVSM-3423
p318
aVSM-3422
p319
aVSM-3420
p320
aVSM-3419
p321
aVSM-3418
p322
aVSM-3417
p323
aVSM-3416
p324
aVSM-3415
p325
aVSM-3414
p326
aVSM-3413
p327
aVSM-3412
p328
aVSM-3411
p329
aVSM-3410
p330
aVSM-3409
p331
aVSM-3408
p332
aVSM-3407
p333
aVSM-3406
p334
aVSM-3405
p335
aVSM-3404
p336
aVSM-3403
p337
aVSM-3402
p338
aVSM-3401
p339
aVSM-3400
p340
aVSM-3399
p341
aVSM-3398
p342
aVSM-3397
p343
aVSM-3396
p344
aVSM-3395
p345
aVSM-3394
p346
aVSM-3393
p347
aVSM-3392
p348
aVSM-3391
p349
aVSM-3390
p350
aVSM-3389
p351
aVSM-3388
p352
aVSM-3387
p353
aVSM-3386
p354
aVSM-3385
p355
aVSM-3384
p356
aVSM-3383
p357
aVSM-3382
p358
aVSM-3381
p359
aVSM-3380
p360
aVSM-3379
p361
aVSM-3378
p362
aVSM-3377
p363
aVSM-3376
p364
aVSM-3375
p365
aVSM-3374
p366
aVSM-3373
p367
aVSM-3372
p368
aVSM-3371
p369
aVSM-3370
p370
aVSM-3369
p371
aVSM-3367
p372
aVSM-3366
p373
aVSM-3365
p374
aVSM-3364
p375
aVSM-3363
p376
aVSM-3362
p377
aVSM-3361
p378
aVSM-3360
p379
aVSM-3359
p380
aVSM-3358
p381
aVSM-3357
p382
aVSM-3356
p383
aVSM-3355
p384
aVSM-3354
p385
aVSM-3353
p386
aVSM-3352
p387
aVSM-3351
p388
aVSM-3350
p389
aVSM-3349
p390
aVSM-3348
p391
aVSM-3347
p392
aVSM-3346
p393
aVSM-3345
p394
aVSM-3344
p395
aVSM-3343
p396
aVSM-3342
p397
aVSM-3341
p398
aVSM-3340
p399
aVSM-3339
p400
aVSM-3338
p401
aVSM-3337
p402
aVSM-3336
p403
aVSM-3335
p404
aVSM-3334
p405
aVSM-3333
p406
aVSM-3332
p407
aVSM-3331
p408
aVSM-3330
p409
aVSM-3329
p410
aVSM-3328
p411
aVSM-3327
p412
aVSM-3326
p413
aVSM-3325
p414
aVSM-3324
p415
aVSM-3323
p416
aVSM-3322
p417
aVSM-3321
p418
aVSM-3320
p419
aVSM-3319
p420
aVSM-3318
p421
aVSM-3316
p422
aVSM-3315
p423
aVSM-3314
p424
aVSM-3312
p425
aVSM-3311
p426
aVSM-3310
p427
aVSM-3309
p428
aVSM-3308
p429
aVSM-3307
p430
aVSM-3306
p431
aVSM-3305
p432
aVSM-3304
p433
aVSM-3303
p434
aVSM-3302
p435
aVSM-3301
p436
aVSM-3300
p437
aVSM-3299
p438
aVSM-3298
p439
aVSM-3297
p440
aVSM-3296
p441
aVSM-3295
p442
aVSM-3294
p443
aVSM-3293
p444
aVSM-3291
p445
aVSM-3290
p446
aVSM-3289
p447
aVSM-3288
p448
aVSM-3287
p449
aVSM-3286
p450
aVSM-3285
p451
aVSM-3284
p452
aVSM-3283
p453
aVSM-3282
p454
aVSM-3281
p455
aVSM-3280
p456
aVSM-3279
p457
aVSM-3278
p458
aVSM-3277
p459
aVSM-3276
p460
aVSM-3275
p461
aVSM-3274
p462
aVSM-3273
p463
aVSM-3272
p464
aVSM-3271
p465
aVSM-3270
p466
aVSM-3269
p467
aVSM-3268
p468
aVSM-3267
p469
aVSM-3266
p470
aVSM-3265
p471
aVSM-3264
p472
aVSM-3263
p473
aVSM-3262
p474
aVSM-3261
p475
aVSM-3260
p476
aVSM-3259
p477
aVSM-3258
p478
aVSM-3257
p479
aVSM-3256
p480
aVSM-3255
p481
aVSM-3254
p482
aVSM-3253
p483
aVSM-3252
p484
aVSM-3251
p485
aVSM-3250
p486
aVSM-3249
p487
aVSM-3248
p488
aVSM-3247
p489
aVSM-3246
p490
aVSM-3245
p491
aVSM-3244
p492
aVSM-3243
p493
aVSM-3242
p494
aVSM-3241
p495
aVSM-3240
p496
aVSM-3239
p497
aVSM-3238
p498
aVSM-3237
p499
aVSM-3236
p500
aVSM-3235
p501
aVSM-3234
p502
aVSM-3233
p503
aVSM-3232
p504
aVSM-3231
p505
aVSM-3230
p506
aVSM-3229
p507
aVSM-3228
p508
aVSM-3227
p509
aVSM-3226
p510
aVSM-3225
p511
aVSM-3224
p512
aVSM-3223
p513
aVSM-3222
p514
aVSM-3221
p515
aVSM-3220
p516
aVSM-3219
p517
aVSM-3218
p518
aVSM-3217
p519
aVSM-3215
p520
aVSM-3214
p521
aVSM-3213
p522
aVSM-3212
p523
aVSM-3211
p524
aVSM-3210
p525
aVSM-3209
p526
aVSM-3208
p527
aVSM-3207
p528
aVSM-3206
p529
aVSM-3205
p530
aVSM-3204
p531
aVSM-3203
p532
aVSM-3202
p533
aVSM-3201
p534
aVSM-3200
p535
aVSM-3199
p536
aVSM-3198
p537
aVSM-3197
p538
aVSM-3196
p539
aVSM-3195
p540
aVSM-3194
p541
aVSM-3193
p542
aVSM-3192
p543
aVSM-3191
p544
aVSM-3190
p545
aVSM-3189
p546
aVSM-3188
p547
aVSM-3187
p548
aVSM-3186
p549
aVSM-3185
p550
aVSM-3184
p551
aVSM-3183
p552
aVSM-3182
p553
aVSM-3181
p554
aVSM-3180
p555
aVSM-3179
p556
aVSM-3178
p557
aVSM-3177
p558
aVSM-3176
p559
aVSM-3175
p560
aVSM-3174
p561
aVSM-3173
p562
aVSM-3172
p563
aVSM-3171
p564
aVSM-3170
p565
aVSM-3169
p566
aVSM-3168
p567
aVSM-3167
p568
aVSM-3166
p569
aVSM-3164
p570
aVSM-3163
p571
aVSM-3162
p572
aVSM-3161
p573
aVSM-3160
p574
aVSM-3159
p575
aVSM-3158
p576
aVSM-3157
p577
aVSM-3156
p578
aVSM-3155
p579
aVSM-3154
p580
aVSM-3153
p581
aVSM-3152
p582
aVSM-3151
p583
aVSM-3150
p584
aVSM-3149
p585
aVSM-3148
p586
aVSM-3147
p587
aVSM-3146
p588
aVSM-3145
p589
aVSM-3144
p590
aVSM-3142
p591
aVSM-3141
p592
aVSM-3140
p593
aVSM-3139
p594
aVSM-3138
p595
aVSM-3137
p596
aVSM-3136
p597
aVSM-3134
p598
aVSM-3132
p599
aVSM-3131
p600
aVSM-3130
p601
aVSM-3129
p602
aVSM-3128
p603
aVSM-3127
p604
aVSM-3126
p605
aVSM-3125
p606
aVSM-3124
p607
aVSM-3123
p608
aVSM-3122
p609
aVSM-3121
p610
aVSM-3120
p611
aVSM-3119
p612
aVSM-3118
p613
aVSM-3117
p614
aVSM-3116
p615
aVSM-3115
p616
aVSM-3114
p617
aVSM-3113
p618
aVSM-3111
p619
aVSM-3110
p620
aVSM-3109
p621
aVSM-3108
p622
aVSM-3107
p623
aVSM-3106
p624
aVSM-3105
p625
aVSM-3104
p626
aVSM-3103
p627
aVSM-3102
p628
aVSM-3101
p629
aVSM-3100
p630
aVSM-3098
p631
aVSM-3097
p632
aVSM-3096
p633
aVSM-3095
p634
aVSM-3094
p635
aVSM-3093
p636
aVSM-3092
p637
aVSM-3091
p638
aVSM-3090
p639
aVSM-3089
p640
aVSM-3088
p641
aVSM-3087
p642
aVSM-3086
p643
aVSM-3085
p644
aVSM-3084
p645
aVSM-3083
p646
aVSM-3082
p647
aVSM-3081
p648
aVSM-3080
p649
aVSM-3079
p650
aVSM-3078
p651
aVSM-3077
p652
aVSM-3076
p653
aVSM-3075
p654
aVSM-3074
p655
aVSM-3073
p656
aVSM-3072
p657
aVSM-3071
p658
aVSM-3070
p659
aVSM-3069
p660
aVSM-3068
p661
aVSM-3067
p662
aVSM-3066
p663
aVSM-3065
p664
aVSM-3064
p665
aVSM-3063
p666
aVSM-3062
p667
aVSM-3061
p668
aVSM-3060
p669
aVSM-3058
p670
aVSM-3057
p671
aVSM-3056
p672
aVSM-3055
p673
aVSM-3054
p674
aVSM-3053
p675
aVSM-3052
p676
aVSM-3051
p677
aVSM-3050
p678
aVSM-3049
p679
aVSM-3048
p680
aVSM-3047
p681
aVSM-3046
p682
aVSM-3045
p683
aVSM-3044
p684
aVSM-3043
p685
aVSM-3042
p686
aVSM-3041
p687
aVSM-3040
p688
aVSM-3039
p689
aVSM-3038
p690
aVSM-3037
p691
aVSM-3036
p692
aVSM-3035
p693
aVSM-3034
p694
aVSM-3033
p695
aVSM-3032
p696
aVSM-3031
p697
aVSM-3030
p698
aVSM-3029
p699
aVSM-3028
p700
aVSM-3027
p701
aVSM-3026
p702
aVSM-3025
p703
aVSM-3024
p704
aVSM-3023
p705
aVSM-3022
p706
aVSM-3021
p707
aVSM-3020
p708
aVSM-3019
p709
aVSM-3018
p710
aVSM-3015
p711
aVSM-3014
p712
aVSM-3013
p713
aVSM-3011
p714
aVSM-3010
p715
aVSM-3009
p716
aVSM-3008
p717
aVSM-3007
p718
aVSM-3006
p719
aVSM-3005
p720
aVSM-3004
p721
aVSM-3003
p722
aVSM-3002
p723
aVSM-3001
p724
aVSM-3000
p725
aVSM-2999
p726
aVSM-2998
p727
aVSM-2997
p728
aVSM-2996
p729
aVSM-2995
p730
aVSM-2994
p731
aVSM-2993
p732
aVSM-2992
p733
aVSM-2991
p734
aVSM-2990
p735
aVSM-2989
p736
aVSM-2988
p737
aVSM-2987
p738
aVSM-2986
p739
aVSM-2985
p740
aVSM-2984
p741
aVSM-2983
p742
aVSM-2982
p743
aVSM-2981
p744
aVSM-2980
p745
aVSM-2979
p746
aVSM-2978
p747
aVSM-2977
p748
aVSM-2976
p749
aVSM-2975
p750
aVSM-2974
p751
aVSM-2973
p752
aVSM-2972
p753
aVSM-2970
p754
aVSM-2969
p755
aVSM-2968
p756
aVSM-2967
p757
aVSM-2966
p758
aVSM-2964
p759
aVSM-2963
p760
aVSM-2962
p761
aVSM-2961
p762
aVSM-2960
p763
aVSM-2959
p764
aVSM-2958
p765
aVSM-2957
p766
aVSM-2956
p767
aVSM-2955
p768
aVSM-2954
p769
aVSM-2953
p770
aVSM-2952
p771
aVSM-2951
p772
aVSM-2950
p773
aVSM-2949
p774
aVSM-2948
p775
aVSM-2947
p776
aVSM-2946
p777
aVSM-2945
p778
aVSM-2944
p779
aVSM-2943
p780
aVSM-2942
p781
aVSM-2941
p782
aVSM-2940
p783
aVSM-2939
p784
aVSM-2938
p785
aVSM-2937
p786
aVSM-2936
p787
aVSM-2935
p788
aVSM-2934
p789
aVSM-2933
p790
aVSM-2932
p791
aVSM-2931
p792
aVSM-2930
p793
aVSM-2929
p794
aVSM-2928
p795
aVSM-2927
p796
aVSM-2926
p797
aVSM-2925
p798
aVSM-2924
p799
aVSM-2923
p800
aVSM-2922
p801
aVSM-2921
p802
aVSM-2920
p803
aVSM-2919
p804
aVSM-2918
p805
aVSM-2917
p806
aVSM-2916
p807
aVSM-2915
p808
aVSM-2914
p809
aVSM-2913
p810
aVSM-2912
p811
aVSM-2911
p812
aVSM-2910
p813
aVSM-2909
p814
aVSM-2908
p815
aVSM-2907
p816
aVSM-2906
p817
aVSM-2905
p818
aVSM-2904
p819
aVSM-2903
p820
aVSM-2902
p821
aVSM-2901
p822
aVSM-2900
p823
aVSM-2899
p824
aVSM-2898
p825
aVSM-2897
p826
aVSM-2896
p827
aVSM-2895
p828
aVSM-2894
p829
aVSM-2893
p830
aVSM-2892
p831
aVSM-2891
p832
aVSM-2890
p833
aVSM-2889
p834
aVSM-2888
p835
aVSM-2887
p836
aVSM-2886
p837
aVSM-2885
p838
aVSM-2884
p839
aVSM-2883
p840
aVSM-2882
p841
aVSM-2881
p842
aVSM-2880
p843
aVSM-2879
p844
aVSM-2878
p845
aVSM-2877
p846
aVSM-2876
p847
aVSM-2875
p848
aVSM-2874
p849
aVSM-2873
p850
aVSM-2872
p851
aVSM-2871
p852
aVSM-2870
p853
aVSM-2869
p854
aVSM-2868
p855
aVSM-2867
p856
aVSM-2866
p857
aVSM-2865
p858
aVSM-2864
p859
aVSM-2863
p860
aVSM-2862
p861
aVSM-2861
p862
aVSM-2860
p863
aVSM-2859
p864
aVSM-2858
p865
aVSM-2857
p866
aVSM-2856
p867
aVSM-2855
p868
aVSM-2854
p869
aVSM-2853
p870
aVSM-2852
p871
aVSM-2851
p872
aVSM-2850
p873
aVSM-2849
p874
aVSM-2848
p875
aVSM-2847
p876
aVSM-2846
p877
aVSM-2845
p878
aVSM-2844
p879
aVSM-2843
p880
aVSM-2842
p881
aVSM-2841
p882
aVSM-2840
p883
aVSM-2839
p884
aVSM-2838
p885
aVSM-2837
p886
aVSM-2836
p887
aVSM-2835
p888
aVSM-2834
p889
aVSM-2833
p890
aVSM-2832
p891
aVSM-2831
p892
aVSM-2830
p893
aVSM-2829
p894
aVSM-2828
p895
aVSM-2827
p896
aVSM-2826
p897
aVSM-2825
p898
aVSM-2824
p899
aVSM-2823
p900
aVSM-2822
p901
aVSM-2821
p902
aVSM-2820
p903
aVSM-2819
p904
aVSM-2818
p905
aVSM-2817
p906
aVSM-2816
p907
aVSM-2815
p908
aVSM-2814
p909
aVSM-2813
p910
aVSM-2812
p911
aVSM-2811
p912
aVSM-2810
p913
aVSM-2809
p914
aVSM-2808
p915
aVSM-2807
p916
aVSM-2806
p917
aVSM-2805
p918
aVSM-2804
p919
aVSM-2803
p920
aVSM-2802
p921
aVSM-2800
p922
aVSM-2799
p923
aVSM-2798
p924
aVSM-2797
p925
aVSM-2796
p926
aVSM-2795
p927
aVSM-2794
p928
aVSM-2793
p929
aVSM-2791
p930
aVSM-2789
p931
aVSM-2788
p932
aVSM-2787
p933
aVSM-2786
p934
aVSM-2785
p935
aVSM-2784
p936
aVSM-2783
p937
aVSM-2782
p938
aVSM-2781
p939
aVSM-2780
p940
aVSM-2779
p941
aVSM-2778
p942
aVSM-2777
p943
aVSM-2776
p944
aVSM-2775
p945
aVSM-2774
p946
aVSM-2773
p947
aVSM-2772
p948
aVSM-2771
p949
aVSM-2770
p950
aVSM-2769
p951
aVSM-2768
p952
aVSM-2767
p953
aVSM-2766
p954
aVSM-2765
p955
aVSM-2764
p956
aVSM-2763
p957
aVSM-2762
p958
aVSM-2761
p959
aVSM-2760
p960
aVSM-2759
p961
aVSM-2758
p962
aVSM-2757
p963
aVSM-2756
p964
aVSM-2755
p965
aVSM-2754
p966
aVSM-2753
p967
aVSM-2752
p968
aVSM-2751
p969
aVSM-2750
p970
aVSM-2749
p971
aVSM-2748
p972
aVSM-2747
p973
aVSM-2746
p974
aVSM-2745
p975
aVSM-2744
p976
aVSM-2743
p977
aVSM-2742
p978
aVSM-2741
p979
aVSM-2740
p980
aVSM-2739
p981
aVSM-2738
p982
aVSM-2737
p983
aVSM-2736
p984
aVSM-2735
p985
aVSM-2734
p986
aVSM-2733
p987
aVSM-2732
p988
aVSM-2731
p989
aVSM-2730
p990
aVSM-2729
p991
aVSM-2728
p992
aVSM-2727
p993
aVSM-2726
p994
aVSM-2725
p995
aVSM-2724
p996
aVSM-2723
p997
aVSM-2722
p998
aVSM-2721
p999
aVSM-2720
p1000
aVSM-2719
p1001
aVSM-2718
p1002
aVSM-2717
p1003
aVSM-2716
p1004
aVSM-2715
p1005
aVSM-2714
p1006
aVSM-2713
p1007
aVSM-2712
p1008
aVSM-2711
p1009
aVSM-2709
p1010
aVSM-2708
p1011
aVSM-2707
p1012
aVSM-2706
p1013
aVSM-2705
p1014
aVSM-2704
p1015
aVSM-2703
p1016
aVSM-2702
p1017
aVSM-2701
p1018
aVSM-2700
p1019
aVSM-2699
p1020
aVSM-2698
p1021
aVSM-2697
p1022
aVSM-2696
p1023
aVSM-2695
p1024
aVSM-2694
p1025
aVSM-2693
p1026
aVSM-2692
p1027
aVSM-2691
p1028
aVSM-2690
p1029
aVSM-2689
p1030
aVSM-2688
p1031
aVSM-2687
p1032
aVSM-2686
p1033
aVSM-2685
p1034
aVSM-2684
p1035
aVSM-2683
p1036
aVSM-2682
p1037
aVSM-2681
p1038
aVSM-2680
p1039
aVSM-2679
p1040
aVSM-2678
p1041
aVSM-2677
p1042
aVSM-2676
p1043
aVSM-2675
p1044
aVSM-2674
p1045
aVSM-2673
p1046
aVSM-2672
p1047
aVSM-2671
p1048
aVSM-2670
p1049
aVSM-2669
p1050
aVSM-2668
p1051
aVSM-2667
p1052
aVSM-2666
p1053
aVSM-2665
p1054
aVSM-2663
p1055
aVSM-2662
p1056
aVSM-2661
p1057
aVSM-2660
p1058
aVSM-2659
p1059
aVSM-2658
p1060
aVSM-2657
p1061
aVSM-2656
p1062
aVSM-2655
p1063
aVSM-2654
p1064
aVSM-2653
p1065
aVSM-2652
p1066
aVSM-2651
p1067
aVSM-2650
p1068
aVSM-2649
p1069
aVSM-2648
p1070
aVSM-2647
p1071
aVSM-2646
p1072
aVSM-2645
p1073
aVSM-2644
p1074
aVSM-2643
p1075
aVSM-2642
p1076
aVSM-2641
p1077
aVSM-2640
p1078
aVSM-2639
p1079
aVSM-2638
p1080
aVSM-2637
p1081
aVSM-2636
p1082
aVSM-2635
p1083
aVSM-2634
p1084
aVSM-2633
p1085
aVSM-2632
p1086
aVSM-2631
p1087
aVSM-2630
p1088
aVSM-2629
p1089
aVSM-2628
p1090
aVSM-2627
p1091
aVSM-2626
p1092
aVSM-2625
p1093
aVSM-2624
p1094
aVSM-2623
p1095
aVSM-2622
p1096
aVSM-2621
p1097
aVSM-2620
p1098
aVSM-2619
p1099
aVSM-2618
p1100
aVSM-2617
p1101
aVSM-2616
p1102
aVSM-2615
p1103
aVSM-2614
p1104
aVSM-2613
p1105
aVSM-2612
p1106
aVSM-2611
p1107
aVSM-2610
p1108
aVSM-2609
p1109
aVSM-2608
p1110
aVSM-2607
p1111
aVSM-2606
p1112
aVSM-2605
p1113
aVSM-2604
p1114
aVSM-2603
p1115
aVSM-2602
p1116
aVSM-2601
p1117
aVSM-2600
p1118
aVSM-2599
p1119
aVSM-2598
p1120
aVSM-2597
p1121
aVSM-2596
p1122
aVSM-2595
p1123
aVSM-2594
p1124
aVSM-2593
p1125
aVSM-2592
p1126
aVSM-2591
p1127
aVSM-2590
p1128
aVSM-2589
p1129
aVSM-2588
p1130
aVSM-2587
p1131
aVSM-2586
p1132
aVSM-2585
p1133
aVSM-2584
p1134
aVSM-2583
p1135
aVSM-2582
p1136
aVSM-2581
p1137
aVSM-2580
p1138
aVSM-2579
p1139
aVSM-2578
p1140
aVSM-2577
p1141
aVSM-2576
p1142
aVSM-2575
p1143
aVSM-2574
p1144
aVSM-2573
p1145
aVSM-2572
p1146
aVSM-2571
p1147
aVSM-2570
p1148
aVSM-2569
p1149
aVSM-2568
p1150
aVSM-2567
p1151
aVSM-2566
p1152
aVSM-2565
p1153
aVSM-2564
p1154
aVSM-2563
p1155
aVSM-2562
p1156
aVSM-2561
p1157
aVSM-2560
p1158
aVSM-2559
p1159
aVSM-2558
p1160
aVSM-2557
p1161
aVSM-2556
p1162
aVSM-2555
p1163
aVSM-2554
p1164
aVSM-2553
p1165
aVSM-2552
p1166
aVSM-2551
p1167
aVSM-2550
p1168
aVSM-2549
p1169
aVSM-2548
p1170
aVSM-2547
p1171
aVSM-2546
p1172
aVSM-2545
p1173
aVSM-2544
p1174
aVSM-2543
p1175
aVSM-2542
p1176
aVSM-2541
p1177
aVSM-2540
p1178
aVSM-2539
p1179
aVSM-2538
p1180
aVSM-2537
p1181
aVSM-2536
p1182
aVSM-2535
p1183
aVSM-2534
p1184
aVSM-2533
p1185
aVSM-2532
p1186
aVSM-2531
p1187
aVSM-2530
p1188
aVSM-2529
p1189
aVSM-2528
p1190
aVSM-2527
p1191
aVSM-2526
p1192
aVSM-2525
p1193
aVSM-2524
p1194
aVSM-2523
p1195
aVSM-2522
p1196
aVSM-2521
p1197
aVSM-2520
p1198
aVSM-2519
p1199
aVSM-2518
p1200
aVSM-2517
p1201
aVSM-2516
p1202
aVSM-2515
p1203
aVSM-2514
p1204
aVSM-2513
p1205
aVSM-2512
p1206
aVSM-2511
p1207
aVSM-2510
p1208
aVSM-2509
p1209
aVSM-2508
p1210
aVSM-2507
p1211
aVSM-2506
p1212
aVSM-2505
p1213
aVSM-2503
p1214
aVSM-2502
p1215
aVSM-2501
p1216
aVSM-2500
p1217
aVSM-2499
p1218
aVSM-2498
p1219
aVSM-2497
p1220
aVSM-2496
p1221
aVSM-2495
p1222
aVSM-2494
p1223
aVSM-2493
p1224
aVSM-2492
p1225
aVSM-2491
p1226
aVSM-2490
p1227
aVSM-2489
p1228
aVSM-2488
p1229
aVSM-2487
p1230
aVSM-2486
p1231
aVSM-2485
p1232
aVSM-2484
p1233
aVSM-2483
p1234
aVSM-2482
p1235
aVSM-2481
p1236
aVSM-2480
p1237
aVSM-2479
p1238
aVSM-2478
p1239
aVSM-2477
p1240
aVSM-2476
p1241
aVSM-2475
p1242
aVSM-2474
p1243
aVSM-2473
p1244
aVSM-2472
p1245
aVSM-2471
p1246
aVSM-2470
p1247
aVSM-2469
p1248
aVSM-2468
p1249
aVSM-2467
p1250
aVSM-2466
p1251
aVSM-2465
p1252
aVSM-2464
p1253
aVSM-2463
p1254
aVSM-2462
p1255
aVSM-2461
p1256
aVSM-2460
p1257
aVSM-2458
p1258
aVSM-2457
p1259
aVSM-2456
p1260
aVSM-2455
p1261
aVSM-2454
p1262
aVSM-2453
p1263
aVSM-2452
p1264
aVSM-2451
p1265
aVSM-2450
p1266
aVSM-2449
p1267
aVSM-2448
p1268
aVSM-2447
p1269
aVSM-2446
p1270
aVSM-2445
p1271
aVSM-2444
p1272
aVSM-2443
p1273
aVSM-2442
p1274
aVSM-2441
p1275
aVSM-2440
p1276
aVSM-2439
p1277
aVSM-2438
p1278
aVSM-2437
p1279
aVSM-2435
p1280
aVSM-2434
p1281
aVSM-2433
p1282
aVSM-2432
p1283
aVSM-2431
p1284
aVSM-2429
p1285
aVSM-2428
p1286
aVSM-2427
p1287
aVSM-2426
p1288
aVSM-2425
p1289
aVSM-2424
p1290
aVSM-2423
p1291
aVSM-2422
p1292
aVSM-2421
p1293
aVSM-2420
p1294
aVSM-2419
p1295
aVSM-2418
p1296
aVSM-2416
p1297
aVSM-2415
p1298
aVSM-2414
p1299
aVSM-2413
p1300
aVSM-2412
p1301
aVSM-2411
p1302
aVSM-2409
p1303
aVSM-2408
p1304
aVSM-2407
p1305
aVSM-2405
p1306
aVSM-2404
p1307
aVSM-2403
p1308
aVSM-2402
p1309
aVSM-2401
p1310
aVSM-2400
p1311
aVSM-2399
p1312
aVSM-2398
p1313
aVSM-2397
p1314
aVSM-2396
p1315
aVSM-2395
p1316
aVSM-2393
p1317
aVSM-2392
p1318
aVSM-2391
p1319
aVSM-2390
p1320
aVSM-2389
p1321
aVSM-2388
p1322
aVSM-2387
p1323
aVSM-2386
p1324
aVSM-2385
p1325
aVSM-2384
p1326
aVSM-2383
p1327
aVSM-2382
p1328
aVSM-2381
p1329
aVSM-2380
p1330
aVSM-2379
p1331
aVSM-2377
p1332
aVSM-2376
p1333
aVSM-2375
p1334
aVSM-2374
p1335
aVSM-2373
p1336
aVSM-2372
p1337
aVSM-2371
p1338
aVSM-2369
p1339
aVSM-2368
p1340
aVSM-2367
p1341
aVSM-2366
p1342
aVSM-2365
p1343
aVSM-2364
p1344
aVSM-2363
p1345
aVSM-2362
p1346
aVSM-2361
p1347
aVSM-2360
p1348
aVSM-2359
p1349
aVSM-2358
p1350
aVSM-2357
p1351
aVSM-2356
p1352
aVSM-2355
p1353
aVSM-2354
p1354
aVSM-2353
p1355
aVSM-2352
p1356
aVSM-2351
p1357
aVSM-2350
p1358
aVSM-2349
p1359
aVSM-2348
p1360
aVSM-2347
p1361
aVSM-2346
p1362
aVSM-2345
p1363
aVSM-2344
p1364
aVSM-2343
p1365
aVSM-2342
p1366
aVSM-2341
p1367
aVSM-2340
p1368
aVSM-2339
p1369
aVSM-2338
p1370
aVSM-2337
p1371
aVSM-2336
p1372
aVSM-2335
p1373
aVSM-2333
p1374
aVSM-2332
p1375
aVSM-2331
p1376
aVSM-2330
p1377
aVSM-2329
p1378
aVSM-2328
p1379
aVSM-2327
p1380
aVSM-2326
p1381
aVSM-2325
p1382
aVSM-2324
p1383
aVSM-2323
p1384
aVSM-2322
p1385
aVSM-2321
p1386
aVSM-2320
p1387
aVSM-2319
p1388
aVSM-2318
p1389
aVSM-2317
p1390
aVSM-2316
p1391
aVSM-2315
p1392
aVSM-2314
p1393
aVSM-2313
p1394
aVSM-2312
p1395
aVSM-2311
p1396
aVSM-2310
p1397
aVSM-2309
p1398
aVSM-2308
p1399
aVSM-2307
p1400
aVSM-2306
p1401
aVSM-2305
p1402
aVSM-2304
p1403
aVSM-2303
p1404
aVSM-2302
p1405
aVSM-2301
p1406
aVSM-2300
p1407
aVSM-2299
p1408
aVSM-2298
p1409
aVSM-2297
p1410
aVSM-2296
p1411
aVSM-2295
p1412
aVSM-2294
p1413
aVSM-2293
p1414
aVSM-2292
p1415
aVSM-2291
p1416
aVSM-2290
p1417
aVSM-2289
p1418
aVSM-2288
p1419
aVSM-2287
p1420
aVSM-2286
p1421
aVSM-2285
p1422
aVSM-2284
p1423
aVSM-2283
p1424
aVSM-2282
p1425
aVSM-2281
p1426
aVSM-2280
p1427
aVSM-2279
p1428
aVSM-2278
p1429
aVSM-2277
p1430
aVSM-2276
p1431
aVSM-2275
p1432
aVSM-2274
p1433
aVSM-2273
p1434
aVSM-2272
p1435
aVSM-2271
p1436
aVSM-2270
p1437
aVSM-2269
p1438
aVSM-2268
p1439
aVSM-2267
p1440
aVSM-2266
p1441
aVSM-2265
p1442
aVSM-2264
p1443
aVSM-2263
p1444
aVSM-2262
p1445
aVSM-2261
p1446
aVSM-2260
p1447
aVSM-2259
p1448
aVSM-2258
p1449
aVSM-2257
p1450
aVSM-2256
p1451
aVSM-2255
p1452
aVSM-2254
p1453
aVSM-2253
p1454
aVSM-2252
p1455
aVSM-2251
p1456
aVSM-2250
p1457
aVSM-2249
p1458
aVSM-2248
p1459
aVSM-2247
p1460
aVSM-2246
p1461
aVSM-2245
p1462
aVSM-2244
p1463
aVSM-2243
p1464
aVSM-2242
p1465
aVSM-2241
p1466
aVSM-2240
p1467
aVSM-2239
p1468
aVSM-2238
p1469
aVSM-2237
p1470
aVSM-2236
p1471
aVSM-2234
p1472
aVSM-2233
p1473
aVSM-2232
p1474
aVSM-2231
p1475
aVSM-2230
p1476
aVSM-2229
p1477
aVSM-2228
p1478
aVSM-2227
p1479
aVSM-2226
p1480
aVSM-2225
p1481
aVSM-2224
p1482
aVSM-2223
p1483
aVSM-2221
p1484
aVSM-2220
p1485
aVSM-2219
p1486
aVSM-2217
p1487
aVSM-2216
p1488
aVSM-2213
p1489
aVSM-2212
p1490
aVSM-2211
p1491
aVSM-2210
p1492
aVSM-2208
p1493
aVSM-2207
p1494
aVSM-2206
p1495
aVSM-2205
p1496
aVSM-2204
p1497
aVSM-2203
p1498
aVSM-2202
p1499
aVSM-2199
p1500
aVSM-2198
p1501
aVSM-2197
p1502
aVSM-2196
p1503
aVSM-2195
p1504
aVSM-2194
p1505
aVSM-2193
p1506
aVSM-2192
p1507
aVSM-2191
p1508
aVSM-2190
p1509
aVSM-2189
p1510
aVSM-2188
p1511
aVSM-2187
p1512
aVSM-2186
p1513
aVSM-2185
p1514
aVSM-2184
p1515
aVSM-2183
p1516
aVSM-2182
p1517
aVSM-2181
p1518
aVSM-2180
p1519
aVSM-2179
p1520
aVSM-2178
p1521
aVSM-2177
p1522
aVSM-2176
p1523
aVSM-2175
p1524
aVSM-2174
p1525
aVSM-2173
p1526
aVSM-2172
p1527
aVSM-2171
p1528
aVSM-2170
p1529
aVSM-2169
p1530
aVSM-2166
p1531
aVSM-2165
p1532
aVSM-2163
p1533
aVSM-2162
p1534
aVSM-2161
p1535
aVSM-2160
p1536
aVSM-2159
p1537
aVSM-2158
p1538
aVSM-2156
p1539
aVSM-2153
p1540
aVSM-2152
p1541
aVSM-2151
p1542
aVSM-2150
p1543
aVSM-2148
p1544
aVSM-2147
p1545
aVSM-2145
p1546
aVSM-2142
p1547
aVSM-2141
p1548
aVSM-2140
p1549
aVSM-2139
p1550
aVSM-2138
p1551
aVSM-2137
p1552
aVSM-2136
p1553
aVSM-2135
p1554
aVSM-2134
p1555
aVSM-2133
p1556
aVSM-2131
p1557
aVSM-2130
p1558
aVSM-2129
p1559
aVSM-2128
p1560
aVSM-2126
p1561
aVSM-2125
p1562
aVSM-2123
p1563
aVSM-2122
p1564
aVSM-2121
p1565
aVSM-2120
p1566
aVSM-2119
p1567
aVSM-2118
p1568
aVSM-2117
p1569
aVSM-2116
p1570
aVSM-2115
p1571
aVSM-2114
p1572
aVSM-2113
p1573
aVSM-2112
p1574
aVSM-2111
p1575
aVSM-2110
p1576
aVSM-2109
p1577
aVSM-2108
p1578
aVSM-2107
p1579
aVSM-2106
p1580
aVSM-2105
p1581
aVSM-2104
p1582
aVSM-2103
p1583
aVSM-2102
p1584
aVSM-2101
p1585
aVSM-2099
p1586
aVSM-2098
p1587
aVSM-2097
p1588
aVSM-2096
p1589
aVSM-2095
p1590
aVSM-2094
p1591
aVSM-2093
p1592
aVSM-2092
p1593
aVSM-2091
p1594
aVSM-2090
p1595
aVSM-2088
p1596
aVSM-2087
p1597
aVSM-2086
p1598
aVSM-2085
p1599
aVSM-2084
p1600
aVSM-2083
p1601
aVSM-2082
p1602
aVSM-2081
p1603
aVSM-2080
p1604
aVSM-2079
p1605
aVSM-2078
p1606
aVSM-2077
p1607
aVSM-2076
p1608
aVSM-2075
p1609
aVSM-2074
p1610
aVSM-2073
p1611
aVSM-2072
p1612
aVSM-2071
p1613
aVSM-2070
p1614
aVSM-2069
p1615
aVSM-2067
p1616
aVSM-2066
p1617
aVSM-2065
p1618
aVSM-2064
p1619
aVSM-2063
p1620
aVSM-2061
p1621
aVSM-2060
p1622
aVSM-2059
p1623
aVSM-2057
p1624
aVSM-2056
p1625
aVSM-2055
p1626
aVSM-2053
p1627
aVSM-2052
p1628
aVSM-2051
p1629
aVSM-2050
p1630
aVSM-2048
p1631
aVSM-2047
p1632
aVSM-2046
p1633
aVSM-2045
p1634
aVSM-2044
p1635
aVSM-2043
p1636
aVSM-2042
p1637
aVSM-2041
p1638
aVSM-2040
p1639
aVSM-2039
p1640
aVSM-2038
p1641
aVSM-2037
p1642
aVSM-2036
p1643
aVSM-2035
p1644
aVSM-2034
p1645
aVSM-2032
p1646
aVSM-2031
p1647
aVSM-2030
p1648
aVSM-2028
p1649
aVSM-2027
p1650
aVSM-2026
p1651
aVSM-2025
p1652
aVSM-2024
p1653
aVSM-2023
p1654
aVSM-2022
p1655
aVSM-2021
p1656
aVSM-2019
p1657
aVSM-2018
p1658
aVSM-2016
p1659
aVSM-2015
p1660
aVSM-2014
p1661
aVSM-2008
p1662
aVSM-2007
p1663
aVSM-2006
p1664
aVSM-2005
p1665
aVSM-2004
p1666
aVSM-2002
p1667
aVSM-2001
p1668
aVSM-1999
p1669
aVSM-1998
p1670
aVSM-1997
p1671
aVSM-1996
p1672
aVSM-1995
p1673
aVSM-1994
p1674
aVSM-1993
p1675
aVSM-1992
p1676
aVSM-1991
p1677
aVSM-1990
p1678
aVSM-1989
p1679
aVSM-1988
p1680
aVSM-1987
p1681
aVSM-1986
p1682
aVSM-1985
p1683
aVSM-1984
p1684
aVSM-1983
p1685
aVSM-1982
p1686
aVSM-1981
p1687
aVSM-1980
p1688
aVSM-1979
p1689
aVSM-1978
p1690
aVSM-1977
p1691
aVSM-1976
p1692
aVSM-1975
p1693
aVSM-1974
p1694
aVSM-1973
p1695
aVSM-1972
p1696
aVSM-1971
p1697
aVSM-1970
p1698
aVSM-1969
p1699
aVSM-1968
p1700
aVSM-1966
p1701
aVSM-1965
p1702
aVSM-1964
p1703
aVSM-1962
p1704
aVSM-1961
p1705
aVSM-1960
p1706
aVSM-1959
p1707
aVSM-1958
p1708
aVSM-1957
p1709
aVSM-1955
p1710
aVSM-1954
p1711
aVSM-1953
p1712
aVSM-1951
p1713
aVSM-1950
p1714
aVSM-1949
p1715
aVSM-1948
p1716
aVSM-1947
p1717
aVSM-1946
p1718
aVSM-1945
p1719
aVSM-1944
p1720
aVSM-1943
p1721
aVSM-1942
p1722
aVSM-1941
p1723
aVSM-1940
p1724
aVSM-1939
p1725
aVSM-1938
p1726
aVSM-1937
p1727
aVSM-1936
p1728
aVSM-1935
p1729
aVSM-1934
p1730
aVSM-1933
p1731
aVSM-1930
p1732
aVSM-1929
p1733
aVSM-1928
p1734
aVSM-1927
p1735
aVSM-1926
p1736
aVSM-1925
p1737
aVSM-1924
p1738
aVSM-1923
p1739
aVSM-1922
p1740
aVSM-1921
p1741
aVSM-1920
p1742
aVSM-1918
p1743
aVSM-1917
p1744
aVSM-1916
p1745
aVSM-1915
p1746
aVSM-1914
p1747
aVSM-1912
p1748
aVSM-1911
p1749
aVSM-1910
p1750
aVSM-1909
p1751
aVSM-1908
p1752
aVSM-1906
p1753
aVSM-1905
p1754
aVSM-1904
p1755
aVSM-1903
p1756
aVSM-1900
p1757
aVSM-1899
p1758
aVSM-1897
p1759
aVSM-1896
p1760
aVSM-1894
p1761
aVSM-1893
p1762
aVSM-1892
p1763
aVSM-1891
p1764
aVSM-1890
p1765
aVSM-1889
p1766
aVSM-1888
p1767
aVSM-1887
p1768
aVSM-1885
p1769
aVSM-1884
p1770
aVSM-1883
p1771
aVSM-1882
p1772
aVSM-1881
p1773
aVSM-1880
p1774
aVSM-1879
p1775
aVSM-1878
p1776
aVSM-1877
p1777
aVSM-1875
p1778
aVSM-1874
p1779
aVSM-1873
p1780
aVSM-1871
p1781
aVSM-1870
p1782
aVSM-1869
p1783
aVSM-1868
p1784
aVSM-1867
p1785
aVSM-1866
p1786
aVSM-1865
p1787
aVSM-1864
p1788
aVSM-1863
p1789
aVSM-1862
p1790
aVSM-1861
p1791
aVSM-1860
p1792
aVSM-1859
p1793
aVSM-1858
p1794
aVSM-1856
p1795
aVSM-1854
p1796
aVSM-1853
p1797
aVSM-1852
p1798
aVSM-1851
p1799
aVSM-1850
p1800
aVSM-1849
p1801
aVSM-1848
p1802
aVSM-1847
p1803
aVSM-1846
p1804
aVSM-1845
p1805
aVSM-1844
p1806
aVSM-1843
p1807
aVSM-1842
p1808
aVSM-1841
p1809
aVSM-1840
p1810
aVSM-1839
p1811
aVSM-1838
p1812
aVSM-1837
p1813
aVSM-1836
p1814
aVSM-1835
p1815
aVSM-1834
p1816
aVSM-1833
p1817
aVSM-1831
p1818
aVSM-1830
p1819
aVSM-1829
p1820
aVSM-1827
p1821
aVSM-1826
p1822
aVSM-1824
p1823
aVSM-1823
p1824
aVSM-1822
p1825
aVSM-1821
p1826
aVSM-1820
p1827
aVSM-1819
p1828
aVSM-1818
p1829
aVSM-1817
p1830
aVSM-1816
p1831
aVSM-1814
p1832
aVSM-1813
p1833
aVSM-1812
p1834
aVSM-1811
p1835
aVSM-1810
p1836
aVSM-1809
p1837
aVSM-1808
p1838
aVSM-1807
p1839
aVSM-1799
p1840
aVSM-1791
p1841
aVSM-1784
p1842
aVSM-1783
p1843
aVSM-1782
p1844
aVSM-1775
p1845
aVSM-1773
p1846
aVSM-1768
p1847
aVSM-1767
p1848
aVSM-1766
p1849
aVSM-1762
p1850
aVSM-1761
p1851
aVSM-1757
p1852
aVSM-1756
p1853
aVSM-1750
p1854
aVSM-1749
p1855
aVSM-1747
p1856
aVSM-1746
p1857
aVSM-1745
p1858
aVSM-1743
p1859
aVSM-1729
p1860
aVSM-1724
p1861
aVSM-1723
p1862
aVSM-1719
p1863
aVSM-1717
p1864
aVSM-1713
p1865
aVSM-1712
p1866
aVSM-1709
p1867
aVSM-1703
p1868
aVSM-1698
p1869
aVSM-1695
p1870
aVSM-1694
p1871
aVSM-1688
p1872
aVSM-1685
p1873
aVSM-1660
p1874
aVSM-1659
p1875
aVSM-1658
p1876
aVSM-1657
p1877
aVSM-1655
p1878
aVSM-1654
p1879
aVSM-1641
p1880
aVSM-1640
p1881
aVSM-1639
p1882
aVSM-1638
p1883
aVSM-1632
p1884
aVSM-1628
p1885
aVSM-1627
p1886
aVSM-1626
p1887
aVSM-1625
p1888
aVSM-1623
p1889
aVSM-1622
p1890
aVSM-1621
p1891
aVSM-1620
p1892
aVSM-1614
p1893
aVSM-1613
p1894
aVSM-1610
p1895
aVSM-1608
p1896
aVSM-1607
p1897
aVSM-1597
p1898
aVSM-1596
p1899
aVSM-1586
p1900
aVSM-1584
p1901
aVSM-1582
p1902
aVSM-1580
p1903
aVSM-1579
p1904
aVSM-1578
p1905
aVSM-1577
p1906
aVSM-1574
p1907
aVSM-1573
p1908
aVSM-1570
p1909
aVSM-1567
p1910
aVSM-1564
p1911
aVSM-1559
p1912
aVSM-1558
p1913
aVSM-1554
p1914
aVSM-1552
p1915
aVSM-1551
p1916
aVSM-1550
p1917
aVSM-1547
p1918
aVSM-1546
p1919
aVSM-1542
p1920
aVSM-1541
p1921
aVSM-1537
p1922
aVSM-1532
p1923
aVSM-1531
p1924
aVSM-1525
p1925
aVSM-1523
p1926
aVSM-1521
p1927
aVSM-1519
p1928
aVSM-1514
p1929
aVSM-1511
p1930
aVSM-1510
p1931
aVSM-1509
p1932
aVSM-1507
p1933
aVSM-1506
p1934
aVSM-1505
p1935
aVSM-1504
p1936
aVSM-1503
p1937
aVSM-1501
p1938
aVSM-1500
p1939
aVSM-1499
p1940
aVSM-1498
p1941
aVSM-1496
p1942
aVSM-1495
p1943
aVSM-1494
p1944
aVSM-1493
p1945
aVSM-1492
p1946
aVSM-1490
p1947
aVSM-1489
p1948
aVSM-1482
p1949
aVSM-1480
p1950
aVSM-1479
p1951
aVSM-1472
p1952
aVSM-1463
p1953
aVSM-1457
p1954
aVSM-1456
p1955
aVSM-1455
p1956
aVSM-1453
p1957
aVSM-1452
p1958
aVSM-1449
p1959
aVSM-1447
p1960
aVSM-1446
p1961
aVSM-1445
p1962
aVSM-1443
p1963
aVSM-1442
p1964
aVSM-1440
p1965
aVSM-1439
p1966
aVSM-1438
p1967
aVSM-1433
p1968
aVSM-1432
p1969
aVSM-1425
p1970
aVSM-1420
p1971
aVSM-1417
p1972
aVSM-1416
p1973
aVSM-1415
p1974
aVSM-1409
p1975
aVSM-1404
p1976
aVSM-1403
p1977
aVSM-1398
p1978
aVSM-1396
p1979
aVSM-1395
p1980
aVSM-1393
p1981
aVSM-1390
p1982
aVSM-1389
p1983
aVSM-1387
p1984
aVSM-1385
p1985
aVSM-1381
p1986
aVSM-1380
p1987
aVSM-1378
p1988
aVSM-1374
p1989
aVSM-1371
p1990
aVSM-1369
p1991
aVSM-1368
p1992
aVSM-1367
p1993
aVSM-1366
p1994
aVSM-1364
p1995
aVSM-1363
p1996
aVSM-1360
p1997
aVSM-1359
p1998
aVSM-1358
p1999
aVSM-1357
p2000
aVSM-1355
p2001
aVSM-1352
p2002
aVSM-1350
p2003
aVSM-1349
p2004
aVSM-1346
p2005
aVSM-1339
p2006
aVSM-1337
p2007
aVSM-1335
p2008
aVSM-1333
p2009
aVSM-1332
p2010
aVSM-1330
p2011
aVSM-1329
p2012
aVSM-1327
p2013
aVSM-1326
p2014
aVSM-1325
p2015
aVSM-1324
p2016
aVSM-1323
p2017
aVSM-1322
p2018
aVSM-1320
p2019
aVSM-1318
p2020
aVSM-1317
p2021
aVSM-1316
p2022
aVSM-1315
p2023
aVSM-1314
p2024
aVSM-1312
p2025
aVSM-1306
p2026
aVSM-1303
p2027
aVSM-1302
p2028
aVSM-1296
p2029
aVSM-1295
p2030
aVSM-1293
p2031
aVSM-1291
p2032
aVSM-1285
p2033
aVSM-1284
p2034
aVSM-1283
p2035
aVSM-1282
p2036
aVSM-1281
p2037
aVSM-1279
p2038
aVSM-1278
p2039
aVSM-1277
p2040
aVSM-1276
p2041
aVSM-1275
p2042
aVSM-1274
p2043
aVSM-1273
p2044
aVSM-1269
p2045
aVSM-1268
p2046
aVSM-1267
p2047
aVSM-1266
p2048
aVSM-1264
p2049
aVSM-1263
p2050
aVSM-1262
p2051
aVSM-1259
p2052
aVSM-1258
p2053
aVSM-1257
p2054
aVSM-1256
p2055
aVSM-1250
p2056
aVSM-1249
p2057
aVSM-1246
p2058
aVSM-1242
p2059
aVSM-1241
p2060
aVSM-1240
p2061
aVSM-1237
p2062
aVSM-1235
p2063
aVSM-1231
p2064
aVSM-1230
p2065
aVSM-1229
p2066
aVSM-1227
p2067
aVSM-1226
p2068
aVSM-1224
p2069
aVSM-1223
p2070
aVSM-1222
p2071
aVSM-1221
p2072
aVSM-1218
p2073
aVSM-1217
p2074
aVSM-1215
p2075
aVSM-1214
p2076
aVSM-1213
p2077
aVSM-1212
p2078
aVSM-1208
p2079
aVSM-1207
p2080
aVSM-1206
p2081
aVSM-1205
p2082
aVSM-1202
p2083
aVSM-1201
p2084
aVSM-1199
p2085
aVSM-1197
p2086
aVSM-1195
p2087
aVSM-1194
p2088
aVSM-1192
p2089
aVSM-1190
p2090
aVSM-1189
p2091
aVSM-1188
p2092
aVSM-1187
p2093
aVSM-1186
p2094
aVSM-1181
p2095
aVSM-1180
p2096
aVSM-1178
p2097
aVSM-1176
p2098
aVSM-1175
p2099
aVSM-1174
p2100
aVSM-1173
p2101
aVSM-1172
p2102
aVSM-1170
p2103
aVSM-1165
p2104
aVSM-1164
p2105
aVSM-1162
p2106
aVSM-1161
p2107
aVSM-1160
p2108
aVSM-1157
p2109
aVSM-1156
p2110
aVSM-1153
p2111
aVSM-1152
p2112
aVSM-1151
p2113
aVSM-1150
p2114
aVSM-1149
p2115
aVSM-1148
p2116
aVSM-1147
p2117
aVSM-1146
p2118
aVSM-1145
p2119
aVSM-1143
p2120
aVSM-1142
p2121
aVSM-1140
p2122
aVSM-1139
p2123
aVSM-1137
p2124
aVSM-1135
p2125
aVSM-1133
p2126
aVSM-1132
p2127
aVSM-1131
p2128
aVSM-1129
p2129
aVSM-1128
p2130
aVSM-1127
p2131
aVSM-1126
p2132
aVSM-1124
p2133
aVSM-1122
p2134
aVSM-1121
p2135
aVSM-1114
p2136
aVSM-1113
p2137
aVSM-1111
p2138
aVSM-1110
p2139
aVSM-1109
p2140
aVSM-1107
p2141
aVSM-1106
p2142
aVSM-1104
p2143
aVSM-1103
p2144
aVSM-1102
p2145
aVSM-1100
p2146
aVSM-1096
p2147
aVSM-1095
p2148
aVSM-1094
p2149
aVSM-1093
p2150
aVSM-1089
p2151
aVSM-1088
p2152
aVSM-1086
p2153
aVSM-1085
p2154
aVSM-1084
p2155
aVSM-1082
p2156
aVSM-1081
p2157
aVSM-1080
p2158
aVSM-1079
p2159
aVSM-1078
p2160
aVSM-1077
p2161
aVSM-1073
p2162
aVSM-1069
p2163
aVSM-1065
p2164
aVSM-1061
p2165
aVSM-1060
p2166
aVSM-1059
p2167
aVSM-1056
p2168
aVSM-1055
p2169
aVSM-1054
p2170
aVSM-1053
p2171
aVSM-1052
p2172
aVSM-1051
p2173
aVSM-1050
p2174
aVSM-1049
p2175
aVSM-1048
p2176
aVSM-1047
p2177
aVSM-1045
p2178
aVSM-1044
p2179
aVSM-1043
p2180
aVSM-1042
p2181
aVSM-1041
p2182
aVSM-1040
p2183
aVSM-1038
p2184
aVSM-1037
p2185
aVSM-1034
p2186
aVSM-1033
p2187
aVSM-1032
p2188
aVSM-1031
p2189
aVSM-1030
p2190
aVSM-1029
p2191
aVSM-1028
p2192
aVSM-1027
p2193
aVSM-1026
p2194
aVSM-1025
p2195
aVSM-1024
p2196
aVSM-1023
p2197
aVSM-1022
p2198
aVSM-1021
p2199
aVSM-1020
p2200
aVSM-1019
p2201
aVSM-1018
p2202
aVSM-1016
p2203
aVSM-1014
p2204
aVSM-1013
p2205
aVSM-1012
p2206
aVSM-1011
p2207
aVSM-1010
p2208
aVSM-1009
p2209
aVSM-1008
p2210
aVSM-1007
p2211
aVSM-1006
p2212
aVSM-1005
p2213
aVSM-1004
p2214
aVSM-1002
p2215
aVSM-1001
p2216
aVSM-1000
p2217
aVSM-998
p2218
aVSM-997
p2219
aVSM-996
p2220
aVSM-995
p2221
aVSM-994
p2222
aVSM-993
p2223
aVSM-992
p2224
aVSM-991
p2225
aVSM-990
p2226
aVSM-989
p2227
aVSM-988
p2228
aVSM-987
p2229
aVSM-986
p2230
aVSM-985
p2231
aVSM-983
p2232
aVSM-982
p2233
aVSM-981
p2234
aVSM-979
p2235
aVSM-978
p2236
aVSM-977
p2237
aVSM-976
p2238
aVSM-975
p2239
aVSM-974
p2240
aVSM-973
p2241
aVSM-972
p2242
aVSM-971
p2243
aVSM-970
p2244
aVSM-969
p2245
aVSM-967
p2246
aVSM-966
p2247
aVSM-965
p2248
aVSM-963
p2249
aVSM-962
p2250
aVSM-961
p2251
aVSM-960
p2252
aVSM-959
p2253
aVSM-958
p2254
aVSM-956
p2255
aVSM-955
p2256
aVSM-954
p2257
aVSM-952
p2258
aVSM-951
p2259
aVSM-949
p2260
aVSM-948
p2261
aVSM-946
p2262
aVSM-945
p2263
aVSM-944
p2264
aVSM-943
p2265
aVSM-942
p2266
aVSM-941
p2267
aVSM-940
p2268
aVSM-939
p2269
aVSM-938
p2270
aVSM-937
p2271
aVSM-936
p2272
aVSM-934
p2273
aVSM-933
p2274
aVSM-932
p2275
aVSM-931
p2276
aVSM-930
p2277
aVSM-929
p2278
aVSM-928
p2279
aVSM-927
p2280
aVSM-926
p2281
aVSM-924
p2282
aVSM-923
p2283
aVSM-922
p2284
aVSM-921
p2285
aVSM-920
p2286
aVSM-919
p2287
aVSM-918
p2288
aVSM-917
p2289
aVSM-916
p2290
aVSM-914
p2291
aVSM-913
p2292
aVSM-912
p2293
aVSM-911
p2294
aVSM-910
p2295
aVSM-909
p2296
aVSM-908
p2297
aVSM-907
p2298
aVSM-906
p2299
aVSM-904
p2300
aVSM-903
p2301
aVSM-902
p2302
aVSM-901
p2303
aVSM-900
p2304
aVSM-899
p2305
aVSM-898
p2306
aVSM-897
p2307
aVSM-896
p2308
aVSM-895
p2309
aVSM-894
p2310
aVSM-893
p2311
aVSM-892
p2312
aVSM-891
p2313
aVSM-890
p2314
aVSM-889
p2315
aVSM-888
p2316
aVSM-887
p2317
aVSM-886
p2318
aVSM-885
p2319
aVSM-884
p2320
aVSM-883
p2321
aVSM-881
p2322
aVSM-879
p2323
aVSM-878
p2324
aVSM-877
p2325
aVSM-876
p2326
aVSM-875
p2327
aVSM-874
p2328
aVSM-873
p2329
aVSM-872
p2330
aVSM-871
p2331
aVSM-870
p2332
aVSM-869
p2333
aVSM-867
p2334
aVSM-866
p2335
aVSM-865
p2336
aVSM-864
p2337
aVSM-863
p2338
aVSM-862
p2339
aVSM-861
p2340
aVSM-860
p2341
aVSM-859
p2342
aVSM-858
p2343
aVSM-857
p2344
aVSM-856
p2345
aVSM-855
p2346
aVSM-854
p2347
aVSM-853
p2348
aVSM-852
p2349
aVSM-851
p2350
aVSM-850
p2351
aVSM-849
p2352
aVSM-848
p2353
aVSM-847
p2354
aVSM-846
p2355
aVSM-845
p2356
aVSM-844
p2357
aVSM-843
p2358
aVSM-842
p2359
aVSM-841
p2360
aVSM-840
p2361
aVSM-839
p2362
aVSM-838
p2363
aVSM-837
p2364
aVSM-836
p2365
aVSM-835
p2366
aVSM-834
p2367
aVSM-833
p2368
aVSM-832
p2369
aVSM-830
p2370
aVSM-829
p2371
aVSM-828
p2372
aVSM-827
p2373
aVSM-826
p2374
aVSM-825
p2375
aVSM-824
p2376
aVSM-821
p2377
aVSM-818
p2378
aVSM-817
p2379
aVSM-816
p2380
aVSM-815
p2381
aVSM-814
p2382
aVSM-813
p2383
aVSM-812
p2384
aVSM-811
p2385
aVSM-810
p2386
aVSM-809
p2387
aVSM-808
p2388
aVSM-807
p2389
aVSM-806
p2390
aVSM-805
p2391
aVSM-804
p2392
aVSM-803
p2393
aVSM-802
p2394
aVSM-801
p2395
aVSM-800
p2396
aVSM-798
p2397
aVSM-796
p2398
aVSM-795
p2399
aVSM-794
p2400
aVSM-793
p2401
aVSM-792
p2402
aVSM-791
p2403
aVSM-790
p2404
aVSM-789
p2405
aVSM-788
p2406
aVSM-786
p2407
aVSM-785
p2408
aVSM-784
p2409
aVSM-783
p2410
aVSM-782
p2411
aVSM-781
p2412
aVSM-780
p2413
aVSM-779
p2414
aVSM-778
p2415
aVSM-777
p2416
aVSM-776
p2417
aVSM-775
p2418
aVSM-774
p2419
aVSM-773
p2420
aVSM-772
p2421
aVSM-771
p2422
aVSM-770
p2423
aVSM-769
p2424
aVSM-768
p2425
aVSM-767
p2426
aVSM-766
p2427
aVSM-765
p2428
aVSM-764
p2429
aVSM-763
p2430
aVSM-762
p2431
aVSM-761
p2432
aVSM-760
p2433
aVSM-759
p2434
aVSM-758
p2435
aVSM-757
p2436
aVSM-756
p2437
aVSM-755
p2438
aVSM-754
p2439
aVSM-753
p2440
aVSM-752
p2441
aVSM-751
p2442
aVSM-750
p2443
aVSM-748
p2444
aVSM-747
p2445
aVSM-746
p2446
aVSM-745
p2447
aVSM-744
p2448
aVSM-743
p2449
aVSM-742
p2450
aVSM-741
p2451
aVSM-740
p2452
aVSM-739
p2453
aVSM-738
p2454
aVSM-737
p2455
aVSM-736
p2456
aVSM-735
p2457
aVSM-734
p2458
aVSM-732
p2459
aVSM-731
p2460
aVSM-730
p2461
aVSM-729
p2462
aVSM-728
p2463
aVSM-727
p2464
aVSM-726
p2465
aVSM-724
p2466
aVSM-723
p2467
aVSM-722
p2468
aVSM-721
p2469
aVSM-720
p2470
aVSM-719
p2471
aVSM-718
p2472
aVSM-717
p2473
aVSM-715
p2474
aVSM-714
p2475
aVSM-713
p2476
aVSM-712
p2477
aVSM-711
p2478
aVSM-710
p2479
aVSM-709
p2480
aVSM-708
p2481
aVSM-707
p2482
aVSM-706
p2483
aVSM-705
p2484
aVSM-704
p2485
aVSM-703
p2486
aVSM-702
p2487
aVSM-701
p2488
aVSM-700
p2489
aVSM-699
p2490
aVSM-698
p2491
aVSM-697
p2492
aVSM-696
p2493
aVSM-695
p2494
aVSM-694
p2495
aVSM-693
p2496
aVSM-692
p2497
aVSM-691
p2498
aVSM-690
p2499
aVSM-689
p2500
aVSM-688
p2501
aVSM-687
p2502
aVSM-686
p2503
aVSM-685
p2504
aVSM-684
p2505
aVSM-683
p2506
aVSM-682
p2507
aVSM-681
p2508
aVSM-680
p2509
aVSM-679
p2510
aVSM-678
p2511
aVSM-677
p2512
aVSM-676
p2513
aVSM-675
p2514
aVSM-674
p2515
aVSM-673
p2516
aVSM-672
p2517
aVSM-671
p2518
aVSM-670
p2519
aVSM-669
p2520
aVSM-668
p2521
aVSM-667
p2522
aVSM-666
p2523
aVSM-665
p2524
aVSM-664
p2525
aVSM-663
p2526
aVSM-662
p2527
aVSM-661
p2528
aVSM-660
p2529
aVSM-659
p2530
aVSM-658
p2531
aVSM-657
p2532
aVSM-656
p2533
aVSM-655
p2534
aVSM-654
p2535
aVSM-653
p2536
aVSM-652
p2537
aVSM-651
p2538
aVSM-650
p2539
aVSM-649
p2540
aVSM-648
p2541
aVSM-647
p2542
aVSM-646
p2543
aVSM-645
p2544
aVSM-644
p2545
aVSM-643
p2546
aVSM-642
p2547
aVSM-641
p2548
aVSM-640
p2549
aVSM-639
p2550
aVSM-638
p2551
aVSM-637
p2552
aVSM-636
p2553
aVSM-635
p2554
aVSM-634
p2555
aVSM-633
p2556
aVSM-632
p2557
aVSM-631
p2558
aVSM-630
p2559
aVSM-629
p2560
aVSM-628
p2561
aVSM-627
p2562
aVSM-626
p2563
aVSM-625
p2564
aVSM-624
p2565
aVSM-623
p2566
aVSM-622
p2567
aVSM-621
p2568
aVSM-620
p2569
aVSM-619
p2570
aVSM-618
p2571
aVSM-617
p2572
aVSM-616
p2573
aVSM-615
p2574
aVSM-614
p2575
aVSM-613
p2576
aVSM-612
p2577
aVSM-611
p2578
aVSM-610
p2579
aVSM-609
p2580
aVSM-608
p2581
aVSM-607
p2582
aVSM-605
p2583
aVSM-604
p2584
aVSM-603
p2585
aVSM-601
p2586
aVSM-600
p2587
aVSM-599
p2588
aVSM-598
p2589
aVSM-597
p2590
aVSM-596
p2591
aVSM-595
p2592
aVSM-594
p2593
aVSM-593
p2594
aVSM-592
p2595
aVSM-591
p2596
aVSM-589
p2597
aVSM-588
p2598
aVSM-587
p2599
aVSM-586
p2600
aVSM-585
p2601
aVSM-584
p2602
aVSM-583
p2603
aVSM-582
p2604
aVSM-581
p2605
aVSM-579
p2606
aVSM-578
p2607
aVSM-577
p2608
aVSM-576
p2609
aVSM-574
p2610
aVSM-573
p2611
aVSM-572
p2612
aVSM-571
p2613
aVSM-570
p2614
aVSM-569
p2615
aVSM-568
p2616
aVSM-567
p2617
aVSM-566
p2618
aVSM-565
p2619
aVSM-564
p2620
aVSM-563
p2621
aVSM-562
p2622
aVSM-561
p2623
aVSM-560
p2624
aVSM-559
p2625
aVSM-558
p2626
aVSM-557
p2627
aVSM-556
p2628
aVSM-555
p2629
aVSM-554
p2630
aVSM-553
p2631
aVSM-552
p2632
aVSM-551
p2633
aVSM-550
p2634
aVSM-549
p2635
aVSM-548
p2636
aVSM-547
p2637
aVSM-546
p2638
aVSM-545
p2639
aVSM-544
p2640
aVSM-543
p2641
aVSM-542
p2642
aVSM-540
p2643
aVSM-539
p2644
aVSM-538
p2645
aVSM-537
p2646
aVSM-536
p2647
aVSM-535
p2648
aVSM-534
p2649
aVSM-533
p2650
aVSM-532
p2651
aVSM-531
p2652
aVSM-530
p2653
aVSM-529
p2654
aVSM-528
p2655
aVSM-527
p2656
aVSM-526
p2657
aVSM-525
p2658
aVSM-524
p2659
aVSM-523
p2660
aVSM-522
p2661
aVSM-521
p2662
aVSM-520
p2663
aVSM-519
p2664
aVSM-518
p2665
aVSM-517
p2666
aVSM-516
p2667
aVSM-515
p2668
aVSM-514
p2669
aVSM-513
p2670
aVSM-512
p2671
aVSM-511
p2672
aVSM-510
p2673
aVSM-509
p2674
aVSM-508
p2675
aVSM-507
p2676
aVSM-506
p2677
aVSM-505
p2678
aVSM-504
p2679
aVSM-503
p2680
aVSM-502
p2681
aVSM-501
p2682
aVSM-500
p2683
aVSM-499
p2684
aVSM-498
p2685
aVSM-496
p2686
aVSM-495
p2687
aVSM-494
p2688
aVSM-493
p2689
aVSM-492
p2690
aVSM-491
p2691
aVSM-490
p2692
aVSM-489
p2693
aVSM-488
p2694
aVSM-487
p2695
aVSM-486
p2696
aVSM-485
p2697
aVSM-484
p2698
aVSM-483
p2699
aVSM-482
p2700
aVSM-480
p2701
aVSM-479
p2702
aVSM-478
p2703
aVSM-477
p2704
aVSM-476
p2705
aVSM-475
p2706
aVSM-474
p2707
aVSM-473
p2708
aVSM-472
p2709
aVSM-471
p2710
aVSM-470
p2711
aVSM-469
p2712
aVSM-468
p2713
aVSM-467
p2714
aVSM-466
p2715
aVSM-465
p2716
aVSM-464
p2717
aVSM-463
p2718
aVSM-462
p2719
aVSM-461
p2720
aVSM-460
p2721
aVSM-459
p2722
aVSM-458
p2723
aVSM-457
p2724
aVSM-456
p2725
aVSM-455
p2726
aVSM-453
p2727
aVSM-452
p2728
aVSM-451
p2729
aVSM-450
p2730
aVSM-448
p2731
aVSM-447
p2732
aVSM-446
p2733
aVSM-445
p2734
aVSM-444
p2735
aVSM-443
p2736
aVSM-442
p2737
aVSM-441
p2738
aVSM-440
p2739
aVSM-439
p2740
aVSM-438
p2741
aVSM-437
p2742
aVSM-436
p2743
aVSM-435
p2744
aVSM-433
p2745
aVSM-432
p2746
aVSM-431
p2747
aVSM-430
p2748
aVSM-429
p2749
aVSM-428
p2750
aVSM-427
p2751
aVSM-426
p2752
aVSM-425
p2753
aVSM-424
p2754
aVSM-423
p2755
aVSM-422
p2756
aVSM-421
p2757
aVSM-420
p2758
aVSM-419
p2759
aVSM-416
p2760
aVSM-415
p2761
aVSM-414
p2762
aVSM-412
p2763
aVSM-411
p2764
aVSM-410
p2765
aVSM-409
p2766
aVSM-408
p2767
aVSM-406
p2768
aVSM-403
p2769
aVSM-402
p2770
aVSM-401
p2771
aVSM-400
p2772
aVSM-399
p2773
aVSM-398
p2774
aVSM-397
p2775
aVSM-396
p2776
aVSM-395
p2777
aVSM-394
p2778
aVSM-393
p2779
aVSM-392
p2780
aVSM-391
p2781
aVSM-390
p2782
aVSM-388
p2783
aVSM-387
p2784
aVSM-386
p2785
aVSM-385
p2786
aVSM-384
p2787
aVSM-383
p2788
aVSM-382
p2789
aVSM-380
p2790
aVSM-379
p2791
aVSM-378
p2792
aVSM-377
p2793
aVSM-376
p2794
aVSM-375
p2795
aVSM-374
p2796
aVSM-373
p2797
aVSM-372
p2798
aVSM-371
p2799
aVSM-370
p2800
aVSM-369
p2801
aVSM-368
p2802
aVSM-367
p2803
aVSM-366
p2804
aVSM-365
p2805
aVSM-364
p2806
aVSM-363
p2807
aVSM-362
p2808
aVSM-361
p2809
aVSM-360
p2810
aVSM-359
p2811
aVSM-358
p2812
aVSM-357
p2813
aVSM-356
p2814
aVSM-355
p2815
aVSM-354
p2816
aVSM-353
p2817
aVSM-352
p2818
aVSM-351
p2819
aVSM-350
p2820
aVSM-349
p2821
aVSM-348
p2822
aVSM-347
p2823
aVSM-346
p2824
aVSM-345
p2825
aVSM-344
p2826
aVSM-343
p2827
aVSM-342
p2828
aVSM-341
p2829
aVSM-340
p2830
aVSM-339
p2831
aVSM-338
p2832
aVSM-337
p2833
aVSM-336
p2834
aVSM-335
p2835
aVSM-334
p2836
aVSM-333
p2837
aVSM-332
p2838
aVSM-331
p2839
aVSM-330
p2840
aVSM-329
p2841
aVSM-328
p2842
aVSM-327
p2843
aVSM-326
p2844
aVSM-325
p2845
aVSM-324
p2846
aVSM-323
p2847
aVSM-321
p2848
aVSM-320
p2849
aVSM-319
p2850
aVSM-318
p2851
aVSM-317
p2852
aVSM-316
p2853
aVSM-315
p2854
aVSM-314
p2855
aVSM-313
p2856
aVSM-312
p2857
aVSM-311
p2858
aVSM-310
p2859
aVSM-309
p2860
aVSM-308
p2861
aVSM-307
p2862
aVSM-306
p2863
aVSM-305
p2864
aVSM-304
p2865
aVSM-303
p2866
aVSM-300
p2867
aVSM-299
p2868
aVSM-298
p2869
aVSM-297
p2870
aVSM-296
p2871
aVSM-295
p2872
aVSM-294
p2873
aVSM-293
p2874
aVSM-292
p2875
aVSM-291
p2876
aVSM-290
p2877
aVSM-289
p2878
aVSM-288
p2879
aVSM-287
p2880
aVSM-286
p2881
aVSM-285
p2882
aVSM-281
p2883
aVSM-279
p2884
aVSM-278
p2885
aVSM-277
p2886
aVSM-276
p2887
aVSM-275
p2888
aVSM-274
p2889
aVSM-273
p2890
aVSM-272
p2891
aVSM-271
p2892
aVSM-270
p2893
aVSM-269
p2894
aVSM-268
p2895
aVSM-267
p2896
aVSM-266
p2897
aVSM-265
p2898
aVSM-264
p2899
aVSM-263
p2900
aVSM-262
p2901
aVSM-261
p2902
aVSM-260
p2903
aVSM-259
p2904
aVSM-258
p2905
aVSM-257
p2906
aVSM-256
p2907
aVSM-255
p2908
aVSM-254
p2909
aVSM-253
p2910
aVSM-252
p2911
aVSM-251
p2912
aVSM-250
p2913
aVSM-249
p2914
aVSM-248
p2915
aVSM-247
p2916
aVSM-246
p2917
aVSM-245
p2918
aVSM-244
p2919
aVSM-243
p2920
aVSM-242
p2921
aVSM-241
p2922
aVSM-240
p2923
aVSM-239
p2924
aVSM-238
p2925
aVSM-237
p2926
aVSM-236
p2927
aVSM-235
p2928
aVSM-234
p2929
aVSM-233
p2930
aVSM-232
p2931
aVSM-231
p2932
aVSM-230
p2933
aVSM-229
p2934
aVSM-228
p2935
aVSM-227
p2936
aVSM-226
p2937
aVSM-225
p2938
aVSM-224
p2939
aVSM-223
p2940
aVSM-222
p2941
aVSM-221
p2942
aVSM-220
p2943
aVSM-219
p2944
aVSM-218
p2945
aVSM-217
p2946
aVSM-216
p2947
aVSM-215
p2948
aVSM-214
p2949
aVSM-213
p2950
aVSM-212
p2951
aVSM-211
p2952
aVSM-210
p2953
aVSM-209
p2954
aVSM-208
p2955
aVSM-207
p2956
aVSM-206
p2957
aVSM-205
p2958
aVSM-204
p2959
aVSM-203
p2960
aVSM-202
p2961
aVSM-201
p2962
aVSM-200
p2963
aVSM-199
p2964
aVSM-198
p2965
aVSM-197
p2966
aVSM-196
p2967
aVSM-195
p2968
aVSM-194
p2969
aVSM-193
p2970
aVSM-192
p2971
aVSM-191
p2972
aVSM-190
p2973
aVSM-189
p2974
aVSM-188
p2975
aVSM-187
p2976
aVSM-186
p2977
aVSM-185
p2978
aVSM-184
p2979
aVSM-183
p2980
aVSM-182
p2981
aVSM-181
p2982
aVSM-180
p2983
aVSM-179
p2984
aVSM-178
p2985
aVSM-177
p2986
aVSM-176
p2987
aVSM-175
p2988
aVSM-174
p2989
aVSM-173
p2990
aVSM-172
p2991
aVSM-171
p2992
aVSM-170
p2993
aVSM-169
p2994
aVSM-168
p2995
aVSM-167
p2996
aVSM-166
p2997
aVSM-165
p2998
aVSM-164
p2999
aVSM-163
p3000
aVSM-162
p3001
aVSM-161
p3002
aVSM-160
p3003
aVSM-159
p3004
aVSM-158
p3005
aVSM-157
p3006
aVSM-156
p3007
aVSM-155
p3008
aVSM-154
p3009
aVSM-153
p3010
aVSM-152
p3011
aVSM-151
p3012
aVSM-150
p3013
aVSM-149
p3014
aVSM-148
p3015
aVSM-147
p3016
aVSM-146
p3017
aVSM-145
p3018
aVSM-144
p3019
aVSM-143
p3020
aVSM-142
p3021
aVSM-141
p3022
aVSM-140
p3023
aVSM-139
p3024
aVSM-138
p3025
aVSM-137
p3026
aVSM-136
p3027
aVSM-135
p3028
aVSM-134
p3029
aVSM-133
p3030
aVSM-132
p3031
aVSM-131
p3032
aVSM-130
p3033
aVSM-129
p3034
aVSM-128
p3035
aVSM-127
p3036
aVSM-126
p3037
aVSM-125
p3038
aVSM-124
p3039
aVSM-123
p3040
aVSM-122
p3041
aVSM-121
p3042
aVSM-120
p3043
aVSM-119
p3044
aVSM-118
p3045
aVSM-117
p3046
aVSM-116
p3047
aVSM-115
p3048
aVSM-114
p3049
aVSM-113
p3050
aVSM-112
p3051
aVSM-111
p3052
aVSM-110
p3053
aVSM-109
p3054
aVSM-108
p3055
aVSM-107
p3056
aVSM-106
p3057
aVSM-105
p3058
aVSM-104
p3059
aVSM-103
p3060
aVSM-102
p3061
aVSM-101
p3062
aVSM-100
p3063
aVSM-99
p3064
aVSM-98
p3065
aVSM-97
p3066
aVSM-96
p3067
aVSM-95
p3068
aVSM-94
p3069
aVSM-93
p3070
aVSM-92
p3071
aVSM-91
p3072
aVSM-90
p3073
aVSM-89
p3074
aVSM-87
p3075
aVSM-86
p3076
aVSM-85
p3077
aVSM-84
p3078
aVSM-83
p3079
aVSM-82
p3080
aVSM-81
p3081
aVSM-80
p3082
aVSM-79
p3083
aVSM-78
p3084
aVSM-77
p3085
aVSM-76
p3086
aVSM-75
p3087
aVSM-74
p3088
aVSM-73
p3089
aVSM-72
p3090
aVSM-71
p3091
aVSM-70
p3092
aVSM-69
p3093
aVSM-68
p3094
aVSM-67
p3095
aVSM-66
p3096
aVSM-65
p3097
aVSM-64
p3098
aVSM-63
p3099
aVSM-62
p3100
aVSM-61
p3101
aVSM-60
p3102
aVSM-59
p3103
aVSM-58
p3104
aVSM-57
p3105
aVSM-56
p3106
aVSM-55
p3107
aVSM-54
p3108
aVSM-53
p3109
aVSM-52
p3110
aVSM-51
p3111
aVSM-50
p3112
aVSM-49
p3113
aVSM-48
p3114
aVSM-47
p3115
aVSM-46
p3116
aVSM-45
p3117
aVSM-44
p3118
aVSM-43
p3119
aVSM-42
p3120
aVSM-41
p3121
aVSM-40
p3122
aVSM-39
p3123
aVSM-38
p3124
aVSM-37
p3125
aVSM-36
p3126
aVSM-35
p3127
aVSM-34
p3128
aVSM-33
p3129
aVSM-32
p3130
aVSM-31
p3131
aVSM-30
p3132
aVSM-29
p3133
aVSM-28
p3134
aVSM-27
p3135
aVSM-26
p3136
aVSM-25
p3137
aVSM-24
p3138
aVSM-23
p3139
aVSM-22
p3140
aVSM-21
p3141
aVSM-20
p3142
aVSM-19
p3143
aVSM-18
p3144
aVSM-17
p3145
aVSM-16
p3146
aVSM-15
p3147
aVSM-14
p3148
aVSM-13
p3149
aVSM-12
p3150
aVSM-11
p3151
aVSM-10
p3152
aVSM-9
p3153
aVSM-8
p3154
aVSM-7
p3155
aVSM-6
p3156
aVSM-5
p3157
aVSM-4
p3158
aVSM-3
p3159
aVSM-2
p3160
aVSM-1
p3161
a.