(lp0
VSMXCOMP-984
p1
aVSMXCOMP-981
p2
aVSMXCOMP-980
p3
aVSMXCOMP-979
p4
aVSMXCOMP-978
p5
aVSMXCOMP-977
p6
aVSMXCOMP-976
p7
aVSMXCOMP-975
p8
aVSMXCOMP-974
p9
aVSMXCOMP-973
p10
aVSMXCOMP-972
p11
aVSMXCOMP-971
p12
aVSMXCOMP-970
p13
aVSMXCOMP-969
p14
aVSMXCOMP-968
p15
aVSMXCOMP-967
p16
aVSMXCOMP-966
p17
aVSMXCOMP-965
p18
aVSMXCOMP-964
p19
aVSMXCOMP-963
p20
aVSMXCOMP-962
p21
aVSMXCOMP-961
p22
aVSMXCOMP-960
p23
aVSMXCOMP-959
p24
aVSMXCOMP-958
p25
aVSMXCOMP-957
p26
aVSMXCOMP-956
p27
aVSMXCOMP-955
p28
aVSMXCOMP-954
p29
aVSMXCOMP-953
p30
aVSMXCOMP-952
p31
aVSMXCOMP-951
p32
aVSMXCOMP-950
p33
aVSMXCOMP-949
p34
aVSMXCOMP-948
p35
aVSMXCOMP-947
p36
aVSMXCOMP-946
p37
aVSMXCOMP-945
p38
aVSMXCOMP-944
p39
aVSMXCOMP-943
p40
aVSMXCOMP-942
p41
aVSMXCOMP-941
p42
aVSMXCOMP-940
p43
aVSMXCOMP-939
p44
aVSMXCOMP-938
p45
aVSMXCOMP-937
p46
aVSMXCOMP-936
p47
aVSMXCOMP-935
p48
aVSMXCOMP-934
p49
aVSMXCOMP-933
p50
aVSMXCOMP-932
p51
aVSMXCOMP-931
p52
aVSMXCOMP-929
p53
aVSMXCOMP-928
p54
aVSMXCOMP-927
p55
aVSMXCOMP-926
p56
aVSMXCOMP-925
p57
aVSMXCOMP-924
p58
aVSMXCOMP-923
p59
aVSMXCOMP-921
p60
aVSMXCOMP-920
p61
aVSMXCOMP-919
p62
aVSMXCOMP-918
p63
aVSMXCOMP-917
p64
aVSMXCOMP-916
p65
aVSMXCOMP-915
p66
aVSMXCOMP-914
p67
aVSMXCOMP-913
p68
aVSMXCOMP-912
p69
aVSMXCOMP-911
p70
aVSMXCOMP-910
p71
aVSMXCOMP-909
p72
aVSMXCOMP-908
p73
aVSMXCOMP-906
p74
aVSMXCOMP-905
p75
aVSMXCOMP-904
p76
aVSMXCOMP-903
p77
aVSMXCOMP-902
p78
aVSMXCOMP-901
p79
aVSMXCOMP-900
p80
aVSMXCOMP-899
p81
aVSMXCOMP-898
p82
aVSMXCOMP-897
p83
aVSMXCOMP-896
p84
aVSMXCOMP-895
p85
aVSMXCOMP-894
p86
aVSMXCOMP-893
p87
aVSMXCOMP-892
p88
aVSMXCOMP-891
p89
aVSMXCOMP-890
p90
aVSMXCOMP-889
p91
aVSMXCOMP-888
p92
aVSMXCOMP-887
p93
aVSMXCOMP-886
p94
aVSMXCOMP-885
p95
aVSMXCOMP-884
p96
aVSMXCOMP-883
p97
aVSMXCOMP-882
p98
aVSMXCOMP-881
p99
aVSMXCOMP-880
p100
aVSMXCOMP-879
p101
aVSMXCOMP-878
p102
aVSMXCOMP-877
p103
aVSMXCOMP-876
p104
aVSMXCOMP-875
p105
aVSMXCOMP-874
p106
aVSMXCOMP-873
p107
aVSMXCOMP-872
p108
aVSMXCOMP-870
p109
aVSMXCOMP-869
p110
aVSMXCOMP-868
p111
aVSMXCOMP-867
p112
aVSMXCOMP-866
p113
aVSMXCOMP-865
p114
aVSMXCOMP-864
p115
aVSMXCOMP-863
p116
aVSMXCOMP-862
p117
aVSMXCOMP-861
p118
aVSMXCOMP-860
p119
aVSMXCOMP-859
p120
aVSMXCOMP-858
p121
aVSMXCOMP-857
p122
aVSMXCOMP-856
p123
aVSMXCOMP-855
p124
aVSMXCOMP-854
p125
aVSMXCOMP-853
p126
aVSMXCOMP-852
p127
aVSMXCOMP-851
p128
aVSMXCOMP-850
p129
aVSMXCOMP-849
p130
aVSMXCOMP-848
p131
aVSMXCOMP-847
p132
aVSMXCOMP-846
p133
aVSMXCOMP-845
p134
aVSMXCOMP-844
p135
aVSMXCOMP-843
p136
aVSMXCOMP-842
p137
aVSMXCOMP-841
p138
aVSMXCOMP-840
p139
aVSMXCOMP-839
p140
aVSMXCOMP-838
p141
aVSMXCOMP-837
p142
aVSMXCOMP-836
p143
aVSMXCOMP-835
p144
aVSMXCOMP-834
p145
aVSMXCOMP-833
p146
aVSMXCOMP-832
p147
aVSMXCOMP-831
p148
aVSMXCOMP-830
p149
aVSMXCOMP-829
p150
aVSMXCOMP-828
p151
aVSMXCOMP-827
p152
aVSMXCOMP-826
p153
aVSMXCOMP-825
p154
aVSMXCOMP-824
p155
aVSMXCOMP-823
p156
aVSMXCOMP-822
p157
aVSMXCOMP-821
p158
aVSMXCOMP-820
p159
aVSMXCOMP-819
p160
aVSMXCOMP-818
p161
aVSMXCOMP-817
p162
aVSMXCOMP-816
p163
aVSMXCOMP-815
p164
aVSMXCOMP-814
p165
aVSMXCOMP-813
p166
aVSMXCOMP-812
p167
aVSMXCOMP-811
p168
aVSMXCOMP-810
p169
aVSMXCOMP-809
p170
aVSMXCOMP-808
p171
aVSMXCOMP-807
p172
aVSMXCOMP-806
p173
aVSMXCOMP-805
p174
aVSMXCOMP-804
p175
aVSMXCOMP-803
p176
aVSMXCOMP-802
p177
aVSMXCOMP-801
p178
aVSMXCOMP-800
p179
aVSMXCOMP-799
p180
aVSMXCOMP-798
p181
aVSMXCOMP-797
p182
aVSMXCOMP-796
p183
aVSMXCOMP-795
p184
aVSMXCOMP-794
p185
aVSMXCOMP-793
p186
aVSMXCOMP-792
p187
aVSMXCOMP-791
p188
aVSMXCOMP-790
p189
aVSMXCOMP-789
p190
aVSMXCOMP-788
p191
aVSMXCOMP-787
p192
aVSMXCOMP-786
p193
aVSMXCOMP-785
p194
aVSMXCOMP-784
p195
aVSMXCOMP-783
p196
aVSMXCOMP-782
p197
aVSMXCOMP-781
p198
aVSMXCOMP-780
p199
aVSMXCOMP-779
p200
aVSMXCOMP-778
p201
aVSMXCOMP-777
p202
aVSMXCOMP-776
p203
aVSMXCOMP-775
p204
aVSMXCOMP-774
p205
aVSMXCOMP-773
p206
aVSMXCOMP-772
p207
aVSMXCOMP-771
p208
aVSMXCOMP-770
p209
aVSMXCOMP-769
p210
aVSMXCOMP-768
p211
aVSMXCOMP-767
p212
aVSMXCOMP-765
p213
aVSMXCOMP-764
p214
aVSMXCOMP-763
p215
aVSMXCOMP-762
p216
aVSMXCOMP-761
p217
aVSMXCOMP-760
p218
aVSMXCOMP-759
p219
aVSMXCOMP-758
p220
aVSMXCOMP-757
p221
aVSMXCOMP-756
p222
aVSMXCOMP-755
p223
aVSMXCOMP-754
p224
aVSMXCOMP-753
p225
aVSMXCOMP-752
p226
aVSMXCOMP-751
p227
aVSMXCOMP-750
p228
aVSMXCOMP-749
p229
aVSMXCOMP-748
p230
aVSMXCOMP-747
p231
aVSMXCOMP-746
p232
aVSMXCOMP-745
p233
aVSMXCOMP-744
p234
aVSMXCOMP-743
p235
aVSMXCOMP-742
p236
aVSMXCOMP-741
p237
aVSMXCOMP-740
p238
aVSMXCOMP-739
p239
aVSMXCOMP-738
p240
aVSMXCOMP-737
p241
aVSMXCOMP-736
p242
aVSMXCOMP-735
p243
aVSMXCOMP-734
p244
aVSMXCOMP-733
p245
aVSMXCOMP-732
p246
aVSMXCOMP-731
p247
aVSMXCOMP-730
p248
aVSMXCOMP-729
p249
aVSMXCOMP-728
p250
aVSMXCOMP-727
p251
aVSMXCOMP-726
p252
aVSMXCOMP-725
p253
aVSMXCOMP-724
p254
aVSMXCOMP-723
p255
aVSMXCOMP-722
p256
aVSMXCOMP-721
p257
aVSMXCOMP-720
p258
aVSMXCOMP-719
p259
aVSMXCOMP-718
p260
aVSMXCOMP-717
p261
aVSMXCOMP-716
p262
aVSMXCOMP-715
p263
aVSMXCOMP-714
p264
aVSMXCOMP-713
p265
aVSMXCOMP-712
p266
aVSMXCOMP-711
p267
aVSMXCOMP-710
p268
aVSMXCOMP-709
p269
aVSMXCOMP-708
p270
aVSMXCOMP-707
p271
aVSMXCOMP-706
p272
aVSMXCOMP-705
p273
aVSMXCOMP-704
p274
aVSMXCOMP-703
p275
aVSMXCOMP-702
p276
aVSMXCOMP-701
p277
aVSMXCOMP-700
p278
aVSMXCOMP-699
p279
aVSMXCOMP-698
p280
aVSMXCOMP-697
p281
aVSMXCOMP-696
p282
aVSMXCOMP-695
p283
aVSMXCOMP-694
p284
aVSMXCOMP-693
p285
aVSMXCOMP-692
p286
aVSMXCOMP-691
p287
aVSMXCOMP-690
p288
aVSMXCOMP-689
p289
aVSMXCOMP-688
p290
aVSMXCOMP-687
p291
aVSMXCOMP-686
p292
aVSMXCOMP-685
p293
aVSMXCOMP-684
p294
aVSMXCOMP-683
p295
aVSMXCOMP-682
p296
aVSMXCOMP-681
p297
aVSMXCOMP-680
p298
aVSMXCOMP-679
p299
aVSMXCOMP-678
p300
aVSMXCOMP-677
p301
aVSMXCOMP-676
p302
aVSMXCOMP-675
p303
aVSMXCOMP-674
p304
aVSMXCOMP-673
p305
aVSMXCOMP-672
p306
aVSMXCOMP-671
p307
aVSMXCOMP-670
p308
aVSMXCOMP-669
p309
aVSMXCOMP-668
p310
aVSMXCOMP-667
p311
aVSMXCOMP-666
p312
aVSMXCOMP-665
p313
aVSMXCOMP-664
p314
aVSMXCOMP-663
p315
aVSMXCOMP-662
p316
aVSMXCOMP-661
p317
aVSMXCOMP-660
p318
aVSMXCOMP-659
p319
aVSMXCOMP-658
p320
aVSMXCOMP-657
p321
aVSMXCOMP-656
p322
aVSMXCOMP-655
p323
aVSMXCOMP-654
p324
aVSMXCOMP-653
p325
aVSMXCOMP-652
p326
aVSMXCOMP-651
p327
aVSMXCOMP-650
p328
aVSMXCOMP-649
p329
aVSMXCOMP-648
p330
aVSMXCOMP-647
p331
aVSMXCOMP-646
p332
aVSMXCOMP-645
p333
aVSMXCOMP-644
p334
aVSMXCOMP-643
p335
aVSMXCOMP-642
p336
aVSMXCOMP-641
p337
aVSMXCOMP-640
p338
aVSMXCOMP-639
p339
aVSMXCOMP-638
p340
aVSMXCOMP-637
p341
aVSMXCOMP-636
p342
aVSMXCOMP-635
p343
aVSMXCOMP-634
p344
aVSMXCOMP-633
p345
aVSMXCOMP-632
p346
aVSMXCOMP-631
p347
aVSMXCOMP-630
p348
aVSMXCOMP-629
p349
aVSMXCOMP-628
p350
aVSMXCOMP-627
p351
aVSMXCOMP-626
p352
aVSMXCOMP-625
p353
aVSMXCOMP-624
p354
aVSMXCOMP-623
p355
aVSMXCOMP-622
p356
aVSMXCOMP-621
p357
aVSMXCOMP-620
p358
aVSMXCOMP-618
p359
aVSMXCOMP-617
p360
aVSMXCOMP-616
p361
aVSMXCOMP-615
p362
aVSMXCOMP-614
p363
aVSMXCOMP-613
p364
aVSMXCOMP-612
p365
aVSMXCOMP-611
p366
aVSMXCOMP-610
p367
aVSMXCOMP-609
p368
aVSMXCOMP-608
p369
aVSMXCOMP-607
p370
aVSMXCOMP-606
p371
aVSMXCOMP-605
p372
aVSMXCOMP-604
p373
aVSMXCOMP-603
p374
aVSMXCOMP-602
p375
aVSMXCOMP-601
p376
aVSMXCOMP-600
p377
aVSMXCOMP-599
p378
aVSMXCOMP-598
p379
aVSMXCOMP-597
p380
aVSMXCOMP-596
p381
aVSMXCOMP-595
p382
aVSMXCOMP-594
p383
aVSMXCOMP-593
p384
aVSMXCOMP-592
p385
aVSMXCOMP-591
p386
aVSMXCOMP-590
p387
aVSMXCOMP-589
p388
aVSMXCOMP-588
p389
aVSMXCOMP-587
p390
aVSMXCOMP-586
p391
aVSMXCOMP-585
p392
aVSMXCOMP-584
p393
aVSMXCOMP-583
p394
aVSMXCOMP-582
p395
aVSMXCOMP-581
p396
aVSMXCOMP-580
p397
aVSMXCOMP-579
p398
aVSMXCOMP-578
p399
aVSMXCOMP-577
p400
aVSMXCOMP-576
p401
aVSMXCOMP-575
p402
aVSMXCOMP-574
p403
aVSMXCOMP-573
p404
aVSMXCOMP-572
p405
aVSMXCOMP-571
p406
aVSMXCOMP-570
p407
aVSMXCOMP-569
p408
aVSMXCOMP-568
p409
aVSMXCOMP-567
p410
aVSMXCOMP-566
p411
aVSMXCOMP-565
p412
aVSMXCOMP-564
p413
aVSMXCOMP-563
p414
aVSMXCOMP-562
p415
aVSMXCOMP-561
p416
aVSMXCOMP-560
p417
aVSMXCOMP-559
p418
aVSMXCOMP-558
p419
aVSMXCOMP-557
p420
aVSMXCOMP-556
p421
aVSMXCOMP-555
p422
aVSMXCOMP-554
p423
aVSMXCOMP-553
p424
aVSMXCOMP-552
p425
aVSMXCOMP-551
p426
aVSMXCOMP-550
p427
aVSMXCOMP-549
p428
aVSMXCOMP-548
p429
aVSMXCOMP-547
p430
aVSMXCOMP-546
p431
aVSMXCOMP-545
p432
aVSMXCOMP-544
p433
aVSMXCOMP-543
p434
aVSMXCOMP-542
p435
aVSMXCOMP-541
p436
aVSMXCOMP-540
p437
aVSMXCOMP-539
p438
aVSMXCOMP-538
p439
aVSMXCOMP-537
p440
aVSMXCOMP-536
p441
aVSMXCOMP-535
p442
aVSMXCOMP-534
p443
aVSMXCOMP-533
p444
aVSMXCOMP-532
p445
aVSMXCOMP-531
p446
aVSMXCOMP-530
p447
aVSMXCOMP-529
p448
aVSMXCOMP-528
p449
aVSMXCOMP-527
p450
aVSMXCOMP-526
p451
aVSMXCOMP-525
p452
aVSMXCOMP-524
p453
aVSMXCOMP-523
p454
aVSMXCOMP-522
p455
aVSMXCOMP-521
p456
aVSMXCOMP-520
p457
aVSMXCOMP-519
p458
aVSMXCOMP-518
p459
aVSMXCOMP-517
p460
aVSMXCOMP-516
p461
aVSMXCOMP-515
p462
aVSMXCOMP-514
p463
aVSMXCOMP-513
p464
aVSMXCOMP-511
p465
aVSMXCOMP-510
p466
aVSMXCOMP-509
p467
aVSMXCOMP-508
p468
aVSMXCOMP-507
p469
aVSMXCOMP-506
p470
aVSMXCOMP-505
p471
aVSMXCOMP-504
p472
aVSMXCOMP-503
p473
aVSMXCOMP-502
p474
aVSMXCOMP-501
p475
aVSMXCOMP-500
p476
aVSMXCOMP-499
p477
aVSMXCOMP-498
p478
aVSMXCOMP-497
p479
aVSMXCOMP-496
p480
aVSMXCOMP-495
p481
aVSMXCOMP-494
p482
aVSMXCOMP-493
p483
aVSMXCOMP-492
p484
aVSMXCOMP-491
p485
aVSMXCOMP-490
p486
aVSMXCOMP-489
p487
aVSMXCOMP-488
p488
aVSMXCOMP-487
p489
aVSMXCOMP-486
p490
aVSMXCOMP-485
p491
aVSMXCOMP-484
p492
aVSMXCOMP-483
p493
aVSMXCOMP-482
p494
aVSMXCOMP-481
p495
aVSMXCOMP-480
p496
aVSMXCOMP-479
p497
aVSMXCOMP-478
p498
aVSMXCOMP-477
p499
aVSMXCOMP-476
p500
aVSMXCOMP-475
p501
aVSMXCOMP-474
p502
aVSMXCOMP-473
p503
aVSMXCOMP-472
p504
aVSMXCOMP-471
p505
aVSMXCOMP-470
p506
aVSMXCOMP-469
p507
aVSMXCOMP-468
p508
aVSMXCOMP-467
p509
aVSMXCOMP-466
p510
aVSMXCOMP-465
p511
aVSMXCOMP-464
p512
aVSMXCOMP-462
p513
aVSMXCOMP-461
p514
aVSMXCOMP-460
p515
aVSMXCOMP-459
p516
aVSMXCOMP-458
p517
aVSMXCOMP-457
p518
aVSMXCOMP-455
p519
aVSMXCOMP-454
p520
aVSMXCOMP-453
p521
aVSMXCOMP-452
p522
aVSMXCOMP-451
p523
aVSMXCOMP-450
p524
aVSMXCOMP-449
p525
aVSMXCOMP-448
p526
aVSMXCOMP-447
p527
aVSMXCOMP-446
p528
aVSMXCOMP-445
p529
aVSMXCOMP-444
p530
aVSMXCOMP-443
p531
aVSMXCOMP-442
p532
aVSMXCOMP-441
p533
aVSMXCOMP-440
p534
aVSMXCOMP-439
p535
aVSMXCOMP-438
p536
aVSMXCOMP-437
p537
aVSMXCOMP-436
p538
aVSMXCOMP-435
p539
aVSMXCOMP-434
p540
aVSMXCOMP-433
p541
aVSMXCOMP-432
p542
aVSMXCOMP-431
p543
aVSMXCOMP-430
p544
aVSMXCOMP-429
p545
aVSMXCOMP-428
p546
aVSMXCOMP-427
p547
aVSMXCOMP-426
p548
aVSMXCOMP-425
p549
aVSMXCOMP-424
p550
aVSMXCOMP-423
p551
aVSMXCOMP-422
p552
aVSMXCOMP-421
p553
aVSMXCOMP-420
p554
aVSMXCOMP-419
p555
aVSMXCOMP-418
p556
aVSMXCOMP-417
p557
aVSMXCOMP-416
p558
aVSMXCOMP-415
p559
aVSMXCOMP-414
p560
aVSMXCOMP-413
p561
aVSMXCOMP-412
p562
aVSMXCOMP-411
p563
aVSMXCOMP-410
p564
aVSMXCOMP-409
p565
aVSMXCOMP-408
p566
aVSMXCOMP-407
p567
aVSMXCOMP-406
p568
aVSMXCOMP-405
p569
aVSMXCOMP-404
p570
aVSMXCOMP-403
p571
aVSMXCOMP-402
p572
aVSMXCOMP-401
p573
aVSMXCOMP-400
p574
aVSMXCOMP-399
p575
aVSMXCOMP-398
p576
aVSMXCOMP-397
p577
aVSMXCOMP-396
p578
aVSMXCOMP-395
p579
aVSMXCOMP-394
p580
aVSMXCOMP-393
p581
aVSMXCOMP-392
p582
aVSMXCOMP-391
p583
aVSMXCOMP-390
p584
aVSMXCOMP-389
p585
aVSMXCOMP-388
p586
aVSMXCOMP-387
p587
aVSMXCOMP-386
p588
aVSMXCOMP-385
p589
aVSMXCOMP-384
p590
aVSMXCOMP-383
p591
aVSMXCOMP-382
p592
aVSMXCOMP-381
p593
aVSMXCOMP-380
p594
aVSMXCOMP-379
p595
aVSMXCOMP-378
p596
aVSMXCOMP-377
p597
aVSMXCOMP-376
p598
aVSMXCOMP-375
p599
aVSMXCOMP-374
p600
aVSMXCOMP-373
p601
aVSMXCOMP-372
p602
aVSMXCOMP-371
p603
aVSMXCOMP-370
p604
aVSMXCOMP-369
p605
aVSMXCOMP-368
p606
aVSMXCOMP-367
p607
aVSMXCOMP-366
p608
aVSMXCOMP-365
p609
aVSMXCOMP-364
p610
aVSMXCOMP-363
p611
aVSMXCOMP-362
p612
aVSMXCOMP-361
p613
aVSMXCOMP-360
p614
aVSMXCOMP-359
p615
aVSMXCOMP-358
p616
aVSMXCOMP-357
p617
aVSMXCOMP-356
p618
aVSMXCOMP-355
p619
aVSMXCOMP-354
p620
aVSMXCOMP-353
p621
aVSMXCOMP-352
p622
aVSMXCOMP-351
p623
aVSMXCOMP-350
p624
aVSMXCOMP-349
p625
aVSMXCOMP-348
p626
aVSMXCOMP-347
p627
aVSMXCOMP-346
p628
aVSMXCOMP-345
p629
aVSMXCOMP-344
p630
aVSMXCOMP-343
p631
aVSMXCOMP-342
p632
aVSMXCOMP-341
p633
aVSMXCOMP-340
p634
aVSMXCOMP-339
p635
aVSMXCOMP-338
p636
aVSMXCOMP-337
p637
aVSMXCOMP-336
p638
aVSMXCOMP-335
p639
aVSMXCOMP-334
p640
aVSMXCOMP-333
p641
aVSMXCOMP-332
p642
aVSMXCOMP-331
p643
aVSMXCOMP-330
p644
aVSMXCOMP-329
p645
aVSMXCOMP-328
p646
aVSMXCOMP-327
p647
aVSMXCOMP-326
p648
aVSMXCOMP-325
p649
aVSMXCOMP-324
p650
aVSMXCOMP-323
p651
aVSMXCOMP-322
p652
aVSMXCOMP-321
p653
aVSMXCOMP-320
p654
aVSMXCOMP-319
p655
aVSMXCOMP-318
p656
aVSMXCOMP-317
p657
aVSMXCOMP-316
p658
aVSMXCOMP-315
p659
aVSMXCOMP-314
p660
aVSMXCOMP-313
p661
aVSMXCOMP-312
p662
aVSMXCOMP-311
p663
aVSMXCOMP-310
p664
aVSMXCOMP-309
p665
aVSMXCOMP-308
p666
aVSMXCOMP-307
p667
aVSMXCOMP-306
p668
aVSMXCOMP-305
p669
aVSMXCOMP-304
p670
aVSMXCOMP-303
p671
aVSMXCOMP-302
p672
aVSMXCOMP-301
p673
aVSMXCOMP-300
p674
aVSMXCOMP-299
p675
aVSMXCOMP-298
p676
aVSMXCOMP-297
p677
aVSMXCOMP-296
p678
aVSMXCOMP-295
p679
aVSMXCOMP-294
p680
aVSMXCOMP-293
p681
aVSMXCOMP-292
p682
aVSMXCOMP-291
p683
aVSMXCOMP-290
p684
aVSMXCOMP-289
p685
aVSMXCOMP-288
p686
aVSMXCOMP-287
p687
aVSMXCOMP-286
p688
aVSMXCOMP-285
p689
aVSMXCOMP-284
p690
aVSMXCOMP-283
p691
aVSMXCOMP-282
p692
aVSMXCOMP-281
p693
aVSMXCOMP-280
p694
aVSMXCOMP-279
p695
aVSMXCOMP-278
p696
aVSMXCOMP-277
p697
aVSMXCOMP-276
p698
aVSMXCOMP-275
p699
aVSMXCOMP-274
p700
aVSMXCOMP-273
p701
aVSMXCOMP-272
p702
aVSMXCOMP-271
p703
aVSMXCOMP-270
p704
aVSMXCOMP-269
p705
aVSMXCOMP-268
p706
aVSMXCOMP-267
p707
aVSMXCOMP-266
p708
aVSMXCOMP-265
p709
aVSMXCOMP-264
p710
aVSMXCOMP-263
p711
aVSMXCOMP-262
p712
aVSMXCOMP-261
p713
aVSMXCOMP-260
p714
aVSMXCOMP-259
p715
aVSMXCOMP-258
p716
aVSMXCOMP-257
p717
aVSMXCOMP-256
p718
aVSMXCOMP-255
p719
aVSMXCOMP-254
p720
aVSMXCOMP-253
p721
aVSMXCOMP-252
p722
aVSMXCOMP-251
p723
aVSMXCOMP-250
p724
aVSMXCOMP-249
p725
aVSMXCOMP-248
p726
aVSMXCOMP-247
p727
aVSMXCOMP-246
p728
aVSMXCOMP-245
p729
aVSMXCOMP-244
p730
aVSMXCOMP-243
p731
aVSMXCOMP-242
p732
aVSMXCOMP-241
p733
aVSMXCOMP-240
p734
aVSMXCOMP-239
p735
aVSMXCOMP-238
p736
aVSMXCOMP-237
p737
aVSMXCOMP-236
p738
aVSMXCOMP-235
p739
aVSMXCOMP-234
p740
aVSMXCOMP-233
p741
aVSMXCOMP-232
p742
aVSMXCOMP-231
p743
aVSMXCOMP-230
p744
aVSMXCOMP-229
p745
aVSMXCOMP-228
p746
aVSMXCOMP-227
p747
aVSMXCOMP-226
p748
aVSMXCOMP-225
p749
aVSMXCOMP-224
p750
aVSMXCOMP-223
p751
aVSMXCOMP-222
p752
aVSMXCOMP-221
p753
aVSMXCOMP-220
p754
aVSMXCOMP-219
p755
aVSMXCOMP-218
p756
aVSMXCOMP-217
p757
aVSMXCOMP-216
p758
aVSMXCOMP-215
p759
aVSMXCOMP-214
p760
aVSMXCOMP-213
p761
aVSMXCOMP-212
p762
aVSMXCOMP-211
p763
aVSMXCOMP-210
p764
aVSMXCOMP-209
p765
aVSMXCOMP-208
p766
aVSMXCOMP-207
p767
aVSMXCOMP-206
p768
aVSMXCOMP-205
p769
aVSMXCOMP-204
p770
aVSMXCOMP-203
p771
aVSMXCOMP-202
p772
aVSMXCOMP-201
p773
aVSMXCOMP-200
p774
aVSMXCOMP-199
p775
aVSMXCOMP-198
p776
aVSMXCOMP-197
p777
aVSMXCOMP-196
p778
aVSMXCOMP-195
p779
aVSMXCOMP-194
p780
aVSMXCOMP-193
p781
aVSMXCOMP-192
p782
aVSMXCOMP-191
p783
aVSMXCOMP-190
p784
aVSMXCOMP-189
p785
aVSMXCOMP-188
p786
aVSMXCOMP-187
p787
aVSMXCOMP-186
p788
aVSMXCOMP-185
p789
aVSMXCOMP-184
p790
aVSMXCOMP-183
p791
aVSMXCOMP-182
p792
aVSMXCOMP-181
p793
aVSMXCOMP-180
p794
aVSMXCOMP-179
p795
aVSMXCOMP-177
p796
aVSMXCOMP-176
p797
aVSMXCOMP-175
p798
aVSMXCOMP-174
p799
aVSMXCOMP-173
p800
aVSMXCOMP-172
p801
aVSMXCOMP-171
p802
aVSMXCOMP-170
p803
aVSMXCOMP-169
p804
aVSMXCOMP-168
p805
aVSMXCOMP-167
p806
aVSMXCOMP-166
p807
aVSMXCOMP-165
p808
aVSMXCOMP-164
p809
aVSMXCOMP-163
p810
aVSMXCOMP-162
p811
aVSMXCOMP-161
p812
aVSMXCOMP-160
p813
aVSMXCOMP-159
p814
aVSMXCOMP-158
p815
aVSMXCOMP-157
p816
aVSMXCOMP-156
p817
aVSMXCOMP-155
p818
aVSMXCOMP-154
p819
aVSMXCOMP-153
p820
aVSMXCOMP-152
p821
aVSMXCOMP-151
p822
aVSMXCOMP-150
p823
aVSMXCOMP-149
p824
aVSMXCOMP-148
p825
aVSMXCOMP-147
p826
aVSMXCOMP-146
p827
aVSMXCOMP-145
p828
aVSMXCOMP-144
p829
aVSMXCOMP-143
p830
aVSMXCOMP-142
p831
aVSMXCOMP-141
p832
aVSMXCOMP-140
p833
aVSMXCOMP-139
p834
aVSMXCOMP-138
p835
aVSMXCOMP-137
p836
aVSMXCOMP-136
p837
aVSMXCOMP-135
p838
aVSMXCOMP-134
p839
aVSMXCOMP-133
p840
aVSMXCOMP-132
p841
aVSMXCOMP-131
p842
aVSMXCOMP-130
p843
aVSMXCOMP-129
p844
aVSMXCOMP-128
p845
aVSMXCOMP-127
p846
aVSMXCOMP-126
p847
aVSMXCOMP-125
p848
aVSMXCOMP-124
p849
aVSMXCOMP-123
p850
aVSMXCOMP-122
p851
aVSMXCOMP-121
p852
aVSMXCOMP-120
p853
aVSMXCOMP-119
p854
aVSMXCOMP-118
p855
aVSMXCOMP-117
p856
aVSMXCOMP-116
p857
aVSMXCOMP-115
p858
aVSMXCOMP-114
p859
aVSMXCOMP-113
p860
aVSMXCOMP-112
p861
aVSMXCOMP-111
p862
aVSMXCOMP-110
p863
aVSMXCOMP-109
p864
aVSMXCOMP-108
p865
aVSMXCOMP-107
p866
aVSMXCOMP-106
p867
aVSMXCOMP-105
p868
aVSMXCOMP-104
p869
aVSMXCOMP-103
p870
aVSMXCOMP-102
p871
aVSMXCOMP-101
p872
aVSMXCOMP-100
p873
aVSMXCOMP-99
p874
aVSMXCOMP-98
p875
aVSMXCOMP-97
p876
aVSMXCOMP-96
p877
aVSMXCOMP-95
p878
aVSMXCOMP-94
p879
aVSMXCOMP-93
p880
aVSMXCOMP-92
p881
aVSMXCOMP-91
p882
aVSMXCOMP-90
p883
aVSMXCOMP-89
p884
aVSMXCOMP-88
p885
aVSMXCOMP-87
p886
aVSMXCOMP-86
p887
aVSMXCOMP-85
p888
aVSMXCOMP-84
p889
aVSMXCOMP-83
p890
aVSMXCOMP-82
p891
aVSMXCOMP-81
p892
aVSMXCOMP-80
p893
aVSMXCOMP-79
p894
aVSMXCOMP-78
p895
aVSMXCOMP-77
p896
aVSMXCOMP-76
p897
aVSMXCOMP-75
p898
aVSMXCOMP-74
p899
aVSMXCOMP-73
p900
aVSMXCOMP-72
p901
aVSMXCOMP-71
p902
aVSMXCOMP-70
p903
aVSMXCOMP-69
p904
aVSMXCOMP-68
p905
aVSMXCOMP-67
p906
aVSMXCOMP-66
p907
aVSMXCOMP-65
p908
aVSMXCOMP-64
p909
aVSMXCOMP-63
p910
aVSMXCOMP-62
p911
aVSMXCOMP-61
p912
aVSMXCOMP-60
p913
aVSMXCOMP-59
p914
aVSMXCOMP-58
p915
aVSMXCOMP-57
p916
aVSMXCOMP-56
p917
aVSMXCOMP-55
p918
aVSMXCOMP-54
p919
aVSMXCOMP-53
p920
aVSMXCOMP-52
p921
aVSMXCOMP-51
p922
aVSMXCOMP-50
p923
aVSMXCOMP-49
p924
aVSMXCOMP-48
p925
aVSMXCOMP-47
p926
aVSMXCOMP-46
p927
aVSMXCOMP-45
p928
aVSMXCOMP-44
p929
aVSMXCOMP-43
p930
aVSMXCOMP-42
p931
aVSMXCOMP-41
p932
aVSMXCOMP-40
p933
aVSMXCOMP-39
p934
aVSMXCOMP-38
p935
aVSMXCOMP-37
p936
aVSMXCOMP-36
p937
aVSMXCOMP-35
p938
aVSMXCOMP-34
p939
aVSMXCOMP-33
p940
aVSMXCOMP-32
p941
aVSMXCOMP-31
p942
aVSMXCOMP-30
p943
aVSMXCOMP-29
p944
aVSMXCOMP-28
p945
aVSMXCOMP-27
p946
aVSMXCOMP-26
p947
aVSMXCOMP-25
p948
aVSMXCOMP-24
p949
aVSMXCOMP-23
p950
aVSMXCOMP-22
p951
aVSMXCOMP-21
p952
aVSMXCOMP-20
p953
aVSMXCOMP-19
p954
aVSMXCOMP-18
p955
aVSMXCOMP-17
p956
aVSMXCOMP-16
p957
aVSMXCOMP-15
p958
aVSMXCOMP-14
p959
aVSMXCOMP-13
p960
aVSMXCOMP-12
p961
aVSMXCOMP-11
p962
aVSMXCOMP-10
p963
aVSMXCOMP-9
p964
aVSMXCOMP-8
p965
aVSMXCOMP-7
p966
aVSMXCOMP-6
p967
aVSMXCOMP-5
p968
aVSMXCOMP-4
p969
aVSMXCOMP-3
p970
aVSMXCOMP-2
p971
aVSMXCOMP-1
p972
a.