(lp0
VSQOOP-3356
p1
aVSQOOP-3355
p2
aVSQOOP-3354
p3
aVSQOOP-3353
p4
aVSQOOP-3352
p5
aVSQOOP-3351
p6
aVSQOOP-3350
p7
aVSQOOP-3349
p8
aVSQOOP-3348
p9
aVSQOOP-3347
p10
aVSQOOP-3346
p11
aVSQOOP-3345
p12
aVSQOOP-3344
p13
aVSQOOP-3341
p14
aVSQOOP-3339
p15
aVSQOOP-3338
p16
aVSQOOP-3337
p17
aVSQOOP-3336
p18
aVSQOOP-3335
p19
aVSQOOP-3334
p20
aVSQOOP-3333
p21
aVSQOOP-3332
p22
aVSQOOP-3331
p23
aVSQOOP-3330
p24
aVSQOOP-3329
p25
aVSQOOP-3328
p26
aVSQOOP-3327
p27
aVSQOOP-3326
p28
aVSQOOP-3325
p29
aVSQOOP-3324
p30
aVSQOOP-3323
p31
aVSQOOP-3322
p32
aVSQOOP-3321
p33
aVSQOOP-3320
p34
aVSQOOP-3319
p35
aVSQOOP-3318
p36
aVSQOOP-3317
p37
aVSQOOP-3316
p38
aVSQOOP-3315
p39
aVSQOOP-3314
p40
aVSQOOP-3313
p41
aVSQOOP-3312
p42
aVSQOOP-3311
p43
aVSQOOP-3310
p44
aVSQOOP-3309
p45
aVSQOOP-3308
p46
aVSQOOP-3307
p47
aVSQOOP-3306
p48
aVSQOOP-3305
p49
aVSQOOP-3304
p50
aVSQOOP-3303
p51
aVSQOOP-3302
p52
aVSQOOP-3301
p53
aVSQOOP-3300
p54
aVSQOOP-3299
p55
aVSQOOP-3298
p56
aVSQOOP-3297
p57
aVSQOOP-3296
p58
aVSQOOP-3295
p59
aVSQOOP-3294
p60
aVSQOOP-3293
p61
aVSQOOP-3292
p62
aVSQOOP-3291
p63
aVSQOOP-3290
p64
aVSQOOP-3289
p65
aVSQOOP-3288
p66
aVSQOOP-3287
p67
aVSQOOP-3286
p68
aVSQOOP-3285
p69
aVSQOOP-3284
p70
aVSQOOP-3283
p71
aVSQOOP-3282
p72
aVSQOOP-3281
p73
aVSQOOP-3280
p74
aVSQOOP-3279
p75
aVSQOOP-3278
p76
aVSQOOP-3277
p77
aVSQOOP-3276
p78
aVSQOOP-3275
p79
aVSQOOP-3274
p80
aVSQOOP-3273
p81
aVSQOOP-3272
p82
aVSQOOP-3271
p83
aVSQOOP-3270
p84
aVSQOOP-3269
p85
aVSQOOP-3268
p86
aVSQOOP-3267
p87
aVSQOOP-3266
p88
aVSQOOP-3265
p89
aVSQOOP-3264
p90
aVSQOOP-3263
p91
aVSQOOP-3262
p92
aVSQOOP-3261
p93
aVSQOOP-3260
p94
aVSQOOP-3259
p95
aVSQOOP-3258
p96
aVSQOOP-3257
p97
aVSQOOP-3256
p98
aVSQOOP-3255
p99
aVSQOOP-3254
p100
aVSQOOP-3253
p101
aVSQOOP-3252
p102
aVSQOOP-3251
p103
aVSQOOP-3250
p104
aVSQOOP-3249
p105
aVSQOOP-3248
p106
aVSQOOP-3247
p107
aVSQOOP-3246
p108
aVSQOOP-3245
p109
aVSQOOP-3244
p110
aVSQOOP-3243
p111
aVSQOOP-3242
p112
aVSQOOP-3241
p113
aVSQOOP-3240
p114
aVSQOOP-3239
p115
aVSQOOP-3238
p116
aVSQOOP-3237
p117
aVSQOOP-3236
p118
aVSQOOP-3235
p119
aVSQOOP-3234
p120
aVSQOOP-3233
p121
aVSQOOP-3232
p122
aVSQOOP-3231
p123
aVSQOOP-3230
p124
aVSQOOP-3229
p125
aVSQOOP-3228
p126
aVSQOOP-3227
p127
aVSQOOP-3226
p128
aVSQOOP-3225
p129
aVSQOOP-3224
p130
aVSQOOP-3223
p131
aVSQOOP-3222
p132
aVSQOOP-3221
p133
aVSQOOP-3220
p134
aVSQOOP-3219
p135
aVSQOOP-3218
p136
aVSQOOP-3217
p137
aVSQOOP-3216
p138
aVSQOOP-3215
p139
aVSQOOP-3214
p140
aVSQOOP-3213
p141
aVSQOOP-3212
p142
aVSQOOP-3211
p143
aVSQOOP-3210
p144
aVSQOOP-3209
p145
aVSQOOP-3208
p146
aVSQOOP-3207
p147
aVSQOOP-3206
p148
aVSQOOP-3205
p149
aVSQOOP-3204
p150
aVSQOOP-3203
p151
aVSQOOP-3202
p152
aVSQOOP-3201
p153
aVSQOOP-3200
p154
aVSQOOP-3199
p155
aVSQOOP-3198
p156
aVSQOOP-3197
p157
aVSQOOP-3196
p158
aVSQOOP-3195
p159
aVSQOOP-3194
p160
aVSQOOP-3193
p161
aVSQOOP-3192
p162
aVSQOOP-3191
p163
aVSQOOP-3190
p164
aVSQOOP-3189
p165
aVSQOOP-3188
p166
aVSQOOP-3187
p167
aVSQOOP-3186
p168
aVSQOOP-3185
p169
aVSQOOP-3184
p170
aVSQOOP-3183
p171
aVSQOOP-3182
p172
aVSQOOP-3181
p173
aVSQOOP-3180
p174
aVSQOOP-3179
p175
aVSQOOP-3178
p176
aVSQOOP-3177
p177
aVSQOOP-3176
p178
aVSQOOP-3175
p179
aVSQOOP-3174
p180
aVSQOOP-3173
p181
aVSQOOP-3172
p182
aVSQOOP-3171
p183
aVSQOOP-3170
p184
aVSQOOP-3169
p185
aVSQOOP-3168
p186
aVSQOOP-3167
p187
aVSQOOP-3166
p188
aVSQOOP-3165
p189
aVSQOOP-3164
p190
aVSQOOP-3163
p191
aVSQOOP-3162
p192
aVSQOOP-3161
p193
aVSQOOP-3160
p194
aVSQOOP-3159
p195
aVSQOOP-3158
p196
aVSQOOP-3157
p197
aVSQOOP-3156
p198
aVSQOOP-3155
p199
aVSQOOP-3154
p200
aVSQOOP-3153
p201
aVSQOOP-3152
p202
aVSQOOP-3151
p203
aVSQOOP-3150
p204
aVSQOOP-3149
p205
aVSQOOP-3148
p206
aVSQOOP-3147
p207
aVSQOOP-3146
p208
aVSQOOP-3145
p209
aVSQOOP-3144
p210
aVSQOOP-3143
p211
aVSQOOP-3142
p212
aVSQOOP-3141
p213
aVSQOOP-3140
p214
aVSQOOP-3139
p215
aVSQOOP-3138
p216
aVSQOOP-3137
p217
aVSQOOP-3136
p218
aVSQOOP-3135
p219
aVSQOOP-3134
p220
aVSQOOP-3133
p221
aVSQOOP-3132
p222
aVSQOOP-3131
p223
aVSQOOP-3130
p224
aVSQOOP-3129
p225
aVSQOOP-3128
p226
aVSQOOP-3127
p227
aVSQOOP-3126
p228
aVSQOOP-3125
p229
aVSQOOP-3124
p230
aVSQOOP-3123
p231
aVSQOOP-3122
p232
aVSQOOP-3121
p233
aVSQOOP-3120
p234
aVSQOOP-3119
p235
aVSQOOP-3118
p236
aVSQOOP-3117
p237
aVSQOOP-3116
p238
aVSQOOP-3115
p239
aVSQOOP-3114
p240
aVSQOOP-3113
p241
aVSQOOP-3112
p242
aVSQOOP-3111
p243
aVSQOOP-3110
p244
aVSQOOP-3109
p245
aVSQOOP-3108
p246
aVSQOOP-3107
p247
aVSQOOP-3106
p248
aVSQOOP-3105
p249
aVSQOOP-3104
p250
aVSQOOP-3103
p251
aVSQOOP-3102
p252
aVSQOOP-3101
p253
aVSQOOP-3100
p254
aVSQOOP-3099
p255
aVSQOOP-3098
p256
aVSQOOP-3097
p257
aVSQOOP-3096
p258
aVSQOOP-3095
p259
aVSQOOP-3094
p260
aVSQOOP-3093
p261
aVSQOOP-3092
p262
aVSQOOP-3091
p263
aVSQOOP-3090
p264
aVSQOOP-3089
p265
aVSQOOP-3088
p266
aVSQOOP-3087
p267
aVSQOOP-3086
p268
aVSQOOP-3085
p269
aVSQOOP-3084
p270
aVSQOOP-3083
p271
aVSQOOP-3082
p272
aVSQOOP-3081
p273
aVSQOOP-3080
p274
aVSQOOP-3079
p275
aVSQOOP-3078
p276
aVSQOOP-3077
p277
aVSQOOP-3076
p278
aVSQOOP-3075
p279
aVSQOOP-3074
p280
aVSQOOP-3073
p281
aVSQOOP-3072
p282
aVSQOOP-3071
p283
aVSQOOP-3070
p284
aVSQOOP-3069
p285
aVSQOOP-3068
p286
aVSQOOP-3067
p287
aVSQOOP-3066
p288
aVSQOOP-3065
p289
aVSQOOP-3064
p290
aVSQOOP-3063
p291
aVSQOOP-3062
p292
aVSQOOP-3061
p293
aVSQOOP-3060
p294
aVSQOOP-3059
p295
aVSQOOP-3058
p296
aVSQOOP-3057
p297
aVSQOOP-3056
p298
aVSQOOP-3055
p299
aVSQOOP-3054
p300
aVSQOOP-3053
p301
aVSQOOP-3052
p302
aVSQOOP-3051
p303
aVSQOOP-3050
p304
aVSQOOP-3049
p305
aVSQOOP-3048
p306
aVSQOOP-3047
p307
aVSQOOP-3046
p308
aVSQOOP-3045
p309
aVSQOOP-3044
p310
aVSQOOP-3043
p311
aVSQOOP-3042
p312
aVSQOOP-3041
p313
aVSQOOP-3040
p314
aVSQOOP-3039
p315
aVSQOOP-3038
p316
aVSQOOP-3037
p317
aVSQOOP-3036
p318
aVSQOOP-3035
p319
aVSQOOP-3034
p320
aVSQOOP-3033
p321
aVSQOOP-3032
p322
aVSQOOP-3031
p323
aVSQOOP-3030
p324
aVSQOOP-3029
p325
aVSQOOP-3028
p326
aVSQOOP-3027
p327
aVSQOOP-3026
p328
aVSQOOP-3025
p329
aVSQOOP-3024
p330
aVSQOOP-3023
p331
aVSQOOP-3022
p332
aVSQOOP-3021
p333
aVSQOOP-3020
p334
aVSQOOP-3019
p335
aVSQOOP-3018
p336
aVSQOOP-3017
p337
aVSQOOP-3016
p338
aVSQOOP-3015
p339
aVSQOOP-3014
p340
aVSQOOP-3013
p341
aVSQOOP-3012
p342
aVSQOOP-3011
p343
aVSQOOP-3010
p344
aVSQOOP-3009
p345
aVSQOOP-3008
p346
aVSQOOP-3007
p347
aVSQOOP-3006
p348
aVSQOOP-3005
p349
aVSQOOP-3004
p350
aVSQOOP-3003
p351
aVSQOOP-3002
p352
aVSQOOP-3001
p353
aVSQOOP-3000
p354
aVSQOOP-2999
p355
aVSQOOP-2998
p356
aVSQOOP-2997
p357
aVSQOOP-2996
p358
aVSQOOP-2995
p359
aVSQOOP-2994
p360
aVSQOOP-2993
p361
aVSQOOP-2992
p362
aVSQOOP-2991
p363
aVSQOOP-2990
p364
aVSQOOP-2989
p365
aVSQOOP-2988
p366
aVSQOOP-2987
p367
aVSQOOP-2986
p368
aVSQOOP-2985
p369
aVSQOOP-2984
p370
aVSQOOP-2983
p371
aVSQOOP-2982
p372
aVSQOOP-2981
p373
aVSQOOP-2980
p374
aVSQOOP-2979
p375
aVSQOOP-2978
p376
aVSQOOP-2977
p377
aVSQOOP-2976
p378
aVSQOOP-2975
p379
aVSQOOP-2974
p380
aVSQOOP-2973
p381
aVSQOOP-2972
p382
aVSQOOP-2971
p383
aVSQOOP-2970
p384
aVSQOOP-2966
p385
aVSQOOP-2965
p386
aVSQOOP-2964
p387
aVSQOOP-2963
p388
aVSQOOP-2962
p389
aVSQOOP-2961
p390
aVSQOOP-2960
p391
aVSQOOP-2959
p392
aVSQOOP-2958
p393
aVSQOOP-2957
p394
aVSQOOP-2956
p395
aVSQOOP-2955
p396
aVSQOOP-2954
p397
aVSQOOP-2953
p398
aVSQOOP-2952
p399
aVSQOOP-2951
p400
aVSQOOP-2950
p401
aVSQOOP-2949
p402
aVSQOOP-2948
p403
aVSQOOP-2947
p404
aVSQOOP-2946
p405
aVSQOOP-2945
p406
aVSQOOP-2944
p407
aVSQOOP-2943
p408
aVSQOOP-2942
p409
aVSQOOP-2941
p410
aVSQOOP-2940
p411
aVSQOOP-2939
p412
aVSQOOP-2938
p413
aVSQOOP-2937
p414
aVSQOOP-2936
p415
aVSQOOP-2935
p416
aVSQOOP-2934
p417
aVSQOOP-2933
p418
aVSQOOP-2932
p419
aVSQOOP-2931
p420
aVSQOOP-2930
p421
aVSQOOP-2929
p422
aVSQOOP-2928
p423
aVSQOOP-2927
p424
aVSQOOP-2926
p425
aVSQOOP-2925
p426
aVSQOOP-2924
p427
aVSQOOP-2923
p428
aVSQOOP-2922
p429
aVSQOOP-2921
p430
aVSQOOP-2920
p431
aVSQOOP-2919
p432
aVSQOOP-2918
p433
aVSQOOP-2917
p434
aVSQOOP-2916
p435
aVSQOOP-2915
p436
aVSQOOP-2914
p437
aVSQOOP-2913
p438
aVSQOOP-2912
p439
aVSQOOP-2911
p440
aVSQOOP-2910
p441
aVSQOOP-2909
p442
aVSQOOP-2908
p443
aVSQOOP-2907
p444
aVSQOOP-2906
p445
aVSQOOP-2905
p446
aVSQOOP-2904
p447
aVSQOOP-2903
p448
aVSQOOP-2902
p449
aVSQOOP-2901
p450
aVSQOOP-2900
p451
aVSQOOP-2899
p452
aVSQOOP-2898
p453
aVSQOOP-2897
p454
aVSQOOP-2896
p455
aVSQOOP-2895
p456
aVSQOOP-2894
p457
aVSQOOP-2893
p458
aVSQOOP-2892
p459
aVSQOOP-2891
p460
aVSQOOP-2890
p461
aVSQOOP-2889
p462
aVSQOOP-2888
p463
aVSQOOP-2887
p464
aVSQOOP-2886
p465
aVSQOOP-2885
p466
aVSQOOP-2884
p467
aVSQOOP-2883
p468
aVSQOOP-2882
p469
aVSQOOP-2881
p470
aVSQOOP-2880
p471
aVSQOOP-2879
p472
aVSQOOP-2878
p473
aVSQOOP-2877
p474
aVSQOOP-2876
p475
aVSQOOP-2875
p476
aVSQOOP-2874
p477
aVSQOOP-2873
p478
aVSQOOP-2872
p479
aVSQOOP-2871
p480
aVSQOOP-2870
p481
aVSQOOP-2869
p482
aVSQOOP-2868
p483
aVSQOOP-2867
p484
aVSQOOP-2866
p485
aVSQOOP-2865
p486
aVSQOOP-2864
p487
aVSQOOP-2863
p488
aVSQOOP-2862
p489
aVSQOOP-2861
p490
aVSQOOP-2860
p491
aVSQOOP-2859
p492
aVSQOOP-2858
p493
aVSQOOP-2857
p494
aVSQOOP-2856
p495
aVSQOOP-2855
p496
aVSQOOP-2854
p497
aVSQOOP-2853
p498
aVSQOOP-2852
p499
aVSQOOP-2851
p500
aVSQOOP-2850
p501
aVSQOOP-2849
p502
aVSQOOP-2848
p503
aVSQOOP-2847
p504
aVSQOOP-2846
p505
aVSQOOP-2845
p506
aVSQOOP-2844
p507
aVSQOOP-2843
p508
aVSQOOP-2842
p509
aVSQOOP-2841
p510
aVSQOOP-2840
p511
aVSQOOP-2839
p512
aVSQOOP-2838
p513
aVSQOOP-2837
p514
aVSQOOP-2836
p515
aVSQOOP-2835
p516
aVSQOOP-2834
p517
aVSQOOP-2833
p518
aVSQOOP-2832
p519
aVSQOOP-2831
p520
aVSQOOP-2830
p521
aVSQOOP-2829
p522
aVSQOOP-2828
p523
aVSQOOP-2827
p524
aVSQOOP-2826
p525
aVSQOOP-2825
p526
aVSQOOP-2824
p527
aVSQOOP-2823
p528
aVSQOOP-2822
p529
aVSQOOP-2821
p530
aVSQOOP-2820
p531
aVSQOOP-2819
p532
aVSQOOP-2818
p533
aVSQOOP-2817
p534
aVSQOOP-2816
p535
aVSQOOP-2815
p536
aVSQOOP-2814
p537
aVSQOOP-2813
p538
aVSQOOP-2812
p539
aVSQOOP-2811
p540
aVSQOOP-2810
p541
aVSQOOP-2809
p542
aVSQOOP-2808
p543
aVSQOOP-2807
p544
aVSQOOP-2806
p545
aVSQOOP-2805
p546
aVSQOOP-2804
p547
aVSQOOP-2803
p548
aVSQOOP-2802
p549
aVSQOOP-2801
p550
aVSQOOP-2800
p551
aVSQOOP-2799
p552
aVSQOOP-2798
p553
aVSQOOP-2797
p554
aVSQOOP-2796
p555
aVSQOOP-2795
p556
aVSQOOP-2794
p557
aVSQOOP-2793
p558
aVSQOOP-2792
p559
aVSQOOP-2791
p560
aVSQOOP-2790
p561
aVSQOOP-2789
p562
aVSQOOP-2788
p563
aVSQOOP-2787
p564
aVSQOOP-2786
p565
aVSQOOP-2785
p566
aVSQOOP-2784
p567
aVSQOOP-2783
p568
aVSQOOP-2782
p569
aVSQOOP-2781
p570
aVSQOOP-2780
p571
aVSQOOP-2779
p572
aVSQOOP-2778
p573
aVSQOOP-2777
p574
aVSQOOP-2776
p575
aVSQOOP-2775
p576
aVSQOOP-2774
p577
aVSQOOP-2773
p578
aVSQOOP-2772
p579
aVSQOOP-2771
p580
aVSQOOP-2770
p581
aVSQOOP-2769
p582
aVSQOOP-2768
p583
aVSQOOP-2767
p584
aVSQOOP-2766
p585
aVSQOOP-2765
p586
aVSQOOP-2764
p587
aVSQOOP-2763
p588
aVSQOOP-2762
p589
aVSQOOP-2761
p590
aVSQOOP-2760
p591
aVSQOOP-2759
p592
aVSQOOP-2758
p593
aVSQOOP-2757
p594
aVSQOOP-2756
p595
aVSQOOP-2755
p596
aVSQOOP-2754
p597
aVSQOOP-2753
p598
aVSQOOP-2752
p599
aVSQOOP-2751
p600
aVSQOOP-2750
p601
aVSQOOP-2749
p602
aVSQOOP-2748
p603
aVSQOOP-2747
p604
aVSQOOP-2746
p605
aVSQOOP-2745
p606
aVSQOOP-2744
p607
aVSQOOP-2743
p608
aVSQOOP-2742
p609
aVSQOOP-2741
p610
aVSQOOP-2740
p611
aVSQOOP-2739
p612
aVSQOOP-2738
p613
aVSQOOP-2737
p614
aVSQOOP-2736
p615
aVSQOOP-2735
p616
aVSQOOP-2734
p617
aVSQOOP-2733
p618
aVSQOOP-2732
p619
aVSQOOP-2731
p620
aVSQOOP-2730
p621
aVSQOOP-2729
p622
aVSQOOP-2728
p623
aVSQOOP-2727
p624
aVSQOOP-2726
p625
aVSQOOP-2725
p626
aVSQOOP-2724
p627
aVSQOOP-2723
p628
aVSQOOP-2722
p629
aVSQOOP-2721
p630
aVSQOOP-2720
p631
aVSQOOP-2719
p632
aVSQOOP-2718
p633
aVSQOOP-2717
p634
aVSQOOP-2716
p635
aVSQOOP-2715
p636
aVSQOOP-2714
p637
aVSQOOP-2713
p638
aVSQOOP-2712
p639
aVSQOOP-2711
p640
aVSQOOP-2710
p641
aVSQOOP-2709
p642
aVSQOOP-2708
p643
aVSQOOP-2707
p644
aVSQOOP-2706
p645
aVSQOOP-2705
p646
aVSQOOP-2704
p647
aVSQOOP-2703
p648
aVSQOOP-2702
p649
aVSQOOP-2701
p650
aVSQOOP-2700
p651
aVSQOOP-2699
p652
aVSQOOP-2698
p653
aVSQOOP-2697
p654
aVSQOOP-2696
p655
aVSQOOP-2695
p656
aVSQOOP-2694
p657
aVSQOOP-2693
p658
aVSQOOP-2692
p659
aVSQOOP-2691
p660
aVSQOOP-2690
p661
aVSQOOP-2689
p662
aVSQOOP-2688
p663
aVSQOOP-2687
p664
aVSQOOP-2686
p665
aVSQOOP-2685
p666
aVSQOOP-2684
p667
aVSQOOP-2683
p668
aVSQOOP-2682
p669
aVSQOOP-2681
p670
aVSQOOP-2680
p671
aVSQOOP-2679
p672
aVSQOOP-2678
p673
aVSQOOP-2677
p674
aVSQOOP-2676
p675
aVSQOOP-2675
p676
aVSQOOP-2674
p677
aVSQOOP-2673
p678
aVSQOOP-2672
p679
aVSQOOP-2671
p680
aVSQOOP-2670
p681
aVSQOOP-2669
p682
aVSQOOP-2668
p683
aVSQOOP-2667
p684
aVSQOOP-2666
p685
aVSQOOP-2665
p686
aVSQOOP-2664
p687
aVSQOOP-2663
p688
aVSQOOP-2662
p689
aVSQOOP-2661
p690
aVSQOOP-2660
p691
aVSQOOP-2659
p692
aVSQOOP-2658
p693
aVSQOOP-2657
p694
aVSQOOP-2656
p695
aVSQOOP-2655
p696
aVSQOOP-2654
p697
aVSQOOP-2653
p698
aVSQOOP-2652
p699
aVSQOOP-2651
p700
aVSQOOP-2650
p701
aVSQOOP-2649
p702
aVSQOOP-2648
p703
aVSQOOP-2647
p704
aVSQOOP-2646
p705
aVSQOOP-2645
p706
aVSQOOP-2644
p707
aVSQOOP-2643
p708
aVSQOOP-2642
p709
aVSQOOP-2641
p710
aVSQOOP-2640
p711
aVSQOOP-2639
p712
aVSQOOP-2638
p713
aVSQOOP-2637
p714
aVSQOOP-2636
p715
aVSQOOP-2635
p716
aVSQOOP-2634
p717
aVSQOOP-2633
p718
aVSQOOP-2632
p719
aVSQOOP-2631
p720
aVSQOOP-2630
p721
aVSQOOP-2629
p722
aVSQOOP-2628
p723
aVSQOOP-2627
p724
aVSQOOP-2626
p725
aVSQOOP-2625
p726
aVSQOOP-2624
p727
aVSQOOP-2623
p728
aVSQOOP-2622
p729
aVSQOOP-2621
p730
aVSQOOP-2620
p731
aVSQOOP-2619
p732
aVSQOOP-2618
p733
aVSQOOP-2617
p734
aVSQOOP-2616
p735
aVSQOOP-2615
p736
aVSQOOP-2614
p737
aVSQOOP-2613
p738
aVSQOOP-2612
p739
aVSQOOP-2611
p740
aVSQOOP-2610
p741
aVSQOOP-2609
p742
aVSQOOP-2608
p743
aVSQOOP-2607
p744
aVSQOOP-2606
p745
aVSQOOP-2605
p746
aVSQOOP-2604
p747
aVSQOOP-2603
p748
aVSQOOP-2602
p749
aVSQOOP-2601
p750
aVSQOOP-2600
p751
aVSQOOP-2599
p752
aVSQOOP-2598
p753
aVSQOOP-2597
p754
aVSQOOP-2596
p755
aVSQOOP-2595
p756
aVSQOOP-2594
p757
aVSQOOP-2593
p758
aVSQOOP-2592
p759
aVSQOOP-2591
p760
aVSQOOP-2590
p761
aVSQOOP-2589
p762
aVSQOOP-2588
p763
aVSQOOP-2587
p764
aVSQOOP-2586
p765
aVSQOOP-2585
p766
aVSQOOP-2584
p767
aVSQOOP-2583
p768
aVSQOOP-2582
p769
aVSQOOP-2581
p770
aVSQOOP-2580
p771
aVSQOOP-2579
p772
aVSQOOP-2578
p773
aVSQOOP-2577
p774
aVSQOOP-2576
p775
aVSQOOP-2575
p776
aVSQOOP-2574
p777
aVSQOOP-2573
p778
aVSQOOP-2572
p779
aVSQOOP-2571
p780
aVSQOOP-2570
p781
aVSQOOP-2569
p782
aVSQOOP-2568
p783
aVSQOOP-2567
p784
aVSQOOP-2566
p785
aVSQOOP-2565
p786
aVSQOOP-2564
p787
aVSQOOP-2563
p788
aVSQOOP-2562
p789
aVSQOOP-2561
p790
aVSQOOP-2560
p791
aVSQOOP-2559
p792
aVSQOOP-2558
p793
aVSQOOP-2557
p794
aVSQOOP-2556
p795
aVSQOOP-2555
p796
aVSQOOP-2554
p797
aVSQOOP-2553
p798
aVSQOOP-2552
p799
aVSQOOP-2551
p800
aVSQOOP-2550
p801
aVSQOOP-2549
p802
aVSQOOP-2548
p803
aVSQOOP-2547
p804
aVSQOOP-2546
p805
aVSQOOP-2545
p806
aVSQOOP-2544
p807
aVSQOOP-2543
p808
aVSQOOP-2542
p809
aVSQOOP-2541
p810
aVSQOOP-2540
p811
aVSQOOP-2539
p812
aVSQOOP-2538
p813
aVSQOOP-2537
p814
aVSQOOP-2536
p815
aVSQOOP-2535
p816
aVSQOOP-2534
p817
aVSQOOP-2533
p818
aVSQOOP-2532
p819
aVSQOOP-2531
p820
aVSQOOP-2530
p821
aVSQOOP-2529
p822
aVSQOOP-2528
p823
aVSQOOP-2527
p824
aVSQOOP-2526
p825
aVSQOOP-2525
p826
aVSQOOP-2524
p827
aVSQOOP-2523
p828
aVSQOOP-2522
p829
aVSQOOP-2521
p830
aVSQOOP-2520
p831
aVSQOOP-2519
p832
aVSQOOP-2518
p833
aVSQOOP-2517
p834
aVSQOOP-2516
p835
aVSQOOP-2515
p836
aVSQOOP-2514
p837
aVSQOOP-2513
p838
aVSQOOP-2512
p839
aVSQOOP-2511
p840
aVSQOOP-2510
p841
aVSQOOP-2509
p842
aVSQOOP-2508
p843
aVSQOOP-2507
p844
aVSQOOP-2506
p845
aVSQOOP-2505
p846
aVSQOOP-2504
p847
aVSQOOP-2503
p848
aVSQOOP-2502
p849
aVSQOOP-2501
p850
aVSQOOP-2500
p851
aVSQOOP-2499
p852
aVSQOOP-2498
p853
aVSQOOP-2497
p854
aVSQOOP-2496
p855
aVSQOOP-2495
p856
aVSQOOP-2494
p857
aVSQOOP-2493
p858
aVSQOOP-2492
p859
aVSQOOP-2491
p860
aVSQOOP-2490
p861
aVSQOOP-2489
p862
aVSQOOP-2488
p863
aVSQOOP-2487
p864
aVSQOOP-2486
p865
aVSQOOP-2485
p866
aVSQOOP-2484
p867
aVSQOOP-2483
p868
aVSQOOP-2482
p869
aVSQOOP-2481
p870
aVSQOOP-2480
p871
aVSQOOP-2479
p872
aVSQOOP-2478
p873
aVSQOOP-2477
p874
aVSQOOP-2476
p875
aVSQOOP-2475
p876
aVSQOOP-2474
p877
aVSQOOP-2473
p878
aVSQOOP-2472
p879
aVSQOOP-2471
p880
aVSQOOP-2470
p881
aVSQOOP-2469
p882
aVSQOOP-2468
p883
aVSQOOP-2467
p884
aVSQOOP-2466
p885
aVSQOOP-2465
p886
aVSQOOP-2464
p887
aVSQOOP-2463
p888
aVSQOOP-2462
p889
aVSQOOP-2461
p890
aVSQOOP-2460
p891
aVSQOOP-2459
p892
aVSQOOP-2458
p893
aVSQOOP-2457
p894
aVSQOOP-2456
p895
aVSQOOP-2455
p896
aVSQOOP-2454
p897
aVSQOOP-2453
p898
aVSQOOP-2452
p899
aVSQOOP-2451
p900
aVSQOOP-2450
p901
aVSQOOP-2449
p902
aVSQOOP-2448
p903
aVSQOOP-2447
p904
aVSQOOP-2446
p905
aVSQOOP-2445
p906
aVSQOOP-2444
p907
aVSQOOP-2443
p908
aVSQOOP-2442
p909
aVSQOOP-2441
p910
aVSQOOP-2440
p911
aVSQOOP-2439
p912
aVSQOOP-2438
p913
aVSQOOP-2437
p914
aVSQOOP-2436
p915
aVSQOOP-2435
p916
aVSQOOP-2434
p917
aVSQOOP-2433
p918
aVSQOOP-2432
p919
aVSQOOP-2431
p920
aVSQOOP-2430
p921
aVSQOOP-2429
p922
aVSQOOP-2428
p923
aVSQOOP-2427
p924
aVSQOOP-2426
p925
aVSQOOP-2425
p926
aVSQOOP-2424
p927
aVSQOOP-2423
p928
aVSQOOP-2422
p929
aVSQOOP-2421
p930
aVSQOOP-2420
p931
aVSQOOP-2419
p932
aVSQOOP-2418
p933
aVSQOOP-2417
p934
aVSQOOP-2416
p935
aVSQOOP-2415
p936
aVSQOOP-2414
p937
aVSQOOP-2413
p938
aVSQOOP-2412
p939
aVSQOOP-2411
p940
aVSQOOP-2410
p941
aVSQOOP-2409
p942
aVSQOOP-2408
p943
aVSQOOP-2407
p944
aVSQOOP-2406
p945
aVSQOOP-2405
p946
aVSQOOP-2404
p947
aVSQOOP-2403
p948
aVSQOOP-2402
p949
aVSQOOP-2401
p950
aVSQOOP-2400
p951
aVSQOOP-2399
p952
aVSQOOP-2398
p953
aVSQOOP-2397
p954
aVSQOOP-2396
p955
aVSQOOP-2395
p956
aVSQOOP-2394
p957
aVSQOOP-2393
p958
aVSQOOP-2392
p959
aVSQOOP-2391
p960
aVSQOOP-2390
p961
aVSQOOP-2389
p962
aVSQOOP-2388
p963
aVSQOOP-2387
p964
aVSQOOP-2386
p965
aVSQOOP-2385
p966
aVSQOOP-2384
p967
aVSQOOP-2383
p968
aVSQOOP-2382
p969
aVSQOOP-2381
p970
aVSQOOP-2380
p971
aVSQOOP-2379
p972
aVSQOOP-2378
p973
aVSQOOP-2377
p974
aVSQOOP-2376
p975
aVSQOOP-2375
p976
aVSQOOP-2374
p977
aVSQOOP-2373
p978
aVSQOOP-2372
p979
aVSQOOP-2371
p980
aVSQOOP-2370
p981
aVSQOOP-2369
p982
aVSQOOP-2368
p983
aVSQOOP-2367
p984
aVSQOOP-2366
p985
aVSQOOP-2365
p986
aVSQOOP-2364
p987
aVSQOOP-2363
p988
aVSQOOP-2362
p989
aVSQOOP-2361
p990
aVSQOOP-2360
p991
aVSQOOP-2359
p992
aVSQOOP-2358
p993
aVSQOOP-2357
p994
aVSQOOP-2356
p995
aVSQOOP-2355
p996
aVSQOOP-2354
p997
aVSQOOP-2353
p998
aVSQOOP-2352
p999
aVSQOOP-2351
p1000
aVSQOOP-2350
p1001
aVSQOOP-2349
p1002
aVSQOOP-2348
p1003
aVSQOOP-2347
p1004
aVSQOOP-2346
p1005
aVSQOOP-2345
p1006
aVSQOOP-2344
p1007
aVSQOOP-2343
p1008
aVSQOOP-2342
p1009
aVSQOOP-2341
p1010
aVSQOOP-2340
p1011
aVSQOOP-2339
p1012
aVSQOOP-2338
p1013
aVSQOOP-2337
p1014
aVSQOOP-2336
p1015
aVSQOOP-2335
p1016
aVSQOOP-2334
p1017
aVSQOOP-2333
p1018
aVSQOOP-2332
p1019
aVSQOOP-2331
p1020
aVSQOOP-2330
p1021
aVSQOOP-2329
p1022
aVSQOOP-2328
p1023
aVSQOOP-2327
p1024
aVSQOOP-2326
p1025
aVSQOOP-2325
p1026
aVSQOOP-2324
p1027
aVSQOOP-2323
p1028
aVSQOOP-2322
p1029
aVSQOOP-2321
p1030
aVSQOOP-2320
p1031
aVSQOOP-2319
p1032
aVSQOOP-2318
p1033
aVSQOOP-2317
p1034
aVSQOOP-2316
p1035
aVSQOOP-2315
p1036
aVSQOOP-2314
p1037
aVSQOOP-2313
p1038
aVSQOOP-2312
p1039
aVSQOOP-2311
p1040
aVSQOOP-2310
p1041
aVSQOOP-2309
p1042
aVSQOOP-2308
p1043
aVSQOOP-2307
p1044
aVSQOOP-2306
p1045
aVSQOOP-2305
p1046
aVSQOOP-2304
p1047
aVSQOOP-2303
p1048
aVSQOOP-2302
p1049
aVSQOOP-2301
p1050
aVSQOOP-2300
p1051
aVSQOOP-2299
p1052
aVSQOOP-2298
p1053
aVSQOOP-2297
p1054
aVSQOOP-2296
p1055
aVSQOOP-2295
p1056
aVSQOOP-2294
p1057
aVSQOOP-2293
p1058
aVSQOOP-2292
p1059
aVSQOOP-2291
p1060
aVSQOOP-2290
p1061
aVSQOOP-2289
p1062
aVSQOOP-2288
p1063
aVSQOOP-2287
p1064
aVSQOOP-2286
p1065
aVSQOOP-2285
p1066
aVSQOOP-2284
p1067
aVSQOOP-2283
p1068
aVSQOOP-2282
p1069
aVSQOOP-2281
p1070
aVSQOOP-2280
p1071
aVSQOOP-2279
p1072
aVSQOOP-2278
p1073
aVSQOOP-2277
p1074
aVSQOOP-2276
p1075
aVSQOOP-2275
p1076
aVSQOOP-2274
p1077
aVSQOOP-2273
p1078
aVSQOOP-2272
p1079
aVSQOOP-2271
p1080
aVSQOOP-2270
p1081
aVSQOOP-2269
p1082
aVSQOOP-2268
p1083
aVSQOOP-2267
p1084
aVSQOOP-2266
p1085
aVSQOOP-2265
p1086
aVSQOOP-2264
p1087
aVSQOOP-2263
p1088
aVSQOOP-2262
p1089
aVSQOOP-2261
p1090
aVSQOOP-2260
p1091
aVSQOOP-2259
p1092
aVSQOOP-2258
p1093
aVSQOOP-2257
p1094
aVSQOOP-2256
p1095
aVSQOOP-2255
p1096
aVSQOOP-2254
p1097
aVSQOOP-2253
p1098
aVSQOOP-2252
p1099
aVSQOOP-2251
p1100
aVSQOOP-2250
p1101
aVSQOOP-2249
p1102
aVSQOOP-2248
p1103
aVSQOOP-2247
p1104
aVSQOOP-2246
p1105
aVSQOOP-2245
p1106
aVSQOOP-2244
p1107
aVSQOOP-2243
p1108
aVSQOOP-2242
p1109
aVSQOOP-2241
p1110
aVSQOOP-2240
p1111
aVSQOOP-2239
p1112
aVSQOOP-2238
p1113
aVSQOOP-2237
p1114
aVSQOOP-2236
p1115
aVSQOOP-2235
p1116
aVSQOOP-2234
p1117
aVSQOOP-2233
p1118
aVSQOOP-2232
p1119
aVSQOOP-2231
p1120
aVSQOOP-2230
p1121
aVSQOOP-2229
p1122
aVSQOOP-2228
p1123
aVSQOOP-2227
p1124
aVSQOOP-2226
p1125
aVSQOOP-2225
p1126
aVSQOOP-2224
p1127
aVSQOOP-2223
p1128
aVSQOOP-2222
p1129
aVSQOOP-2221
p1130
aVSQOOP-2220
p1131
aVSQOOP-2219
p1132
aVSQOOP-2218
p1133
aVSQOOP-2217
p1134
aVSQOOP-2216
p1135
aVSQOOP-2215
p1136
aVSQOOP-2214
p1137
aVSQOOP-2213
p1138
aVSQOOP-2212
p1139
aVSQOOP-2211
p1140
aVSQOOP-2210
p1141
aVSQOOP-2209
p1142
aVSQOOP-2208
p1143
aVSQOOP-2207
p1144
aVSQOOP-2206
p1145
aVSQOOP-2205
p1146
aVSQOOP-2204
p1147
aVSQOOP-2203
p1148
aVSQOOP-2202
p1149
aVSQOOP-2201
p1150
aVSQOOP-2200
p1151
aVSQOOP-2199
p1152
aVSQOOP-2198
p1153
aVSQOOP-2197
p1154
aVSQOOP-2196
p1155
aVSQOOP-2195
p1156
aVSQOOP-2194
p1157
aVSQOOP-2193
p1158
aVSQOOP-2192
p1159
aVSQOOP-2191
p1160
aVSQOOP-2190
p1161
aVSQOOP-2189
p1162
aVSQOOP-2188
p1163
aVSQOOP-2187
p1164
aVSQOOP-2186
p1165
aVSQOOP-2185
p1166
aVSQOOP-2184
p1167
aVSQOOP-2183
p1168
aVSQOOP-2182
p1169
aVSQOOP-2181
p1170
aVSQOOP-2180
p1171
aVSQOOP-2179
p1172
aVSQOOP-2178
p1173
aVSQOOP-2177
p1174
aVSQOOP-2176
p1175
aVSQOOP-2175
p1176
aVSQOOP-2174
p1177
aVSQOOP-2173
p1178
aVSQOOP-2172
p1179
aVSQOOP-2171
p1180
aVSQOOP-2170
p1181
aVSQOOP-2169
p1182
aVSQOOP-2168
p1183
aVSQOOP-2167
p1184
aVSQOOP-2166
p1185
aVSQOOP-2165
p1186
aVSQOOP-2164
p1187
aVSQOOP-2163
p1188
aVSQOOP-2162
p1189
aVSQOOP-2161
p1190
aVSQOOP-2160
p1191
aVSQOOP-2159
p1192
aVSQOOP-2158
p1193
aVSQOOP-2157
p1194
aVSQOOP-2156
p1195
aVSQOOP-2155
p1196
aVSQOOP-2154
p1197
aVSQOOP-2153
p1198
aVSQOOP-2152
p1199
aVSQOOP-2151
p1200
aVSQOOP-2150
p1201
aVSQOOP-2149
p1202
aVSQOOP-2148
p1203
aVSQOOP-2147
p1204
aVSQOOP-2146
p1205
aVSQOOP-2145
p1206
aVSQOOP-2144
p1207
aVSQOOP-2143
p1208
aVSQOOP-2142
p1209
aVSQOOP-2141
p1210
aVSQOOP-2140
p1211
aVSQOOP-2139
p1212
aVSQOOP-2138
p1213
aVSQOOP-2137
p1214
aVSQOOP-2136
p1215
aVSQOOP-2135
p1216
aVSQOOP-2134
p1217
aVSQOOP-2133
p1218
aVSQOOP-2132
p1219
aVSQOOP-2131
p1220
aVSQOOP-2130
p1221
aVSQOOP-2129
p1222
aVSQOOP-2128
p1223
aVSQOOP-2127
p1224
aVSQOOP-2126
p1225
aVSQOOP-2125
p1226
aVSQOOP-2124
p1227
aVSQOOP-2123
p1228
aVSQOOP-2122
p1229
aVSQOOP-2121
p1230
aVSQOOP-2120
p1231
aVSQOOP-2119
p1232
aVSQOOP-2118
p1233
aVSQOOP-2117
p1234
aVSQOOP-2116
p1235
aVSQOOP-2115
p1236
aVSQOOP-2114
p1237
aVSQOOP-2113
p1238
aVSQOOP-2112
p1239
aVSQOOP-2111
p1240
aVSQOOP-2110
p1241
aVSQOOP-2109
p1242
aVSQOOP-2108
p1243
aVSQOOP-2107
p1244
aVSQOOP-2106
p1245
aVSQOOP-2105
p1246
aVSQOOP-2104
p1247
aVSQOOP-2103
p1248
aVSQOOP-2102
p1249
aVSQOOP-2101
p1250
aVSQOOP-2100
p1251
aVSQOOP-2099
p1252
aVSQOOP-2098
p1253
aVSQOOP-2097
p1254
aVSQOOP-2096
p1255
aVSQOOP-2095
p1256
aVSQOOP-2094
p1257
aVSQOOP-2093
p1258
aVSQOOP-2092
p1259
aVSQOOP-2091
p1260
aVSQOOP-2090
p1261
aVSQOOP-2089
p1262
aVSQOOP-2088
p1263
aVSQOOP-2087
p1264
aVSQOOP-2086
p1265
aVSQOOP-2085
p1266
aVSQOOP-2084
p1267
aVSQOOP-2083
p1268
aVSQOOP-2082
p1269
aVSQOOP-2081
p1270
aVSQOOP-2080
p1271
aVSQOOP-2079
p1272
aVSQOOP-2078
p1273
aVSQOOP-2077
p1274
aVSQOOP-2076
p1275
aVSQOOP-2075
p1276
aVSQOOP-2074
p1277
aVSQOOP-2073
p1278
aVSQOOP-2072
p1279
aVSQOOP-2071
p1280
aVSQOOP-2070
p1281
aVSQOOP-2069
p1282
aVSQOOP-2068
p1283
aVSQOOP-2067
p1284
aVSQOOP-2066
p1285
aVSQOOP-2065
p1286
aVSQOOP-2064
p1287
aVSQOOP-2063
p1288
aVSQOOP-2062
p1289
aVSQOOP-2061
p1290
aVSQOOP-2060
p1291
aVSQOOP-2059
p1292
aVSQOOP-2058
p1293
aVSQOOP-2057
p1294
aVSQOOP-2056
p1295
aVSQOOP-2055
p1296
aVSQOOP-2054
p1297
aVSQOOP-2051
p1298
aVSQOOP-2050
p1299
aVSQOOP-2049
p1300
aVSQOOP-2048
p1301
aVSQOOP-2047
p1302
aVSQOOP-2046
p1303
aVSQOOP-2045
p1304
aVSQOOP-2044
p1305
aVSQOOP-2043
p1306
aVSQOOP-2042
p1307
aVSQOOP-2041
p1308
aVSQOOP-2040
p1309
aVSQOOP-2039
p1310
aVSQOOP-2038
p1311
aVSQOOP-2037
p1312
aVSQOOP-2036
p1313
aVSQOOP-2035
p1314
aVSQOOP-2034
p1315
aVSQOOP-2033
p1316
aVSQOOP-2032
p1317
aVSQOOP-2031
p1318
aVSQOOP-2030
p1319
aVSQOOP-2029
p1320
aVSQOOP-2028
p1321
aVSQOOP-2027
p1322
aVSQOOP-2026
p1323
aVSQOOP-2025
p1324
aVSQOOP-2024
p1325
aVSQOOP-2023
p1326
aVSQOOP-2022
p1327
aVSQOOP-2021
p1328
aVSQOOP-2020
p1329
aVSQOOP-2019
p1330
aVSQOOP-2018
p1331
aVSQOOP-2017
p1332
aVSQOOP-2016
p1333
aVSQOOP-2015
p1334
aVSQOOP-2014
p1335
aVSQOOP-2013
p1336
aVSQOOP-2012
p1337
aVSQOOP-2011
p1338
aVSQOOP-2010
p1339
aVSQOOP-2009
p1340
aVSQOOP-2008
p1341
aVSQOOP-2007
p1342
aVSQOOP-2006
p1343
aVSQOOP-2005
p1344
aVSQOOP-2004
p1345
aVSQOOP-2003
p1346
aVSQOOP-2002
p1347
aVSQOOP-2001
p1348
aVSQOOP-2000
p1349
aVSQOOP-1999
p1350
aVSQOOP-1998
p1351
aVSQOOP-1997
p1352
aVSQOOP-1996
p1353
aVSQOOP-1995
p1354
aVSQOOP-1994
p1355
aVSQOOP-1993
p1356
aVSQOOP-1992
p1357
aVSQOOP-1991
p1358
aVSQOOP-1990
p1359
aVSQOOP-1989
p1360
aVSQOOP-1988
p1361
aVSQOOP-1987
p1362
aVSQOOP-1986
p1363
aVSQOOP-1985
p1364
aVSQOOP-1984
p1365
aVSQOOP-1983
p1366
aVSQOOP-1982
p1367
aVSQOOP-1981
p1368
aVSQOOP-1980
p1369
aVSQOOP-1979
p1370
aVSQOOP-1978
p1371
aVSQOOP-1977
p1372
aVSQOOP-1976
p1373
aVSQOOP-1975
p1374
aVSQOOP-1974
p1375
aVSQOOP-1973
p1376
aVSQOOP-1972
p1377
aVSQOOP-1971
p1378
aVSQOOP-1970
p1379
aVSQOOP-1969
p1380
aVSQOOP-1968
p1381
aVSQOOP-1967
p1382
aVSQOOP-1966
p1383
aVSQOOP-1965
p1384
aVSQOOP-1964
p1385
aVSQOOP-1963
p1386
aVSQOOP-1962
p1387
aVSQOOP-1961
p1388
aVSQOOP-1960
p1389
aVSQOOP-1959
p1390
aVSQOOP-1958
p1391
aVSQOOP-1957
p1392
aVSQOOP-1956
p1393
aVSQOOP-1955
p1394
aVSQOOP-1954
p1395
aVSQOOP-1953
p1396
aVSQOOP-1952
p1397
aVSQOOP-1951
p1398
aVSQOOP-1950
p1399
aVSQOOP-1949
p1400
aVSQOOP-1948
p1401
aVSQOOP-1947
p1402
aVSQOOP-1946
p1403
aVSQOOP-1945
p1404
aVSQOOP-1944
p1405
aVSQOOP-1943
p1406
aVSQOOP-1942
p1407
aVSQOOP-1941
p1408
aVSQOOP-1940
p1409
aVSQOOP-1939
p1410
aVSQOOP-1938
p1411
aVSQOOP-1937
p1412
aVSQOOP-1936
p1413
aVSQOOP-1935
p1414
aVSQOOP-1934
p1415
aVSQOOP-1933
p1416
aVSQOOP-1932
p1417
aVSQOOP-1931
p1418
aVSQOOP-1930
p1419
aVSQOOP-1929
p1420
aVSQOOP-1928
p1421
aVSQOOP-1927
p1422
aVSQOOP-1926
p1423
aVSQOOP-1925
p1424
aVSQOOP-1924
p1425
aVSQOOP-1923
p1426
aVSQOOP-1922
p1427
aVSQOOP-1921
p1428
aVSQOOP-1920
p1429
aVSQOOP-1919
p1430
aVSQOOP-1918
p1431
aVSQOOP-1917
p1432
aVSQOOP-1916
p1433
aVSQOOP-1915
p1434
aVSQOOP-1914
p1435
aVSQOOP-1913
p1436
aVSQOOP-1912
p1437
aVSQOOP-1911
p1438
aVSQOOP-1910
p1439
aVSQOOP-1909
p1440
aVSQOOP-1908
p1441
aVSQOOP-1907
p1442
aVSQOOP-1906
p1443
aVSQOOP-1905
p1444
aVSQOOP-1904
p1445
aVSQOOP-1903
p1446
aVSQOOP-1902
p1447
aVSQOOP-1901
p1448
aVSQOOP-1900
p1449
aVSQOOP-1899
p1450
aVSQOOP-1898
p1451
aVSQOOP-1897
p1452
aVSQOOP-1896
p1453
aVSQOOP-1895
p1454
aVSQOOP-1894
p1455
aVSQOOP-1893
p1456
aVSQOOP-1892
p1457
aVSQOOP-1891
p1458
aVSQOOP-1890
p1459
aVSQOOP-1889
p1460
aVSQOOP-1888
p1461
aVSQOOP-1887
p1462
aVSQOOP-1886
p1463
aVSQOOP-1885
p1464
aVSQOOP-1884
p1465
aVSQOOP-1883
p1466
aVSQOOP-1882
p1467
aVSQOOP-1881
p1468
aVSQOOP-1880
p1469
aVSQOOP-1879
p1470
aVSQOOP-1878
p1471
aVSQOOP-1877
p1472
aVSQOOP-1876
p1473
aVSQOOP-1875
p1474
aVSQOOP-1874
p1475
aVSQOOP-1873
p1476
aVSQOOP-1872
p1477
aVSQOOP-1871
p1478
aVSQOOP-1870
p1479
aVSQOOP-1869
p1480
aVSQOOP-1868
p1481
aVSQOOP-1867
p1482
aVSQOOP-1866
p1483
aVSQOOP-1865
p1484
aVSQOOP-1864
p1485
aVSQOOP-1863
p1486
aVSQOOP-1862
p1487
aVSQOOP-1861
p1488
aVSQOOP-1860
p1489
aVSQOOP-1859
p1490
aVSQOOP-1858
p1491
aVSQOOP-1857
p1492
aVSQOOP-1856
p1493
aVSQOOP-1855
p1494
aVSQOOP-1854
p1495
aVSQOOP-1853
p1496
aVSQOOP-1852
p1497
aVSQOOP-1851
p1498
aVSQOOP-1850
p1499
aVSQOOP-1849
p1500
aVSQOOP-1848
p1501
aVSQOOP-1847
p1502
aVSQOOP-1846
p1503
aVSQOOP-1845
p1504
aVSQOOP-1844
p1505
aVSQOOP-1843
p1506
aVSQOOP-1842
p1507
aVSQOOP-1841
p1508
aVSQOOP-1840
p1509
aVSQOOP-1839
p1510
aVSQOOP-1838
p1511
aVSQOOP-1837
p1512
aVSQOOP-1836
p1513
aVSQOOP-1835
p1514
aVSQOOP-1834
p1515
aVSQOOP-1833
p1516
aVSQOOP-1832
p1517
aVSQOOP-1831
p1518
aVSQOOP-1830
p1519
aVSQOOP-1829
p1520
aVSQOOP-1828
p1521
aVSQOOP-1827
p1522
aVSQOOP-1826
p1523
aVSQOOP-1825
p1524
aVSQOOP-1824
p1525
aVSQOOP-1823
p1526
aVSQOOP-1822
p1527
aVSQOOP-1821
p1528
aVSQOOP-1820
p1529
aVSQOOP-1819
p1530
aVSQOOP-1818
p1531
aVSQOOP-1817
p1532
aVSQOOP-1816
p1533
aVSQOOP-1815
p1534
aVSQOOP-1814
p1535
aVSQOOP-1813
p1536
aVSQOOP-1812
p1537
aVSQOOP-1811
p1538
aVSQOOP-1810
p1539
aVSQOOP-1809
p1540
aVSQOOP-1808
p1541
aVSQOOP-1807
p1542
aVSQOOP-1806
p1543
aVSQOOP-1805
p1544
aVSQOOP-1804
p1545
aVSQOOP-1803
p1546
aVSQOOP-1802
p1547
aVSQOOP-1801
p1548
aVSQOOP-1800
p1549
aVSQOOP-1799
p1550
aVSQOOP-1798
p1551
aVSQOOP-1797
p1552
aVSQOOP-1796
p1553
aVSQOOP-1795
p1554
aVSQOOP-1794
p1555
aVSQOOP-1793
p1556
aVSQOOP-1792
p1557
aVSQOOP-1791
p1558
aVSQOOP-1790
p1559
aVSQOOP-1789
p1560
aVSQOOP-1788
p1561
aVSQOOP-1787
p1562
aVSQOOP-1786
p1563
aVSQOOP-1785
p1564
aVSQOOP-1784
p1565
aVSQOOP-1783
p1566
aVSQOOP-1782
p1567
aVSQOOP-1781
p1568
aVSQOOP-1780
p1569
aVSQOOP-1779
p1570
aVSQOOP-1778
p1571
aVSQOOP-1777
p1572
aVSQOOP-1776
p1573
aVSQOOP-1775
p1574
aVSQOOP-1774
p1575
aVSQOOP-1773
p1576
aVSQOOP-1772
p1577
aVSQOOP-1771
p1578
aVSQOOP-1770
p1579
aVSQOOP-1769
p1580
aVSQOOP-1768
p1581
aVSQOOP-1767
p1582
aVSQOOP-1766
p1583
aVSQOOP-1765
p1584
aVSQOOP-1764
p1585
aVSQOOP-1763
p1586
aVSQOOP-1762
p1587
aVSQOOP-1761
p1588
aVSQOOP-1760
p1589
aVSQOOP-1759
p1590
aVSQOOP-1758
p1591
aVSQOOP-1757
p1592
aVSQOOP-1756
p1593
aVSQOOP-1755
p1594
aVSQOOP-1754
p1595
aVSQOOP-1753
p1596
aVSQOOP-1752
p1597
aVSQOOP-1751
p1598
aVSQOOP-1750
p1599
aVSQOOP-1749
p1600
aVSQOOP-1748
p1601
aVSQOOP-1747
p1602
aVSQOOP-1746
p1603
aVSQOOP-1745
p1604
aVSQOOP-1744
p1605
aVSQOOP-1743
p1606
aVSQOOP-1742
p1607
aVSQOOP-1741
p1608
aVSQOOP-1740
p1609
aVSQOOP-1739
p1610
aVSQOOP-1738
p1611
aVSQOOP-1737
p1612
aVSQOOP-1736
p1613
aVSQOOP-1735
p1614
aVSQOOP-1734
p1615
aVSQOOP-1733
p1616
aVSQOOP-1732
p1617
aVSQOOP-1731
p1618
aVSQOOP-1730
p1619
aVSQOOP-1729
p1620
aVSQOOP-1728
p1621
aVSQOOP-1727
p1622
aVSQOOP-1726
p1623
aVSQOOP-1725
p1624
aVSQOOP-1724
p1625
aVSQOOP-1723
p1626
aVSQOOP-1722
p1627
aVSQOOP-1721
p1628
aVSQOOP-1720
p1629
aVSQOOP-1719
p1630
aVSQOOP-1718
p1631
aVSQOOP-1717
p1632
aVSQOOP-1716
p1633
aVSQOOP-1715
p1634
aVSQOOP-1714
p1635
aVSQOOP-1713
p1636
aVSQOOP-1712
p1637
aVSQOOP-1711
p1638
aVSQOOP-1710
p1639
aVSQOOP-1709
p1640
aVSQOOP-1708
p1641
aVSQOOP-1707
p1642
aVSQOOP-1706
p1643
aVSQOOP-1705
p1644
aVSQOOP-1704
p1645
aVSQOOP-1703
p1646
aVSQOOP-1702
p1647
aVSQOOP-1701
p1648
aVSQOOP-1700
p1649
aVSQOOP-1699
p1650
aVSQOOP-1698
p1651
aVSQOOP-1697
p1652
aVSQOOP-1696
p1653
aVSQOOP-1695
p1654
aVSQOOP-1694
p1655
aVSQOOP-1693
p1656
aVSQOOP-1692
p1657
aVSQOOP-1691
p1658
aVSQOOP-1690
p1659
aVSQOOP-1689
p1660
aVSQOOP-1688
p1661
aVSQOOP-1687
p1662
aVSQOOP-1686
p1663
aVSQOOP-1685
p1664
aVSQOOP-1684
p1665
aVSQOOP-1683
p1666
aVSQOOP-1682
p1667
aVSQOOP-1681
p1668
aVSQOOP-1680
p1669
aVSQOOP-1679
p1670
aVSQOOP-1678
p1671
aVSQOOP-1677
p1672
aVSQOOP-1676
p1673
aVSQOOP-1675
p1674
aVSQOOP-1674
p1675
aVSQOOP-1673
p1676
aVSQOOP-1672
p1677
aVSQOOP-1671
p1678
aVSQOOP-1670
p1679
aVSQOOP-1669
p1680
aVSQOOP-1668
p1681
aVSQOOP-1667
p1682
aVSQOOP-1666
p1683
aVSQOOP-1665
p1684
aVSQOOP-1664
p1685
aVSQOOP-1663
p1686
aVSQOOP-1662
p1687
aVSQOOP-1661
p1688
aVSQOOP-1660
p1689
aVSQOOP-1659
p1690
aVSQOOP-1658
p1691
aVSQOOP-1657
p1692
aVSQOOP-1656
p1693
aVSQOOP-1655
p1694
aVSQOOP-1654
p1695
aVSQOOP-1653
p1696
aVSQOOP-1652
p1697
aVSQOOP-1651
p1698
aVSQOOP-1650
p1699
aVSQOOP-1649
p1700
aVSQOOP-1648
p1701
aVSQOOP-1647
p1702
aVSQOOP-1646
p1703
aVSQOOP-1645
p1704
aVSQOOP-1644
p1705
aVSQOOP-1643
p1706
aVSQOOP-1642
p1707
aVSQOOP-1641
p1708
aVSQOOP-1640
p1709
aVSQOOP-1639
p1710
aVSQOOP-1638
p1711
aVSQOOP-1637
p1712
aVSQOOP-1636
p1713
aVSQOOP-1635
p1714
aVSQOOP-1634
p1715
aVSQOOP-1633
p1716
aVSQOOP-1632
p1717
aVSQOOP-1631
p1718
aVSQOOP-1630
p1719
aVSQOOP-1629
p1720
aVSQOOP-1628
p1721
aVSQOOP-1627
p1722
aVSQOOP-1626
p1723
aVSQOOP-1625
p1724
aVSQOOP-1624
p1725
aVSQOOP-1623
p1726
aVSQOOP-1622
p1727
aVSQOOP-1621
p1728
aVSQOOP-1620
p1729
aVSQOOP-1619
p1730
aVSQOOP-1618
p1731
aVSQOOP-1617
p1732
aVSQOOP-1616
p1733
aVSQOOP-1615
p1734
aVSQOOP-1614
p1735
aVSQOOP-1613
p1736
aVSQOOP-1612
p1737
aVSQOOP-1611
p1738
aVSQOOP-1610
p1739
aVSQOOP-1609
p1740
aVSQOOP-1608
p1741
aVSQOOP-1607
p1742
aVSQOOP-1606
p1743
aVSQOOP-1605
p1744
aVSQOOP-1604
p1745
aVSQOOP-1603
p1746
aVSQOOP-1602
p1747
aVSQOOP-1601
p1748
aVSQOOP-1600
p1749
aVSQOOP-1599
p1750
aVSQOOP-1598
p1751
aVSQOOP-1597
p1752
aVSQOOP-1596
p1753
aVSQOOP-1595
p1754
aVSQOOP-1594
p1755
aVSQOOP-1593
p1756
aVSQOOP-1592
p1757
aVSQOOP-1591
p1758
aVSQOOP-1590
p1759
aVSQOOP-1589
p1760
aVSQOOP-1588
p1761
aVSQOOP-1587
p1762
aVSQOOP-1586
p1763
aVSQOOP-1585
p1764
aVSQOOP-1584
p1765
aVSQOOP-1583
p1766
aVSQOOP-1582
p1767
aVSQOOP-1581
p1768
aVSQOOP-1579
p1769
aVSQOOP-1578
p1770
aVSQOOP-1577
p1771
aVSQOOP-1576
p1772
aVSQOOP-1575
p1773
aVSQOOP-1574
p1774
aVSQOOP-1573
p1775
aVSQOOP-1572
p1776
aVSQOOP-1571
p1777
aVSQOOP-1570
p1778
aVSQOOP-1569
p1779
aVSQOOP-1568
p1780
aVSQOOP-1567
p1781
aVSQOOP-1566
p1782
aVSQOOP-1565
p1783
aVSQOOP-1564
p1784
aVSQOOP-1563
p1785
aVSQOOP-1562
p1786
aVSQOOP-1561
p1787
aVSQOOP-1560
p1788
aVSQOOP-1559
p1789
aVSQOOP-1558
p1790
aVSQOOP-1557
p1791
aVSQOOP-1556
p1792
aVSQOOP-1555
p1793
aVSQOOP-1554
p1794
aVSQOOP-1553
p1795
aVSQOOP-1552
p1796
aVSQOOP-1551
p1797
aVSQOOP-1550
p1798
aVSQOOP-1549
p1799
aVSQOOP-1548
p1800
aVSQOOP-1547
p1801
aVSQOOP-1546
p1802
aVSQOOP-1545
p1803
aVSQOOP-1544
p1804
aVSQOOP-1543
p1805
aVSQOOP-1542
p1806
aVSQOOP-1541
p1807
aVSQOOP-1540
p1808
aVSQOOP-1539
p1809
aVSQOOP-1538
p1810
aVSQOOP-1537
p1811
aVSQOOP-1536
p1812
aVSQOOP-1535
p1813
aVSQOOP-1534
p1814
aVSQOOP-1533
p1815
aVSQOOP-1532
p1816
aVSQOOP-1531
p1817
aVSQOOP-1530
p1818
aVSQOOP-1529
p1819
aVSQOOP-1528
p1820
aVSQOOP-1527
p1821
aVSQOOP-1526
p1822
aVSQOOP-1525
p1823
aVSQOOP-1524
p1824
aVSQOOP-1523
p1825
aVSQOOP-1522
p1826
aVSQOOP-1521
p1827
aVSQOOP-1520
p1828
aVSQOOP-1519
p1829
aVSQOOP-1518
p1830
aVSQOOP-1517
p1831
aVSQOOP-1516
p1832
aVSQOOP-1515
p1833
aVSQOOP-1514
p1834
aVSQOOP-1513
p1835
aVSQOOP-1512
p1836
aVSQOOP-1511
p1837
aVSQOOP-1510
p1838
aVSQOOP-1509
p1839
aVSQOOP-1508
p1840
aVSQOOP-1507
p1841
aVSQOOP-1506
p1842
aVSQOOP-1505
p1843
aVSQOOP-1504
p1844
aVSQOOP-1503
p1845
aVSQOOP-1502
p1846
aVSQOOP-1501
p1847
aVSQOOP-1500
p1848
aVSQOOP-1499
p1849
aVSQOOP-1498
p1850
aVSQOOP-1497
p1851
aVSQOOP-1496
p1852
aVSQOOP-1495
p1853
aVSQOOP-1494
p1854
aVSQOOP-1493
p1855
aVSQOOP-1492
p1856
aVSQOOP-1491
p1857
aVSQOOP-1490
p1858
aVSQOOP-1489
p1859
aVSQOOP-1488
p1860
aVSQOOP-1487
p1861
aVSQOOP-1486
p1862
aVSQOOP-1485
p1863
aVSQOOP-1484
p1864
aVSQOOP-1483
p1865
aVSQOOP-1482
p1866
aVSQOOP-1481
p1867
aVSQOOP-1480
p1868
aVSQOOP-1479
p1869
aVSQOOP-1478
p1870
aVSQOOP-1477
p1871
aVSQOOP-1476
p1872
aVSQOOP-1475
p1873
aVSQOOP-1474
p1874
aVSQOOP-1473
p1875
aVSQOOP-1472
p1876
aVSQOOP-1471
p1877
aVSQOOP-1470
p1878
aVSQOOP-1469
p1879
aVSQOOP-1468
p1880
aVSQOOP-1467
p1881
aVSQOOP-1466
p1882
aVSQOOP-1465
p1883
aVSQOOP-1464
p1884
aVSQOOP-1463
p1885
aVSQOOP-1462
p1886
aVSQOOP-1461
p1887
aVSQOOP-1460
p1888
aVSQOOP-1459
p1889
aVSQOOP-1458
p1890
aVSQOOP-1457
p1891
aVSQOOP-1456
p1892
aVSQOOP-1455
p1893
aVSQOOP-1454
p1894
aVSQOOP-1453
p1895
aVSQOOP-1452
p1896
aVSQOOP-1451
p1897
aVSQOOP-1450
p1898
aVSQOOP-1449
p1899
aVSQOOP-1448
p1900
aVSQOOP-1447
p1901
aVSQOOP-1446
p1902
aVSQOOP-1445
p1903
aVSQOOP-1444
p1904
aVSQOOP-1443
p1905
aVSQOOP-1442
p1906
aVSQOOP-1441
p1907
aVSQOOP-1440
p1908
aVSQOOP-1439
p1909
aVSQOOP-1438
p1910
aVSQOOP-1437
p1911
aVSQOOP-1436
p1912
aVSQOOP-1435
p1913
aVSQOOP-1434
p1914
aVSQOOP-1433
p1915
aVSQOOP-1432
p1916
aVSQOOP-1431
p1917
aVSQOOP-1430
p1918
aVSQOOP-1429
p1919
aVSQOOP-1428
p1920
aVSQOOP-1427
p1921
aVSQOOP-1426
p1922
aVSQOOP-1425
p1923
aVSQOOP-1424
p1924
aVSQOOP-1423
p1925
aVSQOOP-1422
p1926
aVSQOOP-1421
p1927
aVSQOOP-1420
p1928
aVSQOOP-1419
p1929
aVSQOOP-1418
p1930
aVSQOOP-1417
p1931
aVSQOOP-1416
p1932
aVSQOOP-1415
p1933
aVSQOOP-1414
p1934
aVSQOOP-1413
p1935
aVSQOOP-1412
p1936
aVSQOOP-1411
p1937
aVSQOOP-1410
p1938
aVSQOOP-1409
p1939
aVSQOOP-1408
p1940
aVSQOOP-1407
p1941
aVSQOOP-1406
p1942
aVSQOOP-1405
p1943
aVSQOOP-1404
p1944
aVSQOOP-1403
p1945
aVSQOOP-1402
p1946
aVSQOOP-1401
p1947
aVSQOOP-1400
p1948
aVSQOOP-1399
p1949
aVSQOOP-1398
p1950
aVSQOOP-1397
p1951
aVSQOOP-1396
p1952
aVSQOOP-1395
p1953
aVSQOOP-1394
p1954
aVSQOOP-1393
p1955
aVSQOOP-1392
p1956
aVSQOOP-1391
p1957
aVSQOOP-1390
p1958
aVSQOOP-1389
p1959
aVSQOOP-1388
p1960
aVSQOOP-1387
p1961
aVSQOOP-1386
p1962
aVSQOOP-1385
p1963
aVSQOOP-1384
p1964
aVSQOOP-1383
p1965
aVSQOOP-1382
p1966
aVSQOOP-1381
p1967
aVSQOOP-1380
p1968
aVSQOOP-1379
p1969
aVSQOOP-1378
p1970
aVSQOOP-1377
p1971
aVSQOOP-1376
p1972
aVSQOOP-1375
p1973
aVSQOOP-1374
p1974
aVSQOOP-1373
p1975
aVSQOOP-1372
p1976
aVSQOOP-1371
p1977
aVSQOOP-1370
p1978
aVSQOOP-1369
p1979
aVSQOOP-1368
p1980
aVSQOOP-1367
p1981
aVSQOOP-1366
p1982
aVSQOOP-1365
p1983
aVSQOOP-1364
p1984
aVSQOOP-1363
p1985
aVSQOOP-1362
p1986
aVSQOOP-1361
p1987
aVSQOOP-1360
p1988
aVSQOOP-1359
p1989
aVSQOOP-1358
p1990
aVSQOOP-1357
p1991
aVSQOOP-1356
p1992
aVSQOOP-1355
p1993
aVSQOOP-1354
p1994
aVSQOOP-1353
p1995
aVSQOOP-1352
p1996
aVSQOOP-1351
p1997
aVSQOOP-1350
p1998
aVSQOOP-1349
p1999
aVSQOOP-1348
p2000
aVSQOOP-1347
p2001
aVSQOOP-1346
p2002
aVSQOOP-1345
p2003
aVSQOOP-1344
p2004
aVSQOOP-1343
p2005
aVSQOOP-1342
p2006
aVSQOOP-1341
p2007
aVSQOOP-1340
p2008
aVSQOOP-1339
p2009
aVSQOOP-1338
p2010
aVSQOOP-1337
p2011
aVSQOOP-1336
p2012
aVSQOOP-1335
p2013
aVSQOOP-1334
p2014
aVSQOOP-1333
p2015
aVSQOOP-1332
p2016
aVSQOOP-1331
p2017
aVSQOOP-1330
p2018
aVSQOOP-1329
p2019
aVSQOOP-1328
p2020
aVSQOOP-1327
p2021
aVSQOOP-1326
p2022
aVSQOOP-1325
p2023
aVSQOOP-1324
p2024
aVSQOOP-1323
p2025
aVSQOOP-1322
p2026
aVSQOOP-1321
p2027
aVSQOOP-1320
p2028
aVSQOOP-1319
p2029
aVSQOOP-1318
p2030
aVSQOOP-1317
p2031
aVSQOOP-1316
p2032
aVSQOOP-1315
p2033
aVSQOOP-1314
p2034
aVSQOOP-1313
p2035
aVSQOOP-1312
p2036
aVSQOOP-1311
p2037
aVSQOOP-1310
p2038
aVSQOOP-1309
p2039
aVSQOOP-1308
p2040
aVSQOOP-1307
p2041
aVSQOOP-1306
p2042
aVSQOOP-1305
p2043
aVSQOOP-1304
p2044
aVSQOOP-1303
p2045
aVSQOOP-1302
p2046
aVSQOOP-1301
p2047
aVSQOOP-1300
p2048
aVSQOOP-1299
p2049
aVSQOOP-1298
p2050
aVSQOOP-1297
p2051
aVSQOOP-1296
p2052
aVSQOOP-1295
p2053
aVSQOOP-1294
p2054
aVSQOOP-1293
p2055
aVSQOOP-1292
p2056
aVSQOOP-1291
p2057
aVSQOOP-1290
p2058
aVSQOOP-1289
p2059
aVSQOOP-1288
p2060
aVSQOOP-1287
p2061
aVSQOOP-1286
p2062
aVSQOOP-1285
p2063
aVSQOOP-1284
p2064
aVSQOOP-1283
p2065
aVSQOOP-1282
p2066
aVSQOOP-1281
p2067
aVSQOOP-1280
p2068
aVSQOOP-1279
p2069
aVSQOOP-1278
p2070
aVSQOOP-1277
p2071
aVSQOOP-1276
p2072
aVSQOOP-1275
p2073
aVSQOOP-1274
p2074
aVSQOOP-1273
p2075
aVSQOOP-1272
p2076
aVSQOOP-1271
p2077
aVSQOOP-1270
p2078
aVSQOOP-1269
p2079
aVSQOOP-1268
p2080
aVSQOOP-1267
p2081
aVSQOOP-1266
p2082
aVSQOOP-1265
p2083
aVSQOOP-1264
p2084
aVSQOOP-1263
p2085
aVSQOOP-1262
p2086
aVSQOOP-1261
p2087
aVSQOOP-1260
p2088
aVSQOOP-1259
p2089
aVSQOOP-1258
p2090
aVSQOOP-1257
p2091
aVSQOOP-1256
p2092
aVSQOOP-1255
p2093
aVSQOOP-1254
p2094
aVSQOOP-1253
p2095
aVSQOOP-1252
p2096
aVSQOOP-1251
p2097
aVSQOOP-1250
p2098
aVSQOOP-1249
p2099
aVSQOOP-1248
p2100
aVSQOOP-1247
p2101
aVSQOOP-1246
p2102
aVSQOOP-1245
p2103
aVSQOOP-1244
p2104
aVSQOOP-1243
p2105
aVSQOOP-1242
p2106
aVSQOOP-1241
p2107
aVSQOOP-1240
p2108
aVSQOOP-1239
p2109
aVSQOOP-1238
p2110
aVSQOOP-1237
p2111
aVSQOOP-1236
p2112
aVSQOOP-1235
p2113
aVSQOOP-1234
p2114
aVSQOOP-1233
p2115
aVSQOOP-1232
p2116
aVSQOOP-1231
p2117
aVSQOOP-1230
p2118
aVSQOOP-1229
p2119
aVSQOOP-1228
p2120
aVSQOOP-1227
p2121
aVSQOOP-1226
p2122
aVSQOOP-1225
p2123
aVSQOOP-1224
p2124
aVSQOOP-1223
p2125
aVSQOOP-1221
p2126
aVSQOOP-1220
p2127
aVSQOOP-1219
p2128
aVSQOOP-1218
p2129
aVSQOOP-1217
p2130
aVSQOOP-1216
p2131
aVSQOOP-1215
p2132
aVSQOOP-1214
p2133
aVSQOOP-1213
p2134
aVSQOOP-1212
p2135
aVSQOOP-1211
p2136
aVSQOOP-1210
p2137
aVSQOOP-1209
p2138
aVSQOOP-1208
p2139
aVSQOOP-1207
p2140
aVSQOOP-1206
p2141
aVSQOOP-1205
p2142
aVSQOOP-1204
p2143
aVSQOOP-1203
p2144
aVSQOOP-1202
p2145
aVSQOOP-1201
p2146
aVSQOOP-1200
p2147
aVSQOOP-1199
p2148
aVSQOOP-1198
p2149
aVSQOOP-1197
p2150
aVSQOOP-1196
p2151
aVSQOOP-1195
p2152
aVSQOOP-1194
p2153
aVSQOOP-1193
p2154
aVSQOOP-1192
p2155
aVSQOOP-1191
p2156
aVSQOOP-1190
p2157
aVSQOOP-1189
p2158
aVSQOOP-1188
p2159
aVSQOOP-1187
p2160
aVSQOOP-1186
p2161
aVSQOOP-1185
p2162
aVSQOOP-1184
p2163
aVSQOOP-1183
p2164
aVSQOOP-1182
p2165
aVSQOOP-1181
p2166
aVSQOOP-1180
p2167
aVSQOOP-1179
p2168
aVSQOOP-1178
p2169
aVSQOOP-1177
p2170
aVSQOOP-1176
p2171
aVSQOOP-1175
p2172
aVSQOOP-1174
p2173
aVSQOOP-1173
p2174
aVSQOOP-1172
p2175
aVSQOOP-1171
p2176
aVSQOOP-1170
p2177
aVSQOOP-1169
p2178
aVSQOOP-1168
p2179
aVSQOOP-1167
p2180
aVSQOOP-1166
p2181
aVSQOOP-1165
p2182
aVSQOOP-1164
p2183
aVSQOOP-1163
p2184
aVSQOOP-1162
p2185
aVSQOOP-1161
p2186
aVSQOOP-1160
p2187
aVSQOOP-1159
p2188
aVSQOOP-1158
p2189
aVSQOOP-1157
p2190
aVSQOOP-1156
p2191
aVSQOOP-1155
p2192
aVSQOOP-1154
p2193
aVSQOOP-1153
p2194
aVSQOOP-1152
p2195
aVSQOOP-1151
p2196
aVSQOOP-1150
p2197
aVSQOOP-1149
p2198
aVSQOOP-1148
p2199
aVSQOOP-1147
p2200
aVSQOOP-1146
p2201
aVSQOOP-1145
p2202
aVSQOOP-1144
p2203
aVSQOOP-1143
p2204
aVSQOOP-1142
p2205
aVSQOOP-1141
p2206
aVSQOOP-1140
p2207
aVSQOOP-1139
p2208
aVSQOOP-1138
p2209
aVSQOOP-1137
p2210
aVSQOOP-1136
p2211
aVSQOOP-1135
p2212
aVSQOOP-1134
p2213
aVSQOOP-1133
p2214
aVSQOOP-1132
p2215
aVSQOOP-1131
p2216
aVSQOOP-1130
p2217
aVSQOOP-1129
p2218
aVSQOOP-1128
p2219
aVSQOOP-1127
p2220
aVSQOOP-1126
p2221
aVSQOOP-1125
p2222
aVSQOOP-1124
p2223
aVSQOOP-1123
p2224
aVSQOOP-1122
p2225
aVSQOOP-1121
p2226
aVSQOOP-1120
p2227
aVSQOOP-1119
p2228
aVSQOOP-1118
p2229
aVSQOOP-1117
p2230
aVSQOOP-1116
p2231
aVSQOOP-1115
p2232
aVSQOOP-1114
p2233
aVSQOOP-1113
p2234
aVSQOOP-1112
p2235
aVSQOOP-1111
p2236
aVSQOOP-1110
p2237
aVSQOOP-1109
p2238
aVSQOOP-1108
p2239
aVSQOOP-1107
p2240
aVSQOOP-1106
p2241
aVSQOOP-1105
p2242
aVSQOOP-1104
p2243
aVSQOOP-1103
p2244
aVSQOOP-1102
p2245
aVSQOOP-1101
p2246
aVSQOOP-1100
p2247
aVSQOOP-1099
p2248
aVSQOOP-1098
p2249
aVSQOOP-1097
p2250
aVSQOOP-1096
p2251
aVSQOOP-1095
p2252
aVSQOOP-1094
p2253
aVSQOOP-1093
p2254
aVSQOOP-1092
p2255
aVSQOOP-1091
p2256
aVSQOOP-1090
p2257
aVSQOOP-1089
p2258
aVSQOOP-1088
p2259
aVSQOOP-1087
p2260
aVSQOOP-1086
p2261
aVSQOOP-1085
p2262
aVSQOOP-1084
p2263
aVSQOOP-1083
p2264
aVSQOOP-1082
p2265
aVSQOOP-1081
p2266
aVSQOOP-1080
p2267
aVSQOOP-1079
p2268
aVSQOOP-1078
p2269
aVSQOOP-1077
p2270
aVSQOOP-1076
p2271
aVSQOOP-1075
p2272
aVSQOOP-1074
p2273
aVSQOOP-1073
p2274
aVSQOOP-1072
p2275
aVSQOOP-1071
p2276
aVSQOOP-1070
p2277
aVSQOOP-1069
p2278
aVSQOOP-1068
p2279
aVSQOOP-1067
p2280
aVSQOOP-1066
p2281
aVSQOOP-1065
p2282
aVSQOOP-1064
p2283
aVSQOOP-1063
p2284
aVSQOOP-1062
p2285
aVSQOOP-1061
p2286
aVSQOOP-1060
p2287
aVSQOOP-1059
p2288
aVSQOOP-1058
p2289
aVSQOOP-1057
p2290
aVSQOOP-1056
p2291
aVSQOOP-1055
p2292
aVSQOOP-1054
p2293
aVSQOOP-1053
p2294
aVSQOOP-1052
p2295
aVSQOOP-1051
p2296
aVSQOOP-1050
p2297
aVSQOOP-1049
p2298
aVSQOOP-1048
p2299
aVSQOOP-1047
p2300
aVSQOOP-1046
p2301
aVSQOOP-1045
p2302
aVSQOOP-1044
p2303
aVSQOOP-1043
p2304
aVSQOOP-1042
p2305
aVSQOOP-1041
p2306
aVSQOOP-1040
p2307
aVSQOOP-1039
p2308
aVSQOOP-1038
p2309
aVSQOOP-1037
p2310
aVSQOOP-1036
p2311
aVSQOOP-1035
p2312
aVSQOOP-1034
p2313
aVSQOOP-1033
p2314
aVSQOOP-1032
p2315
aVSQOOP-1031
p2316
aVSQOOP-1030
p2317
aVSQOOP-1029
p2318
aVSQOOP-1028
p2319
aVSQOOP-1027
p2320
aVSQOOP-1026
p2321
aVSQOOP-1025
p2322
aVSQOOP-1024
p2323
aVSQOOP-1023
p2324
aVSQOOP-1022
p2325
aVSQOOP-1021
p2326
aVSQOOP-1020
p2327
aVSQOOP-1019
p2328
aVSQOOP-1018
p2329
aVSQOOP-1017
p2330
aVSQOOP-1016
p2331
aVSQOOP-1015
p2332
aVSQOOP-1014
p2333
aVSQOOP-1013
p2334
aVSQOOP-1012
p2335
aVSQOOP-1011
p2336
aVSQOOP-1010
p2337
aVSQOOP-1009
p2338
aVSQOOP-1008
p2339
aVSQOOP-1007
p2340
aVSQOOP-1006
p2341
aVSQOOP-1005
p2342
aVSQOOP-1004
p2343
aVSQOOP-1003
p2344
aVSQOOP-1002
p2345
aVSQOOP-1001
p2346
aVSQOOP-1000
p2347
aVSQOOP-999
p2348
aVSQOOP-998
p2349
aVSQOOP-997
p2350
aVSQOOP-996
p2351
aVSQOOP-995
p2352
aVSQOOP-994
p2353
aVSQOOP-993
p2354
aVSQOOP-992
p2355
aVSQOOP-991
p2356
aVSQOOP-990
p2357
aVSQOOP-989
p2358
aVSQOOP-988
p2359
aVSQOOP-987
p2360
aVSQOOP-986
p2361
aVSQOOP-985
p2362
aVSQOOP-984
p2363
aVSQOOP-983
p2364
aVSQOOP-982
p2365
aVSQOOP-981
p2366
aVSQOOP-980
p2367
aVSQOOP-979
p2368
aVSQOOP-978
p2369
aVSQOOP-977
p2370
aVSQOOP-976
p2371
aVSQOOP-975
p2372
aVSQOOP-974
p2373
aVSQOOP-973
p2374
aVSQOOP-972
p2375
aVSQOOP-971
p2376
aVSQOOP-970
p2377
aVSQOOP-969
p2378
aVSQOOP-968
p2379
aVSQOOP-967
p2380
aVSQOOP-966
p2381
aVSQOOP-965
p2382
aVSQOOP-964
p2383
aVSQOOP-963
p2384
aVSQOOP-962
p2385
aVSQOOP-961
p2386
aVSQOOP-960
p2387
aVSQOOP-959
p2388
aVSQOOP-958
p2389
aVSQOOP-957
p2390
aVSQOOP-956
p2391
aVSQOOP-955
p2392
aVSQOOP-954
p2393
aVSQOOP-953
p2394
aVSQOOP-952
p2395
aVSQOOP-951
p2396
aVSQOOP-950
p2397
aVSQOOP-949
p2398
aVSQOOP-948
p2399
aVSQOOP-947
p2400
aVSQOOP-946
p2401
aVSQOOP-945
p2402
aVSQOOP-944
p2403
aVSQOOP-943
p2404
aVSQOOP-942
p2405
aVSQOOP-941
p2406
aVSQOOP-940
p2407
aVSQOOP-939
p2408
aVSQOOP-938
p2409
aVSQOOP-937
p2410
aVSQOOP-936
p2411
aVSQOOP-935
p2412
aVSQOOP-934
p2413
aVSQOOP-933
p2414
aVSQOOP-932
p2415
aVSQOOP-931
p2416
aVSQOOP-930
p2417
aVSQOOP-929
p2418
aVSQOOP-928
p2419
aVSQOOP-927
p2420
aVSQOOP-926
p2421
aVSQOOP-925
p2422
aVSQOOP-924
p2423
aVSQOOP-923
p2424
aVSQOOP-922
p2425
aVSQOOP-921
p2426
aVSQOOP-920
p2427
aVSQOOP-919
p2428
aVSQOOP-918
p2429
aVSQOOP-917
p2430
aVSQOOP-916
p2431
aVSQOOP-915
p2432
aVSQOOP-914
p2433
aVSQOOP-913
p2434
aVSQOOP-912
p2435
aVSQOOP-911
p2436
aVSQOOP-910
p2437
aVSQOOP-909
p2438
aVSQOOP-908
p2439
aVSQOOP-907
p2440
aVSQOOP-906
p2441
aVSQOOP-905
p2442
aVSQOOP-904
p2443
aVSQOOP-903
p2444
aVSQOOP-902
p2445
aVSQOOP-901
p2446
aVSQOOP-900
p2447
aVSQOOP-899
p2448
aVSQOOP-898
p2449
aVSQOOP-897
p2450
aVSQOOP-896
p2451
aVSQOOP-895
p2452
aVSQOOP-894
p2453
aVSQOOP-893
p2454
aVSQOOP-892
p2455
aVSQOOP-891
p2456
aVSQOOP-890
p2457
aVSQOOP-889
p2458
aVSQOOP-888
p2459
aVSQOOP-887
p2460
aVSQOOP-886
p2461
aVSQOOP-885
p2462
aVSQOOP-884
p2463
aVSQOOP-883
p2464
aVSQOOP-882
p2465
aVSQOOP-881
p2466
aVSQOOP-880
p2467
aVSQOOP-879
p2468
aVSQOOP-878
p2469
aVSQOOP-877
p2470
aVSQOOP-876
p2471
aVSQOOP-875
p2472
aVSQOOP-874
p2473
aVSQOOP-873
p2474
aVSQOOP-872
p2475
aVSQOOP-871
p2476
aVSQOOP-870
p2477
aVSQOOP-869
p2478
aVSQOOP-868
p2479
aVSQOOP-867
p2480
aVSQOOP-866
p2481
aVSQOOP-865
p2482
aVSQOOP-864
p2483
aVSQOOP-863
p2484
aVSQOOP-862
p2485
aVSQOOP-861
p2486
aVSQOOP-860
p2487
aVSQOOP-859
p2488
aVSQOOP-858
p2489
aVSQOOP-857
p2490
aVSQOOP-856
p2491
aVSQOOP-855
p2492
aVSQOOP-854
p2493
aVSQOOP-853
p2494
aVSQOOP-852
p2495
aVSQOOP-851
p2496
aVSQOOP-850
p2497
aVSQOOP-849
p2498
aVSQOOP-848
p2499
aVSQOOP-847
p2500
aVSQOOP-846
p2501
aVSQOOP-845
p2502
aVSQOOP-844
p2503
aVSQOOP-843
p2504
aVSQOOP-842
p2505
aVSQOOP-841
p2506
aVSQOOP-840
p2507
aVSQOOP-839
p2508
aVSQOOP-838
p2509
aVSQOOP-837
p2510
aVSQOOP-836
p2511
aVSQOOP-835
p2512
aVSQOOP-834
p2513
aVSQOOP-833
p2514
aVSQOOP-832
p2515
aVSQOOP-831
p2516
aVSQOOP-830
p2517
aVSQOOP-829
p2518
aVSQOOP-828
p2519
aVSQOOP-827
p2520
aVSQOOP-826
p2521
aVSQOOP-825
p2522
aVSQOOP-824
p2523
aVSQOOP-823
p2524
aVSQOOP-822
p2525
aVSQOOP-821
p2526
aVSQOOP-820
p2527
aVSQOOP-819
p2528
aVSQOOP-818
p2529
aVSQOOP-817
p2530
aVSQOOP-816
p2531
aVSQOOP-815
p2532
aVSQOOP-814
p2533
aVSQOOP-813
p2534
aVSQOOP-812
p2535
aVSQOOP-811
p2536
aVSQOOP-810
p2537
aVSQOOP-809
p2538
aVSQOOP-808
p2539
aVSQOOP-807
p2540
aVSQOOP-806
p2541
aVSQOOP-805
p2542
aVSQOOP-804
p2543
aVSQOOP-803
p2544
aVSQOOP-802
p2545
aVSQOOP-801
p2546
aVSQOOP-800
p2547
aVSQOOP-799
p2548
aVSQOOP-798
p2549
aVSQOOP-797
p2550
aVSQOOP-796
p2551
aVSQOOP-795
p2552
aVSQOOP-794
p2553
aVSQOOP-793
p2554
aVSQOOP-792
p2555
aVSQOOP-791
p2556
aVSQOOP-790
p2557
aVSQOOP-789
p2558
aVSQOOP-788
p2559
aVSQOOP-787
p2560
aVSQOOP-786
p2561
aVSQOOP-785
p2562
aVSQOOP-784
p2563
aVSQOOP-783
p2564
aVSQOOP-782
p2565
aVSQOOP-781
p2566
aVSQOOP-780
p2567
aVSQOOP-779
p2568
aVSQOOP-778
p2569
aVSQOOP-777
p2570
aVSQOOP-776
p2571
aVSQOOP-775
p2572
aVSQOOP-774
p2573
aVSQOOP-773
p2574
aVSQOOP-772
p2575
aVSQOOP-771
p2576
aVSQOOP-770
p2577
aVSQOOP-769
p2578
aVSQOOP-768
p2579
aVSQOOP-767
p2580
aVSQOOP-766
p2581
aVSQOOP-765
p2582
aVSQOOP-764
p2583
aVSQOOP-763
p2584
aVSQOOP-762
p2585
aVSQOOP-761
p2586
aVSQOOP-760
p2587
aVSQOOP-759
p2588
aVSQOOP-758
p2589
aVSQOOP-757
p2590
aVSQOOP-756
p2591
aVSQOOP-755
p2592
aVSQOOP-754
p2593
aVSQOOP-753
p2594
aVSQOOP-752
p2595
aVSQOOP-751
p2596
aVSQOOP-750
p2597
aVSQOOP-749
p2598
aVSQOOP-748
p2599
aVSQOOP-747
p2600
aVSQOOP-746
p2601
aVSQOOP-745
p2602
aVSQOOP-744
p2603
aVSQOOP-743
p2604
aVSQOOP-742
p2605
aVSQOOP-741
p2606
aVSQOOP-740
p2607
aVSQOOP-739
p2608
aVSQOOP-738
p2609
aVSQOOP-737
p2610
aVSQOOP-736
p2611
aVSQOOP-735
p2612
aVSQOOP-734
p2613
aVSQOOP-733
p2614
aVSQOOP-732
p2615
aVSQOOP-731
p2616
aVSQOOP-730
p2617
aVSQOOP-729
p2618
aVSQOOP-728
p2619
aVSQOOP-727
p2620
aVSQOOP-726
p2621
aVSQOOP-725
p2622
aVSQOOP-724
p2623
aVSQOOP-723
p2624
aVSQOOP-722
p2625
aVSQOOP-721
p2626
aVSQOOP-720
p2627
aVSQOOP-719
p2628
aVSQOOP-718
p2629
aVSQOOP-717
p2630
aVSQOOP-716
p2631
aVSQOOP-715
p2632
aVSQOOP-714
p2633
aVSQOOP-713
p2634
aVSQOOP-712
p2635
aVSQOOP-711
p2636
aVSQOOP-710
p2637
aVSQOOP-709
p2638
aVSQOOP-708
p2639
aVSQOOP-707
p2640
aVSQOOP-706
p2641
aVSQOOP-705
p2642
aVSQOOP-704
p2643
aVSQOOP-703
p2644
aVSQOOP-702
p2645
aVSQOOP-701
p2646
aVSQOOP-700
p2647
aVSQOOP-699
p2648
aVSQOOP-698
p2649
aVSQOOP-697
p2650
aVSQOOP-696
p2651
aVSQOOP-695
p2652
aVSQOOP-694
p2653
aVSQOOP-693
p2654
aVSQOOP-692
p2655
aVSQOOP-691
p2656
aVSQOOP-690
p2657
aVSQOOP-689
p2658
aVSQOOP-688
p2659
aVSQOOP-687
p2660
aVSQOOP-686
p2661
aVSQOOP-685
p2662
aVSQOOP-684
p2663
aVSQOOP-683
p2664
aVSQOOP-682
p2665
aVSQOOP-681
p2666
aVSQOOP-680
p2667
aVSQOOP-679
p2668
aVSQOOP-678
p2669
aVSQOOP-677
p2670
aVSQOOP-676
p2671
aVSQOOP-675
p2672
aVSQOOP-674
p2673
aVSQOOP-673
p2674
aVSQOOP-672
p2675
aVSQOOP-671
p2676
aVSQOOP-670
p2677
aVSQOOP-669
p2678
aVSQOOP-668
p2679
aVSQOOP-667
p2680
aVSQOOP-666
p2681
aVSQOOP-665
p2682
aVSQOOP-664
p2683
aVSQOOP-663
p2684
aVSQOOP-662
p2685
aVSQOOP-661
p2686
aVSQOOP-660
p2687
aVSQOOP-659
p2688
aVSQOOP-658
p2689
aVSQOOP-657
p2690
aVSQOOP-656
p2691
aVSQOOP-655
p2692
aVSQOOP-654
p2693
aVSQOOP-653
p2694
aVSQOOP-652
p2695
aVSQOOP-651
p2696
aVSQOOP-650
p2697
aVSQOOP-649
p2698
aVSQOOP-648
p2699
aVSQOOP-647
p2700
aVSQOOP-646
p2701
aVSQOOP-645
p2702
aVSQOOP-644
p2703
aVSQOOP-643
p2704
aVSQOOP-642
p2705
aVSQOOP-641
p2706
aVSQOOP-640
p2707
aVSQOOP-639
p2708
aVSQOOP-638
p2709
aVSQOOP-637
p2710
aVSQOOP-636
p2711
aVSQOOP-635
p2712
aVSQOOP-634
p2713
aVSQOOP-633
p2714
aVSQOOP-632
p2715
aVSQOOP-631
p2716
aVSQOOP-630
p2717
aVSQOOP-629
p2718
aVSQOOP-628
p2719
aVSQOOP-627
p2720
aVSQOOP-626
p2721
aVSQOOP-625
p2722
aVSQOOP-624
p2723
aVSQOOP-623
p2724
aVSQOOP-622
p2725
aVSQOOP-621
p2726
aVSQOOP-620
p2727
aVSQOOP-619
p2728
aVSQOOP-618
p2729
aVSQOOP-617
p2730
aVSQOOP-616
p2731
aVSQOOP-615
p2732
aVSQOOP-614
p2733
aVSQOOP-613
p2734
aVSQOOP-612
p2735
aVSQOOP-611
p2736
aVSQOOP-610
p2737
aVSQOOP-609
p2738
aVSQOOP-608
p2739
aVSQOOP-607
p2740
aVSQOOP-606
p2741
aVSQOOP-605
p2742
aVSQOOP-604
p2743
aVSQOOP-603
p2744
aVSQOOP-602
p2745
aVSQOOP-601
p2746
aVSQOOP-600
p2747
aVSQOOP-599
p2748
aVSQOOP-598
p2749
aVSQOOP-597
p2750
aVSQOOP-596
p2751
aVSQOOP-595
p2752
aVSQOOP-594
p2753
aVSQOOP-593
p2754
aVSQOOP-592
p2755
aVSQOOP-591
p2756
aVSQOOP-590
p2757
aVSQOOP-589
p2758
aVSQOOP-588
p2759
aVSQOOP-587
p2760
aVSQOOP-586
p2761
aVSQOOP-585
p2762
aVSQOOP-584
p2763
aVSQOOP-583
p2764
aVSQOOP-582
p2765
aVSQOOP-581
p2766
aVSQOOP-580
p2767
aVSQOOP-579
p2768
aVSQOOP-578
p2769
aVSQOOP-577
p2770
aVSQOOP-576
p2771
aVSQOOP-574
p2772
aVSQOOP-573
p2773
aVSQOOP-571
p2774
aVSQOOP-568
p2775
aVSQOOP-567
p2776
aVSQOOP-545
p2777
aVSQOOP-544
p2778
aVSQOOP-543
p2779
aVSQOOP-542
p2780
aVSQOOP-541
p2781
aVSQOOP-540
p2782
aVSQOOP-539
p2783
aVSQOOP-538
p2784
aVSQOOP-537
p2785
aVSQOOP-536
p2786
aVSQOOP-535
p2787
aVSQOOP-534
p2788
aVSQOOP-533
p2789
aVSQOOP-532
p2790
aVSQOOP-531
p2791
aVSQOOP-530
p2792
aVSQOOP-529
p2793
aVSQOOP-528
p2794
aVSQOOP-527
p2795
aVSQOOP-526
p2796
aVSQOOP-525
p2797
aVSQOOP-524
p2798
aVSQOOP-523
p2799
aVSQOOP-522
p2800
aVSQOOP-521
p2801
aVSQOOP-520
p2802
aVSQOOP-519
p2803
aVSQOOP-518
p2804
aVSQOOP-517
p2805
aVSQOOP-516
p2806
aVSQOOP-515
p2807
aVSQOOP-514
p2808
aVSQOOP-513
p2809
aVSQOOP-512
p2810
aVSQOOP-511
p2811
aVSQOOP-510
p2812
aVSQOOP-509
p2813
aVSQOOP-508
p2814
aVSQOOP-507
p2815
aVSQOOP-506
p2816
aVSQOOP-505
p2817
aVSQOOP-504
p2818
aVSQOOP-503
p2819
aVSQOOP-502
p2820
aVSQOOP-501
p2821
aVSQOOP-500
p2822
aVSQOOP-499
p2823
aVSQOOP-498
p2824
aVSQOOP-497
p2825
aVSQOOP-496
p2826
aVSQOOP-495
p2827
aVSQOOP-494
p2828
aVSQOOP-493
p2829
aVSQOOP-492
p2830
aVSQOOP-491
p2831
aVSQOOP-490
p2832
aVSQOOP-489
p2833
aVSQOOP-488
p2834
aVSQOOP-487
p2835
aVSQOOP-486
p2836
aVSQOOP-485
p2837
aVSQOOP-484
p2838
aVSQOOP-483
p2839
aVSQOOP-482
p2840
aVSQOOP-481
p2841
aVSQOOP-480
p2842
aVSQOOP-479
p2843
aVSQOOP-478
p2844
aVSQOOP-477
p2845
aVSQOOP-476
p2846
aVSQOOP-475
p2847
aVSQOOP-474
p2848
aVSQOOP-473
p2849
aVSQOOP-472
p2850
aVSQOOP-470
p2851
aVSQOOP-469
p2852
aVSQOOP-468
p2853
aVSQOOP-467
p2854
aVSQOOP-466
p2855
aVSQOOP-465
p2856
aVSQOOP-464
p2857
aVSQOOP-463
p2858
aVSQOOP-462
p2859
aVSQOOP-461
p2860
aVSQOOP-460
p2861
aVSQOOP-459
p2862
aVSQOOP-458
p2863
aVSQOOP-457
p2864
aVSQOOP-456
p2865
aVSQOOP-455
p2866
aVSQOOP-454
p2867
aVSQOOP-453
p2868
aVSQOOP-452
p2869
aVSQOOP-451
p2870
aVSQOOP-450
p2871
aVSQOOP-449
p2872
aVSQOOP-448
p2873
aVSQOOP-447
p2874
aVSQOOP-446
p2875
aVSQOOP-445
p2876
aVSQOOP-444
p2877
aVSQOOP-443
p2878
aVSQOOP-442
p2879
aVSQOOP-441
p2880
aVSQOOP-440
p2881
aVSQOOP-439
p2882
aVSQOOP-438
p2883
aVSQOOP-437
p2884
aVSQOOP-436
p2885
aVSQOOP-435
p2886
aVSQOOP-434
p2887
aVSQOOP-433
p2888
aVSQOOP-432
p2889
aVSQOOP-431
p2890
aVSQOOP-430
p2891
aVSQOOP-429
p2892
aVSQOOP-428
p2893
aVSQOOP-427
p2894
aVSQOOP-426
p2895
aVSQOOP-425
p2896
aVSQOOP-424
p2897
aVSQOOP-423
p2898
aVSQOOP-422
p2899
aVSQOOP-421
p2900
aVSQOOP-420
p2901
aVSQOOP-419
p2902
aVSQOOP-418
p2903
aVSQOOP-417
p2904
aVSQOOP-416
p2905
aVSQOOP-415
p2906
aVSQOOP-414
p2907
aVSQOOP-413
p2908
aVSQOOP-412
p2909
aVSQOOP-411
p2910
aVSQOOP-410
p2911
aVSQOOP-409
p2912
aVSQOOP-408
p2913
aVSQOOP-407
p2914
aVSQOOP-406
p2915
aVSQOOP-405
p2916
aVSQOOP-404
p2917
aVSQOOP-403
p2918
aVSQOOP-402
p2919
aVSQOOP-401
p2920
aVSQOOP-400
p2921
aVSQOOP-399
p2922
aVSQOOP-398
p2923
aVSQOOP-397
p2924
aVSQOOP-396
p2925
aVSQOOP-395
p2926
aVSQOOP-394
p2927
aVSQOOP-393
p2928
aVSQOOP-392
p2929
aVSQOOP-391
p2930
aVSQOOP-390
p2931
aVSQOOP-389
p2932
aVSQOOP-388
p2933
aVSQOOP-387
p2934
aVSQOOP-386
p2935
aVSQOOP-385
p2936
aVSQOOP-384
p2937
aVSQOOP-383
p2938
aVSQOOP-382
p2939
aVSQOOP-381
p2940
aVSQOOP-380
p2941
aVSQOOP-379
p2942
aVSQOOP-378
p2943
aVSQOOP-377
p2944
aVSQOOP-376
p2945
aVSQOOP-375
p2946
aVSQOOP-374
p2947
aVSQOOP-373
p2948
aVSQOOP-372
p2949
aVSQOOP-371
p2950
aVSQOOP-370
p2951
aVSQOOP-369
p2952
aVSQOOP-368
p2953
aVSQOOP-367
p2954
aVSQOOP-366
p2955
aVSQOOP-365
p2956
aVSQOOP-364
p2957
aVSQOOP-363
p2958
aVSQOOP-362
p2959
aVSQOOP-361
p2960
aVSQOOP-360
p2961
aVSQOOP-359
p2962
aVSQOOP-358
p2963
aVSQOOP-357
p2964
aVSQOOP-356
p2965
aVSQOOP-355
p2966
aVSQOOP-354
p2967
aVSQOOP-353
p2968
aVSQOOP-352
p2969
aVSQOOP-351
p2970
aVSQOOP-350
p2971
aVSQOOP-349
p2972
aVSQOOP-348
p2973
aVSQOOP-347
p2974
aVSQOOP-346
p2975
aVSQOOP-345
p2976
aVSQOOP-344
p2977
aVSQOOP-343
p2978
aVSQOOP-342
p2979
aVSQOOP-341
p2980
aVSQOOP-340
p2981
aVSQOOP-339
p2982
aVSQOOP-338
p2983
aVSQOOP-337
p2984
aVSQOOP-336
p2985
aVSQOOP-335
p2986
aVSQOOP-334
p2987
aVSQOOP-333
p2988
aVSQOOP-332
p2989
aVSQOOP-331
p2990
aVSQOOP-330
p2991
aVSQOOP-329
p2992
aVSQOOP-328
p2993
aVSQOOP-327
p2994
aVSQOOP-326
p2995
aVSQOOP-325
p2996
aVSQOOP-324
p2997
aVSQOOP-323
p2998
aVSQOOP-322
p2999
aVSQOOP-321
p3000
aVSQOOP-320
p3001
aVSQOOP-319
p3002
aVSQOOP-318
p3003
aVSQOOP-317
p3004
aVSQOOP-316
p3005
aVSQOOP-315
p3006
aVSQOOP-314
p3007
aVSQOOP-313
p3008
aVSQOOP-312
p3009
aVSQOOP-311
p3010
aVSQOOP-310
p3011
aVSQOOP-309
p3012
aVSQOOP-308
p3013
aVSQOOP-307
p3014
aVSQOOP-306
p3015
aVSQOOP-305
p3016
aVSQOOP-304
p3017
aVSQOOP-303
p3018
aVSQOOP-302
p3019
aVSQOOP-301
p3020
a.