(lp0
VSSHD-838
p1
aVSSHD-837
p2
aVSSHD-836
p3
aVSSHD-835
p4
aVSSHD-834
p5
aVSSHD-833
p6
aVSSHD-832
p7
aVSSHD-831
p8
aVSSHD-830
p9
aVSSHD-829
p10
aVSSHD-828
p11
aVSSHD-827
p12
aVSSHD-826
p13
aVSSHD-825
p14
aVSSHD-824
p15
aVSSHD-823
p16
aVSSHD-822
p17
aVSSHD-821
p18
aVSSHD-820
p19
aVSSHD-819
p20
aVSSHD-818
p21
aVSSHD-817
p22
aVSSHD-816
p23
aVSSHD-815
p24
aVSSHD-814
p25
aVSSHD-813
p26
aVSSHD-812
p27
aVSSHD-811
p28
aVSSHD-810
p29
aVSSHD-809
p30
aVSSHD-808
p31
aVSSHD-807
p32
aVSSHD-806
p33
aVSSHD-805
p34
aVSSHD-804
p35
aVSSHD-803
p36
aVSSHD-802
p37
aVSSHD-801
p38
aVSSHD-800
p39
aVSSHD-799
p40
aVSSHD-798
p41
aVSSHD-797
p42
aVSSHD-796
p43
aVSSHD-795
p44
aVSSHD-794
p45
aVSSHD-793
p46
aVSSHD-792
p47
aVSSHD-791
p48
aVSSHD-790
p49
aVSSHD-789
p50
aVSSHD-788
p51
aVSSHD-787
p52
aVSSHD-786
p53
aVSSHD-785
p54
aVSSHD-784
p55
aVSSHD-783
p56
aVSSHD-782
p57
aVSSHD-781
p58
aVSSHD-780
p59
aVSSHD-779
p60
aVSSHD-778
p61
aVSSHD-777
p62
aVSSHD-776
p63
aVSSHD-775
p64
aVSSHD-774
p65
aVSSHD-773
p66
aVSSHD-772
p67
aVSSHD-771
p68
aVSSHD-770
p69
aVSSHD-769
p70
aVSSHD-768
p71
aVSSHD-767
p72
aVSSHD-766
p73
aVSSHD-765
p74
aVSSHD-764
p75
aVSSHD-763
p76
aVSSHD-762
p77
aVSSHD-761
p78
aVSSHD-760
p79
aVSSHD-759
p80
aVSSHD-758
p81
aVSSHD-757
p82
aVSSHD-756
p83
aVSSHD-755
p84
aVSSHD-754
p85
aVSSHD-753
p86
aVSSHD-752
p87
aVSSHD-751
p88
aVSSHD-750
p89
aVSSHD-749
p90
aVSSHD-748
p91
aVSSHD-747
p92
aVSSHD-746
p93
aVSSHD-745
p94
aVSSHD-744
p95
aVSSHD-743
p96
aVSSHD-742
p97
aVSSHD-741
p98
aVSSHD-740
p99
aVSSHD-739
p100
aVSSHD-738
p101
aVSSHD-737
p102
aVSSHD-736
p103
aVSSHD-735
p104
aVSSHD-734
p105
aVSSHD-733
p106
aVSSHD-732
p107
aVSSHD-731
p108
aVSSHD-730
p109
aVSSHD-729
p110
aVSSHD-728
p111
aVSSHD-727
p112
aVSSHD-726
p113
aVSSHD-725
p114
aVSSHD-724
p115
aVSSHD-723
p116
aVSSHD-722
p117
aVSSHD-721
p118
aVSSHD-720
p119
aVSSHD-719
p120
aVSSHD-718
p121
aVSSHD-717
p122
aVSSHD-716
p123
aVSSHD-715
p124
aVSSHD-714
p125
aVSSHD-713
p126
aVSSHD-712
p127
aVSSHD-711
p128
aVSSHD-710
p129
aVSSHD-709
p130
aVSSHD-708
p131
aVSSHD-707
p132
aVSSHD-706
p133
aVSSHD-705
p134
aVSSHD-704
p135
aVSSHD-703
p136
aVSSHD-702
p137
aVSSHD-701
p138
aVSSHD-700
p139
aVSSHD-699
p140
aVSSHD-698
p141
aVSSHD-697
p142
aVSSHD-696
p143
aVSSHD-695
p144
aVSSHD-694
p145
aVSSHD-693
p146
aVSSHD-692
p147
aVSSHD-691
p148
aVSSHD-690
p149
aVSSHD-689
p150
aVSSHD-688
p151
aVSSHD-687
p152
aVSSHD-686
p153
aVSSHD-685
p154
aVSSHD-684
p155
aVSSHD-683
p156
aVSSHD-682
p157
aVSSHD-681
p158
aVSSHD-680
p159
aVSSHD-679
p160
aVSSHD-678
p161
aVSSHD-677
p162
aVSSHD-676
p163
aVSSHD-675
p164
aVSSHD-674
p165
aVSSHD-673
p166
aVSSHD-672
p167
aVSSHD-671
p168
aVSSHD-670
p169
aVSSHD-669
p170
aVSSHD-668
p171
aVSSHD-667
p172
aVSSHD-666
p173
aVSSHD-665
p174
aVSSHD-664
p175
aVSSHD-663
p176
aVSSHD-662
p177
aVSSHD-661
p178
aVSSHD-660
p179
aVSSHD-659
p180
aVSSHD-658
p181
aVSSHD-657
p182
aVSSHD-656
p183
aVSSHD-655
p184
aVSSHD-654
p185
aVSSHD-653
p186
aVSSHD-652
p187
aVSSHD-651
p188
aVSSHD-650
p189
aVSSHD-649
p190
aVSSHD-648
p191
aVSSHD-647
p192
aVSSHD-646
p193
aVSSHD-645
p194
aVSSHD-644
p195
aVSSHD-643
p196
aVSSHD-642
p197
aVSSHD-641
p198
aVSSHD-640
p199
aVSSHD-639
p200
aVSSHD-638
p201
aVSSHD-637
p202
aVSSHD-636
p203
aVSSHD-635
p204
aVSSHD-634
p205
aVSSHD-633
p206
aVSSHD-632
p207
aVSSHD-631
p208
aVSSHD-630
p209
aVSSHD-629
p210
aVSSHD-628
p211
aVSSHD-627
p212
aVSSHD-626
p213
aVSSHD-625
p214
aVSSHD-624
p215
aVSSHD-623
p216
aVSSHD-622
p217
aVSSHD-621
p218
aVSSHD-620
p219
aVSSHD-619
p220
aVSSHD-618
p221
aVSSHD-617
p222
aVSSHD-616
p223
aVSSHD-615
p224
aVSSHD-614
p225
aVSSHD-613
p226
aVSSHD-612
p227
aVSSHD-611
p228
aVSSHD-610
p229
aVSSHD-609
p230
aVSSHD-608
p231
aVSSHD-607
p232
aVSSHD-606
p233
aVSSHD-605
p234
aVSSHD-604
p235
aVSSHD-603
p236
aVSSHD-602
p237
aVSSHD-601
p238
aVSSHD-600
p239
aVSSHD-599
p240
aVSSHD-598
p241
aVSSHD-597
p242
aVSSHD-596
p243
aVSSHD-595
p244
aVSSHD-594
p245
aVSSHD-593
p246
aVSSHD-592
p247
aVSSHD-591
p248
aVSSHD-590
p249
aVSSHD-589
p250
aVSSHD-588
p251
aVSSHD-587
p252
aVSSHD-586
p253
aVSSHD-585
p254
aVSSHD-584
p255
aVSSHD-583
p256
aVSSHD-582
p257
aVSSHD-581
p258
aVSSHD-580
p259
aVSSHD-579
p260
aVSSHD-578
p261
aVSSHD-577
p262
aVSSHD-576
p263
aVSSHD-575
p264
aVSSHD-574
p265
aVSSHD-573
p266
aVSSHD-572
p267
aVSSHD-571
p268
aVSSHD-570
p269
aVSSHD-569
p270
aVSSHD-568
p271
aVSSHD-567
p272
aVSSHD-566
p273
aVSSHD-565
p274
aVSSHD-564
p275
aVSSHD-563
p276
aVSSHD-562
p277
aVSSHD-561
p278
aVSSHD-560
p279
aVSSHD-559
p280
aVSSHD-558
p281
aVSSHD-557
p282
aVSSHD-556
p283
aVSSHD-555
p284
aVSSHD-554
p285
aVSSHD-553
p286
aVSSHD-552
p287
aVSSHD-551
p288
aVSSHD-550
p289
aVSSHD-549
p290
aVSSHD-548
p291
aVSSHD-547
p292
aVSSHD-546
p293
aVSSHD-545
p294
aVSSHD-544
p295
aVSSHD-543
p296
aVSSHD-542
p297
aVSSHD-541
p298
aVSSHD-540
p299
aVSSHD-539
p300
aVSSHD-538
p301
aVSSHD-537
p302
aVSSHD-536
p303
aVSSHD-535
p304
aVSSHD-534
p305
aVSSHD-533
p306
aVSSHD-532
p307
aVSSHD-531
p308
aVSSHD-530
p309
aVSSHD-529
p310
aVSSHD-528
p311
aVSSHD-527
p312
aVSSHD-526
p313
aVSSHD-525
p314
aVSSHD-524
p315
aVSSHD-523
p316
aVSSHD-522
p317
aVSSHD-521
p318
aVSSHD-520
p319
aVSSHD-519
p320
aVSSHD-518
p321
aVSSHD-517
p322
aVSSHD-516
p323
aVSSHD-515
p324
aVSSHD-514
p325
aVSSHD-513
p326
aVSSHD-512
p327
aVSSHD-511
p328
aVSSHD-510
p329
aVSSHD-509
p330
aVSSHD-508
p331
aVSSHD-507
p332
aVSSHD-506
p333
aVSSHD-505
p334
aVSSHD-504
p335
aVSSHD-503
p336
aVSSHD-502
p337
aVSSHD-501
p338
aVSSHD-500
p339
aVSSHD-499
p340
aVSSHD-498
p341
aVSSHD-497
p342
aVSSHD-496
p343
aVSSHD-495
p344
aVSSHD-494
p345
aVSSHD-493
p346
aVSSHD-492
p347
aVSSHD-491
p348
aVSSHD-490
p349
aVSSHD-489
p350
aVSSHD-488
p351
aVSSHD-487
p352
aVSSHD-486
p353
aVSSHD-485
p354
aVSSHD-484
p355
aVSSHD-483
p356
aVSSHD-482
p357
aVSSHD-481
p358
aVSSHD-480
p359
aVSSHD-479
p360
aVSSHD-478
p361
aVSSHD-477
p362
aVSSHD-476
p363
aVSSHD-475
p364
aVSSHD-474
p365
aVSSHD-473
p366
aVSSHD-472
p367
aVSSHD-471
p368
aVSSHD-470
p369
aVSSHD-469
p370
aVSSHD-468
p371
aVSSHD-467
p372
aVSSHD-466
p373
aVSSHD-465
p374
aVSSHD-464
p375
aVSSHD-463
p376
aVSSHD-462
p377
aVSSHD-461
p378
aVSSHD-460
p379
aVSSHD-459
p380
aVSSHD-458
p381
aVSSHD-457
p382
aVSSHD-456
p383
aVSSHD-455
p384
aVSSHD-454
p385
aVSSHD-453
p386
aVSSHD-452
p387
aVSSHD-451
p388
aVSSHD-450
p389
aVSSHD-449
p390
aVSSHD-448
p391
aVSSHD-447
p392
aVSSHD-446
p393
aVSSHD-445
p394
aVSSHD-444
p395
aVSSHD-443
p396
aVSSHD-442
p397
aVSSHD-441
p398
aVSSHD-440
p399
aVSSHD-439
p400
aVSSHD-438
p401
aVSSHD-437
p402
aVSSHD-436
p403
aVSSHD-435
p404
aVSSHD-434
p405
aVSSHD-433
p406
aVSSHD-432
p407
aVSSHD-431
p408
aVSSHD-430
p409
aVSSHD-429
p410
aVSSHD-428
p411
aVSSHD-427
p412
aVSSHD-426
p413
aVSSHD-425
p414
aVSSHD-424
p415
aVSSHD-423
p416
aVSSHD-422
p417
aVSSHD-421
p418
aVSSHD-420
p419
aVSSHD-419
p420
aVSSHD-418
p421
aVSSHD-417
p422
aVSSHD-416
p423
aVSSHD-415
p424
aVSSHD-414
p425
aVSSHD-413
p426
aVSSHD-412
p427
aVSSHD-411
p428
aVSSHD-410
p429
aVSSHD-409
p430
aVSSHD-408
p431
aVSSHD-407
p432
aVSSHD-406
p433
aVSSHD-405
p434
aVSSHD-404
p435
aVSSHD-403
p436
aVSSHD-402
p437
aVSSHD-401
p438
aVSSHD-400
p439
aVSSHD-399
p440
aVSSHD-398
p441
aVSSHD-397
p442
aVSSHD-396
p443
aVSSHD-395
p444
aVSSHD-394
p445
aVSSHD-393
p446
aVSSHD-392
p447
aVSSHD-391
p448
aVSSHD-390
p449
aVSSHD-389
p450
aVSSHD-388
p451
aVSSHD-387
p452
aVSSHD-386
p453
aVSSHD-385
p454
aVSSHD-384
p455
aVSSHD-383
p456
aVSSHD-382
p457
aVSSHD-381
p458
aVSSHD-380
p459
aVSSHD-379
p460
aVSSHD-378
p461
aVSSHD-377
p462
aVSSHD-376
p463
aVSSHD-375
p464
aVSSHD-374
p465
aVSSHD-373
p466
aVSSHD-372
p467
aVSSHD-371
p468
aVSSHD-370
p469
aVSSHD-369
p470
aVSSHD-368
p471
aVSSHD-367
p472
aVSSHD-366
p473
aVSSHD-365
p474
aVSSHD-364
p475
aVSSHD-363
p476
aVSSHD-362
p477
aVSSHD-361
p478
aVSSHD-360
p479
aVSSHD-359
p480
aVSSHD-358
p481
aVSSHD-357
p482
aVSSHD-356
p483
aVSSHD-355
p484
aVSSHD-354
p485
aVSSHD-353
p486
aVSSHD-352
p487
aVSSHD-351
p488
aVSSHD-350
p489
aVSSHD-349
p490
aVSSHD-348
p491
aVSSHD-347
p492
aVSSHD-346
p493
aVSSHD-345
p494
aVSSHD-344
p495
aVSSHD-343
p496
aVSSHD-342
p497
aVSSHD-341
p498
aVSSHD-340
p499
aVSSHD-339
p500
aVSSHD-338
p501
aVSSHD-337
p502
aVSSHD-336
p503
aVSSHD-335
p504
aVSSHD-334
p505
aVSSHD-333
p506
aVSSHD-332
p507
aVSSHD-331
p508
aVSSHD-330
p509
aVSSHD-329
p510
aVSSHD-328
p511
aVSSHD-327
p512
aVSSHD-326
p513
aVSSHD-325
p514
aVSSHD-324
p515
aVSSHD-323
p516
aVSSHD-322
p517
aVSSHD-321
p518
aVSSHD-320
p519
aVSSHD-319
p520
aVSSHD-318
p521
aVSSHD-317
p522
aVSSHD-316
p523
aVSSHD-315
p524
aVSSHD-314
p525
aVSSHD-313
p526
aVSSHD-312
p527
aVSSHD-311
p528
aVSSHD-310
p529
aVSSHD-309
p530
aVSSHD-308
p531
aVSSHD-307
p532
aVSSHD-306
p533
aVSSHD-305
p534
aVSSHD-304
p535
aVSSHD-303
p536
aVSSHD-302
p537
aVSSHD-301
p538
aVSSHD-300
p539
aVSSHD-299
p540
aVSSHD-298
p541
aVSSHD-297
p542
aVSSHD-296
p543
aVSSHD-295
p544
aVSSHD-294
p545
aVSSHD-293
p546
aVSSHD-292
p547
aVSSHD-291
p548
aVSSHD-290
p549
aVSSHD-289
p550
aVSSHD-288
p551
aVSSHD-287
p552
aVSSHD-286
p553
aVSSHD-285
p554
aVSSHD-284
p555
aVSSHD-283
p556
aVSSHD-282
p557
aVSSHD-281
p558
aVSSHD-280
p559
aVSSHD-279
p560
aVSSHD-278
p561
aVSSHD-277
p562
aVSSHD-276
p563
aVSSHD-275
p564
aVSSHD-274
p565
aVSSHD-273
p566
aVSSHD-272
p567
aVSSHD-271
p568
aVSSHD-270
p569
aVSSHD-269
p570
aVSSHD-268
p571
aVSSHD-267
p572
aVSSHD-266
p573
aVSSHD-265
p574
aVSSHD-264
p575
aVSSHD-263
p576
aVSSHD-262
p577
aVSSHD-261
p578
aVSSHD-260
p579
aVSSHD-259
p580
aVSSHD-258
p581
aVSSHD-257
p582
aVSSHD-256
p583
aVSSHD-255
p584
aVSSHD-254
p585
aVSSHD-253
p586
aVSSHD-252
p587
aVSSHD-251
p588
aVSSHD-250
p589
aVSSHD-249
p590
aVSSHD-248
p591
aVSSHD-247
p592
aVSSHD-246
p593
aVSSHD-245
p594
aVSSHD-244
p595
aVSSHD-243
p596
aVSSHD-242
p597
aVSSHD-241
p598
aVSSHD-240
p599
aVSSHD-239
p600
aVSSHD-238
p601
aVSSHD-237
p602
aVSSHD-236
p603
aVSSHD-235
p604
aVSSHD-234
p605
aVSSHD-233
p606
aVSSHD-232
p607
aVSSHD-231
p608
aVSSHD-230
p609
aVSSHD-229
p610
aVSSHD-228
p611
aVSSHD-227
p612
aVSSHD-226
p613
aVSSHD-225
p614
aVSSHD-224
p615
aVSSHD-223
p616
aVSSHD-222
p617
aVSSHD-221
p618
aVSSHD-220
p619
aVSSHD-219
p620
aVSSHD-218
p621
aVSSHD-217
p622
aVSSHD-216
p623
aVSSHD-215
p624
aVSSHD-214
p625
aVSSHD-213
p626
aVSSHD-212
p627
aVSSHD-211
p628
aVSSHD-210
p629
aVSSHD-209
p630
aVSSHD-208
p631
aVSSHD-207
p632
aVSSHD-206
p633
aVSSHD-205
p634
aVSSHD-204
p635
aVSSHD-203
p636
aVSSHD-202
p637
aVSSHD-201
p638
aVSSHD-200
p639
aVSSHD-199
p640
aVSSHD-198
p641
aVSSHD-197
p642
aVSSHD-196
p643
aVSSHD-195
p644
aVSSHD-194
p645
aVSSHD-193
p646
aVSSHD-192
p647
aVSSHD-191
p648
aVSSHD-190
p649
aVSSHD-189
p650
aVSSHD-188
p651
aVSSHD-187
p652
aVSSHD-186
p653
aVSSHD-185
p654
aVSSHD-184
p655
aVSSHD-183
p656
aVSSHD-182
p657
aVSSHD-181
p658
aVSSHD-180
p659
aVSSHD-179
p660
aVSSHD-178
p661
aVSSHD-177
p662
aVSSHD-176
p663
aVSSHD-175
p664
aVSSHD-174
p665
aVSSHD-173
p666
aVSSHD-172
p667
aVSSHD-171
p668
aVSSHD-170
p669
aVSSHD-169
p670
aVSSHD-168
p671
aVSSHD-167
p672
aVSSHD-166
p673
aVSSHD-165
p674
aVSSHD-164
p675
aVSSHD-163
p676
aVSSHD-162
p677
aVSSHD-161
p678
aVSSHD-160
p679
aVSSHD-159
p680
aVSSHD-158
p681
aVSSHD-157
p682
aVSSHD-156
p683
aVSSHD-155
p684
aVSSHD-154
p685
aVSSHD-153
p686
aVSSHD-152
p687
aVSSHD-151
p688
aVSSHD-150
p689
aVSSHD-149
p690
aVSSHD-148
p691
aVSSHD-147
p692
aVSSHD-146
p693
aVSSHD-145
p694
aVSSHD-144
p695
aVSSHD-143
p696
aVSSHD-142
p697
aVSSHD-141
p698
aVSSHD-140
p699
aVSSHD-139
p700
aVSSHD-138
p701
aVSSHD-137
p702
aVSSHD-136
p703
aVSSHD-135
p704
aVSSHD-134
p705
aVSSHD-133
p706
aVSSHD-132
p707
aVSSHD-131
p708
aVSSHD-130
p709
aVSSHD-129
p710
aVSSHD-128
p711
aVSSHD-127
p712
aVSSHD-126
p713
aVSSHD-125
p714
aVSSHD-124
p715
aVSSHD-123
p716
aVSSHD-122
p717
aVSSHD-121
p718
aVSSHD-120
p719
aVSSHD-119
p720
aVSSHD-118
p721
aVSSHD-117
p722
aVSSHD-116
p723
aVSSHD-115
p724
aVSSHD-114
p725
aVSSHD-113
p726
aVSSHD-112
p727
aVSSHD-111
p728
aVSSHD-110
p729
aVSSHD-109
p730
aVSSHD-108
p731
aVSSHD-107
p732
aVSSHD-106
p733
aVSSHD-105
p734
aVSSHD-104
p735
aVSSHD-103
p736
aVSSHD-102
p737
aVSSHD-101
p738
aVSSHD-100
p739
aVSSHD-99
p740
aVSSHD-98
p741
aVSSHD-97
p742
aVSSHD-96
p743
aVSSHD-95
p744
aVSSHD-94
p745
aVSSHD-93
p746
aVSSHD-92
p747
aVSSHD-91
p748
aVSSHD-90
p749
aVSSHD-89
p750
aVSSHD-88
p751
aVSSHD-87
p752
aVSSHD-86
p753
aVSSHD-85
p754
aVSSHD-84
p755
aVSSHD-83
p756
aVSSHD-82
p757
aVSSHD-81
p758
aVSSHD-80
p759
aVSSHD-79
p760
aVSSHD-78
p761
aVSSHD-77
p762
aVSSHD-76
p763
aVSSHD-75
p764
aVSSHD-74
p765
aVSSHD-73
p766
aVSSHD-72
p767
aVSSHD-71
p768
aVSSHD-70
p769
aVSSHD-69
p770
aVSSHD-68
p771
aVSSHD-67
p772
aVSSHD-66
p773
aVSSHD-65
p774
aVSSHD-64
p775
aVSSHD-63
p776
aVSSHD-62
p777
aVSSHD-61
p778
aVSSHD-60
p779
aVSSHD-59
p780
aVSSHD-58
p781
aVSSHD-57
p782
aVSSHD-56
p783
aVSSHD-55
p784
aVSSHD-54
p785
aVSSHD-53
p786
aVSSHD-52
p787
aVSSHD-51
p788
aVSSHD-50
p789
aVSSHD-49
p790
aVSSHD-48
p791
aVSSHD-47
p792
aVSSHD-46
p793
aVSSHD-45
p794
aVSSHD-44
p795
aVSSHD-43
p796
aVSSHD-42
p797
aVSSHD-41
p798
aVSSHD-40
p799
aVSSHD-39
p800
aVSSHD-38
p801
aVSSHD-37
p802
aVSSHD-36
p803
aVSSHD-35
p804
aVSSHD-34
p805
aVSSHD-33
p806
aVSSHD-32
p807
aVSSHD-31
p808
aVSSHD-30
p809
aVSSHD-29
p810
aVSSHD-28
p811
aVSSHD-27
p812
aVSSHD-26
p813
aVSSHD-25
p814
aVSSHD-24
p815
aVSSHD-23
p816
aVSSHD-22
p817
aVSSHD-21
p818
aVSSHD-20
p819
aVSSHD-19
p820
aVSSHD-18
p821
aVSSHD-17
p822
aVSSHD-16
p823
aVSSHD-15
p824
aVSSHD-14
p825
aVSSHD-13
p826
aVSSHD-12
p827
aVSSHD-11
p828
aVSSHD-10
p829
aVSSHD-9
p830
aVSSHD-8
p831
aVSSHD-7
p832
aVSSHD-6
p833
aVSSHD-5
p834
aVSSHD-4
p835
aVSSHD-3
p836
aVSSHD-2
p837
aVSSHD-1
p838
a.