(lp0
VSTORM-3178
p1
aVSTORM-3177
p2
aVSTORM-3176
p3
aVSTORM-3175
p4
aVSTORM-3174
p5
aVSTORM-3173
p6
aVSTORM-3172
p7
aVSTORM-3171
p8
aVSTORM-3170
p9
aVSTORM-3169
p10
aVSTORM-3168
p11
aVSTORM-3167
p12
aVSTORM-3166
p13
aVSTORM-3165
p14
aVSTORM-3164
p15
aVSTORM-3163
p16
aVSTORM-3162
p17
aVSTORM-3161
p18
aVSTORM-3160
p19
aVSTORM-3159
p20
aVSTORM-3158
p21
aVSTORM-3157
p22
aVSTORM-3156
p23
aVSTORM-3155
p24
aVSTORM-3154
p25
aVSTORM-3153
p26
aVSTORM-3152
p27
aVSTORM-3151
p28
aVSTORM-3150
p29
aVSTORM-3149
p30
aVSTORM-3148
p31
aVSTORM-3147
p32
aVSTORM-3146
p33
aVSTORM-3145
p34
aVSTORM-3144
p35
aVSTORM-3143
p36
aVSTORM-3142
p37
aVSTORM-3141
p38
aVSTORM-3140
p39
aVSTORM-3139
p40
aVSTORM-3138
p41
aVSTORM-3137
p42
aVSTORM-3136
p43
aVSTORM-3135
p44
aVSTORM-3134
p45
aVSTORM-3133
p46
aVSTORM-3132
p47
aVSTORM-3131
p48
aVSTORM-3130
p49
aVSTORM-3129
p50
aVSTORM-3128
p51
aVSTORM-3127
p52
aVSTORM-3126
p53
aVSTORM-3125
p54
aVSTORM-3124
p55
aVSTORM-3123
p56
aVSTORM-3122
p57
aVSTORM-3121
p58
aVSTORM-3120
p59
aVSTORM-3119
p60
aVSTORM-3118
p61
aVSTORM-3117
p62
aVSTORM-3116
p63
aVSTORM-3115
p64
aVSTORM-3114
p65
aVSTORM-3113
p66
aVSTORM-3112
p67
aVSTORM-3111
p68
aVSTORM-3110
p69
aVSTORM-3109
p70
aVSTORM-3108
p71
aVSTORM-3107
p72
aVSTORM-3106
p73
aVSTORM-3105
p74
aVSTORM-3104
p75
aVSTORM-3103
p76
aVSTORM-3102
p77
aVSTORM-3101
p78
aVSTORM-3100
p79
aVSTORM-3099
p80
aVSTORM-3098
p81
aVSTORM-3097
p82
aVSTORM-3096
p83
aVSTORM-3095
p84
aVSTORM-3094
p85
aVSTORM-3093
p86
aVSTORM-3092
p87
aVSTORM-3091
p88
aVSTORM-3090
p89
aVSTORM-3089
p90
aVSTORM-3088
p91
aVSTORM-3087
p92
aVSTORM-3086
p93
aVSTORM-3085
p94
aVSTORM-3084
p95
aVSTORM-3083
p96
aVSTORM-3082
p97
aVSTORM-3081
p98
aVSTORM-3080
p99
aVSTORM-3079
p100
aVSTORM-3078
p101
aVSTORM-3077
p102
aVSTORM-3076
p103
aVSTORM-3075
p104
aVSTORM-3074
p105
aVSTORM-3073
p106
aVSTORM-3072
p107
aVSTORM-3071
p108
aVSTORM-3070
p109
aVSTORM-3069
p110
aVSTORM-3068
p111
aVSTORM-3067
p112
aVSTORM-3066
p113
aVSTORM-3065
p114
aVSTORM-3064
p115
aVSTORM-3063
p116
aVSTORM-3062
p117
aVSTORM-3061
p118
aVSTORM-3060
p119
aVSTORM-3059
p120
aVSTORM-3058
p121
aVSTORM-3057
p122
aVSTORM-3056
p123
aVSTORM-3055
p124
aVSTORM-3054
p125
aVSTORM-3053
p126
aVSTORM-3052
p127
aVSTORM-3051
p128
aVSTORM-3050
p129
aVSTORM-3049
p130
aVSTORM-3048
p131
aVSTORM-3047
p132
aVSTORM-3046
p133
aVSTORM-3045
p134
aVSTORM-3044
p135
aVSTORM-3043
p136
aVSTORM-3042
p137
aVSTORM-3041
p138
aVSTORM-3040
p139
aVSTORM-3039
p140
aVSTORM-3038
p141
aVSTORM-3037
p142
aVSTORM-3036
p143
aVSTORM-3035
p144
aVSTORM-3034
p145
aVSTORM-3033
p146
aVSTORM-3032
p147
aVSTORM-3031
p148
aVSTORM-3030
p149
aVSTORM-3029
p150
aVSTORM-3028
p151
aVSTORM-3027
p152
aVSTORM-3026
p153
aVSTORM-3025
p154
aVSTORM-3024
p155
aVSTORM-3023
p156
aVSTORM-3022
p157
aVSTORM-3021
p158
aVSTORM-3020
p159
aVSTORM-3019
p160
aVSTORM-3018
p161
aVSTORM-3017
p162
aVSTORM-3016
p163
aVSTORM-3015
p164
aVSTORM-3014
p165
aVSTORM-3013
p166
aVSTORM-3012
p167
aVSTORM-3011
p168
aVSTORM-3010
p169
aVSTORM-3009
p170
aVSTORM-3008
p171
aVSTORM-3007
p172
aVSTORM-3006
p173
aVSTORM-3005
p174
aVSTORM-3004
p175
aVSTORM-3003
p176
aVSTORM-3002
p177
aVSTORM-3001
p178
aVSTORM-3000
p179
aVSTORM-2999
p180
aVSTORM-2998
p181
aVSTORM-2997
p182
aVSTORM-2996
p183
aVSTORM-2995
p184
aVSTORM-2994
p185
aVSTORM-2993
p186
aVSTORM-2992
p187
aVSTORM-2991
p188
aVSTORM-2990
p189
aVSTORM-2989
p190
aVSTORM-2988
p191
aVSTORM-2987
p192
aVSTORM-2986
p193
aVSTORM-2985
p194
aVSTORM-2984
p195
aVSTORM-2983
p196
aVSTORM-2982
p197
aVSTORM-2981
p198
aVSTORM-2980
p199
aVSTORM-2979
p200
aVSTORM-2978
p201
aVSTORM-2977
p202
aVSTORM-2976
p203
aVSTORM-2975
p204
aVSTORM-2974
p205
aVSTORM-2973
p206
aVSTORM-2972
p207
aVSTORM-2971
p208
aVSTORM-2970
p209
aVSTORM-2969
p210
aVSTORM-2968
p211
aVSTORM-2967
p212
aVSTORM-2966
p213
aVSTORM-2965
p214
aVSTORM-2964
p215
aVSTORM-2963
p216
aVSTORM-2962
p217
aVSTORM-2961
p218
aVSTORM-2960
p219
aVSTORM-2959
p220
aVSTORM-2958
p221
aVSTORM-2957
p222
aVSTORM-2956
p223
aVSTORM-2955
p224
aVSTORM-2954
p225
aVSTORM-2953
p226
aVSTORM-2952
p227
aVSTORM-2951
p228
aVSTORM-2950
p229
aVSTORM-2949
p230
aVSTORM-2948
p231
aVSTORM-2947
p232
aVSTORM-2946
p233
aVSTORM-2945
p234
aVSTORM-2944
p235
aVSTORM-2943
p236
aVSTORM-2942
p237
aVSTORM-2941
p238
aVSTORM-2940
p239
aVSTORM-2939
p240
aVSTORM-2938
p241
aVSTORM-2937
p242
aVSTORM-2936
p243
aVSTORM-2935
p244
aVSTORM-2934
p245
aVSTORM-2933
p246
aVSTORM-2932
p247
aVSTORM-2931
p248
aVSTORM-2930
p249
aVSTORM-2929
p250
aVSTORM-2928
p251
aVSTORM-2927
p252
aVSTORM-2926
p253
aVSTORM-2925
p254
aVSTORM-2924
p255
aVSTORM-2923
p256
aVSTORM-2922
p257
aVSTORM-2921
p258
aVSTORM-2920
p259
aVSTORM-2919
p260
aVSTORM-2918
p261
aVSTORM-2917
p262
aVSTORM-2916
p263
aVSTORM-2915
p264
aVSTORM-2914
p265
aVSTORM-2913
p266
aVSTORM-2912
p267
aVSTORM-2911
p268
aVSTORM-2910
p269
aVSTORM-2909
p270
aVSTORM-2908
p271
aVSTORM-2907
p272
aVSTORM-2906
p273
aVSTORM-2905
p274
aVSTORM-2904
p275
aVSTORM-2903
p276
aVSTORM-2902
p277
aVSTORM-2901
p278
aVSTORM-2900
p279
aVSTORM-2899
p280
aVSTORM-2898
p281
aVSTORM-2897
p282
aVSTORM-2896
p283
aVSTORM-2895
p284
aVSTORM-2894
p285
aVSTORM-2893
p286
aVSTORM-2892
p287
aVSTORM-2891
p288
aVSTORM-2890
p289
aVSTORM-2889
p290
aVSTORM-2888
p291
aVSTORM-2887
p292
aVSTORM-2886
p293
aVSTORM-2885
p294
aVSTORM-2884
p295
aVSTORM-2883
p296
aVSTORM-2882
p297
aVSTORM-2881
p298
aVSTORM-2880
p299
aVSTORM-2879
p300
aVSTORM-2878
p301
aVSTORM-2877
p302
aVSTORM-2876
p303
aVSTORM-2875
p304
aVSTORM-2874
p305
aVSTORM-2873
p306
aVSTORM-2872
p307
aVSTORM-2871
p308
aVSTORM-2870
p309
aVSTORM-2869
p310
aVSTORM-2868
p311
aVSTORM-2867
p312
aVSTORM-2866
p313
aVSTORM-2865
p314
aVSTORM-2864
p315
aVSTORM-2863
p316
aVSTORM-2862
p317
aVSTORM-2861
p318
aVSTORM-2860
p319
aVSTORM-2859
p320
aVSTORM-2858
p321
aVSTORM-2857
p322
aVSTORM-2856
p323
aVSTORM-2855
p324
aVSTORM-2854
p325
aVSTORM-2853
p326
aVSTORM-2852
p327
aVSTORM-2851
p328
aVSTORM-2850
p329
aVSTORM-2849
p330
aVSTORM-2848
p331
aVSTORM-2847
p332
aVSTORM-2846
p333
aVSTORM-2845
p334
aVSTORM-2844
p335
aVSTORM-2843
p336
aVSTORM-2842
p337
aVSTORM-2841
p338
aVSTORM-2840
p339
aVSTORM-2839
p340
aVSTORM-2838
p341
aVSTORM-2837
p342
aVSTORM-2836
p343
aVSTORM-2835
p344
aVSTORM-2834
p345
aVSTORM-2833
p346
aVSTORM-2832
p347
aVSTORM-2831
p348
aVSTORM-2830
p349
aVSTORM-2829
p350
aVSTORM-2828
p351
aVSTORM-2827
p352
aVSTORM-2826
p353
aVSTORM-2825
p354
aVSTORM-2824
p355
aVSTORM-2823
p356
aVSTORM-2822
p357
aVSTORM-2821
p358
aVSTORM-2820
p359
aVSTORM-2819
p360
aVSTORM-2818
p361
aVSTORM-2817
p362
aVSTORM-2816
p363
aVSTORM-2815
p364
aVSTORM-2814
p365
aVSTORM-2813
p366
aVSTORM-2812
p367
aVSTORM-2811
p368
aVSTORM-2810
p369
aVSTORM-2809
p370
aVSTORM-2808
p371
aVSTORM-2807
p372
aVSTORM-2806
p373
aVSTORM-2805
p374
aVSTORM-2804
p375
aVSTORM-2803
p376
aVSTORM-2802
p377
aVSTORM-2801
p378
aVSTORM-2800
p379
aVSTORM-2799
p380
aVSTORM-2798
p381
aVSTORM-2797
p382
aVSTORM-2796
p383
aVSTORM-2795
p384
aVSTORM-2794
p385
aVSTORM-2793
p386
aVSTORM-2792
p387
aVSTORM-2791
p388
aVSTORM-2790
p389
aVSTORM-2789
p390
aVSTORM-2788
p391
aVSTORM-2787
p392
aVSTORM-2786
p393
aVSTORM-2785
p394
aVSTORM-2784
p395
aVSTORM-2783
p396
aVSTORM-2782
p397
aVSTORM-2781
p398
aVSTORM-2780
p399
aVSTORM-2779
p400
aVSTORM-2778
p401
aVSTORM-2777
p402
aVSTORM-2776
p403
aVSTORM-2775
p404
aVSTORM-2774
p405
aVSTORM-2773
p406
aVSTORM-2772
p407
aVSTORM-2771
p408
aVSTORM-2770
p409
aVSTORM-2769
p410
aVSTORM-2768
p411
aVSTORM-2767
p412
aVSTORM-2766
p413
aVSTORM-2765
p414
aVSTORM-2764
p415
aVSTORM-2763
p416
aVSTORM-2762
p417
aVSTORM-2761
p418
aVSTORM-2760
p419
aVSTORM-2759
p420
aVSTORM-2758
p421
aVSTORM-2757
p422
aVSTORM-2756
p423
aVSTORM-2755
p424
aVSTORM-2754
p425
aVSTORM-2753
p426
aVSTORM-2752
p427
aVSTORM-2751
p428
aVSTORM-2750
p429
aVSTORM-2749
p430
aVSTORM-2748
p431
aVSTORM-2747
p432
aVSTORM-2746
p433
aVSTORM-2745
p434
aVSTORM-2744
p435
aVSTORM-2743
p436
aVSTORM-2742
p437
aVSTORM-2741
p438
aVSTORM-2740
p439
aVSTORM-2739
p440
aVSTORM-2738
p441
aVSTORM-2737
p442
aVSTORM-2736
p443
aVSTORM-2735
p444
aVSTORM-2734
p445
aVSTORM-2733
p446
aVSTORM-2732
p447
aVSTORM-2731
p448
aVSTORM-2730
p449
aVSTORM-2729
p450
aVSTORM-2728
p451
aVSTORM-2727
p452
aVSTORM-2726
p453
aVSTORM-2725
p454
aVSTORM-2724
p455
aVSTORM-2723
p456
aVSTORM-2722
p457
aVSTORM-2721
p458
aVSTORM-2720
p459
aVSTORM-2719
p460
aVSTORM-2718
p461
aVSTORM-2717
p462
aVSTORM-2716
p463
aVSTORM-2715
p464
aVSTORM-2714
p465
aVSTORM-2713
p466
aVSTORM-2712
p467
aVSTORM-2711
p468
aVSTORM-2710
p469
aVSTORM-2709
p470
aVSTORM-2708
p471
aVSTORM-2707
p472
aVSTORM-2706
p473
aVSTORM-2705
p474
aVSTORM-2704
p475
aVSTORM-2703
p476
aVSTORM-2702
p477
aVSTORM-2701
p478
aVSTORM-2700
p479
aVSTORM-2699
p480
aVSTORM-2698
p481
aVSTORM-2697
p482
aVSTORM-2696
p483
aVSTORM-2695
p484
aVSTORM-2694
p485
aVSTORM-2693
p486
aVSTORM-2692
p487
aVSTORM-2691
p488
aVSTORM-2690
p489
aVSTORM-2689
p490
aVSTORM-2688
p491
aVSTORM-2687
p492
aVSTORM-2686
p493
aVSTORM-2685
p494
aVSTORM-2684
p495
aVSTORM-2683
p496
aVSTORM-2682
p497
aVSTORM-2681
p498
aVSTORM-2680
p499
aVSTORM-2679
p500
aVSTORM-2678
p501
aVSTORM-2677
p502
aVSTORM-2676
p503
aVSTORM-2675
p504
aVSTORM-2674
p505
aVSTORM-2673
p506
aVSTORM-2672
p507
aVSTORM-2671
p508
aVSTORM-2670
p509
aVSTORM-2669
p510
aVSTORM-2668
p511
aVSTORM-2667
p512
aVSTORM-2666
p513
aVSTORM-2665
p514
aVSTORM-2664
p515
aVSTORM-2663
p516
aVSTORM-2662
p517
aVSTORM-2661
p518
aVSTORM-2660
p519
aVSTORM-2659
p520
aVSTORM-2658
p521
aVSTORM-2657
p522
aVSTORM-2656
p523
aVSTORM-2655
p524
aVSTORM-2654
p525
aVSTORM-2653
p526
aVSTORM-2652
p527
aVSTORM-2651
p528
aVSTORM-2650
p529
aVSTORM-2649
p530
aVSTORM-2648
p531
aVSTORM-2647
p532
aVSTORM-2646
p533
aVSTORM-2645
p534
aVSTORM-2644
p535
aVSTORM-2643
p536
aVSTORM-2642
p537
aVSTORM-2641
p538
aVSTORM-2640
p539
aVSTORM-2639
p540
aVSTORM-2638
p541
aVSTORM-2637
p542
aVSTORM-2636
p543
aVSTORM-2635
p544
aVSTORM-2634
p545
aVSTORM-2633
p546
aVSTORM-2632
p547
aVSTORM-2631
p548
aVSTORM-2630
p549
aVSTORM-2629
p550
aVSTORM-2628
p551
aVSTORM-2627
p552
aVSTORM-2626
p553
aVSTORM-2625
p554
aVSTORM-2624
p555
aVSTORM-2623
p556
aVSTORM-2622
p557
aVSTORM-2621
p558
aVSTORM-2620
p559
aVSTORM-2619
p560
aVSTORM-2618
p561
aVSTORM-2617
p562
aVSTORM-2616
p563
aVSTORM-2615
p564
aVSTORM-2614
p565
aVSTORM-2613
p566
aVSTORM-2612
p567
aVSTORM-2611
p568
aVSTORM-2610
p569
aVSTORM-2609
p570
aVSTORM-2608
p571
aVSTORM-2607
p572
aVSTORM-2606
p573
aVSTORM-2605
p574
aVSTORM-2604
p575
aVSTORM-2603
p576
aVSTORM-2602
p577
aVSTORM-2601
p578
aVSTORM-2600
p579
aVSTORM-2599
p580
aVSTORM-2598
p581
aVSTORM-2597
p582
aVSTORM-2596
p583
aVSTORM-2595
p584
aVSTORM-2594
p585
aVSTORM-2593
p586
aVSTORM-2592
p587
aVSTORM-2591
p588
aVSTORM-2590
p589
aVSTORM-2589
p590
aVSTORM-2588
p591
aVSTORM-2587
p592
aVSTORM-2586
p593
aVSTORM-2585
p594
aVSTORM-2584
p595
aVSTORM-2583
p596
aVSTORM-2582
p597
aVSTORM-2581
p598
aVSTORM-2580
p599
aVSTORM-2579
p600
aVSTORM-2578
p601
aVSTORM-2577
p602
aVSTORM-2576
p603
aVSTORM-2575
p604
aVSTORM-2574
p605
aVSTORM-2573
p606
aVSTORM-2572
p607
aVSTORM-2571
p608
aVSTORM-2570
p609
aVSTORM-2569
p610
aVSTORM-2568
p611
aVSTORM-2567
p612
aVSTORM-2566
p613
aVSTORM-2565
p614
aVSTORM-2564
p615
aVSTORM-2563
p616
aVSTORM-2562
p617
aVSTORM-2561
p618
aVSTORM-2560
p619
aVSTORM-2559
p620
aVSTORM-2558
p621
aVSTORM-2557
p622
aVSTORM-2556
p623
aVSTORM-2555
p624
aVSTORM-2554
p625
aVSTORM-2553
p626
aVSTORM-2552
p627
aVSTORM-2551
p628
aVSTORM-2550
p629
aVSTORM-2549
p630
aVSTORM-2548
p631
aVSTORM-2547
p632
aVSTORM-2546
p633
aVSTORM-2545
p634
aVSTORM-2544
p635
aVSTORM-2543
p636
aVSTORM-2542
p637
aVSTORM-2541
p638
aVSTORM-2540
p639
aVSTORM-2539
p640
aVSTORM-2538
p641
aVSTORM-2537
p642
aVSTORM-2536
p643
aVSTORM-2535
p644
aVSTORM-2534
p645
aVSTORM-2533
p646
aVSTORM-2532
p647
aVSTORM-2531
p648
aVSTORM-2530
p649
aVSTORM-2529
p650
aVSTORM-2528
p651
aVSTORM-2527
p652
aVSTORM-2526
p653
aVSTORM-2525
p654
aVSTORM-2524
p655
aVSTORM-2523
p656
aVSTORM-2522
p657
aVSTORM-2521
p658
aVSTORM-2520
p659
aVSTORM-2519
p660
aVSTORM-2518
p661
aVSTORM-2517
p662
aVSTORM-2516
p663
aVSTORM-2515
p664
aVSTORM-2514
p665
aVSTORM-2513
p666
aVSTORM-2512
p667
aVSTORM-2511
p668
aVSTORM-2510
p669
aVSTORM-2509
p670
aVSTORM-2508
p671
aVSTORM-2507
p672
aVSTORM-2506
p673
aVSTORM-2505
p674
aVSTORM-2504
p675
aVSTORM-2503
p676
aVSTORM-2502
p677
aVSTORM-2501
p678
aVSTORM-2500
p679
aVSTORM-2499
p680
aVSTORM-2498
p681
aVSTORM-2497
p682
aVSTORM-2496
p683
aVSTORM-2495
p684
aVSTORM-2494
p685
aVSTORM-2493
p686
aVSTORM-2492
p687
aVSTORM-2491
p688
aVSTORM-2490
p689
aVSTORM-2489
p690
aVSTORM-2488
p691
aVSTORM-2487
p692
aVSTORM-2486
p693
aVSTORM-2485
p694
aVSTORM-2484
p695
aVSTORM-2483
p696
aVSTORM-2482
p697
aVSTORM-2481
p698
aVSTORM-2480
p699
aVSTORM-2479
p700
aVSTORM-2478
p701
aVSTORM-2477
p702
aVSTORM-2476
p703
aVSTORM-2475
p704
aVSTORM-2474
p705
aVSTORM-2473
p706
aVSTORM-2472
p707
aVSTORM-2471
p708
aVSTORM-2470
p709
aVSTORM-2469
p710
aVSTORM-2468
p711
aVSTORM-2467
p712
aVSTORM-2466
p713
aVSTORM-2465
p714
aVSTORM-2464
p715
aVSTORM-2463
p716
aVSTORM-2462
p717
aVSTORM-2461
p718
aVSTORM-2460
p719
aVSTORM-2459
p720
aVSTORM-2458
p721
aVSTORM-2457
p722
aVSTORM-2456
p723
aVSTORM-2455
p724
aVSTORM-2454
p725
aVSTORM-2453
p726
aVSTORM-2452
p727
aVSTORM-2451
p728
aVSTORM-2450
p729
aVSTORM-2449
p730
aVSTORM-2448
p731
aVSTORM-2447
p732
aVSTORM-2446
p733
aVSTORM-2445
p734
aVSTORM-2444
p735
aVSTORM-2443
p736
aVSTORM-2442
p737
aVSTORM-2441
p738
aVSTORM-2440
p739
aVSTORM-2439
p740
aVSTORM-2438
p741
aVSTORM-2437
p742
aVSTORM-2436
p743
aVSTORM-2435
p744
aVSTORM-2434
p745
aVSTORM-2433
p746
aVSTORM-2432
p747
aVSTORM-2431
p748
aVSTORM-2430
p749
aVSTORM-2429
p750
aVSTORM-2428
p751
aVSTORM-2427
p752
aVSTORM-2426
p753
aVSTORM-2425
p754
aVSTORM-2424
p755
aVSTORM-2423
p756
aVSTORM-2422
p757
aVSTORM-2421
p758
aVSTORM-2420
p759
aVSTORM-2419
p760
aVSTORM-2418
p761
aVSTORM-2417
p762
aVSTORM-2416
p763
aVSTORM-2415
p764
aVSTORM-2414
p765
aVSTORM-2413
p766
aVSTORM-2412
p767
aVSTORM-2411
p768
aVSTORM-2410
p769
aVSTORM-2409
p770
aVSTORM-2408
p771
aVSTORM-2407
p772
aVSTORM-2406
p773
aVSTORM-2405
p774
aVSTORM-2404
p775
aVSTORM-2403
p776
aVSTORM-2402
p777
aVSTORM-2401
p778
aVSTORM-2400
p779
aVSTORM-2399
p780
aVSTORM-2398
p781
aVSTORM-2397
p782
aVSTORM-2396
p783
aVSTORM-2395
p784
aVSTORM-2394
p785
aVSTORM-2393
p786
aVSTORM-2392
p787
aVSTORM-2391
p788
aVSTORM-2390
p789
aVSTORM-2389
p790
aVSTORM-2388
p791
aVSTORM-2387
p792
aVSTORM-2386
p793
aVSTORM-2385
p794
aVSTORM-2384
p795
aVSTORM-2383
p796
aVSTORM-2382
p797
aVSTORM-2381
p798
aVSTORM-2380
p799
aVSTORM-2379
p800
aVSTORM-2378
p801
aVSTORM-2377
p802
aVSTORM-2376
p803
aVSTORM-2375
p804
aVSTORM-2374
p805
aVSTORM-2373
p806
aVSTORM-2372
p807
aVSTORM-2371
p808
aVSTORM-2370
p809
aVSTORM-2369
p810
aVSTORM-2368
p811
aVSTORM-2367
p812
aVSTORM-2366
p813
aVSTORM-2365
p814
aVSTORM-2364
p815
aVSTORM-2363
p816
aVSTORM-2362
p817
aVSTORM-2361
p818
aVSTORM-2360
p819
aVSTORM-2359
p820
aVSTORM-2358
p821
aVSTORM-2357
p822
aVSTORM-2356
p823
aVSTORM-2355
p824
aVSTORM-2354
p825
aVSTORM-2353
p826
aVSTORM-2352
p827
aVSTORM-2351
p828
aVSTORM-2350
p829
aVSTORM-2349
p830
aVSTORM-2348
p831
aVSTORM-2347
p832
aVSTORM-2346
p833
aVSTORM-2345
p834
aVSTORM-2344
p835
aVSTORM-2343
p836
aVSTORM-2342
p837
aVSTORM-2341
p838
aVSTORM-2340
p839
aVSTORM-2339
p840
aVSTORM-2338
p841
aVSTORM-2337
p842
aVSTORM-2336
p843
aVSTORM-2335
p844
aVSTORM-2334
p845
aVSTORM-2333
p846
aVSTORM-2332
p847
aVSTORM-2331
p848
aVSTORM-2330
p849
aVSTORM-2329
p850
aVSTORM-2328
p851
aVSTORM-2327
p852
aVSTORM-2326
p853
aVSTORM-2325
p854
aVSTORM-2324
p855
aVSTORM-2323
p856
aVSTORM-2322
p857
aVSTORM-2321
p858
aVSTORM-2320
p859
aVSTORM-2319
p860
aVSTORM-2318
p861
aVSTORM-2317
p862
aVSTORM-2316
p863
aVSTORM-2315
p864
aVSTORM-2314
p865
aVSTORM-2313
p866
aVSTORM-2312
p867
aVSTORM-2311
p868
aVSTORM-2310
p869
aVSTORM-2309
p870
aVSTORM-2308
p871
aVSTORM-2307
p872
aVSTORM-2306
p873
aVSTORM-2305
p874
aVSTORM-2304
p875
aVSTORM-2303
p876
aVSTORM-2302
p877
aVSTORM-2301
p878
aVSTORM-2300
p879
aVSTORM-2299
p880
aVSTORM-2298
p881
aVSTORM-2297
p882
aVSTORM-2296
p883
aVSTORM-2295
p884
aVSTORM-2294
p885
aVSTORM-2293
p886
aVSTORM-2292
p887
aVSTORM-2291
p888
aVSTORM-2290
p889
aVSTORM-2289
p890
aVSTORM-2288
p891
aVSTORM-2287
p892
aVSTORM-2286
p893
aVSTORM-2285
p894
aVSTORM-2284
p895
aVSTORM-2283
p896
aVSTORM-2282
p897
aVSTORM-2281
p898
aVSTORM-2280
p899
aVSTORM-2279
p900
aVSTORM-2278
p901
aVSTORM-2277
p902
aVSTORM-2276
p903
aVSTORM-2275
p904
aVSTORM-2274
p905
aVSTORM-2273
p906
aVSTORM-2272
p907
aVSTORM-2271
p908
aVSTORM-2270
p909
aVSTORM-2269
p910
aVSTORM-2268
p911
aVSTORM-2267
p912
aVSTORM-2266
p913
aVSTORM-2265
p914
aVSTORM-2264
p915
aVSTORM-2263
p916
aVSTORM-2262
p917
aVSTORM-2261
p918
aVSTORM-2260
p919
aVSTORM-2259
p920
aVSTORM-2258
p921
aVSTORM-2257
p922
aVSTORM-2256
p923
aVSTORM-2255
p924
aVSTORM-2254
p925
aVSTORM-2253
p926
aVSTORM-2252
p927
aVSTORM-2251
p928
aVSTORM-2250
p929
aVSTORM-2249
p930
aVSTORM-2248
p931
aVSTORM-2247
p932
aVSTORM-2246
p933
aVSTORM-2245
p934
aVSTORM-2244
p935
aVSTORM-2243
p936
aVSTORM-2242
p937
aVSTORM-2241
p938
aVSTORM-2240
p939
aVSTORM-2239
p940
aVSTORM-2238
p941
aVSTORM-2237
p942
aVSTORM-2236
p943
aVSTORM-2235
p944
aVSTORM-2234
p945
aVSTORM-2233
p946
aVSTORM-2232
p947
aVSTORM-2231
p948
aVSTORM-2230
p949
aVSTORM-2229
p950
aVSTORM-2228
p951
aVSTORM-2227
p952
aVSTORM-2226
p953
aVSTORM-2225
p954
aVSTORM-2224
p955
aVSTORM-2223
p956
aVSTORM-2222
p957
aVSTORM-2221
p958
aVSTORM-2220
p959
aVSTORM-2219
p960
aVSTORM-2218
p961
aVSTORM-2217
p962
aVSTORM-2216
p963
aVSTORM-2215
p964
aVSTORM-2214
p965
aVSTORM-2213
p966
aVSTORM-2212
p967
aVSTORM-2211
p968
aVSTORM-2210
p969
aVSTORM-2209
p970
aVSTORM-2208
p971
aVSTORM-2207
p972
aVSTORM-2206
p973
aVSTORM-2205
p974
aVSTORM-2204
p975
aVSTORM-2203
p976
aVSTORM-2202
p977
aVSTORM-2201
p978
aVSTORM-2200
p979
aVSTORM-2199
p980
aVSTORM-2198
p981
aVSTORM-2197
p982
aVSTORM-2196
p983
aVSTORM-2195
p984
aVSTORM-2194
p985
aVSTORM-2193
p986
aVSTORM-2192
p987
aVSTORM-2191
p988
aVSTORM-2190
p989
aVSTORM-2189
p990
aVSTORM-2188
p991
aVSTORM-2187
p992
aVSTORM-2186
p993
aVSTORM-2185
p994
aVSTORM-2184
p995
aVSTORM-2183
p996
aVSTORM-2182
p997
aVSTORM-2181
p998
aVSTORM-2180
p999
aVSTORM-2179
p1000
aVSTORM-2178
p1001
aVSTORM-2177
p1002
aVSTORM-2176
p1003
aVSTORM-2175
p1004
aVSTORM-2174
p1005
aVSTORM-2173
p1006
aVSTORM-2172
p1007
aVSTORM-2171
p1008
aVSTORM-2170
p1009
aVSTORM-2169
p1010
aVSTORM-2168
p1011
aVSTORM-2167
p1012
aVSTORM-2166
p1013
aVSTORM-2165
p1014
aVSTORM-2164
p1015
aVSTORM-2163
p1016
aVSTORM-2162
p1017
aVSTORM-2161
p1018
aVSTORM-2160
p1019
aVSTORM-2159
p1020
aVSTORM-2158
p1021
aVSTORM-2157
p1022
aVSTORM-2156
p1023
aVSTORM-2155
p1024
aVSTORM-2154
p1025
aVSTORM-2153
p1026
aVSTORM-2152
p1027
aVSTORM-2151
p1028
aVSTORM-2150
p1029
aVSTORM-2149
p1030
aVSTORM-2148
p1031
aVSTORM-2147
p1032
aVSTORM-2146
p1033
aVSTORM-2145
p1034
aVSTORM-2144
p1035
aVSTORM-2143
p1036
aVSTORM-2142
p1037
aVSTORM-2141
p1038
aVSTORM-2140
p1039
aVSTORM-2139
p1040
aVSTORM-2138
p1041
aVSTORM-2137
p1042
aVSTORM-2136
p1043
aVSTORM-2135
p1044
aVSTORM-2134
p1045
aVSTORM-2133
p1046
aVSTORM-2132
p1047
aVSTORM-2131
p1048
aVSTORM-2130
p1049
aVSTORM-2129
p1050
aVSTORM-2128
p1051
aVSTORM-2127
p1052
aVSTORM-2126
p1053
aVSTORM-2125
p1054
aVSTORM-2124
p1055
aVSTORM-2123
p1056
aVSTORM-2122
p1057
aVSTORM-2121
p1058
aVSTORM-2120
p1059
aVSTORM-2119
p1060
aVSTORM-2118
p1061
aVSTORM-2117
p1062
aVSTORM-2116
p1063
aVSTORM-2115
p1064
aVSTORM-2114
p1065
aVSTORM-2113
p1066
aVSTORM-2112
p1067
aVSTORM-2111
p1068
aVSTORM-2110
p1069
aVSTORM-2109
p1070
aVSTORM-2108
p1071
aVSTORM-2107
p1072
aVSTORM-2106
p1073
aVSTORM-2105
p1074
aVSTORM-2104
p1075
aVSTORM-2103
p1076
aVSTORM-2102
p1077
aVSTORM-2101
p1078
aVSTORM-2100
p1079
aVSTORM-2099
p1080
aVSTORM-2098
p1081
aVSTORM-2097
p1082
aVSTORM-2096
p1083
aVSTORM-2095
p1084
aVSTORM-2094
p1085
aVSTORM-2093
p1086
aVSTORM-2092
p1087
aVSTORM-2091
p1088
aVSTORM-2090
p1089
aVSTORM-2089
p1090
aVSTORM-2088
p1091
aVSTORM-2087
p1092
aVSTORM-2086
p1093
aVSTORM-2085
p1094
aVSTORM-2084
p1095
aVSTORM-2083
p1096
aVSTORM-2082
p1097
aVSTORM-2081
p1098
aVSTORM-2080
p1099
aVSTORM-2079
p1100
aVSTORM-2078
p1101
aVSTORM-2077
p1102
aVSTORM-2076
p1103
aVSTORM-2075
p1104
aVSTORM-2074
p1105
aVSTORM-2073
p1106
aVSTORM-2072
p1107
aVSTORM-2071
p1108
aVSTORM-2070
p1109
aVSTORM-2069
p1110
aVSTORM-2068
p1111
aVSTORM-2067
p1112
aVSTORM-2066
p1113
aVSTORM-2065
p1114
aVSTORM-2064
p1115
aVSTORM-2063
p1116
aVSTORM-2062
p1117
aVSTORM-2061
p1118
aVSTORM-2060
p1119
aVSTORM-2059
p1120
aVSTORM-2058
p1121
aVSTORM-2057
p1122
aVSTORM-2056
p1123
aVSTORM-2055
p1124
aVSTORM-2054
p1125
aVSTORM-2053
p1126
aVSTORM-2052
p1127
aVSTORM-2051
p1128
aVSTORM-2050
p1129
aVSTORM-2049
p1130
aVSTORM-2048
p1131
aVSTORM-2047
p1132
aVSTORM-2046
p1133
aVSTORM-2045
p1134
aVSTORM-2044
p1135
aVSTORM-2043
p1136
aVSTORM-2042
p1137
aVSTORM-2041
p1138
aVSTORM-2040
p1139
aVSTORM-2039
p1140
aVSTORM-2038
p1141
aVSTORM-2037
p1142
aVSTORM-2036
p1143
aVSTORM-2035
p1144
aVSTORM-2034
p1145
aVSTORM-2033
p1146
aVSTORM-2032
p1147
aVSTORM-2031
p1148
aVSTORM-2030
p1149
aVSTORM-2029
p1150
aVSTORM-2028
p1151
aVSTORM-2027
p1152
aVSTORM-2026
p1153
aVSTORM-2025
p1154
aVSTORM-2024
p1155
aVSTORM-2023
p1156
aVSTORM-2022
p1157
aVSTORM-2021
p1158
aVSTORM-2020
p1159
aVSTORM-2019
p1160
aVSTORM-2018
p1161
aVSTORM-2017
p1162
aVSTORM-2016
p1163
aVSTORM-2015
p1164
aVSTORM-2014
p1165
aVSTORM-2013
p1166
aVSTORM-2012
p1167
aVSTORM-2011
p1168
aVSTORM-2010
p1169
aVSTORM-2009
p1170
aVSTORM-2008
p1171
aVSTORM-2007
p1172
aVSTORM-2006
p1173
aVSTORM-2005
p1174
aVSTORM-2004
p1175
aVSTORM-2003
p1176
aVSTORM-2002
p1177
aVSTORM-2001
p1178
aVSTORM-2000
p1179
aVSTORM-1999
p1180
aVSTORM-1998
p1181
aVSTORM-1997
p1182
aVSTORM-1996
p1183
aVSTORM-1995
p1184
aVSTORM-1994
p1185
aVSTORM-1993
p1186
aVSTORM-1992
p1187
aVSTORM-1991
p1188
aVSTORM-1990
p1189
aVSTORM-1989
p1190
aVSTORM-1988
p1191
aVSTORM-1987
p1192
aVSTORM-1986
p1193
aVSTORM-1985
p1194
aVSTORM-1984
p1195
aVSTORM-1983
p1196
aVSTORM-1982
p1197
aVSTORM-1981
p1198
aVSTORM-1980
p1199
aVSTORM-1979
p1200
aVSTORM-1978
p1201
aVSTORM-1977
p1202
aVSTORM-1976
p1203
aVSTORM-1975
p1204
aVSTORM-1974
p1205
aVSTORM-1973
p1206
aVSTORM-1972
p1207
aVSTORM-1971
p1208
aVSTORM-1970
p1209
aVSTORM-1969
p1210
aVSTORM-1968
p1211
aVSTORM-1967
p1212
aVSTORM-1966
p1213
aVSTORM-1965
p1214
aVSTORM-1964
p1215
aVSTORM-1963
p1216
aVSTORM-1962
p1217
aVSTORM-1961
p1218
aVSTORM-1960
p1219
aVSTORM-1959
p1220
aVSTORM-1958
p1221
aVSTORM-1957
p1222
aVSTORM-1956
p1223
aVSTORM-1955
p1224
aVSTORM-1954
p1225
aVSTORM-1953
p1226
aVSTORM-1952
p1227
aVSTORM-1951
p1228
aVSTORM-1950
p1229
aVSTORM-1949
p1230
aVSTORM-1948
p1231
aVSTORM-1947
p1232
aVSTORM-1946
p1233
aVSTORM-1945
p1234
aVSTORM-1944
p1235
aVSTORM-1943
p1236
aVSTORM-1942
p1237
aVSTORM-1941
p1238
aVSTORM-1940
p1239
aVSTORM-1939
p1240
aVSTORM-1938
p1241
aVSTORM-1937
p1242
aVSTORM-1936
p1243
aVSTORM-1935
p1244
aVSTORM-1934
p1245
aVSTORM-1933
p1246
aVSTORM-1932
p1247
aVSTORM-1931
p1248
aVSTORM-1930
p1249
aVSTORM-1929
p1250
aVSTORM-1928
p1251
aVSTORM-1927
p1252
aVSTORM-1926
p1253
aVSTORM-1925
p1254
aVSTORM-1924
p1255
aVSTORM-1923
p1256
aVSTORM-1922
p1257
aVSTORM-1921
p1258
aVSTORM-1920
p1259
aVSTORM-1919
p1260
aVSTORM-1918
p1261
aVSTORM-1917
p1262
aVSTORM-1916
p1263
aVSTORM-1915
p1264
aVSTORM-1914
p1265
aVSTORM-1913
p1266
aVSTORM-1912
p1267
aVSTORM-1911
p1268
aVSTORM-1910
p1269
aVSTORM-1909
p1270
aVSTORM-1908
p1271
aVSTORM-1907
p1272
aVSTORM-1906
p1273
aVSTORM-1905
p1274
aVSTORM-1904
p1275
aVSTORM-1903
p1276
aVSTORM-1902
p1277
aVSTORM-1901
p1278
aVSTORM-1900
p1279
aVSTORM-1899
p1280
aVSTORM-1898
p1281
aVSTORM-1897
p1282
aVSTORM-1896
p1283
aVSTORM-1895
p1284
aVSTORM-1894
p1285
aVSTORM-1893
p1286
aVSTORM-1892
p1287
aVSTORM-1891
p1288
aVSTORM-1890
p1289
aVSTORM-1889
p1290
aVSTORM-1888
p1291
aVSTORM-1887
p1292
aVSTORM-1886
p1293
aVSTORM-1885
p1294
aVSTORM-1884
p1295
aVSTORM-1883
p1296
aVSTORM-1882
p1297
aVSTORM-1881
p1298
aVSTORM-1880
p1299
aVSTORM-1879
p1300
aVSTORM-1878
p1301
aVSTORM-1876
p1302
aVSTORM-1875
p1303
aVSTORM-1874
p1304
aVSTORM-1873
p1305
aVSTORM-1872
p1306
aVSTORM-1871
p1307
aVSTORM-1870
p1308
aVSTORM-1869
p1309
aVSTORM-1868
p1310
aVSTORM-1867
p1311
aVSTORM-1866
p1312
aVSTORM-1865
p1313
aVSTORM-1864
p1314
aVSTORM-1863
p1315
aVSTORM-1862
p1316
aVSTORM-1861
p1317
aVSTORM-1860
p1318
aVSTORM-1859
p1319
aVSTORM-1858
p1320
aVSTORM-1857
p1321
aVSTORM-1856
p1322
aVSTORM-1855
p1323
aVSTORM-1854
p1324
aVSTORM-1853
p1325
aVSTORM-1852
p1326
aVSTORM-1851
p1327
aVSTORM-1850
p1328
aVSTORM-1849
p1329
aVSTORM-1848
p1330
aVSTORM-1847
p1331
aVSTORM-1846
p1332
aVSTORM-1845
p1333
aVSTORM-1844
p1334
aVSTORM-1843
p1335
aVSTORM-1842
p1336
aVSTORM-1841
p1337
aVSTORM-1840
p1338
aVSTORM-1839
p1339
aVSTORM-1838
p1340
aVSTORM-1837
p1341
aVSTORM-1836
p1342
aVSTORM-1835
p1343
aVSTORM-1834
p1344
aVSTORM-1833
p1345
aVSTORM-1832
p1346
aVSTORM-1779
p1347
aVSTORM-1778
p1348
aVSTORM-1777
p1349
aVSTORM-1776
p1350
aVSTORM-1775
p1351
aVSTORM-1774
p1352
aVSTORM-1773
p1353
aVSTORM-1772
p1354
aVSTORM-1771
p1355
aVSTORM-1770
p1356
aVSTORM-1769
p1357
aVSTORM-1768
p1358
aVSTORM-1767
p1359
aVSTORM-1766
p1360
aVSTORM-1765
p1361
aVSTORM-1764
p1362
aVSTORM-1763
p1363
aVSTORM-1762
p1364
aVSTORM-1761
p1365
aVSTORM-1760
p1366
aVSTORM-1759
p1367
aVSTORM-1758
p1368
aVSTORM-1757
p1369
aVSTORM-1756
p1370
aVSTORM-1755
p1371
aVSTORM-1754
p1372
aVSTORM-1753
p1373
aVSTORM-1752
p1374
aVSTORM-1751
p1375
aVSTORM-1750
p1376
aVSTORM-1749
p1377
aVSTORM-1748
p1378
aVSTORM-1747
p1379
aVSTORM-1746
p1380
aVSTORM-1745
p1381
aVSTORM-1744
p1382
aVSTORM-1743
p1383
aVSTORM-1742
p1384
aVSTORM-1741
p1385
aVSTORM-1740
p1386
aVSTORM-1739
p1387
aVSTORM-1738
p1388
aVSTORM-1737
p1389
aVSTORM-1736
p1390
aVSTORM-1735
p1391
aVSTORM-1734
p1392
aVSTORM-1733
p1393
aVSTORM-1732
p1394
aVSTORM-1731
p1395
aVSTORM-1730
p1396
aVSTORM-1729
p1397
aVSTORM-1728
p1398
aVSTORM-1727
p1399
aVSTORM-1726
p1400
aVSTORM-1725
p1401
aVSTORM-1724
p1402
aVSTORM-1723
p1403
aVSTORM-1722
p1404
aVSTORM-1721
p1405
aVSTORM-1720
p1406
aVSTORM-1719
p1407
aVSTORM-1718
p1408
aVSTORM-1717
p1409
aVSTORM-1716
p1410
aVSTORM-1715
p1411
aVSTORM-1714
p1412
aVSTORM-1713
p1413
aVSTORM-1712
p1414
aVSTORM-1711
p1415
aVSTORM-1710
p1416
aVSTORM-1709
p1417
aVSTORM-1708
p1418
aVSTORM-1707
p1419
aVSTORM-1706
p1420
aVSTORM-1705
p1421
aVSTORM-1704
p1422
aVSTORM-1703
p1423
aVSTORM-1702
p1424
aVSTORM-1701
p1425
aVSTORM-1700
p1426
aVSTORM-1699
p1427
aVSTORM-1698
p1428
aVSTORM-1697
p1429
aVSTORM-1696
p1430
aVSTORM-1695
p1431
aVSTORM-1694
p1432
aVSTORM-1693
p1433
aVSTORM-1692
p1434
aVSTORM-1691
p1435
aVSTORM-1690
p1436
aVSTORM-1689
p1437
aVSTORM-1688
p1438
aVSTORM-1687
p1439
aVSTORM-1686
p1440
aVSTORM-1685
p1441
aVSTORM-1684
p1442
aVSTORM-1683
p1443
aVSTORM-1682
p1444
aVSTORM-1681
p1445
aVSTORM-1680
p1446
aVSTORM-1679
p1447
aVSTORM-1678
p1448
aVSTORM-1677
p1449
aVSTORM-1676
p1450
aVSTORM-1675
p1451
aVSTORM-1674
p1452
aVSTORM-1673
p1453
aVSTORM-1672
p1454
aVSTORM-1671
p1455
aVSTORM-1670
p1456
aVSTORM-1669
p1457
aVSTORM-1668
p1458
aVSTORM-1667
p1459
aVSTORM-1666
p1460
aVSTORM-1665
p1461
aVSTORM-1664
p1462
aVSTORM-1663
p1463
aVSTORM-1662
p1464
aVSTORM-1661
p1465
aVSTORM-1660
p1466
aVSTORM-1659
p1467
aVSTORM-1658
p1468
aVSTORM-1657
p1469
aVSTORM-1656
p1470
aVSTORM-1655
p1471
aVSTORM-1654
p1472
aVSTORM-1653
p1473
aVSTORM-1652
p1474
aVSTORM-1651
p1475
aVSTORM-1650
p1476
aVSTORM-1649
p1477
aVSTORM-1648
p1478
aVSTORM-1647
p1479
aVSTORM-1646
p1480
aVSTORM-1645
p1481
aVSTORM-1644
p1482
aVSTORM-1643
p1483
aVSTORM-1642
p1484
aVSTORM-1641
p1485
aVSTORM-1640
p1486
aVSTORM-1639
p1487
aVSTORM-1638
p1488
aVSTORM-1637
p1489
aVSTORM-1636
p1490
aVSTORM-1635
p1491
aVSTORM-1634
p1492
aVSTORM-1633
p1493
aVSTORM-1632
p1494
aVSTORM-1631
p1495
aVSTORM-1630
p1496
aVSTORM-1629
p1497
aVSTORM-1628
p1498
aVSTORM-1627
p1499
aVSTORM-1626
p1500
aVSTORM-1625
p1501
aVSTORM-1624
p1502
aVSTORM-1623
p1503
aVSTORM-1622
p1504
aVSTORM-1621
p1505
aVSTORM-1620
p1506
aVSTORM-1619
p1507
aVSTORM-1618
p1508
aVSTORM-1617
p1509
aVSTORM-1616
p1510
aVSTORM-1615
p1511
aVSTORM-1614
p1512
aVSTORM-1613
p1513
aVSTORM-1612
p1514
aVSTORM-1611
p1515
aVSTORM-1610
p1516
aVSTORM-1609
p1517
aVSTORM-1608
p1518
aVSTORM-1607
p1519
aVSTORM-1606
p1520
aVSTORM-1605
p1521
aVSTORM-1604
p1522
aVSTORM-1603
p1523
aVSTORM-1602
p1524
aVSTORM-1601
p1525
aVSTORM-1600
p1526
aVSTORM-1599
p1527
aVSTORM-1598
p1528
aVSTORM-1597
p1529
aVSTORM-1596
p1530
aVSTORM-1595
p1531
aVSTORM-1594
p1532
aVSTORM-1593
p1533
aVSTORM-1592
p1534
aVSTORM-1591
p1535
aVSTORM-1590
p1536
aVSTORM-1589
p1537
aVSTORM-1588
p1538
aVSTORM-1587
p1539
aVSTORM-1586
p1540
aVSTORM-1585
p1541
aVSTORM-1584
p1542
aVSTORM-1583
p1543
aVSTORM-1582
p1544
aVSTORM-1581
p1545
aVSTORM-1580
p1546
aVSTORM-1579
p1547
aVSTORM-1578
p1548
aVSTORM-1577
p1549
aVSTORM-1576
p1550
aVSTORM-1575
p1551
aVSTORM-1574
p1552
aVSTORM-1573
p1553
aVSTORM-1572
p1554
aVSTORM-1571
p1555
aVSTORM-1570
p1556
aVSTORM-1569
p1557
aVSTORM-1568
p1558
aVSTORM-1567
p1559
aVSTORM-1566
p1560
aVSTORM-1565
p1561
aVSTORM-1564
p1562
aVSTORM-1563
p1563
aVSTORM-1562
p1564
aVSTORM-1561
p1565
aVSTORM-1560
p1566
aVSTORM-1559
p1567
aVSTORM-1558
p1568
aVSTORM-1557
p1569
aVSTORM-1556
p1570
aVSTORM-1555
p1571
aVSTORM-1554
p1572
aVSTORM-1553
p1573
aVSTORM-1552
p1574
aVSTORM-1551
p1575
aVSTORM-1550
p1576
aVSTORM-1549
p1577
aVSTORM-1548
p1578
aVSTORM-1547
p1579
aVSTORM-1546
p1580
aVSTORM-1545
p1581
aVSTORM-1544
p1582
aVSTORM-1543
p1583
aVSTORM-1542
p1584
aVSTORM-1541
p1585
aVSTORM-1540
p1586
aVSTORM-1539
p1587
aVSTORM-1538
p1588
aVSTORM-1537
p1589
aVSTORM-1536
p1590
aVSTORM-1535
p1591
aVSTORM-1534
p1592
aVSTORM-1533
p1593
aVSTORM-1532
p1594
aVSTORM-1531
p1595
aVSTORM-1530
p1596
aVSTORM-1529
p1597
aVSTORM-1528
p1598
aVSTORM-1527
p1599
aVSTORM-1526
p1600
aVSTORM-1525
p1601
aVSTORM-1524
p1602
aVSTORM-1523
p1603
aVSTORM-1522
p1604
aVSTORM-1521
p1605
aVSTORM-1520
p1606
aVSTORM-1519
p1607
aVSTORM-1518
p1608
aVSTORM-1517
p1609
aVSTORM-1516
p1610
aVSTORM-1515
p1611
aVSTORM-1514
p1612
aVSTORM-1513
p1613
aVSTORM-1512
p1614
aVSTORM-1511
p1615
aVSTORM-1510
p1616
aVSTORM-1509
p1617
aVSTORM-1508
p1618
aVSTORM-1507
p1619
aVSTORM-1506
p1620
aVSTORM-1505
p1621
aVSTORM-1504
p1622
aVSTORM-1503
p1623
aVSTORM-1502
p1624
aVSTORM-1501
p1625
aVSTORM-1500
p1626
aVSTORM-1499
p1627
aVSTORM-1498
p1628
aVSTORM-1497
p1629
aVSTORM-1496
p1630
aVSTORM-1495
p1631
aVSTORM-1494
p1632
aVSTORM-1493
p1633
aVSTORM-1492
p1634
aVSTORM-1491
p1635
aVSTORM-1490
p1636
aVSTORM-1489
p1637
aVSTORM-1488
p1638
aVSTORM-1487
p1639
aVSTORM-1486
p1640
aVSTORM-1485
p1641
aVSTORM-1484
p1642
aVSTORM-1483
p1643
aVSTORM-1482
p1644
aVSTORM-1481
p1645
aVSTORM-1480
p1646
aVSTORM-1479
p1647
aVSTORM-1478
p1648
aVSTORM-1477
p1649
aVSTORM-1476
p1650
aVSTORM-1475
p1651
aVSTORM-1474
p1652
aVSTORM-1473
p1653
aVSTORM-1472
p1654
aVSTORM-1471
p1655
aVSTORM-1470
p1656
aVSTORM-1469
p1657
aVSTORM-1468
p1658
aVSTORM-1467
p1659
aVSTORM-1466
p1660
aVSTORM-1465
p1661
aVSTORM-1464
p1662
aVSTORM-1463
p1663
aVSTORM-1462
p1664
aVSTORM-1461
p1665
aVSTORM-1460
p1666
aVSTORM-1459
p1667
aVSTORM-1458
p1668
aVSTORM-1457
p1669
aVSTORM-1456
p1670
aVSTORM-1455
p1671
aVSTORM-1454
p1672
aVSTORM-1453
p1673
aVSTORM-1452
p1674
aVSTORM-1451
p1675
aVSTORM-1450
p1676
aVSTORM-1449
p1677
aVSTORM-1448
p1678
aVSTORM-1447
p1679
aVSTORM-1446
p1680
aVSTORM-1445
p1681
aVSTORM-1444
p1682
aVSTORM-1443
p1683
aVSTORM-1442
p1684
aVSTORM-1441
p1685
aVSTORM-1440
p1686
aVSTORM-1439
p1687
aVSTORM-1438
p1688
aVSTORM-1437
p1689
aVSTORM-1436
p1690
aVSTORM-1435
p1691
aVSTORM-1434
p1692
aVSTORM-1433
p1693
aVSTORM-1432
p1694
aVSTORM-1431
p1695
aVSTORM-1430
p1696
aVSTORM-1429
p1697
aVSTORM-1428
p1698
aVSTORM-1427
p1699
aVSTORM-1426
p1700
aVSTORM-1425
p1701
aVSTORM-1424
p1702
aVSTORM-1423
p1703
aVSTORM-1422
p1704
aVSTORM-1421
p1705
aVSTORM-1420
p1706
aVSTORM-1419
p1707
aVSTORM-1418
p1708
aVSTORM-1417
p1709
aVSTORM-1416
p1710
aVSTORM-1415
p1711
aVSTORM-1414
p1712
aVSTORM-1413
p1713
aVSTORM-1412
p1714
aVSTORM-1411
p1715
aVSTORM-1410
p1716
aVSTORM-1409
p1717
aVSTORM-1408
p1718
aVSTORM-1407
p1719
aVSTORM-1406
p1720
aVSTORM-1405
p1721
aVSTORM-1404
p1722
aVSTORM-1403
p1723
aVSTORM-1402
p1724
aVSTORM-1401
p1725
aVSTORM-1400
p1726
aVSTORM-1399
p1727
aVSTORM-1398
p1728
aVSTORM-1397
p1729
aVSTORM-1396
p1730
aVSTORM-1395
p1731
aVSTORM-1394
p1732
aVSTORM-1393
p1733
aVSTORM-1392
p1734
aVSTORM-1391
p1735
aVSTORM-1390
p1736
aVSTORM-1389
p1737
aVSTORM-1388
p1738
aVSTORM-1387
p1739
aVSTORM-1386
p1740
aVSTORM-1385
p1741
aVSTORM-1384
p1742
aVSTORM-1383
p1743
aVSTORM-1382
p1744
aVSTORM-1381
p1745
aVSTORM-1380
p1746
aVSTORM-1379
p1747
aVSTORM-1378
p1748
aVSTORM-1377
p1749
aVSTORM-1376
p1750
aVSTORM-1375
p1751
aVSTORM-1374
p1752
aVSTORM-1373
p1753
aVSTORM-1372
p1754
aVSTORM-1371
p1755
aVSTORM-1370
p1756
aVSTORM-1369
p1757
aVSTORM-1368
p1758
aVSTORM-1367
p1759
aVSTORM-1366
p1760
aVSTORM-1365
p1761
aVSTORM-1364
p1762
aVSTORM-1363
p1763
aVSTORM-1362
p1764
aVSTORM-1361
p1765
aVSTORM-1360
p1766
aVSTORM-1359
p1767
aVSTORM-1358
p1768
aVSTORM-1357
p1769
aVSTORM-1356
p1770
aVSTORM-1355
p1771
aVSTORM-1354
p1772
aVSTORM-1353
p1773
aVSTORM-1352
p1774
aVSTORM-1351
p1775
aVSTORM-1350
p1776
aVSTORM-1349
p1777
aVSTORM-1348
p1778
aVSTORM-1347
p1779
aVSTORM-1346
p1780
aVSTORM-1345
p1781
aVSTORM-1344
p1782
aVSTORM-1343
p1783
aVSTORM-1342
p1784
aVSTORM-1341
p1785
aVSTORM-1340
p1786
aVSTORM-1339
p1787
aVSTORM-1338
p1788
aVSTORM-1337
p1789
aVSTORM-1336
p1790
aVSTORM-1335
p1791
aVSTORM-1334
p1792
aVSTORM-1333
p1793
aVSTORM-1332
p1794
aVSTORM-1331
p1795
aVSTORM-1330
p1796
aVSTORM-1329
p1797
aVSTORM-1328
p1798
aVSTORM-1327
p1799
aVSTORM-1326
p1800
aVSTORM-1325
p1801
aVSTORM-1324
p1802
aVSTORM-1323
p1803
aVSTORM-1322
p1804
aVSTORM-1321
p1805
aVSTORM-1320
p1806
aVSTORM-1319
p1807
aVSTORM-1318
p1808
aVSTORM-1317
p1809
aVSTORM-1316
p1810
aVSTORM-1315
p1811
aVSTORM-1314
p1812
aVSTORM-1313
p1813
aVSTORM-1312
p1814
aVSTORM-1311
p1815
aVSTORM-1310
p1816
aVSTORM-1309
p1817
aVSTORM-1308
p1818
aVSTORM-1307
p1819
aVSTORM-1306
p1820
aVSTORM-1305
p1821
aVSTORM-1304
p1822
aVSTORM-1303
p1823
aVSTORM-1302
p1824
aVSTORM-1301
p1825
aVSTORM-1300
p1826
aVSTORM-1299
p1827
aVSTORM-1298
p1828
aVSTORM-1297
p1829
aVSTORM-1296
p1830
aVSTORM-1295
p1831
aVSTORM-1294
p1832
aVSTORM-1293
p1833
aVSTORM-1292
p1834
aVSTORM-1291
p1835
aVSTORM-1290
p1836
aVSTORM-1289
p1837
aVSTORM-1288
p1838
aVSTORM-1287
p1839
aVSTORM-1286
p1840
aVSTORM-1285
p1841
aVSTORM-1284
p1842
aVSTORM-1283
p1843
aVSTORM-1282
p1844
aVSTORM-1281
p1845
aVSTORM-1280
p1846
aVSTORM-1279
p1847
aVSTORM-1278
p1848
aVSTORM-1277
p1849
aVSTORM-1276
p1850
aVSTORM-1275
p1851
aVSTORM-1274
p1852
aVSTORM-1273
p1853
aVSTORM-1272
p1854
aVSTORM-1271
p1855
aVSTORM-1270
p1856
aVSTORM-1269
p1857
aVSTORM-1268
p1858
aVSTORM-1267
p1859
aVSTORM-1266
p1860
aVSTORM-1265
p1861
aVSTORM-1264
p1862
aVSTORM-1263
p1863
aVSTORM-1262
p1864
aVSTORM-1261
p1865
aVSTORM-1260
p1866
aVSTORM-1259
p1867
aVSTORM-1258
p1868
aVSTORM-1257
p1869
aVSTORM-1256
p1870
aVSTORM-1255
p1871
aVSTORM-1254
p1872
aVSTORM-1253
p1873
aVSTORM-1252
p1874
aVSTORM-1251
p1875
aVSTORM-1250
p1876
aVSTORM-1249
p1877
aVSTORM-1248
p1878
aVSTORM-1247
p1879
aVSTORM-1246
p1880
aVSTORM-1245
p1881
aVSTORM-1244
p1882
aVSTORM-1243
p1883
aVSTORM-1242
p1884
aVSTORM-1241
p1885
aVSTORM-1240
p1886
aVSTORM-1239
p1887
aVSTORM-1238
p1888
aVSTORM-1237
p1889
aVSTORM-1236
p1890
aVSTORM-1235
p1891
aVSTORM-1234
p1892
aVSTORM-1233
p1893
aVSTORM-1232
p1894
aVSTORM-1231
p1895
aVSTORM-1230
p1896
aVSTORM-1229
p1897
aVSTORM-1228
p1898
aVSTORM-1227
p1899
aVSTORM-1226
p1900
aVSTORM-1225
p1901
aVSTORM-1224
p1902
aVSTORM-1223
p1903
aVSTORM-1222
p1904
aVSTORM-1221
p1905
aVSTORM-1220
p1906
aVSTORM-1219
p1907
aVSTORM-1218
p1908
aVSTORM-1217
p1909
aVSTORM-1216
p1910
aVSTORM-1215
p1911
aVSTORM-1214
p1912
aVSTORM-1213
p1913
aVSTORM-1212
p1914
aVSTORM-1211
p1915
aVSTORM-1210
p1916
aVSTORM-1209
p1917
aVSTORM-1208
p1918
aVSTORM-1207
p1919
aVSTORM-1206
p1920
aVSTORM-1205
p1921
aVSTORM-1204
p1922
aVSTORM-1203
p1923
aVSTORM-1202
p1924
aVSTORM-1201
p1925
aVSTORM-1200
p1926
aVSTORM-1199
p1927
aVSTORM-1198
p1928
aVSTORM-1197
p1929
aVSTORM-1196
p1930
aVSTORM-1195
p1931
aVSTORM-1194
p1932
aVSTORM-1193
p1933
aVSTORM-1192
p1934
aVSTORM-1191
p1935
aVSTORM-1190
p1936
aVSTORM-1189
p1937
aVSTORM-1188
p1938
aVSTORM-1187
p1939
aVSTORM-1186
p1940
aVSTORM-1185
p1941
aVSTORM-1184
p1942
aVSTORM-1183
p1943
aVSTORM-1182
p1944
aVSTORM-1181
p1945
aVSTORM-1180
p1946
aVSTORM-1179
p1947
aVSTORM-1178
p1948
aVSTORM-1177
p1949
aVSTORM-1176
p1950
aVSTORM-1175
p1951
aVSTORM-1174
p1952
aVSTORM-1173
p1953
aVSTORM-1172
p1954
aVSTORM-1171
p1955
aVSTORM-1170
p1956
aVSTORM-1169
p1957
aVSTORM-1168
p1958
aVSTORM-1167
p1959
aVSTORM-1166
p1960
aVSTORM-1165
p1961
aVSTORM-1164
p1962
aVSTORM-1163
p1963
aVSTORM-1162
p1964
aVSTORM-1161
p1965
aVSTORM-1160
p1966
aVSTORM-1159
p1967
aVSTORM-1158
p1968
aVSTORM-1157
p1969
aVSTORM-1156
p1970
aVSTORM-1155
p1971
aVSTORM-1154
p1972
aVSTORM-1153
p1973
aVSTORM-1152
p1974
aVSTORM-1151
p1975
aVSTORM-1150
p1976
aVSTORM-1149
p1977
aVSTORM-1148
p1978
aVSTORM-1147
p1979
aVSTORM-1146
p1980
aVSTORM-1145
p1981
aVSTORM-1144
p1982
aVSTORM-1143
p1983
aVSTORM-1142
p1984
aVSTORM-1141
p1985
aVSTORM-1140
p1986
aVSTORM-1139
p1987
aVSTORM-1138
p1988
aVSTORM-1137
p1989
aVSTORM-1136
p1990
aVSTORM-1135
p1991
aVSTORM-1134
p1992
aVSTORM-1133
p1993
aVSTORM-1132
p1994
aVSTORM-1131
p1995
aVSTORM-1130
p1996
aVSTORM-1129
p1997
aVSTORM-1128
p1998
aVSTORM-1127
p1999
aVSTORM-1126
p2000
aVSTORM-1125
p2001
aVSTORM-1124
p2002
aVSTORM-1123
p2003
aVSTORM-1122
p2004
aVSTORM-1121
p2005
aVSTORM-1120
p2006
aVSTORM-1119
p2007
aVSTORM-1118
p2008
aVSTORM-1117
p2009
aVSTORM-1116
p2010
aVSTORM-1115
p2011
aVSTORM-1114
p2012
aVSTORM-1113
p2013
aVSTORM-1112
p2014
aVSTORM-1111
p2015
aVSTORM-1110
p2016
aVSTORM-1109
p2017
aVSTORM-1108
p2018
aVSTORM-1107
p2019
aVSTORM-1106
p2020
aVSTORM-1105
p2021
aVSTORM-1104
p2022
aVSTORM-1103
p2023
aVSTORM-1102
p2024
aVSTORM-1101
p2025
aVSTORM-1100
p2026
aVSTORM-1099
p2027
aVSTORM-1098
p2028
aVSTORM-1097
p2029
aVSTORM-1096
p2030
aVSTORM-1095
p2031
aVSTORM-1094
p2032
aVSTORM-1093
p2033
aVSTORM-1092
p2034
aVSTORM-1091
p2035
aVSTORM-1090
p2036
aVSTORM-1089
p2037
aVSTORM-1088
p2038
aVSTORM-1087
p2039
aVSTORM-1086
p2040
aVSTORM-1085
p2041
aVSTORM-1084
p2042
aVSTORM-1083
p2043
aVSTORM-1082
p2044
aVSTORM-1081
p2045
aVSTORM-1080
p2046
aVSTORM-1079
p2047
aVSTORM-1078
p2048
aVSTORM-1077
p2049
aVSTORM-1076
p2050
aVSTORM-1075
p2051
aVSTORM-1074
p2052
aVSTORM-1073
p2053
aVSTORM-1072
p2054
aVSTORM-1071
p2055
aVSTORM-1070
p2056
aVSTORM-1069
p2057
aVSTORM-1068
p2058
aVSTORM-1067
p2059
aVSTORM-1066
p2060
aVSTORM-1065
p2061
aVSTORM-1064
p2062
aVSTORM-1063
p2063
aVSTORM-1062
p2064
aVSTORM-1061
p2065
aVSTORM-1060
p2066
aVSTORM-1059
p2067
aVSTORM-1058
p2068
aVSTORM-1057
p2069
aVSTORM-1056
p2070
aVSTORM-1055
p2071
aVSTORM-1054
p2072
aVSTORM-1053
p2073
aVSTORM-1052
p2074
aVSTORM-1051
p2075
aVSTORM-1050
p2076
aVSTORM-1049
p2077
aVSTORM-1048
p2078
aVSTORM-1047
p2079
aVSTORM-1046
p2080
aVSTORM-1045
p2081
aVSTORM-1044
p2082
aVSTORM-1043
p2083
aVSTORM-1042
p2084
aVSTORM-1041
p2085
aVSTORM-1040
p2086
aVSTORM-1039
p2087
aVSTORM-1038
p2088
aVSTORM-1037
p2089
aVSTORM-1036
p2090
aVSTORM-1035
p2091
aVSTORM-1034
p2092
aVSTORM-1033
p2093
aVSTORM-1032
p2094
aVSTORM-1031
p2095
aVSTORM-1030
p2096
aVSTORM-1029
p2097
aVSTORM-1028
p2098
aVSTORM-1027
p2099
aVSTORM-1026
p2100
aVSTORM-1025
p2101
aVSTORM-1024
p2102
aVSTORM-1023
p2103
aVSTORM-1022
p2104
aVSTORM-1021
p2105
aVSTORM-1020
p2106
aVSTORM-1019
p2107
aVSTORM-1018
p2108
aVSTORM-1017
p2109
aVSTORM-1016
p2110
aVSTORM-1015
p2111
aVSTORM-1014
p2112
aVSTORM-1013
p2113
aVSTORM-1012
p2114
aVSTORM-1011
p2115
aVSTORM-1010
p2116
aVSTORM-1009
p2117
aVSTORM-1008
p2118
aVSTORM-1007
p2119
aVSTORM-1006
p2120
aVSTORM-1005
p2121
aVSTORM-1004
p2122
aVSTORM-1003
p2123
aVSTORM-1002
p2124
aVSTORM-1001
p2125
aVSTORM-1000
p2126
aVSTORM-999
p2127
aVSTORM-998
p2128
aVSTORM-997
p2129
aVSTORM-996
p2130
aVSTORM-995
p2131
aVSTORM-994
p2132
aVSTORM-993
p2133
aVSTORM-992
p2134
aVSTORM-991
p2135
aVSTORM-990
p2136
aVSTORM-989
p2137
aVSTORM-988
p2138
aVSTORM-987
p2139
aVSTORM-986
p2140
aVSTORM-985
p2141
aVSTORM-984
p2142
aVSTORM-983
p2143
aVSTORM-982
p2144
aVSTORM-981
p2145
aVSTORM-980
p2146
aVSTORM-979
p2147
aVSTORM-978
p2148
aVSTORM-977
p2149
aVSTORM-976
p2150
aVSTORM-975
p2151
aVSTORM-974
p2152
aVSTORM-973
p2153
aVSTORM-972
p2154
aVSTORM-971
p2155
aVSTORM-970
p2156
aVSTORM-969
p2157
aVSTORM-968
p2158
aVSTORM-967
p2159
aVSTORM-966
p2160
aVSTORM-965
p2161
aVSTORM-964
p2162
aVSTORM-963
p2163
aVSTORM-962
p2164
aVSTORM-961
p2165
aVSTORM-960
p2166
aVSTORM-959
p2167
aVSTORM-958
p2168
aVSTORM-957
p2169
aVSTORM-956
p2170
aVSTORM-955
p2171
aVSTORM-954
p2172
aVSTORM-953
p2173
aVSTORM-952
p2174
aVSTORM-951
p2175
aVSTORM-950
p2176
aVSTORM-949
p2177
aVSTORM-948
p2178
aVSTORM-947
p2179
aVSTORM-946
p2180
aVSTORM-945
p2181
aVSTORM-944
p2182
aVSTORM-943
p2183
aVSTORM-942
p2184
aVSTORM-941
p2185
aVSTORM-940
p2186
aVSTORM-939
p2187
aVSTORM-938
p2188
aVSTORM-937
p2189
aVSTORM-936
p2190
aVSTORM-935
p2191
aVSTORM-934
p2192
aVSTORM-933
p2193
aVSTORM-932
p2194
aVSTORM-931
p2195
aVSTORM-930
p2196
aVSTORM-929
p2197
aVSTORM-928
p2198
aVSTORM-927
p2199
aVSTORM-926
p2200
aVSTORM-925
p2201
aVSTORM-924
p2202
aVSTORM-923
p2203
aVSTORM-922
p2204
aVSTORM-921
p2205
aVSTORM-920
p2206
aVSTORM-919
p2207
aVSTORM-918
p2208
aVSTORM-917
p2209
aVSTORM-916
p2210
aVSTORM-915
p2211
aVSTORM-914
p2212
aVSTORM-913
p2213
aVSTORM-912
p2214
aVSTORM-911
p2215
aVSTORM-910
p2216
aVSTORM-909
p2217
aVSTORM-908
p2218
aVSTORM-907
p2219
aVSTORM-906
p2220
aVSTORM-905
p2221
aVSTORM-904
p2222
aVSTORM-903
p2223
aVSTORM-902
p2224
aVSTORM-901
p2225
aVSTORM-900
p2226
aVSTORM-899
p2227
aVSTORM-898
p2228
aVSTORM-897
p2229
aVSTORM-896
p2230
aVSTORM-895
p2231
aVSTORM-894
p2232
aVSTORM-893
p2233
aVSTORM-892
p2234
aVSTORM-891
p2235
aVSTORM-890
p2236
aVSTORM-889
p2237
aVSTORM-888
p2238
aVSTORM-887
p2239
aVSTORM-886
p2240
aVSTORM-885
p2241
aVSTORM-884
p2242
aVSTORM-883
p2243
aVSTORM-882
p2244
aVSTORM-881
p2245
aVSTORM-880
p2246
aVSTORM-879
p2247
aVSTORM-878
p2248
aVSTORM-877
p2249
aVSTORM-876
p2250
aVSTORM-875
p2251
aVSTORM-874
p2252
aVSTORM-873
p2253
aVSTORM-872
p2254
aVSTORM-871
p2255
aVSTORM-870
p2256
aVSTORM-869
p2257
aVSTORM-868
p2258
aVSTORM-867
p2259
aVSTORM-866
p2260
aVSTORM-865
p2261
aVSTORM-864
p2262
aVSTORM-863
p2263
aVSTORM-862
p2264
aVSTORM-861
p2265
aVSTORM-860
p2266
aVSTORM-859
p2267
aVSTORM-858
p2268
aVSTORM-857
p2269
aVSTORM-856
p2270
aVSTORM-855
p2271
aVSTORM-854
p2272
aVSTORM-853
p2273
aVSTORM-852
p2274
aVSTORM-851
p2275
aVSTORM-850
p2276
aVSTORM-849
p2277
aVSTORM-848
p2278
aVSTORM-847
p2279
aVSTORM-846
p2280
aVSTORM-845
p2281
aVSTORM-844
p2282
aVSTORM-843
p2283
aVSTORM-842
p2284
aVSTORM-841
p2285
aVSTORM-840
p2286
aVSTORM-839
p2287
aVSTORM-838
p2288
aVSTORM-837
p2289
aVSTORM-836
p2290
aVSTORM-835
p2291
aVSTORM-834
p2292
aVSTORM-833
p2293
aVSTORM-832
p2294
aVSTORM-831
p2295
aVSTORM-830
p2296
aVSTORM-829
p2297
aVSTORM-828
p2298
aVSTORM-827
p2299
aVSTORM-826
p2300
aVSTORM-825
p2301
aVSTORM-824
p2302
aVSTORM-823
p2303
aVSTORM-822
p2304
aVSTORM-821
p2305
aVSTORM-820
p2306
aVSTORM-819
p2307
aVSTORM-818
p2308
aVSTORM-817
p2309
aVSTORM-816
p2310
aVSTORM-815
p2311
aVSTORM-814
p2312
aVSTORM-813
p2313
aVSTORM-812
p2314
aVSTORM-811
p2315
aVSTORM-810
p2316
aVSTORM-809
p2317
aVSTORM-808
p2318
aVSTORM-807
p2319
aVSTORM-806
p2320
aVSTORM-805
p2321
aVSTORM-804
p2322
aVSTORM-803
p2323
aVSTORM-802
p2324
aVSTORM-801
p2325
aVSTORM-800
p2326
aVSTORM-799
p2327
aVSTORM-798
p2328
aVSTORM-797
p2329
aVSTORM-796
p2330
aVSTORM-795
p2331
aVSTORM-794
p2332
aVSTORM-793
p2333
aVSTORM-792
p2334
aVSTORM-791
p2335
aVSTORM-790
p2336
aVSTORM-789
p2337
aVSTORM-788
p2338
aVSTORM-787
p2339
aVSTORM-786
p2340
aVSTORM-785
p2341
aVSTORM-784
p2342
aVSTORM-783
p2343
aVSTORM-782
p2344
aVSTORM-781
p2345
aVSTORM-780
p2346
aVSTORM-779
p2347
aVSTORM-778
p2348
aVSTORM-777
p2349
aVSTORM-776
p2350
aVSTORM-775
p2351
aVSTORM-774
p2352
aVSTORM-773
p2353
aVSTORM-772
p2354
aVSTORM-771
p2355
aVSTORM-770
p2356
aVSTORM-769
p2357
aVSTORM-768
p2358
aVSTORM-767
p2359
aVSTORM-766
p2360
aVSTORM-765
p2361
aVSTORM-764
p2362
aVSTORM-763
p2363
aVSTORM-762
p2364
aVSTORM-761
p2365
aVSTORM-760
p2366
aVSTORM-759
p2367
aVSTORM-758
p2368
aVSTORM-757
p2369
aVSTORM-756
p2370
aVSTORM-755
p2371
aVSTORM-754
p2372
aVSTORM-753
p2373
aVSTORM-752
p2374
aVSTORM-751
p2375
aVSTORM-750
p2376
aVSTORM-749
p2377
aVSTORM-748
p2378
aVSTORM-747
p2379
aVSTORM-746
p2380
aVSTORM-745
p2381
aVSTORM-744
p2382
aVSTORM-743
p2383
aVSTORM-742
p2384
aVSTORM-741
p2385
aVSTORM-740
p2386
aVSTORM-739
p2387
aVSTORM-738
p2388
aVSTORM-737
p2389
aVSTORM-736
p2390
aVSTORM-735
p2391
aVSTORM-734
p2392
aVSTORM-733
p2393
aVSTORM-732
p2394
aVSTORM-731
p2395
aVSTORM-730
p2396
aVSTORM-729
p2397
aVSTORM-728
p2398
aVSTORM-727
p2399
aVSTORM-726
p2400
aVSTORM-725
p2401
aVSTORM-724
p2402
aVSTORM-723
p2403
aVSTORM-722
p2404
aVSTORM-721
p2405
aVSTORM-720
p2406
aVSTORM-719
p2407
aVSTORM-718
p2408
aVSTORM-717
p2409
aVSTORM-716
p2410
aVSTORM-715
p2411
aVSTORM-714
p2412
aVSTORM-713
p2413
aVSTORM-712
p2414
aVSTORM-711
p2415
aVSTORM-710
p2416
aVSTORM-709
p2417
aVSTORM-708
p2418
aVSTORM-707
p2419
aVSTORM-706
p2420
aVSTORM-705
p2421
aVSTORM-704
p2422
aVSTORM-703
p2423
aVSTORM-702
p2424
aVSTORM-701
p2425
aVSTORM-700
p2426
aVSTORM-699
p2427
aVSTORM-698
p2428
aVSTORM-697
p2429
aVSTORM-696
p2430
aVSTORM-695
p2431
aVSTORM-694
p2432
aVSTORM-693
p2433
aVSTORM-692
p2434
aVSTORM-691
p2435
aVSTORM-690
p2436
aVSTORM-689
p2437
aVSTORM-688
p2438
aVSTORM-687
p2439
aVSTORM-686
p2440
aVSTORM-685
p2441
aVSTORM-684
p2442
aVSTORM-683
p2443
aVSTORM-682
p2444
aVSTORM-681
p2445
aVSTORM-680
p2446
aVSTORM-679
p2447
aVSTORM-678
p2448
aVSTORM-677
p2449
aVSTORM-676
p2450
aVSTORM-675
p2451
aVSTORM-674
p2452
aVSTORM-673
p2453
aVSTORM-672
p2454
aVSTORM-671
p2455
aVSTORM-670
p2456
aVSTORM-669
p2457
aVSTORM-668
p2458
aVSTORM-667
p2459
aVSTORM-666
p2460
aVSTORM-665
p2461
aVSTORM-664
p2462
aVSTORM-663
p2463
aVSTORM-662
p2464
aVSTORM-661
p2465
aVSTORM-660
p2466
aVSTORM-659
p2467
aVSTORM-658
p2468
aVSTORM-657
p2469
aVSTORM-656
p2470
aVSTORM-655
p2471
aVSTORM-654
p2472
aVSTORM-653
p2473
aVSTORM-652
p2474
aVSTORM-651
p2475
aVSTORM-650
p2476
aVSTORM-649
p2477
aVSTORM-648
p2478
aVSTORM-647
p2479
aVSTORM-646
p2480
aVSTORM-645
p2481
aVSTORM-644
p2482
aVSTORM-643
p2483
aVSTORM-642
p2484
aVSTORM-641
p2485
aVSTORM-640
p2486
aVSTORM-639
p2487
aVSTORM-638
p2488
aVSTORM-637
p2489
aVSTORM-636
p2490
aVSTORM-635
p2491
aVSTORM-634
p2492
aVSTORM-633
p2493
aVSTORM-632
p2494
aVSTORM-631
p2495
aVSTORM-630
p2496
aVSTORM-629
p2497
aVSTORM-628
p2498
aVSTORM-627
p2499
aVSTORM-626
p2500
aVSTORM-625
p2501
aVSTORM-624
p2502
aVSTORM-623
p2503
aVSTORM-622
p2504
aVSTORM-621
p2505
aVSTORM-620
p2506
aVSTORM-619
p2507
aVSTORM-618
p2508
aVSTORM-617
p2509
aVSTORM-616
p2510
aVSTORM-615
p2511
aVSTORM-614
p2512
aVSTORM-613
p2513
aVSTORM-612
p2514
aVSTORM-611
p2515
aVSTORM-610
p2516
aVSTORM-609
p2517
aVSTORM-608
p2518
aVSTORM-607
p2519
aVSTORM-606
p2520
aVSTORM-605
p2521
aVSTORM-604
p2522
aVSTORM-603
p2523
aVSTORM-602
p2524
aVSTORM-601
p2525
aVSTORM-600
p2526
aVSTORM-599
p2527
aVSTORM-598
p2528
aVSTORM-597
p2529
aVSTORM-596
p2530
aVSTORM-595
p2531
aVSTORM-594
p2532
aVSTORM-593
p2533
aVSTORM-592
p2534
aVSTORM-591
p2535
aVSTORM-590
p2536
aVSTORM-589
p2537
aVSTORM-588
p2538
aVSTORM-587
p2539
aVSTORM-586
p2540
aVSTORM-585
p2541
aVSTORM-584
p2542
aVSTORM-583
p2543
aVSTORM-582
p2544
aVSTORM-581
p2545
aVSTORM-580
p2546
aVSTORM-579
p2547
aVSTORM-578
p2548
aVSTORM-577
p2549
aVSTORM-576
p2550
aVSTORM-575
p2551
aVSTORM-574
p2552
aVSTORM-573
p2553
aVSTORM-572
p2554
aVSTORM-571
p2555
aVSTORM-570
p2556
aVSTORM-569
p2557
aVSTORM-568
p2558
aVSTORM-567
p2559
aVSTORM-566
p2560
aVSTORM-565
p2561
aVSTORM-564
p2562
aVSTORM-563
p2563
aVSTORM-562
p2564
aVSTORM-561
p2565
aVSTORM-560
p2566
aVSTORM-559
p2567
aVSTORM-558
p2568
aVSTORM-557
p2569
aVSTORM-556
p2570
aVSTORM-555
p2571
aVSTORM-554
p2572
aVSTORM-553
p2573
aVSTORM-552
p2574
aVSTORM-551
p2575
aVSTORM-550
p2576
aVSTORM-549
p2577
aVSTORM-548
p2578
aVSTORM-547
p2579
aVSTORM-546
p2580
aVSTORM-545
p2581
aVSTORM-544
p2582
aVSTORM-543
p2583
aVSTORM-542
p2584
aVSTORM-541
p2585
aVSTORM-540
p2586
aVSTORM-539
p2587
aVSTORM-538
p2588
aVSTORM-537
p2589
aVSTORM-536
p2590
aVSTORM-535
p2591
aVSTORM-534
p2592
aVSTORM-533
p2593
aVSTORM-532
p2594
aVSTORM-531
p2595
aVSTORM-530
p2596
aVSTORM-529
p2597
aVSTORM-528
p2598
aVSTORM-527
p2599
aVSTORM-526
p2600
aVSTORM-525
p2601
aVSTORM-524
p2602
aVSTORM-523
p2603
aVSTORM-522
p2604
aVSTORM-521
p2605
aVSTORM-520
p2606
aVSTORM-519
p2607
aVSTORM-518
p2608
aVSTORM-517
p2609
aVSTORM-516
p2610
aVSTORM-515
p2611
aVSTORM-514
p2612
aVSTORM-513
p2613
aVSTORM-512
p2614
aVSTORM-511
p2615
aVSTORM-510
p2616
aVSTORM-509
p2617
aVSTORM-508
p2618
aVSTORM-507
p2619
aVSTORM-506
p2620
aVSTORM-505
p2621
aVSTORM-504
p2622
aVSTORM-503
p2623
aVSTORM-502
p2624
aVSTORM-501
p2625
aVSTORM-500
p2626
aVSTORM-499
p2627
aVSTORM-498
p2628
aVSTORM-497
p2629
aVSTORM-496
p2630
aVSTORM-495
p2631
aVSTORM-494
p2632
aVSTORM-493
p2633
aVSTORM-492
p2634
aVSTORM-491
p2635
aVSTORM-490
p2636
aVSTORM-489
p2637
aVSTORM-488
p2638
aVSTORM-487
p2639
aVSTORM-486
p2640
aVSTORM-485
p2641
aVSTORM-484
p2642
aVSTORM-483
p2643
aVSTORM-482
p2644
aVSTORM-481
p2645
aVSTORM-480
p2646
aVSTORM-479
p2647
aVSTORM-478
p2648
aVSTORM-477
p2649
aVSTORM-476
p2650
aVSTORM-475
p2651
aVSTORM-474
p2652
aVSTORM-473
p2653
aVSTORM-472
p2654
aVSTORM-471
p2655
aVSTORM-470
p2656
aVSTORM-469
p2657
aVSTORM-468
p2658
aVSTORM-467
p2659
aVSTORM-466
p2660
aVSTORM-465
p2661
aVSTORM-464
p2662
aVSTORM-463
p2663
aVSTORM-462
p2664
aVSTORM-461
p2665
aVSTORM-460
p2666
aVSTORM-459
p2667
aVSTORM-458
p2668
aVSTORM-457
p2669
aVSTORM-456
p2670
aVSTORM-455
p2671
aVSTORM-454
p2672
aVSTORM-453
p2673
aVSTORM-452
p2674
aVSTORM-451
p2675
aVSTORM-450
p2676
aVSTORM-449
p2677
aVSTORM-448
p2678
aVSTORM-447
p2679
aVSTORM-446
p2680
aVSTORM-445
p2681
aVSTORM-444
p2682
aVSTORM-443
p2683
aVSTORM-442
p2684
aVSTORM-441
p2685
aVSTORM-440
p2686
aVSTORM-439
p2687
aVSTORM-438
p2688
aVSTORM-437
p2689
aVSTORM-436
p2690
aVSTORM-435
p2691
aVSTORM-434
p2692
aVSTORM-433
p2693
aVSTORM-432
p2694
aVSTORM-431
p2695
aVSTORM-430
p2696
aVSTORM-429
p2697
aVSTORM-428
p2698
aVSTORM-427
p2699
aVSTORM-426
p2700
aVSTORM-425
p2701
aVSTORM-424
p2702
aVSTORM-423
p2703
aVSTORM-422
p2704
aVSTORM-421
p2705
aVSTORM-420
p2706
aVSTORM-419
p2707
aVSTORM-418
p2708
aVSTORM-417
p2709
aVSTORM-416
p2710
aVSTORM-415
p2711
aVSTORM-414
p2712
aVSTORM-413
p2713
aVSTORM-412
p2714
aVSTORM-411
p2715
aVSTORM-410
p2716
aVSTORM-409
p2717
aVSTORM-408
p2718
aVSTORM-407
p2719
aVSTORM-406
p2720
aVSTORM-405
p2721
aVSTORM-404
p2722
aVSTORM-403
p2723
aVSTORM-402
p2724
aVSTORM-401
p2725
aVSTORM-400
p2726
aVSTORM-399
p2727
aVSTORM-398
p2728
aVSTORM-397
p2729
aVSTORM-396
p2730
aVSTORM-395
p2731
aVSTORM-394
p2732
aVSTORM-393
p2733
aVSTORM-392
p2734
aVSTORM-391
p2735
aVSTORM-390
p2736
aVSTORM-389
p2737
aVSTORM-388
p2738
aVSTORM-387
p2739
aVSTORM-386
p2740
aVSTORM-385
p2741
aVSTORM-384
p2742
aVSTORM-383
p2743
aVSTORM-382
p2744
aVSTORM-381
p2745
aVSTORM-380
p2746
aVSTORM-379
p2747
aVSTORM-378
p2748
aVSTORM-377
p2749
aVSTORM-376
p2750
aVSTORM-375
p2751
aVSTORM-374
p2752
aVSTORM-373
p2753
aVSTORM-372
p2754
aVSTORM-371
p2755
aVSTORM-370
p2756
aVSTORM-369
p2757
aVSTORM-368
p2758
aVSTORM-367
p2759
aVSTORM-366
p2760
aVSTORM-365
p2761
aVSTORM-364
p2762
aVSTORM-363
p2763
aVSTORM-362
p2764
aVSTORM-361
p2765
aVSTORM-360
p2766
aVSTORM-359
p2767
aVSTORM-358
p2768
aVSTORM-357
p2769
aVSTORM-356
p2770
aVSTORM-355
p2771
aVSTORM-354
p2772
aVSTORM-353
p2773
aVSTORM-352
p2774
aVSTORM-351
p2775
aVSTORM-350
p2776
aVSTORM-349
p2777
aVSTORM-348
p2778
aVSTORM-347
p2779
aVSTORM-346
p2780
aVSTORM-345
p2781
aVSTORM-344
p2782
aVSTORM-343
p2783
aVSTORM-342
p2784
aVSTORM-341
p2785
aVSTORM-340
p2786
aVSTORM-339
p2787
aVSTORM-338
p2788
aVSTORM-337
p2789
aVSTORM-336
p2790
aVSTORM-335
p2791
aVSTORM-334
p2792
aVSTORM-333
p2793
aVSTORM-332
p2794
aVSTORM-331
p2795
aVSTORM-330
p2796
aVSTORM-329
p2797
aVSTORM-328
p2798
aVSTORM-327
p2799
aVSTORM-326
p2800
aVSTORM-325
p2801
aVSTORM-324
p2802
aVSTORM-323
p2803
aVSTORM-322
p2804
aVSTORM-321
p2805
aVSTORM-320
p2806
aVSTORM-319
p2807
aVSTORM-318
p2808
aVSTORM-317
p2809
aVSTORM-316
p2810
aVSTORM-315
p2811
aVSTORM-314
p2812
aVSTORM-313
p2813
aVSTORM-312
p2814
aVSTORM-311
p2815
aVSTORM-310
p2816
aVSTORM-309
p2817
aVSTORM-308
p2818
aVSTORM-307
p2819
aVSTORM-306
p2820
aVSTORM-305
p2821
aVSTORM-304
p2822
aVSTORM-303
p2823
aVSTORM-302
p2824
aVSTORM-301
p2825
aVSTORM-300
p2826
aVSTORM-299
p2827
aVSTORM-298
p2828
aVSTORM-297
p2829
aVSTORM-296
p2830
aVSTORM-295
p2831
aVSTORM-294
p2832
aVSTORM-293
p2833
aVSTORM-292
p2834
aVSTORM-291
p2835
aVSTORM-290
p2836
aVSTORM-289
p2837
aVSTORM-288
p2838
aVSTORM-287
p2839
aVSTORM-286
p2840
aVSTORM-285
p2841
aVSTORM-284
p2842
aVSTORM-283
p2843
aVSTORM-282
p2844
aVSTORM-281
p2845
aVSTORM-280
p2846
aVSTORM-279
p2847
aVSTORM-278
p2848
aVSTORM-277
p2849
aVSTORM-276
p2850
aVSTORM-275
p2851
aVSTORM-274
p2852
aVSTORM-273
p2853
aVSTORM-272
p2854
aVSTORM-271
p2855
aVSTORM-270
p2856
aVSTORM-269
p2857
aVSTORM-268
p2858
aVSTORM-267
p2859
aVSTORM-266
p2860
aVSTORM-265
p2861
aVSTORM-264
p2862
aVSTORM-263
p2863
aVSTORM-262
p2864
aVSTORM-261
p2865
aVSTORM-260
p2866
aVSTORM-259
p2867
aVSTORM-258
p2868
aVSTORM-257
p2869
aVSTORM-256
p2870
aVSTORM-255
p2871
aVSTORM-254
p2872
aVSTORM-253
p2873
aVSTORM-252
p2874
aVSTORM-251
p2875
aVSTORM-250
p2876
aVSTORM-249
p2877
aVSTORM-248
p2878
aVSTORM-247
p2879
aVSTORM-246
p2880
aVSTORM-245
p2881
aVSTORM-244
p2882
aVSTORM-243
p2883
aVSTORM-242
p2884
aVSTORM-241
p2885
aVSTORM-240
p2886
aVSTORM-239
p2887
aVSTORM-238
p2888
aVSTORM-237
p2889
aVSTORM-236
p2890
aVSTORM-235
p2891
aVSTORM-234
p2892
aVSTORM-233
p2893
aVSTORM-232
p2894
aVSTORM-231
p2895
aVSTORM-230
p2896
aVSTORM-229
p2897
aVSTORM-228
p2898
aVSTORM-227
p2899
aVSTORM-226
p2900
aVSTORM-225
p2901
aVSTORM-224
p2902
aVSTORM-223
p2903
aVSTORM-222
p2904
aVSTORM-221
p2905
aVSTORM-220
p2906
aVSTORM-219
p2907
aVSTORM-218
p2908
aVSTORM-217
p2909
aVSTORM-216
p2910
aVSTORM-215
p2911
aVSTORM-214
p2912
aVSTORM-213
p2913
aVSTORM-212
p2914
aVSTORM-211
p2915
aVSTORM-210
p2916
aVSTORM-209
p2917
aVSTORM-208
p2918
aVSTORM-207
p2919
aVSTORM-206
p2920
aVSTORM-205
p2921
aVSTORM-204
p2922
aVSTORM-203
p2923
aVSTORM-202
p2924
aVSTORM-201
p2925
aVSTORM-200
p2926
aVSTORM-199
p2927
aVSTORM-198
p2928
aVSTORM-197
p2929
aVSTORM-196
p2930
aVSTORM-195
p2931
aVSTORM-194
p2932
aVSTORM-193
p2933
aVSTORM-192
p2934
aVSTORM-191
p2935
aVSTORM-190
p2936
aVSTORM-189
p2937
aVSTORM-188
p2938
aVSTORM-187
p2939
aVSTORM-186
p2940
aVSTORM-185
p2941
aVSTORM-184
p2942
aVSTORM-183
p2943
aVSTORM-182
p2944
aVSTORM-181
p2945
aVSTORM-180
p2946
aVSTORM-179
p2947
aVSTORM-178
p2948
aVSTORM-177
p2949
aVSTORM-176
p2950
aVSTORM-175
p2951
aVSTORM-174
p2952
aVSTORM-173
p2953
aVSTORM-172
p2954
aVSTORM-171
p2955
aVSTORM-170
p2956
aVSTORM-169
p2957
aVSTORM-168
p2958
aVSTORM-167
p2959
aVSTORM-166
p2960
aVSTORM-165
p2961
aVSTORM-164
p2962
aVSTORM-163
p2963
aVSTORM-162
p2964
aVSTORM-161
p2965
aVSTORM-160
p2966
aVSTORM-159
p2967
aVSTORM-158
p2968
aVSTORM-157
p2969
aVSTORM-156
p2970
aVSTORM-155
p2971
aVSTORM-154
p2972
aVSTORM-153
p2973
aVSTORM-152
p2974
aVSTORM-151
p2975
aVSTORM-150
p2976
aVSTORM-149
p2977
aVSTORM-148
p2978
aVSTORM-147
p2979
aVSTORM-146
p2980
aVSTORM-145
p2981
aVSTORM-144
p2982
aVSTORM-143
p2983
aVSTORM-142
p2984
aVSTORM-141
p2985
aVSTORM-140
p2986
aVSTORM-139
p2987
aVSTORM-138
p2988
aVSTORM-137
p2989
aVSTORM-136
p2990
aVSTORM-135
p2991
aVSTORM-134
p2992
aVSTORM-133
p2993
aVSTORM-132
p2994
aVSTORM-131
p2995
aVSTORM-130
p2996
aVSTORM-129
p2997
aVSTORM-128
p2998
aVSTORM-127
p2999
aVSTORM-126
p3000
aVSTORM-125
p3001
aVSTORM-124
p3002
aVSTORM-123
p3003
aVSTORM-122
p3004
aVSTORM-121
p3005
aVSTORM-120
p3006
aVSTORM-119
p3007
aVSTORM-118
p3008
aVSTORM-117
p3009
aVSTORM-116
p3010
aVSTORM-115
p3011
aVSTORM-114
p3012
aVSTORM-113
p3013
aVSTORM-112
p3014
aVSTORM-111
p3015
aVSTORM-110
p3016
aVSTORM-109
p3017
aVSTORM-108
p3018
aVSTORM-107
p3019
aVSTORM-106
p3020
aVSTORM-105
p3021
aVSTORM-104
p3022
aVSTORM-103
p3023
aVSTORM-102
p3024
aVSTORM-101
p3025
aVSTORM-100
p3026
aVSTORM-99
p3027
aVSTORM-98
p3028
aVSTORM-97
p3029
aVSTORM-96
p3030
aVSTORM-95
p3031
aVSTORM-94
p3032
aVSTORM-93
p3033
aVSTORM-92
p3034
aVSTORM-91
p3035
aVSTORM-90
p3036
aVSTORM-89
p3037
aVSTORM-88
p3038
aVSTORM-87
p3039
aVSTORM-86
p3040
aVSTORM-85
p3041
aVSTORM-84
p3042
aVSTORM-83
p3043
aVSTORM-82
p3044
aVSTORM-81
p3045
aVSTORM-80
p3046
aVSTORM-79
p3047
aVSTORM-78
p3048
aVSTORM-77
p3049
aVSTORM-76
p3050
aVSTORM-75
p3051
aVSTORM-74
p3052
aVSTORM-73
p3053
aVSTORM-72
p3054
aVSTORM-71
p3055
aVSTORM-70
p3056
aVSTORM-69
p3057
aVSTORM-68
p3058
aVSTORM-67
p3059
aVSTORM-66
p3060
aVSTORM-65
p3061
aVSTORM-64
p3062
aVSTORM-63
p3063
aVSTORM-62
p3064
aVSTORM-61
p3065
aVSTORM-60
p3066
aVSTORM-59
p3067
aVSTORM-58
p3068
aVSTORM-57
p3069
aVSTORM-56
p3070
aVSTORM-55
p3071
aVSTORM-54
p3072
aVSTORM-53
p3073
aVSTORM-52
p3074
aVSTORM-51
p3075
aVSTORM-50
p3076
aVSTORM-49
p3077
aVSTORM-48
p3078
aVSTORM-47
p3079
aVSTORM-46
p3080
aVSTORM-45
p3081
aVSTORM-44
p3082
aVSTORM-43
p3083
aVSTORM-42
p3084
aVSTORM-41
p3085
aVSTORM-40
p3086
aVSTORM-39
p3087
aVSTORM-38
p3088
aVSTORM-37
p3089
aVSTORM-36
p3090
aVSTORM-35
p3091
aVSTORM-34
p3092
aVSTORM-33
p3093
aVSTORM-32
p3094
aVSTORM-31
p3095
aVSTORM-30
p3096
aVSTORM-29
p3097
aVSTORM-28
p3098
aVSTORM-27
p3099
aVSTORM-26
p3100
aVSTORM-25
p3101
aVSTORM-24
p3102
aVSTORM-23
p3103
aVSTORM-22
p3104
aVSTORM-21
p3105
aVSTORM-20
p3106
aVSTORM-19
p3107
aVSTORM-18
p3108
aVSTORM-17
p3109
aVSTORM-16
p3110
aVSTORM-15
p3111
aVSTORM-14
p3112
aVSTORM-13
p3113
aVSTORM-12
p3114
aVSTORM-11
p3115
aVSTORM-10
p3116
aVSTORM-9
p3117
aVSTORM-8
p3118
aVSTORM-7
p3119
aVSTORM-6
p3120
aVSTORM-5
p3121
aVSTORM-4
p3122
aVSTORM-3
p3123
aVSTORM-2
p3124
aVSTORM-1
p3125
a.