(lp0
VSTRATOS-1665
p1
aVSTRATOS-1664
p2
aVSTRATOS-1663
p3
aVSTRATOS-1662
p4
aVSTRATOS-1661
p5
aVSTRATOS-1660
p6
aVSTRATOS-1659
p7
aVSTRATOS-1658
p8
aVSTRATOS-1657
p9
aVSTRATOS-1656
p10
aVSTRATOS-1655
p11
aVSTRATOS-1654
p12
aVSTRATOS-1653
p13
aVSTRATOS-1652
p14
aVSTRATOS-1651
p15
aVSTRATOS-1650
p16
aVSTRATOS-1649
p17
aVSTRATOS-1648
p18
aVSTRATOS-1647
p19
aVSTRATOS-1646
p20
aVSTRATOS-1645
p21
aVSTRATOS-1644
p22
aVSTRATOS-1643
p23
aVSTRATOS-1642
p24
aVSTRATOS-1641
p25
aVSTRATOS-1640
p26
aVSTRATOS-1639
p27
aVSTRATOS-1638
p28
aVSTRATOS-1637
p29
aVSTRATOS-1636
p30
aVSTRATOS-1635
p31
aVSTRATOS-1634
p32
aVSTRATOS-1633
p33
aVSTRATOS-1632
p34
aVSTRATOS-1631
p35
aVSTRATOS-1630
p36
aVSTRATOS-1629
p37
aVSTRATOS-1628
p38
aVSTRATOS-1627
p39
aVSTRATOS-1626
p40
aVSTRATOS-1625
p41
aVSTRATOS-1624
p42
aVSTRATOS-1623
p43
aVSTRATOS-1622
p44
aVSTRATOS-1621
p45
aVSTRATOS-1620
p46
aVSTRATOS-1619
p47
aVSTRATOS-1618
p48
aVSTRATOS-1617
p49
aVSTRATOS-1616
p50
aVSTRATOS-1615
p51
aVSTRATOS-1614
p52
aVSTRATOS-1613
p53
aVSTRATOS-1612
p54
aVSTRATOS-1611
p55
aVSTRATOS-1610
p56
aVSTRATOS-1609
p57
aVSTRATOS-1608
p58
aVSTRATOS-1607
p59
aVSTRATOS-1606
p60
aVSTRATOS-1605
p61
aVSTRATOS-1604
p62
aVSTRATOS-1603
p63
aVSTRATOS-1602
p64
aVSTRATOS-1601
p65
aVSTRATOS-1600
p66
aVSTRATOS-1599
p67
aVSTRATOS-1598
p68
aVSTRATOS-1597
p69
aVSTRATOS-1596
p70
aVSTRATOS-1595
p71
aVSTRATOS-1594
p72
aVSTRATOS-1593
p73
aVSTRATOS-1592
p74
aVSTRATOS-1591
p75
aVSTRATOS-1590
p76
aVSTRATOS-1589
p77
aVSTRATOS-1588
p78
aVSTRATOS-1587
p79
aVSTRATOS-1586
p80
aVSTRATOS-1585
p81
aVSTRATOS-1584
p82
aVSTRATOS-1583
p83
aVSTRATOS-1582
p84
aVSTRATOS-1581
p85
aVSTRATOS-1580
p86
aVSTRATOS-1579
p87
aVSTRATOS-1578
p88
aVSTRATOS-1577
p89
aVSTRATOS-1576
p90
aVSTRATOS-1575
p91
aVSTRATOS-1574
p92
aVSTRATOS-1573
p93
aVSTRATOS-1572
p94
aVSTRATOS-1571
p95
aVSTRATOS-1570
p96
aVSTRATOS-1569
p97
aVSTRATOS-1568
p98
aVSTRATOS-1567
p99
aVSTRATOS-1566
p100
aVSTRATOS-1565
p101
aVSTRATOS-1564
p102
aVSTRATOS-1563
p103
aVSTRATOS-1562
p104
aVSTRATOS-1561
p105
aVSTRATOS-1560
p106
aVSTRATOS-1559
p107
aVSTRATOS-1558
p108
aVSTRATOS-1557
p109
aVSTRATOS-1556
p110
aVSTRATOS-1555
p111
aVSTRATOS-1554
p112
aVSTRATOS-1553
p113
aVSTRATOS-1552
p114
aVSTRATOS-1551
p115
aVSTRATOS-1550
p116
aVSTRATOS-1549
p117
aVSTRATOS-1548
p118
aVSTRATOS-1547
p119
aVSTRATOS-1546
p120
aVSTRATOS-1545
p121
aVSTRATOS-1544
p122
aVSTRATOS-1543
p123
aVSTRATOS-1542
p124
aVSTRATOS-1541
p125
aVSTRATOS-1540
p126
aVSTRATOS-1539
p127
aVSTRATOS-1538
p128
aVSTRATOS-1537
p129
aVSTRATOS-1536
p130
aVSTRATOS-1535
p131
aVSTRATOS-1534
p132
aVSTRATOS-1533
p133
aVSTRATOS-1532
p134
aVSTRATOS-1531
p135
aVSTRATOS-1530
p136
aVSTRATOS-1529
p137
aVSTRATOS-1528
p138
aVSTRATOS-1527
p139
aVSTRATOS-1526
p140
aVSTRATOS-1525
p141
aVSTRATOS-1524
p142
aVSTRATOS-1523
p143
aVSTRATOS-1522
p144
aVSTRATOS-1521
p145
aVSTRATOS-1520
p146
aVSTRATOS-1519
p147
aVSTRATOS-1518
p148
aVSTRATOS-1517
p149
aVSTRATOS-1516
p150
aVSTRATOS-1515
p151
aVSTRATOS-1514
p152
aVSTRATOS-1513
p153
aVSTRATOS-1512
p154
aVSTRATOS-1511
p155
aVSTRATOS-1510
p156
aVSTRATOS-1509
p157
aVSTRATOS-1508
p158
aVSTRATOS-1507
p159
aVSTRATOS-1506
p160
aVSTRATOS-1505
p161
aVSTRATOS-1504
p162
aVSTRATOS-1503
p163
aVSTRATOS-1502
p164
aVSTRATOS-1501
p165
aVSTRATOS-1500
p166
aVSTRATOS-1499
p167
aVSTRATOS-1498
p168
aVSTRATOS-1497
p169
aVSTRATOS-1496
p170
aVSTRATOS-1495
p171
aVSTRATOS-1494
p172
aVSTRATOS-1493
p173
aVSTRATOS-1492
p174
aVSTRATOS-1491
p175
aVSTRATOS-1490
p176
aVSTRATOS-1489
p177
aVSTRATOS-1488
p178
aVSTRATOS-1487
p179
aVSTRATOS-1486
p180
aVSTRATOS-1485
p181
aVSTRATOS-1484
p182
aVSTRATOS-1483
p183
aVSTRATOS-1482
p184
aVSTRATOS-1481
p185
aVSTRATOS-1480
p186
aVSTRATOS-1479
p187
aVSTRATOS-1478
p188
aVSTRATOS-1477
p189
aVSTRATOS-1476
p190
aVSTRATOS-1475
p191
aVSTRATOS-1474
p192
aVSTRATOS-1473
p193
aVSTRATOS-1472
p194
aVSTRATOS-1471
p195
aVSTRATOS-1470
p196
aVSTRATOS-1469
p197
aVSTRATOS-1468
p198
aVSTRATOS-1467
p199
aVSTRATOS-1466
p200
aVSTRATOS-1465
p201
aVSTRATOS-1464
p202
aVSTRATOS-1463
p203
aVSTRATOS-1462
p204
aVSTRATOS-1461
p205
aVSTRATOS-1460
p206
aVSTRATOS-1459
p207
aVSTRATOS-1458
p208
aVSTRATOS-1457
p209
aVSTRATOS-1456
p210
aVSTRATOS-1455
p211
aVSTRATOS-1454
p212
aVSTRATOS-1453
p213
aVSTRATOS-1452
p214
aVSTRATOS-1451
p215
aVSTRATOS-1450
p216
aVSTRATOS-1449
p217
aVSTRATOS-1448
p218
aVSTRATOS-1447
p219
aVSTRATOS-1446
p220
aVSTRATOS-1445
p221
aVSTRATOS-1444
p222
aVSTRATOS-1443
p223
aVSTRATOS-1442
p224
aVSTRATOS-1441
p225
aVSTRATOS-1440
p226
aVSTRATOS-1439
p227
aVSTRATOS-1438
p228
aVSTRATOS-1437
p229
aVSTRATOS-1436
p230
aVSTRATOS-1435
p231
aVSTRATOS-1434
p232
aVSTRATOS-1433
p233
aVSTRATOS-1432
p234
aVSTRATOS-1431
p235
aVSTRATOS-1430
p236
aVSTRATOS-1429
p237
aVSTRATOS-1428
p238
aVSTRATOS-1427
p239
aVSTRATOS-1426
p240
aVSTRATOS-1425
p241
aVSTRATOS-1424
p242
aVSTRATOS-1423
p243
aVSTRATOS-1422
p244
aVSTRATOS-1421
p245
aVSTRATOS-1420
p246
aVSTRATOS-1419
p247
aVSTRATOS-1418
p248
aVSTRATOS-1417
p249
aVSTRATOS-1416
p250
aVSTRATOS-1415
p251
aVSTRATOS-1414
p252
aVSTRATOS-1413
p253
aVSTRATOS-1412
p254
aVSTRATOS-1411
p255
aVSTRATOS-1410
p256
aVSTRATOS-1409
p257
aVSTRATOS-1408
p258
aVSTRATOS-1407
p259
aVSTRATOS-1406
p260
aVSTRATOS-1405
p261
aVSTRATOS-1404
p262
aVSTRATOS-1403
p263
aVSTRATOS-1402
p264
aVSTRATOS-1401
p265
aVSTRATOS-1400
p266
aVSTRATOS-1399
p267
aVSTRATOS-1398
p268
aVSTRATOS-1397
p269
aVSTRATOS-1396
p270
aVSTRATOS-1395
p271
aVSTRATOS-1394
p272
aVSTRATOS-1393
p273
aVSTRATOS-1392
p274
aVSTRATOS-1391
p275
aVSTRATOS-1390
p276
aVSTRATOS-1389
p277
aVSTRATOS-1388
p278
aVSTRATOS-1387
p279
aVSTRATOS-1386
p280
aVSTRATOS-1385
p281
aVSTRATOS-1384
p282
aVSTRATOS-1383
p283
aVSTRATOS-1382
p284
aVSTRATOS-1381
p285
aVSTRATOS-1380
p286
aVSTRATOS-1379
p287
aVSTRATOS-1378
p288
aVSTRATOS-1377
p289
aVSTRATOS-1376
p290
aVSTRATOS-1375
p291
aVSTRATOS-1374
p292
aVSTRATOS-1373
p293
aVSTRATOS-1372
p294
aVSTRATOS-1371
p295
aVSTRATOS-1370
p296
aVSTRATOS-1369
p297
aVSTRATOS-1368
p298
aVSTRATOS-1367
p299
aVSTRATOS-1366
p300
aVSTRATOS-1365
p301
aVSTRATOS-1364
p302
aVSTRATOS-1363
p303
aVSTRATOS-1362
p304
aVSTRATOS-1361
p305
aVSTRATOS-1360
p306
aVSTRATOS-1359
p307
aVSTRATOS-1358
p308
aVSTRATOS-1357
p309
aVSTRATOS-1356
p310
aVSTRATOS-1355
p311
aVSTRATOS-1354
p312
aVSTRATOS-1353
p313
aVSTRATOS-1352
p314
aVSTRATOS-1351
p315
aVSTRATOS-1350
p316
aVSTRATOS-1349
p317
aVSTRATOS-1348
p318
aVSTRATOS-1347
p319
aVSTRATOS-1346
p320
aVSTRATOS-1345
p321
aVSTRATOS-1344
p322
aVSTRATOS-1343
p323
aVSTRATOS-1342
p324
aVSTRATOS-1341
p325
aVSTRATOS-1340
p326
aVSTRATOS-1339
p327
aVSTRATOS-1338
p328
aVSTRATOS-1337
p329
aVSTRATOS-1336
p330
aVSTRATOS-1335
p331
aVSTRATOS-1334
p332
aVSTRATOS-1333
p333
aVSTRATOS-1332
p334
aVSTRATOS-1331
p335
aVSTRATOS-1330
p336
aVSTRATOS-1329
p337
aVSTRATOS-1328
p338
aVSTRATOS-1327
p339
aVSTRATOS-1326
p340
aVSTRATOS-1325
p341
aVSTRATOS-1324
p342
aVSTRATOS-1323
p343
aVSTRATOS-1322
p344
aVSTRATOS-1321
p345
aVSTRATOS-1320
p346
aVSTRATOS-1319
p347
aVSTRATOS-1318
p348
aVSTRATOS-1317
p349
aVSTRATOS-1316
p350
aVSTRATOS-1315
p351
aVSTRATOS-1314
p352
aVSTRATOS-1313
p353
aVSTRATOS-1312
p354
aVSTRATOS-1311
p355
aVSTRATOS-1310
p356
aVSTRATOS-1309
p357
aVSTRATOS-1308
p358
aVSTRATOS-1307
p359
aVSTRATOS-1306
p360
aVSTRATOS-1305
p361
aVSTRATOS-1304
p362
aVSTRATOS-1303
p363
aVSTRATOS-1302
p364
aVSTRATOS-1300
p365
aVSTRATOS-1299
p366
aVSTRATOS-1298
p367
aVSTRATOS-1297
p368
aVSTRATOS-1296
p369
aVSTRATOS-1295
p370
aVSTRATOS-1294
p371
aVSTRATOS-1293
p372
aVSTRATOS-1292
p373
aVSTRATOS-1291
p374
aVSTRATOS-1290
p375
aVSTRATOS-1289
p376
aVSTRATOS-1288
p377
aVSTRATOS-1287
p378
aVSTRATOS-1286
p379
aVSTRATOS-1285
p380
aVSTRATOS-1284
p381
aVSTRATOS-1283
p382
aVSTRATOS-1282
p383
aVSTRATOS-1281
p384
aVSTRATOS-1280
p385
aVSTRATOS-1279
p386
aVSTRATOS-1278
p387
aVSTRATOS-1277
p388
aVSTRATOS-1276
p389
aVSTRATOS-1275
p390
aVSTRATOS-1274
p391
aVSTRATOS-1273
p392
aVSTRATOS-1272
p393
aVSTRATOS-1271
p394
aVSTRATOS-1270
p395
aVSTRATOS-1269
p396
aVSTRATOS-1268
p397
aVSTRATOS-1267
p398
aVSTRATOS-1266
p399
aVSTRATOS-1265
p400
aVSTRATOS-1264
p401
aVSTRATOS-1263
p402
aVSTRATOS-1262
p403
aVSTRATOS-1261
p404
aVSTRATOS-1260
p405
aVSTRATOS-1259
p406
aVSTRATOS-1258
p407
aVSTRATOS-1257
p408
aVSTRATOS-1256
p409
aVSTRATOS-1255
p410
aVSTRATOS-1254
p411
aVSTRATOS-1253
p412
aVSTRATOS-1252
p413
aVSTRATOS-1251
p414
aVSTRATOS-1250
p415
aVSTRATOS-1249
p416
aVSTRATOS-1248
p417
aVSTRATOS-1247
p418
aVSTRATOS-1246
p419
aVSTRATOS-1245
p420
aVSTRATOS-1244
p421
aVSTRATOS-1243
p422
aVSTRATOS-1242
p423
aVSTRATOS-1241
p424
aVSTRATOS-1240
p425
aVSTRATOS-1239
p426
aVSTRATOS-1238
p427
aVSTRATOS-1237
p428
aVSTRATOS-1236
p429
aVSTRATOS-1235
p430
aVSTRATOS-1234
p431
aVSTRATOS-1233
p432
aVSTRATOS-1232
p433
aVSTRATOS-1231
p434
aVSTRATOS-1230
p435
aVSTRATOS-1229
p436
aVSTRATOS-1228
p437
aVSTRATOS-1227
p438
aVSTRATOS-1226
p439
aVSTRATOS-1225
p440
aVSTRATOS-1224
p441
aVSTRATOS-1223
p442
aVSTRATOS-1222
p443
aVSTRATOS-1221
p444
aVSTRATOS-1220
p445
aVSTRATOS-1219
p446
aVSTRATOS-1218
p447
aVSTRATOS-1217
p448
aVSTRATOS-1216
p449
aVSTRATOS-1215
p450
aVSTRATOS-1214
p451
aVSTRATOS-1213
p452
aVSTRATOS-1212
p453
aVSTRATOS-1211
p454
aVSTRATOS-1210
p455
aVSTRATOS-1209
p456
aVSTRATOS-1208
p457
aVSTRATOS-1207
p458
aVSTRATOS-1206
p459
aVSTRATOS-1205
p460
aVSTRATOS-1204
p461
aVSTRATOS-1203
p462
aVSTRATOS-1202
p463
aVSTRATOS-1201
p464
aVSTRATOS-1200
p465
aVSTRATOS-1199
p466
aVSTRATOS-1198
p467
aVSTRATOS-1197
p468
aVSTRATOS-1196
p469
aVSTRATOS-1195
p470
aVSTRATOS-1194
p471
aVSTRATOS-1193
p472
aVSTRATOS-1192
p473
aVSTRATOS-1191
p474
aVSTRATOS-1190
p475
aVSTRATOS-1189
p476
aVSTRATOS-1188
p477
aVSTRATOS-1187
p478
aVSTRATOS-1186
p479
aVSTRATOS-1185
p480
aVSTRATOS-1184
p481
aVSTRATOS-1183
p482
aVSTRATOS-1182
p483
aVSTRATOS-1181
p484
aVSTRATOS-1180
p485
aVSTRATOS-1179
p486
aVSTRATOS-1178
p487
aVSTRATOS-1177
p488
aVSTRATOS-1176
p489
aVSTRATOS-1175
p490
aVSTRATOS-1174
p491
aVSTRATOS-1173
p492
aVSTRATOS-1172
p493
aVSTRATOS-1171
p494
aVSTRATOS-1170
p495
aVSTRATOS-1169
p496
aVSTRATOS-1168
p497
aVSTRATOS-1167
p498
aVSTRATOS-1166
p499
aVSTRATOS-1165
p500
aVSTRATOS-1164
p501
aVSTRATOS-1163
p502
aVSTRATOS-1162
p503
aVSTRATOS-1161
p504
aVSTRATOS-1160
p505
aVSTRATOS-1159
p506
aVSTRATOS-1158
p507
aVSTRATOS-1157
p508
aVSTRATOS-1156
p509
aVSTRATOS-1155
p510
aVSTRATOS-1154
p511
aVSTRATOS-1153
p512
aVSTRATOS-1152
p513
aVSTRATOS-1151
p514
aVSTRATOS-1150
p515
aVSTRATOS-1149
p516
aVSTRATOS-1148
p517
aVSTRATOS-1147
p518
aVSTRATOS-1146
p519
aVSTRATOS-1145
p520
aVSTRATOS-1144
p521
aVSTRATOS-1143
p522
aVSTRATOS-1142
p523
aVSTRATOS-1141
p524
aVSTRATOS-1140
p525
aVSTRATOS-1139
p526
aVSTRATOS-1138
p527
aVSTRATOS-1137
p528
aVSTRATOS-1136
p529
aVSTRATOS-1135
p530
aVSTRATOS-1134
p531
aVSTRATOS-1133
p532
aVSTRATOS-1132
p533
aVSTRATOS-1131
p534
aVSTRATOS-1130
p535
aVSTRATOS-1129
p536
aVSTRATOS-1128
p537
aVSTRATOS-1127
p538
aVSTRATOS-1126
p539
aVSTRATOS-1125
p540
aVSTRATOS-1124
p541
aVSTRATOS-1123
p542
aVSTRATOS-1122
p543
aVSTRATOS-1121
p544
aVSTRATOS-1120
p545
aVSTRATOS-1119
p546
aVSTRATOS-1118
p547
aVSTRATOS-1117
p548
aVSTRATOS-1116
p549
aVSTRATOS-1115
p550
aVSTRATOS-1114
p551
aVSTRATOS-1113
p552
aVSTRATOS-1112
p553
aVSTRATOS-1111
p554
aVSTRATOS-1110
p555
aVSTRATOS-1109
p556
aVSTRATOS-1108
p557
aVSTRATOS-1107
p558
aVSTRATOS-1106
p559
aVSTRATOS-1105
p560
aVSTRATOS-1104
p561
aVSTRATOS-1103
p562
aVSTRATOS-1102
p563
aVSTRATOS-1101
p564
aVSTRATOS-1100
p565
aVSTRATOS-1099
p566
aVSTRATOS-1098
p567
aVSTRATOS-1097
p568
aVSTRATOS-1096
p569
aVSTRATOS-1095
p570
aVSTRATOS-1094
p571
aVSTRATOS-1093
p572
aVSTRATOS-1092
p573
aVSTRATOS-1091
p574
aVSTRATOS-1090
p575
aVSTRATOS-1089
p576
aVSTRATOS-1088
p577
aVSTRATOS-1087
p578
aVSTRATOS-1086
p579
aVSTRATOS-1085
p580
aVSTRATOS-1084
p581
aVSTRATOS-1083
p582
aVSTRATOS-1082
p583
aVSTRATOS-1081
p584
aVSTRATOS-1080
p585
aVSTRATOS-1079
p586
aVSTRATOS-1078
p587
aVSTRATOS-1077
p588
aVSTRATOS-1076
p589
aVSTRATOS-1075
p590
aVSTRATOS-1074
p591
aVSTRATOS-1073
p592
aVSTRATOS-1072
p593
aVSTRATOS-1071
p594
aVSTRATOS-1070
p595
aVSTRATOS-1069
p596
aVSTRATOS-1068
p597
aVSTRATOS-1067
p598
aVSTRATOS-1066
p599
aVSTRATOS-1065
p600
aVSTRATOS-1064
p601
aVSTRATOS-1063
p602
aVSTRATOS-1062
p603
aVSTRATOS-1061
p604
aVSTRATOS-1060
p605
aVSTRATOS-1059
p606
aVSTRATOS-1058
p607
aVSTRATOS-1057
p608
aVSTRATOS-1056
p609
aVSTRATOS-1055
p610
aVSTRATOS-1054
p611
aVSTRATOS-1053
p612
aVSTRATOS-1052
p613
aVSTRATOS-1051
p614
aVSTRATOS-1050
p615
aVSTRATOS-1049
p616
aVSTRATOS-1048
p617
aVSTRATOS-1047
p618
aVSTRATOS-1046
p619
aVSTRATOS-1045
p620
aVSTRATOS-1044
p621
aVSTRATOS-1043
p622
aVSTRATOS-1042
p623
aVSTRATOS-1041
p624
aVSTRATOS-1040
p625
aVSTRATOS-1039
p626
aVSTRATOS-1038
p627
aVSTRATOS-1037
p628
aVSTRATOS-1036
p629
aVSTRATOS-1035
p630
aVSTRATOS-1034
p631
aVSTRATOS-1033
p632
aVSTRATOS-1032
p633
aVSTRATOS-1031
p634
aVSTRATOS-1030
p635
aVSTRATOS-1029
p636
aVSTRATOS-1028
p637
aVSTRATOS-1027
p638
aVSTRATOS-1026
p639
aVSTRATOS-1025
p640
aVSTRATOS-1024
p641
aVSTRATOS-1023
p642
aVSTRATOS-1022
p643
aVSTRATOS-1021
p644
aVSTRATOS-1020
p645
aVSTRATOS-1019
p646
aVSTRATOS-1018
p647
aVSTRATOS-1017
p648
aVSTRATOS-1016
p649
aVSTRATOS-1015
p650
aVSTRATOS-1014
p651
aVSTRATOS-1013
p652
aVSTRATOS-1012
p653
aVSTRATOS-1011
p654
aVSTRATOS-1010
p655
aVSTRATOS-1009
p656
aVSTRATOS-1008
p657
aVSTRATOS-1007
p658
aVSTRATOS-1006
p659
aVSTRATOS-1005
p660
aVSTRATOS-1004
p661
aVSTRATOS-1003
p662
aVSTRATOS-1002
p663
aVSTRATOS-1001
p664
aVSTRATOS-1000
p665
aVSTRATOS-999
p666
aVSTRATOS-998
p667
aVSTRATOS-997
p668
aVSTRATOS-996
p669
aVSTRATOS-995
p670
aVSTRATOS-994
p671
aVSTRATOS-993
p672
aVSTRATOS-992
p673
aVSTRATOS-991
p674
aVSTRATOS-990
p675
aVSTRATOS-989
p676
aVSTRATOS-988
p677
aVSTRATOS-987
p678
aVSTRATOS-986
p679
aVSTRATOS-985
p680
aVSTRATOS-984
p681
aVSTRATOS-983
p682
aVSTRATOS-982
p683
aVSTRATOS-981
p684
aVSTRATOS-980
p685
aVSTRATOS-979
p686
aVSTRATOS-978
p687
aVSTRATOS-977
p688
aVSTRATOS-976
p689
aVSTRATOS-975
p690
aVSTRATOS-974
p691
aVSTRATOS-973
p692
aVSTRATOS-972
p693
aVSTRATOS-971
p694
aVSTRATOS-970
p695
aVSTRATOS-969
p696
aVSTRATOS-968
p697
aVSTRATOS-967
p698
aVSTRATOS-966
p699
aVSTRATOS-965
p700
aVSTRATOS-964
p701
aVSTRATOS-963
p702
aVSTRATOS-962
p703
aVSTRATOS-961
p704
aVSTRATOS-960
p705
aVSTRATOS-959
p706
aVSTRATOS-958
p707
aVSTRATOS-957
p708
aVSTRATOS-956
p709
aVSTRATOS-955
p710
aVSTRATOS-954
p711
aVSTRATOS-953
p712
aVSTRATOS-952
p713
aVSTRATOS-951
p714
aVSTRATOS-950
p715
aVSTRATOS-949
p716
aVSTRATOS-948
p717
aVSTRATOS-947
p718
aVSTRATOS-946
p719
aVSTRATOS-945
p720
aVSTRATOS-944
p721
aVSTRATOS-943
p722
aVSTRATOS-942
p723
aVSTRATOS-941
p724
aVSTRATOS-940
p725
aVSTRATOS-939
p726
aVSTRATOS-938
p727
aVSTRATOS-937
p728
aVSTRATOS-936
p729
aVSTRATOS-935
p730
aVSTRATOS-934
p731
aVSTRATOS-933
p732
aVSTRATOS-932
p733
aVSTRATOS-931
p734
aVSTRATOS-930
p735
aVSTRATOS-929
p736
aVSTRATOS-928
p737
aVSTRATOS-927
p738
aVSTRATOS-926
p739
aVSTRATOS-925
p740
aVSTRATOS-924
p741
aVSTRATOS-923
p742
aVSTRATOS-922
p743
aVSTRATOS-921
p744
aVSTRATOS-920
p745
aVSTRATOS-919
p746
aVSTRATOS-918
p747
aVSTRATOS-917
p748
aVSTRATOS-916
p749
aVSTRATOS-915
p750
aVSTRATOS-914
p751
aVSTRATOS-913
p752
aVSTRATOS-912
p753
aVSTRATOS-911
p754
aVSTRATOS-910
p755
aVSTRATOS-909
p756
aVSTRATOS-908
p757
aVSTRATOS-907
p758
aVSTRATOS-906
p759
aVSTRATOS-905
p760
aVSTRATOS-904
p761
aVSTRATOS-903
p762
aVSTRATOS-902
p763
aVSTRATOS-901
p764
aVSTRATOS-900
p765
aVSTRATOS-899
p766
aVSTRATOS-898
p767
aVSTRATOS-897
p768
aVSTRATOS-896
p769
aVSTRATOS-895
p770
aVSTRATOS-894
p771
aVSTRATOS-893
p772
aVSTRATOS-892
p773
aVSTRATOS-891
p774
aVSTRATOS-890
p775
aVSTRATOS-889
p776
aVSTRATOS-888
p777
aVSTRATOS-887
p778
aVSTRATOS-886
p779
aVSTRATOS-885
p780
aVSTRATOS-884
p781
aVSTRATOS-883
p782
aVSTRATOS-882
p783
aVSTRATOS-881
p784
aVSTRATOS-880
p785
aVSTRATOS-879
p786
aVSTRATOS-878
p787
aVSTRATOS-877
p788
aVSTRATOS-876
p789
aVSTRATOS-875
p790
aVSTRATOS-874
p791
aVSTRATOS-873
p792
aVSTRATOS-872
p793
aVSTRATOS-871
p794
aVSTRATOS-870
p795
aVSTRATOS-869
p796
aVSTRATOS-868
p797
aVSTRATOS-867
p798
aVSTRATOS-866
p799
aVSTRATOS-865
p800
aVSTRATOS-864
p801
aVSTRATOS-863
p802
aVSTRATOS-862
p803
aVSTRATOS-861
p804
aVSTRATOS-860
p805
aVSTRATOS-859
p806
aVSTRATOS-858
p807
aVSTRATOS-857
p808
aVSTRATOS-856
p809
aVSTRATOS-855
p810
aVSTRATOS-854
p811
aVSTRATOS-853
p812
aVSTRATOS-852
p813
aVSTRATOS-851
p814
aVSTRATOS-850
p815
aVSTRATOS-849
p816
aVSTRATOS-848
p817
aVSTRATOS-847
p818
aVSTRATOS-846
p819
aVSTRATOS-845
p820
aVSTRATOS-844
p821
aVSTRATOS-843
p822
aVSTRATOS-842
p823
aVSTRATOS-841
p824
aVSTRATOS-840
p825
aVSTRATOS-839
p826
aVSTRATOS-838
p827
aVSTRATOS-837
p828
aVSTRATOS-836
p829
aVSTRATOS-835
p830
aVSTRATOS-834
p831
aVSTRATOS-833
p832
aVSTRATOS-832
p833
aVSTRATOS-831
p834
aVSTRATOS-830
p835
aVSTRATOS-829
p836
aVSTRATOS-828
p837
aVSTRATOS-827
p838
aVSTRATOS-826
p839
aVSTRATOS-825
p840
aVSTRATOS-824
p841
aVSTRATOS-823
p842
aVSTRATOS-822
p843
aVSTRATOS-821
p844
aVSTRATOS-820
p845
aVSTRATOS-819
p846
aVSTRATOS-818
p847
aVSTRATOS-817
p848
aVSTRATOS-816
p849
aVSTRATOS-815
p850
aVSTRATOS-814
p851
aVSTRATOS-813
p852
aVSTRATOS-812
p853
aVSTRATOS-811
p854
aVSTRATOS-810
p855
aVSTRATOS-809
p856
aVSTRATOS-808
p857
aVSTRATOS-807
p858
aVSTRATOS-806
p859
aVSTRATOS-805
p860
aVSTRATOS-804
p861
aVSTRATOS-803
p862
aVSTRATOS-802
p863
aVSTRATOS-801
p864
aVSTRATOS-800
p865
aVSTRATOS-799
p866
aVSTRATOS-798
p867
aVSTRATOS-797
p868
aVSTRATOS-796
p869
aVSTRATOS-795
p870
aVSTRATOS-794
p871
aVSTRATOS-793
p872
aVSTRATOS-792
p873
aVSTRATOS-791
p874
aVSTRATOS-790
p875
aVSTRATOS-789
p876
aVSTRATOS-788
p877
aVSTRATOS-787
p878
aVSTRATOS-786
p879
aVSTRATOS-785
p880
aVSTRATOS-784
p881
aVSTRATOS-783
p882
aVSTRATOS-782
p883
aVSTRATOS-781
p884
aVSTRATOS-780
p885
aVSTRATOS-779
p886
aVSTRATOS-778
p887
aVSTRATOS-777
p888
aVSTRATOS-776
p889
aVSTRATOS-775
p890
aVSTRATOS-774
p891
aVSTRATOS-773
p892
aVSTRATOS-772
p893
aVSTRATOS-771
p894
aVSTRATOS-770
p895
aVSTRATOS-769
p896
aVSTRATOS-768
p897
aVSTRATOS-767
p898
aVSTRATOS-766
p899
aVSTRATOS-765
p900
aVSTRATOS-764
p901
aVSTRATOS-763
p902
aVSTRATOS-762
p903
aVSTRATOS-761
p904
aVSTRATOS-760
p905
aVSTRATOS-759
p906
aVSTRATOS-758
p907
aVSTRATOS-757
p908
aVSTRATOS-756
p909
aVSTRATOS-755
p910
aVSTRATOS-754
p911
aVSTRATOS-753
p912
aVSTRATOS-752
p913
aVSTRATOS-751
p914
aVSTRATOS-750
p915
aVSTRATOS-749
p916
aVSTRATOS-748
p917
aVSTRATOS-747
p918
aVSTRATOS-746
p919
aVSTRATOS-745
p920
aVSTRATOS-744
p921
aVSTRATOS-743
p922
aVSTRATOS-742
p923
aVSTRATOS-741
p924
aVSTRATOS-740
p925
aVSTRATOS-739
p926
aVSTRATOS-738
p927
aVSTRATOS-737
p928
aVSTRATOS-736
p929
aVSTRATOS-735
p930
aVSTRATOS-734
p931
aVSTRATOS-733
p932
aVSTRATOS-732
p933
aVSTRATOS-731
p934
aVSTRATOS-730
p935
aVSTRATOS-729
p936
aVSTRATOS-728
p937
aVSTRATOS-727
p938
aVSTRATOS-726
p939
aVSTRATOS-725
p940
aVSTRATOS-724
p941
aVSTRATOS-723
p942
aVSTRATOS-722
p943
aVSTRATOS-721
p944
aVSTRATOS-720
p945
aVSTRATOS-719
p946
aVSTRATOS-718
p947
aVSTRATOS-717
p948
aVSTRATOS-716
p949
aVSTRATOS-715
p950
aVSTRATOS-714
p951
aVSTRATOS-713
p952
aVSTRATOS-712
p953
aVSTRATOS-711
p954
aVSTRATOS-710
p955
aVSTRATOS-709
p956
aVSTRATOS-708
p957
aVSTRATOS-707
p958
aVSTRATOS-706
p959
aVSTRATOS-705
p960
aVSTRATOS-704
p961
aVSTRATOS-703
p962
aVSTRATOS-702
p963
aVSTRATOS-701
p964
aVSTRATOS-700
p965
aVSTRATOS-699
p966
aVSTRATOS-698
p967
aVSTRATOS-697
p968
aVSTRATOS-696
p969
aVSTRATOS-695
p970
aVSTRATOS-694
p971
aVSTRATOS-693
p972
aVSTRATOS-692
p973
aVSTRATOS-691
p974
aVSTRATOS-690
p975
aVSTRATOS-689
p976
aVSTRATOS-688
p977
aVSTRATOS-687
p978
aVSTRATOS-686
p979
aVSTRATOS-685
p980
aVSTRATOS-684
p981
aVSTRATOS-683
p982
aVSTRATOS-682
p983
aVSTRATOS-681
p984
aVSTRATOS-680
p985
aVSTRATOS-679
p986
aVSTRATOS-678
p987
aVSTRATOS-677
p988
aVSTRATOS-676
p989
aVSTRATOS-675
p990
aVSTRATOS-674
p991
aVSTRATOS-673
p992
aVSTRATOS-672
p993
aVSTRATOS-671
p994
aVSTRATOS-670
p995
aVSTRATOS-669
p996
aVSTRATOS-668
p997
aVSTRATOS-667
p998
aVSTRATOS-666
p999
aVSTRATOS-665
p1000
aVSTRATOS-664
p1001
aVSTRATOS-663
p1002
aVSTRATOS-662
p1003
aVSTRATOS-661
p1004
aVSTRATOS-660
p1005
aVSTRATOS-659
p1006
aVSTRATOS-658
p1007
aVSTRATOS-657
p1008
aVSTRATOS-656
p1009
aVSTRATOS-655
p1010
aVSTRATOS-654
p1011
aVSTRATOS-653
p1012
aVSTRATOS-652
p1013
aVSTRATOS-651
p1014
aVSTRATOS-650
p1015
aVSTRATOS-649
p1016
aVSTRATOS-648
p1017
aVSTRATOS-647
p1018
aVSTRATOS-646
p1019
aVSTRATOS-645
p1020
aVSTRATOS-644
p1021
aVSTRATOS-643
p1022
aVSTRATOS-642
p1023
aVSTRATOS-641
p1024
aVSTRATOS-640
p1025
aVSTRATOS-639
p1026
aVSTRATOS-638
p1027
aVSTRATOS-637
p1028
aVSTRATOS-636
p1029
aVSTRATOS-635
p1030
aVSTRATOS-634
p1031
aVSTRATOS-633
p1032
aVSTRATOS-632
p1033
aVSTRATOS-631
p1034
aVSTRATOS-630
p1035
aVSTRATOS-629
p1036
aVSTRATOS-628
p1037
aVSTRATOS-627
p1038
aVSTRATOS-626
p1039
aVSTRATOS-625
p1040
aVSTRATOS-624
p1041
aVSTRATOS-623
p1042
aVSTRATOS-622
p1043
aVSTRATOS-621
p1044
aVSTRATOS-620
p1045
aVSTRATOS-619
p1046
aVSTRATOS-618
p1047
aVSTRATOS-617
p1048
aVSTRATOS-616
p1049
aVSTRATOS-615
p1050
aVSTRATOS-614
p1051
aVSTRATOS-613
p1052
aVSTRATOS-612
p1053
aVSTRATOS-611
p1054
aVSTRATOS-610
p1055
aVSTRATOS-609
p1056
aVSTRATOS-608
p1057
aVSTRATOS-607
p1058
aVSTRATOS-606
p1059
aVSTRATOS-605
p1060
aVSTRATOS-604
p1061
aVSTRATOS-603
p1062
aVSTRATOS-602
p1063
aVSTRATOS-601
p1064
aVSTRATOS-600
p1065
aVSTRATOS-599
p1066
aVSTRATOS-598
p1067
aVSTRATOS-597
p1068
aVSTRATOS-596
p1069
aVSTRATOS-595
p1070
aVSTRATOS-594
p1071
aVSTRATOS-593
p1072
aVSTRATOS-592
p1073
aVSTRATOS-591
p1074
aVSTRATOS-590
p1075
aVSTRATOS-589
p1076
aVSTRATOS-588
p1077
aVSTRATOS-587
p1078
aVSTRATOS-586
p1079
aVSTRATOS-585
p1080
aVSTRATOS-584
p1081
aVSTRATOS-583
p1082
aVSTRATOS-582
p1083
aVSTRATOS-581
p1084
aVSTRATOS-580
p1085
aVSTRATOS-579
p1086
aVSTRATOS-578
p1087
aVSTRATOS-577
p1088
aVSTRATOS-576
p1089
aVSTRATOS-575
p1090
aVSTRATOS-574
p1091
aVSTRATOS-573
p1092
aVSTRATOS-572
p1093
aVSTRATOS-571
p1094
aVSTRATOS-570
p1095
aVSTRATOS-569
p1096
aVSTRATOS-568
p1097
aVSTRATOS-567
p1098
aVSTRATOS-566
p1099
aVSTRATOS-565
p1100
aVSTRATOS-564
p1101
aVSTRATOS-563
p1102
aVSTRATOS-562
p1103
aVSTRATOS-561
p1104
aVSTRATOS-560
p1105
aVSTRATOS-559
p1106
aVSTRATOS-558
p1107
aVSTRATOS-557
p1108
aVSTRATOS-556
p1109
aVSTRATOS-555
p1110
aVSTRATOS-554
p1111
aVSTRATOS-553
p1112
aVSTRATOS-552
p1113
aVSTRATOS-551
p1114
aVSTRATOS-550
p1115
aVSTRATOS-549
p1116
aVSTRATOS-548
p1117
aVSTRATOS-547
p1118
aVSTRATOS-546
p1119
aVSTRATOS-545
p1120
aVSTRATOS-544
p1121
aVSTRATOS-543
p1122
aVSTRATOS-542
p1123
aVSTRATOS-541
p1124
aVSTRATOS-540
p1125
aVSTRATOS-539
p1126
aVSTRATOS-538
p1127
aVSTRATOS-537
p1128
aVSTRATOS-536
p1129
aVSTRATOS-535
p1130
aVSTRATOS-534
p1131
aVSTRATOS-533
p1132
aVSTRATOS-532
p1133
aVSTRATOS-531
p1134
aVSTRATOS-530
p1135
aVSTRATOS-529
p1136
aVSTRATOS-528
p1137
aVSTRATOS-527
p1138
aVSTRATOS-526
p1139
aVSTRATOS-525
p1140
aVSTRATOS-524
p1141
aVSTRATOS-523
p1142
aVSTRATOS-522
p1143
aVSTRATOS-521
p1144
aVSTRATOS-520
p1145
aVSTRATOS-519
p1146
aVSTRATOS-518
p1147
aVSTRATOS-517
p1148
aVSTRATOS-516
p1149
aVSTRATOS-515
p1150
aVSTRATOS-514
p1151
aVSTRATOS-513
p1152
aVSTRATOS-512
p1153
aVSTRATOS-511
p1154
aVSTRATOS-510
p1155
aVSTRATOS-509
p1156
aVSTRATOS-508
p1157
aVSTRATOS-507
p1158
aVSTRATOS-506
p1159
aVSTRATOS-505
p1160
aVSTRATOS-504
p1161
aVSTRATOS-503
p1162
aVSTRATOS-502
p1163
aVSTRATOS-501
p1164
aVSTRATOS-500
p1165
aVSTRATOS-499
p1166
aVSTRATOS-498
p1167
aVSTRATOS-497
p1168
aVSTRATOS-496
p1169
aVSTRATOS-495
p1170
aVSTRATOS-494
p1171
aVSTRATOS-493
p1172
aVSTRATOS-492
p1173
aVSTRATOS-491
p1174
aVSTRATOS-490
p1175
aVSTRATOS-489
p1176
aVSTRATOS-488
p1177
aVSTRATOS-487
p1178
aVSTRATOS-486
p1179
aVSTRATOS-485
p1180
aVSTRATOS-484
p1181
aVSTRATOS-483
p1182
aVSTRATOS-482
p1183
aVSTRATOS-481
p1184
aVSTRATOS-480
p1185
aVSTRATOS-479
p1186
aVSTRATOS-478
p1187
aVSTRATOS-477
p1188
aVSTRATOS-476
p1189
aVSTRATOS-475
p1190
aVSTRATOS-474
p1191
aVSTRATOS-473
p1192
aVSTRATOS-472
p1193
aVSTRATOS-471
p1194
aVSTRATOS-470
p1195
aVSTRATOS-469
p1196
aVSTRATOS-468
p1197
aVSTRATOS-467
p1198
aVSTRATOS-466
p1199
aVSTRATOS-465
p1200
aVSTRATOS-464
p1201
aVSTRATOS-463
p1202
aVSTRATOS-462
p1203
aVSTRATOS-461
p1204
aVSTRATOS-460
p1205
aVSTRATOS-459
p1206
aVSTRATOS-458
p1207
aVSTRATOS-457
p1208
aVSTRATOS-456
p1209
aVSTRATOS-455
p1210
aVSTRATOS-454
p1211
aVSTRATOS-453
p1212
aVSTRATOS-452
p1213
aVSTRATOS-451
p1214
aVSTRATOS-450
p1215
aVSTRATOS-449
p1216
aVSTRATOS-448
p1217
aVSTRATOS-447
p1218
aVSTRATOS-446
p1219
aVSTRATOS-445
p1220
aVSTRATOS-444
p1221
aVSTRATOS-443
p1222
aVSTRATOS-442
p1223
aVSTRATOS-441
p1224
aVSTRATOS-440
p1225
aVSTRATOS-439
p1226
aVSTRATOS-438
p1227
aVSTRATOS-437
p1228
aVSTRATOS-436
p1229
aVSTRATOS-435
p1230
aVSTRATOS-434
p1231
aVSTRATOS-433
p1232
aVSTRATOS-432
p1233
aVSTRATOS-431
p1234
aVSTRATOS-430
p1235
aVSTRATOS-429
p1236
aVSTRATOS-428
p1237
aVSTRATOS-427
p1238
aVSTRATOS-426
p1239
aVSTRATOS-425
p1240
aVSTRATOS-424
p1241
aVSTRATOS-423
p1242
aVSTRATOS-422
p1243
aVSTRATOS-421
p1244
aVSTRATOS-420
p1245
aVSTRATOS-419
p1246
aVSTRATOS-418
p1247
aVSTRATOS-417
p1248
aVSTRATOS-416
p1249
aVSTRATOS-415
p1250
aVSTRATOS-414
p1251
aVSTRATOS-413
p1252
aVSTRATOS-412
p1253
aVSTRATOS-411
p1254
aVSTRATOS-410
p1255
aVSTRATOS-409
p1256
aVSTRATOS-408
p1257
aVSTRATOS-407
p1258
aVSTRATOS-406
p1259
aVSTRATOS-405
p1260
aVSTRATOS-404
p1261
aVSTRATOS-403
p1262
aVSTRATOS-402
p1263
aVSTRATOS-401
p1264
aVSTRATOS-400
p1265
aVSTRATOS-399
p1266
aVSTRATOS-398
p1267
aVSTRATOS-397
p1268
aVSTRATOS-396
p1269
aVSTRATOS-395
p1270
aVSTRATOS-394
p1271
aVSTRATOS-393
p1272
aVSTRATOS-392
p1273
aVSTRATOS-391
p1274
aVSTRATOS-390
p1275
aVSTRATOS-389
p1276
aVSTRATOS-388
p1277
aVSTRATOS-387
p1278
aVSTRATOS-386
p1279
aVSTRATOS-385
p1280
aVSTRATOS-384
p1281
aVSTRATOS-383
p1282
aVSTRATOS-382
p1283
aVSTRATOS-381
p1284
aVSTRATOS-380
p1285
aVSTRATOS-379
p1286
aVSTRATOS-378
p1287
aVSTRATOS-377
p1288
aVSTRATOS-376
p1289
aVSTRATOS-375
p1290
aVSTRATOS-374
p1291
aVSTRATOS-373
p1292
aVSTRATOS-372
p1293
aVSTRATOS-371
p1294
aVSTRATOS-370
p1295
aVSTRATOS-369
p1296
aVSTRATOS-368
p1297
aVSTRATOS-367
p1298
aVSTRATOS-366
p1299
aVSTRATOS-365
p1300
aVSTRATOS-364
p1301
aVSTRATOS-363
p1302
aVSTRATOS-362
p1303
aVSTRATOS-361
p1304
aVSTRATOS-360
p1305
aVSTRATOS-359
p1306
aVSTRATOS-358
p1307
aVSTRATOS-357
p1308
aVSTRATOS-356
p1309
aVSTRATOS-355
p1310
aVSTRATOS-354
p1311
aVSTRATOS-353
p1312
aVSTRATOS-352
p1313
aVSTRATOS-351
p1314
aVSTRATOS-350
p1315
aVSTRATOS-349
p1316
aVSTRATOS-348
p1317
aVSTRATOS-347
p1318
aVSTRATOS-346
p1319
aVSTRATOS-345
p1320
aVSTRATOS-344
p1321
aVSTRATOS-343
p1322
aVSTRATOS-342
p1323
aVSTRATOS-341
p1324
aVSTRATOS-340
p1325
aVSTRATOS-339
p1326
aVSTRATOS-338
p1327
aVSTRATOS-337
p1328
aVSTRATOS-336
p1329
aVSTRATOS-335
p1330
aVSTRATOS-334
p1331
aVSTRATOS-333
p1332
aVSTRATOS-332
p1333
aVSTRATOS-331
p1334
aVSTRATOS-330
p1335
aVSTRATOS-329
p1336
aVSTRATOS-328
p1337
aVSTRATOS-327
p1338
aVSTRATOS-326
p1339
aVSTRATOS-325
p1340
aVSTRATOS-324
p1341
aVSTRATOS-323
p1342
aVSTRATOS-322
p1343
aVSTRATOS-321
p1344
aVSTRATOS-320
p1345
aVSTRATOS-319
p1346
aVSTRATOS-318
p1347
aVSTRATOS-317
p1348
aVSTRATOS-316
p1349
aVSTRATOS-315
p1350
aVSTRATOS-314
p1351
aVSTRATOS-313
p1352
aVSTRATOS-312
p1353
aVSTRATOS-311
p1354
aVSTRATOS-310
p1355
aVSTRATOS-309
p1356
aVSTRATOS-308
p1357
aVSTRATOS-307
p1358
aVSTRATOS-306
p1359
aVSTRATOS-305
p1360
aVSTRATOS-304
p1361
aVSTRATOS-303
p1362
aVSTRATOS-302
p1363
aVSTRATOS-301
p1364
aVSTRATOS-300
p1365
aVSTRATOS-299
p1366
aVSTRATOS-298
p1367
aVSTRATOS-297
p1368
aVSTRATOS-296
p1369
aVSTRATOS-295
p1370
aVSTRATOS-294
p1371
aVSTRATOS-293
p1372
aVSTRATOS-292
p1373
aVSTRATOS-291
p1374
aVSTRATOS-290
p1375
aVSTRATOS-289
p1376
aVSTRATOS-288
p1377
aVSTRATOS-287
p1378
aVSTRATOS-286
p1379
aVSTRATOS-285
p1380
aVSTRATOS-284
p1381
aVSTRATOS-283
p1382
aVSTRATOS-282
p1383
aVSTRATOS-281
p1384
aVSTRATOS-280
p1385
aVSTRATOS-279
p1386
aVSTRATOS-278
p1387
aVSTRATOS-277
p1388
aVSTRATOS-276
p1389
aVSTRATOS-275
p1390
aVSTRATOS-274
p1391
aVSTRATOS-273
p1392
aVSTRATOS-272
p1393
aVSTRATOS-271
p1394
aVSTRATOS-270
p1395
aVSTRATOS-269
p1396
aVSTRATOS-268
p1397
aVSTRATOS-267
p1398
aVSTRATOS-265
p1399
aVSTRATOS-264
p1400
aVSTRATOS-263
p1401
aVSTRATOS-262
p1402
aVSTRATOS-261
p1403
aVSTRATOS-260
p1404
aVSTRATOS-259
p1405
aVSTRATOS-258
p1406
aVSTRATOS-257
p1407
aVSTRATOS-256
p1408
aVSTRATOS-255
p1409
aVSTRATOS-254
p1410
aVSTRATOS-253
p1411
aVSTRATOS-252
p1412
aVSTRATOS-251
p1413
aVSTRATOS-250
p1414
aVSTRATOS-249
p1415
aVSTRATOS-248
p1416
aVSTRATOS-247
p1417
aVSTRATOS-246
p1418
aVSTRATOS-245
p1419
aVSTRATOS-244
p1420
aVSTRATOS-243
p1421
aVSTRATOS-242
p1422
aVSTRATOS-241
p1423
aVSTRATOS-240
p1424
aVSTRATOS-239
p1425
aVSTRATOS-238
p1426
aVSTRATOS-237
p1427
aVSTRATOS-236
p1428
aVSTRATOS-235
p1429
aVSTRATOS-234
p1430
aVSTRATOS-233
p1431
aVSTRATOS-232
p1432
aVSTRATOS-231
p1433
aVSTRATOS-230
p1434
aVSTRATOS-229
p1435
aVSTRATOS-228
p1436
aVSTRATOS-227
p1437
aVSTRATOS-226
p1438
aVSTRATOS-225
p1439
aVSTRATOS-223
p1440
aVSTRATOS-222
p1441
aVSTRATOS-221
p1442
aVSTRATOS-220
p1443
aVSTRATOS-219
p1444
aVSTRATOS-218
p1445
aVSTRATOS-217
p1446
aVSTRATOS-216
p1447
aVSTRATOS-215
p1448
aVSTRATOS-214
p1449
aVSTRATOS-213
p1450
aVSTRATOS-212
p1451
aVSTRATOS-211
p1452
aVSTRATOS-210
p1453
aVSTRATOS-209
p1454
aVSTRATOS-208
p1455
aVSTRATOS-207
p1456
aVSTRATOS-206
p1457
aVSTRATOS-205
p1458
aVSTRATOS-204
p1459
aVSTRATOS-203
p1460
aVSTRATOS-202
p1461
aVSTRATOS-201
p1462
aVSTRATOS-200
p1463
aVSTRATOS-199
p1464
aVSTRATOS-198
p1465
aVSTRATOS-197
p1466
aVSTRATOS-196
p1467
aVSTRATOS-195
p1468
aVSTRATOS-194
p1469
aVSTRATOS-193
p1470
aVSTRATOS-192
p1471
aVSTRATOS-191
p1472
aVSTRATOS-190
p1473
aVSTRATOS-189
p1474
aVSTRATOS-188
p1475
aVSTRATOS-187
p1476
aVSTRATOS-186
p1477
aVSTRATOS-185
p1478
aVSTRATOS-184
p1479
aVSTRATOS-183
p1480
aVSTRATOS-182
p1481
aVSTRATOS-181
p1482
aVSTRATOS-180
p1483
aVSTRATOS-179
p1484
aVSTRATOS-178
p1485
aVSTRATOS-177
p1486
aVSTRATOS-176
p1487
aVSTRATOS-175
p1488
aVSTRATOS-174
p1489
aVSTRATOS-173
p1490
aVSTRATOS-172
p1491
aVSTRATOS-171
p1492
aVSTRATOS-170
p1493
aVSTRATOS-169
p1494
aVSTRATOS-168
p1495
aVSTRATOS-167
p1496
aVSTRATOS-166
p1497
aVSTRATOS-165
p1498
aVSTRATOS-164
p1499
aVSTRATOS-163
p1500
aVSTRATOS-162
p1501
aVSTRATOS-161
p1502
aVSTRATOS-160
p1503
aVSTRATOS-159
p1504
aVSTRATOS-158
p1505
aVSTRATOS-157
p1506
aVSTRATOS-156
p1507
aVSTRATOS-155
p1508
aVSTRATOS-154
p1509
aVSTRATOS-153
p1510
aVSTRATOS-152
p1511
aVSTRATOS-151
p1512
aVSTRATOS-150
p1513
aVSTRATOS-149
p1514
aVSTRATOS-148
p1515
aVSTRATOS-147
p1516
aVSTRATOS-146
p1517
aVSTRATOS-145
p1518
aVSTRATOS-144
p1519
aVSTRATOS-143
p1520
aVSTRATOS-142
p1521
aVSTRATOS-141
p1522
aVSTRATOS-140
p1523
aVSTRATOS-139
p1524
aVSTRATOS-138
p1525
aVSTRATOS-137
p1526
aVSTRATOS-136
p1527
aVSTRATOS-135
p1528
aVSTRATOS-134
p1529
aVSTRATOS-133
p1530
aVSTRATOS-132
p1531
aVSTRATOS-131
p1532
aVSTRATOS-130
p1533
aVSTRATOS-129
p1534
aVSTRATOS-128
p1535
aVSTRATOS-127
p1536
aVSTRATOS-126
p1537
aVSTRATOS-125
p1538
aVSTRATOS-124
p1539
aVSTRATOS-123
p1540
aVSTRATOS-122
p1541
aVSTRATOS-121
p1542
aVSTRATOS-120
p1543
aVSTRATOS-119
p1544
aVSTRATOS-118
p1545
aVSTRATOS-117
p1546
aVSTRATOS-116
p1547
aVSTRATOS-115
p1548
aVSTRATOS-114
p1549
aVSTRATOS-113
p1550
aVSTRATOS-112
p1551
aVSTRATOS-111
p1552
aVSTRATOS-110
p1553
aVSTRATOS-109
p1554
aVSTRATOS-108
p1555
aVSTRATOS-107
p1556
aVSTRATOS-106
p1557
aVSTRATOS-105
p1558
aVSTRATOS-104
p1559
aVSTRATOS-103
p1560
aVSTRATOS-102
p1561
aVSTRATOS-101
p1562
aVSTRATOS-100
p1563
aVSTRATOS-99
p1564
aVSTRATOS-98
p1565
aVSTRATOS-97
p1566
aVSTRATOS-96
p1567
aVSTRATOS-95
p1568
aVSTRATOS-94
p1569
aVSTRATOS-93
p1570
aVSTRATOS-92
p1571
aVSTRATOS-91
p1572
aVSTRATOS-90
p1573
aVSTRATOS-89
p1574
aVSTRATOS-88
p1575
aVSTRATOS-87
p1576
aVSTRATOS-86
p1577
aVSTRATOS-85
p1578
aVSTRATOS-84
p1579
aVSTRATOS-83
p1580
aVSTRATOS-82
p1581
aVSTRATOS-81
p1582
aVSTRATOS-80
p1583
aVSTRATOS-79
p1584
aVSTRATOS-78
p1585
aVSTRATOS-77
p1586
aVSTRATOS-76
p1587
aVSTRATOS-75
p1588
aVSTRATOS-74
p1589
aVSTRATOS-73
p1590
aVSTRATOS-72
p1591
aVSTRATOS-71
p1592
aVSTRATOS-70
p1593
aVSTRATOS-69
p1594
aVSTRATOS-68
p1595
aVSTRATOS-67
p1596
aVSTRATOS-66
p1597
aVSTRATOS-65
p1598
aVSTRATOS-64
p1599
aVSTRATOS-63
p1600
aVSTRATOS-62
p1601
aVSTRATOS-61
p1602
aVSTRATOS-60
p1603
aVSTRATOS-59
p1604
aVSTRATOS-58
p1605
aVSTRATOS-57
p1606
aVSTRATOS-56
p1607
aVSTRATOS-55
p1608
aVSTRATOS-54
p1609
aVSTRATOS-53
p1610
aVSTRATOS-52
p1611
aVSTRATOS-51
p1612
aVSTRATOS-50
p1613
aVSTRATOS-49
p1614
aVSTRATOS-48
p1615
aVSTRATOS-47
p1616
aVSTRATOS-46
p1617
aVSTRATOS-45
p1618
aVSTRATOS-44
p1619
aVSTRATOS-43
p1620
aVSTRATOS-42
p1621
aVSTRATOS-41
p1622
aVSTRATOS-40
p1623
aVSTRATOS-39
p1624
aVSTRATOS-38
p1625
aVSTRATOS-37
p1626
aVSTRATOS-36
p1627
aVSTRATOS-35
p1628
aVSTRATOS-34
p1629
aVSTRATOS-33
p1630
aVSTRATOS-32
p1631
aVSTRATOS-31
p1632
aVSTRATOS-30
p1633
aVSTRATOS-29
p1634
aVSTRATOS-28
p1635
aVSTRATOS-27
p1636
aVSTRATOS-26
p1637
aVSTRATOS-25
p1638
aVSTRATOS-24
p1639
aVSTRATOS-23
p1640
aVSTRATOS-22
p1641
aVSTRATOS-21
p1642
aVSTRATOS-20
p1643
aVSTRATOS-19
p1644
aVSTRATOS-18
p1645
aVSTRATOS-17
p1646
aVSTRATOS-16
p1647
aVSTRATOS-15
p1648
aVSTRATOS-14
p1649
aVSTRATOS-13
p1650
aVSTRATOS-12
p1651
aVSTRATOS-11
p1652
aVSTRATOS-10
p1653
aVSTRATOS-9
p1654
aVSTRATOS-8
p1655
aVSTRATOS-7
p1656
aVSTRATOS-6
p1657
aVSTRATOS-5
p1658
aVSTRATOS-4
p1659
aVSTRATOS-3
p1660
aVSTRATOS-2
p1661
aVSTRATOS-1
p1662
a.