(lp0
VSTREAMS-613
p1
aVSTREAMS-612
p2
aVSTREAMS-611
p3
aVSTREAMS-610
p4
aVSTREAMS-609
p5
aVSTREAMS-608
p6
aVSTREAMS-607
p7
aVSTREAMS-606
p8
aVSTREAMS-605
p9
aVSTREAMS-604
p10
aVSTREAMS-603
p11
aVSTREAMS-602
p12
aVSTREAMS-601
p13
aVSTREAMS-600
p14
aVSTREAMS-599
p15
aVSTREAMS-598
p16
aVSTREAMS-597
p17
aVSTREAMS-596
p18
aVSTREAMS-595
p19
aVSTREAMS-594
p20
aVSTREAMS-593
p21
aVSTREAMS-592
p22
aVSTREAMS-591
p23
aVSTREAMS-590
p24
aVSTREAMS-589
p25
aVSTREAMS-588
p26
aVSTREAMS-587
p27
aVSTREAMS-586
p28
aVSTREAMS-585
p29
aVSTREAMS-584
p30
aVSTREAMS-583
p31
aVSTREAMS-582
p32
aVSTREAMS-581
p33
aVSTREAMS-580
p34
aVSTREAMS-579
p35
aVSTREAMS-578
p36
aVSTREAMS-577
p37
aVSTREAMS-576
p38
aVSTREAMS-575
p39
aVSTREAMS-574
p40
aVSTREAMS-573
p41
aVSTREAMS-572
p42
aVSTREAMS-571
p43
aVSTREAMS-570
p44
aVSTREAMS-569
p45
aVSTREAMS-568
p46
aVSTREAMS-567
p47
aVSTREAMS-566
p48
aVSTREAMS-565
p49
aVSTREAMS-564
p50
aVSTREAMS-563
p51
aVSTREAMS-562
p52
aVSTREAMS-560
p53
aVSTREAMS-559
p54
aVSTREAMS-558
p55
aVSTREAMS-557
p56
aVSTREAMS-556
p57
aVSTREAMS-555
p58
aVSTREAMS-554
p59
aVSTREAMS-553
p60
aVSTREAMS-552
p61
aVSTREAMS-551
p62
aVSTREAMS-550
p63
aVSTREAMS-549
p64
aVSTREAMS-548
p65
aVSTREAMS-547
p66
aVSTREAMS-546
p67
aVSTREAMS-545
p68
aVSTREAMS-544
p69
aVSTREAMS-543
p70
aVSTREAMS-542
p71
aVSTREAMS-541
p72
aVSTREAMS-540
p73
aVSTREAMS-539
p74
aVSTREAMS-538
p75
aVSTREAMS-537
p76
aVSTREAMS-536
p77
aVSTREAMS-535
p78
aVSTREAMS-534
p79
aVSTREAMS-533
p80
aVSTREAMS-532
p81
aVSTREAMS-531
p82
aVSTREAMS-530
p83
aVSTREAMS-529
p84
aVSTREAMS-528
p85
aVSTREAMS-527
p86
aVSTREAMS-526
p87
aVSTREAMS-525
p88
aVSTREAMS-524
p89
aVSTREAMS-523
p90
aVSTREAMS-522
p91
aVSTREAMS-521
p92
aVSTREAMS-520
p93
aVSTREAMS-519
p94
aVSTREAMS-518
p95
aVSTREAMS-517
p96
aVSTREAMS-516
p97
aVSTREAMS-515
p98
aVSTREAMS-514
p99
aVSTREAMS-513
p100
aVSTREAMS-512
p101
aVSTREAMS-511
p102
aVSTREAMS-510
p103
aVSTREAMS-509
p104
aVSTREAMS-508
p105
aVSTREAMS-507
p106
aVSTREAMS-506
p107
aVSTREAMS-505
p108
aVSTREAMS-504
p109
aVSTREAMS-503
p110
aVSTREAMS-502
p111
aVSTREAMS-501
p112
aVSTREAMS-500
p113
aVSTREAMS-499
p114
aVSTREAMS-498
p115
aVSTREAMS-497
p116
aVSTREAMS-496
p117
aVSTREAMS-495
p118
aVSTREAMS-494
p119
aVSTREAMS-493
p120
aVSTREAMS-492
p121
aVSTREAMS-491
p122
aVSTREAMS-490
p123
aVSTREAMS-489
p124
aVSTREAMS-488
p125
aVSTREAMS-487
p126
aVSTREAMS-486
p127
aVSTREAMS-485
p128
aVSTREAMS-484
p129
aVSTREAMS-483
p130
aVSTREAMS-482
p131
aVSTREAMS-481
p132
aVSTREAMS-480
p133
aVSTREAMS-479
p134
aVSTREAMS-478
p135
aVSTREAMS-477
p136
aVSTREAMS-476
p137
aVSTREAMS-475
p138
aVSTREAMS-474
p139
aVSTREAMS-473
p140
aVSTREAMS-472
p141
aVSTREAMS-471
p142
aVSTREAMS-470
p143
aVSTREAMS-469
p144
aVSTREAMS-468
p145
aVSTREAMS-467
p146
aVSTREAMS-466
p147
aVSTREAMS-465
p148
aVSTREAMS-464
p149
aVSTREAMS-463
p150
aVSTREAMS-462
p151
aVSTREAMS-461
p152
aVSTREAMS-460
p153
aVSTREAMS-459
p154
aVSTREAMS-458
p155
aVSTREAMS-457
p156
aVSTREAMS-456
p157
aVSTREAMS-455
p158
aVSTREAMS-454
p159
aVSTREAMS-453
p160
aVSTREAMS-452
p161
aVSTREAMS-451
p162
aVSTREAMS-450
p163
aVSTREAMS-449
p164
aVSTREAMS-448
p165
aVSTREAMS-447
p166
aVSTREAMS-446
p167
aVSTREAMS-445
p168
aVSTREAMS-444
p169
aVSTREAMS-443
p170
aVSTREAMS-442
p171
aVSTREAMS-441
p172
aVSTREAMS-440
p173
aVSTREAMS-439
p174
aVSTREAMS-438
p175
aVSTREAMS-437
p176
aVSTREAMS-436
p177
aVSTREAMS-435
p178
aVSTREAMS-434
p179
aVSTREAMS-433
p180
aVSTREAMS-432
p181
aVSTREAMS-431
p182
aVSTREAMS-430
p183
aVSTREAMS-429
p184
aVSTREAMS-428
p185
aVSTREAMS-427
p186
aVSTREAMS-426
p187
aVSTREAMS-425
p188
aVSTREAMS-424
p189
aVSTREAMS-423
p190
aVSTREAMS-422
p191
aVSTREAMS-421
p192
aVSTREAMS-420
p193
aVSTREAMS-419
p194
aVSTREAMS-418
p195
aVSTREAMS-417
p196
aVSTREAMS-416
p197
aVSTREAMS-415
p198
aVSTREAMS-414
p199
aVSTREAMS-413
p200
aVSTREAMS-412
p201
aVSTREAMS-411
p202
aVSTREAMS-410
p203
aVSTREAMS-409
p204
aVSTREAMS-408
p205
aVSTREAMS-407
p206
aVSTREAMS-406
p207
aVSTREAMS-405
p208
aVSTREAMS-404
p209
aVSTREAMS-403
p210
aVSTREAMS-402
p211
aVSTREAMS-401
p212
aVSTREAMS-400
p213
aVSTREAMS-399
p214
aVSTREAMS-398
p215
aVSTREAMS-397
p216
aVSTREAMS-396
p217
aVSTREAMS-395
p218
aVSTREAMS-394
p219
aVSTREAMS-393
p220
aVSTREAMS-392
p221
aVSTREAMS-391
p222
aVSTREAMS-390
p223
aVSTREAMS-389
p224
aVSTREAMS-388
p225
aVSTREAMS-387
p226
aVSTREAMS-386
p227
aVSTREAMS-385
p228
aVSTREAMS-384
p229
aVSTREAMS-383
p230
aVSTREAMS-382
p231
aVSTREAMS-381
p232
aVSTREAMS-380
p233
aVSTREAMS-379
p234
aVSTREAMS-378
p235
aVSTREAMS-377
p236
aVSTREAMS-376
p237
aVSTREAMS-375
p238
aVSTREAMS-374
p239
aVSTREAMS-373
p240
aVSTREAMS-372
p241
aVSTREAMS-371
p242
aVSTREAMS-370
p243
aVSTREAMS-369
p244
aVSTREAMS-368
p245
aVSTREAMS-367
p246
aVSTREAMS-366
p247
aVSTREAMS-365
p248
aVSTREAMS-364
p249
aVSTREAMS-363
p250
aVSTREAMS-362
p251
aVSTREAMS-361
p252
aVSTREAMS-360
p253
aVSTREAMS-359
p254
aVSTREAMS-358
p255
aVSTREAMS-357
p256
aVSTREAMS-356
p257
aVSTREAMS-355
p258
aVSTREAMS-354
p259
aVSTREAMS-353
p260
aVSTREAMS-352
p261
aVSTREAMS-351
p262
aVSTREAMS-350
p263
aVSTREAMS-349
p264
aVSTREAMS-348
p265
aVSTREAMS-347
p266
aVSTREAMS-346
p267
aVSTREAMS-345
p268
aVSTREAMS-344
p269
aVSTREAMS-343
p270
aVSTREAMS-342
p271
aVSTREAMS-341
p272
aVSTREAMS-340
p273
aVSTREAMS-339
p274
aVSTREAMS-338
p275
aVSTREAMS-337
p276
aVSTREAMS-336
p277
aVSTREAMS-335
p278
aVSTREAMS-334
p279
aVSTREAMS-333
p280
aVSTREAMS-332
p281
aVSTREAMS-331
p282
aVSTREAMS-330
p283
aVSTREAMS-329
p284
aVSTREAMS-328
p285
aVSTREAMS-327
p286
aVSTREAMS-326
p287
aVSTREAMS-325
p288
aVSTREAMS-324
p289
aVSTREAMS-323
p290
aVSTREAMS-322
p291
aVSTREAMS-321
p292
aVSTREAMS-320
p293
aVSTREAMS-319
p294
aVSTREAMS-318
p295
aVSTREAMS-317
p296
aVSTREAMS-316
p297
aVSTREAMS-315
p298
aVSTREAMS-314
p299
aVSTREAMS-313
p300
aVSTREAMS-312
p301
aVSTREAMS-311
p302
aVSTREAMS-310
p303
aVSTREAMS-309
p304
aVSTREAMS-308
p305
aVSTREAMS-307
p306
aVSTREAMS-306
p307
aVSTREAMS-305
p308
aVSTREAMS-304
p309
aVSTREAMS-303
p310
aVSTREAMS-302
p311
aVSTREAMS-301
p312
aVSTREAMS-300
p313
aVSTREAMS-299
p314
aVSTREAMS-298
p315
aVSTREAMS-297
p316
aVSTREAMS-296
p317
aVSTREAMS-295
p318
aVSTREAMS-294
p319
aVSTREAMS-293
p320
aVSTREAMS-292
p321
aVSTREAMS-291
p322
aVSTREAMS-290
p323
aVSTREAMS-289
p324
aVSTREAMS-288
p325
aVSTREAMS-287
p326
aVSTREAMS-286
p327
aVSTREAMS-285
p328
aVSTREAMS-284
p329
aVSTREAMS-283
p330
aVSTREAMS-282
p331
aVSTREAMS-281
p332
aVSTREAMS-280
p333
aVSTREAMS-279
p334
aVSTREAMS-278
p335
aVSTREAMS-277
p336
aVSTREAMS-276
p337
aVSTREAMS-275
p338
aVSTREAMS-274
p339
aVSTREAMS-273
p340
aVSTREAMS-272
p341
aVSTREAMS-271
p342
aVSTREAMS-270
p343
aVSTREAMS-269
p344
aVSTREAMS-268
p345
aVSTREAMS-267
p346
aVSTREAMS-266
p347
aVSTREAMS-265
p348
aVSTREAMS-264
p349
aVSTREAMS-263
p350
aVSTREAMS-262
p351
aVSTREAMS-261
p352
aVSTREAMS-260
p353
aVSTREAMS-259
p354
aVSTREAMS-258
p355
aVSTREAMS-257
p356
aVSTREAMS-256
p357
aVSTREAMS-255
p358
aVSTREAMS-254
p359
aVSTREAMS-253
p360
aVSTREAMS-252
p361
aVSTREAMS-251
p362
aVSTREAMS-250
p363
aVSTREAMS-249
p364
aVSTREAMS-248
p365
aVSTREAMS-247
p366
aVSTREAMS-246
p367
aVSTREAMS-245
p368
aVSTREAMS-244
p369
aVSTREAMS-243
p370
aVSTREAMS-242
p371
aVSTREAMS-241
p372
aVSTREAMS-240
p373
aVSTREAMS-239
p374
aVSTREAMS-238
p375
aVSTREAMS-237
p376
aVSTREAMS-236
p377
aVSTREAMS-235
p378
aVSTREAMS-234
p379
aVSTREAMS-233
p380
aVSTREAMS-232
p381
aVSTREAMS-231
p382
aVSTREAMS-230
p383
aVSTREAMS-229
p384
aVSTREAMS-228
p385
aVSTREAMS-227
p386
aVSTREAMS-226
p387
aVSTREAMS-225
p388
aVSTREAMS-224
p389
aVSTREAMS-223
p390
aVSTREAMS-222
p391
aVSTREAMS-221
p392
aVSTREAMS-220
p393
aVSTREAMS-219
p394
aVSTREAMS-218
p395
aVSTREAMS-217
p396
aVSTREAMS-216
p397
aVSTREAMS-215
p398
aVSTREAMS-214
p399
aVSTREAMS-213
p400
aVSTREAMS-212
p401
aVSTREAMS-211
p402
aVSTREAMS-210
p403
aVSTREAMS-209
p404
aVSTREAMS-208
p405
aVSTREAMS-207
p406
aVSTREAMS-206
p407
aVSTREAMS-205
p408
aVSTREAMS-204
p409
aVSTREAMS-203
p410
aVSTREAMS-202
p411
aVSTREAMS-201
p412
aVSTREAMS-200
p413
aVSTREAMS-199
p414
aVSTREAMS-198
p415
aVSTREAMS-197
p416
aVSTREAMS-196
p417
aVSTREAMS-195
p418
aVSTREAMS-194
p419
aVSTREAMS-193
p420
aVSTREAMS-192
p421
aVSTREAMS-191
p422
aVSTREAMS-190
p423
aVSTREAMS-189
p424
aVSTREAMS-188
p425
aVSTREAMS-187
p426
aVSTREAMS-186
p427
aVSTREAMS-185
p428
aVSTREAMS-184
p429
aVSTREAMS-183
p430
aVSTREAMS-182
p431
aVSTREAMS-181
p432
aVSTREAMS-180
p433
aVSTREAMS-179
p434
aVSTREAMS-178
p435
aVSTREAMS-177
p436
aVSTREAMS-176
p437
aVSTREAMS-175
p438
aVSTREAMS-174
p439
aVSTREAMS-173
p440
aVSTREAMS-172
p441
aVSTREAMS-171
p442
aVSTREAMS-170
p443
aVSTREAMS-169
p444
aVSTREAMS-168
p445
aVSTREAMS-167
p446
aVSTREAMS-166
p447
aVSTREAMS-165
p448
aVSTREAMS-164
p449
aVSTREAMS-163
p450
aVSTREAMS-162
p451
aVSTREAMS-161
p452
aVSTREAMS-160
p453
aVSTREAMS-159
p454
aVSTREAMS-158
p455
aVSTREAMS-157
p456
aVSTREAMS-156
p457
aVSTREAMS-155
p458
aVSTREAMS-154
p459
aVSTREAMS-153
p460
aVSTREAMS-152
p461
aVSTREAMS-151
p462
aVSTREAMS-150
p463
aVSTREAMS-149
p464
aVSTREAMS-148
p465
aVSTREAMS-147
p466
aVSTREAMS-146
p467
aVSTREAMS-145
p468
aVSTREAMS-144
p469
aVSTREAMS-143
p470
aVSTREAMS-142
p471
aVSTREAMS-141
p472
aVSTREAMS-140
p473
aVSTREAMS-139
p474
aVSTREAMS-138
p475
aVSTREAMS-137
p476
aVSTREAMS-136
p477
aVSTREAMS-135
p478
aVSTREAMS-134
p479
aVSTREAMS-133
p480
aVSTREAMS-132
p481
aVSTREAMS-131
p482
aVSTREAMS-130
p483
aVSTREAMS-129
p484
aVSTREAMS-128
p485
aVSTREAMS-127
p486
aVSTREAMS-126
p487
aVSTREAMS-125
p488
aVSTREAMS-124
p489
aVSTREAMS-123
p490
aVSTREAMS-122
p491
aVSTREAMS-121
p492
aVSTREAMS-120
p493
aVSTREAMS-119
p494
aVSTREAMS-118
p495
aVSTREAMS-117
p496
aVSTREAMS-116
p497
aVSTREAMS-115
p498
aVSTREAMS-114
p499
aVSTREAMS-113
p500
aVSTREAMS-112
p501
aVSTREAMS-111
p502
aVSTREAMS-110
p503
aVSTREAMS-109
p504
aVSTREAMS-108
p505
aVSTREAMS-107
p506
aVSTREAMS-106
p507
aVSTREAMS-105
p508
aVSTREAMS-104
p509
aVSTREAMS-103
p510
aVSTREAMS-102
p511
aVSTREAMS-101
p512
aVSTREAMS-100
p513
aVSTREAMS-99
p514
aVSTREAMS-98
p515
aVSTREAMS-97
p516
aVSTREAMS-96
p517
aVSTREAMS-95
p518
aVSTREAMS-94
p519
aVSTREAMS-93
p520
aVSTREAMS-92
p521
aVSTREAMS-91
p522
aVSTREAMS-90
p523
aVSTREAMS-89
p524
aVSTREAMS-88
p525
aVSTREAMS-87
p526
aVSTREAMS-86
p527
aVSTREAMS-85
p528
aVSTREAMS-84
p529
aVSTREAMS-83
p530
aVSTREAMS-82
p531
aVSTREAMS-81
p532
aVSTREAMS-80
p533
aVSTREAMS-79
p534
aVSTREAMS-78
p535
aVSTREAMS-77
p536
aVSTREAMS-76
p537
aVSTREAMS-75
p538
aVSTREAMS-74
p539
aVSTREAMS-73
p540
aVSTREAMS-72
p541
aVSTREAMS-71
p542
aVSTREAMS-70
p543
aVSTREAMS-69
p544
aVSTREAMS-68
p545
aVSTREAMS-67
p546
aVSTREAMS-66
p547
aVSTREAMS-65
p548
aVSTREAMS-64
p549
aVSTREAMS-63
p550
aVSTREAMS-62
p551
aVSTREAMS-61
p552
aVSTREAMS-60
p553
aVSTREAMS-59
p554
aVSTREAMS-58
p555
aVSTREAMS-57
p556
aVSTREAMS-56
p557
aVSTREAMS-55
p558
aVSTREAMS-54
p559
aVSTREAMS-53
p560
aVSTREAMS-52
p561
aVSTREAMS-51
p562
aVSTREAMS-50
p563
aVSTREAMS-49
p564
aVSTREAMS-48
p565
aVSTREAMS-47
p566
aVSTREAMS-46
p567
aVSTREAMS-45
p568
aVSTREAMS-44
p569
aVSTREAMS-43
p570
aVSTREAMS-42
p571
aVSTREAMS-41
p572
aVSTREAMS-40
p573
aVSTREAMS-39
p574
aVSTREAMS-38
p575
aVSTREAMS-37
p576
aVSTREAMS-36
p577
aVSTREAMS-35
p578
aVSTREAMS-34
p579
aVSTREAMS-33
p580
aVSTREAMS-32
p581
aVSTREAMS-31
p582
aVSTREAMS-30
p583
aVSTREAMS-29
p584
aVSTREAMS-28
p585
aVSTREAMS-27
p586
aVSTREAMS-26
p587
aVSTREAMS-25
p588
aVSTREAMS-24
p589
aVSTREAMS-23
p590
aVSTREAMS-22
p591
aVSTREAMS-21
p592
aVSTREAMS-20
p593
aVSTREAMS-19
p594
aVSTREAMS-18
p595
aVSTREAMS-17
p596
aVSTREAMS-16
p597
aVSTREAMS-15
p598
aVSTREAMS-14
p599
aVSTREAMS-13
p600
aVSTREAMS-12
p601
aVSTREAMS-11
p602
aVSTREAMS-10
p603
aVSTREAMS-9
p604
aVSTREAMS-8
p605
aVSTREAMS-7
p606
aVSTREAMS-6
p607
aVSTREAMS-5
p608
aVSTREAMS-4
p609
aVSTREAMS-3
p610
aVSTREAMS-2
p611
aVSTREAMS-1
p612
a.