(lp0
VSUREFIRE-1547
p1
aVSUREFIRE-1546
p2
aVSUREFIRE-1545
p3
aVSUREFIRE-1544
p4
aVSUREFIRE-1543
p5
aVSUREFIRE-1542
p6
aVSUREFIRE-1541
p7
aVSUREFIRE-1540
p8
aVSUREFIRE-1539
p9
aVSUREFIRE-1538
p10
aVSUREFIRE-1537
p11
aVSUREFIRE-1536
p12
aVSUREFIRE-1535
p13
aVSUREFIRE-1534
p14
aVSUREFIRE-1533
p15
aVSUREFIRE-1532
p16
aVSUREFIRE-1531
p17
aVSUREFIRE-1530
p18
aVSUREFIRE-1529
p19
aVSUREFIRE-1528
p20
aVSUREFIRE-1527
p21
aVSUREFIRE-1526
p22
aVSUREFIRE-1525
p23
aVSUREFIRE-1524
p24
aVSUREFIRE-1523
p25
aVSUREFIRE-1522
p26
aVSUREFIRE-1521
p27
aVSUREFIRE-1520
p28
aVSUREFIRE-1519
p29
aVSUREFIRE-1518
p30
aVSUREFIRE-1517
p31
aVSUREFIRE-1516
p32
aVSUREFIRE-1515
p33
aVSUREFIRE-1514
p34
aVSUREFIRE-1513
p35
aVSUREFIRE-1512
p36
aVSUREFIRE-1511
p37
aVSUREFIRE-1510
p38
aVSUREFIRE-1509
p39
aVSUREFIRE-1508
p40
aVSUREFIRE-1507
p41
aVSUREFIRE-1506
p42
aVSUREFIRE-1505
p43
aVSUREFIRE-1504
p44
aVSUREFIRE-1503
p45
aVSUREFIRE-1502
p46
aVSUREFIRE-1501
p47
aVSUREFIRE-1500
p48
aVSUREFIRE-1499
p49
aVSUREFIRE-1498
p50
aVSUREFIRE-1497
p51
aVSUREFIRE-1496
p52
aVSUREFIRE-1495
p53
aVSUREFIRE-1494
p54
aVSUREFIRE-1493
p55
aVSUREFIRE-1492
p56
aVSUREFIRE-1491
p57
aVSUREFIRE-1490
p58
aVSUREFIRE-1489
p59
aVSUREFIRE-1488
p60
aVSUREFIRE-1487
p61
aVSUREFIRE-1486
p62
aVSUREFIRE-1485
p63
aVSUREFIRE-1484
p64
aVSUREFIRE-1483
p65
aVSUREFIRE-1482
p66
aVSUREFIRE-1481
p67
aVSUREFIRE-1480
p68
aVSUREFIRE-1479
p69
aVSUREFIRE-1478
p70
aVSUREFIRE-1477
p71
aVSUREFIRE-1476
p72
aVSUREFIRE-1475
p73
aVSUREFIRE-1474
p74
aVSUREFIRE-1473
p75
aVSUREFIRE-1472
p76
aVSUREFIRE-1471
p77
aVSUREFIRE-1470
p78
aVSUREFIRE-1469
p79
aVSUREFIRE-1468
p80
aVSUREFIRE-1467
p81
aVSUREFIRE-1466
p82
aVSUREFIRE-1465
p83
aVSUREFIRE-1464
p84
aVSUREFIRE-1463
p85
aVSUREFIRE-1462
p86
aVSUREFIRE-1461
p87
aVSUREFIRE-1460
p88
aVSUREFIRE-1459
p89
aVSUREFIRE-1458
p90
aVSUREFIRE-1457
p91
aVSUREFIRE-1455
p92
aVSUREFIRE-1454
p93
aVSUREFIRE-1453
p94
aVSUREFIRE-1452
p95
aVSUREFIRE-1451
p96
aVSUREFIRE-1450
p97
aVSUREFIRE-1449
p98
aVSUREFIRE-1448
p99
aVSUREFIRE-1447
p100
aVSUREFIRE-1446
p101
aVSUREFIRE-1445
p102
aVSUREFIRE-1444
p103
aVSUREFIRE-1443
p104
aVSUREFIRE-1442
p105
aVSUREFIRE-1441
p106
aVSUREFIRE-1440
p107
aVSUREFIRE-1439
p108
aVSUREFIRE-1438
p109
aVSUREFIRE-1437
p110
aVSUREFIRE-1436
p111
aVSUREFIRE-1435
p112
aVSUREFIRE-1434
p113
aVSUREFIRE-1433
p114
aVSUREFIRE-1432
p115
aVSUREFIRE-1431
p116
aVSUREFIRE-1430
p117
aVSUREFIRE-1429
p118
aVSUREFIRE-1428
p119
aVSUREFIRE-1427
p120
aVSUREFIRE-1426
p121
aVSUREFIRE-1425
p122
aVSUREFIRE-1424
p123
aVSUREFIRE-1423
p124
aVSUREFIRE-1422
p125
aVSUREFIRE-1421
p126
aVSUREFIRE-1420
p127
aVSUREFIRE-1419
p128
aVSUREFIRE-1418
p129
aVSUREFIRE-1416
p130
aVSUREFIRE-1415
p131
aVSUREFIRE-1414
p132
aVSUREFIRE-1413
p133
aVSUREFIRE-1412
p134
aVSUREFIRE-1411
p135
aVSUREFIRE-1410
p136
aVSUREFIRE-1409
p137
aVSUREFIRE-1408
p138
aVSUREFIRE-1407
p139
aVSUREFIRE-1406
p140
aVSUREFIRE-1405
p141
aVSUREFIRE-1404
p142
aVSUREFIRE-1403
p143
aVSUREFIRE-1402
p144
aVSUREFIRE-1401
p145
aVSUREFIRE-1400
p146
aVSUREFIRE-1399
p147
aVSUREFIRE-1398
p148
aVSUREFIRE-1397
p149
aVSUREFIRE-1396
p150
aVSUREFIRE-1395
p151
aVSUREFIRE-1394
p152
aVSUREFIRE-1393
p153
aVSUREFIRE-1392
p154
aVSUREFIRE-1391
p155
aVSUREFIRE-1390
p156
aVSUREFIRE-1389
p157
aVSUREFIRE-1388
p158
aVSUREFIRE-1387
p159
aVSUREFIRE-1386
p160
aVSUREFIRE-1385
p161
aVSUREFIRE-1384
p162
aVSUREFIRE-1383
p163
aVSUREFIRE-1382
p164
aVSUREFIRE-1381
p165
aVSUREFIRE-1380
p166
aVSUREFIRE-1379
p167
aVSUREFIRE-1378
p168
aVSUREFIRE-1377
p169
aVSUREFIRE-1376
p170
aVSUREFIRE-1375
p171
aVSUREFIRE-1374
p172
aVSUREFIRE-1373
p173
aVSUREFIRE-1372
p174
aVSUREFIRE-1371
p175
aVSUREFIRE-1370
p176
aVSUREFIRE-1369
p177
aVSUREFIRE-1368
p178
aVSUREFIRE-1367
p179
aVSUREFIRE-1366
p180
aVSUREFIRE-1365
p181
aVSUREFIRE-1364
p182
aVSUREFIRE-1363
p183
aVSUREFIRE-1362
p184
aVSUREFIRE-1361
p185
aVSUREFIRE-1360
p186
aVSUREFIRE-1359
p187
aVSUREFIRE-1358
p188
aVSUREFIRE-1357
p189
aVSUREFIRE-1356
p190
aVSUREFIRE-1355
p191
aVSUREFIRE-1354
p192
aVSUREFIRE-1353
p193
aVSUREFIRE-1352
p194
aVSUREFIRE-1351
p195
aVSUREFIRE-1350
p196
aVSUREFIRE-1349
p197
aVSUREFIRE-1348
p198
aVSUREFIRE-1347
p199
aVSUREFIRE-1346
p200
aVSUREFIRE-1345
p201
aVSUREFIRE-1344
p202
aVSUREFIRE-1343
p203
aVSUREFIRE-1342
p204
aVSUREFIRE-1341
p205
aVSUREFIRE-1340
p206
aVSUREFIRE-1339
p207
aVSUREFIRE-1338
p208
aVSUREFIRE-1337
p209
aVSUREFIRE-1336
p210
aVSUREFIRE-1335
p211
aVSUREFIRE-1334
p212
aVSUREFIRE-1333
p213
aVSUREFIRE-1332
p214
aVSUREFIRE-1331
p215
aVSUREFIRE-1330
p216
aVSUREFIRE-1329
p217
aVSUREFIRE-1328
p218
aVSUREFIRE-1327
p219
aVSUREFIRE-1326
p220
aVSUREFIRE-1325
p221
aVSUREFIRE-1324
p222
aVSUREFIRE-1323
p223
aVSUREFIRE-1322
p224
aVSUREFIRE-1321
p225
aVSUREFIRE-1320
p226
aVSUREFIRE-1319
p227
aVSUREFIRE-1318
p228
aVSUREFIRE-1317
p229
aVSUREFIRE-1316
p230
aVSUREFIRE-1315
p231
aVSUREFIRE-1314
p232
aVSUREFIRE-1313
p233
aVSUREFIRE-1312
p234
aVSUREFIRE-1311
p235
aVSUREFIRE-1310
p236
aVSUREFIRE-1309
p237
aVSUREFIRE-1308
p238
aVSUREFIRE-1307
p239
aVSUREFIRE-1306
p240
aVSUREFIRE-1305
p241
aVSUREFIRE-1304
p242
aVSUREFIRE-1303
p243
aVSUREFIRE-1302
p244
aVSUREFIRE-1301
p245
aVSUREFIRE-1300
p246
aVSUREFIRE-1299
p247
aVSUREFIRE-1298
p248
aVSUREFIRE-1297
p249
aVSUREFIRE-1296
p250
aVSUREFIRE-1295
p251
aVSUREFIRE-1294
p252
aVSUREFIRE-1293
p253
aVSUREFIRE-1292
p254
aVSUREFIRE-1291
p255
aVSUREFIRE-1290
p256
aVSUREFIRE-1289
p257
aVSUREFIRE-1288
p258
aVSUREFIRE-1287
p259
aVSUREFIRE-1286
p260
aVSUREFIRE-1285
p261
aVSUREFIRE-1284
p262
aVSUREFIRE-1283
p263
aVSUREFIRE-1282
p264
aVSUREFIRE-1281
p265
aVSUREFIRE-1280
p266
aVSUREFIRE-1279
p267
aVSUREFIRE-1278
p268
aVSUREFIRE-1277
p269
aVSUREFIRE-1276
p270
aVSUREFIRE-1275
p271
aVSUREFIRE-1274
p272
aVSUREFIRE-1273
p273
aVSUREFIRE-1272
p274
aVSUREFIRE-1271
p275
aVSUREFIRE-1270
p276
aVSUREFIRE-1269
p277
aVSUREFIRE-1268
p278
aVSUREFIRE-1267
p279
aVSUREFIRE-1266
p280
aVSUREFIRE-1265
p281
aVSUREFIRE-1264
p282
aVSUREFIRE-1263
p283
aVSUREFIRE-1262
p284
aVSUREFIRE-1261
p285
aVSUREFIRE-1260
p286
aVSUREFIRE-1259
p287
aVSUREFIRE-1258
p288
aVSUREFIRE-1257
p289
aVSUREFIRE-1256
p290
aVSUREFIRE-1255
p291
aVSUREFIRE-1254
p292
aVSUREFIRE-1253
p293
aVSUREFIRE-1252
p294
aVSUREFIRE-1251
p295
aVSUREFIRE-1250
p296
aVSUREFIRE-1249
p297
aVSUREFIRE-1248
p298
aVSUREFIRE-1247
p299
aVSUREFIRE-1246
p300
aVSUREFIRE-1245
p301
aVSUREFIRE-1244
p302
aVSUREFIRE-1243
p303
aVSUREFIRE-1242
p304
aVSUREFIRE-1241
p305
aVSUREFIRE-1240
p306
aVSUREFIRE-1239
p307
aVSUREFIRE-1238
p308
aVSUREFIRE-1237
p309
aVSUREFIRE-1236
p310
aVSUREFIRE-1235
p311
aVSUREFIRE-1234
p312
aVSUREFIRE-1233
p313
aVSUREFIRE-1232
p314
aVSUREFIRE-1231
p315
aVSUREFIRE-1230
p316
aVSUREFIRE-1229
p317
aVSUREFIRE-1228
p318
aVSUREFIRE-1227
p319
aVSUREFIRE-1226
p320
aVSUREFIRE-1225
p321
aVSUREFIRE-1224
p322
aVSUREFIRE-1223
p323
aVSUREFIRE-1222
p324
aVSUREFIRE-1221
p325
aVSUREFIRE-1220
p326
aVSUREFIRE-1219
p327
aVSUREFIRE-1218
p328
aVSUREFIRE-1217
p329
aVSUREFIRE-1216
p330
aVSUREFIRE-1215
p331
aVSUREFIRE-1214
p332
aVSUREFIRE-1213
p333
aVSUREFIRE-1212
p334
aVSUREFIRE-1211
p335
aVSUREFIRE-1210
p336
aVSUREFIRE-1209
p337
aVSUREFIRE-1208
p338
aVSUREFIRE-1207
p339
aVSUREFIRE-1206
p340
aVSUREFIRE-1205
p341
aVSUREFIRE-1204
p342
aVSUREFIRE-1203
p343
aVSUREFIRE-1202
p344
aVSUREFIRE-1201
p345
aVSUREFIRE-1200
p346
aVSUREFIRE-1199
p347
aVSUREFIRE-1198
p348
aVSUREFIRE-1197
p349
aVSUREFIRE-1196
p350
aVSUREFIRE-1195
p351
aVSUREFIRE-1194
p352
aVSUREFIRE-1193
p353
aVSUREFIRE-1192
p354
aVSUREFIRE-1191
p355
aVSUREFIRE-1190
p356
aVSUREFIRE-1189
p357
aVSUREFIRE-1188
p358
aVSUREFIRE-1187
p359
aVSUREFIRE-1186
p360
aVSUREFIRE-1185
p361
aVSUREFIRE-1184
p362
aVSUREFIRE-1183
p363
aVSUREFIRE-1182
p364
aVSUREFIRE-1181
p365
aVSUREFIRE-1180
p366
aVSUREFIRE-1179
p367
aVSUREFIRE-1178
p368
aVSUREFIRE-1177
p369
aVSUREFIRE-1176
p370
aVSUREFIRE-1175
p371
aVSUREFIRE-1174
p372
aVSUREFIRE-1173
p373
aVSUREFIRE-1172
p374
aVSUREFIRE-1171
p375
aVSUREFIRE-1170
p376
aVSUREFIRE-1169
p377
aVSUREFIRE-1168
p378
aVSUREFIRE-1167
p379
aVSUREFIRE-1166
p380
aVSUREFIRE-1165
p381
aVSUREFIRE-1164
p382
aVSUREFIRE-1163
p383
aVSUREFIRE-1162
p384
aVSUREFIRE-1161
p385
aVSUREFIRE-1160
p386
aVSUREFIRE-1159
p387
aVSUREFIRE-1158
p388
aVSUREFIRE-1157
p389
aVSUREFIRE-1156
p390
aVSUREFIRE-1155
p391
aVSUREFIRE-1154
p392
aVSUREFIRE-1153
p393
aVSUREFIRE-1152
p394
aVSUREFIRE-1151
p395
aVSUREFIRE-1150
p396
aVSUREFIRE-1149
p397
aVSUREFIRE-1148
p398
aVSUREFIRE-1147
p399
aVSUREFIRE-1146
p400
aVSUREFIRE-1145
p401
aVSUREFIRE-1144
p402
aVSUREFIRE-1143
p403
aVSUREFIRE-1142
p404
aVSUREFIRE-1140
p405
aVSUREFIRE-1139
p406
aVSUREFIRE-1138
p407
aVSUREFIRE-1137
p408
aVSUREFIRE-1136
p409
aVSUREFIRE-1135
p410
aVSUREFIRE-1134
p411
aVSUREFIRE-1133
p412
aVSUREFIRE-1132
p413
aVSUREFIRE-1131
p414
aVSUREFIRE-1130
p415
aVSUREFIRE-1129
p416
aVSUREFIRE-1128
p417
aVSUREFIRE-1127
p418
aVSUREFIRE-1126
p419
aVSUREFIRE-1125
p420
aVSUREFIRE-1124
p421
aVSUREFIRE-1123
p422
aVSUREFIRE-1122
p423
aVSUREFIRE-1121
p424
aVSUREFIRE-1120
p425
aVSUREFIRE-1119
p426
aVSUREFIRE-1118
p427
aVSUREFIRE-1117
p428
aVSUREFIRE-1116
p429
aVSUREFIRE-1115
p430
aVSUREFIRE-1114
p431
aVSUREFIRE-1113
p432
aVSUREFIRE-1112
p433
aVSUREFIRE-1111
p434
aVSUREFIRE-1110
p435
aVSUREFIRE-1109
p436
aVSUREFIRE-1108
p437
aVSUREFIRE-1107
p438
aVSUREFIRE-1106
p439
aVSUREFIRE-1105
p440
aVSUREFIRE-1104
p441
aVSUREFIRE-1103
p442
aVSUREFIRE-1102
p443
aVSUREFIRE-1101
p444
aVSUREFIRE-1100
p445
aVSUREFIRE-1099
p446
aVSUREFIRE-1098
p447
aVSUREFIRE-1097
p448
aVSUREFIRE-1096
p449
aVSUREFIRE-1095
p450
aVSUREFIRE-1094
p451
aVSUREFIRE-1093
p452
aVSUREFIRE-1092
p453
aVSUREFIRE-1091
p454
aVSUREFIRE-1090
p455
aVSUREFIRE-1089
p456
aVSUREFIRE-1088
p457
aVSUREFIRE-1087
p458
aVSUREFIRE-1086
p459
aVSUREFIRE-1085
p460
aVSUREFIRE-1084
p461
aVSUREFIRE-1083
p462
aVSUREFIRE-1082
p463
aVSUREFIRE-1081
p464
aVSUREFIRE-1080
p465
aVSUREFIRE-1079
p466
aVSUREFIRE-1078
p467
aVSUREFIRE-1077
p468
aVSUREFIRE-1076
p469
aVSUREFIRE-1075
p470
aVSUREFIRE-1074
p471
aVSUREFIRE-1073
p472
aVSUREFIRE-1072
p473
aVSUREFIRE-1070
p474
aVSUREFIRE-1069
p475
aVSUREFIRE-1068
p476
aVSUREFIRE-1067
p477
aVSUREFIRE-1066
p478
aVSUREFIRE-1065
p479
aVSUREFIRE-1064
p480
aVSUREFIRE-1063
p481
aVSUREFIRE-1062
p482
aVSUREFIRE-1061
p483
aVSUREFIRE-1060
p484
aVSUREFIRE-1059
p485
aVSUREFIRE-1058
p486
aVSUREFIRE-1057
p487
aVSUREFIRE-1056
p488
aVSUREFIRE-1055
p489
aVSUREFIRE-1054
p490
aVSUREFIRE-1053
p491
aVSUREFIRE-1052
p492
aVSUREFIRE-1051
p493
aVSUREFIRE-1050
p494
aVSUREFIRE-1049
p495
aVSUREFIRE-1048
p496
aVSUREFIRE-1047
p497
aVSUREFIRE-1046
p498
aVSUREFIRE-1045
p499
aVSUREFIRE-1044
p500
aVSUREFIRE-1043
p501
aVSUREFIRE-1042
p502
aVSUREFIRE-1041
p503
aVSUREFIRE-1040
p504
aVSUREFIRE-1039
p505
aVSUREFIRE-1038
p506
aVSUREFIRE-1037
p507
aVSUREFIRE-1036
p508
aVSUREFIRE-1035
p509
aVSUREFIRE-1034
p510
aVSUREFIRE-1033
p511
aVSUREFIRE-1032
p512
aVSUREFIRE-1031
p513
aVSUREFIRE-1030
p514
aVSUREFIRE-1029
p515
aVSUREFIRE-1028
p516
aVSUREFIRE-1027
p517
aVSUREFIRE-1026
p518
aVSUREFIRE-1025
p519
aVSUREFIRE-1024
p520
aVSUREFIRE-1023
p521
aVSUREFIRE-1022
p522
aVSUREFIRE-1021
p523
aVSUREFIRE-1020
p524
aVSUREFIRE-1019
p525
aVSUREFIRE-1018
p526
aVSUREFIRE-1017
p527
aVSUREFIRE-1016
p528
aVSUREFIRE-1015
p529
aVSUREFIRE-1014
p530
aVSUREFIRE-1013
p531
aVSUREFIRE-1012
p532
aVSUREFIRE-1011
p533
aVSUREFIRE-1010
p534
aVSUREFIRE-1009
p535
aVSUREFIRE-1008
p536
aVSUREFIRE-1007
p537
aVSUREFIRE-1006
p538
aVSUREFIRE-1005
p539
aVSUREFIRE-1004
p540
aVSUREFIRE-1003
p541
aVSUREFIRE-1002
p542
aVSUREFIRE-1001
p543
aVSUREFIRE-1000
p544
aVSUREFIRE-999
p545
aVSUREFIRE-998
p546
aVSUREFIRE-997
p547
aVSUREFIRE-996
p548
aVSUREFIRE-995
p549
aVSUREFIRE-994
p550
aVSUREFIRE-993
p551
aVSUREFIRE-992
p552
aVSUREFIRE-991
p553
aVSUREFIRE-990
p554
aVSUREFIRE-989
p555
aVSUREFIRE-988
p556
aVSUREFIRE-987
p557
aVSUREFIRE-986
p558
aVSUREFIRE-985
p559
aVSUREFIRE-984
p560
aVSUREFIRE-983
p561
aVSUREFIRE-982
p562
aVSUREFIRE-981
p563
aVSUREFIRE-980
p564
aVSUREFIRE-979
p565
aVSUREFIRE-978
p566
aVSUREFIRE-977
p567
aVSUREFIRE-976
p568
aVSUREFIRE-975
p569
aVSUREFIRE-974
p570
aVSUREFIRE-973
p571
aVSUREFIRE-972
p572
aVSUREFIRE-971
p573
aVSUREFIRE-970
p574
aVSUREFIRE-969
p575
aVSUREFIRE-968
p576
aVSUREFIRE-967
p577
aVSUREFIRE-966
p578
aVSUREFIRE-965
p579
aVSUREFIRE-964
p580
aVSUREFIRE-963
p581
aVSUREFIRE-962
p582
aVSUREFIRE-961
p583
aVSUREFIRE-960
p584
aVSUREFIRE-959
p585
aVSUREFIRE-958
p586
aVSUREFIRE-957
p587
aVSUREFIRE-956
p588
aVSUREFIRE-955
p589
aVSUREFIRE-954
p590
aVSUREFIRE-953
p591
aVSUREFIRE-952
p592
aVSUREFIRE-951
p593
aVSUREFIRE-950
p594
aVSUREFIRE-949
p595
aVSUREFIRE-948
p596
aVSUREFIRE-947
p597
aVSUREFIRE-946
p598
aVSUREFIRE-945
p599
aVSUREFIRE-944
p600
aVSUREFIRE-943
p601
aVSUREFIRE-942
p602
aVSUREFIRE-941
p603
aVSUREFIRE-940
p604
aVSUREFIRE-939
p605
aVSUREFIRE-938
p606
aVSUREFIRE-937
p607
aVSUREFIRE-936
p608
aVSUREFIRE-935
p609
aVSUREFIRE-934
p610
aVSUREFIRE-933
p611
aVSUREFIRE-932
p612
aVSUREFIRE-931
p613
aVSUREFIRE-930
p614
aVSUREFIRE-929
p615
aVSUREFIRE-928
p616
aVSUREFIRE-927
p617
aVSUREFIRE-926
p618
aVSUREFIRE-925
p619
aVSUREFIRE-924
p620
aVSUREFIRE-923
p621
aVSUREFIRE-922
p622
aVSUREFIRE-921
p623
aVSUREFIRE-920
p624
aVSUREFIRE-919
p625
aVSUREFIRE-918
p626
aVSUREFIRE-917
p627
aVSUREFIRE-916
p628
aVSUREFIRE-915
p629
aVSUREFIRE-914
p630
aVSUREFIRE-913
p631
aVSUREFIRE-912
p632
aVSUREFIRE-911
p633
aVSUREFIRE-910
p634
aVSUREFIRE-909
p635
aVSUREFIRE-908
p636
aVSUREFIRE-907
p637
aVSUREFIRE-906
p638
aVSUREFIRE-905
p639
aVSUREFIRE-904
p640
aVSUREFIRE-903
p641
aVSUREFIRE-902
p642
aVSUREFIRE-901
p643
aVSUREFIRE-900
p644
aVSUREFIRE-899
p645
aVSUREFIRE-898
p646
aVSUREFIRE-897
p647
aVSUREFIRE-896
p648
aVSUREFIRE-895
p649
aVSUREFIRE-894
p650
aVSUREFIRE-893
p651
aVSUREFIRE-892
p652
aVSUREFIRE-891
p653
aVSUREFIRE-890
p654
aVSUREFIRE-889
p655
aVSUREFIRE-888
p656
aVSUREFIRE-887
p657
aVSUREFIRE-886
p658
aVSUREFIRE-885
p659
aVSUREFIRE-883
p660
aVSUREFIRE-882
p661
aVSUREFIRE-881
p662
aVSUREFIRE-880
p663
aVSUREFIRE-879
p664
aVSUREFIRE-878
p665
aVSUREFIRE-877
p666
aVSUREFIRE-876
p667
aVSUREFIRE-875
p668
aVSUREFIRE-874
p669
aVSUREFIRE-873
p670
aVSUREFIRE-872
p671
aVSUREFIRE-871
p672
aVSUREFIRE-870
p673
aVSUREFIRE-869
p674
aVSUREFIRE-868
p675
aVSUREFIRE-867
p676
aVSUREFIRE-866
p677
aVSUREFIRE-865
p678
aVSUREFIRE-864
p679
aVSUREFIRE-863
p680
aVSUREFIRE-862
p681
aVSUREFIRE-861
p682
aVSUREFIRE-860
p683
aVSUREFIRE-859
p684
aVSUREFIRE-858
p685
aVSUREFIRE-857
p686
aVSUREFIRE-856
p687
aVSUREFIRE-855
p688
aVSUREFIRE-854
p689
aVSUREFIRE-853
p690
aVSUREFIRE-852
p691
aVSUREFIRE-851
p692
aVSUREFIRE-850
p693
aVSUREFIRE-849
p694
aVSUREFIRE-848
p695
aVSUREFIRE-847
p696
aVSUREFIRE-846
p697
aVSUREFIRE-845
p698
aVSUREFIRE-844
p699
aVSUREFIRE-843
p700
aVSUREFIRE-842
p701
aVSUREFIRE-841
p702
aVSUREFIRE-840
p703
aVSUREFIRE-839
p704
aVSUREFIRE-838
p705
aVSUREFIRE-837
p706
aVSUREFIRE-836
p707
aVSUREFIRE-835
p708
aVSUREFIRE-834
p709
aVSUREFIRE-833
p710
aVSUREFIRE-832
p711
aVSUREFIRE-831
p712
aVSUREFIRE-830
p713
aVSUREFIRE-829
p714
aVSUREFIRE-828
p715
aVSUREFIRE-827
p716
aVSUREFIRE-826
p717
aVSUREFIRE-825
p718
aVSUREFIRE-824
p719
aVSUREFIRE-823
p720
aVSUREFIRE-822
p721
aVSUREFIRE-821
p722
aVSUREFIRE-820
p723
aVSUREFIRE-819
p724
aVSUREFIRE-818
p725
aVSUREFIRE-817
p726
aVSUREFIRE-816
p727
aVSUREFIRE-815
p728
aVSUREFIRE-814
p729
aVSUREFIRE-813
p730
aVSUREFIRE-812
p731
aVSUREFIRE-811
p732
aVSUREFIRE-810
p733
aVSUREFIRE-809
p734
aVSUREFIRE-808
p735
aVSUREFIRE-806
p736
aVSUREFIRE-805
p737
aVSUREFIRE-804
p738
aVSUREFIRE-803
p739
aVSUREFIRE-802
p740
aVSUREFIRE-801
p741
aVSUREFIRE-800
p742
aVSUREFIRE-799
p743
aVSUREFIRE-798
p744
aVSUREFIRE-797
p745
aVSUREFIRE-796
p746
aVSUREFIRE-795
p747
aVSUREFIRE-794
p748
aVSUREFIRE-793
p749
aVSUREFIRE-792
p750
aVSUREFIRE-791
p751
aVSUREFIRE-790
p752
aVSUREFIRE-789
p753
aVSUREFIRE-788
p754
aVSUREFIRE-787
p755
aVSUREFIRE-786
p756
aVSUREFIRE-785
p757
aVSUREFIRE-784
p758
aVSUREFIRE-783
p759
aVSUREFIRE-782
p760
aVSUREFIRE-781
p761
aVSUREFIRE-780
p762
aVSUREFIRE-779
p763
aVSUREFIRE-778
p764
aVSUREFIRE-777
p765
aVSUREFIRE-776
p766
aVSUREFIRE-775
p767
aVSUREFIRE-774
p768
aVSUREFIRE-773
p769
aVSUREFIRE-772
p770
aVSUREFIRE-771
p771
aVSUREFIRE-770
p772
aVSUREFIRE-769
p773
aVSUREFIRE-768
p774
aVSUREFIRE-767
p775
aVSUREFIRE-766
p776
aVSUREFIRE-765
p777
aVSUREFIRE-764
p778
aVSUREFIRE-763
p779
aVSUREFIRE-762
p780
aVSUREFIRE-761
p781
aVSUREFIRE-760
p782
aVSUREFIRE-759
p783
aVSUREFIRE-758
p784
aVSUREFIRE-757
p785
aVSUREFIRE-756
p786
aVSUREFIRE-755
p787
aVSUREFIRE-754
p788
aVSUREFIRE-753
p789
aVSUREFIRE-752
p790
aVSUREFIRE-751
p791
aVSUREFIRE-750
p792
aVSUREFIRE-749
p793
aVSUREFIRE-748
p794
aVSUREFIRE-747
p795
aVSUREFIRE-746
p796
aVSUREFIRE-745
p797
aVSUREFIRE-744
p798
aVSUREFIRE-743
p799
aVSUREFIRE-742
p800
aVSUREFIRE-741
p801
aVSUREFIRE-740
p802
aVSUREFIRE-739
p803
aVSUREFIRE-738
p804
aVSUREFIRE-737
p805
aVSUREFIRE-736
p806
aVSUREFIRE-735
p807
aVSUREFIRE-734
p808
aVSUREFIRE-733
p809
aVSUREFIRE-732
p810
aVSUREFIRE-731
p811
aVSUREFIRE-730
p812
aVSUREFIRE-729
p813
aVSUREFIRE-728
p814
aVSUREFIRE-727
p815
aVSUREFIRE-726
p816
aVSUREFIRE-725
p817
aVSUREFIRE-724
p818
aVSUREFIRE-723
p819
aVSUREFIRE-722
p820
aVSUREFIRE-721
p821
aVSUREFIRE-720
p822
aVSUREFIRE-719
p823
aVSUREFIRE-718
p824
aVSUREFIRE-717
p825
aVSUREFIRE-716
p826
aVSUREFIRE-715
p827
aVSUREFIRE-714
p828
aVSUREFIRE-713
p829
aVSUREFIRE-712
p830
aVSUREFIRE-711
p831
aVSUREFIRE-710
p832
aVSUREFIRE-709
p833
aVSUREFIRE-708
p834
aVSUREFIRE-707
p835
aVSUREFIRE-706
p836
aVSUREFIRE-705
p837
aVSUREFIRE-704
p838
aVSUREFIRE-703
p839
aVSUREFIRE-702
p840
aVSUREFIRE-701
p841
aVSUREFIRE-700
p842
aVSUREFIRE-699
p843
aVSUREFIRE-698
p844
aVSUREFIRE-697
p845
aVSUREFIRE-696
p846
aVSUREFIRE-695
p847
aVSUREFIRE-694
p848
aVSUREFIRE-693
p849
aVSUREFIRE-692
p850
aVSUREFIRE-691
p851
aVSUREFIRE-690
p852
aVSUREFIRE-689
p853
aVSUREFIRE-688
p854
aVSUREFIRE-687
p855
aVSUREFIRE-686
p856
aVSUREFIRE-685
p857
aVSUREFIRE-684
p858
aVSUREFIRE-683
p859
aVSUREFIRE-682
p860
aVSUREFIRE-681
p861
aVSUREFIRE-680
p862
aVSUREFIRE-679
p863
aVSUREFIRE-678
p864
aVSUREFIRE-677
p865
aVSUREFIRE-676
p866
aVSUREFIRE-675
p867
aVSUREFIRE-674
p868
aVSUREFIRE-673
p869
aVSUREFIRE-672
p870
aVSUREFIRE-671
p871
aVSUREFIRE-670
p872
aVSUREFIRE-669
p873
aVSUREFIRE-668
p874
aVSUREFIRE-667
p875
aVSUREFIRE-666
p876
aVSUREFIRE-665
p877
aVSUREFIRE-664
p878
aVSUREFIRE-663
p879
aVSUREFIRE-662
p880
aVSUREFIRE-661
p881
aVSUREFIRE-660
p882
aVSUREFIRE-659
p883
aVSUREFIRE-658
p884
aVSUREFIRE-657
p885
aVSUREFIRE-656
p886
aVSUREFIRE-655
p887
aVSUREFIRE-654
p888
aVSUREFIRE-653
p889
aVSUREFIRE-652
p890
aVSUREFIRE-651
p891
aVSUREFIRE-650
p892
aVSUREFIRE-649
p893
aVSUREFIRE-648
p894
aVSUREFIRE-647
p895
aVSUREFIRE-646
p896
aVSUREFIRE-645
p897
aVSUREFIRE-644
p898
aVSUREFIRE-643
p899
aVSUREFIRE-642
p900
aVSUREFIRE-641
p901
aVSUREFIRE-640
p902
aVSUREFIRE-639
p903
aVSUREFIRE-638
p904
aVSUREFIRE-637
p905
aVSUREFIRE-636
p906
aVSUREFIRE-635
p907
aVSUREFIRE-634
p908
aVSUREFIRE-633
p909
aVSUREFIRE-632
p910
aVSUREFIRE-631
p911
aVSUREFIRE-630
p912
aVSUREFIRE-629
p913
aVSUREFIRE-628
p914
aVSUREFIRE-627
p915
aVSUREFIRE-626
p916
aVSUREFIRE-625
p917
aVSUREFIRE-624
p918
aVSUREFIRE-623
p919
aVSUREFIRE-622
p920
aVSUREFIRE-621
p921
aVSUREFIRE-620
p922
aVSUREFIRE-619
p923
aVSUREFIRE-618
p924
aVSUREFIRE-617
p925
aVSUREFIRE-616
p926
aVSUREFIRE-615
p927
aVSUREFIRE-614
p928
aVSUREFIRE-613
p929
aVSUREFIRE-612
p930
aVSUREFIRE-611
p931
aVSUREFIRE-610
p932
aVSUREFIRE-609
p933
aVSUREFIRE-608
p934
aVSUREFIRE-607
p935
aVSUREFIRE-606
p936
aVSUREFIRE-605
p937
aVSUREFIRE-604
p938
aVSUREFIRE-603
p939
aVSUREFIRE-602
p940
aVSUREFIRE-601
p941
aVSUREFIRE-600
p942
aVSUREFIRE-599
p943
aVSUREFIRE-598
p944
aVSUREFIRE-597
p945
aVSUREFIRE-596
p946
aVSUREFIRE-595
p947
aVSUREFIRE-594
p948
aVSUREFIRE-593
p949
aVSUREFIRE-592
p950
aVSUREFIRE-591
p951
aVSUREFIRE-590
p952
aVSUREFIRE-589
p953
aVSUREFIRE-588
p954
aVSUREFIRE-587
p955
aVSUREFIRE-586
p956
aVSUREFIRE-585
p957
aVSUREFIRE-584
p958
aVSUREFIRE-583
p959
aVSUREFIRE-582
p960
aVSUREFIRE-581
p961
aVSUREFIRE-580
p962
aVSUREFIRE-579
p963
aVSUREFIRE-578
p964
aVSUREFIRE-577
p965
aVSUREFIRE-576
p966
aVSUREFIRE-575
p967
aVSUREFIRE-574
p968
aVSUREFIRE-573
p969
aVSUREFIRE-572
p970
aVSUREFIRE-571
p971
aVSUREFIRE-570
p972
aVSUREFIRE-569
p973
aVSUREFIRE-568
p974
aVSUREFIRE-567
p975
aVSUREFIRE-566
p976
aVSUREFIRE-565
p977
aVSUREFIRE-564
p978
aVSUREFIRE-563
p979
aVSUREFIRE-562
p980
aVSUREFIRE-561
p981
aVSUREFIRE-560
p982
aVSUREFIRE-556
p983
aVSUREFIRE-555
p984
aVSUREFIRE-554
p985
aVSUREFIRE-553
p986
aVSUREFIRE-552
p987
aVSUREFIRE-551
p988
aVSUREFIRE-550
p989
aVSUREFIRE-549
p990
aVSUREFIRE-548
p991
aVSUREFIRE-547
p992
aVSUREFIRE-546
p993
aVSUREFIRE-545
p994
aVSUREFIRE-544
p995
aVSUREFIRE-543
p996
aVSUREFIRE-542
p997
aVSUREFIRE-541
p998
aVSUREFIRE-540
p999
aVSUREFIRE-539
p1000
aVSUREFIRE-538
p1001
aVSUREFIRE-537
p1002
aVSUREFIRE-536
p1003
aVSUREFIRE-535
p1004
aVSUREFIRE-534
p1005
aVSUREFIRE-533
p1006
aVSUREFIRE-532
p1007
aVSUREFIRE-531
p1008
aVSUREFIRE-530
p1009
aVSUREFIRE-529
p1010
aVSUREFIRE-528
p1011
aVSUREFIRE-527
p1012
aVSUREFIRE-526
p1013
aVSUREFIRE-525
p1014
aVSUREFIRE-524
p1015
aVSUREFIRE-523
p1016
aVSUREFIRE-522
p1017
aVSUREFIRE-521
p1018
aVSUREFIRE-520
p1019
aVSUREFIRE-519
p1020
aVSUREFIRE-518
p1021
aVSUREFIRE-517
p1022
aVSUREFIRE-516
p1023
aVSUREFIRE-515
p1024
aVSUREFIRE-514
p1025
aVSUREFIRE-513
p1026
aVSUREFIRE-512
p1027
aVSUREFIRE-511
p1028
aVSUREFIRE-510
p1029
aVSUREFIRE-509
p1030
aVSUREFIRE-508
p1031
aVSUREFIRE-507
p1032
aVSUREFIRE-506
p1033
aVSUREFIRE-505
p1034
aVSUREFIRE-504
p1035
aVSUREFIRE-503
p1036
aVSUREFIRE-502
p1037
aVSUREFIRE-501
p1038
aVSUREFIRE-500
p1039
aVSUREFIRE-499
p1040
aVSUREFIRE-498
p1041
aVSUREFIRE-497
p1042
aVSUREFIRE-496
p1043
aVSUREFIRE-495
p1044
aVSUREFIRE-494
p1045
aVSUREFIRE-493
p1046
aVSUREFIRE-492
p1047
aVSUREFIRE-491
p1048
aVSUREFIRE-490
p1049
aVSUREFIRE-489
p1050
aVSUREFIRE-488
p1051
aVSUREFIRE-487
p1052
aVSUREFIRE-486
p1053
aVSUREFIRE-485
p1054
aVSUREFIRE-484
p1055
aVSUREFIRE-483
p1056
aVSUREFIRE-482
p1057
aVSUREFIRE-481
p1058
aVSUREFIRE-480
p1059
aVSUREFIRE-479
p1060
aVSUREFIRE-478
p1061
aVSUREFIRE-477
p1062
aVSUREFIRE-476
p1063
aVSUREFIRE-475
p1064
aVSUREFIRE-474
p1065
aVSUREFIRE-473
p1066
aVSUREFIRE-472
p1067
aVSUREFIRE-471
p1068
aVSUREFIRE-470
p1069
aVSUREFIRE-469
p1070
aVSUREFIRE-468
p1071
aVSUREFIRE-467
p1072
aVSUREFIRE-466
p1073
aVSUREFIRE-465
p1074
aVSUREFIRE-464
p1075
aVSUREFIRE-463
p1076
aVSUREFIRE-462
p1077
aVSUREFIRE-461
p1078
aVSUREFIRE-460
p1079
aVSUREFIRE-459
p1080
aVSUREFIRE-458
p1081
aVSUREFIRE-457
p1082
aVSUREFIRE-456
p1083
aVSUREFIRE-455
p1084
aVSUREFIRE-454
p1085
aVSUREFIRE-453
p1086
aVSUREFIRE-452
p1087
aVSUREFIRE-451
p1088
aVSUREFIRE-450
p1089
aVSUREFIRE-449
p1090
aVSUREFIRE-448
p1091
aVSUREFIRE-447
p1092
aVSUREFIRE-446
p1093
aVSUREFIRE-445
p1094
aVSUREFIRE-444
p1095
aVSUREFIRE-443
p1096
aVSUREFIRE-442
p1097
aVSUREFIRE-441
p1098
aVSUREFIRE-440
p1099
aVSUREFIRE-439
p1100
aVSUREFIRE-438
p1101
aVSUREFIRE-437
p1102
aVSUREFIRE-436
p1103
aVSUREFIRE-435
p1104
aVSUREFIRE-434
p1105
aVSUREFIRE-433
p1106
aVSUREFIRE-432
p1107
aVSUREFIRE-431
p1108
aVSUREFIRE-430
p1109
aVSUREFIRE-429
p1110
aVSUREFIRE-428
p1111
aVSUREFIRE-427
p1112
aVSUREFIRE-426
p1113
aVSUREFIRE-425
p1114
aVSUREFIRE-424
p1115
aVSUREFIRE-423
p1116
aVSUREFIRE-422
p1117
aVSUREFIRE-421
p1118
aVSUREFIRE-420
p1119
aVSUREFIRE-419
p1120
aVSUREFIRE-418
p1121
aVSUREFIRE-417
p1122
aVSUREFIRE-416
p1123
aVSUREFIRE-414
p1124
aVSUREFIRE-413
p1125
aVSUREFIRE-412
p1126
aVSUREFIRE-411
p1127
aVSUREFIRE-410
p1128
aVSUREFIRE-409
p1129
aVSUREFIRE-408
p1130
aVSUREFIRE-407
p1131
aVSUREFIRE-406
p1132
aVSUREFIRE-405
p1133
aVSUREFIRE-404
p1134
aVSUREFIRE-403
p1135
aVSUREFIRE-402
p1136
aVSUREFIRE-401
p1137
aVSUREFIRE-400
p1138
aVSUREFIRE-398
p1139
aVSUREFIRE-397
p1140
aVSUREFIRE-396
p1141
aVSUREFIRE-395
p1142
aVSUREFIRE-394
p1143
aVSUREFIRE-393
p1144
aVSUREFIRE-392
p1145
aVSUREFIRE-391
p1146
aVSUREFIRE-390
p1147
aVSUREFIRE-389
p1148
aVSUREFIRE-388
p1149
aVSUREFIRE-387
p1150
aVSUREFIRE-386
p1151
aVSUREFIRE-385
p1152
aVSUREFIRE-384
p1153
aVSUREFIRE-383
p1154
aVSUREFIRE-382
p1155
aVSUREFIRE-381
p1156
aVSUREFIRE-380
p1157
aVSUREFIRE-379
p1158
aVSUREFIRE-378
p1159
aVSUREFIRE-377
p1160
aVSUREFIRE-376
p1161
aVSUREFIRE-375
p1162
aVSUREFIRE-374
p1163
aVSUREFIRE-373
p1164
aVSUREFIRE-372
p1165
aVSUREFIRE-371
p1166
aVSUREFIRE-370
p1167
aVSUREFIRE-369
p1168
aVSUREFIRE-368
p1169
aVSUREFIRE-367
p1170
aVSUREFIRE-366
p1171
aVSUREFIRE-365
p1172
aVSUREFIRE-364
p1173
aVSUREFIRE-363
p1174
aVSUREFIRE-362
p1175
aVSUREFIRE-361
p1176
aVSUREFIRE-360
p1177
aVSUREFIRE-359
p1178
aVSUREFIRE-358
p1179
aVSUREFIRE-357
p1180
aVSUREFIRE-356
p1181
aVSUREFIRE-355
p1182
aVSUREFIRE-354
p1183
aVSUREFIRE-353
p1184
aVSUREFIRE-352
p1185
aVSUREFIRE-351
p1186
aVSUREFIRE-350
p1187
aVSUREFIRE-349
p1188
aVSUREFIRE-348
p1189
aVSUREFIRE-347
p1190
aVSUREFIRE-346
p1191
aVSUREFIRE-345
p1192
aVSUREFIRE-344
p1193
aVSUREFIRE-343
p1194
aVSUREFIRE-342
p1195
aVSUREFIRE-341
p1196
aVSUREFIRE-340
p1197
aVSUREFIRE-339
p1198
aVSUREFIRE-338
p1199
aVSUREFIRE-337
p1200
aVSUREFIRE-336
p1201
aVSUREFIRE-335
p1202
aVSUREFIRE-334
p1203
aVSUREFIRE-333
p1204
aVSUREFIRE-332
p1205
aVSUREFIRE-331
p1206
aVSUREFIRE-330
p1207
aVSUREFIRE-329
p1208
aVSUREFIRE-328
p1209
aVSUREFIRE-327
p1210
aVSUREFIRE-326
p1211
aVSUREFIRE-325
p1212
aVSUREFIRE-324
p1213
aVSUREFIRE-323
p1214
aVSUREFIRE-322
p1215
aVSUREFIRE-321
p1216
aVSUREFIRE-320
p1217
aVSUREFIRE-319
p1218
aVSUREFIRE-318
p1219
aVSUREFIRE-317
p1220
aVSUREFIRE-316
p1221
aVSUREFIRE-315
p1222
aVSUREFIRE-314
p1223
aVSUREFIRE-313
p1224
aVSUREFIRE-312
p1225
aVSUREFIRE-311
p1226
aVSUREFIRE-310
p1227
aVSUREFIRE-309
p1228
aVSUREFIRE-308
p1229
aVSUREFIRE-307
p1230
aVSUREFIRE-306
p1231
aVSUREFIRE-305
p1232
aVSUREFIRE-304
p1233
aVSUREFIRE-303
p1234
aVSUREFIRE-302
p1235
aVSUREFIRE-301
p1236
aVSUREFIRE-300
p1237
aVSUREFIRE-299
p1238
aVSUREFIRE-298
p1239
aVSUREFIRE-297
p1240
aVSUREFIRE-296
p1241
aVSUREFIRE-295
p1242
aVSUREFIRE-294
p1243
aVSUREFIRE-293
p1244
aVSUREFIRE-292
p1245
aVSUREFIRE-291
p1246
aVSUREFIRE-290
p1247
aVSUREFIRE-289
p1248
aVSUREFIRE-288
p1249
aVSUREFIRE-287
p1250
aVSUREFIRE-286
p1251
aVSUREFIRE-285
p1252
aVSUREFIRE-284
p1253
aVSUREFIRE-283
p1254
aVSUREFIRE-282
p1255
aVSUREFIRE-281
p1256
aVSUREFIRE-280
p1257
aVSUREFIRE-279
p1258
aVSUREFIRE-278
p1259
aVSUREFIRE-277
p1260
aVSUREFIRE-276
p1261
aVSUREFIRE-275
p1262
aVSUREFIRE-274
p1263
aVSUREFIRE-273
p1264
aVSUREFIRE-272
p1265
aVSUREFIRE-271
p1266
aVSUREFIRE-270
p1267
aVSUREFIRE-269
p1268
aVSUREFIRE-268
p1269
aVSUREFIRE-267
p1270
aVSUREFIRE-266
p1271
aVSUREFIRE-265
p1272
aVSUREFIRE-264
p1273
aVSUREFIRE-263
p1274
aVSUREFIRE-262
p1275
aVSUREFIRE-261
p1276
aVSUREFIRE-260
p1277
aVSUREFIRE-259
p1278
aVSUREFIRE-258
p1279
aVSUREFIRE-257
p1280
aVSUREFIRE-256
p1281
aVSUREFIRE-255
p1282
aVSUREFIRE-254
p1283
aVSUREFIRE-253
p1284
aVSUREFIRE-252
p1285
aVSUREFIRE-251
p1286
aVSUREFIRE-250
p1287
aVSUREFIRE-249
p1288
aVSUREFIRE-247
p1289
aVSUREFIRE-246
p1290
aVSUREFIRE-245
p1291
aVSUREFIRE-244
p1292
aVSUREFIRE-243
p1293
aVSUREFIRE-242
p1294
aVSUREFIRE-241
p1295
aVSUREFIRE-240
p1296
aVSUREFIRE-239
p1297
aVSUREFIRE-238
p1298
aVSUREFIRE-237
p1299
aVSUREFIRE-236
p1300
aVSUREFIRE-235
p1301
aVSUREFIRE-234
p1302
aVSUREFIRE-233
p1303
aVSUREFIRE-232
p1304
aVSUREFIRE-231
p1305
aVSUREFIRE-230
p1306
aVSUREFIRE-229
p1307
aVSUREFIRE-228
p1308
aVSUREFIRE-227
p1309
aVSUREFIRE-226
p1310
aVSUREFIRE-225
p1311
aVSUREFIRE-224
p1312
aVSUREFIRE-223
p1313
aVSUREFIRE-222
p1314
aVSUREFIRE-221
p1315
aVSUREFIRE-220
p1316
aVSUREFIRE-219
p1317
aVSUREFIRE-218
p1318
aVSUREFIRE-217
p1319
aVSUREFIRE-216
p1320
aVSUREFIRE-215
p1321
aVSUREFIRE-214
p1322
aVSUREFIRE-213
p1323
aVSUREFIRE-212
p1324
aVSUREFIRE-211
p1325
aVSUREFIRE-210
p1326
aVSUREFIRE-209
p1327
aVSUREFIRE-208
p1328
aVSUREFIRE-207
p1329
aVSUREFIRE-206
p1330
aVSUREFIRE-205
p1331
aVSUREFIRE-204
p1332
aVSUREFIRE-203
p1333
aVSUREFIRE-202
p1334
aVSUREFIRE-201
p1335
aVSUREFIRE-200
p1336
aVSUREFIRE-199
p1337
aVSUREFIRE-198
p1338
aVSUREFIRE-197
p1339
aVSUREFIRE-196
p1340
aVSUREFIRE-195
p1341
aVSUREFIRE-194
p1342
aVSUREFIRE-193
p1343
aVSUREFIRE-192
p1344
aVSUREFIRE-191
p1345
aVSUREFIRE-190
p1346
aVSUREFIRE-189
p1347
aVSUREFIRE-188
p1348
aVSUREFIRE-187
p1349
aVSUREFIRE-186
p1350
aVSUREFIRE-185
p1351
aVSUREFIRE-184
p1352
aVSUREFIRE-183
p1353
aVSUREFIRE-182
p1354
aVSUREFIRE-181
p1355
aVSUREFIRE-180
p1356
aVSUREFIRE-179
p1357
aVSUREFIRE-178
p1358
aVSUREFIRE-177
p1359
aVSUREFIRE-176
p1360
aVSUREFIRE-175
p1361
aVSUREFIRE-174
p1362
aVSUREFIRE-173
p1363
aVSUREFIRE-172
p1364
aVSUREFIRE-171
p1365
aVSUREFIRE-170
p1366
aVSUREFIRE-169
p1367
aVSUREFIRE-168
p1368
aVSUREFIRE-167
p1369
aVSUREFIRE-166
p1370
aVSUREFIRE-165
p1371
aVSUREFIRE-164
p1372
aVSUREFIRE-163
p1373
aVSUREFIRE-162
p1374
aVSUREFIRE-161
p1375
aVSUREFIRE-160
p1376
aVSUREFIRE-159
p1377
aVSUREFIRE-158
p1378
aVSUREFIRE-157
p1379
aVSUREFIRE-156
p1380
aVSUREFIRE-155
p1381
aVSUREFIRE-154
p1382
aVSUREFIRE-153
p1383
aVSUREFIRE-152
p1384
aVSUREFIRE-151
p1385
aVSUREFIRE-150
p1386
aVSUREFIRE-149
p1387
aVSUREFIRE-148
p1388
aVSUREFIRE-147
p1389
aVSUREFIRE-146
p1390
aVSUREFIRE-145
p1391
aVSUREFIRE-144
p1392
aVSUREFIRE-143
p1393
aVSUREFIRE-142
p1394
aVSUREFIRE-141
p1395
aVSUREFIRE-140
p1396
aVSUREFIRE-139
p1397
aVSUREFIRE-138
p1398
aVSUREFIRE-137
p1399
aVSUREFIRE-136
p1400
aVSUREFIRE-135
p1401
aVSUREFIRE-134
p1402
aVSUREFIRE-133
p1403
aVSUREFIRE-132
p1404
aVSUREFIRE-131
p1405
aVSUREFIRE-130
p1406
aVSUREFIRE-129
p1407
aVSUREFIRE-128
p1408
aVSUREFIRE-127
p1409
aVSUREFIRE-126
p1410
aVSUREFIRE-125
p1411
aVSUREFIRE-124
p1412
aVSUREFIRE-123
p1413
aVSUREFIRE-122
p1414
aVSUREFIRE-121
p1415
aVSUREFIRE-120
p1416
aVSUREFIRE-119
p1417
aVSUREFIRE-118
p1418
aVSUREFIRE-117
p1419
aVSUREFIRE-116
p1420
aVSUREFIRE-115
p1421
aVSUREFIRE-114
p1422
aVSUREFIRE-113
p1423
aVSUREFIRE-112
p1424
aVSUREFIRE-111
p1425
aVSUREFIRE-110
p1426
aVSUREFIRE-109
p1427
aVSUREFIRE-108
p1428
aVSUREFIRE-107
p1429
aVSUREFIRE-106
p1430
aVSUREFIRE-105
p1431
aVSUREFIRE-104
p1432
aVSUREFIRE-103
p1433
aVSUREFIRE-102
p1434
aVSUREFIRE-101
p1435
aVSUREFIRE-100
p1436
aVSUREFIRE-99
p1437
aVSUREFIRE-98
p1438
aVSUREFIRE-97
p1439
aVSUREFIRE-96
p1440
aVSUREFIRE-95
p1441
aVSUREFIRE-94
p1442
aVSUREFIRE-93
p1443
aVSUREFIRE-92
p1444
aVSUREFIRE-91
p1445
aVSUREFIRE-90
p1446
aVSUREFIRE-89
p1447
aVSUREFIRE-88
p1448
aVSUREFIRE-87
p1449
aVSUREFIRE-86
p1450
aVSUREFIRE-85
p1451
aVSUREFIRE-84
p1452
aVSUREFIRE-83
p1453
aVSUREFIRE-82
p1454
aVSUREFIRE-81
p1455
aVSUREFIRE-80
p1456
aVSUREFIRE-79
p1457
aVSUREFIRE-78
p1458
aVSUREFIRE-77
p1459
aVSUREFIRE-76
p1460
aVSUREFIRE-75
p1461
aVSUREFIRE-74
p1462
aVSUREFIRE-73
p1463
aVSUREFIRE-72
p1464
aVSUREFIRE-71
p1465
aVSUREFIRE-70
p1466
aVSUREFIRE-69
p1467
aVSUREFIRE-68
p1468
aVSUREFIRE-67
p1469
aVSUREFIRE-66
p1470
aVSUREFIRE-65
p1471
aVSUREFIRE-64
p1472
aVSUREFIRE-63
p1473
aVSUREFIRE-62
p1474
aVSUREFIRE-61
p1475
aVSUREFIRE-60
p1476
aVSUREFIRE-59
p1477
aVSUREFIRE-58
p1478
aVSUREFIRE-57
p1479
aVSUREFIRE-56
p1480
aVSUREFIRE-55
p1481
aVSUREFIRE-54
p1482
aVSUREFIRE-53
p1483
aVSUREFIRE-52
p1484
aVSUREFIRE-51
p1485
aVSUREFIRE-50
p1486
aVSUREFIRE-49
p1487
aVSUREFIRE-48
p1488
aVSUREFIRE-47
p1489
aVSUREFIRE-46
p1490
aVSUREFIRE-45
p1491
aVSUREFIRE-44
p1492
aVSUREFIRE-43
p1493
aVSUREFIRE-42
p1494
aVSUREFIRE-41
p1495
aVSUREFIRE-40
p1496
aVSUREFIRE-39
p1497
aVSUREFIRE-38
p1498
aVSUREFIRE-37
p1499
aVSUREFIRE-36
p1500
aVSUREFIRE-35
p1501
aVSUREFIRE-34
p1502
aVSUREFIRE-33
p1503
aVSUREFIRE-32
p1504
aVSUREFIRE-31
p1505
aVSUREFIRE-30
p1506
aVSUREFIRE-29
p1507
aVSUREFIRE-28
p1508
aVSUREFIRE-27
p1509
aVSUREFIRE-26
p1510
aVSUREFIRE-25
p1511
aVSUREFIRE-24
p1512
aVSUREFIRE-23
p1513
aVSUREFIRE-22
p1514
aVSUREFIRE-21
p1515
aVSUREFIRE-20
p1516
aVSUREFIRE-19
p1517
aVSUREFIRE-18
p1518
aVSUREFIRE-17
p1519
aVSUREFIRE-16
p1520
aVSUREFIRE-15
p1521
aVSUREFIRE-14
p1522
aVSUREFIRE-13
p1523
aVSUREFIRE-12
p1524
aVSUREFIRE-11
p1525
aVSUREFIRE-10
p1526
aVSUREFIRE-9
p1527
aVSUREFIRE-8
p1528
aVSUREFIRE-7
p1529
aVSUREFIRE-6
p1530
aVSUREFIRE-5
p1531
aVSUREFIRE-4
p1532
aVSUREFIRE-3
p1533
aVSUREFIRE-2
p1534
aVSUREFIRE-1
p1535
a.