(lp0
VSYNAPSE-1098
p1
aVSYNAPSE-1097
p2
aVSYNAPSE-1096
p3
aVSYNAPSE-1095
p4
aVSYNAPSE-1094
p5
aVSYNAPSE-1093
p6
aVSYNAPSE-1092
p7
aVSYNAPSE-1091
p8
aVSYNAPSE-1090
p9
aVSYNAPSE-1089
p10
aVSYNAPSE-1088
p11
aVSYNAPSE-1087
p12
aVSYNAPSE-1086
p13
aVSYNAPSE-1085
p14
aVSYNAPSE-1084
p15
aVSYNAPSE-1083
p16
aVSYNAPSE-1082
p17
aVSYNAPSE-1081
p18
aVSYNAPSE-1080
p19
aVSYNAPSE-1079
p20
aVSYNAPSE-1078
p21
aVSYNAPSE-1077
p22
aVSYNAPSE-1076
p23
aVSYNAPSE-1075
p24
aVSYNAPSE-1074
p25
aVSYNAPSE-1073
p26
aVSYNAPSE-1072
p27
aVSYNAPSE-1071
p28
aVSYNAPSE-1070
p29
aVSYNAPSE-1069
p30
aVSYNAPSE-1068
p31
aVSYNAPSE-1067
p32
aVSYNAPSE-1066
p33
aVSYNAPSE-1065
p34
aVSYNAPSE-1064
p35
aVSYNAPSE-1063
p36
aVSYNAPSE-1062
p37
aVSYNAPSE-1061
p38
aVSYNAPSE-1060
p39
aVSYNAPSE-1059
p40
aVSYNAPSE-1058
p41
aVSYNAPSE-1057
p42
aVSYNAPSE-1056
p43
aVSYNAPSE-1055
p44
aVSYNAPSE-1054
p45
aVSYNAPSE-1053
p46
aVSYNAPSE-1052
p47
aVSYNAPSE-1051
p48
aVSYNAPSE-1050
p49
aVSYNAPSE-1049
p50
aVSYNAPSE-1048
p51
aVSYNAPSE-1047
p52
aVSYNAPSE-1046
p53
aVSYNAPSE-1045
p54
aVSYNAPSE-1044
p55
aVSYNAPSE-1043
p56
aVSYNAPSE-1042
p57
aVSYNAPSE-1041
p58
aVSYNAPSE-1040
p59
aVSYNAPSE-1039
p60
aVSYNAPSE-1038
p61
aVSYNAPSE-1037
p62
aVSYNAPSE-1036
p63
aVSYNAPSE-1035
p64
aVSYNAPSE-1034
p65
aVSYNAPSE-1033
p66
aVSYNAPSE-1032
p67
aVSYNAPSE-1031
p68
aVSYNAPSE-1030
p69
aVSYNAPSE-1029
p70
aVSYNAPSE-1028
p71
aVSYNAPSE-1027
p72
aVSYNAPSE-1026
p73
aVSYNAPSE-1025
p74
aVSYNAPSE-1024
p75
aVSYNAPSE-1023
p76
aVSYNAPSE-1022
p77
aVSYNAPSE-1021
p78
aVSYNAPSE-1020
p79
aVSYNAPSE-1019
p80
aVSYNAPSE-1018
p81
aVSYNAPSE-1017
p82
aVSYNAPSE-1016
p83
aVSYNAPSE-1015
p84
aVSYNAPSE-1014
p85
aVSYNAPSE-1013
p86
aVSYNAPSE-1012
p87
aVSYNAPSE-1011
p88
aVSYNAPSE-1010
p89
aVSYNAPSE-1009
p90
aVSYNAPSE-1008
p91
aVSYNAPSE-1007
p92
aVSYNAPSE-1006
p93
aVSYNAPSE-1005
p94
aVSYNAPSE-1004
p95
aVSYNAPSE-1003
p96
aVSYNAPSE-1002
p97
aVSYNAPSE-1001
p98
aVSYNAPSE-1000
p99
aVSYNAPSE-999
p100
aVSYNAPSE-998
p101
aVSYNAPSE-997
p102
aVSYNAPSE-996
p103
aVSYNAPSE-995
p104
aVSYNAPSE-994
p105
aVSYNAPSE-993
p106
aVSYNAPSE-992
p107
aVSYNAPSE-991
p108
aVSYNAPSE-990
p109
aVSYNAPSE-989
p110
aVSYNAPSE-988
p111
aVSYNAPSE-987
p112
aVSYNAPSE-986
p113
aVSYNAPSE-985
p114
aVSYNAPSE-984
p115
aVSYNAPSE-983
p116
aVSYNAPSE-982
p117
aVSYNAPSE-981
p118
aVSYNAPSE-980
p119
aVSYNAPSE-979
p120
aVSYNAPSE-978
p121
aVSYNAPSE-977
p122
aVSYNAPSE-976
p123
aVSYNAPSE-975
p124
aVSYNAPSE-974
p125
aVSYNAPSE-973
p126
aVSYNAPSE-972
p127
aVSYNAPSE-971
p128
aVSYNAPSE-970
p129
aVSYNAPSE-969
p130
aVSYNAPSE-968
p131
aVSYNAPSE-967
p132
aVSYNAPSE-966
p133
aVSYNAPSE-965
p134
aVSYNAPSE-964
p135
aVSYNAPSE-963
p136
aVSYNAPSE-962
p137
aVSYNAPSE-961
p138
aVSYNAPSE-960
p139
aVSYNAPSE-959
p140
aVSYNAPSE-958
p141
aVSYNAPSE-957
p142
aVSYNAPSE-956
p143
aVSYNAPSE-955
p144
aVSYNAPSE-954
p145
aVSYNAPSE-953
p146
aVSYNAPSE-952
p147
aVSYNAPSE-951
p148
aVSYNAPSE-950
p149
aVSYNAPSE-949
p150
aVSYNAPSE-948
p151
aVSYNAPSE-947
p152
aVSYNAPSE-946
p153
aVSYNAPSE-945
p154
aVSYNAPSE-944
p155
aVSYNAPSE-943
p156
aVSYNAPSE-942
p157
aVSYNAPSE-941
p158
aVSYNAPSE-940
p159
aVSYNAPSE-939
p160
aVSYNAPSE-938
p161
aVSYNAPSE-937
p162
aVSYNAPSE-936
p163
aVSYNAPSE-935
p164
aVSYNAPSE-934
p165
aVSYNAPSE-933
p166
aVSYNAPSE-932
p167
aVSYNAPSE-931
p168
aVSYNAPSE-930
p169
aVSYNAPSE-929
p170
aVSYNAPSE-928
p171
aVSYNAPSE-927
p172
aVSYNAPSE-926
p173
aVSYNAPSE-925
p174
aVSYNAPSE-924
p175
aVSYNAPSE-923
p176
aVSYNAPSE-922
p177
aVSYNAPSE-921
p178
aVSYNAPSE-920
p179
aVSYNAPSE-919
p180
aVSYNAPSE-918
p181
aVSYNAPSE-917
p182
aVSYNAPSE-916
p183
aVSYNAPSE-915
p184
aVSYNAPSE-914
p185
aVSYNAPSE-913
p186
aVSYNAPSE-912
p187
aVSYNAPSE-911
p188
aVSYNAPSE-910
p189
aVSYNAPSE-909
p190
aVSYNAPSE-908
p191
aVSYNAPSE-907
p192
aVSYNAPSE-906
p193
aVSYNAPSE-905
p194
aVSYNAPSE-904
p195
aVSYNAPSE-903
p196
aVSYNAPSE-902
p197
aVSYNAPSE-901
p198
aVSYNAPSE-900
p199
aVSYNAPSE-899
p200
aVSYNAPSE-898
p201
aVSYNAPSE-897
p202
aVSYNAPSE-896
p203
aVSYNAPSE-895
p204
aVSYNAPSE-894
p205
aVSYNAPSE-893
p206
aVSYNAPSE-892
p207
aVSYNAPSE-891
p208
aVSYNAPSE-890
p209
aVSYNAPSE-889
p210
aVSYNAPSE-888
p211
aVSYNAPSE-887
p212
aVSYNAPSE-886
p213
aVSYNAPSE-885
p214
aVSYNAPSE-884
p215
aVSYNAPSE-883
p216
aVSYNAPSE-882
p217
aVSYNAPSE-881
p218
aVSYNAPSE-880
p219
aVSYNAPSE-879
p220
aVSYNAPSE-878
p221
aVSYNAPSE-877
p222
aVSYNAPSE-876
p223
aVSYNAPSE-875
p224
aVSYNAPSE-874
p225
aVSYNAPSE-873
p226
aVSYNAPSE-872
p227
aVSYNAPSE-871
p228
aVSYNAPSE-870
p229
aVSYNAPSE-869
p230
aVSYNAPSE-868
p231
aVSYNAPSE-867
p232
aVSYNAPSE-866
p233
aVSYNAPSE-865
p234
aVSYNAPSE-864
p235
aVSYNAPSE-863
p236
aVSYNAPSE-862
p237
aVSYNAPSE-861
p238
aVSYNAPSE-860
p239
aVSYNAPSE-859
p240
aVSYNAPSE-858
p241
aVSYNAPSE-857
p242
aVSYNAPSE-856
p243
aVSYNAPSE-855
p244
aVSYNAPSE-854
p245
aVSYNAPSE-853
p246
aVSYNAPSE-852
p247
aVSYNAPSE-851
p248
aVSYNAPSE-850
p249
aVSYNAPSE-849
p250
aVSYNAPSE-848
p251
aVSYNAPSE-847
p252
aVSYNAPSE-846
p253
aVSYNAPSE-845
p254
aVSYNAPSE-844
p255
aVSYNAPSE-843
p256
aVSYNAPSE-842
p257
aVSYNAPSE-841
p258
aVSYNAPSE-840
p259
aVSYNAPSE-839
p260
aVSYNAPSE-838
p261
aVSYNAPSE-837
p262
aVSYNAPSE-836
p263
aVSYNAPSE-835
p264
aVSYNAPSE-834
p265
aVSYNAPSE-833
p266
aVSYNAPSE-832
p267
aVSYNAPSE-831
p268
aVSYNAPSE-830
p269
aVSYNAPSE-829
p270
aVSYNAPSE-828
p271
aVSYNAPSE-827
p272
aVSYNAPSE-826
p273
aVSYNAPSE-825
p274
aVSYNAPSE-824
p275
aVSYNAPSE-823
p276
aVSYNAPSE-822
p277
aVSYNAPSE-821
p278
aVSYNAPSE-820
p279
aVSYNAPSE-819
p280
aVSYNAPSE-818
p281
aVSYNAPSE-817
p282
aVSYNAPSE-816
p283
aVSYNAPSE-815
p284
aVSYNAPSE-814
p285
aVSYNAPSE-813
p286
aVSYNAPSE-812
p287
aVSYNAPSE-811
p288
aVSYNAPSE-810
p289
aVSYNAPSE-809
p290
aVSYNAPSE-808
p291
aVSYNAPSE-807
p292
aVSYNAPSE-806
p293
aVSYNAPSE-805
p294
aVSYNAPSE-804
p295
aVSYNAPSE-803
p296
aVSYNAPSE-802
p297
aVSYNAPSE-801
p298
aVSYNAPSE-800
p299
aVSYNAPSE-799
p300
aVSYNAPSE-798
p301
aVSYNAPSE-797
p302
aVSYNAPSE-796
p303
aVSYNAPSE-795
p304
aVSYNAPSE-794
p305
aVSYNAPSE-793
p306
aVSYNAPSE-792
p307
aVSYNAPSE-791
p308
aVSYNAPSE-790
p309
aVSYNAPSE-789
p310
aVSYNAPSE-788
p311
aVSYNAPSE-787
p312
aVSYNAPSE-786
p313
aVSYNAPSE-785
p314
aVSYNAPSE-784
p315
aVSYNAPSE-783
p316
aVSYNAPSE-782
p317
aVSYNAPSE-781
p318
aVSYNAPSE-780
p319
aVSYNAPSE-779
p320
aVSYNAPSE-778
p321
aVSYNAPSE-777
p322
aVSYNAPSE-776
p323
aVSYNAPSE-775
p324
aVSYNAPSE-774
p325
aVSYNAPSE-773
p326
aVSYNAPSE-772
p327
aVSYNAPSE-771
p328
aVSYNAPSE-770
p329
aVSYNAPSE-769
p330
aVSYNAPSE-768
p331
aVSYNAPSE-767
p332
aVSYNAPSE-766
p333
aVSYNAPSE-765
p334
aVSYNAPSE-764
p335
aVSYNAPSE-763
p336
aVSYNAPSE-762
p337
aVSYNAPSE-761
p338
aVSYNAPSE-760
p339
aVSYNAPSE-759
p340
aVSYNAPSE-758
p341
aVSYNAPSE-757
p342
aVSYNAPSE-756
p343
aVSYNAPSE-755
p344
aVSYNAPSE-754
p345
aVSYNAPSE-753
p346
aVSYNAPSE-752
p347
aVSYNAPSE-751
p348
aVSYNAPSE-750
p349
aVSYNAPSE-749
p350
aVSYNAPSE-748
p351
aVSYNAPSE-747
p352
aVSYNAPSE-746
p353
aVSYNAPSE-745
p354
aVSYNAPSE-744
p355
aVSYNAPSE-743
p356
aVSYNAPSE-742
p357
aVSYNAPSE-741
p358
aVSYNAPSE-740
p359
aVSYNAPSE-739
p360
aVSYNAPSE-738
p361
aVSYNAPSE-737
p362
aVSYNAPSE-736
p363
aVSYNAPSE-735
p364
aVSYNAPSE-734
p365
aVSYNAPSE-733
p366
aVSYNAPSE-732
p367
aVSYNAPSE-731
p368
aVSYNAPSE-730
p369
aVSYNAPSE-729
p370
aVSYNAPSE-728
p371
aVSYNAPSE-727
p372
aVSYNAPSE-726
p373
aVSYNAPSE-725
p374
aVSYNAPSE-724
p375
aVSYNAPSE-723
p376
aVSYNAPSE-722
p377
aVSYNAPSE-721
p378
aVSYNAPSE-720
p379
aVSYNAPSE-719
p380
aVSYNAPSE-718
p381
aVSYNAPSE-717
p382
aVSYNAPSE-716
p383
aVSYNAPSE-715
p384
aVSYNAPSE-714
p385
aVSYNAPSE-713
p386
aVSYNAPSE-712
p387
aVSYNAPSE-711
p388
aVSYNAPSE-710
p389
aVSYNAPSE-709
p390
aVSYNAPSE-708
p391
aVSYNAPSE-707
p392
aVSYNAPSE-706
p393
aVSYNAPSE-705
p394
aVSYNAPSE-704
p395
aVSYNAPSE-703
p396
aVSYNAPSE-702
p397
aVSYNAPSE-701
p398
aVSYNAPSE-700
p399
aVSYNAPSE-699
p400
aVSYNAPSE-698
p401
aVSYNAPSE-697
p402
aVSYNAPSE-696
p403
aVSYNAPSE-695
p404
aVSYNAPSE-694
p405
aVSYNAPSE-693
p406
aVSYNAPSE-692
p407
aVSYNAPSE-691
p408
aVSYNAPSE-690
p409
aVSYNAPSE-689
p410
aVSYNAPSE-688
p411
aVSYNAPSE-687
p412
aVSYNAPSE-686
p413
aVSYNAPSE-685
p414
aVSYNAPSE-684
p415
aVSYNAPSE-683
p416
aVSYNAPSE-682
p417
aVSYNAPSE-681
p418
aVSYNAPSE-680
p419
aVSYNAPSE-679
p420
aVSYNAPSE-678
p421
aVSYNAPSE-677
p422
aVSYNAPSE-676
p423
aVSYNAPSE-675
p424
aVSYNAPSE-674
p425
aVSYNAPSE-673
p426
aVSYNAPSE-672
p427
aVSYNAPSE-671
p428
aVSYNAPSE-670
p429
aVSYNAPSE-669
p430
aVSYNAPSE-668
p431
aVSYNAPSE-667
p432
aVSYNAPSE-666
p433
aVSYNAPSE-665
p434
aVSYNAPSE-664
p435
aVSYNAPSE-663
p436
aVSYNAPSE-662
p437
aVSYNAPSE-661
p438
aVSYNAPSE-660
p439
aVSYNAPSE-659
p440
aVSYNAPSE-658
p441
aVSYNAPSE-657
p442
aVSYNAPSE-656
p443
aVSYNAPSE-655
p444
aVSYNAPSE-654
p445
aVSYNAPSE-653
p446
aVSYNAPSE-652
p447
aVSYNAPSE-651
p448
aVSYNAPSE-650
p449
aVSYNAPSE-649
p450
aVSYNAPSE-648
p451
aVSYNAPSE-647
p452
aVSYNAPSE-646
p453
aVSYNAPSE-645
p454
aVSYNAPSE-644
p455
aVSYNAPSE-643
p456
aVSYNAPSE-642
p457
aVSYNAPSE-641
p458
aVSYNAPSE-640
p459
aVSYNAPSE-639
p460
aVSYNAPSE-638
p461
aVSYNAPSE-637
p462
aVSYNAPSE-636
p463
aVSYNAPSE-635
p464
aVSYNAPSE-634
p465
aVSYNAPSE-633
p466
aVSYNAPSE-632
p467
aVSYNAPSE-631
p468
aVSYNAPSE-630
p469
aVSYNAPSE-629
p470
aVSYNAPSE-628
p471
aVSYNAPSE-627
p472
aVSYNAPSE-626
p473
aVSYNAPSE-625
p474
aVSYNAPSE-624
p475
aVSYNAPSE-623
p476
aVSYNAPSE-622
p477
aVSYNAPSE-621
p478
aVSYNAPSE-620
p479
aVSYNAPSE-619
p480
aVSYNAPSE-618
p481
aVSYNAPSE-617
p482
aVSYNAPSE-616
p483
aVSYNAPSE-615
p484
aVSYNAPSE-614
p485
aVSYNAPSE-613
p486
aVSYNAPSE-612
p487
aVSYNAPSE-611
p488
aVSYNAPSE-610
p489
aVSYNAPSE-609
p490
aVSYNAPSE-608
p491
aVSYNAPSE-607
p492
aVSYNAPSE-606
p493
aVSYNAPSE-605
p494
aVSYNAPSE-604
p495
aVSYNAPSE-603
p496
aVSYNAPSE-602
p497
aVSYNAPSE-601
p498
aVSYNAPSE-600
p499
aVSYNAPSE-599
p500
aVSYNAPSE-598
p501
aVSYNAPSE-597
p502
aVSYNAPSE-596
p503
aVSYNAPSE-595
p504
aVSYNAPSE-594
p505
aVSYNAPSE-593
p506
aVSYNAPSE-592
p507
aVSYNAPSE-591
p508
aVSYNAPSE-590
p509
aVSYNAPSE-589
p510
aVSYNAPSE-588
p511
aVSYNAPSE-587
p512
aVSYNAPSE-586
p513
aVSYNAPSE-585
p514
aVSYNAPSE-584
p515
aVSYNAPSE-583
p516
aVSYNAPSE-582
p517
aVSYNAPSE-581
p518
aVSYNAPSE-580
p519
aVSYNAPSE-579
p520
aVSYNAPSE-578
p521
aVSYNAPSE-577
p522
aVSYNAPSE-576
p523
aVSYNAPSE-575
p524
aVSYNAPSE-574
p525
aVSYNAPSE-573
p526
aVSYNAPSE-572
p527
aVSYNAPSE-571
p528
aVSYNAPSE-570
p529
aVSYNAPSE-569
p530
aVSYNAPSE-568
p531
aVSYNAPSE-567
p532
aVSYNAPSE-566
p533
aVSYNAPSE-565
p534
aVSYNAPSE-564
p535
aVSYNAPSE-563
p536
aVSYNAPSE-562
p537
aVSYNAPSE-561
p538
aVSYNAPSE-560
p539
aVSYNAPSE-559
p540
aVSYNAPSE-558
p541
aVSYNAPSE-557
p542
aVSYNAPSE-556
p543
aVSYNAPSE-555
p544
aVSYNAPSE-554
p545
aVSYNAPSE-553
p546
aVSYNAPSE-552
p547
aVSYNAPSE-551
p548
aVSYNAPSE-550
p549
aVSYNAPSE-549
p550
aVSYNAPSE-548
p551
aVSYNAPSE-547
p552
aVSYNAPSE-546
p553
aVSYNAPSE-545
p554
aVSYNAPSE-544
p555
aVSYNAPSE-543
p556
aVSYNAPSE-542
p557
aVSYNAPSE-541
p558
aVSYNAPSE-540
p559
aVSYNAPSE-539
p560
aVSYNAPSE-538
p561
aVSYNAPSE-537
p562
aVSYNAPSE-536
p563
aVSYNAPSE-535
p564
aVSYNAPSE-534
p565
aVSYNAPSE-533
p566
aVSYNAPSE-532
p567
aVSYNAPSE-531
p568
aVSYNAPSE-530
p569
aVSYNAPSE-529
p570
aVSYNAPSE-528
p571
aVSYNAPSE-527
p572
aVSYNAPSE-526
p573
aVSYNAPSE-525
p574
aVSYNAPSE-524
p575
aVSYNAPSE-523
p576
aVSYNAPSE-522
p577
aVSYNAPSE-521
p578
aVSYNAPSE-520
p579
aVSYNAPSE-519
p580
aVSYNAPSE-518
p581
aVSYNAPSE-517
p582
aVSYNAPSE-516
p583
aVSYNAPSE-515
p584
aVSYNAPSE-514
p585
aVSYNAPSE-513
p586
aVSYNAPSE-512
p587
aVSYNAPSE-511
p588
aVSYNAPSE-510
p589
aVSYNAPSE-509
p590
aVSYNAPSE-508
p591
aVSYNAPSE-507
p592
aVSYNAPSE-506
p593
aVSYNAPSE-505
p594
aVSYNAPSE-504
p595
aVSYNAPSE-503
p596
aVSYNAPSE-502
p597
aVSYNAPSE-501
p598
aVSYNAPSE-500
p599
aVSYNAPSE-499
p600
aVSYNAPSE-498
p601
aVSYNAPSE-497
p602
aVSYNAPSE-496
p603
aVSYNAPSE-495
p604
aVSYNAPSE-494
p605
aVSYNAPSE-493
p606
aVSYNAPSE-492
p607
aVSYNAPSE-491
p608
aVSYNAPSE-490
p609
aVSYNAPSE-489
p610
aVSYNAPSE-488
p611
aVSYNAPSE-487
p612
aVSYNAPSE-486
p613
aVSYNAPSE-485
p614
aVSYNAPSE-484
p615
aVSYNAPSE-483
p616
aVSYNAPSE-482
p617
aVSYNAPSE-481
p618
aVSYNAPSE-480
p619
aVSYNAPSE-479
p620
aVSYNAPSE-478
p621
aVSYNAPSE-477
p622
aVSYNAPSE-476
p623
aVSYNAPSE-475
p624
aVSYNAPSE-474
p625
aVSYNAPSE-473
p626
aVSYNAPSE-472
p627
aVSYNAPSE-471
p628
aVSYNAPSE-470
p629
aVSYNAPSE-469
p630
aVSYNAPSE-468
p631
aVSYNAPSE-467
p632
aVSYNAPSE-466
p633
aVSYNAPSE-465
p634
aVSYNAPSE-464
p635
aVSYNAPSE-463
p636
aVSYNAPSE-462
p637
aVSYNAPSE-461
p638
aVSYNAPSE-460
p639
aVSYNAPSE-459
p640
aVSYNAPSE-458
p641
aVSYNAPSE-457
p642
aVSYNAPSE-456
p643
aVSYNAPSE-455
p644
aVSYNAPSE-454
p645
aVSYNAPSE-453
p646
aVSYNAPSE-452
p647
aVSYNAPSE-451
p648
aVSYNAPSE-450
p649
aVSYNAPSE-448
p650
aVSYNAPSE-447
p651
aVSYNAPSE-446
p652
aVSYNAPSE-445
p653
aVSYNAPSE-444
p654
aVSYNAPSE-443
p655
aVSYNAPSE-442
p656
aVSYNAPSE-441
p657
aVSYNAPSE-440
p658
aVSYNAPSE-439
p659
aVSYNAPSE-438
p660
aVSYNAPSE-437
p661
aVSYNAPSE-436
p662
aVSYNAPSE-435
p663
aVSYNAPSE-434
p664
aVSYNAPSE-433
p665
aVSYNAPSE-432
p666
aVSYNAPSE-431
p667
aVSYNAPSE-430
p668
aVSYNAPSE-429
p669
aVSYNAPSE-428
p670
aVSYNAPSE-427
p671
aVSYNAPSE-426
p672
aVSYNAPSE-425
p673
aVSYNAPSE-424
p674
aVSYNAPSE-423
p675
aVSYNAPSE-422
p676
aVSYNAPSE-421
p677
aVSYNAPSE-420
p678
aVSYNAPSE-419
p679
aVSYNAPSE-418
p680
aVSYNAPSE-417
p681
aVSYNAPSE-416
p682
aVSYNAPSE-415
p683
aVSYNAPSE-414
p684
aVSYNAPSE-413
p685
aVSYNAPSE-412
p686
aVSYNAPSE-411
p687
aVSYNAPSE-410
p688
aVSYNAPSE-409
p689
aVSYNAPSE-408
p690
aVSYNAPSE-407
p691
aVSYNAPSE-406
p692
aVSYNAPSE-405
p693
aVSYNAPSE-404
p694
aVSYNAPSE-403
p695
aVSYNAPSE-402
p696
aVSYNAPSE-401
p697
aVSYNAPSE-400
p698
aVSYNAPSE-399
p699
aVSYNAPSE-398
p700
aVSYNAPSE-397
p701
aVSYNAPSE-396
p702
aVSYNAPSE-395
p703
aVSYNAPSE-394
p704
aVSYNAPSE-393
p705
aVSYNAPSE-392
p706
aVSYNAPSE-391
p707
aVSYNAPSE-390
p708
aVSYNAPSE-389
p709
aVSYNAPSE-388
p710
aVSYNAPSE-387
p711
aVSYNAPSE-386
p712
aVSYNAPSE-385
p713
aVSYNAPSE-384
p714
aVSYNAPSE-383
p715
aVSYNAPSE-382
p716
aVSYNAPSE-381
p717
aVSYNAPSE-380
p718
aVSYNAPSE-379
p719
aVSYNAPSE-378
p720
aVSYNAPSE-377
p721
aVSYNAPSE-376
p722
aVSYNAPSE-375
p723
aVSYNAPSE-374
p724
aVSYNAPSE-373
p725
aVSYNAPSE-372
p726
aVSYNAPSE-371
p727
aVSYNAPSE-370
p728
aVSYNAPSE-369
p729
aVSYNAPSE-368
p730
aVSYNAPSE-367
p731
aVSYNAPSE-366
p732
aVSYNAPSE-365
p733
aVSYNAPSE-364
p734
aVSYNAPSE-363
p735
aVSYNAPSE-362
p736
aVSYNAPSE-361
p737
aVSYNAPSE-360
p738
aVSYNAPSE-359
p739
aVSYNAPSE-358
p740
aVSYNAPSE-357
p741
aVSYNAPSE-356
p742
aVSYNAPSE-355
p743
aVSYNAPSE-354
p744
aVSYNAPSE-353
p745
aVSYNAPSE-352
p746
aVSYNAPSE-351
p747
aVSYNAPSE-350
p748
aVSYNAPSE-349
p749
aVSYNAPSE-348
p750
aVSYNAPSE-347
p751
aVSYNAPSE-346
p752
aVSYNAPSE-345
p753
aVSYNAPSE-344
p754
aVSYNAPSE-343
p755
aVSYNAPSE-342
p756
aVSYNAPSE-341
p757
aVSYNAPSE-340
p758
aVSYNAPSE-339
p759
aVSYNAPSE-338
p760
aVSYNAPSE-337
p761
aVSYNAPSE-336
p762
aVSYNAPSE-335
p763
aVSYNAPSE-334
p764
aVSYNAPSE-333
p765
aVSYNAPSE-332
p766
aVSYNAPSE-331
p767
aVSYNAPSE-330
p768
aVSYNAPSE-329
p769
aVSYNAPSE-328
p770
aVSYNAPSE-327
p771
aVSYNAPSE-326
p772
aVSYNAPSE-325
p773
aVSYNAPSE-324
p774
aVSYNAPSE-323
p775
aVSYNAPSE-322
p776
aVSYNAPSE-321
p777
aVSYNAPSE-320
p778
aVSYNAPSE-319
p779
aVSYNAPSE-318
p780
aVSYNAPSE-317
p781
aVSYNAPSE-316
p782
aVSYNAPSE-315
p783
aVSYNAPSE-314
p784
aVSYNAPSE-313
p785
aVSYNAPSE-312
p786
aVSYNAPSE-311
p787
aVSYNAPSE-310
p788
aVSYNAPSE-309
p789
aVSYNAPSE-308
p790
aVSYNAPSE-307
p791
aVSYNAPSE-306
p792
aVSYNAPSE-305
p793
aVSYNAPSE-304
p794
aVSYNAPSE-303
p795
aVSYNAPSE-302
p796
aVSYNAPSE-301
p797
aVSYNAPSE-300
p798
aVSYNAPSE-299
p799
aVSYNAPSE-298
p800
aVSYNAPSE-297
p801
aVSYNAPSE-296
p802
aVSYNAPSE-295
p803
aVSYNAPSE-294
p804
aVSYNAPSE-293
p805
aVSYNAPSE-292
p806
aVSYNAPSE-291
p807
aVSYNAPSE-290
p808
aVSYNAPSE-289
p809
aVSYNAPSE-288
p810
aVSYNAPSE-287
p811
aVSYNAPSE-286
p812
aVSYNAPSE-285
p813
aVSYNAPSE-284
p814
aVSYNAPSE-283
p815
aVSYNAPSE-282
p816
aVSYNAPSE-281
p817
aVSYNAPSE-280
p818
aVSYNAPSE-279
p819
aVSYNAPSE-278
p820
aVSYNAPSE-277
p821
aVSYNAPSE-276
p822
aVSYNAPSE-275
p823
aVSYNAPSE-274
p824
aVSYNAPSE-273
p825
aVSYNAPSE-272
p826
aVSYNAPSE-271
p827
aVSYNAPSE-270
p828
aVSYNAPSE-269
p829
aVSYNAPSE-268
p830
aVSYNAPSE-267
p831
aVSYNAPSE-266
p832
aVSYNAPSE-265
p833
aVSYNAPSE-264
p834
aVSYNAPSE-263
p835
aVSYNAPSE-262
p836
aVSYNAPSE-261
p837
aVSYNAPSE-260
p838
aVSYNAPSE-259
p839
aVSYNAPSE-258
p840
aVSYNAPSE-257
p841
aVSYNAPSE-256
p842
aVSYNAPSE-255
p843
aVSYNAPSE-254
p844
aVSYNAPSE-253
p845
aVSYNAPSE-252
p846
aVSYNAPSE-251
p847
aVSYNAPSE-250
p848
aVSYNAPSE-249
p849
aVSYNAPSE-248
p850
aVSYNAPSE-247
p851
aVSYNAPSE-246
p852
aVSYNAPSE-245
p853
aVSYNAPSE-244
p854
aVSYNAPSE-243
p855
aVSYNAPSE-242
p856
aVSYNAPSE-241
p857
aVSYNAPSE-240
p858
aVSYNAPSE-239
p859
aVSYNAPSE-238
p860
aVSYNAPSE-237
p861
aVSYNAPSE-236
p862
aVSYNAPSE-235
p863
aVSYNAPSE-234
p864
aVSYNAPSE-233
p865
aVSYNAPSE-232
p866
aVSYNAPSE-231
p867
aVSYNAPSE-230
p868
aVSYNAPSE-229
p869
aVSYNAPSE-228
p870
aVSYNAPSE-227
p871
aVSYNAPSE-226
p872
aVSYNAPSE-225
p873
aVSYNAPSE-224
p874
aVSYNAPSE-223
p875
aVSYNAPSE-222
p876
aVSYNAPSE-221
p877
aVSYNAPSE-220
p878
aVSYNAPSE-219
p879
aVSYNAPSE-218
p880
aVSYNAPSE-217
p881
aVSYNAPSE-216
p882
aVSYNAPSE-215
p883
aVSYNAPSE-214
p884
aVSYNAPSE-213
p885
aVSYNAPSE-212
p886
aVSYNAPSE-211
p887
aVSYNAPSE-210
p888
aVSYNAPSE-209
p889
aVSYNAPSE-208
p890
aVSYNAPSE-207
p891
aVSYNAPSE-206
p892
aVSYNAPSE-205
p893
aVSYNAPSE-204
p894
aVSYNAPSE-203
p895
aVSYNAPSE-202
p896
aVSYNAPSE-201
p897
aVSYNAPSE-200
p898
aVSYNAPSE-199
p899
aVSYNAPSE-198
p900
aVSYNAPSE-197
p901
aVSYNAPSE-196
p902
aVSYNAPSE-195
p903
aVSYNAPSE-194
p904
aVSYNAPSE-193
p905
aVSYNAPSE-192
p906
aVSYNAPSE-191
p907
aVSYNAPSE-190
p908
aVSYNAPSE-189
p909
aVSYNAPSE-188
p910
aVSYNAPSE-187
p911
aVSYNAPSE-186
p912
aVSYNAPSE-185
p913
aVSYNAPSE-184
p914
aVSYNAPSE-183
p915
aVSYNAPSE-182
p916
aVSYNAPSE-181
p917
aVSYNAPSE-180
p918
aVSYNAPSE-179
p919
aVSYNAPSE-178
p920
aVSYNAPSE-177
p921
aVSYNAPSE-176
p922
aVSYNAPSE-175
p923
aVSYNAPSE-174
p924
aVSYNAPSE-173
p925
aVSYNAPSE-172
p926
aVSYNAPSE-171
p927
aVSYNAPSE-170
p928
aVSYNAPSE-169
p929
aVSYNAPSE-168
p930
aVSYNAPSE-167
p931
aVSYNAPSE-166
p932
aVSYNAPSE-165
p933
aVSYNAPSE-164
p934
aVSYNAPSE-163
p935
aVSYNAPSE-162
p936
aVSYNAPSE-161
p937
aVSYNAPSE-160
p938
aVSYNAPSE-159
p939
aVSYNAPSE-158
p940
aVSYNAPSE-157
p941
aVSYNAPSE-156
p942
aVSYNAPSE-155
p943
aVSYNAPSE-154
p944
aVSYNAPSE-153
p945
aVSYNAPSE-152
p946
aVSYNAPSE-151
p947
aVSYNAPSE-150
p948
aVSYNAPSE-149
p949
aVSYNAPSE-148
p950
aVSYNAPSE-147
p951
aVSYNAPSE-146
p952
aVSYNAPSE-145
p953
aVSYNAPSE-144
p954
aVSYNAPSE-143
p955
aVSYNAPSE-142
p956
aVSYNAPSE-141
p957
aVSYNAPSE-140
p958
aVSYNAPSE-139
p959
aVSYNAPSE-138
p960
aVSYNAPSE-137
p961
aVSYNAPSE-136
p962
aVSYNAPSE-135
p963
aVSYNAPSE-134
p964
aVSYNAPSE-133
p965
aVSYNAPSE-132
p966
aVSYNAPSE-131
p967
aVSYNAPSE-130
p968
aVSYNAPSE-129
p969
aVSYNAPSE-128
p970
aVSYNAPSE-127
p971
aVSYNAPSE-126
p972
aVSYNAPSE-125
p973
aVSYNAPSE-124
p974
aVSYNAPSE-123
p975
aVSYNAPSE-122
p976
aVSYNAPSE-121
p977
aVSYNAPSE-120
p978
aVSYNAPSE-119
p979
aVSYNAPSE-118
p980
aVSYNAPSE-117
p981
aVSYNAPSE-116
p982
aVSYNAPSE-115
p983
aVSYNAPSE-114
p984
aVSYNAPSE-113
p985
aVSYNAPSE-112
p986
aVSYNAPSE-111
p987
aVSYNAPSE-110
p988
aVSYNAPSE-109
p989
aVSYNAPSE-108
p990
aVSYNAPSE-107
p991
aVSYNAPSE-106
p992
aVSYNAPSE-105
p993
aVSYNAPSE-104
p994
aVSYNAPSE-103
p995
aVSYNAPSE-102
p996
aVSYNAPSE-101
p997
aVSYNAPSE-100
p998
aVSYNAPSE-99
p999
aVSYNAPSE-98
p1000
aVSYNAPSE-97
p1001
aVSYNAPSE-96
p1002
aVSYNAPSE-95
p1003
aVSYNAPSE-94
p1004
aVSYNAPSE-93
p1005
aVSYNAPSE-92
p1006
aVSYNAPSE-91
p1007
aVSYNAPSE-90
p1008
aVSYNAPSE-89
p1009
aVSYNAPSE-88
p1010
aVSYNAPSE-87
p1011
aVSYNAPSE-86
p1012
aVSYNAPSE-85
p1013
aVSYNAPSE-84
p1014
aVSYNAPSE-83
p1015
aVSYNAPSE-82
p1016
aVSYNAPSE-81
p1017
aVSYNAPSE-80
p1018
aVSYNAPSE-79
p1019
aVSYNAPSE-78
p1020
aVSYNAPSE-77
p1021
aVSYNAPSE-76
p1022
aVSYNAPSE-75
p1023
aVSYNAPSE-74
p1024
aVSYNAPSE-73
p1025
aVSYNAPSE-72
p1026
aVSYNAPSE-71
p1027
aVSYNAPSE-70
p1028
aVSYNAPSE-69
p1029
aVSYNAPSE-68
p1030
aVSYNAPSE-67
p1031
aVSYNAPSE-66
p1032
aVSYNAPSE-65
p1033
aVSYNAPSE-64
p1034
aVSYNAPSE-63
p1035
aVSYNAPSE-62
p1036
aVSYNAPSE-61
p1037
aVSYNAPSE-60
p1038
aVSYNAPSE-59
p1039
aVSYNAPSE-58
p1040
aVSYNAPSE-57
p1041
aVSYNAPSE-56
p1042
aVSYNAPSE-55
p1043
aVSYNAPSE-54
p1044
aVSYNAPSE-53
p1045
aVSYNAPSE-52
p1046
aVSYNAPSE-51
p1047
aVSYNAPSE-50
p1048
aVSYNAPSE-49
p1049
aVSYNAPSE-48
p1050
aVSYNAPSE-47
p1051
aVSYNAPSE-46
p1052
aVSYNAPSE-45
p1053
aVSYNAPSE-44
p1054
aVSYNAPSE-43
p1055
aVSYNAPSE-42
p1056
aVSYNAPSE-41
p1057
aVSYNAPSE-40
p1058
aVSYNAPSE-39
p1059
aVSYNAPSE-38
p1060
aVSYNAPSE-37
p1061
aVSYNAPSE-36
p1062
aVSYNAPSE-35
p1063
aVSYNAPSE-34
p1064
aVSYNAPSE-33
p1065
aVSYNAPSE-32
p1066
aVSYNAPSE-31
p1067
aVSYNAPSE-30
p1068
aVSYNAPSE-29
p1069
aVSYNAPSE-28
p1070
aVSYNAPSE-27
p1071
aVSYNAPSE-26
p1072
aVSYNAPSE-25
p1073
aVSYNAPSE-24
p1074
aVSYNAPSE-23
p1075
aVSYNAPSE-22
p1076
aVSYNAPSE-21
p1077
aVSYNAPSE-20
p1078
aVSYNAPSE-19
p1079
aVSYNAPSE-18
p1080
aVSYNAPSE-17
p1081
aVSYNAPSE-16
p1082
aVSYNAPSE-15
p1083
aVSYNAPSE-14
p1084
aVSYNAPSE-13
p1085
aVSYNAPSE-12
p1086
aVSYNAPSE-11
p1087
aVSYNAPSE-6
p1088
aVSYNAPSE-5
p1089
aVSYNAPSE-4
p1090
aVSYNAPSE-3
p1091
aVSYNAPSE-2
p1092
aVSYNAPSE-1
p1093
a.