(lp0
VSYNCOPE-1348
p1
aVSYNCOPE-1347
p2
aVSYNCOPE-1346
p3
aVSYNCOPE-1345
p4
aVSYNCOPE-1344
p5
aVSYNCOPE-1343
p6
aVSYNCOPE-1342
p7
aVSYNCOPE-1341
p8
aVSYNCOPE-1340
p9
aVSYNCOPE-1339
p10
aVSYNCOPE-1338
p11
aVSYNCOPE-1337
p12
aVSYNCOPE-1336
p13
aVSYNCOPE-1335
p14
aVSYNCOPE-1334
p15
aVSYNCOPE-1333
p16
aVSYNCOPE-1332
p17
aVSYNCOPE-1331
p18
aVSYNCOPE-1330
p19
aVSYNCOPE-1329
p20
aVSYNCOPE-1328
p21
aVSYNCOPE-1327
p22
aVSYNCOPE-1326
p23
aVSYNCOPE-1325
p24
aVSYNCOPE-1324
p25
aVSYNCOPE-1323
p26
aVSYNCOPE-1322
p27
aVSYNCOPE-1321
p28
aVSYNCOPE-1320
p29
aVSYNCOPE-1319
p30
aVSYNCOPE-1318
p31
aVSYNCOPE-1317
p32
aVSYNCOPE-1316
p33
aVSYNCOPE-1315
p34
aVSYNCOPE-1314
p35
aVSYNCOPE-1313
p36
aVSYNCOPE-1312
p37
aVSYNCOPE-1311
p38
aVSYNCOPE-1310
p39
aVSYNCOPE-1309
p40
aVSYNCOPE-1308
p41
aVSYNCOPE-1307
p42
aVSYNCOPE-1306
p43
aVSYNCOPE-1305
p44
aVSYNCOPE-1304
p45
aVSYNCOPE-1303
p46
aVSYNCOPE-1302
p47
aVSYNCOPE-1301
p48
aVSYNCOPE-1300
p49
aVSYNCOPE-1299
p50
aVSYNCOPE-1298
p51
aVSYNCOPE-1297
p52
aVSYNCOPE-1296
p53
aVSYNCOPE-1295
p54
aVSYNCOPE-1294
p55
aVSYNCOPE-1293
p56
aVSYNCOPE-1292
p57
aVSYNCOPE-1291
p58
aVSYNCOPE-1290
p59
aVSYNCOPE-1289
p60
aVSYNCOPE-1288
p61
aVSYNCOPE-1287
p62
aVSYNCOPE-1286
p63
aVSYNCOPE-1285
p64
aVSYNCOPE-1284
p65
aVSYNCOPE-1283
p66
aVSYNCOPE-1282
p67
aVSYNCOPE-1281
p68
aVSYNCOPE-1280
p69
aVSYNCOPE-1279
p70
aVSYNCOPE-1278
p71
aVSYNCOPE-1277
p72
aVSYNCOPE-1276
p73
aVSYNCOPE-1275
p74
aVSYNCOPE-1274
p75
aVSYNCOPE-1273
p76
aVSYNCOPE-1272
p77
aVSYNCOPE-1271
p78
aVSYNCOPE-1270
p79
aVSYNCOPE-1269
p80
aVSYNCOPE-1268
p81
aVSYNCOPE-1267
p82
aVSYNCOPE-1266
p83
aVSYNCOPE-1265
p84
aVSYNCOPE-1264
p85
aVSYNCOPE-1263
p86
aVSYNCOPE-1262
p87
aVSYNCOPE-1261
p88
aVSYNCOPE-1260
p89
aVSYNCOPE-1259
p90
aVSYNCOPE-1258
p91
aVSYNCOPE-1257
p92
aVSYNCOPE-1256
p93
aVSYNCOPE-1255
p94
aVSYNCOPE-1254
p95
aVSYNCOPE-1253
p96
aVSYNCOPE-1252
p97
aVSYNCOPE-1251
p98
aVSYNCOPE-1250
p99
aVSYNCOPE-1249
p100
aVSYNCOPE-1248
p101
aVSYNCOPE-1247
p102
aVSYNCOPE-1246
p103
aVSYNCOPE-1245
p104
aVSYNCOPE-1244
p105
aVSYNCOPE-1243
p106
aVSYNCOPE-1242
p107
aVSYNCOPE-1241
p108
aVSYNCOPE-1240
p109
aVSYNCOPE-1239
p110
aVSYNCOPE-1238
p111
aVSYNCOPE-1237
p112
aVSYNCOPE-1236
p113
aVSYNCOPE-1235
p114
aVSYNCOPE-1234
p115
aVSYNCOPE-1233
p116
aVSYNCOPE-1232
p117
aVSYNCOPE-1231
p118
aVSYNCOPE-1230
p119
aVSYNCOPE-1229
p120
aVSYNCOPE-1228
p121
aVSYNCOPE-1227
p122
aVSYNCOPE-1226
p123
aVSYNCOPE-1225
p124
aVSYNCOPE-1224
p125
aVSYNCOPE-1223
p126
aVSYNCOPE-1222
p127
aVSYNCOPE-1221
p128
aVSYNCOPE-1220
p129
aVSYNCOPE-1219
p130
aVSYNCOPE-1218
p131
aVSYNCOPE-1217
p132
aVSYNCOPE-1216
p133
aVSYNCOPE-1215
p134
aVSYNCOPE-1214
p135
aVSYNCOPE-1213
p136
aVSYNCOPE-1212
p137
aVSYNCOPE-1211
p138
aVSYNCOPE-1210
p139
aVSYNCOPE-1209
p140
aVSYNCOPE-1208
p141
aVSYNCOPE-1207
p142
aVSYNCOPE-1206
p143
aVSYNCOPE-1205
p144
aVSYNCOPE-1204
p145
aVSYNCOPE-1203
p146
aVSYNCOPE-1202
p147
aVSYNCOPE-1201
p148
aVSYNCOPE-1200
p149
aVSYNCOPE-1199
p150
aVSYNCOPE-1198
p151
aVSYNCOPE-1197
p152
aVSYNCOPE-1196
p153
aVSYNCOPE-1195
p154
aVSYNCOPE-1194
p155
aVSYNCOPE-1193
p156
aVSYNCOPE-1192
p157
aVSYNCOPE-1191
p158
aVSYNCOPE-1190
p159
aVSYNCOPE-1189
p160
aVSYNCOPE-1188
p161
aVSYNCOPE-1187
p162
aVSYNCOPE-1186
p163
aVSYNCOPE-1185
p164
aVSYNCOPE-1184
p165
aVSYNCOPE-1183
p166
aVSYNCOPE-1182
p167
aVSYNCOPE-1181
p168
aVSYNCOPE-1180
p169
aVSYNCOPE-1179
p170
aVSYNCOPE-1178
p171
aVSYNCOPE-1177
p172
aVSYNCOPE-1176
p173
aVSYNCOPE-1175
p174
aVSYNCOPE-1174
p175
aVSYNCOPE-1173
p176
aVSYNCOPE-1172
p177
aVSYNCOPE-1171
p178
aVSYNCOPE-1170
p179
aVSYNCOPE-1169
p180
aVSYNCOPE-1168
p181
aVSYNCOPE-1167
p182
aVSYNCOPE-1166
p183
aVSYNCOPE-1165
p184
aVSYNCOPE-1164
p185
aVSYNCOPE-1163
p186
aVSYNCOPE-1162
p187
aVSYNCOPE-1161
p188
aVSYNCOPE-1160
p189
aVSYNCOPE-1159
p190
aVSYNCOPE-1158
p191
aVSYNCOPE-1157
p192
aVSYNCOPE-1156
p193
aVSYNCOPE-1155
p194
aVSYNCOPE-1154
p195
aVSYNCOPE-1153
p196
aVSYNCOPE-1152
p197
aVSYNCOPE-1151
p198
aVSYNCOPE-1150
p199
aVSYNCOPE-1149
p200
aVSYNCOPE-1148
p201
aVSYNCOPE-1147
p202
aVSYNCOPE-1146
p203
aVSYNCOPE-1145
p204
aVSYNCOPE-1144
p205
aVSYNCOPE-1143
p206
aVSYNCOPE-1142
p207
aVSYNCOPE-1141
p208
aVSYNCOPE-1140
p209
aVSYNCOPE-1139
p210
aVSYNCOPE-1138
p211
aVSYNCOPE-1137
p212
aVSYNCOPE-1136
p213
aVSYNCOPE-1135
p214
aVSYNCOPE-1134
p215
aVSYNCOPE-1133
p216
aVSYNCOPE-1132
p217
aVSYNCOPE-1131
p218
aVSYNCOPE-1130
p219
aVSYNCOPE-1129
p220
aVSYNCOPE-1128
p221
aVSYNCOPE-1127
p222
aVSYNCOPE-1126
p223
aVSYNCOPE-1125
p224
aVSYNCOPE-1124
p225
aVSYNCOPE-1123
p226
aVSYNCOPE-1122
p227
aVSYNCOPE-1121
p228
aVSYNCOPE-1120
p229
aVSYNCOPE-1119
p230
aVSYNCOPE-1118
p231
aVSYNCOPE-1117
p232
aVSYNCOPE-1116
p233
aVSYNCOPE-1115
p234
aVSYNCOPE-1114
p235
aVSYNCOPE-1113
p236
aVSYNCOPE-1112
p237
aVSYNCOPE-1111
p238
aVSYNCOPE-1110
p239
aVSYNCOPE-1109
p240
aVSYNCOPE-1108
p241
aVSYNCOPE-1107
p242
aVSYNCOPE-1106
p243
aVSYNCOPE-1105
p244
aVSYNCOPE-1104
p245
aVSYNCOPE-1103
p246
aVSYNCOPE-1102
p247
aVSYNCOPE-1101
p248
aVSYNCOPE-1100
p249
aVSYNCOPE-1099
p250
aVSYNCOPE-1098
p251
aVSYNCOPE-1097
p252
aVSYNCOPE-1096
p253
aVSYNCOPE-1095
p254
aVSYNCOPE-1094
p255
aVSYNCOPE-1093
p256
aVSYNCOPE-1092
p257
aVSYNCOPE-1091
p258
aVSYNCOPE-1090
p259
aVSYNCOPE-1089
p260
aVSYNCOPE-1088
p261
aVSYNCOPE-1087
p262
aVSYNCOPE-1086
p263
aVSYNCOPE-1085
p264
aVSYNCOPE-1084
p265
aVSYNCOPE-1083
p266
aVSYNCOPE-1082
p267
aVSYNCOPE-1081
p268
aVSYNCOPE-1080
p269
aVSYNCOPE-1079
p270
aVSYNCOPE-1078
p271
aVSYNCOPE-1077
p272
aVSYNCOPE-1076
p273
aVSYNCOPE-1075
p274
aVSYNCOPE-1074
p275
aVSYNCOPE-1073
p276
aVSYNCOPE-1072
p277
aVSYNCOPE-1071
p278
aVSYNCOPE-1070
p279
aVSYNCOPE-1069
p280
aVSYNCOPE-1068
p281
aVSYNCOPE-1067
p282
aVSYNCOPE-1066
p283
aVSYNCOPE-1065
p284
aVSYNCOPE-1064
p285
aVSYNCOPE-1063
p286
aVSYNCOPE-1062
p287
aVSYNCOPE-1061
p288
aVSYNCOPE-1060
p289
aVSYNCOPE-1059
p290
aVSYNCOPE-1058
p291
aVSYNCOPE-1057
p292
aVSYNCOPE-1056
p293
aVSYNCOPE-1055
p294
aVSYNCOPE-1054
p295
aVSYNCOPE-1053
p296
aVSYNCOPE-1052
p297
aVSYNCOPE-1051
p298
aVSYNCOPE-1050
p299
aVSYNCOPE-1049
p300
aVSYNCOPE-1048
p301
aVSYNCOPE-1047
p302
aVSYNCOPE-1046
p303
aVSYNCOPE-1045
p304
aVSYNCOPE-1044
p305
aVSYNCOPE-1043
p306
aVSYNCOPE-1042
p307
aVSYNCOPE-1041
p308
aVSYNCOPE-1040
p309
aVSYNCOPE-1039
p310
aVSYNCOPE-1038
p311
aVSYNCOPE-1037
p312
aVSYNCOPE-1036
p313
aVSYNCOPE-1035
p314
aVSYNCOPE-1034
p315
aVSYNCOPE-1033
p316
aVSYNCOPE-1032
p317
aVSYNCOPE-1031
p318
aVSYNCOPE-1030
p319
aVSYNCOPE-1029
p320
aVSYNCOPE-1028
p321
aVSYNCOPE-1027
p322
aVSYNCOPE-1026
p323
aVSYNCOPE-1025
p324
aVSYNCOPE-1024
p325
aVSYNCOPE-1023
p326
aVSYNCOPE-1022
p327
aVSYNCOPE-1021
p328
aVSYNCOPE-1020
p329
aVSYNCOPE-1019
p330
aVSYNCOPE-1018
p331
aVSYNCOPE-1017
p332
aVSYNCOPE-1016
p333
aVSYNCOPE-1015
p334
aVSYNCOPE-1014
p335
aVSYNCOPE-1013
p336
aVSYNCOPE-1012
p337
aVSYNCOPE-1011
p338
aVSYNCOPE-1010
p339
aVSYNCOPE-1009
p340
aVSYNCOPE-1008
p341
aVSYNCOPE-1007
p342
aVSYNCOPE-1006
p343
aVSYNCOPE-1005
p344
aVSYNCOPE-1004
p345
aVSYNCOPE-1003
p346
aVSYNCOPE-1002
p347
aVSYNCOPE-1001
p348
aVSYNCOPE-1000
p349
aVSYNCOPE-999
p350
aVSYNCOPE-998
p351
aVSYNCOPE-997
p352
aVSYNCOPE-996
p353
aVSYNCOPE-995
p354
aVSYNCOPE-994
p355
aVSYNCOPE-993
p356
aVSYNCOPE-992
p357
aVSYNCOPE-991
p358
aVSYNCOPE-990
p359
aVSYNCOPE-989
p360
aVSYNCOPE-988
p361
aVSYNCOPE-987
p362
aVSYNCOPE-986
p363
aVSYNCOPE-985
p364
aVSYNCOPE-984
p365
aVSYNCOPE-983
p366
aVSYNCOPE-982
p367
aVSYNCOPE-981
p368
aVSYNCOPE-980
p369
aVSYNCOPE-979
p370
aVSYNCOPE-978
p371
aVSYNCOPE-977
p372
aVSYNCOPE-976
p373
aVSYNCOPE-975
p374
aVSYNCOPE-974
p375
aVSYNCOPE-973
p376
aVSYNCOPE-972
p377
aVSYNCOPE-971
p378
aVSYNCOPE-970
p379
aVSYNCOPE-969
p380
aVSYNCOPE-968
p381
aVSYNCOPE-967
p382
aVSYNCOPE-966
p383
aVSYNCOPE-965
p384
aVSYNCOPE-964
p385
aVSYNCOPE-963
p386
aVSYNCOPE-962
p387
aVSYNCOPE-961
p388
aVSYNCOPE-960
p389
aVSYNCOPE-959
p390
aVSYNCOPE-958
p391
aVSYNCOPE-957
p392
aVSYNCOPE-956
p393
aVSYNCOPE-955
p394
aVSYNCOPE-954
p395
aVSYNCOPE-953
p396
aVSYNCOPE-952
p397
aVSYNCOPE-951
p398
aVSYNCOPE-950
p399
aVSYNCOPE-949
p400
aVSYNCOPE-948
p401
aVSYNCOPE-947
p402
aVSYNCOPE-946
p403
aVSYNCOPE-945
p404
aVSYNCOPE-944
p405
aVSYNCOPE-943
p406
aVSYNCOPE-942
p407
aVSYNCOPE-941
p408
aVSYNCOPE-940
p409
aVSYNCOPE-939
p410
aVSYNCOPE-938
p411
aVSYNCOPE-937
p412
aVSYNCOPE-936
p413
aVSYNCOPE-935
p414
aVSYNCOPE-934
p415
aVSYNCOPE-933
p416
aVSYNCOPE-932
p417
aVSYNCOPE-931
p418
aVSYNCOPE-930
p419
aVSYNCOPE-929
p420
aVSYNCOPE-928
p421
aVSYNCOPE-927
p422
aVSYNCOPE-926
p423
aVSYNCOPE-925
p424
aVSYNCOPE-924
p425
aVSYNCOPE-923
p426
aVSYNCOPE-922
p427
aVSYNCOPE-921
p428
aVSYNCOPE-920
p429
aVSYNCOPE-919
p430
aVSYNCOPE-918
p431
aVSYNCOPE-917
p432
aVSYNCOPE-916
p433
aVSYNCOPE-915
p434
aVSYNCOPE-914
p435
aVSYNCOPE-913
p436
aVSYNCOPE-912
p437
aVSYNCOPE-911
p438
aVSYNCOPE-910
p439
aVSYNCOPE-909
p440
aVSYNCOPE-908
p441
aVSYNCOPE-907
p442
aVSYNCOPE-906
p443
aVSYNCOPE-905
p444
aVSYNCOPE-904
p445
aVSYNCOPE-903
p446
aVSYNCOPE-902
p447
aVSYNCOPE-901
p448
aVSYNCOPE-900
p449
aVSYNCOPE-899
p450
aVSYNCOPE-898
p451
aVSYNCOPE-897
p452
aVSYNCOPE-896
p453
aVSYNCOPE-895
p454
aVSYNCOPE-894
p455
aVSYNCOPE-893
p456
aVSYNCOPE-892
p457
aVSYNCOPE-891
p458
aVSYNCOPE-890
p459
aVSYNCOPE-888
p460
aVSYNCOPE-887
p461
aVSYNCOPE-886
p462
aVSYNCOPE-885
p463
aVSYNCOPE-884
p464
aVSYNCOPE-883
p465
aVSYNCOPE-882
p466
aVSYNCOPE-881
p467
aVSYNCOPE-880
p468
aVSYNCOPE-879
p469
aVSYNCOPE-878
p470
aVSYNCOPE-877
p471
aVSYNCOPE-876
p472
aVSYNCOPE-875
p473
aVSYNCOPE-874
p474
aVSYNCOPE-873
p475
aVSYNCOPE-872
p476
aVSYNCOPE-871
p477
aVSYNCOPE-870
p478
aVSYNCOPE-869
p479
aVSYNCOPE-868
p480
aVSYNCOPE-867
p481
aVSYNCOPE-866
p482
aVSYNCOPE-865
p483
aVSYNCOPE-864
p484
aVSYNCOPE-863
p485
aVSYNCOPE-862
p486
aVSYNCOPE-861
p487
aVSYNCOPE-860
p488
aVSYNCOPE-859
p489
aVSYNCOPE-858
p490
aVSYNCOPE-857
p491
aVSYNCOPE-856
p492
aVSYNCOPE-855
p493
aVSYNCOPE-854
p494
aVSYNCOPE-853
p495
aVSYNCOPE-852
p496
aVSYNCOPE-851
p497
aVSYNCOPE-850
p498
aVSYNCOPE-849
p499
aVSYNCOPE-848
p500
aVSYNCOPE-847
p501
aVSYNCOPE-846
p502
aVSYNCOPE-845
p503
aVSYNCOPE-844
p504
aVSYNCOPE-843
p505
aVSYNCOPE-842
p506
aVSYNCOPE-841
p507
aVSYNCOPE-840
p508
aVSYNCOPE-839
p509
aVSYNCOPE-838
p510
aVSYNCOPE-837
p511
aVSYNCOPE-836
p512
aVSYNCOPE-835
p513
aVSYNCOPE-834
p514
aVSYNCOPE-833
p515
aVSYNCOPE-832
p516
aVSYNCOPE-831
p517
aVSYNCOPE-830
p518
aVSYNCOPE-829
p519
aVSYNCOPE-828
p520
aVSYNCOPE-827
p521
aVSYNCOPE-826
p522
aVSYNCOPE-825
p523
aVSYNCOPE-824
p524
aVSYNCOPE-823
p525
aVSYNCOPE-822
p526
aVSYNCOPE-821
p527
aVSYNCOPE-820
p528
aVSYNCOPE-819
p529
aVSYNCOPE-818
p530
aVSYNCOPE-817
p531
aVSYNCOPE-816
p532
aVSYNCOPE-815
p533
aVSYNCOPE-814
p534
aVSYNCOPE-813
p535
aVSYNCOPE-812
p536
aVSYNCOPE-811
p537
aVSYNCOPE-810
p538
aVSYNCOPE-809
p539
aVSYNCOPE-808
p540
aVSYNCOPE-807
p541
aVSYNCOPE-806
p542
aVSYNCOPE-805
p543
aVSYNCOPE-804
p544
aVSYNCOPE-803
p545
aVSYNCOPE-802
p546
aVSYNCOPE-801
p547
aVSYNCOPE-800
p548
aVSYNCOPE-799
p549
aVSYNCOPE-798
p550
aVSYNCOPE-797
p551
aVSYNCOPE-796
p552
aVSYNCOPE-795
p553
aVSYNCOPE-794
p554
aVSYNCOPE-793
p555
aVSYNCOPE-792
p556
aVSYNCOPE-791
p557
aVSYNCOPE-790
p558
aVSYNCOPE-789
p559
aVSYNCOPE-788
p560
aVSYNCOPE-787
p561
aVSYNCOPE-786
p562
aVSYNCOPE-785
p563
aVSYNCOPE-784
p564
aVSYNCOPE-783
p565
aVSYNCOPE-782
p566
aVSYNCOPE-781
p567
aVSYNCOPE-780
p568
aVSYNCOPE-779
p569
aVSYNCOPE-778
p570
aVSYNCOPE-777
p571
aVSYNCOPE-776
p572
aVSYNCOPE-775
p573
aVSYNCOPE-774
p574
aVSYNCOPE-773
p575
aVSYNCOPE-772
p576
aVSYNCOPE-771
p577
aVSYNCOPE-770
p578
aVSYNCOPE-769
p579
aVSYNCOPE-768
p580
aVSYNCOPE-767
p581
aVSYNCOPE-766
p582
aVSYNCOPE-765
p583
aVSYNCOPE-764
p584
aVSYNCOPE-763
p585
aVSYNCOPE-762
p586
aVSYNCOPE-761
p587
aVSYNCOPE-760
p588
aVSYNCOPE-759
p589
aVSYNCOPE-758
p590
aVSYNCOPE-757
p591
aVSYNCOPE-756
p592
aVSYNCOPE-755
p593
aVSYNCOPE-754
p594
aVSYNCOPE-753
p595
aVSYNCOPE-752
p596
aVSYNCOPE-751
p597
aVSYNCOPE-750
p598
aVSYNCOPE-749
p599
aVSYNCOPE-748
p600
aVSYNCOPE-747
p601
aVSYNCOPE-746
p602
aVSYNCOPE-745
p603
aVSYNCOPE-744
p604
aVSYNCOPE-743
p605
aVSYNCOPE-742
p606
aVSYNCOPE-741
p607
aVSYNCOPE-740
p608
aVSYNCOPE-739
p609
aVSYNCOPE-738
p610
aVSYNCOPE-737
p611
aVSYNCOPE-736
p612
aVSYNCOPE-735
p613
aVSYNCOPE-734
p614
aVSYNCOPE-733
p615
aVSYNCOPE-732
p616
aVSYNCOPE-731
p617
aVSYNCOPE-730
p618
aVSYNCOPE-729
p619
aVSYNCOPE-728
p620
aVSYNCOPE-727
p621
aVSYNCOPE-726
p622
aVSYNCOPE-725
p623
aVSYNCOPE-724
p624
aVSYNCOPE-723
p625
aVSYNCOPE-722
p626
aVSYNCOPE-721
p627
aVSYNCOPE-720
p628
aVSYNCOPE-719
p629
aVSYNCOPE-718
p630
aVSYNCOPE-717
p631
aVSYNCOPE-716
p632
aVSYNCOPE-715
p633
aVSYNCOPE-714
p634
aVSYNCOPE-713
p635
aVSYNCOPE-712
p636
aVSYNCOPE-711
p637
aVSYNCOPE-710
p638
aVSYNCOPE-709
p639
aVSYNCOPE-708
p640
aVSYNCOPE-707
p641
aVSYNCOPE-706
p642
aVSYNCOPE-705
p643
aVSYNCOPE-704
p644
aVSYNCOPE-703
p645
aVSYNCOPE-702
p646
aVSYNCOPE-701
p647
aVSYNCOPE-700
p648
aVSYNCOPE-699
p649
aVSYNCOPE-698
p650
aVSYNCOPE-697
p651
aVSYNCOPE-696
p652
aVSYNCOPE-695
p653
aVSYNCOPE-694
p654
aVSYNCOPE-693
p655
aVSYNCOPE-692
p656
aVSYNCOPE-691
p657
aVSYNCOPE-690
p658
aVSYNCOPE-689
p659
aVSYNCOPE-688
p660
aVSYNCOPE-687
p661
aVSYNCOPE-686
p662
aVSYNCOPE-685
p663
aVSYNCOPE-684
p664
aVSYNCOPE-683
p665
aVSYNCOPE-682
p666
aVSYNCOPE-681
p667
aVSYNCOPE-680
p668
aVSYNCOPE-679
p669
aVSYNCOPE-678
p670
aVSYNCOPE-677
p671
aVSYNCOPE-676
p672
aVSYNCOPE-675
p673
aVSYNCOPE-674
p674
aVSYNCOPE-673
p675
aVSYNCOPE-672
p676
aVSYNCOPE-671
p677
aVSYNCOPE-670
p678
aVSYNCOPE-669
p679
aVSYNCOPE-668
p680
aVSYNCOPE-667
p681
aVSYNCOPE-666
p682
aVSYNCOPE-665
p683
aVSYNCOPE-664
p684
aVSYNCOPE-663
p685
aVSYNCOPE-662
p686
aVSYNCOPE-661
p687
aVSYNCOPE-660
p688
aVSYNCOPE-659
p689
aVSYNCOPE-658
p690
aVSYNCOPE-657
p691
aVSYNCOPE-656
p692
aVSYNCOPE-655
p693
aVSYNCOPE-654
p694
aVSYNCOPE-653
p695
aVSYNCOPE-652
p696
aVSYNCOPE-651
p697
aVSYNCOPE-650
p698
aVSYNCOPE-649
p699
aVSYNCOPE-648
p700
aVSYNCOPE-647
p701
aVSYNCOPE-646
p702
aVSYNCOPE-645
p703
aVSYNCOPE-644
p704
aVSYNCOPE-643
p705
aVSYNCOPE-642
p706
aVSYNCOPE-641
p707
aVSYNCOPE-640
p708
aVSYNCOPE-639
p709
aVSYNCOPE-638
p710
aVSYNCOPE-637
p711
aVSYNCOPE-636
p712
aVSYNCOPE-635
p713
aVSYNCOPE-634
p714
aVSYNCOPE-633
p715
aVSYNCOPE-632
p716
aVSYNCOPE-631
p717
aVSYNCOPE-630
p718
aVSYNCOPE-629
p719
aVSYNCOPE-628
p720
aVSYNCOPE-627
p721
aVSYNCOPE-626
p722
aVSYNCOPE-625
p723
aVSYNCOPE-623
p724
aVSYNCOPE-622
p725
aVSYNCOPE-621
p726
aVSYNCOPE-620
p727
aVSYNCOPE-618
p728
aVSYNCOPE-617
p729
aVSYNCOPE-616
p730
aVSYNCOPE-615
p731
aVSYNCOPE-614
p732
aVSYNCOPE-613
p733
aVSYNCOPE-612
p734
aVSYNCOPE-611
p735
aVSYNCOPE-610
p736
aVSYNCOPE-609
p737
aVSYNCOPE-608
p738
aVSYNCOPE-607
p739
aVSYNCOPE-606
p740
aVSYNCOPE-605
p741
aVSYNCOPE-604
p742
aVSYNCOPE-603
p743
aVSYNCOPE-602
p744
aVSYNCOPE-601
p745
aVSYNCOPE-600
p746
aVSYNCOPE-599
p747
aVSYNCOPE-598
p748
aVSYNCOPE-597
p749
aVSYNCOPE-596
p750
aVSYNCOPE-595
p751
aVSYNCOPE-594
p752
aVSYNCOPE-593
p753
aVSYNCOPE-592
p754
aVSYNCOPE-591
p755
aVSYNCOPE-590
p756
aVSYNCOPE-589
p757
aVSYNCOPE-588
p758
aVSYNCOPE-587
p759
aVSYNCOPE-586
p760
aVSYNCOPE-585
p761
aVSYNCOPE-584
p762
aVSYNCOPE-583
p763
aVSYNCOPE-582
p764
aVSYNCOPE-581
p765
aVSYNCOPE-580
p766
aVSYNCOPE-579
p767
aVSYNCOPE-578
p768
aVSYNCOPE-577
p769
aVSYNCOPE-576
p770
aVSYNCOPE-575
p771
aVSYNCOPE-574
p772
aVSYNCOPE-573
p773
aVSYNCOPE-572
p774
aVSYNCOPE-571
p775
aVSYNCOPE-570
p776
aVSYNCOPE-569
p777
aVSYNCOPE-568
p778
aVSYNCOPE-567
p779
aVSYNCOPE-566
p780
aVSYNCOPE-565
p781
aVSYNCOPE-564
p782
aVSYNCOPE-563
p783
aVSYNCOPE-562
p784
aVSYNCOPE-561
p785
aVSYNCOPE-560
p786
aVSYNCOPE-559
p787
aVSYNCOPE-558
p788
aVSYNCOPE-557
p789
aVSYNCOPE-556
p790
aVSYNCOPE-555
p791
aVSYNCOPE-554
p792
aVSYNCOPE-553
p793
aVSYNCOPE-552
p794
aVSYNCOPE-551
p795
aVSYNCOPE-550
p796
aVSYNCOPE-549
p797
aVSYNCOPE-548
p798
aVSYNCOPE-547
p799
aVSYNCOPE-546
p800
aVSYNCOPE-545
p801
aVSYNCOPE-544
p802
aVSYNCOPE-543
p803
aVSYNCOPE-542
p804
aVSYNCOPE-541
p805
aVSYNCOPE-540
p806
aVSYNCOPE-539
p807
aVSYNCOPE-538
p808
aVSYNCOPE-537
p809
aVSYNCOPE-536
p810
aVSYNCOPE-535
p811
aVSYNCOPE-534
p812
aVSYNCOPE-533
p813
aVSYNCOPE-532
p814
aVSYNCOPE-531
p815
aVSYNCOPE-530
p816
aVSYNCOPE-529
p817
aVSYNCOPE-528
p818
aVSYNCOPE-527
p819
aVSYNCOPE-526
p820
aVSYNCOPE-525
p821
aVSYNCOPE-524
p822
aVSYNCOPE-523
p823
aVSYNCOPE-522
p824
aVSYNCOPE-521
p825
aVSYNCOPE-520
p826
aVSYNCOPE-519
p827
aVSYNCOPE-518
p828
aVSYNCOPE-517
p829
aVSYNCOPE-516
p830
aVSYNCOPE-515
p831
aVSYNCOPE-514
p832
aVSYNCOPE-513
p833
aVSYNCOPE-512
p834
aVSYNCOPE-511
p835
aVSYNCOPE-510
p836
aVSYNCOPE-509
p837
aVSYNCOPE-508
p838
aVSYNCOPE-507
p839
aVSYNCOPE-506
p840
aVSYNCOPE-505
p841
aVSYNCOPE-504
p842
aVSYNCOPE-503
p843
aVSYNCOPE-502
p844
aVSYNCOPE-501
p845
aVSYNCOPE-500
p846
aVSYNCOPE-499
p847
aVSYNCOPE-498
p848
aVSYNCOPE-497
p849
aVSYNCOPE-496
p850
aVSYNCOPE-495
p851
aVSYNCOPE-494
p852
aVSYNCOPE-493
p853
aVSYNCOPE-492
p854
aVSYNCOPE-491
p855
aVSYNCOPE-490
p856
aVSYNCOPE-489
p857
aVSYNCOPE-488
p858
aVSYNCOPE-487
p859
aVSYNCOPE-486
p860
aVSYNCOPE-485
p861
aVSYNCOPE-484
p862
aVSYNCOPE-483
p863
aVSYNCOPE-482
p864
aVSYNCOPE-481
p865
aVSYNCOPE-480
p866
aVSYNCOPE-479
p867
aVSYNCOPE-478
p868
aVSYNCOPE-477
p869
aVSYNCOPE-476
p870
aVSYNCOPE-475
p871
aVSYNCOPE-474
p872
aVSYNCOPE-473
p873
aVSYNCOPE-472
p874
aVSYNCOPE-471
p875
aVSYNCOPE-470
p876
aVSYNCOPE-469
p877
aVSYNCOPE-468
p878
aVSYNCOPE-467
p879
aVSYNCOPE-466
p880
aVSYNCOPE-465
p881
aVSYNCOPE-464
p882
aVSYNCOPE-463
p883
aVSYNCOPE-462
p884
aVSYNCOPE-461
p885
aVSYNCOPE-460
p886
aVSYNCOPE-459
p887
aVSYNCOPE-458
p888
aVSYNCOPE-457
p889
aVSYNCOPE-456
p890
aVSYNCOPE-455
p891
aVSYNCOPE-454
p892
aVSYNCOPE-453
p893
aVSYNCOPE-452
p894
aVSYNCOPE-451
p895
aVSYNCOPE-450
p896
aVSYNCOPE-449
p897
aVSYNCOPE-448
p898
aVSYNCOPE-447
p899
aVSYNCOPE-446
p900
aVSYNCOPE-445
p901
aVSYNCOPE-444
p902
aVSYNCOPE-443
p903
aVSYNCOPE-442
p904
aVSYNCOPE-441
p905
aVSYNCOPE-440
p906
aVSYNCOPE-439
p907
aVSYNCOPE-438
p908
aVSYNCOPE-437
p909
aVSYNCOPE-436
p910
aVSYNCOPE-435
p911
aVSYNCOPE-434
p912
aVSYNCOPE-433
p913
aVSYNCOPE-432
p914
aVSYNCOPE-431
p915
aVSYNCOPE-430
p916
aVSYNCOPE-429
p917
aVSYNCOPE-428
p918
aVSYNCOPE-427
p919
aVSYNCOPE-426
p920
aVSYNCOPE-425
p921
aVSYNCOPE-424
p922
aVSYNCOPE-423
p923
aVSYNCOPE-422
p924
aVSYNCOPE-421
p925
aVSYNCOPE-420
p926
aVSYNCOPE-419
p927
aVSYNCOPE-418
p928
aVSYNCOPE-417
p929
aVSYNCOPE-416
p930
aVSYNCOPE-415
p931
aVSYNCOPE-414
p932
aVSYNCOPE-413
p933
aVSYNCOPE-412
p934
aVSYNCOPE-411
p935
aVSYNCOPE-410
p936
aVSYNCOPE-409
p937
aVSYNCOPE-408
p938
aVSYNCOPE-407
p939
aVSYNCOPE-406
p940
aVSYNCOPE-405
p941
aVSYNCOPE-404
p942
aVSYNCOPE-403
p943
aVSYNCOPE-402
p944
aVSYNCOPE-401
p945
aVSYNCOPE-400
p946
aVSYNCOPE-399
p947
aVSYNCOPE-398
p948
aVSYNCOPE-397
p949
aVSYNCOPE-396
p950
aVSYNCOPE-395
p951
aVSYNCOPE-394
p952
aVSYNCOPE-393
p953
aVSYNCOPE-392
p954
aVSYNCOPE-391
p955
aVSYNCOPE-390
p956
aVSYNCOPE-389
p957
aVSYNCOPE-388
p958
aVSYNCOPE-387
p959
aVSYNCOPE-386
p960
aVSYNCOPE-385
p961
aVSYNCOPE-384
p962
aVSYNCOPE-383
p963
aVSYNCOPE-382
p964
aVSYNCOPE-381
p965
aVSYNCOPE-380
p966
aVSYNCOPE-379
p967
aVSYNCOPE-378
p968
aVSYNCOPE-377
p969
aVSYNCOPE-376
p970
aVSYNCOPE-375
p971
aVSYNCOPE-374
p972
aVSYNCOPE-373
p973
aVSYNCOPE-372
p974
aVSYNCOPE-371
p975
aVSYNCOPE-370
p976
aVSYNCOPE-369
p977
aVSYNCOPE-368
p978
aVSYNCOPE-367
p979
aVSYNCOPE-366
p980
aVSYNCOPE-365
p981
aVSYNCOPE-364
p982
aVSYNCOPE-363
p983
aVSYNCOPE-362
p984
aVSYNCOPE-361
p985
aVSYNCOPE-360
p986
aVSYNCOPE-359
p987
aVSYNCOPE-358
p988
aVSYNCOPE-357
p989
aVSYNCOPE-356
p990
aVSYNCOPE-355
p991
aVSYNCOPE-354
p992
aVSYNCOPE-353
p993
aVSYNCOPE-352
p994
aVSYNCOPE-351
p995
aVSYNCOPE-350
p996
aVSYNCOPE-349
p997
aVSYNCOPE-348
p998
aVSYNCOPE-347
p999
aVSYNCOPE-346
p1000
aVSYNCOPE-345
p1001
aVSYNCOPE-344
p1002
aVSYNCOPE-343
p1003
aVSYNCOPE-342
p1004
aVSYNCOPE-341
p1005
aVSYNCOPE-340
p1006
aVSYNCOPE-339
p1007
aVSYNCOPE-338
p1008
aVSYNCOPE-337
p1009
aVSYNCOPE-336
p1010
aVSYNCOPE-335
p1011
aVSYNCOPE-334
p1012
aVSYNCOPE-333
p1013
aVSYNCOPE-332
p1014
aVSYNCOPE-331
p1015
aVSYNCOPE-330
p1016
aVSYNCOPE-329
p1017
aVSYNCOPE-328
p1018
aVSYNCOPE-327
p1019
aVSYNCOPE-326
p1020
aVSYNCOPE-325
p1021
aVSYNCOPE-324
p1022
aVSYNCOPE-323
p1023
aVSYNCOPE-322
p1024
aVSYNCOPE-321
p1025
aVSYNCOPE-320
p1026
aVSYNCOPE-319
p1027
aVSYNCOPE-318
p1028
aVSYNCOPE-317
p1029
aVSYNCOPE-316
p1030
aVSYNCOPE-315
p1031
aVSYNCOPE-314
p1032
aVSYNCOPE-313
p1033
aVSYNCOPE-312
p1034
aVSYNCOPE-311
p1035
aVSYNCOPE-310
p1036
aVSYNCOPE-309
p1037
aVSYNCOPE-308
p1038
aVSYNCOPE-307
p1039
aVSYNCOPE-306
p1040
aVSYNCOPE-305
p1041
aVSYNCOPE-304
p1042
aVSYNCOPE-303
p1043
aVSYNCOPE-302
p1044
aVSYNCOPE-301
p1045
aVSYNCOPE-300
p1046
aVSYNCOPE-299
p1047
aVSYNCOPE-298
p1048
aVSYNCOPE-297
p1049
aVSYNCOPE-296
p1050
aVSYNCOPE-295
p1051
aVSYNCOPE-294
p1052
aVSYNCOPE-293
p1053
aVSYNCOPE-292
p1054
aVSYNCOPE-291
p1055
aVSYNCOPE-290
p1056
aVSYNCOPE-289
p1057
aVSYNCOPE-288
p1058
aVSYNCOPE-287
p1059
aVSYNCOPE-286
p1060
aVSYNCOPE-285
p1061
aVSYNCOPE-284
p1062
aVSYNCOPE-283
p1063
aVSYNCOPE-282
p1064
aVSYNCOPE-281
p1065
aVSYNCOPE-280
p1066
aVSYNCOPE-279
p1067
aVSYNCOPE-278
p1068
aVSYNCOPE-277
p1069
aVSYNCOPE-276
p1070
aVSYNCOPE-275
p1071
aVSYNCOPE-274
p1072
aVSYNCOPE-273
p1073
aVSYNCOPE-272
p1074
aVSYNCOPE-271
p1075
aVSYNCOPE-270
p1076
aVSYNCOPE-269
p1077
aVSYNCOPE-268
p1078
aVSYNCOPE-267
p1079
aVSYNCOPE-266
p1080
aVSYNCOPE-265
p1081
aVSYNCOPE-264
p1082
aVSYNCOPE-263
p1083
aVSYNCOPE-262
p1084
aVSYNCOPE-261
p1085
aVSYNCOPE-260
p1086
aVSYNCOPE-259
p1087
aVSYNCOPE-258
p1088
aVSYNCOPE-257
p1089
aVSYNCOPE-256
p1090
aVSYNCOPE-255
p1091
aVSYNCOPE-254
p1092
aVSYNCOPE-253
p1093
aVSYNCOPE-252
p1094
aVSYNCOPE-251
p1095
aVSYNCOPE-250
p1096
aVSYNCOPE-249
p1097
aVSYNCOPE-248
p1098
aVSYNCOPE-247
p1099
aVSYNCOPE-246
p1100
aVSYNCOPE-245
p1101
aVSYNCOPE-244
p1102
aVSYNCOPE-243
p1103
aVSYNCOPE-242
p1104
aVSYNCOPE-241
p1105
aVSYNCOPE-240
p1106
aVSYNCOPE-239
p1107
aVSYNCOPE-238
p1108
aVSYNCOPE-237
p1109
aVSYNCOPE-236
p1110
aVSYNCOPE-235
p1111
aVSYNCOPE-234
p1112
aVSYNCOPE-233
p1113
aVSYNCOPE-232
p1114
aVSYNCOPE-231
p1115
aVSYNCOPE-230
p1116
aVSYNCOPE-229
p1117
aVSYNCOPE-228
p1118
aVSYNCOPE-227
p1119
aVSYNCOPE-226
p1120
aVSYNCOPE-225
p1121
aVSYNCOPE-224
p1122
aVSYNCOPE-223
p1123
aVSYNCOPE-222
p1124
aVSYNCOPE-221
p1125
aVSYNCOPE-220
p1126
aVSYNCOPE-219
p1127
aVSYNCOPE-218
p1128
aVSYNCOPE-217
p1129
aVSYNCOPE-216
p1130
aVSYNCOPE-215
p1131
aVSYNCOPE-214
p1132
aVSYNCOPE-213
p1133
aVSYNCOPE-212
p1134
aVSYNCOPE-211
p1135
aVSYNCOPE-210
p1136
aVSYNCOPE-209
p1137
aVSYNCOPE-208
p1138
aVSYNCOPE-207
p1139
aVSYNCOPE-206
p1140
aVSYNCOPE-205
p1141
aVSYNCOPE-204
p1142
aVSYNCOPE-203
p1143
aVSYNCOPE-202
p1144
aVSYNCOPE-201
p1145
aVSYNCOPE-200
p1146
aVSYNCOPE-199
p1147
aVSYNCOPE-198
p1148
aVSYNCOPE-197
p1149
aVSYNCOPE-196
p1150
aVSYNCOPE-195
p1151
aVSYNCOPE-194
p1152
aVSYNCOPE-193
p1153
aVSYNCOPE-192
p1154
aVSYNCOPE-191
p1155
aVSYNCOPE-190
p1156
aVSYNCOPE-189
p1157
aVSYNCOPE-188
p1158
aVSYNCOPE-187
p1159
aVSYNCOPE-186
p1160
aVSYNCOPE-185
p1161
aVSYNCOPE-184
p1162
aVSYNCOPE-183
p1163
aVSYNCOPE-182
p1164
aVSYNCOPE-181
p1165
aVSYNCOPE-180
p1166
aVSYNCOPE-179
p1167
aVSYNCOPE-178
p1168
aVSYNCOPE-177
p1169
aVSYNCOPE-176
p1170
aVSYNCOPE-175
p1171
aVSYNCOPE-174
p1172
aVSYNCOPE-173
p1173
aVSYNCOPE-172
p1174
aVSYNCOPE-171
p1175
aVSYNCOPE-170
p1176
aVSYNCOPE-169
p1177
aVSYNCOPE-168
p1178
aVSYNCOPE-167
p1179
aVSYNCOPE-166
p1180
aVSYNCOPE-165
p1181
aVSYNCOPE-164
p1182
aVSYNCOPE-163
p1183
aVSYNCOPE-162
p1184
aVSYNCOPE-161
p1185
aVSYNCOPE-160
p1186
aVSYNCOPE-159
p1187
aVSYNCOPE-158
p1188
aVSYNCOPE-157
p1189
aVSYNCOPE-156
p1190
aVSYNCOPE-155
p1191
aVSYNCOPE-154
p1192
aVSYNCOPE-153
p1193
aVSYNCOPE-152
p1194
aVSYNCOPE-151
p1195
aVSYNCOPE-150
p1196
aVSYNCOPE-149
p1197
aVSYNCOPE-148
p1198
aVSYNCOPE-147
p1199
aVSYNCOPE-146
p1200
aVSYNCOPE-145
p1201
aVSYNCOPE-144
p1202
aVSYNCOPE-143
p1203
aVSYNCOPE-142
p1204
aVSYNCOPE-141
p1205
aVSYNCOPE-140
p1206
aVSYNCOPE-139
p1207
aVSYNCOPE-138
p1208
aVSYNCOPE-137
p1209
aVSYNCOPE-136
p1210
aVSYNCOPE-135
p1211
aVSYNCOPE-134
p1212
aVSYNCOPE-133
p1213
aVSYNCOPE-132
p1214
aVSYNCOPE-131
p1215
aVSYNCOPE-130
p1216
aVSYNCOPE-129
p1217
aVSYNCOPE-128
p1218
aVSYNCOPE-127
p1219
aVSYNCOPE-126
p1220
aVSYNCOPE-125
p1221
aVSYNCOPE-124
p1222
aVSYNCOPE-123
p1223
aVSYNCOPE-122
p1224
aVSYNCOPE-121
p1225
aVSYNCOPE-120
p1226
aVSYNCOPE-119
p1227
aVSYNCOPE-118
p1228
aVSYNCOPE-117
p1229
aVSYNCOPE-116
p1230
aVSYNCOPE-115
p1231
aVSYNCOPE-114
p1232
aVSYNCOPE-113
p1233
aVSYNCOPE-112
p1234
aVSYNCOPE-111
p1235
aVSYNCOPE-110
p1236
aVSYNCOPE-109
p1237
aVSYNCOPE-108
p1238
aVSYNCOPE-107
p1239
aVSYNCOPE-106
p1240
aVSYNCOPE-105
p1241
aVSYNCOPE-104
p1242
aVSYNCOPE-103
p1243
aVSYNCOPE-102
p1244
aVSYNCOPE-101
p1245
aVSYNCOPE-100
p1246
aVSYNCOPE-99
p1247
aVSYNCOPE-98
p1248
aVSYNCOPE-97
p1249
aVSYNCOPE-96
p1250
aVSYNCOPE-95
p1251
aVSYNCOPE-94
p1252
aVSYNCOPE-93
p1253
aVSYNCOPE-92
p1254
aVSYNCOPE-91
p1255
aVSYNCOPE-90
p1256
aVSYNCOPE-89
p1257
aVSYNCOPE-88
p1258
aVSYNCOPE-87
p1259
aVSYNCOPE-86
p1260
aVSYNCOPE-85
p1261
aVSYNCOPE-84
p1262
aVSYNCOPE-83
p1263
aVSYNCOPE-82
p1264
aVSYNCOPE-81
p1265
aVSYNCOPE-80
p1266
aVSYNCOPE-79
p1267
aVSYNCOPE-78
p1268
aVSYNCOPE-77
p1269
aVSYNCOPE-76
p1270
aVSYNCOPE-75
p1271
aVSYNCOPE-74
p1272
aVSYNCOPE-73
p1273
aVSYNCOPE-72
p1274
aVSYNCOPE-71
p1275
aVSYNCOPE-70
p1276
aVSYNCOPE-69
p1277
aVSYNCOPE-68
p1278
aVSYNCOPE-67
p1279
aVSYNCOPE-66
p1280
aVSYNCOPE-65
p1281
aVSYNCOPE-64
p1282
aVSYNCOPE-63
p1283
aVSYNCOPE-62
p1284
aVSYNCOPE-61
p1285
aVSYNCOPE-60
p1286
aVSYNCOPE-59
p1287
aVSYNCOPE-58
p1288
aVSYNCOPE-57
p1289
aVSYNCOPE-56
p1290
aVSYNCOPE-55
p1291
aVSYNCOPE-54
p1292
aVSYNCOPE-53
p1293
aVSYNCOPE-52
p1294
aVSYNCOPE-51
p1295
aVSYNCOPE-50
p1296
aVSYNCOPE-49
p1297
aVSYNCOPE-48
p1298
aVSYNCOPE-47
p1299
aVSYNCOPE-46
p1300
aVSYNCOPE-45
p1301
aVSYNCOPE-44
p1302
aVSYNCOPE-43
p1303
aVSYNCOPE-42
p1304
aVSYNCOPE-41
p1305
aVSYNCOPE-40
p1306
aVSYNCOPE-39
p1307
aVSYNCOPE-38
p1308
aVSYNCOPE-37
p1309
aVSYNCOPE-36
p1310
aVSYNCOPE-35
p1311
aVSYNCOPE-34
p1312
aVSYNCOPE-33
p1313
aVSYNCOPE-32
p1314
aVSYNCOPE-31
p1315
aVSYNCOPE-30
p1316
aVSYNCOPE-29
p1317
aVSYNCOPE-28
p1318
aVSYNCOPE-27
p1319
aVSYNCOPE-26
p1320
aVSYNCOPE-25
p1321
aVSYNCOPE-24
p1322
aVSYNCOPE-23
p1323
aVSYNCOPE-22
p1324
aVSYNCOPE-21
p1325
aVSYNCOPE-20
p1326
aVSYNCOPE-19
p1327
aVSYNCOPE-18
p1328
aVSYNCOPE-17
p1329
aVSYNCOPE-16
p1330
aVSYNCOPE-15
p1331
aVSYNCOPE-14
p1332
aVSYNCOPE-13
p1333
aVSYNCOPE-12
p1334
aVSYNCOPE-11
p1335
aVSYNCOPE-10
p1336
aVSYNCOPE-9
p1337
aVSYNCOPE-8
p1338
aVSYNCOPE-7
p1339
aVSYNCOPE-6
p1340
aVSYNCOPE-5
p1341
aVSYNCOPE-4
p1342
aVSYNCOPE-3
p1343
aVSYNCOPE-2
p1344
aVSYNCOPE-1
p1345
a.