(lp0
VSYSTEMML-2485
p1
aVSYSTEMML-2484
p2
aVSYSTEMML-2483
p3
aVSYSTEMML-2482
p4
aVSYSTEMML-2481
p5
aVSYSTEMML-2480
p6
aVSYSTEMML-2479
p7
aVSYSTEMML-2478
p8
aVSYSTEMML-2477
p9
aVSYSTEMML-2476
p10
aVSYSTEMML-2475
p11
aVSYSTEMML-2474
p12
aVSYSTEMML-2473
p13
aVSYSTEMML-2472
p14
aVSYSTEMML-2471
p15
aVSYSTEMML-2470
p16
aVSYSTEMML-2469
p17
aVSYSTEMML-2468
p18
aVSYSTEMML-2467
p19
aVSYSTEMML-2466
p20
aVSYSTEMML-2465
p21
aVSYSTEMML-2464
p22
aVSYSTEMML-2463
p23
aVSYSTEMML-2462
p24
aVSYSTEMML-2461
p25
aVSYSTEMML-2460
p26
aVSYSTEMML-2459
p27
aVSYSTEMML-2458
p28
aVSYSTEMML-2457
p29
aVSYSTEMML-2456
p30
aVSYSTEMML-2455
p31
aVSYSTEMML-2454
p32
aVSYSTEMML-2453
p33
aVSYSTEMML-2452
p34
aVSYSTEMML-2451
p35
aVSYSTEMML-2450
p36
aVSYSTEMML-2449
p37
aVSYSTEMML-2448
p38
aVSYSTEMML-2447
p39
aVSYSTEMML-2446
p40
aVSYSTEMML-2445
p41
aVSYSTEMML-2444
p42
aVSYSTEMML-2443
p43
aVSYSTEMML-2442
p44
aVSYSTEMML-2441
p45
aVSYSTEMML-2440
p46
aVSYSTEMML-2439
p47
aVSYSTEMML-2438
p48
aVSYSTEMML-2436
p49
aVSYSTEMML-2435
p50
aVSYSTEMML-2434
p51
aVSYSTEMML-2433
p52
aVSYSTEMML-2432
p53
aVSYSTEMML-2431
p54
aVSYSTEMML-2430
p55
aVSYSTEMML-2429
p56
aVSYSTEMML-2428
p57
aVSYSTEMML-2427
p58
aVSYSTEMML-2426
p59
aVSYSTEMML-2425
p60
aVSYSTEMML-2424
p61
aVSYSTEMML-2423
p62
aVSYSTEMML-2422
p63
aVSYSTEMML-2421
p64
aVSYSTEMML-2420
p65
aVSYSTEMML-2419
p66
aVSYSTEMML-2418
p67
aVSYSTEMML-2417
p68
aVSYSTEMML-2416
p69
aVSYSTEMML-2415
p70
aVSYSTEMML-2414
p71
aVSYSTEMML-2413
p72
aVSYSTEMML-2412
p73
aVSYSTEMML-2411
p74
aVSYSTEMML-2410
p75
aVSYSTEMML-2409
p76
aVSYSTEMML-2408
p77
aVSYSTEMML-2407
p78
aVSYSTEMML-2406
p79
aVSYSTEMML-2405
p80
aVSYSTEMML-2404
p81
aVSYSTEMML-2403
p82
aVSYSTEMML-2402
p83
aVSYSTEMML-2401
p84
aVSYSTEMML-2400
p85
aVSYSTEMML-2399
p86
aVSYSTEMML-2398
p87
aVSYSTEMML-2397
p88
aVSYSTEMML-2396
p89
aVSYSTEMML-2394
p90
aVSYSTEMML-2393
p91
aVSYSTEMML-2392
p92
aVSYSTEMML-2391
p93
aVSYSTEMML-2390
p94
aVSYSTEMML-2389
p95
aVSYSTEMML-2388
p96
aVSYSTEMML-2387
p97
aVSYSTEMML-2386
p98
aVSYSTEMML-2385
p99
aVSYSTEMML-2384
p100
aVSYSTEMML-2383
p101
aVSYSTEMML-2382
p102
aVSYSTEMML-2381
p103
aVSYSTEMML-2380
p104
aVSYSTEMML-2379
p105
aVSYSTEMML-2378
p106
aVSYSTEMML-2377
p107
aVSYSTEMML-2376
p108
aVSYSTEMML-2375
p109
aVSYSTEMML-2374
p110
aVSYSTEMML-2373
p111
aVSYSTEMML-2372
p112
aVSYSTEMML-2371
p113
aVSYSTEMML-2370
p114
aVSYSTEMML-2369
p115
aVSYSTEMML-2368
p116
aVSYSTEMML-2367
p117
aVSYSTEMML-2366
p118
aVSYSTEMML-2365
p119
aVSYSTEMML-2364
p120
aVSYSTEMML-2363
p121
aVSYSTEMML-2362
p122
aVSYSTEMML-2361
p123
aVSYSTEMML-2360
p124
aVSYSTEMML-2359
p125
aVSYSTEMML-2358
p126
aVSYSTEMML-2357
p127
aVSYSTEMML-2356
p128
aVSYSTEMML-2355
p129
aVSYSTEMML-2354
p130
aVSYSTEMML-2353
p131
aVSYSTEMML-2352
p132
aVSYSTEMML-2351
p133
aVSYSTEMML-2350
p134
aVSYSTEMML-2349
p135
aVSYSTEMML-2348
p136
aVSYSTEMML-2347
p137
aVSYSTEMML-2346
p138
aVSYSTEMML-2345
p139
aVSYSTEMML-2344
p140
aVSYSTEMML-2343
p141
aVSYSTEMML-2342
p142
aVSYSTEMML-2341
p143
aVSYSTEMML-2340
p144
aVSYSTEMML-2339
p145
aVSYSTEMML-2338
p146
aVSYSTEMML-2337
p147
aVSYSTEMML-2336
p148
aVSYSTEMML-2335
p149
aVSYSTEMML-2334
p150
aVSYSTEMML-2333
p151
aVSYSTEMML-2332
p152
aVSYSTEMML-2331
p153
aVSYSTEMML-2329
p154
aVSYSTEMML-2328
p155
aVSYSTEMML-2327
p156
aVSYSTEMML-2326
p157
aVSYSTEMML-2325
p158
aVSYSTEMML-2324
p159
aVSYSTEMML-2323
p160
aVSYSTEMML-2322
p161
aVSYSTEMML-2321
p162
aVSYSTEMML-2320
p163
aVSYSTEMML-2319
p164
aVSYSTEMML-2318
p165
aVSYSTEMML-2317
p166
aVSYSTEMML-2316
p167
aVSYSTEMML-2315
p168
aVSYSTEMML-2314
p169
aVSYSTEMML-2313
p170
aVSYSTEMML-2312
p171
aVSYSTEMML-2311
p172
aVSYSTEMML-2310
p173
aVSYSTEMML-2309
p174
aVSYSTEMML-2308
p175
aVSYSTEMML-2307
p176
aVSYSTEMML-2306
p177
aVSYSTEMML-2305
p178
aVSYSTEMML-2304
p179
aVSYSTEMML-2303
p180
aVSYSTEMML-2302
p181
aVSYSTEMML-2301
p182
aVSYSTEMML-2300
p183
aVSYSTEMML-2299
p184
aVSYSTEMML-2298
p185
aVSYSTEMML-2297
p186
aVSYSTEMML-2296
p187
aVSYSTEMML-2295
p188
aVSYSTEMML-2294
p189
aVSYSTEMML-2293
p190
aVSYSTEMML-2292
p191
aVSYSTEMML-2291
p192
aVSYSTEMML-2290
p193
aVSYSTEMML-2289
p194
aVSYSTEMML-2288
p195
aVSYSTEMML-2287
p196
aVSYSTEMML-2286
p197
aVSYSTEMML-2285
p198
aVSYSTEMML-2284
p199
aVSYSTEMML-2283
p200
aVSYSTEMML-2282
p201
aVSYSTEMML-2281
p202
aVSYSTEMML-2280
p203
aVSYSTEMML-2279
p204
aVSYSTEMML-2278
p205
aVSYSTEMML-2277
p206
aVSYSTEMML-2276
p207
aVSYSTEMML-2275
p208
aVSYSTEMML-2274
p209
aVSYSTEMML-2273
p210
aVSYSTEMML-2272
p211
aVSYSTEMML-2271
p212
aVSYSTEMML-2270
p213
aVSYSTEMML-2269
p214
aVSYSTEMML-2268
p215
aVSYSTEMML-2267
p216
aVSYSTEMML-2266
p217
aVSYSTEMML-2265
p218
aVSYSTEMML-2264
p219
aVSYSTEMML-2263
p220
aVSYSTEMML-2262
p221
aVSYSTEMML-2261
p222
aVSYSTEMML-2260
p223
aVSYSTEMML-2259
p224
aVSYSTEMML-2258
p225
aVSYSTEMML-2256
p226
aVSYSTEMML-2255
p227
aVSYSTEMML-2254
p228
aVSYSTEMML-2253
p229
aVSYSTEMML-2252
p230
aVSYSTEMML-2251
p231
aVSYSTEMML-2250
p232
aVSYSTEMML-2249
p233
aVSYSTEMML-2248
p234
aVSYSTEMML-2247
p235
aVSYSTEMML-2246
p236
aVSYSTEMML-2245
p237
aVSYSTEMML-2244
p238
aVSYSTEMML-2243
p239
aVSYSTEMML-2242
p240
aVSYSTEMML-2241
p241
aVSYSTEMML-2240
p242
aVSYSTEMML-2239
p243
aVSYSTEMML-2238
p244
aVSYSTEMML-2237
p245
aVSYSTEMML-2236
p246
aVSYSTEMML-2235
p247
aVSYSTEMML-2234
p248
aVSYSTEMML-2233
p249
aVSYSTEMML-2232
p250
aVSYSTEMML-2231
p251
aVSYSTEMML-2230
p252
aVSYSTEMML-2229
p253
aVSYSTEMML-2228
p254
aVSYSTEMML-2227
p255
aVSYSTEMML-2226
p256
aVSYSTEMML-2225
p257
aVSYSTEMML-2224
p258
aVSYSTEMML-2223
p259
aVSYSTEMML-2222
p260
aVSYSTEMML-2221
p261
aVSYSTEMML-2220
p262
aVSYSTEMML-2219
p263
aVSYSTEMML-2218
p264
aVSYSTEMML-2217
p265
aVSYSTEMML-2216
p266
aVSYSTEMML-2215
p267
aVSYSTEMML-2214
p268
aVSYSTEMML-2213
p269
aVSYSTEMML-2212
p270
aVSYSTEMML-2211
p271
aVSYSTEMML-2210
p272
aVSYSTEMML-2209
p273
aVSYSTEMML-2208
p274
aVSYSTEMML-2207
p275
aVSYSTEMML-2206
p276
aVSYSTEMML-2205
p277
aVSYSTEMML-2204
p278
aVSYSTEMML-2203
p279
aVSYSTEMML-2202
p280
aVSYSTEMML-2201
p281
aVSYSTEMML-2200
p282
aVSYSTEMML-2199
p283
aVSYSTEMML-2198
p284
aVSYSTEMML-2197
p285
aVSYSTEMML-2196
p286
aVSYSTEMML-2195
p287
aVSYSTEMML-2194
p288
aVSYSTEMML-2193
p289
aVSYSTEMML-2192
p290
aVSYSTEMML-2191
p291
aVSYSTEMML-2190
p292
aVSYSTEMML-2189
p293
aVSYSTEMML-2188
p294
aVSYSTEMML-2187
p295
aVSYSTEMML-2186
p296
aVSYSTEMML-2185
p297
aVSYSTEMML-2184
p298
aVSYSTEMML-2183
p299
aVSYSTEMML-2182
p300
aVSYSTEMML-2181
p301
aVSYSTEMML-2180
p302
aVSYSTEMML-2179
p303
aVSYSTEMML-2178
p304
aVSYSTEMML-2177
p305
aVSYSTEMML-2176
p306
aVSYSTEMML-2175
p307
aVSYSTEMML-2174
p308
aVSYSTEMML-2173
p309
aVSYSTEMML-2171
p310
aVSYSTEMML-2170
p311
aVSYSTEMML-2169
p312
aVSYSTEMML-2168
p313
aVSYSTEMML-2167
p314
aVSYSTEMML-2166
p315
aVSYSTEMML-2165
p316
aVSYSTEMML-2164
p317
aVSYSTEMML-2163
p318
aVSYSTEMML-2162
p319
aVSYSTEMML-2161
p320
aVSYSTEMML-2160
p321
aVSYSTEMML-2159
p322
aVSYSTEMML-2158
p323
aVSYSTEMML-2157
p324
aVSYSTEMML-2156
p325
aVSYSTEMML-2155
p326
aVSYSTEMML-2154
p327
aVSYSTEMML-2153
p328
aVSYSTEMML-2152
p329
aVSYSTEMML-2151
p330
aVSYSTEMML-2150
p331
aVSYSTEMML-2149
p332
aVSYSTEMML-2148
p333
aVSYSTEMML-2147
p334
aVSYSTEMML-2146
p335
aVSYSTEMML-2145
p336
aVSYSTEMML-2144
p337
aVSYSTEMML-2143
p338
aVSYSTEMML-2142
p339
aVSYSTEMML-2141
p340
aVSYSTEMML-2140
p341
aVSYSTEMML-2139
p342
aVSYSTEMML-2138
p343
aVSYSTEMML-2137
p344
aVSYSTEMML-2136
p345
aVSYSTEMML-2135
p346
aVSYSTEMML-2134
p347
aVSYSTEMML-2133
p348
aVSYSTEMML-2132
p349
aVSYSTEMML-2131
p350
aVSYSTEMML-2130
p351
aVSYSTEMML-2129
p352
aVSYSTEMML-2128
p353
aVSYSTEMML-2127
p354
aVSYSTEMML-2126
p355
aVSYSTEMML-2125
p356
aVSYSTEMML-2124
p357
aVSYSTEMML-2123
p358
aVSYSTEMML-2122
p359
aVSYSTEMML-2121
p360
aVSYSTEMML-2120
p361
aVSYSTEMML-2119
p362
aVSYSTEMML-2118
p363
aVSYSTEMML-2117
p364
aVSYSTEMML-2116
p365
aVSYSTEMML-2115
p366
aVSYSTEMML-2114
p367
aVSYSTEMML-2113
p368
aVSYSTEMML-2112
p369
aVSYSTEMML-2111
p370
aVSYSTEMML-2110
p371
aVSYSTEMML-2109
p372
aVSYSTEMML-2108
p373
aVSYSTEMML-2107
p374
aVSYSTEMML-2106
p375
aVSYSTEMML-2105
p376
aVSYSTEMML-2104
p377
aVSYSTEMML-2103
p378
aVSYSTEMML-2102
p379
aVSYSTEMML-2101
p380
aVSYSTEMML-2100
p381
aVSYSTEMML-2099
p382
aVSYSTEMML-2098
p383
aVSYSTEMML-2097
p384
aVSYSTEMML-2096
p385
aVSYSTEMML-2095
p386
aVSYSTEMML-2094
p387
aVSYSTEMML-2093
p388
aVSYSTEMML-2092
p389
aVSYSTEMML-2091
p390
aVSYSTEMML-2090
p391
aVSYSTEMML-2089
p392
aVSYSTEMML-2088
p393
aVSYSTEMML-2087
p394
aVSYSTEMML-2086
p395
aVSYSTEMML-2085
p396
aVSYSTEMML-2084
p397
aVSYSTEMML-2083
p398
aVSYSTEMML-2082
p399
aVSYSTEMML-2081
p400
aVSYSTEMML-2080
p401
aVSYSTEMML-2079
p402
aVSYSTEMML-2078
p403
aVSYSTEMML-2077
p404
aVSYSTEMML-2076
p405
aVSYSTEMML-2075
p406
aVSYSTEMML-2074
p407
aVSYSTEMML-2073
p408
aVSYSTEMML-2072
p409
aVSYSTEMML-2071
p410
aVSYSTEMML-2070
p411
aVSYSTEMML-2069
p412
aVSYSTEMML-2068
p413
aVSYSTEMML-2067
p414
aVSYSTEMML-2066
p415
aVSYSTEMML-2065
p416
aVSYSTEMML-2064
p417
aVSYSTEMML-2062
p418
aVSYSTEMML-2061
p419
aVSYSTEMML-2060
p420
aVSYSTEMML-2059
p421
aVSYSTEMML-2058
p422
aVSYSTEMML-2057
p423
aVSYSTEMML-2056
p424
aVSYSTEMML-2055
p425
aVSYSTEMML-2054
p426
aVSYSTEMML-2053
p427
aVSYSTEMML-2052
p428
aVSYSTEMML-2051
p429
aVSYSTEMML-2050
p430
aVSYSTEMML-2049
p431
aVSYSTEMML-2048
p432
aVSYSTEMML-2047
p433
aVSYSTEMML-2046
p434
aVSYSTEMML-2045
p435
aVSYSTEMML-2044
p436
aVSYSTEMML-2043
p437
aVSYSTEMML-2042
p438
aVSYSTEMML-2041
p439
aVSYSTEMML-2040
p440
aVSYSTEMML-2039
p441
aVSYSTEMML-2038
p442
aVSYSTEMML-2037
p443
aVSYSTEMML-2036
p444
aVSYSTEMML-2035
p445
aVSYSTEMML-2034
p446
aVSYSTEMML-2033
p447
aVSYSTEMML-2032
p448
aVSYSTEMML-2031
p449
aVSYSTEMML-2030
p450
aVSYSTEMML-2029
p451
aVSYSTEMML-2028
p452
aVSYSTEMML-2027
p453
aVSYSTEMML-2026
p454
aVSYSTEMML-2025
p455
aVSYSTEMML-2024
p456
aVSYSTEMML-2023
p457
aVSYSTEMML-2022
p458
aVSYSTEMML-2021
p459
aVSYSTEMML-2020
p460
aVSYSTEMML-2019
p461
aVSYSTEMML-2018
p462
aVSYSTEMML-2017
p463
aVSYSTEMML-2016
p464
aVSYSTEMML-2015
p465
aVSYSTEMML-2014
p466
aVSYSTEMML-2013
p467
aVSYSTEMML-2012
p468
aVSYSTEMML-2011
p469
aVSYSTEMML-2010
p470
aVSYSTEMML-2009
p471
aVSYSTEMML-2008
p472
aVSYSTEMML-2007
p473
aVSYSTEMML-2006
p474
aVSYSTEMML-2005
p475
aVSYSTEMML-2004
p476
aVSYSTEMML-2003
p477
aVSYSTEMML-2002
p478
aVSYSTEMML-2001
p479
aVSYSTEMML-2000
p480
aVSYSTEMML-1999
p481
aVSYSTEMML-1998
p482
aVSYSTEMML-1997
p483
aVSYSTEMML-1996
p484
aVSYSTEMML-1995
p485
aVSYSTEMML-1994
p486
aVSYSTEMML-1993
p487
aVSYSTEMML-1992
p488
aVSYSTEMML-1991
p489
aVSYSTEMML-1990
p490
aVSYSTEMML-1989
p491
aVSYSTEMML-1988
p492
aVSYSTEMML-1987
p493
aVSYSTEMML-1986
p494
aVSYSTEMML-1985
p495
aVSYSTEMML-1984
p496
aVSYSTEMML-1983
p497
aVSYSTEMML-1982
p498
aVSYSTEMML-1981
p499
aVSYSTEMML-1980
p500
aVSYSTEMML-1979
p501
aVSYSTEMML-1978
p502
aVSYSTEMML-1977
p503
aVSYSTEMML-1976
p504
aVSYSTEMML-1975
p505
aVSYSTEMML-1974
p506
aVSYSTEMML-1973
p507
aVSYSTEMML-1972
p508
aVSYSTEMML-1971
p509
aVSYSTEMML-1970
p510
aVSYSTEMML-1969
p511
aVSYSTEMML-1968
p512
aVSYSTEMML-1967
p513
aVSYSTEMML-1966
p514
aVSYSTEMML-1965
p515
aVSYSTEMML-1964
p516
aVSYSTEMML-1963
p517
aVSYSTEMML-1962
p518
aVSYSTEMML-1961
p519
aVSYSTEMML-1960
p520
aVSYSTEMML-1959
p521
aVSYSTEMML-1958
p522
aVSYSTEMML-1957
p523
aVSYSTEMML-1956
p524
aVSYSTEMML-1955
p525
aVSYSTEMML-1954
p526
aVSYSTEMML-1953
p527
aVSYSTEMML-1952
p528
aVSYSTEMML-1951
p529
aVSYSTEMML-1950
p530
aVSYSTEMML-1949
p531
aVSYSTEMML-1948
p532
aVSYSTEMML-1947
p533
aVSYSTEMML-1946
p534
aVSYSTEMML-1945
p535
aVSYSTEMML-1944
p536
aVSYSTEMML-1943
p537
aVSYSTEMML-1942
p538
aVSYSTEMML-1941
p539
aVSYSTEMML-1940
p540
aVSYSTEMML-1939
p541
aVSYSTEMML-1938
p542
aVSYSTEMML-1937
p543
aVSYSTEMML-1936
p544
aVSYSTEMML-1935
p545
aVSYSTEMML-1934
p546
aVSYSTEMML-1933
p547
aVSYSTEMML-1932
p548
aVSYSTEMML-1931
p549
aVSYSTEMML-1930
p550
aVSYSTEMML-1929
p551
aVSYSTEMML-1928
p552
aVSYSTEMML-1927
p553
aVSYSTEMML-1926
p554
aVSYSTEMML-1925
p555
aVSYSTEMML-1924
p556
aVSYSTEMML-1923
p557
aVSYSTEMML-1922
p558
aVSYSTEMML-1921
p559
aVSYSTEMML-1920
p560
aVSYSTEMML-1919
p561
aVSYSTEMML-1918
p562
aVSYSTEMML-1917
p563
aVSYSTEMML-1916
p564
aVSYSTEMML-1915
p565
aVSYSTEMML-1914
p566
aVSYSTEMML-1913
p567
aVSYSTEMML-1912
p568
aVSYSTEMML-1911
p569
aVSYSTEMML-1910
p570
aVSYSTEMML-1909
p571
aVSYSTEMML-1908
p572
aVSYSTEMML-1907
p573
aVSYSTEMML-1906
p574
aVSYSTEMML-1905
p575
aVSYSTEMML-1904
p576
aVSYSTEMML-1903
p577
aVSYSTEMML-1902
p578
aVSYSTEMML-1901
p579
aVSYSTEMML-1900
p580
aVSYSTEMML-1899
p581
aVSYSTEMML-1898
p582
aVSYSTEMML-1897
p583
aVSYSTEMML-1896
p584
aVSYSTEMML-1895
p585
aVSYSTEMML-1894
p586
aVSYSTEMML-1893
p587
aVSYSTEMML-1892
p588
aVSYSTEMML-1891
p589
aVSYSTEMML-1890
p590
aVSYSTEMML-1889
p591
aVSYSTEMML-1888
p592
aVSYSTEMML-1887
p593
aVSYSTEMML-1886
p594
aVSYSTEMML-1885
p595
aVSYSTEMML-1884
p596
aVSYSTEMML-1883
p597
aVSYSTEMML-1882
p598
aVSYSTEMML-1881
p599
aVSYSTEMML-1880
p600
aVSYSTEMML-1879
p601
aVSYSTEMML-1878
p602
aVSYSTEMML-1877
p603
aVSYSTEMML-1876
p604
aVSYSTEMML-1875
p605
aVSYSTEMML-1874
p606
aVSYSTEMML-1873
p607
aVSYSTEMML-1872
p608
aVSYSTEMML-1871
p609
aVSYSTEMML-1870
p610
aVSYSTEMML-1869
p611
aVSYSTEMML-1868
p612
aVSYSTEMML-1867
p613
aVSYSTEMML-1866
p614
aVSYSTEMML-1865
p615
aVSYSTEMML-1864
p616
aVSYSTEMML-1863
p617
aVSYSTEMML-1862
p618
aVSYSTEMML-1861
p619
aVSYSTEMML-1860
p620
aVSYSTEMML-1859
p621
aVSYSTEMML-1858
p622
aVSYSTEMML-1857
p623
aVSYSTEMML-1856
p624
aVSYSTEMML-1855
p625
aVSYSTEMML-1854
p626
aVSYSTEMML-1853
p627
aVSYSTEMML-1852
p628
aVSYSTEMML-1851
p629
aVSYSTEMML-1850
p630
aVSYSTEMML-1849
p631
aVSYSTEMML-1848
p632
aVSYSTEMML-1847
p633
aVSYSTEMML-1846
p634
aVSYSTEMML-1845
p635
aVSYSTEMML-1844
p636
aVSYSTEMML-1843
p637
aVSYSTEMML-1842
p638
aVSYSTEMML-1841
p639
aVSYSTEMML-1840
p640
aVSYSTEMML-1839
p641
aVSYSTEMML-1838
p642
aVSYSTEMML-1837
p643
aVSYSTEMML-1836
p644
aVSYSTEMML-1835
p645
aVSYSTEMML-1834
p646
aVSYSTEMML-1833
p647
aVSYSTEMML-1832
p648
aVSYSTEMML-1831
p649
aVSYSTEMML-1830
p650
aVSYSTEMML-1829
p651
aVSYSTEMML-1828
p652
aVSYSTEMML-1827
p653
aVSYSTEMML-1826
p654
aVSYSTEMML-1825
p655
aVSYSTEMML-1824
p656
aVSYSTEMML-1823
p657
aVSYSTEMML-1822
p658
aVSYSTEMML-1821
p659
aVSYSTEMML-1820
p660
aVSYSTEMML-1819
p661
aVSYSTEMML-1818
p662
aVSYSTEMML-1817
p663
aVSYSTEMML-1816
p664
aVSYSTEMML-1815
p665
aVSYSTEMML-1814
p666
aVSYSTEMML-1813
p667
aVSYSTEMML-1812
p668
aVSYSTEMML-1811
p669
aVSYSTEMML-1810
p670
aVSYSTEMML-1809
p671
aVSYSTEMML-1808
p672
aVSYSTEMML-1807
p673
aVSYSTEMML-1806
p674
aVSYSTEMML-1805
p675
aVSYSTEMML-1804
p676
aVSYSTEMML-1803
p677
aVSYSTEMML-1802
p678
aVSYSTEMML-1801
p679
aVSYSTEMML-1800
p680
aVSYSTEMML-1799
p681
aVSYSTEMML-1798
p682
aVSYSTEMML-1797
p683
aVSYSTEMML-1796
p684
aVSYSTEMML-1795
p685
aVSYSTEMML-1794
p686
aVSYSTEMML-1793
p687
aVSYSTEMML-1792
p688
aVSYSTEMML-1791
p689
aVSYSTEMML-1790
p690
aVSYSTEMML-1789
p691
aVSYSTEMML-1788
p692
aVSYSTEMML-1787
p693
aVSYSTEMML-1786
p694
aVSYSTEMML-1785
p695
aVSYSTEMML-1784
p696
aVSYSTEMML-1783
p697
aVSYSTEMML-1782
p698
aVSYSTEMML-1781
p699
aVSYSTEMML-1780
p700
aVSYSTEMML-1779
p701
aVSYSTEMML-1778
p702
aVSYSTEMML-1777
p703
aVSYSTEMML-1776
p704
aVSYSTEMML-1775
p705
aVSYSTEMML-1774
p706
aVSYSTEMML-1773
p707
aVSYSTEMML-1772
p708
aVSYSTEMML-1771
p709
aVSYSTEMML-1770
p710
aVSYSTEMML-1769
p711
aVSYSTEMML-1768
p712
aVSYSTEMML-1767
p713
aVSYSTEMML-1766
p714
aVSYSTEMML-1765
p715
aVSYSTEMML-1764
p716
aVSYSTEMML-1763
p717
aVSYSTEMML-1762
p718
aVSYSTEMML-1761
p719
aVSYSTEMML-1760
p720
aVSYSTEMML-1759
p721
aVSYSTEMML-1758
p722
aVSYSTEMML-1757
p723
aVSYSTEMML-1756
p724
aVSYSTEMML-1755
p725
aVSYSTEMML-1754
p726
aVSYSTEMML-1753
p727
aVSYSTEMML-1752
p728
aVSYSTEMML-1751
p729
aVSYSTEMML-1750
p730
aVSYSTEMML-1749
p731
aVSYSTEMML-1748
p732
aVSYSTEMML-1747
p733
aVSYSTEMML-1746
p734
aVSYSTEMML-1745
p735
aVSYSTEMML-1744
p736
aVSYSTEMML-1743
p737
aVSYSTEMML-1742
p738
aVSYSTEMML-1741
p739
aVSYSTEMML-1740
p740
aVSYSTEMML-1739
p741
aVSYSTEMML-1738
p742
aVSYSTEMML-1737
p743
aVSYSTEMML-1736
p744
aVSYSTEMML-1735
p745
aVSYSTEMML-1734
p746
aVSYSTEMML-1733
p747
aVSYSTEMML-1732
p748
aVSYSTEMML-1731
p749
aVSYSTEMML-1730
p750
aVSYSTEMML-1729
p751
aVSYSTEMML-1728
p752
aVSYSTEMML-1727
p753
aVSYSTEMML-1726
p754
aVSYSTEMML-1725
p755
aVSYSTEMML-1724
p756
aVSYSTEMML-1723
p757
aVSYSTEMML-1722
p758
aVSYSTEMML-1721
p759
aVSYSTEMML-1720
p760
aVSYSTEMML-1719
p761
aVSYSTEMML-1718
p762
aVSYSTEMML-1717
p763
aVSYSTEMML-1716
p764
aVSYSTEMML-1715
p765
aVSYSTEMML-1714
p766
aVSYSTEMML-1713
p767
aVSYSTEMML-1712
p768
aVSYSTEMML-1711
p769
aVSYSTEMML-1710
p770
aVSYSTEMML-1709
p771
aVSYSTEMML-1708
p772
aVSYSTEMML-1707
p773
aVSYSTEMML-1706
p774
aVSYSTEMML-1705
p775
aVSYSTEMML-1704
p776
aVSYSTEMML-1703
p777
aVSYSTEMML-1702
p778
aVSYSTEMML-1701
p779
aVSYSTEMML-1700
p780
aVSYSTEMML-1699
p781
aVSYSTEMML-1698
p782
aVSYSTEMML-1697
p783
aVSYSTEMML-1696
p784
aVSYSTEMML-1695
p785
aVSYSTEMML-1694
p786
aVSYSTEMML-1693
p787
aVSYSTEMML-1692
p788
aVSYSTEMML-1691
p789
aVSYSTEMML-1690
p790
aVSYSTEMML-1689
p791
aVSYSTEMML-1688
p792
aVSYSTEMML-1687
p793
aVSYSTEMML-1686
p794
aVSYSTEMML-1685
p795
aVSYSTEMML-1684
p796
aVSYSTEMML-1683
p797
aVSYSTEMML-1682
p798
aVSYSTEMML-1681
p799
aVSYSTEMML-1680
p800
aVSYSTEMML-1679
p801
aVSYSTEMML-1678
p802
aVSYSTEMML-1677
p803
aVSYSTEMML-1676
p804
aVSYSTEMML-1675
p805
aVSYSTEMML-1674
p806
aVSYSTEMML-1673
p807
aVSYSTEMML-1672
p808
aVSYSTEMML-1671
p809
aVSYSTEMML-1670
p810
aVSYSTEMML-1669
p811
aVSYSTEMML-1668
p812
aVSYSTEMML-1667
p813
aVSYSTEMML-1666
p814
aVSYSTEMML-1665
p815
aVSYSTEMML-1664
p816
aVSYSTEMML-1663
p817
aVSYSTEMML-1662
p818
aVSYSTEMML-1661
p819
aVSYSTEMML-1660
p820
aVSYSTEMML-1659
p821
aVSYSTEMML-1658
p822
aVSYSTEMML-1657
p823
aVSYSTEMML-1656
p824
aVSYSTEMML-1655
p825
aVSYSTEMML-1654
p826
aVSYSTEMML-1653
p827
aVSYSTEMML-1652
p828
aVSYSTEMML-1651
p829
aVSYSTEMML-1650
p830
aVSYSTEMML-1649
p831
aVSYSTEMML-1648
p832
aVSYSTEMML-1647
p833
aVSYSTEMML-1646
p834
aVSYSTEMML-1645
p835
aVSYSTEMML-1644
p836
aVSYSTEMML-1643
p837
aVSYSTEMML-1642
p838
aVSYSTEMML-1641
p839
aVSYSTEMML-1640
p840
aVSYSTEMML-1639
p841
aVSYSTEMML-1638
p842
aVSYSTEMML-1637
p843
aVSYSTEMML-1636
p844
aVSYSTEMML-1635
p845
aVSYSTEMML-1634
p846
aVSYSTEMML-1633
p847
aVSYSTEMML-1632
p848
aVSYSTEMML-1631
p849
aVSYSTEMML-1630
p850
aVSYSTEMML-1629
p851
aVSYSTEMML-1628
p852
aVSYSTEMML-1627
p853
aVSYSTEMML-1626
p854
aVSYSTEMML-1625
p855
aVSYSTEMML-1624
p856
aVSYSTEMML-1623
p857
aVSYSTEMML-1622
p858
aVSYSTEMML-1621
p859
aVSYSTEMML-1620
p860
aVSYSTEMML-1619
p861
aVSYSTEMML-1618
p862
aVSYSTEMML-1617
p863
aVSYSTEMML-1616
p864
aVSYSTEMML-1615
p865
aVSYSTEMML-1614
p866
aVSYSTEMML-1613
p867
aVSYSTEMML-1612
p868
aVSYSTEMML-1611
p869
aVSYSTEMML-1610
p870
aVSYSTEMML-1609
p871
aVSYSTEMML-1608
p872
aVSYSTEMML-1607
p873
aVSYSTEMML-1606
p874
aVSYSTEMML-1605
p875
aVSYSTEMML-1604
p876
aVSYSTEMML-1603
p877
aVSYSTEMML-1602
p878
aVSYSTEMML-1601
p879
aVSYSTEMML-1600
p880
aVSYSTEMML-1599
p881
aVSYSTEMML-1598
p882
aVSYSTEMML-1597
p883
aVSYSTEMML-1596
p884
aVSYSTEMML-1595
p885
aVSYSTEMML-1594
p886
aVSYSTEMML-1593
p887
aVSYSTEMML-1592
p888
aVSYSTEMML-1591
p889
aVSYSTEMML-1590
p890
aVSYSTEMML-1589
p891
aVSYSTEMML-1588
p892
aVSYSTEMML-1587
p893
aVSYSTEMML-1586
p894
aVSYSTEMML-1585
p895
aVSYSTEMML-1584
p896
aVSYSTEMML-1583
p897
aVSYSTEMML-1582
p898
aVSYSTEMML-1581
p899
aVSYSTEMML-1580
p900
aVSYSTEMML-1579
p901
aVSYSTEMML-1578
p902
aVSYSTEMML-1577
p903
aVSYSTEMML-1576
p904
aVSYSTEMML-1575
p905
aVSYSTEMML-1574
p906
aVSYSTEMML-1573
p907
aVSYSTEMML-1572
p908
aVSYSTEMML-1571
p909
aVSYSTEMML-1570
p910
aVSYSTEMML-1569
p911
aVSYSTEMML-1568
p912
aVSYSTEMML-1567
p913
aVSYSTEMML-1566
p914
aVSYSTEMML-1565
p915
aVSYSTEMML-1564
p916
aVSYSTEMML-1563
p917
aVSYSTEMML-1562
p918
aVSYSTEMML-1561
p919
aVSYSTEMML-1560
p920
aVSYSTEMML-1559
p921
aVSYSTEMML-1558
p922
aVSYSTEMML-1557
p923
aVSYSTEMML-1556
p924
aVSYSTEMML-1555
p925
aVSYSTEMML-1554
p926
aVSYSTEMML-1553
p927
aVSYSTEMML-1552
p928
aVSYSTEMML-1551
p929
aVSYSTEMML-1550
p930
aVSYSTEMML-1549
p931
aVSYSTEMML-1548
p932
aVSYSTEMML-1547
p933
aVSYSTEMML-1546
p934
aVSYSTEMML-1545
p935
aVSYSTEMML-1544
p936
aVSYSTEMML-1543
p937
aVSYSTEMML-1542
p938
aVSYSTEMML-1541
p939
aVSYSTEMML-1540
p940
aVSYSTEMML-1539
p941
aVSYSTEMML-1538
p942
aVSYSTEMML-1537
p943
aVSYSTEMML-1536
p944
aVSYSTEMML-1535
p945
aVSYSTEMML-1534
p946
aVSYSTEMML-1533
p947
aVSYSTEMML-1532
p948
aVSYSTEMML-1531
p949
aVSYSTEMML-1530
p950
aVSYSTEMML-1529
p951
aVSYSTEMML-1528
p952
aVSYSTEMML-1527
p953
aVSYSTEMML-1526
p954
aVSYSTEMML-1525
p955
aVSYSTEMML-1524
p956
aVSYSTEMML-1523
p957
aVSYSTEMML-1522
p958
aVSYSTEMML-1521
p959
aVSYSTEMML-1520
p960
aVSYSTEMML-1519
p961
aVSYSTEMML-1518
p962
aVSYSTEMML-1517
p963
aVSYSTEMML-1516
p964
aVSYSTEMML-1515
p965
aVSYSTEMML-1514
p966
aVSYSTEMML-1513
p967
aVSYSTEMML-1512
p968
aVSYSTEMML-1511
p969
aVSYSTEMML-1510
p970
aVSYSTEMML-1509
p971
aVSYSTEMML-1508
p972
aVSYSTEMML-1507
p973
aVSYSTEMML-1506
p974
aVSYSTEMML-1505
p975
aVSYSTEMML-1504
p976
aVSYSTEMML-1503
p977
aVSYSTEMML-1502
p978
aVSYSTEMML-1501
p979
aVSYSTEMML-1500
p980
aVSYSTEMML-1499
p981
aVSYSTEMML-1498
p982
aVSYSTEMML-1497
p983
aVSYSTEMML-1496
p984
aVSYSTEMML-1495
p985
aVSYSTEMML-1494
p986
aVSYSTEMML-1493
p987
aVSYSTEMML-1492
p988
aVSYSTEMML-1491
p989
aVSYSTEMML-1490
p990
aVSYSTEMML-1489
p991
aVSYSTEMML-1488
p992
aVSYSTEMML-1487
p993
aVSYSTEMML-1486
p994
aVSYSTEMML-1485
p995
aVSYSTEMML-1484
p996
aVSYSTEMML-1483
p997
aVSYSTEMML-1482
p998
aVSYSTEMML-1481
p999
aVSYSTEMML-1480
p1000
aVSYSTEMML-1479
p1001
aVSYSTEMML-1478
p1002
aVSYSTEMML-1477
p1003
aVSYSTEMML-1476
p1004
aVSYSTEMML-1475
p1005
aVSYSTEMML-1474
p1006
aVSYSTEMML-1473
p1007
aVSYSTEMML-1472
p1008
aVSYSTEMML-1471
p1009
aVSYSTEMML-1470
p1010
aVSYSTEMML-1469
p1011
aVSYSTEMML-1468
p1012
aVSYSTEMML-1467
p1013
aVSYSTEMML-1466
p1014
aVSYSTEMML-1465
p1015
aVSYSTEMML-1464
p1016
aVSYSTEMML-1463
p1017
aVSYSTEMML-1462
p1018
aVSYSTEMML-1461
p1019
aVSYSTEMML-1460
p1020
aVSYSTEMML-1459
p1021
aVSYSTEMML-1458
p1022
aVSYSTEMML-1456
p1023
aVSYSTEMML-1455
p1024
aVSYSTEMML-1454
p1025
aVSYSTEMML-1453
p1026
aVSYSTEMML-1452
p1027
aVSYSTEMML-1451
p1028
aVSYSTEMML-1450
p1029
aVSYSTEMML-1449
p1030
aVSYSTEMML-1448
p1031
aVSYSTEMML-1447
p1032
aVSYSTEMML-1446
p1033
aVSYSTEMML-1445
p1034
aVSYSTEMML-1444
p1035
aVSYSTEMML-1443
p1036
aVSYSTEMML-1442
p1037
aVSYSTEMML-1441
p1038
aVSYSTEMML-1440
p1039
aVSYSTEMML-1439
p1040
aVSYSTEMML-1438
p1041
aVSYSTEMML-1437
p1042
aVSYSTEMML-1436
p1043
aVSYSTEMML-1435
p1044
aVSYSTEMML-1434
p1045
aVSYSTEMML-1433
p1046
aVSYSTEMML-1432
p1047
aVSYSTEMML-1431
p1048
aVSYSTEMML-1430
p1049
aVSYSTEMML-1429
p1050
aVSYSTEMML-1428
p1051
aVSYSTEMML-1427
p1052
aVSYSTEMML-1426
p1053
aVSYSTEMML-1425
p1054
aVSYSTEMML-1424
p1055
aVSYSTEMML-1423
p1056
aVSYSTEMML-1422
p1057
aVSYSTEMML-1421
p1058
aVSYSTEMML-1420
p1059
aVSYSTEMML-1419
p1060
aVSYSTEMML-1418
p1061
aVSYSTEMML-1417
p1062
aVSYSTEMML-1416
p1063
aVSYSTEMML-1415
p1064
aVSYSTEMML-1414
p1065
aVSYSTEMML-1413
p1066
aVSYSTEMML-1412
p1067
aVSYSTEMML-1411
p1068
aVSYSTEMML-1410
p1069
aVSYSTEMML-1409
p1070
aVSYSTEMML-1408
p1071
aVSYSTEMML-1407
p1072
aVSYSTEMML-1406
p1073
aVSYSTEMML-1405
p1074
aVSYSTEMML-1404
p1075
aVSYSTEMML-1403
p1076
aVSYSTEMML-1402
p1077
aVSYSTEMML-1401
p1078
aVSYSTEMML-1400
p1079
aVSYSTEMML-1399
p1080
aVSYSTEMML-1398
p1081
aVSYSTEMML-1397
p1082
aVSYSTEMML-1396
p1083
aVSYSTEMML-1395
p1084
aVSYSTEMML-1394
p1085
aVSYSTEMML-1393
p1086
aVSYSTEMML-1392
p1087
aVSYSTEMML-1391
p1088
aVSYSTEMML-1390
p1089
aVSYSTEMML-1389
p1090
aVSYSTEMML-1388
p1091
aVSYSTEMML-1387
p1092
aVSYSTEMML-1386
p1093
aVSYSTEMML-1385
p1094
aVSYSTEMML-1384
p1095
aVSYSTEMML-1383
p1096
aVSYSTEMML-1382
p1097
aVSYSTEMML-1381
p1098
aVSYSTEMML-1380
p1099
aVSYSTEMML-1379
p1100
aVSYSTEMML-1378
p1101
aVSYSTEMML-1377
p1102
aVSYSTEMML-1376
p1103
aVSYSTEMML-1375
p1104
aVSYSTEMML-1374
p1105
aVSYSTEMML-1373
p1106
aVSYSTEMML-1372
p1107
aVSYSTEMML-1371
p1108
aVSYSTEMML-1370
p1109
aVSYSTEMML-1369
p1110
aVSYSTEMML-1368
p1111
aVSYSTEMML-1367
p1112
aVSYSTEMML-1366
p1113
aVSYSTEMML-1365
p1114
aVSYSTEMML-1364
p1115
aVSYSTEMML-1363
p1116
aVSYSTEMML-1362
p1117
aVSYSTEMML-1361
p1118
aVSYSTEMML-1360
p1119
aVSYSTEMML-1359
p1120
aVSYSTEMML-1358
p1121
aVSYSTEMML-1357
p1122
aVSYSTEMML-1356
p1123
aVSYSTEMML-1355
p1124
aVSYSTEMML-1354
p1125
aVSYSTEMML-1353
p1126
aVSYSTEMML-1352
p1127
aVSYSTEMML-1351
p1128
aVSYSTEMML-1350
p1129
aVSYSTEMML-1349
p1130
aVSYSTEMML-1348
p1131
aVSYSTEMML-1347
p1132
aVSYSTEMML-1346
p1133
aVSYSTEMML-1345
p1134
aVSYSTEMML-1344
p1135
aVSYSTEMML-1343
p1136
aVSYSTEMML-1342
p1137
aVSYSTEMML-1341
p1138
aVSYSTEMML-1340
p1139
aVSYSTEMML-1339
p1140
aVSYSTEMML-1338
p1141
aVSYSTEMML-1337
p1142
aVSYSTEMML-1336
p1143
aVSYSTEMML-1335
p1144
aVSYSTEMML-1334
p1145
aVSYSTEMML-1333
p1146
aVSYSTEMML-1332
p1147
aVSYSTEMML-1331
p1148
aVSYSTEMML-1330
p1149
aVSYSTEMML-1329
p1150
aVSYSTEMML-1328
p1151
aVSYSTEMML-1327
p1152
aVSYSTEMML-1326
p1153
aVSYSTEMML-1325
p1154
aVSYSTEMML-1324
p1155
aVSYSTEMML-1323
p1156
aVSYSTEMML-1322
p1157
aVSYSTEMML-1321
p1158
aVSYSTEMML-1320
p1159
aVSYSTEMML-1319
p1160
aVSYSTEMML-1318
p1161
aVSYSTEMML-1317
p1162
aVSYSTEMML-1316
p1163
aVSYSTEMML-1315
p1164
aVSYSTEMML-1314
p1165
aVSYSTEMML-1313
p1166
aVSYSTEMML-1312
p1167
aVSYSTEMML-1311
p1168
aVSYSTEMML-1310
p1169
aVSYSTEMML-1309
p1170
aVSYSTEMML-1308
p1171
aVSYSTEMML-1307
p1172
aVSYSTEMML-1306
p1173
aVSYSTEMML-1305
p1174
aVSYSTEMML-1304
p1175
aVSYSTEMML-1303
p1176
aVSYSTEMML-1302
p1177
aVSYSTEMML-1301
p1178
aVSYSTEMML-1300
p1179
aVSYSTEMML-1299
p1180
aVSYSTEMML-1298
p1181
aVSYSTEMML-1297
p1182
aVSYSTEMML-1296
p1183
aVSYSTEMML-1295
p1184
aVSYSTEMML-1294
p1185
aVSYSTEMML-1293
p1186
aVSYSTEMML-1292
p1187
aVSYSTEMML-1291
p1188
aVSYSTEMML-1290
p1189
aVSYSTEMML-1289
p1190
aVSYSTEMML-1288
p1191
aVSYSTEMML-1287
p1192
aVSYSTEMML-1286
p1193
aVSYSTEMML-1285
p1194
aVSYSTEMML-1284
p1195
aVSYSTEMML-1283
p1196
aVSYSTEMML-1282
p1197
aVSYSTEMML-1281
p1198
aVSYSTEMML-1280
p1199
aVSYSTEMML-1279
p1200
aVSYSTEMML-1278
p1201
aVSYSTEMML-1277
p1202
aVSYSTEMML-1276
p1203
aVSYSTEMML-1275
p1204
aVSYSTEMML-1274
p1205
aVSYSTEMML-1273
p1206
aVSYSTEMML-1272
p1207
aVSYSTEMML-1271
p1208
aVSYSTEMML-1270
p1209
aVSYSTEMML-1269
p1210
aVSYSTEMML-1268
p1211
aVSYSTEMML-1267
p1212
aVSYSTEMML-1266
p1213
aVSYSTEMML-1265
p1214
aVSYSTEMML-1264
p1215
aVSYSTEMML-1263
p1216
aVSYSTEMML-1262
p1217
aVSYSTEMML-1261
p1218
aVSYSTEMML-1260
p1219
aVSYSTEMML-1259
p1220
aVSYSTEMML-1258
p1221
aVSYSTEMML-1257
p1222
aVSYSTEMML-1256
p1223
aVSYSTEMML-1255
p1224
aVSYSTEMML-1254
p1225
aVSYSTEMML-1253
p1226
aVSYSTEMML-1252
p1227
aVSYSTEMML-1251
p1228
aVSYSTEMML-1250
p1229
aVSYSTEMML-1249
p1230
aVSYSTEMML-1248
p1231
aVSYSTEMML-1247
p1232
aVSYSTEMML-1246
p1233
aVSYSTEMML-1245
p1234
aVSYSTEMML-1244
p1235
aVSYSTEMML-1243
p1236
aVSYSTEMML-1242
p1237
aVSYSTEMML-1241
p1238
aVSYSTEMML-1240
p1239
aVSYSTEMML-1239
p1240
aVSYSTEMML-1238
p1241
aVSYSTEMML-1237
p1242
aVSYSTEMML-1236
p1243
aVSYSTEMML-1235
p1244
aVSYSTEMML-1234
p1245
aVSYSTEMML-1233
p1246
aVSYSTEMML-1232
p1247
aVSYSTEMML-1231
p1248
aVSYSTEMML-1230
p1249
aVSYSTEMML-1229
p1250
aVSYSTEMML-1228
p1251
aVSYSTEMML-1227
p1252
aVSYSTEMML-1226
p1253
aVSYSTEMML-1225
p1254
aVSYSTEMML-1224
p1255
aVSYSTEMML-1223
p1256
aVSYSTEMML-1222
p1257
aVSYSTEMML-1221
p1258
aVSYSTEMML-1220
p1259
aVSYSTEMML-1219
p1260
aVSYSTEMML-1218
p1261
aVSYSTEMML-1217
p1262
aVSYSTEMML-1216
p1263
aVSYSTEMML-1215
p1264
aVSYSTEMML-1214
p1265
aVSYSTEMML-1213
p1266
aVSYSTEMML-1212
p1267
aVSYSTEMML-1211
p1268
aVSYSTEMML-1210
p1269
aVSYSTEMML-1209
p1270
aVSYSTEMML-1208
p1271
aVSYSTEMML-1207
p1272
aVSYSTEMML-1206
p1273
aVSYSTEMML-1205
p1274
aVSYSTEMML-1204
p1275
aVSYSTEMML-1203
p1276
aVSYSTEMML-1202
p1277
aVSYSTEMML-1201
p1278
aVSYSTEMML-1200
p1279
aVSYSTEMML-1199
p1280
aVSYSTEMML-1198
p1281
aVSYSTEMML-1197
p1282
aVSYSTEMML-1196
p1283
aVSYSTEMML-1195
p1284
aVSYSTEMML-1194
p1285
aVSYSTEMML-1193
p1286
aVSYSTEMML-1192
p1287
aVSYSTEMML-1191
p1288
aVSYSTEMML-1190
p1289
aVSYSTEMML-1189
p1290
aVSYSTEMML-1188
p1291
aVSYSTEMML-1187
p1292
aVSYSTEMML-1186
p1293
aVSYSTEMML-1185
p1294
aVSYSTEMML-1184
p1295
aVSYSTEMML-1183
p1296
aVSYSTEMML-1182
p1297
aVSYSTEMML-1181
p1298
aVSYSTEMML-1180
p1299
aVSYSTEMML-1179
p1300
aVSYSTEMML-1178
p1301
aVSYSTEMML-1177
p1302
aVSYSTEMML-1176
p1303
aVSYSTEMML-1175
p1304
aVSYSTEMML-1174
p1305
aVSYSTEMML-1173
p1306
aVSYSTEMML-1172
p1307
aVSYSTEMML-1171
p1308
aVSYSTEMML-1170
p1309
aVSYSTEMML-1169
p1310
aVSYSTEMML-1168
p1311
aVSYSTEMML-1167
p1312
aVSYSTEMML-1166
p1313
aVSYSTEMML-1165
p1314
aVSYSTEMML-1164
p1315
aVSYSTEMML-1163
p1316
aVSYSTEMML-1162
p1317
aVSYSTEMML-1161
p1318
aVSYSTEMML-1160
p1319
aVSYSTEMML-1159
p1320
aVSYSTEMML-1158
p1321
aVSYSTEMML-1157
p1322
aVSYSTEMML-1156
p1323
aVSYSTEMML-1155
p1324
aVSYSTEMML-1154
p1325
aVSYSTEMML-1153
p1326
aVSYSTEMML-1152
p1327
aVSYSTEMML-1151
p1328
aVSYSTEMML-1150
p1329
aVSYSTEMML-1149
p1330
aVSYSTEMML-1148
p1331
aVSYSTEMML-1147
p1332
aVSYSTEMML-1146
p1333
aVSYSTEMML-1145
p1334
aVSYSTEMML-1144
p1335
aVSYSTEMML-1143
p1336
aVSYSTEMML-1142
p1337
aVSYSTEMML-1141
p1338
aVSYSTEMML-1140
p1339
aVSYSTEMML-1139
p1340
aVSYSTEMML-1138
p1341
aVSYSTEMML-1137
p1342
aVSYSTEMML-1136
p1343
aVSYSTEMML-1135
p1344
aVSYSTEMML-1134
p1345
aVSYSTEMML-1133
p1346
aVSYSTEMML-1132
p1347
aVSYSTEMML-1131
p1348
aVSYSTEMML-1130
p1349
aVSYSTEMML-1129
p1350
aVSYSTEMML-1128
p1351
aVSYSTEMML-1127
p1352
aVSYSTEMML-1126
p1353
aVSYSTEMML-1125
p1354
aVSYSTEMML-1124
p1355
aVSYSTEMML-1123
p1356
aVSYSTEMML-1122
p1357
aVSYSTEMML-1121
p1358
aVSYSTEMML-1120
p1359
aVSYSTEMML-1119
p1360
aVSYSTEMML-1118
p1361
aVSYSTEMML-1117
p1362
aVSYSTEMML-1116
p1363
aVSYSTEMML-1115
p1364
aVSYSTEMML-1114
p1365
aVSYSTEMML-1113
p1366
aVSYSTEMML-1112
p1367
aVSYSTEMML-1111
p1368
aVSYSTEMML-1110
p1369
aVSYSTEMML-1109
p1370
aVSYSTEMML-1108
p1371
aVSYSTEMML-1107
p1372
aVSYSTEMML-1106
p1373
aVSYSTEMML-1105
p1374
aVSYSTEMML-1104
p1375
aVSYSTEMML-1103
p1376
aVSYSTEMML-1102
p1377
aVSYSTEMML-1101
p1378
aVSYSTEMML-1100
p1379
aVSYSTEMML-1099
p1380
aVSYSTEMML-1098
p1381
aVSYSTEMML-1097
p1382
aVSYSTEMML-1096
p1383
aVSYSTEMML-1095
p1384
aVSYSTEMML-1094
p1385
aVSYSTEMML-1093
p1386
aVSYSTEMML-1092
p1387
aVSYSTEMML-1091
p1388
aVSYSTEMML-1090
p1389
aVSYSTEMML-1089
p1390
aVSYSTEMML-1088
p1391
aVSYSTEMML-1087
p1392
aVSYSTEMML-1086
p1393
aVSYSTEMML-1085
p1394
aVSYSTEMML-1084
p1395
aVSYSTEMML-1083
p1396
aVSYSTEMML-1082
p1397
aVSYSTEMML-1081
p1398
aVSYSTEMML-1080
p1399
aVSYSTEMML-1079
p1400
aVSYSTEMML-1078
p1401
aVSYSTEMML-1077
p1402
aVSYSTEMML-1076
p1403
aVSYSTEMML-1075
p1404
aVSYSTEMML-1074
p1405
aVSYSTEMML-1073
p1406
aVSYSTEMML-1072
p1407
aVSYSTEMML-1071
p1408
aVSYSTEMML-1070
p1409
aVSYSTEMML-1069
p1410
aVSYSTEMML-1068
p1411
aVSYSTEMML-1067
p1412
aVSYSTEMML-1066
p1413
aVSYSTEMML-1065
p1414
aVSYSTEMML-1064
p1415
aVSYSTEMML-1063
p1416
aVSYSTEMML-1062
p1417
aVSYSTEMML-1061
p1418
aVSYSTEMML-1060
p1419
aVSYSTEMML-1059
p1420
aVSYSTEMML-1058
p1421
aVSYSTEMML-1057
p1422
aVSYSTEMML-1056
p1423
aVSYSTEMML-1055
p1424
aVSYSTEMML-1054
p1425
aVSYSTEMML-1053
p1426
aVSYSTEMML-1052
p1427
aVSYSTEMML-1051
p1428
aVSYSTEMML-1050
p1429
aVSYSTEMML-1049
p1430
aVSYSTEMML-1048
p1431
aVSYSTEMML-1047
p1432
aVSYSTEMML-1046
p1433
aVSYSTEMML-1045
p1434
aVSYSTEMML-1044
p1435
aVSYSTEMML-1043
p1436
aVSYSTEMML-1042
p1437
aVSYSTEMML-1041
p1438
aVSYSTEMML-1040
p1439
aVSYSTEMML-1039
p1440
aVSYSTEMML-1038
p1441
aVSYSTEMML-1037
p1442
aVSYSTEMML-1036
p1443
aVSYSTEMML-1035
p1444
aVSYSTEMML-1034
p1445
aVSYSTEMML-1033
p1446
aVSYSTEMML-1032
p1447
aVSYSTEMML-1031
p1448
aVSYSTEMML-1030
p1449
aVSYSTEMML-1029
p1450
aVSYSTEMML-1028
p1451
aVSYSTEMML-1027
p1452
aVSYSTEMML-1026
p1453
aVSYSTEMML-1025
p1454
aVSYSTEMML-1024
p1455
aVSYSTEMML-1023
p1456
aVSYSTEMML-1022
p1457
aVSYSTEMML-1021
p1458
aVSYSTEMML-1020
p1459
aVSYSTEMML-1019
p1460
aVSYSTEMML-1018
p1461
aVSYSTEMML-1017
p1462
aVSYSTEMML-1016
p1463
aVSYSTEMML-1015
p1464
aVSYSTEMML-1014
p1465
aVSYSTEMML-1013
p1466
aVSYSTEMML-1012
p1467
aVSYSTEMML-1011
p1468
aVSYSTEMML-1010
p1469
aVSYSTEMML-1009
p1470
aVSYSTEMML-1008
p1471
aVSYSTEMML-1007
p1472
aVSYSTEMML-1006
p1473
aVSYSTEMML-1005
p1474
aVSYSTEMML-1004
p1475
aVSYSTEMML-1003
p1476
aVSYSTEMML-1002
p1477
aVSYSTEMML-1001
p1478
aVSYSTEMML-1000
p1479
aVSYSTEMML-999
p1480
aVSYSTEMML-998
p1481
aVSYSTEMML-997
p1482
aVSYSTEMML-996
p1483
aVSYSTEMML-995
p1484
aVSYSTEMML-994
p1485
aVSYSTEMML-993
p1486
aVSYSTEMML-992
p1487
aVSYSTEMML-991
p1488
aVSYSTEMML-990
p1489
aVSYSTEMML-989
p1490
aVSYSTEMML-988
p1491
aVSYSTEMML-987
p1492
aVSYSTEMML-986
p1493
aVSYSTEMML-985
p1494
aVSYSTEMML-984
p1495
aVSYSTEMML-983
p1496
aVSYSTEMML-982
p1497
aVSYSTEMML-981
p1498
aVSYSTEMML-980
p1499
aVSYSTEMML-979
p1500
aVSYSTEMML-978
p1501
aVSYSTEMML-977
p1502
aVSYSTEMML-976
p1503
aVSYSTEMML-975
p1504
aVSYSTEMML-974
p1505
aVSYSTEMML-973
p1506
aVSYSTEMML-972
p1507
aVSYSTEMML-971
p1508
aVSYSTEMML-970
p1509
aVSYSTEMML-969
p1510
aVSYSTEMML-968
p1511
aVSYSTEMML-967
p1512
aVSYSTEMML-966
p1513
aVSYSTEMML-965
p1514
aVSYSTEMML-964
p1515
aVSYSTEMML-963
p1516
aVSYSTEMML-962
p1517
aVSYSTEMML-961
p1518
aVSYSTEMML-960
p1519
aVSYSTEMML-959
p1520
aVSYSTEMML-958
p1521
aVSYSTEMML-957
p1522
aVSYSTEMML-956
p1523
aVSYSTEMML-955
p1524
aVSYSTEMML-954
p1525
aVSYSTEMML-953
p1526
aVSYSTEMML-952
p1527
aVSYSTEMML-951
p1528
aVSYSTEMML-950
p1529
aVSYSTEMML-949
p1530
aVSYSTEMML-948
p1531
aVSYSTEMML-947
p1532
aVSYSTEMML-946
p1533
aVSYSTEMML-945
p1534
aVSYSTEMML-944
p1535
aVSYSTEMML-943
p1536
aVSYSTEMML-942
p1537
aVSYSTEMML-941
p1538
aVSYSTEMML-940
p1539
aVSYSTEMML-939
p1540
aVSYSTEMML-938
p1541
aVSYSTEMML-937
p1542
aVSYSTEMML-936
p1543
aVSYSTEMML-935
p1544
aVSYSTEMML-934
p1545
aVSYSTEMML-933
p1546
aVSYSTEMML-932
p1547
aVSYSTEMML-931
p1548
aVSYSTEMML-930
p1549
aVSYSTEMML-929
p1550
aVSYSTEMML-928
p1551
aVSYSTEMML-927
p1552
aVSYSTEMML-926
p1553
aVSYSTEMML-925
p1554
aVSYSTEMML-924
p1555
aVSYSTEMML-923
p1556
aVSYSTEMML-922
p1557
aVSYSTEMML-921
p1558
aVSYSTEMML-920
p1559
aVSYSTEMML-919
p1560
aVSYSTEMML-918
p1561
aVSYSTEMML-917
p1562
aVSYSTEMML-916
p1563
aVSYSTEMML-915
p1564
aVSYSTEMML-914
p1565
aVSYSTEMML-913
p1566
aVSYSTEMML-912
p1567
aVSYSTEMML-911
p1568
aVSYSTEMML-910
p1569
aVSYSTEMML-909
p1570
aVSYSTEMML-908
p1571
aVSYSTEMML-907
p1572
aVSYSTEMML-906
p1573
aVSYSTEMML-905
p1574
aVSYSTEMML-904
p1575
aVSYSTEMML-903
p1576
aVSYSTEMML-902
p1577
aVSYSTEMML-901
p1578
aVSYSTEMML-900
p1579
aVSYSTEMML-899
p1580
aVSYSTEMML-898
p1581
aVSYSTEMML-897
p1582
aVSYSTEMML-896
p1583
aVSYSTEMML-895
p1584
aVSYSTEMML-894
p1585
aVSYSTEMML-893
p1586
aVSYSTEMML-892
p1587
aVSYSTEMML-891
p1588
aVSYSTEMML-890
p1589
aVSYSTEMML-889
p1590
aVSYSTEMML-888
p1591
aVSYSTEMML-887
p1592
aVSYSTEMML-886
p1593
aVSYSTEMML-885
p1594
aVSYSTEMML-884
p1595
aVSYSTEMML-883
p1596
aVSYSTEMML-882
p1597
aVSYSTEMML-881
p1598
aVSYSTEMML-880
p1599
aVSYSTEMML-879
p1600
aVSYSTEMML-878
p1601
aVSYSTEMML-877
p1602
aVSYSTEMML-876
p1603
aVSYSTEMML-875
p1604
aVSYSTEMML-874
p1605
aVSYSTEMML-873
p1606
aVSYSTEMML-872
p1607
aVSYSTEMML-871
p1608
aVSYSTEMML-870
p1609
aVSYSTEMML-869
p1610
aVSYSTEMML-868
p1611
aVSYSTEMML-867
p1612
aVSYSTEMML-866
p1613
aVSYSTEMML-865
p1614
aVSYSTEMML-864
p1615
aVSYSTEMML-863
p1616
aVSYSTEMML-862
p1617
aVSYSTEMML-861
p1618
aVSYSTEMML-860
p1619
aVSYSTEMML-859
p1620
aVSYSTEMML-858
p1621
aVSYSTEMML-857
p1622
aVSYSTEMML-856
p1623
aVSYSTEMML-855
p1624
aVSYSTEMML-854
p1625
aVSYSTEMML-853
p1626
aVSYSTEMML-852
p1627
aVSYSTEMML-851
p1628
aVSYSTEMML-850
p1629
aVSYSTEMML-849
p1630
aVSYSTEMML-848
p1631
aVSYSTEMML-847
p1632
aVSYSTEMML-846
p1633
aVSYSTEMML-845
p1634
aVSYSTEMML-844
p1635
aVSYSTEMML-843
p1636
aVSYSTEMML-842
p1637
aVSYSTEMML-841
p1638
aVSYSTEMML-840
p1639
aVSYSTEMML-839
p1640
aVSYSTEMML-838
p1641
aVSYSTEMML-837
p1642
aVSYSTEMML-836
p1643
aVSYSTEMML-835
p1644
aVSYSTEMML-834
p1645
aVSYSTEMML-833
p1646
aVSYSTEMML-832
p1647
aVSYSTEMML-831
p1648
aVSYSTEMML-830
p1649
aVSYSTEMML-829
p1650
aVSYSTEMML-828
p1651
aVSYSTEMML-827
p1652
aVSYSTEMML-826
p1653
aVSYSTEMML-825
p1654
aVSYSTEMML-824
p1655
aVSYSTEMML-823
p1656
aVSYSTEMML-822
p1657
aVSYSTEMML-821
p1658
aVSYSTEMML-820
p1659
aVSYSTEMML-819
p1660
aVSYSTEMML-818
p1661
aVSYSTEMML-817
p1662
aVSYSTEMML-816
p1663
aVSYSTEMML-815
p1664
aVSYSTEMML-814
p1665
aVSYSTEMML-813
p1666
aVSYSTEMML-812
p1667
aVSYSTEMML-811
p1668
aVSYSTEMML-810
p1669
aVSYSTEMML-809
p1670
aVSYSTEMML-808
p1671
aVSYSTEMML-807
p1672
aVSYSTEMML-806
p1673
aVSYSTEMML-805
p1674
aVSYSTEMML-804
p1675
aVSYSTEMML-803
p1676
aVSYSTEMML-802
p1677
aVSYSTEMML-801
p1678
aVSYSTEMML-800
p1679
aVSYSTEMML-799
p1680
aVSYSTEMML-798
p1681
aVSYSTEMML-797
p1682
aVSYSTEMML-796
p1683
aVSYSTEMML-795
p1684
aVSYSTEMML-794
p1685
aVSYSTEMML-793
p1686
aVSYSTEMML-792
p1687
aVSYSTEMML-791
p1688
aVSYSTEMML-790
p1689
aVSYSTEMML-789
p1690
aVSYSTEMML-788
p1691
aVSYSTEMML-787
p1692
aVSYSTEMML-786
p1693
aVSYSTEMML-785
p1694
aVSYSTEMML-784
p1695
aVSYSTEMML-783
p1696
aVSYSTEMML-782
p1697
aVSYSTEMML-781
p1698
aVSYSTEMML-780
p1699
aVSYSTEMML-779
p1700
aVSYSTEMML-778
p1701
aVSYSTEMML-777
p1702
aVSYSTEMML-776
p1703
aVSYSTEMML-775
p1704
aVSYSTEMML-774
p1705
aVSYSTEMML-773
p1706
aVSYSTEMML-772
p1707
aVSYSTEMML-771
p1708
aVSYSTEMML-770
p1709
aVSYSTEMML-769
p1710
aVSYSTEMML-768
p1711
aVSYSTEMML-767
p1712
aVSYSTEMML-766
p1713
aVSYSTEMML-765
p1714
aVSYSTEMML-764
p1715
aVSYSTEMML-763
p1716
aVSYSTEMML-762
p1717
aVSYSTEMML-761
p1718
aVSYSTEMML-760
p1719
aVSYSTEMML-759
p1720
aVSYSTEMML-758
p1721
aVSYSTEMML-757
p1722
aVSYSTEMML-756
p1723
aVSYSTEMML-755
p1724
aVSYSTEMML-754
p1725
aVSYSTEMML-753
p1726
aVSYSTEMML-752
p1727
aVSYSTEMML-751
p1728
aVSYSTEMML-750
p1729
aVSYSTEMML-749
p1730
aVSYSTEMML-748
p1731
aVSYSTEMML-747
p1732
aVSYSTEMML-746
p1733
aVSYSTEMML-745
p1734
aVSYSTEMML-744
p1735
aVSYSTEMML-743
p1736
aVSYSTEMML-742
p1737
aVSYSTEMML-741
p1738
aVSYSTEMML-740
p1739
aVSYSTEMML-739
p1740
aVSYSTEMML-738
p1741
aVSYSTEMML-737
p1742
aVSYSTEMML-736
p1743
aVSYSTEMML-735
p1744
aVSYSTEMML-734
p1745
aVSYSTEMML-733
p1746
aVSYSTEMML-732
p1747
aVSYSTEMML-731
p1748
aVSYSTEMML-730
p1749
aVSYSTEMML-729
p1750
aVSYSTEMML-728
p1751
aVSYSTEMML-727
p1752
aVSYSTEMML-726
p1753
aVSYSTEMML-725
p1754
aVSYSTEMML-724
p1755
aVSYSTEMML-723
p1756
aVSYSTEMML-722
p1757
aVSYSTEMML-721
p1758
aVSYSTEMML-720
p1759
aVSYSTEMML-719
p1760
aVSYSTEMML-718
p1761
aVSYSTEMML-717
p1762
aVSYSTEMML-716
p1763
aVSYSTEMML-715
p1764
aVSYSTEMML-714
p1765
aVSYSTEMML-713
p1766
aVSYSTEMML-712
p1767
aVSYSTEMML-711
p1768
aVSYSTEMML-710
p1769
aVSYSTEMML-709
p1770
aVSYSTEMML-708
p1771
aVSYSTEMML-707
p1772
aVSYSTEMML-706
p1773
aVSYSTEMML-705
p1774
aVSYSTEMML-704
p1775
aVSYSTEMML-703
p1776
aVSYSTEMML-702
p1777
aVSYSTEMML-701
p1778
aVSYSTEMML-700
p1779
aVSYSTEMML-699
p1780
aVSYSTEMML-698
p1781
aVSYSTEMML-697
p1782
aVSYSTEMML-696
p1783
aVSYSTEMML-695
p1784
aVSYSTEMML-694
p1785
aVSYSTEMML-693
p1786
aVSYSTEMML-692
p1787
aVSYSTEMML-691
p1788
aVSYSTEMML-690
p1789
aVSYSTEMML-689
p1790
aVSYSTEMML-688
p1791
aVSYSTEMML-687
p1792
aVSYSTEMML-686
p1793
aVSYSTEMML-685
p1794
aVSYSTEMML-684
p1795
aVSYSTEMML-683
p1796
aVSYSTEMML-681
p1797
aVSYSTEMML-680
p1798
aVSYSTEMML-679
p1799
aVSYSTEMML-678
p1800
aVSYSTEMML-677
p1801
aVSYSTEMML-676
p1802
aVSYSTEMML-675
p1803
aVSYSTEMML-674
p1804
aVSYSTEMML-673
p1805
aVSYSTEMML-672
p1806
aVSYSTEMML-671
p1807
aVSYSTEMML-670
p1808
aVSYSTEMML-669
p1809
aVSYSTEMML-668
p1810
aVSYSTEMML-667
p1811
aVSYSTEMML-666
p1812
aVSYSTEMML-665
p1813
aVSYSTEMML-664
p1814
aVSYSTEMML-663
p1815
aVSYSTEMML-662
p1816
aVSYSTEMML-661
p1817
aVSYSTEMML-660
p1818
aVSYSTEMML-659
p1819
aVSYSTEMML-658
p1820
aVSYSTEMML-657
p1821
aVSYSTEMML-656
p1822
aVSYSTEMML-655
p1823
aVSYSTEMML-654
p1824
aVSYSTEMML-653
p1825
aVSYSTEMML-652
p1826
aVSYSTEMML-651
p1827
aVSYSTEMML-650
p1828
aVSYSTEMML-649
p1829
aVSYSTEMML-648
p1830
aVSYSTEMML-647
p1831
aVSYSTEMML-646
p1832
aVSYSTEMML-645
p1833
aVSYSTEMML-644
p1834
aVSYSTEMML-643
p1835
aVSYSTEMML-642
p1836
aVSYSTEMML-641
p1837
aVSYSTEMML-640
p1838
aVSYSTEMML-639
p1839
aVSYSTEMML-638
p1840
aVSYSTEMML-637
p1841
aVSYSTEMML-636
p1842
aVSYSTEMML-635
p1843
aVSYSTEMML-634
p1844
aVSYSTEMML-633
p1845
aVSYSTEMML-632
p1846
aVSYSTEMML-631
p1847
aVSYSTEMML-630
p1848
aVSYSTEMML-629
p1849
aVSYSTEMML-628
p1850
aVSYSTEMML-627
p1851
aVSYSTEMML-626
p1852
aVSYSTEMML-625
p1853
aVSYSTEMML-624
p1854
aVSYSTEMML-623
p1855
aVSYSTEMML-622
p1856
aVSYSTEMML-621
p1857
aVSYSTEMML-620
p1858
aVSYSTEMML-619
p1859
aVSYSTEMML-618
p1860
aVSYSTEMML-617
p1861
aVSYSTEMML-616
p1862
aVSYSTEMML-615
p1863
aVSYSTEMML-614
p1864
aVSYSTEMML-613
p1865
aVSYSTEMML-612
p1866
aVSYSTEMML-611
p1867
aVSYSTEMML-610
p1868
aVSYSTEMML-609
p1869
aVSYSTEMML-608
p1870
aVSYSTEMML-607
p1871
aVSYSTEMML-606
p1872
aVSYSTEMML-605
p1873
aVSYSTEMML-604
p1874
aVSYSTEMML-603
p1875
aVSYSTEMML-602
p1876
aVSYSTEMML-601
p1877
aVSYSTEMML-600
p1878
aVSYSTEMML-599
p1879
aVSYSTEMML-598
p1880
aVSYSTEMML-597
p1881
aVSYSTEMML-596
p1882
aVSYSTEMML-595
p1883
aVSYSTEMML-594
p1884
aVSYSTEMML-593
p1885
aVSYSTEMML-592
p1886
aVSYSTEMML-591
p1887
aVSYSTEMML-590
p1888
aVSYSTEMML-589
p1889
aVSYSTEMML-588
p1890
aVSYSTEMML-587
p1891
aVSYSTEMML-586
p1892
aVSYSTEMML-585
p1893
aVSYSTEMML-584
p1894
aVSYSTEMML-583
p1895
aVSYSTEMML-582
p1896
aVSYSTEMML-581
p1897
aVSYSTEMML-580
p1898
aVSYSTEMML-579
p1899
aVSYSTEMML-578
p1900
aVSYSTEMML-577
p1901
aVSYSTEMML-576
p1902
aVSYSTEMML-573
p1903
aVSYSTEMML-572
p1904
aVSYSTEMML-571
p1905
aVSYSTEMML-570
p1906
aVSYSTEMML-569
p1907
aVSYSTEMML-568
p1908
aVSYSTEMML-567
p1909
aVSYSTEMML-566
p1910
aVSYSTEMML-565
p1911
aVSYSTEMML-564
p1912
aVSYSTEMML-563
p1913
aVSYSTEMML-562
p1914
aVSYSTEMML-561
p1915
aVSYSTEMML-560
p1916
aVSYSTEMML-559
p1917
aVSYSTEMML-558
p1918
aVSYSTEMML-557
p1919
aVSYSTEMML-556
p1920
aVSYSTEMML-555
p1921
aVSYSTEMML-554
p1922
aVSYSTEMML-553
p1923
aVSYSTEMML-552
p1924
aVSYSTEMML-551
p1925
aVSYSTEMML-550
p1926
aVSYSTEMML-549
p1927
aVSYSTEMML-548
p1928
aVSYSTEMML-547
p1929
aVSYSTEMML-546
p1930
aVSYSTEMML-545
p1931
aVSYSTEMML-544
p1932
aVSYSTEMML-543
p1933
aVSYSTEMML-542
p1934
aVSYSTEMML-541
p1935
aVSYSTEMML-540
p1936
aVSYSTEMML-539
p1937
aVSYSTEMML-538
p1938
aVSYSTEMML-537
p1939
aVSYSTEMML-536
p1940
aVSYSTEMML-535
p1941
aVSYSTEMML-534
p1942
aVSYSTEMML-533
p1943
aVSYSTEMML-532
p1944
aVSYSTEMML-531
p1945
aVSYSTEMML-530
p1946
aVSYSTEMML-529
p1947
aVSYSTEMML-528
p1948
aVSYSTEMML-527
p1949
aVSYSTEMML-526
p1950
aVSYSTEMML-525
p1951
aVSYSTEMML-524
p1952
aVSYSTEMML-523
p1953
aVSYSTEMML-522
p1954
aVSYSTEMML-521
p1955
aVSYSTEMML-520
p1956
aVSYSTEMML-519
p1957
aVSYSTEMML-518
p1958
aVSYSTEMML-517
p1959
aVSYSTEMML-516
p1960
aVSYSTEMML-515
p1961
aVSYSTEMML-514
p1962
aVSYSTEMML-513
p1963
aVSYSTEMML-512
p1964
aVSYSTEMML-511
p1965
aVSYSTEMML-510
p1966
aVSYSTEMML-509
p1967
aVSYSTEMML-508
p1968
aVSYSTEMML-507
p1969
aVSYSTEMML-506
p1970
aVSYSTEMML-505
p1971
aVSYSTEMML-504
p1972
aVSYSTEMML-503
p1973
aVSYSTEMML-502
p1974
aVSYSTEMML-501
p1975
aVSYSTEMML-500
p1976
aVSYSTEMML-499
p1977
aVSYSTEMML-498
p1978
aVSYSTEMML-497
p1979
aVSYSTEMML-496
p1980
aVSYSTEMML-495
p1981
aVSYSTEMML-494
p1982
aVSYSTEMML-493
p1983
aVSYSTEMML-492
p1984
aVSYSTEMML-491
p1985
aVSYSTEMML-490
p1986
aVSYSTEMML-489
p1987
aVSYSTEMML-488
p1988
aVSYSTEMML-487
p1989
aVSYSTEMML-486
p1990
aVSYSTEMML-485
p1991
aVSYSTEMML-484
p1992
aVSYSTEMML-483
p1993
aVSYSTEMML-482
p1994
aVSYSTEMML-481
p1995
aVSYSTEMML-480
p1996
aVSYSTEMML-479
p1997
aVSYSTEMML-478
p1998
aVSYSTEMML-477
p1999
aVSYSTEMML-476
p2000
aVSYSTEMML-475
p2001
aVSYSTEMML-474
p2002
aVSYSTEMML-473
p2003
aVSYSTEMML-472
p2004
aVSYSTEMML-471
p2005
aVSYSTEMML-470
p2006
aVSYSTEMML-469
p2007
aVSYSTEMML-468
p2008
aVSYSTEMML-467
p2009
aVSYSTEMML-466
p2010
aVSYSTEMML-465
p2011
aVSYSTEMML-464
p2012
aVSYSTEMML-463
p2013
aVSYSTEMML-462
p2014
aVSYSTEMML-461
p2015
aVSYSTEMML-460
p2016
aVSYSTEMML-459
p2017
aVSYSTEMML-458
p2018
aVSYSTEMML-457
p2019
aVSYSTEMML-456
p2020
aVSYSTEMML-455
p2021
aVSYSTEMML-454
p2022
aVSYSTEMML-453
p2023
aVSYSTEMML-452
p2024
aVSYSTEMML-451
p2025
aVSYSTEMML-450
p2026
aVSYSTEMML-449
p2027
aVSYSTEMML-448
p2028
aVSYSTEMML-447
p2029
aVSYSTEMML-446
p2030
aVSYSTEMML-445
p2031
aVSYSTEMML-444
p2032
aVSYSTEMML-443
p2033
aVSYSTEMML-442
p2034
aVSYSTEMML-441
p2035
aVSYSTEMML-440
p2036
aVSYSTEMML-439
p2037
aVSYSTEMML-438
p2038
aVSYSTEMML-437
p2039
aVSYSTEMML-436
p2040
aVSYSTEMML-435
p2041
aVSYSTEMML-434
p2042
aVSYSTEMML-433
p2043
aVSYSTEMML-432
p2044
aVSYSTEMML-431
p2045
aVSYSTEMML-430
p2046
aVSYSTEMML-429
p2047
aVSYSTEMML-428
p2048
aVSYSTEMML-427
p2049
aVSYSTEMML-426
p2050
aVSYSTEMML-425
p2051
aVSYSTEMML-424
p2052
aVSYSTEMML-423
p2053
aVSYSTEMML-422
p2054
aVSYSTEMML-421
p2055
aVSYSTEMML-420
p2056
aVSYSTEMML-419
p2057
aVSYSTEMML-418
p2058
aVSYSTEMML-417
p2059
aVSYSTEMML-416
p2060
aVSYSTEMML-415
p2061
aVSYSTEMML-414
p2062
aVSYSTEMML-413
p2063
aVSYSTEMML-412
p2064
aVSYSTEMML-411
p2065
aVSYSTEMML-410
p2066
aVSYSTEMML-409
p2067
aVSYSTEMML-408
p2068
aVSYSTEMML-407
p2069
aVSYSTEMML-406
p2070
aVSYSTEMML-405
p2071
aVSYSTEMML-404
p2072
aVSYSTEMML-403
p2073
aVSYSTEMML-402
p2074
aVSYSTEMML-401
p2075
aVSYSTEMML-400
p2076
aVSYSTEMML-399
p2077
aVSYSTEMML-398
p2078
aVSYSTEMML-397
p2079
aVSYSTEMML-396
p2080
aVSYSTEMML-395
p2081
aVSYSTEMML-394
p2082
aVSYSTEMML-393
p2083
aVSYSTEMML-392
p2084
aVSYSTEMML-391
p2085
aVSYSTEMML-390
p2086
aVSYSTEMML-389
p2087
aVSYSTEMML-388
p2088
aVSYSTEMML-387
p2089
aVSYSTEMML-386
p2090
aVSYSTEMML-385
p2091
aVSYSTEMML-384
p2092
aVSYSTEMML-383
p2093
aVSYSTEMML-382
p2094
aVSYSTEMML-381
p2095
aVSYSTEMML-380
p2096
aVSYSTEMML-379
p2097
aVSYSTEMML-378
p2098
aVSYSTEMML-377
p2099
aVSYSTEMML-376
p2100
aVSYSTEMML-375
p2101
aVSYSTEMML-374
p2102
aVSYSTEMML-373
p2103
aVSYSTEMML-372
p2104
aVSYSTEMML-371
p2105
aVSYSTEMML-370
p2106
aVSYSTEMML-369
p2107
aVSYSTEMML-368
p2108
aVSYSTEMML-367
p2109
aVSYSTEMML-366
p2110
aVSYSTEMML-365
p2111
aVSYSTEMML-364
p2112
aVSYSTEMML-363
p2113
aVSYSTEMML-362
p2114
aVSYSTEMML-361
p2115
aVSYSTEMML-360
p2116
aVSYSTEMML-359
p2117
aVSYSTEMML-358
p2118
aVSYSTEMML-357
p2119
aVSYSTEMML-356
p2120
aVSYSTEMML-355
p2121
aVSYSTEMML-354
p2122
aVSYSTEMML-353
p2123
aVSYSTEMML-352
p2124
aVSYSTEMML-351
p2125
aVSYSTEMML-347
p2126
aVSYSTEMML-346
p2127
aVSYSTEMML-345
p2128
aVSYSTEMML-344
p2129
aVSYSTEMML-343
p2130
aVSYSTEMML-342
p2131
aVSYSTEMML-341
p2132
aVSYSTEMML-340
p2133
aVSYSTEMML-339
p2134
aVSYSTEMML-338
p2135
aVSYSTEMML-337
p2136
aVSYSTEMML-336
p2137
aVSYSTEMML-335
p2138
aVSYSTEMML-334
p2139
aVSYSTEMML-333
p2140
aVSYSTEMML-332
p2141
aVSYSTEMML-331
p2142
aVSYSTEMML-330
p2143
aVSYSTEMML-329
p2144
aVSYSTEMML-328
p2145
aVSYSTEMML-327
p2146
aVSYSTEMML-326
p2147
aVSYSTEMML-325
p2148
aVSYSTEMML-324
p2149
aVSYSTEMML-323
p2150
aVSYSTEMML-322
p2151
aVSYSTEMML-321
p2152
aVSYSTEMML-320
p2153
aVSYSTEMML-319
p2154
aVSYSTEMML-318
p2155
aVSYSTEMML-317
p2156
aVSYSTEMML-316
p2157
aVSYSTEMML-315
p2158
aVSYSTEMML-314
p2159
aVSYSTEMML-313
p2160
aVSYSTEMML-312
p2161
aVSYSTEMML-311
p2162
aVSYSTEMML-310
p2163
aVSYSTEMML-309
p2164
aVSYSTEMML-308
p2165
aVSYSTEMML-307
p2166
aVSYSTEMML-306
p2167
aVSYSTEMML-305
p2168
aVSYSTEMML-304
p2169
aVSYSTEMML-303
p2170
aVSYSTEMML-302
p2171
aVSYSTEMML-301
p2172
aVSYSTEMML-300
p2173
aVSYSTEMML-299
p2174
aVSYSTEMML-298
p2175
aVSYSTEMML-297
p2176
aVSYSTEMML-296
p2177
aVSYSTEMML-295
p2178
aVSYSTEMML-294
p2179
aVSYSTEMML-293
p2180
aVSYSTEMML-292
p2181
aVSYSTEMML-291
p2182
aVSYSTEMML-290
p2183
aVSYSTEMML-289
p2184
aVSYSTEMML-288
p2185
aVSYSTEMML-287
p2186
aVSYSTEMML-286
p2187
aVSYSTEMML-285
p2188
aVSYSTEMML-284
p2189
aVSYSTEMML-283
p2190
aVSYSTEMML-282
p2191
aVSYSTEMML-281
p2192
aVSYSTEMML-280
p2193
aVSYSTEMML-279
p2194
aVSYSTEMML-278
p2195
aVSYSTEMML-277
p2196
aVSYSTEMML-276
p2197
aVSYSTEMML-275
p2198
aVSYSTEMML-274
p2199
aVSYSTEMML-273
p2200
aVSYSTEMML-272
p2201
aVSYSTEMML-271
p2202
aVSYSTEMML-270
p2203
aVSYSTEMML-269
p2204
aVSYSTEMML-268
p2205
aVSYSTEMML-267
p2206
aVSYSTEMML-266
p2207
aVSYSTEMML-265
p2208
aVSYSTEMML-264
p2209
aVSYSTEMML-263
p2210
aVSYSTEMML-262
p2211
aVSYSTEMML-261
p2212
aVSYSTEMML-260
p2213
aVSYSTEMML-259
p2214
aVSYSTEMML-258
p2215
aVSYSTEMML-257
p2216
aVSYSTEMML-256
p2217
aVSYSTEMML-255
p2218
aVSYSTEMML-254
p2219
aVSYSTEMML-253
p2220
aVSYSTEMML-252
p2221
aVSYSTEMML-251
p2222
aVSYSTEMML-250
p2223
aVSYSTEMML-249
p2224
aVSYSTEMML-248
p2225
aVSYSTEMML-247
p2226
aVSYSTEMML-244
p2227
aVSYSTEMML-243
p2228
aVSYSTEMML-242
p2229
aVSYSTEMML-241
p2230
aVSYSTEMML-240
p2231
aVSYSTEMML-239
p2232
aVSYSTEMML-238
p2233
aVSYSTEMML-237
p2234
aVSYSTEMML-236
p2235
aVSYSTEMML-235
p2236
aVSYSTEMML-234
p2237
aVSYSTEMML-233
p2238
aVSYSTEMML-232
p2239
aVSYSTEMML-231
p2240
aVSYSTEMML-230
p2241
aVSYSTEMML-229
p2242
aVSYSTEMML-228
p2243
aVSYSTEMML-227
p2244
aVSYSTEMML-226
p2245
aVSYSTEMML-225
p2246
aVSYSTEMML-224
p2247
aVSYSTEMML-223
p2248
aVSYSTEMML-222
p2249
aVSYSTEMML-221
p2250
aVSYSTEMML-220
p2251
aVSYSTEMML-219
p2252
aVSYSTEMML-218
p2253
aVSYSTEMML-217
p2254
aVSYSTEMML-216
p2255
aVSYSTEMML-215
p2256
aVSYSTEMML-214
p2257
aVSYSTEMML-213
p2258
aVSYSTEMML-212
p2259
aVSYSTEMML-211
p2260
aVSYSTEMML-210
p2261
aVSYSTEMML-209
p2262
aVSYSTEMML-208
p2263
aVSYSTEMML-207
p2264
aVSYSTEMML-206
p2265
aVSYSTEMML-205
p2266
aVSYSTEMML-204
p2267
aVSYSTEMML-160
p2268
aVSYSTEMML-158
p2269
aVSYSTEMML-157
p2270
aVSYSTEMML-156
p2271
aVSYSTEMML-155
p2272
aVSYSTEMML-154
p2273
aVSYSTEMML-153
p2274
aVSYSTEMML-152
p2275
aVSYSTEMML-151
p2276
aVSYSTEMML-150
p2277
aVSYSTEMML-149
p2278
aVSYSTEMML-148
p2279
aVSYSTEMML-147
p2280
aVSYSTEMML-146
p2281
aVSYSTEMML-145
p2282
aVSYSTEMML-144
p2283
aVSYSTEMML-143
p2284
aVSYSTEMML-142
p2285
aVSYSTEMML-141
p2286
aVSYSTEMML-140
p2287
aVSYSTEMML-139
p2288
aVSYSTEMML-138
p2289
aVSYSTEMML-137
p2290
aVSYSTEMML-136
p2291
aVSYSTEMML-135
p2292
aVSYSTEMML-134
p2293
aVSYSTEMML-133
p2294
aVSYSTEMML-132
p2295
aVSYSTEMML-131
p2296
aVSYSTEMML-130
p2297
aVSYSTEMML-129
p2298
aVSYSTEMML-127
p2299
aVSYSTEMML-126
p2300
aVSYSTEMML-125
p2301
aVSYSTEMML-95
p2302
aVSYSTEMML-94
p2303
aVSYSTEMML-72
p2304
aVSYSTEMML-69
p2305
aVSYSTEMML-65
p2306
aVSYSTEMML-64
p2307
aVSYSTEMML-63
p2308
aVSYSTEMML-62
p2309
aVSYSTEMML-61
p2310
aVSYSTEMML-60
p2311
aVSYSTEMML-59
p2312
aVSYSTEMML-58
p2313
aVSYSTEMML-57
p2314
aVSYSTEMML-56
p2315
aVSYSTEMML-55
p2316
aVSYSTEMML-54
p2317
aVSYSTEMML-53
p2318
aVSYSTEMML-52
p2319
aVSYSTEMML-51
p2320
aVSYSTEMML-50
p2321
aVSYSTEMML-49
p2322
aVSYSTEMML-48
p2323
aVSYSTEMML-47
p2324
aVSYSTEMML-46
p2325
aVSYSTEMML-43
p2326
aVSYSTEMML-41
p2327
aVSYSTEMML-38
p2328
aVSYSTEMML-37
p2329
aVSYSTEMML-36
p2330
aVSYSTEMML-35
p2331
aVSYSTEMML-34
p2332
aVSYSTEMML-33
p2333
aVSYSTEMML-30
p2334
aVSYSTEMML-29
p2335
aVSYSTEMML-28
p2336
aVSYSTEMML-27
p2337
aVSYSTEMML-26
p2338
aVSYSTEMML-23
p2339
a.