(lp0
VTAJO-2189
p1
aVTAJO-2188
p2
aVTAJO-2187
p3
aVTAJO-2186
p4
aVTAJO-2185
p5
aVTAJO-2184
p6
aVTAJO-2183
p7
aVTAJO-2182
p8
aVTAJO-2181
p9
aVTAJO-2180
p10
aVTAJO-2179
p11
aVTAJO-2178
p12
aVTAJO-2177
p13
aVTAJO-2176
p14
aVTAJO-2175
p15
aVTAJO-2174
p16
aVTAJO-2173
p17
aVTAJO-2172
p18
aVTAJO-2171
p19
aVTAJO-2170
p20
aVTAJO-2169
p21
aVTAJO-2168
p22
aVTAJO-2167
p23
aVTAJO-2166
p24
aVTAJO-2165
p25
aVTAJO-2164
p26
aVTAJO-2163
p27
aVTAJO-2162
p28
aVTAJO-2161
p29
aVTAJO-2160
p30
aVTAJO-2159
p31
aVTAJO-2158
p32
aVTAJO-2157
p33
aVTAJO-2156
p34
aVTAJO-2155
p35
aVTAJO-2154
p36
aVTAJO-2151
p37
aVTAJO-2150
p38
aVTAJO-2149
p39
aVTAJO-2148
p40
aVTAJO-2147
p41
aVTAJO-2146
p42
aVTAJO-2145
p43
aVTAJO-2144
p44
aVTAJO-2143
p45
aVTAJO-2142
p46
aVTAJO-2141
p47
aVTAJO-2140
p48
aVTAJO-2139
p49
aVTAJO-2138
p50
aVTAJO-2137
p51
aVTAJO-2136
p52
aVTAJO-2135
p53
aVTAJO-2134
p54
aVTAJO-2133
p55
aVTAJO-2132
p56
aVTAJO-2131
p57
aVTAJO-2130
p58
aVTAJO-2129
p59
aVTAJO-2128
p60
aVTAJO-2127
p61
aVTAJO-2126
p62
aVTAJO-2125
p63
aVTAJO-2124
p64
aVTAJO-2123
p65
aVTAJO-2122
p66
aVTAJO-2121
p67
aVTAJO-2120
p68
aVTAJO-2119
p69
aVTAJO-2118
p70
aVTAJO-2117
p71
aVTAJO-2116
p72
aVTAJO-2115
p73
aVTAJO-2114
p74
aVTAJO-2113
p75
aVTAJO-2112
p76
aVTAJO-2111
p77
aVTAJO-2110
p78
aVTAJO-2109
p79
aVTAJO-2108
p80
aVTAJO-2107
p81
aVTAJO-2106
p82
aVTAJO-2105
p83
aVTAJO-2104
p84
aVTAJO-2103
p85
aVTAJO-2102
p86
aVTAJO-2101
p87
aVTAJO-2100
p88
aVTAJO-2099
p89
aVTAJO-2098
p90
aVTAJO-2097
p91
aVTAJO-2096
p92
aVTAJO-2095
p93
aVTAJO-2094
p94
aVTAJO-2093
p95
aVTAJO-2092
p96
aVTAJO-2091
p97
aVTAJO-2090
p98
aVTAJO-2089
p99
aVTAJO-2088
p100
aVTAJO-2087
p101
aVTAJO-2086
p102
aVTAJO-2085
p103
aVTAJO-2084
p104
aVTAJO-2083
p105
aVTAJO-2082
p106
aVTAJO-2081
p107
aVTAJO-2080
p108
aVTAJO-2079
p109
aVTAJO-2078
p110
aVTAJO-2077
p111
aVTAJO-2076
p112
aVTAJO-2075
p113
aVTAJO-2074
p114
aVTAJO-2073
p115
aVTAJO-2072
p116
aVTAJO-2071
p117
aVTAJO-2070
p118
aVTAJO-2069
p119
aVTAJO-2068
p120
aVTAJO-2067
p121
aVTAJO-2066
p122
aVTAJO-2065
p123
aVTAJO-2064
p124
aVTAJO-2063
p125
aVTAJO-2062
p126
aVTAJO-2061
p127
aVTAJO-2060
p128
aVTAJO-2059
p129
aVTAJO-2058
p130
aVTAJO-2057
p131
aVTAJO-2056
p132
aVTAJO-2055
p133
aVTAJO-2054
p134
aVTAJO-2053
p135
aVTAJO-2052
p136
aVTAJO-2051
p137
aVTAJO-2050
p138
aVTAJO-2049
p139
aVTAJO-2048
p140
aVTAJO-2047
p141
aVTAJO-2046
p142
aVTAJO-2045
p143
aVTAJO-2044
p144
aVTAJO-2043
p145
aVTAJO-2042
p146
aVTAJO-2041
p147
aVTAJO-2040
p148
aVTAJO-2039
p149
aVTAJO-2038
p150
aVTAJO-2037
p151
aVTAJO-2036
p152
aVTAJO-2035
p153
aVTAJO-2034
p154
aVTAJO-2033
p155
aVTAJO-2032
p156
aVTAJO-2031
p157
aVTAJO-2030
p158
aVTAJO-2029
p159
aVTAJO-2028
p160
aVTAJO-2027
p161
aVTAJO-2026
p162
aVTAJO-2025
p163
aVTAJO-2024
p164
aVTAJO-2023
p165
aVTAJO-2022
p166
aVTAJO-2021
p167
aVTAJO-2020
p168
aVTAJO-2019
p169
aVTAJO-2018
p170
aVTAJO-2017
p171
aVTAJO-2016
p172
aVTAJO-2015
p173
aVTAJO-2014
p174
aVTAJO-2013
p175
aVTAJO-2012
p176
aVTAJO-2011
p177
aVTAJO-2010
p178
aVTAJO-2009
p179
aVTAJO-2007
p180
aVTAJO-2006
p181
aVTAJO-2005
p182
aVTAJO-2004
p183
aVTAJO-2003
p184
aVTAJO-2002
p185
aVTAJO-2001
p186
aVTAJO-2000
p187
aVTAJO-1999
p188
aVTAJO-1998
p189
aVTAJO-1997
p190
aVTAJO-1996
p191
aVTAJO-1995
p192
aVTAJO-1994
p193
aVTAJO-1993
p194
aVTAJO-1992
p195
aVTAJO-1991
p196
aVTAJO-1990
p197
aVTAJO-1989
p198
aVTAJO-1988
p199
aVTAJO-1987
p200
aVTAJO-1986
p201
aVTAJO-1985
p202
aVTAJO-1984
p203
aVTAJO-1983
p204
aVTAJO-1982
p205
aVTAJO-1981
p206
aVTAJO-1980
p207
aVTAJO-1979
p208
aVTAJO-1978
p209
aVTAJO-1977
p210
aVTAJO-1976
p211
aVTAJO-1975
p212
aVTAJO-1974
p213
aVTAJO-1973
p214
aVTAJO-1972
p215
aVTAJO-1971
p216
aVTAJO-1970
p217
aVTAJO-1969
p218
aVTAJO-1968
p219
aVTAJO-1967
p220
aVTAJO-1966
p221
aVTAJO-1965
p222
aVTAJO-1964
p223
aVTAJO-1963
p224
aVTAJO-1962
p225
aVTAJO-1961
p226
aVTAJO-1960
p227
aVTAJO-1959
p228
aVTAJO-1958
p229
aVTAJO-1957
p230
aVTAJO-1956
p231
aVTAJO-1955
p232
aVTAJO-1954
p233
aVTAJO-1953
p234
aVTAJO-1952
p235
aVTAJO-1951
p236
aVTAJO-1950
p237
aVTAJO-1949
p238
aVTAJO-1948
p239
aVTAJO-1947
p240
aVTAJO-1946
p241
aVTAJO-1945
p242
aVTAJO-1944
p243
aVTAJO-1943
p244
aVTAJO-1942
p245
aVTAJO-1941
p246
aVTAJO-1940
p247
aVTAJO-1939
p248
aVTAJO-1938
p249
aVTAJO-1937
p250
aVTAJO-1936
p251
aVTAJO-1935
p252
aVTAJO-1934
p253
aVTAJO-1933
p254
aVTAJO-1932
p255
aVTAJO-1931
p256
aVTAJO-1930
p257
aVTAJO-1929
p258
aVTAJO-1928
p259
aVTAJO-1927
p260
aVTAJO-1926
p261
aVTAJO-1925
p262
aVTAJO-1924
p263
aVTAJO-1923
p264
aVTAJO-1922
p265
aVTAJO-1921
p266
aVTAJO-1920
p267
aVTAJO-1919
p268
aVTAJO-1918
p269
aVTAJO-1917
p270
aVTAJO-1916
p271
aVTAJO-1915
p272
aVTAJO-1914
p273
aVTAJO-1913
p274
aVTAJO-1912
p275
aVTAJO-1911
p276
aVTAJO-1910
p277
aVTAJO-1909
p278
aVTAJO-1908
p279
aVTAJO-1907
p280
aVTAJO-1906
p281
aVTAJO-1905
p282
aVTAJO-1904
p283
aVTAJO-1903
p284
aVTAJO-1902
p285
aVTAJO-1901
p286
aVTAJO-1900
p287
aVTAJO-1899
p288
aVTAJO-1898
p289
aVTAJO-1897
p290
aVTAJO-1896
p291
aVTAJO-1895
p292
aVTAJO-1894
p293
aVTAJO-1893
p294
aVTAJO-1892
p295
aVTAJO-1891
p296
aVTAJO-1890
p297
aVTAJO-1889
p298
aVTAJO-1888
p299
aVTAJO-1887
p300
aVTAJO-1886
p301
aVTAJO-1885
p302
aVTAJO-1884
p303
aVTAJO-1883
p304
aVTAJO-1882
p305
aVTAJO-1881
p306
aVTAJO-1880
p307
aVTAJO-1879
p308
aVTAJO-1878
p309
aVTAJO-1877
p310
aVTAJO-1876
p311
aVTAJO-1875
p312
aVTAJO-1874
p313
aVTAJO-1873
p314
aVTAJO-1872
p315
aVTAJO-1871
p316
aVTAJO-1870
p317
aVTAJO-1869
p318
aVTAJO-1868
p319
aVTAJO-1867
p320
aVTAJO-1866
p321
aVTAJO-1865
p322
aVTAJO-1864
p323
aVTAJO-1863
p324
aVTAJO-1862
p325
aVTAJO-1861
p326
aVTAJO-1860
p327
aVTAJO-1859
p328
aVTAJO-1858
p329
aVTAJO-1857
p330
aVTAJO-1856
p331
aVTAJO-1855
p332
aVTAJO-1854
p333
aVTAJO-1853
p334
aVTAJO-1852
p335
aVTAJO-1851
p336
aVTAJO-1850
p337
aVTAJO-1849
p338
aVTAJO-1848
p339
aVTAJO-1847
p340
aVTAJO-1846
p341
aVTAJO-1845
p342
aVTAJO-1844
p343
aVTAJO-1843
p344
aVTAJO-1842
p345
aVTAJO-1841
p346
aVTAJO-1840
p347
aVTAJO-1839
p348
aVTAJO-1838
p349
aVTAJO-1837
p350
aVTAJO-1836
p351
aVTAJO-1835
p352
aVTAJO-1834
p353
aVTAJO-1833
p354
aVTAJO-1832
p355
aVTAJO-1831
p356
aVTAJO-1830
p357
aVTAJO-1829
p358
aVTAJO-1828
p359
aVTAJO-1827
p360
aVTAJO-1826
p361
aVTAJO-1825
p362
aVTAJO-1824
p363
aVTAJO-1823
p364
aVTAJO-1822
p365
aVTAJO-1821
p366
aVTAJO-1820
p367
aVTAJO-1819
p368
aVTAJO-1818
p369
aVTAJO-1817
p370
aVTAJO-1816
p371
aVTAJO-1815
p372
aVTAJO-1814
p373
aVTAJO-1813
p374
aVTAJO-1812
p375
aVTAJO-1811
p376
aVTAJO-1810
p377
aVTAJO-1809
p378
aVTAJO-1808
p379
aVTAJO-1807
p380
aVTAJO-1806
p381
aVTAJO-1805
p382
aVTAJO-1804
p383
aVTAJO-1803
p384
aVTAJO-1802
p385
aVTAJO-1801
p386
aVTAJO-1800
p387
aVTAJO-1799
p388
aVTAJO-1798
p389
aVTAJO-1797
p390
aVTAJO-1796
p391
aVTAJO-1795
p392
aVTAJO-1794
p393
aVTAJO-1793
p394
aVTAJO-1792
p395
aVTAJO-1791
p396
aVTAJO-1790
p397
aVTAJO-1789
p398
aVTAJO-1788
p399
aVTAJO-1787
p400
aVTAJO-1786
p401
aVTAJO-1785
p402
aVTAJO-1784
p403
aVTAJO-1783
p404
aVTAJO-1782
p405
aVTAJO-1781
p406
aVTAJO-1780
p407
aVTAJO-1779
p408
aVTAJO-1778
p409
aVTAJO-1777
p410
aVTAJO-1776
p411
aVTAJO-1775
p412
aVTAJO-1774
p413
aVTAJO-1773
p414
aVTAJO-1772
p415
aVTAJO-1771
p416
aVTAJO-1770
p417
aVTAJO-1769
p418
aVTAJO-1768
p419
aVTAJO-1767
p420
aVTAJO-1766
p421
aVTAJO-1765
p422
aVTAJO-1764
p423
aVTAJO-1763
p424
aVTAJO-1762
p425
aVTAJO-1761
p426
aVTAJO-1760
p427
aVTAJO-1759
p428
aVTAJO-1758
p429
aVTAJO-1757
p430
aVTAJO-1756
p431
aVTAJO-1755
p432
aVTAJO-1754
p433
aVTAJO-1753
p434
aVTAJO-1752
p435
aVTAJO-1751
p436
aVTAJO-1750
p437
aVTAJO-1749
p438
aVTAJO-1748
p439
aVTAJO-1747
p440
aVTAJO-1746
p441
aVTAJO-1745
p442
aVTAJO-1744
p443
aVTAJO-1743
p444
aVTAJO-1742
p445
aVTAJO-1741
p446
aVTAJO-1740
p447
aVTAJO-1739
p448
aVTAJO-1738
p449
aVTAJO-1737
p450
aVTAJO-1736
p451
aVTAJO-1735
p452
aVTAJO-1734
p453
aVTAJO-1733
p454
aVTAJO-1732
p455
aVTAJO-1731
p456
aVTAJO-1730
p457
aVTAJO-1729
p458
aVTAJO-1728
p459
aVTAJO-1727
p460
aVTAJO-1726
p461
aVTAJO-1725
p462
aVTAJO-1724
p463
aVTAJO-1723
p464
aVTAJO-1722
p465
aVTAJO-1721
p466
aVTAJO-1720
p467
aVTAJO-1719
p468
aVTAJO-1718
p469
aVTAJO-1717
p470
aVTAJO-1716
p471
aVTAJO-1715
p472
aVTAJO-1714
p473
aVTAJO-1713
p474
aVTAJO-1712
p475
aVTAJO-1711
p476
aVTAJO-1710
p477
aVTAJO-1709
p478
aVTAJO-1708
p479
aVTAJO-1707
p480
aVTAJO-1706
p481
aVTAJO-1705
p482
aVTAJO-1704
p483
aVTAJO-1703
p484
aVTAJO-1702
p485
aVTAJO-1701
p486
aVTAJO-1700
p487
aVTAJO-1699
p488
aVTAJO-1698
p489
aVTAJO-1697
p490
aVTAJO-1696
p491
aVTAJO-1695
p492
aVTAJO-1694
p493
aVTAJO-1693
p494
aVTAJO-1692
p495
aVTAJO-1691
p496
aVTAJO-1690
p497
aVTAJO-1689
p498
aVTAJO-1688
p499
aVTAJO-1687
p500
aVTAJO-1686
p501
aVTAJO-1685
p502
aVTAJO-1684
p503
aVTAJO-1683
p504
aVTAJO-1682
p505
aVTAJO-1681
p506
aVTAJO-1680
p507
aVTAJO-1679
p508
aVTAJO-1678
p509
aVTAJO-1677
p510
aVTAJO-1676
p511
aVTAJO-1675
p512
aVTAJO-1674
p513
aVTAJO-1673
p514
aVTAJO-1672
p515
aVTAJO-1671
p516
aVTAJO-1670
p517
aVTAJO-1669
p518
aVTAJO-1668
p519
aVTAJO-1667
p520
aVTAJO-1666
p521
aVTAJO-1665
p522
aVTAJO-1664
p523
aVTAJO-1663
p524
aVTAJO-1662
p525
aVTAJO-1661
p526
aVTAJO-1660
p527
aVTAJO-1659
p528
aVTAJO-1658
p529
aVTAJO-1657
p530
aVTAJO-1656
p531
aVTAJO-1655
p532
aVTAJO-1654
p533
aVTAJO-1653
p534
aVTAJO-1652
p535
aVTAJO-1651
p536
aVTAJO-1650
p537
aVTAJO-1649
p538
aVTAJO-1648
p539
aVTAJO-1647
p540
aVTAJO-1646
p541
aVTAJO-1645
p542
aVTAJO-1644
p543
aVTAJO-1643
p544
aVTAJO-1642
p545
aVTAJO-1641
p546
aVTAJO-1640
p547
aVTAJO-1639
p548
aVTAJO-1638
p549
aVTAJO-1637
p550
aVTAJO-1636
p551
aVTAJO-1635
p552
aVTAJO-1634
p553
aVTAJO-1633
p554
aVTAJO-1632
p555
aVTAJO-1631
p556
aVTAJO-1630
p557
aVTAJO-1629
p558
aVTAJO-1628
p559
aVTAJO-1627
p560
aVTAJO-1626
p561
aVTAJO-1625
p562
aVTAJO-1624
p563
aVTAJO-1623
p564
aVTAJO-1622
p565
aVTAJO-1621
p566
aVTAJO-1620
p567
aVTAJO-1619
p568
aVTAJO-1618
p569
aVTAJO-1617
p570
aVTAJO-1616
p571
aVTAJO-1615
p572
aVTAJO-1614
p573
aVTAJO-1613
p574
aVTAJO-1612
p575
aVTAJO-1611
p576
aVTAJO-1610
p577
aVTAJO-1609
p578
aVTAJO-1608
p579
aVTAJO-1607
p580
aVTAJO-1606
p581
aVTAJO-1605
p582
aVTAJO-1604
p583
aVTAJO-1603
p584
aVTAJO-1602
p585
aVTAJO-1601
p586
aVTAJO-1600
p587
aVTAJO-1599
p588
aVTAJO-1598
p589
aVTAJO-1597
p590
aVTAJO-1596
p591
aVTAJO-1595
p592
aVTAJO-1594
p593
aVTAJO-1593
p594
aVTAJO-1592
p595
aVTAJO-1591
p596
aVTAJO-1590
p597
aVTAJO-1589
p598
aVTAJO-1588
p599
aVTAJO-1587
p600
aVTAJO-1586
p601
aVTAJO-1585
p602
aVTAJO-1584
p603
aVTAJO-1583
p604
aVTAJO-1582
p605
aVTAJO-1581
p606
aVTAJO-1580
p607
aVTAJO-1579
p608
aVTAJO-1578
p609
aVTAJO-1577
p610
aVTAJO-1576
p611
aVTAJO-1575
p612
aVTAJO-1574
p613
aVTAJO-1573
p614
aVTAJO-1572
p615
aVTAJO-1571
p616
aVTAJO-1570
p617
aVTAJO-1569
p618
aVTAJO-1568
p619
aVTAJO-1567
p620
aVTAJO-1566
p621
aVTAJO-1565
p622
aVTAJO-1564
p623
aVTAJO-1563
p624
aVTAJO-1562
p625
aVTAJO-1561
p626
aVTAJO-1560
p627
aVTAJO-1559
p628
aVTAJO-1558
p629
aVTAJO-1557
p630
aVTAJO-1556
p631
aVTAJO-1555
p632
aVTAJO-1554
p633
aVTAJO-1553
p634
aVTAJO-1552
p635
aVTAJO-1551
p636
aVTAJO-1550
p637
aVTAJO-1549
p638
aVTAJO-1548
p639
aVTAJO-1547
p640
aVTAJO-1546
p641
aVTAJO-1545
p642
aVTAJO-1544
p643
aVTAJO-1543
p644
aVTAJO-1542
p645
aVTAJO-1541
p646
aVTAJO-1540
p647
aVTAJO-1539
p648
aVTAJO-1538
p649
aVTAJO-1537
p650
aVTAJO-1536
p651
aVTAJO-1535
p652
aVTAJO-1534
p653
aVTAJO-1533
p654
aVTAJO-1532
p655
aVTAJO-1531
p656
aVTAJO-1530
p657
aVTAJO-1529
p658
aVTAJO-1528
p659
aVTAJO-1527
p660
aVTAJO-1526
p661
aVTAJO-1525
p662
aVTAJO-1524
p663
aVTAJO-1523
p664
aVTAJO-1522
p665
aVTAJO-1521
p666
aVTAJO-1520
p667
aVTAJO-1519
p668
aVTAJO-1518
p669
aVTAJO-1517
p670
aVTAJO-1516
p671
aVTAJO-1515
p672
aVTAJO-1514
p673
aVTAJO-1513
p674
aVTAJO-1512
p675
aVTAJO-1511
p676
aVTAJO-1510
p677
aVTAJO-1509
p678
aVTAJO-1508
p679
aVTAJO-1507
p680
aVTAJO-1506
p681
aVTAJO-1505
p682
aVTAJO-1504
p683
aVTAJO-1503
p684
aVTAJO-1502
p685
aVTAJO-1501
p686
aVTAJO-1500
p687
aVTAJO-1499
p688
aVTAJO-1498
p689
aVTAJO-1497
p690
aVTAJO-1496
p691
aVTAJO-1495
p692
aVTAJO-1494
p693
aVTAJO-1493
p694
aVTAJO-1492
p695
aVTAJO-1491
p696
aVTAJO-1490
p697
aVTAJO-1489
p698
aVTAJO-1488
p699
aVTAJO-1487
p700
aVTAJO-1486
p701
aVTAJO-1485
p702
aVTAJO-1484
p703
aVTAJO-1483
p704
aVTAJO-1482
p705
aVTAJO-1481
p706
aVTAJO-1480
p707
aVTAJO-1479
p708
aVTAJO-1478
p709
aVTAJO-1477
p710
aVTAJO-1476
p711
aVTAJO-1475
p712
aVTAJO-1474
p713
aVTAJO-1473
p714
aVTAJO-1472
p715
aVTAJO-1471
p716
aVTAJO-1470
p717
aVTAJO-1469
p718
aVTAJO-1468
p719
aVTAJO-1467
p720
aVTAJO-1466
p721
aVTAJO-1465
p722
aVTAJO-1464
p723
aVTAJO-1463
p724
aVTAJO-1462
p725
aVTAJO-1461
p726
aVTAJO-1460
p727
aVTAJO-1459
p728
aVTAJO-1458
p729
aVTAJO-1457
p730
aVTAJO-1456
p731
aVTAJO-1455
p732
aVTAJO-1454
p733
aVTAJO-1453
p734
aVTAJO-1452
p735
aVTAJO-1451
p736
aVTAJO-1450
p737
aVTAJO-1449
p738
aVTAJO-1448
p739
aVTAJO-1447
p740
aVTAJO-1446
p741
aVTAJO-1445
p742
aVTAJO-1444
p743
aVTAJO-1443
p744
aVTAJO-1442
p745
aVTAJO-1441
p746
aVTAJO-1440
p747
aVTAJO-1439
p748
aVTAJO-1438
p749
aVTAJO-1437
p750
aVTAJO-1436
p751
aVTAJO-1435
p752
aVTAJO-1434
p753
aVTAJO-1433
p754
aVTAJO-1432
p755
aVTAJO-1431
p756
aVTAJO-1430
p757
aVTAJO-1429
p758
aVTAJO-1428
p759
aVTAJO-1427
p760
aVTAJO-1426
p761
aVTAJO-1425
p762
aVTAJO-1424
p763
aVTAJO-1423
p764
aVTAJO-1422
p765
aVTAJO-1421
p766
aVTAJO-1420
p767
aVTAJO-1419
p768
aVTAJO-1418
p769
aVTAJO-1417
p770
aVTAJO-1416
p771
aVTAJO-1415
p772
aVTAJO-1414
p773
aVTAJO-1413
p774
aVTAJO-1412
p775
aVTAJO-1411
p776
aVTAJO-1410
p777
aVTAJO-1409
p778
aVTAJO-1408
p779
aVTAJO-1407
p780
aVTAJO-1406
p781
aVTAJO-1405
p782
aVTAJO-1404
p783
aVTAJO-1403
p784
aVTAJO-1402
p785
aVTAJO-1401
p786
aVTAJO-1400
p787
aVTAJO-1399
p788
aVTAJO-1398
p789
aVTAJO-1397
p790
aVTAJO-1396
p791
aVTAJO-1395
p792
aVTAJO-1394
p793
aVTAJO-1393
p794
aVTAJO-1392
p795
aVTAJO-1391
p796
aVTAJO-1390
p797
aVTAJO-1389
p798
aVTAJO-1388
p799
aVTAJO-1387
p800
aVTAJO-1386
p801
aVTAJO-1385
p802
aVTAJO-1384
p803
aVTAJO-1383
p804
aVTAJO-1382
p805
aVTAJO-1381
p806
aVTAJO-1380
p807
aVTAJO-1379
p808
aVTAJO-1378
p809
aVTAJO-1377
p810
aVTAJO-1376
p811
aVTAJO-1375
p812
aVTAJO-1374
p813
aVTAJO-1373
p814
aVTAJO-1372
p815
aVTAJO-1371
p816
aVTAJO-1370
p817
aVTAJO-1369
p818
aVTAJO-1368
p819
aVTAJO-1367
p820
aVTAJO-1366
p821
aVTAJO-1365
p822
aVTAJO-1364
p823
aVTAJO-1363
p824
aVTAJO-1362
p825
aVTAJO-1361
p826
aVTAJO-1360
p827
aVTAJO-1359
p828
aVTAJO-1358
p829
aVTAJO-1357
p830
aVTAJO-1356
p831
aVTAJO-1355
p832
aVTAJO-1354
p833
aVTAJO-1353
p834
aVTAJO-1352
p835
aVTAJO-1351
p836
aVTAJO-1350
p837
aVTAJO-1349
p838
aVTAJO-1348
p839
aVTAJO-1347
p840
aVTAJO-1346
p841
aVTAJO-1345
p842
aVTAJO-1344
p843
aVTAJO-1343
p844
aVTAJO-1342
p845
aVTAJO-1341
p846
aVTAJO-1340
p847
aVTAJO-1339
p848
aVTAJO-1338
p849
aVTAJO-1337
p850
aVTAJO-1336
p851
aVTAJO-1335
p852
aVTAJO-1334
p853
aVTAJO-1333
p854
aVTAJO-1332
p855
aVTAJO-1331
p856
aVTAJO-1330
p857
aVTAJO-1329
p858
aVTAJO-1328
p859
aVTAJO-1327
p860
aVTAJO-1326
p861
aVTAJO-1325
p862
aVTAJO-1324
p863
aVTAJO-1323
p864
aVTAJO-1322
p865
aVTAJO-1321
p866
aVTAJO-1320
p867
aVTAJO-1319
p868
aVTAJO-1318
p869
aVTAJO-1317
p870
aVTAJO-1316
p871
aVTAJO-1315
p872
aVTAJO-1314
p873
aVTAJO-1313
p874
aVTAJO-1312
p875
aVTAJO-1311
p876
aVTAJO-1310
p877
aVTAJO-1309
p878
aVTAJO-1308
p879
aVTAJO-1307
p880
aVTAJO-1306
p881
aVTAJO-1305
p882
aVTAJO-1304
p883
aVTAJO-1303
p884
aVTAJO-1302
p885
aVTAJO-1301
p886
aVTAJO-1300
p887
aVTAJO-1299
p888
aVTAJO-1298
p889
aVTAJO-1297
p890
aVTAJO-1296
p891
aVTAJO-1295
p892
aVTAJO-1294
p893
aVTAJO-1293
p894
aVTAJO-1292
p895
aVTAJO-1291
p896
aVTAJO-1290
p897
aVTAJO-1289
p898
aVTAJO-1288
p899
aVTAJO-1287
p900
aVTAJO-1286
p901
aVTAJO-1285
p902
aVTAJO-1284
p903
aVTAJO-1283
p904
aVTAJO-1282
p905
aVTAJO-1281
p906
aVTAJO-1280
p907
aVTAJO-1279
p908
aVTAJO-1278
p909
aVTAJO-1277
p910
aVTAJO-1276
p911
aVTAJO-1275
p912
aVTAJO-1274
p913
aVTAJO-1273
p914
aVTAJO-1272
p915
aVTAJO-1271
p916
aVTAJO-1270
p917
aVTAJO-1269
p918
aVTAJO-1268
p919
aVTAJO-1267
p920
aVTAJO-1266
p921
aVTAJO-1265
p922
aVTAJO-1264
p923
aVTAJO-1263
p924
aVTAJO-1262
p925
aVTAJO-1261
p926
aVTAJO-1260
p927
aVTAJO-1259
p928
aVTAJO-1258
p929
aVTAJO-1257
p930
aVTAJO-1256
p931
aVTAJO-1255
p932
aVTAJO-1254
p933
aVTAJO-1253
p934
aVTAJO-1252
p935
aVTAJO-1251
p936
aVTAJO-1250
p937
aVTAJO-1249
p938
aVTAJO-1248
p939
aVTAJO-1247
p940
aVTAJO-1246
p941
aVTAJO-1245
p942
aVTAJO-1244
p943
aVTAJO-1243
p944
aVTAJO-1242
p945
aVTAJO-1241
p946
aVTAJO-1240
p947
aVTAJO-1239
p948
aVTAJO-1238
p949
aVTAJO-1237
p950
aVTAJO-1236
p951
aVTAJO-1235
p952
aVTAJO-1234
p953
aVTAJO-1233
p954
aVTAJO-1232
p955
aVTAJO-1231
p956
aVTAJO-1230
p957
aVTAJO-1229
p958
aVTAJO-1228
p959
aVTAJO-1227
p960
aVTAJO-1226
p961
aVTAJO-1225
p962
aVTAJO-1224
p963
aVTAJO-1223
p964
aVTAJO-1222
p965
aVTAJO-1221
p966
aVTAJO-1220
p967
aVTAJO-1219
p968
aVTAJO-1218
p969
aVTAJO-1217
p970
aVTAJO-1216
p971
aVTAJO-1215
p972
aVTAJO-1214
p973
aVTAJO-1213
p974
aVTAJO-1212
p975
aVTAJO-1211
p976
aVTAJO-1210
p977
aVTAJO-1209
p978
aVTAJO-1208
p979
aVTAJO-1207
p980
aVTAJO-1206
p981
aVTAJO-1205
p982
aVTAJO-1204
p983
aVTAJO-1203
p984
aVTAJO-1202
p985
aVTAJO-1201
p986
aVTAJO-1200
p987
aVTAJO-1199
p988
aVTAJO-1198
p989
aVTAJO-1197
p990
aVTAJO-1196
p991
aVTAJO-1195
p992
aVTAJO-1194
p993
aVTAJO-1193
p994
aVTAJO-1192
p995
aVTAJO-1191
p996
aVTAJO-1190
p997
aVTAJO-1189
p998
aVTAJO-1188
p999
aVTAJO-1187
p1000
aVTAJO-1186
p1001
aVTAJO-1185
p1002
aVTAJO-1184
p1003
aVTAJO-1183
p1004
aVTAJO-1182
p1005
aVTAJO-1181
p1006
aVTAJO-1180
p1007
aVTAJO-1179
p1008
aVTAJO-1178
p1009
aVTAJO-1177
p1010
aVTAJO-1176
p1011
aVTAJO-1175
p1012
aVTAJO-1174
p1013
aVTAJO-1173
p1014
aVTAJO-1172
p1015
aVTAJO-1171
p1016
aVTAJO-1170
p1017
aVTAJO-1169
p1018
aVTAJO-1168
p1019
aVTAJO-1167
p1020
aVTAJO-1166
p1021
aVTAJO-1165
p1022
aVTAJO-1164
p1023
aVTAJO-1163
p1024
aVTAJO-1162
p1025
aVTAJO-1161
p1026
aVTAJO-1160
p1027
aVTAJO-1159
p1028
aVTAJO-1158
p1029
aVTAJO-1157
p1030
aVTAJO-1156
p1031
aVTAJO-1155
p1032
aVTAJO-1154
p1033
aVTAJO-1153
p1034
aVTAJO-1152
p1035
aVTAJO-1151
p1036
aVTAJO-1150
p1037
aVTAJO-1149
p1038
aVTAJO-1148
p1039
aVTAJO-1147
p1040
aVTAJO-1146
p1041
aVTAJO-1145
p1042
aVTAJO-1144
p1043
aVTAJO-1143
p1044
aVTAJO-1142
p1045
aVTAJO-1141
p1046
aVTAJO-1140
p1047
aVTAJO-1139
p1048
aVTAJO-1138
p1049
aVTAJO-1137
p1050
aVTAJO-1136
p1051
aVTAJO-1135
p1052
aVTAJO-1134
p1053
aVTAJO-1133
p1054
aVTAJO-1132
p1055
aVTAJO-1131
p1056
aVTAJO-1130
p1057
aVTAJO-1129
p1058
aVTAJO-1128
p1059
aVTAJO-1127
p1060
aVTAJO-1126
p1061
aVTAJO-1125
p1062
aVTAJO-1124
p1063
aVTAJO-1123
p1064
aVTAJO-1122
p1065
aVTAJO-1121
p1066
aVTAJO-1120
p1067
aVTAJO-1119
p1068
aVTAJO-1118
p1069
aVTAJO-1117
p1070
aVTAJO-1116
p1071
aVTAJO-1115
p1072
aVTAJO-1114
p1073
aVTAJO-1113
p1074
aVTAJO-1112
p1075
aVTAJO-1111
p1076
aVTAJO-1110
p1077
aVTAJO-1109
p1078
aVTAJO-1108
p1079
aVTAJO-1107
p1080
aVTAJO-1106
p1081
aVTAJO-1105
p1082
aVTAJO-1104
p1083
aVTAJO-1103
p1084
aVTAJO-1102
p1085
aVTAJO-1101
p1086
aVTAJO-1100
p1087
aVTAJO-1099
p1088
aVTAJO-1098
p1089
aVTAJO-1097
p1090
aVTAJO-1096
p1091
aVTAJO-1095
p1092
aVTAJO-1094
p1093
aVTAJO-1093
p1094
aVTAJO-1092
p1095
aVTAJO-1091
p1096
aVTAJO-1090
p1097
aVTAJO-1089
p1098
aVTAJO-1088
p1099
aVTAJO-1087
p1100
aVTAJO-1086
p1101
aVTAJO-1085
p1102
aVTAJO-1084
p1103
aVTAJO-1083
p1104
aVTAJO-1082
p1105
aVTAJO-1081
p1106
aVTAJO-1080
p1107
aVTAJO-1079
p1108
aVTAJO-1078
p1109
aVTAJO-1077
p1110
aVTAJO-1076
p1111
aVTAJO-1075
p1112
aVTAJO-1074
p1113
aVTAJO-1073
p1114
aVTAJO-1072
p1115
aVTAJO-1071
p1116
aVTAJO-1070
p1117
aVTAJO-1069
p1118
aVTAJO-1068
p1119
aVTAJO-1067
p1120
aVTAJO-1066
p1121
aVTAJO-1065
p1122
aVTAJO-1064
p1123
aVTAJO-1063
p1124
aVTAJO-1062
p1125
aVTAJO-1061
p1126
aVTAJO-1060
p1127
aVTAJO-1059
p1128
aVTAJO-1058
p1129
aVTAJO-1057
p1130
aVTAJO-1056
p1131
aVTAJO-1055
p1132
aVTAJO-1054
p1133
aVTAJO-1053
p1134
aVTAJO-1052
p1135
aVTAJO-1051
p1136
aVTAJO-1050
p1137
aVTAJO-1049
p1138
aVTAJO-1048
p1139
aVTAJO-1047
p1140
aVTAJO-1046
p1141
aVTAJO-1045
p1142
aVTAJO-1044
p1143
aVTAJO-1043
p1144
aVTAJO-1042
p1145
aVTAJO-1041
p1146
aVTAJO-1040
p1147
aVTAJO-1039
p1148
aVTAJO-1038
p1149
aVTAJO-1037
p1150
aVTAJO-1036
p1151
aVTAJO-1035
p1152
aVTAJO-1034
p1153
aVTAJO-1033
p1154
aVTAJO-1032
p1155
aVTAJO-1031
p1156
aVTAJO-1030
p1157
aVTAJO-1029
p1158
aVTAJO-1028
p1159
aVTAJO-1027
p1160
aVTAJO-1026
p1161
aVTAJO-1025
p1162
aVTAJO-1024
p1163
aVTAJO-1023
p1164
aVTAJO-1022
p1165
aVTAJO-1021
p1166
aVTAJO-1020
p1167
aVTAJO-1019
p1168
aVTAJO-1018
p1169
aVTAJO-1017
p1170
aVTAJO-1016
p1171
aVTAJO-1015
p1172
aVTAJO-1014
p1173
aVTAJO-1013
p1174
aVTAJO-1012
p1175
aVTAJO-1011
p1176
aVTAJO-1010
p1177
aVTAJO-1009
p1178
aVTAJO-1008
p1179
aVTAJO-1007
p1180
aVTAJO-1006
p1181
aVTAJO-1005
p1182
aVTAJO-1004
p1183
aVTAJO-1003
p1184
aVTAJO-1002
p1185
aVTAJO-1001
p1186
aVTAJO-1000
p1187
aVTAJO-999
p1188
aVTAJO-998
p1189
aVTAJO-997
p1190
aVTAJO-996
p1191
aVTAJO-995
p1192
aVTAJO-994
p1193
aVTAJO-993
p1194
aVTAJO-992
p1195
aVTAJO-991
p1196
aVTAJO-990
p1197
aVTAJO-989
p1198
aVTAJO-988
p1199
aVTAJO-987
p1200
aVTAJO-986
p1201
aVTAJO-985
p1202
aVTAJO-984
p1203
aVTAJO-983
p1204
aVTAJO-982
p1205
aVTAJO-981
p1206
aVTAJO-980
p1207
aVTAJO-979
p1208
aVTAJO-978
p1209
aVTAJO-977
p1210
aVTAJO-976
p1211
aVTAJO-975
p1212
aVTAJO-974
p1213
aVTAJO-973
p1214
aVTAJO-972
p1215
aVTAJO-971
p1216
aVTAJO-970
p1217
aVTAJO-969
p1218
aVTAJO-968
p1219
aVTAJO-967
p1220
aVTAJO-966
p1221
aVTAJO-965
p1222
aVTAJO-964
p1223
aVTAJO-963
p1224
aVTAJO-962
p1225
aVTAJO-961
p1226
aVTAJO-960
p1227
aVTAJO-959
p1228
aVTAJO-958
p1229
aVTAJO-957
p1230
aVTAJO-956
p1231
aVTAJO-955
p1232
aVTAJO-954
p1233
aVTAJO-953
p1234
aVTAJO-952
p1235
aVTAJO-951
p1236
aVTAJO-950
p1237
aVTAJO-949
p1238
aVTAJO-948
p1239
aVTAJO-947
p1240
aVTAJO-946
p1241
aVTAJO-945
p1242
aVTAJO-944
p1243
aVTAJO-943
p1244
aVTAJO-942
p1245
aVTAJO-941
p1246
aVTAJO-940
p1247
aVTAJO-939
p1248
aVTAJO-938
p1249
aVTAJO-937
p1250
aVTAJO-936
p1251
aVTAJO-935
p1252
aVTAJO-934
p1253
aVTAJO-933
p1254
aVTAJO-932
p1255
aVTAJO-931
p1256
aVTAJO-930
p1257
aVTAJO-929
p1258
aVTAJO-928
p1259
aVTAJO-927
p1260
aVTAJO-926
p1261
aVTAJO-925
p1262
aVTAJO-924
p1263
aVTAJO-923
p1264
aVTAJO-922
p1265
aVTAJO-921
p1266
aVTAJO-920
p1267
aVTAJO-919
p1268
aVTAJO-918
p1269
aVTAJO-917
p1270
aVTAJO-916
p1271
aVTAJO-915
p1272
aVTAJO-914
p1273
aVTAJO-913
p1274
aVTAJO-912
p1275
aVTAJO-911
p1276
aVTAJO-910
p1277
aVTAJO-909
p1278
aVTAJO-908
p1279
aVTAJO-907
p1280
aVTAJO-906
p1281
aVTAJO-905
p1282
aVTAJO-904
p1283
aVTAJO-903
p1284
aVTAJO-902
p1285
aVTAJO-901
p1286
aVTAJO-900
p1287
aVTAJO-899
p1288
aVTAJO-898
p1289
aVTAJO-897
p1290
aVTAJO-896
p1291
aVTAJO-895
p1292
aVTAJO-894
p1293
aVTAJO-893
p1294
aVTAJO-892
p1295
aVTAJO-891
p1296
aVTAJO-890
p1297
aVTAJO-889
p1298
aVTAJO-888
p1299
aVTAJO-887
p1300
aVTAJO-886
p1301
aVTAJO-885
p1302
aVTAJO-884
p1303
aVTAJO-883
p1304
aVTAJO-882
p1305
aVTAJO-881
p1306
aVTAJO-880
p1307
aVTAJO-879
p1308
aVTAJO-878
p1309
aVTAJO-877
p1310
aVTAJO-876
p1311
aVTAJO-875
p1312
aVTAJO-874
p1313
aVTAJO-873
p1314
aVTAJO-872
p1315
aVTAJO-871
p1316
aVTAJO-870
p1317
aVTAJO-869
p1318
aVTAJO-868
p1319
aVTAJO-867
p1320
aVTAJO-866
p1321
aVTAJO-865
p1322
aVTAJO-864
p1323
aVTAJO-863
p1324
aVTAJO-862
p1325
aVTAJO-861
p1326
aVTAJO-860
p1327
aVTAJO-859
p1328
aVTAJO-858
p1329
aVTAJO-857
p1330
aVTAJO-856
p1331
aVTAJO-855
p1332
aVTAJO-854
p1333
aVTAJO-853
p1334
aVTAJO-852
p1335
aVTAJO-851
p1336
aVTAJO-850
p1337
aVTAJO-849
p1338
aVTAJO-848
p1339
aVTAJO-847
p1340
aVTAJO-846
p1341
aVTAJO-845
p1342
aVTAJO-844
p1343
aVTAJO-843
p1344
aVTAJO-842
p1345
aVTAJO-841
p1346
aVTAJO-840
p1347
aVTAJO-839
p1348
aVTAJO-838
p1349
aVTAJO-837
p1350
aVTAJO-836
p1351
aVTAJO-835
p1352
aVTAJO-834
p1353
aVTAJO-833
p1354
aVTAJO-832
p1355
aVTAJO-831
p1356
aVTAJO-830
p1357
aVTAJO-829
p1358
aVTAJO-828
p1359
aVTAJO-827
p1360
aVTAJO-826
p1361
aVTAJO-825
p1362
aVTAJO-824
p1363
aVTAJO-823
p1364
aVTAJO-822
p1365
aVTAJO-821
p1366
aVTAJO-820
p1367
aVTAJO-819
p1368
aVTAJO-818
p1369
aVTAJO-817
p1370
aVTAJO-816
p1371
aVTAJO-815
p1372
aVTAJO-814
p1373
aVTAJO-813
p1374
aVTAJO-812
p1375
aVTAJO-811
p1376
aVTAJO-810
p1377
aVTAJO-809
p1378
aVTAJO-808
p1379
aVTAJO-807
p1380
aVTAJO-806
p1381
aVTAJO-805
p1382
aVTAJO-804
p1383
aVTAJO-803
p1384
aVTAJO-802
p1385
aVTAJO-801
p1386
aVTAJO-800
p1387
aVTAJO-799
p1388
aVTAJO-798
p1389
aVTAJO-797
p1390
aVTAJO-796
p1391
aVTAJO-795
p1392
aVTAJO-794
p1393
aVTAJO-793
p1394
aVTAJO-792
p1395
aVTAJO-791
p1396
aVTAJO-790
p1397
aVTAJO-789
p1398
aVTAJO-788
p1399
aVTAJO-787
p1400
aVTAJO-786
p1401
aVTAJO-785
p1402
aVTAJO-784
p1403
aVTAJO-783
p1404
aVTAJO-782
p1405
aVTAJO-781
p1406
aVTAJO-780
p1407
aVTAJO-779
p1408
aVTAJO-778
p1409
aVTAJO-777
p1410
aVTAJO-776
p1411
aVTAJO-774
p1412
aVTAJO-773
p1413
aVTAJO-772
p1414
aVTAJO-771
p1415
aVTAJO-770
p1416
aVTAJO-769
p1417
aVTAJO-768
p1418
aVTAJO-767
p1419
aVTAJO-766
p1420
aVTAJO-765
p1421
aVTAJO-764
p1422
aVTAJO-763
p1423
aVTAJO-762
p1424
aVTAJO-761
p1425
aVTAJO-760
p1426
aVTAJO-759
p1427
aVTAJO-758
p1428
aVTAJO-757
p1429
aVTAJO-756
p1430
aVTAJO-755
p1431
aVTAJO-754
p1432
aVTAJO-753
p1433
aVTAJO-752
p1434
aVTAJO-751
p1435
aVTAJO-750
p1436
aVTAJO-749
p1437
aVTAJO-748
p1438
aVTAJO-747
p1439
aVTAJO-746
p1440
aVTAJO-745
p1441
aVTAJO-744
p1442
aVTAJO-743
p1443
aVTAJO-742
p1444
aVTAJO-741
p1445
aVTAJO-740
p1446
aVTAJO-739
p1447
aVTAJO-738
p1448
aVTAJO-737
p1449
aVTAJO-736
p1450
aVTAJO-735
p1451
aVTAJO-734
p1452
aVTAJO-733
p1453
aVTAJO-732
p1454
aVTAJO-731
p1455
aVTAJO-730
p1456
aVTAJO-729
p1457
aVTAJO-728
p1458
aVTAJO-727
p1459
aVTAJO-726
p1460
aVTAJO-725
p1461
aVTAJO-724
p1462
aVTAJO-723
p1463
aVTAJO-722
p1464
aVTAJO-721
p1465
aVTAJO-720
p1466
aVTAJO-719
p1467
aVTAJO-718
p1468
aVTAJO-717
p1469
aVTAJO-716
p1470
aVTAJO-715
p1471
aVTAJO-714
p1472
aVTAJO-713
p1473
aVTAJO-712
p1474
aVTAJO-711
p1475
aVTAJO-710
p1476
aVTAJO-709
p1477
aVTAJO-708
p1478
aVTAJO-707
p1479
aVTAJO-706
p1480
aVTAJO-705
p1481
aVTAJO-704
p1482
aVTAJO-703
p1483
aVTAJO-702
p1484
aVTAJO-701
p1485
aVTAJO-700
p1486
aVTAJO-699
p1487
aVTAJO-698
p1488
aVTAJO-697
p1489
aVTAJO-696
p1490
aVTAJO-695
p1491
aVTAJO-694
p1492
aVTAJO-693
p1493
aVTAJO-692
p1494
aVTAJO-691
p1495
aVTAJO-690
p1496
aVTAJO-689
p1497
aVTAJO-688
p1498
aVTAJO-687
p1499
aVTAJO-686
p1500
aVTAJO-685
p1501
aVTAJO-684
p1502
aVTAJO-683
p1503
aVTAJO-682
p1504
aVTAJO-681
p1505
aVTAJO-680
p1506
aVTAJO-679
p1507
aVTAJO-678
p1508
aVTAJO-677
p1509
aVTAJO-676
p1510
aVTAJO-675
p1511
aVTAJO-674
p1512
aVTAJO-673
p1513
aVTAJO-672
p1514
aVTAJO-671
p1515
aVTAJO-670
p1516
aVTAJO-669
p1517
aVTAJO-668
p1518
aVTAJO-667
p1519
aVTAJO-666
p1520
aVTAJO-665
p1521
aVTAJO-664
p1522
aVTAJO-663
p1523
aVTAJO-662
p1524
aVTAJO-661
p1525
aVTAJO-660
p1526
aVTAJO-659
p1527
aVTAJO-658
p1528
aVTAJO-657
p1529
aVTAJO-656
p1530
aVTAJO-655
p1531
aVTAJO-654
p1532
aVTAJO-653
p1533
aVTAJO-652
p1534
aVTAJO-651
p1535
aVTAJO-650
p1536
aVTAJO-649
p1537
aVTAJO-648
p1538
aVTAJO-647
p1539
aVTAJO-646
p1540
aVTAJO-645
p1541
aVTAJO-644
p1542
aVTAJO-643
p1543
aVTAJO-642
p1544
aVTAJO-641
p1545
aVTAJO-640
p1546
aVTAJO-639
p1547
aVTAJO-638
p1548
aVTAJO-637
p1549
aVTAJO-636
p1550
aVTAJO-635
p1551
aVTAJO-634
p1552
aVTAJO-633
p1553
aVTAJO-632
p1554
aVTAJO-631
p1555
aVTAJO-630
p1556
aVTAJO-629
p1557
aVTAJO-628
p1558
aVTAJO-627
p1559
aVTAJO-626
p1560
aVTAJO-625
p1561
aVTAJO-624
p1562
aVTAJO-623
p1563
aVTAJO-622
p1564
aVTAJO-621
p1565
aVTAJO-620
p1566
aVTAJO-619
p1567
aVTAJO-618
p1568
aVTAJO-617
p1569
aVTAJO-616
p1570
aVTAJO-615
p1571
aVTAJO-614
p1572
aVTAJO-613
p1573
aVTAJO-612
p1574
aVTAJO-611
p1575
aVTAJO-610
p1576
aVTAJO-609
p1577
aVTAJO-608
p1578
aVTAJO-607
p1579
aVTAJO-606
p1580
aVTAJO-605
p1581
aVTAJO-604
p1582
aVTAJO-603
p1583
aVTAJO-602
p1584
aVTAJO-601
p1585
aVTAJO-600
p1586
aVTAJO-599
p1587
aVTAJO-598
p1588
aVTAJO-597
p1589
aVTAJO-596
p1590
aVTAJO-595
p1591
aVTAJO-594
p1592
aVTAJO-593
p1593
aVTAJO-592
p1594
aVTAJO-591
p1595
aVTAJO-590
p1596
aVTAJO-589
p1597
aVTAJO-588
p1598
aVTAJO-587
p1599
aVTAJO-586
p1600
aVTAJO-585
p1601
aVTAJO-584
p1602
aVTAJO-583
p1603
aVTAJO-582
p1604
aVTAJO-581
p1605
aVTAJO-580
p1606
aVTAJO-579
p1607
aVTAJO-578
p1608
aVTAJO-577
p1609
aVTAJO-576
p1610
aVTAJO-575
p1611
aVTAJO-574
p1612
aVTAJO-573
p1613
aVTAJO-572
p1614
aVTAJO-571
p1615
aVTAJO-570
p1616
aVTAJO-569
p1617
aVTAJO-568
p1618
aVTAJO-567
p1619
aVTAJO-566
p1620
aVTAJO-565
p1621
aVTAJO-564
p1622
aVTAJO-563
p1623
aVTAJO-562
p1624
aVTAJO-561
p1625
aVTAJO-560
p1626
aVTAJO-559
p1627
aVTAJO-558
p1628
aVTAJO-557
p1629
aVTAJO-556
p1630
aVTAJO-555
p1631
aVTAJO-554
p1632
aVTAJO-553
p1633
aVTAJO-552
p1634
aVTAJO-551
p1635
aVTAJO-550
p1636
aVTAJO-549
p1637
aVTAJO-548
p1638
aVTAJO-545
p1639
aVTAJO-544
p1640
aVTAJO-543
p1641
aVTAJO-542
p1642
aVTAJO-541
p1643
aVTAJO-540
p1644
aVTAJO-539
p1645
aVTAJO-538
p1646
aVTAJO-537
p1647
aVTAJO-536
p1648
aVTAJO-535
p1649
aVTAJO-534
p1650
aVTAJO-533
p1651
aVTAJO-532
p1652
aVTAJO-531
p1653
aVTAJO-530
p1654
aVTAJO-529
p1655
aVTAJO-528
p1656
aVTAJO-527
p1657
aVTAJO-526
p1658
aVTAJO-525
p1659
aVTAJO-524
p1660
aVTAJO-523
p1661
aVTAJO-522
p1662
aVTAJO-521
p1663
aVTAJO-520
p1664
aVTAJO-519
p1665
aVTAJO-518
p1666
aVTAJO-517
p1667
aVTAJO-516
p1668
aVTAJO-515
p1669
aVTAJO-514
p1670
aVTAJO-513
p1671
aVTAJO-512
p1672
aVTAJO-511
p1673
aVTAJO-510
p1674
aVTAJO-509
p1675
aVTAJO-508
p1676
aVTAJO-507
p1677
aVTAJO-506
p1678
aVTAJO-505
p1679
aVTAJO-504
p1680
aVTAJO-503
p1681
aVTAJO-502
p1682
aVTAJO-501
p1683
aVTAJO-500
p1684
aVTAJO-499
p1685
aVTAJO-498
p1686
aVTAJO-497
p1687
aVTAJO-496
p1688
aVTAJO-495
p1689
aVTAJO-494
p1690
aVTAJO-493
p1691
aVTAJO-492
p1692
aVTAJO-490
p1693
aVTAJO-489
p1694
aVTAJO-488
p1695
aVTAJO-487
p1696
aVTAJO-486
p1697
aVTAJO-485
p1698
aVTAJO-484
p1699
aVTAJO-483
p1700
aVTAJO-482
p1701
aVTAJO-481
p1702
aVTAJO-480
p1703
aVTAJO-479
p1704
aVTAJO-478
p1705
aVTAJO-477
p1706
aVTAJO-476
p1707
aVTAJO-475
p1708
aVTAJO-474
p1709
aVTAJO-473
p1710
aVTAJO-472
p1711
aVTAJO-471
p1712
aVTAJO-470
p1713
aVTAJO-469
p1714
aVTAJO-468
p1715
aVTAJO-467
p1716
aVTAJO-466
p1717
aVTAJO-465
p1718
aVTAJO-464
p1719
aVTAJO-463
p1720
aVTAJO-462
p1721
aVTAJO-461
p1722
aVTAJO-460
p1723
aVTAJO-459
p1724
aVTAJO-458
p1725
aVTAJO-457
p1726
aVTAJO-456
p1727
aVTAJO-455
p1728
aVTAJO-454
p1729
aVTAJO-453
p1730
aVTAJO-452
p1731
aVTAJO-451
p1732
aVTAJO-450
p1733
aVTAJO-449
p1734
aVTAJO-448
p1735
aVTAJO-447
p1736
aVTAJO-446
p1737
aVTAJO-445
p1738
aVTAJO-444
p1739
aVTAJO-443
p1740
aVTAJO-442
p1741
aVTAJO-441
p1742
aVTAJO-440
p1743
aVTAJO-439
p1744
aVTAJO-438
p1745
aVTAJO-437
p1746
aVTAJO-436
p1747
aVTAJO-435
p1748
aVTAJO-434
p1749
aVTAJO-433
p1750
aVTAJO-432
p1751
aVTAJO-431
p1752
aVTAJO-430
p1753
aVTAJO-429
p1754
aVTAJO-428
p1755
aVTAJO-427
p1756
aVTAJO-426
p1757
aVTAJO-425
p1758
aVTAJO-424
p1759
aVTAJO-423
p1760
aVTAJO-422
p1761
aVTAJO-421
p1762
aVTAJO-420
p1763
aVTAJO-419
p1764
aVTAJO-418
p1765
aVTAJO-417
p1766
aVTAJO-416
p1767
aVTAJO-415
p1768
aVTAJO-414
p1769
aVTAJO-413
p1770
aVTAJO-412
p1771
aVTAJO-411
p1772
aVTAJO-410
p1773
aVTAJO-409
p1774
aVTAJO-408
p1775
aVTAJO-407
p1776
aVTAJO-406
p1777
aVTAJO-405
p1778
aVTAJO-404
p1779
aVTAJO-403
p1780
aVTAJO-402
p1781
aVTAJO-401
p1782
aVTAJO-400
p1783
aVTAJO-399
p1784
aVTAJO-398
p1785
aVTAJO-397
p1786
aVTAJO-396
p1787
aVTAJO-395
p1788
aVTAJO-394
p1789
aVTAJO-393
p1790
aVTAJO-392
p1791
aVTAJO-391
p1792
aVTAJO-390
p1793
aVTAJO-389
p1794
aVTAJO-388
p1795
aVTAJO-387
p1796
aVTAJO-386
p1797
aVTAJO-385
p1798
aVTAJO-384
p1799
aVTAJO-383
p1800
aVTAJO-382
p1801
aVTAJO-381
p1802
aVTAJO-380
p1803
aVTAJO-379
p1804
aVTAJO-378
p1805
aVTAJO-377
p1806
aVTAJO-376
p1807
aVTAJO-375
p1808
aVTAJO-374
p1809
aVTAJO-373
p1810
aVTAJO-372
p1811
aVTAJO-371
p1812
aVTAJO-370
p1813
aVTAJO-369
p1814
aVTAJO-368
p1815
aVTAJO-367
p1816
aVTAJO-366
p1817
aVTAJO-365
p1818
aVTAJO-364
p1819
aVTAJO-363
p1820
aVTAJO-362
p1821
aVTAJO-361
p1822
aVTAJO-360
p1823
aVTAJO-359
p1824
aVTAJO-358
p1825
aVTAJO-357
p1826
aVTAJO-356
p1827
aVTAJO-355
p1828
aVTAJO-354
p1829
aVTAJO-353
p1830
aVTAJO-352
p1831
aVTAJO-351
p1832
aVTAJO-350
p1833
aVTAJO-349
p1834
aVTAJO-348
p1835
aVTAJO-347
p1836
aVTAJO-346
p1837
aVTAJO-345
p1838
aVTAJO-344
p1839
aVTAJO-343
p1840
aVTAJO-342
p1841
aVTAJO-341
p1842
aVTAJO-340
p1843
aVTAJO-339
p1844
aVTAJO-338
p1845
aVTAJO-337
p1846
aVTAJO-336
p1847
aVTAJO-335
p1848
aVTAJO-334
p1849
aVTAJO-333
p1850
aVTAJO-332
p1851
aVTAJO-331
p1852
aVTAJO-330
p1853
aVTAJO-329
p1854
aVTAJO-328
p1855
aVTAJO-327
p1856
aVTAJO-326
p1857
aVTAJO-325
p1858
aVTAJO-324
p1859
aVTAJO-323
p1860
aVTAJO-322
p1861
aVTAJO-321
p1862
aVTAJO-320
p1863
aVTAJO-319
p1864
aVTAJO-318
p1865
aVTAJO-317
p1866
aVTAJO-316
p1867
aVTAJO-315
p1868
aVTAJO-314
p1869
aVTAJO-313
p1870
aVTAJO-312
p1871
aVTAJO-311
p1872
aVTAJO-310
p1873
aVTAJO-309
p1874
aVTAJO-308
p1875
aVTAJO-307
p1876
aVTAJO-306
p1877
aVTAJO-305
p1878
aVTAJO-304
p1879
aVTAJO-303
p1880
aVTAJO-302
p1881
aVTAJO-301
p1882
aVTAJO-300
p1883
aVTAJO-299
p1884
aVTAJO-298
p1885
aVTAJO-297
p1886
aVTAJO-296
p1887
aVTAJO-295
p1888
aVTAJO-294
p1889
aVTAJO-293
p1890
aVTAJO-292
p1891
aVTAJO-291
p1892
aVTAJO-290
p1893
aVTAJO-289
p1894
aVTAJO-288
p1895
aVTAJO-287
p1896
aVTAJO-286
p1897
aVTAJO-285
p1898
aVTAJO-284
p1899
aVTAJO-283
p1900
aVTAJO-282
p1901
aVTAJO-281
p1902
aVTAJO-280
p1903
aVTAJO-279
p1904
aVTAJO-278
p1905
aVTAJO-277
p1906
aVTAJO-276
p1907
aVTAJO-275
p1908
aVTAJO-274
p1909
aVTAJO-273
p1910
aVTAJO-272
p1911
aVTAJO-271
p1912
aVTAJO-270
p1913
aVTAJO-269
p1914
aVTAJO-268
p1915
aVTAJO-267
p1916
aVTAJO-266
p1917
aVTAJO-265
p1918
aVTAJO-264
p1919
aVTAJO-263
p1920
aVTAJO-262
p1921
aVTAJO-261
p1922
aVTAJO-260
p1923
aVTAJO-259
p1924
aVTAJO-258
p1925
aVTAJO-257
p1926
aVTAJO-256
p1927
aVTAJO-255
p1928
aVTAJO-254
p1929
aVTAJO-253
p1930
aVTAJO-252
p1931
aVTAJO-251
p1932
aVTAJO-250
p1933
aVTAJO-249
p1934
aVTAJO-248
p1935
aVTAJO-247
p1936
aVTAJO-246
p1937
aVTAJO-245
p1938
aVTAJO-244
p1939
aVTAJO-243
p1940
aVTAJO-242
p1941
aVTAJO-241
p1942
aVTAJO-240
p1943
aVTAJO-239
p1944
aVTAJO-238
p1945
aVTAJO-237
p1946
aVTAJO-236
p1947
aVTAJO-235
p1948
aVTAJO-234
p1949
aVTAJO-233
p1950
aVTAJO-232
p1951
aVTAJO-231
p1952
aVTAJO-230
p1953
aVTAJO-229
p1954
aVTAJO-228
p1955
aVTAJO-227
p1956
aVTAJO-226
p1957
aVTAJO-225
p1958
aVTAJO-224
p1959
aVTAJO-223
p1960
aVTAJO-222
p1961
aVTAJO-221
p1962
aVTAJO-220
p1963
aVTAJO-219
p1964
aVTAJO-218
p1965
aVTAJO-217
p1966
aVTAJO-216
p1967
aVTAJO-215
p1968
aVTAJO-214
p1969
aVTAJO-213
p1970
aVTAJO-212
p1971
aVTAJO-211
p1972
aVTAJO-210
p1973
aVTAJO-209
p1974
aVTAJO-208
p1975
aVTAJO-207
p1976
aVTAJO-206
p1977
aVTAJO-205
p1978
aVTAJO-204
p1979
aVTAJO-203
p1980
aVTAJO-202
p1981
aVTAJO-201
p1982
aVTAJO-200
p1983
aVTAJO-199
p1984
aVTAJO-198
p1985
aVTAJO-197
p1986
aVTAJO-196
p1987
aVTAJO-195
p1988
aVTAJO-194
p1989
aVTAJO-193
p1990
aVTAJO-192
p1991
aVTAJO-191
p1992
aVTAJO-190
p1993
aVTAJO-189
p1994
aVTAJO-188
p1995
aVTAJO-187
p1996
aVTAJO-186
p1997
aVTAJO-185
p1998
aVTAJO-184
p1999
aVTAJO-183
p2000
aVTAJO-182
p2001
aVTAJO-181
p2002
aVTAJO-180
p2003
aVTAJO-179
p2004
aVTAJO-178
p2005
aVTAJO-177
p2006
aVTAJO-176
p2007
aVTAJO-175
p2008
aVTAJO-174
p2009
aVTAJO-173
p2010
aVTAJO-172
p2011
aVTAJO-171
p2012
aVTAJO-170
p2013
aVTAJO-169
p2014
aVTAJO-168
p2015
aVTAJO-167
p2016
aVTAJO-166
p2017
aVTAJO-165
p2018
aVTAJO-164
p2019
aVTAJO-163
p2020
aVTAJO-162
p2021
aVTAJO-161
p2022
aVTAJO-160
p2023
aVTAJO-159
p2024
aVTAJO-158
p2025
aVTAJO-157
p2026
aVTAJO-156
p2027
aVTAJO-155
p2028
aVTAJO-154
p2029
aVTAJO-153
p2030
aVTAJO-152
p2031
aVTAJO-151
p2032
aVTAJO-150
p2033
aVTAJO-149
p2034
aVTAJO-148
p2035
aVTAJO-147
p2036
aVTAJO-146
p2037
aVTAJO-145
p2038
aVTAJO-144
p2039
aVTAJO-143
p2040
aVTAJO-142
p2041
aVTAJO-141
p2042
aVTAJO-140
p2043
aVTAJO-139
p2044
aVTAJO-138
p2045
aVTAJO-137
p2046
aVTAJO-136
p2047
aVTAJO-135
p2048
aVTAJO-134
p2049
aVTAJO-133
p2050
aVTAJO-132
p2051
aVTAJO-131
p2052
aVTAJO-130
p2053
aVTAJO-129
p2054
aVTAJO-128
p2055
aVTAJO-127
p2056
aVTAJO-126
p2057
aVTAJO-125
p2058
aVTAJO-124
p2059
aVTAJO-123
p2060
aVTAJO-122
p2061
aVTAJO-121
p2062
aVTAJO-120
p2063
aVTAJO-119
p2064
aVTAJO-118
p2065
aVTAJO-117
p2066
aVTAJO-116
p2067
aVTAJO-115
p2068
aVTAJO-114
p2069
aVTAJO-113
p2070
aVTAJO-112
p2071
aVTAJO-111
p2072
aVTAJO-110
p2073
aVTAJO-109
p2074
aVTAJO-108
p2075
aVTAJO-107
p2076
aVTAJO-106
p2077
aVTAJO-105
p2078
aVTAJO-104
p2079
aVTAJO-103
p2080
aVTAJO-102
p2081
aVTAJO-101
p2082
aVTAJO-100
p2083
aVTAJO-99
p2084
aVTAJO-98
p2085
aVTAJO-97
p2086
aVTAJO-96
p2087
aVTAJO-95
p2088
aVTAJO-94
p2089
aVTAJO-93
p2090
aVTAJO-92
p2091
aVTAJO-91
p2092
aVTAJO-90
p2093
aVTAJO-89
p2094
aVTAJO-88
p2095
aVTAJO-87
p2096
aVTAJO-86
p2097
aVTAJO-85
p2098
aVTAJO-84
p2099
aVTAJO-83
p2100
aVTAJO-82
p2101
aVTAJO-81
p2102
aVTAJO-80
p2103
aVTAJO-79
p2104
aVTAJO-78
p2105
aVTAJO-77
p2106
aVTAJO-76
p2107
aVTAJO-75
p2108
aVTAJO-74
p2109
aVTAJO-73
p2110
aVTAJO-72
p2111
aVTAJO-71
p2112
aVTAJO-70
p2113
aVTAJO-69
p2114
aVTAJO-68
p2115
aVTAJO-67
p2116
aVTAJO-66
p2117
aVTAJO-65
p2118
aVTAJO-64
p2119
aVTAJO-63
p2120
aVTAJO-62
p2121
aVTAJO-61
p2122
aVTAJO-60
p2123
aVTAJO-59
p2124
aVTAJO-58
p2125
aVTAJO-57
p2126
aVTAJO-56
p2127
aVTAJO-55
p2128
aVTAJO-54
p2129
aVTAJO-53
p2130
aVTAJO-52
p2131
aVTAJO-51
p2132
aVTAJO-50
p2133
aVTAJO-49
p2134
aVTAJO-48
p2135
aVTAJO-47
p2136
aVTAJO-46
p2137
aVTAJO-45
p2138
aVTAJO-44
p2139
aVTAJO-43
p2140
aVTAJO-42
p2141
aVTAJO-41
p2142
aVTAJO-40
p2143
aVTAJO-39
p2144
aVTAJO-38
p2145
aVTAJO-37
p2146
aVTAJO-36
p2147
aVTAJO-35
p2148
aVTAJO-34
p2149
aVTAJO-33
p2150
aVTAJO-32
p2151
aVTAJO-31
p2152
aVTAJO-30
p2153
aVTAJO-29
p2154
aVTAJO-28
p2155
aVTAJO-27
p2156
aVTAJO-26
p2157
aVTAJO-25
p2158
aVTAJO-24
p2159
aVTAJO-23
p2160
aVTAJO-22
p2161
aVTAJO-21
p2162
aVTAJO-20
p2163
aVTAJO-19
p2164
aVTAJO-18
p2165
aVTAJO-17
p2166
aVTAJO-16
p2167
aVTAJO-15
p2168
aVTAJO-14
p2169
aVTAJO-13
p2170
aVTAJO-12
p2171
aVTAJO-11
p2172
aVTAJO-10
p2173
aVTAJO-9
p2174
aVTAJO-8
p2175
aVTAJO-7
p2176
aVTAJO-6
p2177
aVTAJO-5
p2178
aVTAJO-4
p2179
aVTAJO-3
p2180
aVTAJO-2
p2181
aVTAJO-1
p2182
a.