(lp0
VTAP5-2598
p1
aVTAP5-2597
p2
aVTAP5-2596
p3
aVTAP5-2595
p4
aVTAP5-2594
p5
aVTAP5-2593
p6
aVTAP5-2592
p7
aVTAP5-2591
p8
aVTAP5-2590
p9
aVTAP5-2589
p10
aVTAP5-2588
p11
aVTAP5-2587
p12
aVTAP5-2586
p13
aVTAP5-2585
p14
aVTAP5-2584
p15
aVTAP5-2583
p16
aVTAP5-2582
p17
aVTAP5-2581
p18
aVTAP5-2580
p19
aVTAP5-2579
p20
aVTAP5-2578
p21
aVTAP5-2577
p22
aVTAP5-2576
p23
aVTAP5-2575
p24
aVTAP5-2574
p25
aVTAP5-2573
p26
aVTAP5-2572
p27
aVTAP5-2571
p28
aVTAP5-2570
p29
aVTAP5-2569
p30
aVTAP5-2568
p31
aVTAP5-2567
p32
aVTAP5-2566
p33
aVTAP5-2565
p34
aVTAP5-2564
p35
aVTAP5-2563
p36
aVTAP5-2562
p37
aVTAP5-2561
p38
aVTAP5-2560
p39
aVTAP5-2559
p40
aVTAP5-2558
p41
aVTAP5-2557
p42
aVTAP5-2556
p43
aVTAP5-2555
p44
aVTAP5-2554
p45
aVTAP5-2553
p46
aVTAP5-2552
p47
aVTAP5-2551
p48
aVTAP5-2550
p49
aVTAP5-2549
p50
aVTAP5-2548
p51
aVTAP5-2547
p52
aVTAP5-2546
p53
aVTAP5-2545
p54
aVTAP5-2544
p55
aVTAP5-2543
p56
aVTAP5-2542
p57
aVTAP5-2541
p58
aVTAP5-2540
p59
aVTAP5-2539
p60
aVTAP5-2538
p61
aVTAP5-2537
p62
aVTAP5-2536
p63
aVTAP5-2535
p64
aVTAP5-2534
p65
aVTAP5-2533
p66
aVTAP5-2532
p67
aVTAP5-2531
p68
aVTAP5-2530
p69
aVTAP5-2529
p70
aVTAP5-2528
p71
aVTAP5-2527
p72
aVTAP5-2526
p73
aVTAP5-2525
p74
aVTAP5-2524
p75
aVTAP5-2523
p76
aVTAP5-2522
p77
aVTAP5-2521
p78
aVTAP5-2520
p79
aVTAP5-2519
p80
aVTAP5-2518
p81
aVTAP5-2517
p82
aVTAP5-2516
p83
aVTAP5-2515
p84
aVTAP5-2514
p85
aVTAP5-2513
p86
aVTAP5-2512
p87
aVTAP5-2511
p88
aVTAP5-2510
p89
aVTAP5-2509
p90
aVTAP5-2508
p91
aVTAP5-2507
p92
aVTAP5-2506
p93
aVTAP5-2505
p94
aVTAP5-2504
p95
aVTAP5-2503
p96
aVTAP5-2502
p97
aVTAP5-2501
p98
aVTAP5-2500
p99
aVTAP5-2499
p100
aVTAP5-2498
p101
aVTAP5-2497
p102
aVTAP5-2496
p103
aVTAP5-2495
p104
aVTAP5-2494
p105
aVTAP5-2493
p106
aVTAP5-2492
p107
aVTAP5-2491
p108
aVTAP5-2490
p109
aVTAP5-2489
p110
aVTAP5-2488
p111
aVTAP5-2487
p112
aVTAP5-2486
p113
aVTAP5-2485
p114
aVTAP5-2484
p115
aVTAP5-2483
p116
aVTAP5-2482
p117
aVTAP5-2481
p118
aVTAP5-2480
p119
aVTAP5-2479
p120
aVTAP5-2478
p121
aVTAP5-2477
p122
aVTAP5-2476
p123
aVTAP5-2475
p124
aVTAP5-2474
p125
aVTAP5-2473
p126
aVTAP5-2472
p127
aVTAP5-2471
p128
aVTAP5-2470
p129
aVTAP5-2469
p130
aVTAP5-2468
p131
aVTAP5-2467
p132
aVTAP5-2466
p133
aVTAP5-2465
p134
aVTAP5-2464
p135
aVTAP5-2463
p136
aVTAP5-2462
p137
aVTAP5-2461
p138
aVTAP5-2460
p139
aVTAP5-2459
p140
aVTAP5-2458
p141
aVTAP5-2457
p142
aVTAP5-2456
p143
aVTAP5-2455
p144
aVTAP5-2454
p145
aVTAP5-2453
p146
aVTAP5-2452
p147
aVTAP5-2451
p148
aVTAP5-2450
p149
aVTAP5-2449
p150
aVTAP5-2448
p151
aVTAP5-2447
p152
aVTAP5-2446
p153
aVTAP5-2445
p154
aVTAP5-2444
p155
aVTAP5-2443
p156
aVTAP5-2442
p157
aVTAP5-2441
p158
aVTAP5-2440
p159
aVTAP5-2439
p160
aVTAP5-2438
p161
aVTAP5-2437
p162
aVTAP5-2436
p163
aVTAP5-2435
p164
aVTAP5-2434
p165
aVTAP5-2433
p166
aVTAP5-2432
p167
aVTAP5-2431
p168
aVTAP5-2430
p169
aVTAP5-2429
p170
aVTAP5-2428
p171
aVTAP5-2427
p172
aVTAP5-2426
p173
aVTAP5-2425
p174
aVTAP5-2424
p175
aVTAP5-2423
p176
aVTAP5-2422
p177
aVTAP5-2421
p178
aVTAP5-2420
p179
aVTAP5-2419
p180
aVTAP5-2418
p181
aVTAP5-2417
p182
aVTAP5-2416
p183
aVTAP5-2415
p184
aVTAP5-2414
p185
aVTAP5-2413
p186
aVTAP5-2412
p187
aVTAP5-2411
p188
aVTAP5-2410
p189
aVTAP5-2409
p190
aVTAP5-2408
p191
aVTAP5-2407
p192
aVTAP5-2406
p193
aVTAP5-2405
p194
aVTAP5-2404
p195
aVTAP5-2403
p196
aVTAP5-2402
p197
aVTAP5-2401
p198
aVTAP5-2400
p199
aVTAP5-2399
p200
aVTAP5-2398
p201
aVTAP5-2397
p202
aVTAP5-2396
p203
aVTAP5-2395
p204
aVTAP5-2394
p205
aVTAP5-2393
p206
aVTAP5-2392
p207
aVTAP5-2391
p208
aVTAP5-2390
p209
aVTAP5-2389
p210
aVTAP5-2388
p211
aVTAP5-2387
p212
aVTAP5-2386
p213
aVTAP5-2385
p214
aVTAP5-2384
p215
aVTAP5-2383
p216
aVTAP5-2382
p217
aVTAP5-2381
p218
aVTAP5-2380
p219
aVTAP5-2379
p220
aVTAP5-2378
p221
aVTAP5-2377
p222
aVTAP5-2376
p223
aVTAP5-2375
p224
aVTAP5-2374
p225
aVTAP5-2373
p226
aVTAP5-2372
p227
aVTAP5-2371
p228
aVTAP5-2370
p229
aVTAP5-2369
p230
aVTAP5-2368
p231
aVTAP5-2367
p232
aVTAP5-2366
p233
aVTAP5-2365
p234
aVTAP5-2364
p235
aVTAP5-2363
p236
aVTAP5-2362
p237
aVTAP5-2361
p238
aVTAP5-2360
p239
aVTAP5-2359
p240
aVTAP5-2358
p241
aVTAP5-2357
p242
aVTAP5-2356
p243
aVTAP5-2355
p244
aVTAP5-2354
p245
aVTAP5-2353
p246
aVTAP5-2352
p247
aVTAP5-2351
p248
aVTAP5-2350
p249
aVTAP5-2349
p250
aVTAP5-2348
p251
aVTAP5-2347
p252
aVTAP5-2346
p253
aVTAP5-2345
p254
aVTAP5-2344
p255
aVTAP5-2343
p256
aVTAP5-2342
p257
aVTAP5-2341
p258
aVTAP5-2340
p259
aVTAP5-2339
p260
aVTAP5-2338
p261
aVTAP5-2337
p262
aVTAP5-2336
p263
aVTAP5-2335
p264
aVTAP5-2334
p265
aVTAP5-2333
p266
aVTAP5-2332
p267
aVTAP5-2331
p268
aVTAP5-2330
p269
aVTAP5-2329
p270
aVTAP5-2328
p271
aVTAP5-2327
p272
aVTAP5-2326
p273
aVTAP5-2325
p274
aVTAP5-2324
p275
aVTAP5-2323
p276
aVTAP5-2322
p277
aVTAP5-2321
p278
aVTAP5-2320
p279
aVTAP5-2319
p280
aVTAP5-2318
p281
aVTAP5-2317
p282
aVTAP5-2316
p283
aVTAP5-2315
p284
aVTAP5-2314
p285
aVTAP5-2313
p286
aVTAP5-2312
p287
aVTAP5-2311
p288
aVTAP5-2310
p289
aVTAP5-2309
p290
aVTAP5-2308
p291
aVTAP5-2307
p292
aVTAP5-2306
p293
aVTAP5-2305
p294
aVTAP5-2304
p295
aVTAP5-2303
p296
aVTAP5-2302
p297
aVTAP5-2301
p298
aVTAP5-2300
p299
aVTAP5-2299
p300
aVTAP5-2298
p301
aVTAP5-2297
p302
aVTAP5-2296
p303
aVTAP5-2295
p304
aVTAP5-2294
p305
aVTAP5-2293
p306
aVTAP5-2292
p307
aVTAP5-2291
p308
aVTAP5-2290
p309
aVTAP5-2289
p310
aVTAP5-2288
p311
aVTAP5-2287
p312
aVTAP5-2286
p313
aVTAP5-2285
p314
aVTAP5-2284
p315
aVTAP5-2283
p316
aVTAP5-2282
p317
aVTAP5-2281
p318
aVTAP5-2280
p319
aVTAP5-2279
p320
aVTAP5-2278
p321
aVTAP5-2277
p322
aVTAP5-2276
p323
aVTAP5-2275
p324
aVTAP5-2274
p325
aVTAP5-2273
p326
aVTAP5-2272
p327
aVTAP5-2271
p328
aVTAP5-2270
p329
aVTAP5-2269
p330
aVTAP5-2268
p331
aVTAP5-2267
p332
aVTAP5-2266
p333
aVTAP5-2265
p334
aVTAP5-2264
p335
aVTAP5-2263
p336
aVTAP5-2262
p337
aVTAP5-2261
p338
aVTAP5-2260
p339
aVTAP5-2259
p340
aVTAP5-2258
p341
aVTAP5-2257
p342
aVTAP5-2256
p343
aVTAP5-2255
p344
aVTAP5-2254
p345
aVTAP5-2253
p346
aVTAP5-2252
p347
aVTAP5-2251
p348
aVTAP5-2250
p349
aVTAP5-2249
p350
aVTAP5-2248
p351
aVTAP5-2247
p352
aVTAP5-2246
p353
aVTAP5-2245
p354
aVTAP5-2244
p355
aVTAP5-2243
p356
aVTAP5-2242
p357
aVTAP5-2241
p358
aVTAP5-2240
p359
aVTAP5-2239
p360
aVTAP5-2238
p361
aVTAP5-2237
p362
aVTAP5-2236
p363
aVTAP5-2235
p364
aVTAP5-2234
p365
aVTAP5-2233
p366
aVTAP5-2232
p367
aVTAP5-2231
p368
aVTAP5-2230
p369
aVTAP5-2229
p370
aVTAP5-2228
p371
aVTAP5-2227
p372
aVTAP5-2226
p373
aVTAP5-2225
p374
aVTAP5-2224
p375
aVTAP5-2223
p376
aVTAP5-2222
p377
aVTAP5-2221
p378
aVTAP5-2220
p379
aVTAP5-2219
p380
aVTAP5-2218
p381
aVTAP5-2217
p382
aVTAP5-2216
p383
aVTAP5-2215
p384
aVTAP5-2214
p385
aVTAP5-2213
p386
aVTAP5-2212
p387
aVTAP5-2211
p388
aVTAP5-2210
p389
aVTAP5-2209
p390
aVTAP5-2208
p391
aVTAP5-2207
p392
aVTAP5-2206
p393
aVTAP5-2205
p394
aVTAP5-2204
p395
aVTAP5-2203
p396
aVTAP5-2202
p397
aVTAP5-2201
p398
aVTAP5-2200
p399
aVTAP5-2199
p400
aVTAP5-2198
p401
aVTAP5-2197
p402
aVTAP5-2196
p403
aVTAP5-2195
p404
aVTAP5-2194
p405
aVTAP5-2193
p406
aVTAP5-2192
p407
aVTAP5-2191
p408
aVTAP5-2190
p409
aVTAP5-2189
p410
aVTAP5-2188
p411
aVTAP5-2187
p412
aVTAP5-2186
p413
aVTAP5-2185
p414
aVTAP5-2184
p415
aVTAP5-2183
p416
aVTAP5-2182
p417
aVTAP5-2181
p418
aVTAP5-2180
p419
aVTAP5-2179
p420
aVTAP5-2178
p421
aVTAP5-2177
p422
aVTAP5-2176
p423
aVTAP5-2175
p424
aVTAP5-2174
p425
aVTAP5-2173
p426
aVTAP5-2172
p427
aVTAP5-2171
p428
aVTAP5-2170
p429
aVTAP5-2169
p430
aVTAP5-2168
p431
aVTAP5-2167
p432
aVTAP5-2166
p433
aVTAP5-2165
p434
aVTAP5-2164
p435
aVTAP5-2163
p436
aVTAP5-2162
p437
aVTAP5-2161
p438
aVTAP5-2160
p439
aVTAP5-2159
p440
aVTAP5-2158
p441
aVTAP5-2157
p442
aVTAP5-2156
p443
aVTAP5-2155
p444
aVTAP5-2154
p445
aVTAP5-2153
p446
aVTAP5-2152
p447
aVTAP5-2151
p448
aVTAP5-2150
p449
aVTAP5-2149
p450
aVTAP5-2148
p451
aVTAP5-2147
p452
aVTAP5-2146
p453
aVTAP5-2145
p454
aVTAP5-2144
p455
aVTAP5-2143
p456
aVTAP5-2142
p457
aVTAP5-2141
p458
aVTAP5-2140
p459
aVTAP5-2139
p460
aVTAP5-2138
p461
aVTAP5-2137
p462
aVTAP5-2136
p463
aVTAP5-2135
p464
aVTAP5-2134
p465
aVTAP5-2133
p466
aVTAP5-2132
p467
aVTAP5-2131
p468
aVTAP5-2130
p469
aVTAP5-2129
p470
aVTAP5-2128
p471
aVTAP5-2127
p472
aVTAP5-2126
p473
aVTAP5-2125
p474
aVTAP5-2124
p475
aVTAP5-2123
p476
aVTAP5-2122
p477
aVTAP5-2121
p478
aVTAP5-2120
p479
aVTAP5-2119
p480
aVTAP5-2118
p481
aVTAP5-2117
p482
aVTAP5-2116
p483
aVTAP5-2115
p484
aVTAP5-2114
p485
aVTAP5-2113
p486
aVTAP5-2112
p487
aVTAP5-2111
p488
aVTAP5-2110
p489
aVTAP5-2109
p490
aVTAP5-2108
p491
aVTAP5-2107
p492
aVTAP5-2106
p493
aVTAP5-2105
p494
aVTAP5-2104
p495
aVTAP5-2103
p496
aVTAP5-2102
p497
aVTAP5-2101
p498
aVTAP5-2100
p499
aVTAP5-2099
p500
aVTAP5-2098
p501
aVTAP5-2097
p502
aVTAP5-2096
p503
aVTAP5-2095
p504
aVTAP5-2094
p505
aVTAP5-2093
p506
aVTAP5-2092
p507
aVTAP5-2091
p508
aVTAP5-2090
p509
aVTAP5-2089
p510
aVTAP5-2088
p511
aVTAP5-2087
p512
aVTAP5-2086
p513
aVTAP5-2085
p514
aVTAP5-2084
p515
aVTAP5-2083
p516
aVTAP5-2082
p517
aVTAP5-2081
p518
aVTAP5-2080
p519
aVTAP5-2079
p520
aVTAP5-2078
p521
aVTAP5-2077
p522
aVTAP5-2076
p523
aVTAP5-2075
p524
aVTAP5-2074
p525
aVTAP5-2073
p526
aVTAP5-2072
p527
aVTAP5-2071
p528
aVTAP5-2070
p529
aVTAP5-2069
p530
aVTAP5-2068
p531
aVTAP5-2067
p532
aVTAP5-2066
p533
aVTAP5-2065
p534
aVTAP5-2064
p535
aVTAP5-2063
p536
aVTAP5-2062
p537
aVTAP5-2061
p538
aVTAP5-2060
p539
aVTAP5-2059
p540
aVTAP5-2058
p541
aVTAP5-2057
p542
aVTAP5-2056
p543
aVTAP5-2055
p544
aVTAP5-2054
p545
aVTAP5-2053
p546
aVTAP5-2052
p547
aVTAP5-2051
p548
aVTAP5-2050
p549
aVTAP5-2049
p550
aVTAP5-2048
p551
aVTAP5-2047
p552
aVTAP5-2046
p553
aVTAP5-2045
p554
aVTAP5-2044
p555
aVTAP5-2043
p556
aVTAP5-2042
p557
aVTAP5-2041
p558
aVTAP5-2040
p559
aVTAP5-2039
p560
aVTAP5-2038
p561
aVTAP5-2037
p562
aVTAP5-2036
p563
aVTAP5-2035
p564
aVTAP5-2034
p565
aVTAP5-2033
p566
aVTAP5-2032
p567
aVTAP5-2031
p568
aVTAP5-2030
p569
aVTAP5-2029
p570
aVTAP5-2028
p571
aVTAP5-2027
p572
aVTAP5-2026
p573
aVTAP5-2025
p574
aVTAP5-2024
p575
aVTAP5-2023
p576
aVTAP5-2022
p577
aVTAP5-2021
p578
aVTAP5-2020
p579
aVTAP5-2019
p580
aVTAP5-2018
p581
aVTAP5-2017
p582
aVTAP5-2016
p583
aVTAP5-2015
p584
aVTAP5-2014
p585
aVTAP5-2013
p586
aVTAP5-2012
p587
aVTAP5-2011
p588
aVTAP5-2010
p589
aVTAP5-2009
p590
aVTAP5-2008
p591
aVTAP5-2007
p592
aVTAP5-2006
p593
aVTAP5-2005
p594
aVTAP5-2004
p595
aVTAP5-2003
p596
aVTAP5-2002
p597
aVTAP5-2001
p598
aVTAP5-2000
p599
aVTAP5-1999
p600
aVTAP5-1998
p601
aVTAP5-1997
p602
aVTAP5-1996
p603
aVTAP5-1995
p604
aVTAP5-1994
p605
aVTAP5-1993
p606
aVTAP5-1992
p607
aVTAP5-1991
p608
aVTAP5-1990
p609
aVTAP5-1989
p610
aVTAP5-1988
p611
aVTAP5-1987
p612
aVTAP5-1986
p613
aVTAP5-1985
p614
aVTAP5-1984
p615
aVTAP5-1983
p616
aVTAP5-1982
p617
aVTAP5-1981
p618
aVTAP5-1980
p619
aVTAP5-1979
p620
aVTAP5-1978
p621
aVTAP5-1977
p622
aVTAP5-1976
p623
aVTAP5-1975
p624
aVTAP5-1974
p625
aVTAP5-1973
p626
aVTAP5-1972
p627
aVTAP5-1971
p628
aVTAP5-1970
p629
aVTAP5-1969
p630
aVTAP5-1968
p631
aVTAP5-1967
p632
aVTAP5-1966
p633
aVTAP5-1965
p634
aVTAP5-1964
p635
aVTAP5-1963
p636
aVTAP5-1962
p637
aVTAP5-1961
p638
aVTAP5-1960
p639
aVTAP5-1959
p640
aVTAP5-1958
p641
aVTAP5-1957
p642
aVTAP5-1956
p643
aVTAP5-1955
p644
aVTAP5-1954
p645
aVTAP5-1953
p646
aVTAP5-1952
p647
aVTAP5-1951
p648
aVTAP5-1950
p649
aVTAP5-1949
p650
aVTAP5-1948
p651
aVTAP5-1947
p652
aVTAP5-1946
p653
aVTAP5-1945
p654
aVTAP5-1944
p655
aVTAP5-1943
p656
aVTAP5-1942
p657
aVTAP5-1941
p658
aVTAP5-1940
p659
aVTAP5-1939
p660
aVTAP5-1938
p661
aVTAP5-1937
p662
aVTAP5-1936
p663
aVTAP5-1935
p664
aVTAP5-1934
p665
aVTAP5-1933
p666
aVTAP5-1932
p667
aVTAP5-1931
p668
aVTAP5-1930
p669
aVTAP5-1929
p670
aVTAP5-1928
p671
aVTAP5-1927
p672
aVTAP5-1926
p673
aVTAP5-1925
p674
aVTAP5-1924
p675
aVTAP5-1923
p676
aVTAP5-1922
p677
aVTAP5-1921
p678
aVTAP5-1920
p679
aVTAP5-1919
p680
aVTAP5-1918
p681
aVTAP5-1917
p682
aVTAP5-1916
p683
aVTAP5-1915
p684
aVTAP5-1914
p685
aVTAP5-1913
p686
aVTAP5-1912
p687
aVTAP5-1911
p688
aVTAP5-1910
p689
aVTAP5-1909
p690
aVTAP5-1908
p691
aVTAP5-1907
p692
aVTAP5-1906
p693
aVTAP5-1905
p694
aVTAP5-1904
p695
aVTAP5-1903
p696
aVTAP5-1902
p697
aVTAP5-1901
p698
aVTAP5-1900
p699
aVTAP5-1899
p700
aVTAP5-1898
p701
aVTAP5-1897
p702
aVTAP5-1896
p703
aVTAP5-1895
p704
aVTAP5-1894
p705
aVTAP5-1893
p706
aVTAP5-1892
p707
aVTAP5-1891
p708
aVTAP5-1890
p709
aVTAP5-1889
p710
aVTAP5-1888
p711
aVTAP5-1887
p712
aVTAP5-1886
p713
aVTAP5-1885
p714
aVTAP5-1884
p715
aVTAP5-1883
p716
aVTAP5-1882
p717
aVTAP5-1881
p718
aVTAP5-1880
p719
aVTAP5-1879
p720
aVTAP5-1878
p721
aVTAP5-1877
p722
aVTAP5-1876
p723
aVTAP5-1875
p724
aVTAP5-1874
p725
aVTAP5-1873
p726
aVTAP5-1872
p727
aVTAP5-1871
p728
aVTAP5-1870
p729
aVTAP5-1869
p730
aVTAP5-1868
p731
aVTAP5-1867
p732
aVTAP5-1866
p733
aVTAP5-1865
p734
aVTAP5-1864
p735
aVTAP5-1863
p736
aVTAP5-1862
p737
aVTAP5-1861
p738
aVTAP5-1860
p739
aVTAP5-1859
p740
aVTAP5-1858
p741
aVTAP5-1857
p742
aVTAP5-1856
p743
aVTAP5-1855
p744
aVTAP5-1854
p745
aVTAP5-1853
p746
aVTAP5-1852
p747
aVTAP5-1851
p748
aVTAP5-1850
p749
aVTAP5-1849
p750
aVTAP5-1848
p751
aVTAP5-1847
p752
aVTAP5-1846
p753
aVTAP5-1845
p754
aVTAP5-1844
p755
aVTAP5-1843
p756
aVTAP5-1842
p757
aVTAP5-1841
p758
aVTAP5-1840
p759
aVTAP5-1839
p760
aVTAP5-1838
p761
aVTAP5-1837
p762
aVTAP5-1836
p763
aVTAP5-1835
p764
aVTAP5-1834
p765
aVTAP5-1833
p766
aVTAP5-1832
p767
aVTAP5-1831
p768
aVTAP5-1830
p769
aVTAP5-1829
p770
aVTAP5-1828
p771
aVTAP5-1827
p772
aVTAP5-1826
p773
aVTAP5-1825
p774
aVTAP5-1824
p775
aVTAP5-1823
p776
aVTAP5-1822
p777
aVTAP5-1821
p778
aVTAP5-1820
p779
aVTAP5-1819
p780
aVTAP5-1818
p781
aVTAP5-1817
p782
aVTAP5-1816
p783
aVTAP5-1815
p784
aVTAP5-1814
p785
aVTAP5-1813
p786
aVTAP5-1812
p787
aVTAP5-1811
p788
aVTAP5-1810
p789
aVTAP5-1809
p790
aVTAP5-1808
p791
aVTAP5-1807
p792
aVTAP5-1806
p793
aVTAP5-1805
p794
aVTAP5-1804
p795
aVTAP5-1803
p796
aVTAP5-1802
p797
aVTAP5-1801
p798
aVTAP5-1800
p799
aVTAP5-1799
p800
aVTAP5-1798
p801
aVTAP5-1797
p802
aVTAP5-1796
p803
aVTAP5-1795
p804
aVTAP5-1794
p805
aVTAP5-1793
p806
aVTAP5-1792
p807
aVTAP5-1791
p808
aVTAP5-1790
p809
aVTAP5-1789
p810
aVTAP5-1788
p811
aVTAP5-1787
p812
aVTAP5-1786
p813
aVTAP5-1785
p814
aVTAP5-1784
p815
aVTAP5-1783
p816
aVTAP5-1782
p817
aVTAP5-1781
p818
aVTAP5-1780
p819
aVTAP5-1779
p820
aVTAP5-1778
p821
aVTAP5-1777
p822
aVTAP5-1776
p823
aVTAP5-1775
p824
aVTAP5-1774
p825
aVTAP5-1773
p826
aVTAP5-1772
p827
aVTAP5-1771
p828
aVTAP5-1770
p829
aVTAP5-1769
p830
aVTAP5-1768
p831
aVTAP5-1767
p832
aVTAP5-1766
p833
aVTAP5-1765
p834
aVTAP5-1764
p835
aVTAP5-1763
p836
aVTAP5-1762
p837
aVTAP5-1761
p838
aVTAP5-1760
p839
aVTAP5-1759
p840
aVTAP5-1758
p841
aVTAP5-1757
p842
aVTAP5-1756
p843
aVTAP5-1755
p844
aVTAP5-1754
p845
aVTAP5-1753
p846
aVTAP5-1752
p847
aVTAP5-1751
p848
aVTAP5-1750
p849
aVTAP5-1749
p850
aVTAP5-1748
p851
aVTAP5-1747
p852
aVTAP5-1746
p853
aVTAP5-1745
p854
aVTAP5-1744
p855
aVTAP5-1743
p856
aVTAP5-1742
p857
aVTAP5-1741
p858
aVTAP5-1740
p859
aVTAP5-1739
p860
aVTAP5-1738
p861
aVTAP5-1737
p862
aVTAP5-1736
p863
aVTAP5-1735
p864
aVTAP5-1734
p865
aVTAP5-1733
p866
aVTAP5-1732
p867
aVTAP5-1731
p868
aVTAP5-1730
p869
aVTAP5-1729
p870
aVTAP5-1728
p871
aVTAP5-1727
p872
aVTAP5-1726
p873
aVTAP5-1725
p874
aVTAP5-1724
p875
aVTAP5-1723
p876
aVTAP5-1722
p877
aVTAP5-1721
p878
aVTAP5-1720
p879
aVTAP5-1719
p880
aVTAP5-1718
p881
aVTAP5-1717
p882
aVTAP5-1716
p883
aVTAP5-1715
p884
aVTAP5-1714
p885
aVTAP5-1713
p886
aVTAP5-1712
p887
aVTAP5-1711
p888
aVTAP5-1710
p889
aVTAP5-1709
p890
aVTAP5-1708
p891
aVTAP5-1707
p892
aVTAP5-1706
p893
aVTAP5-1705
p894
aVTAP5-1704
p895
aVTAP5-1703
p896
aVTAP5-1702
p897
aVTAP5-1701
p898
aVTAP5-1700
p899
aVTAP5-1699
p900
aVTAP5-1698
p901
aVTAP5-1697
p902
aVTAP5-1696
p903
aVTAP5-1695
p904
aVTAP5-1694
p905
aVTAP5-1693
p906
aVTAP5-1692
p907
aVTAP5-1691
p908
aVTAP5-1690
p909
aVTAP5-1689
p910
aVTAP5-1688
p911
aVTAP5-1687
p912
aVTAP5-1686
p913
aVTAP5-1685
p914
aVTAP5-1684
p915
aVTAP5-1683
p916
aVTAP5-1682
p917
aVTAP5-1681
p918
aVTAP5-1680
p919
aVTAP5-1679
p920
aVTAP5-1678
p921
aVTAP5-1677
p922
aVTAP5-1676
p923
aVTAP5-1675
p924
aVTAP5-1674
p925
aVTAP5-1673
p926
aVTAP5-1672
p927
aVTAP5-1671
p928
aVTAP5-1670
p929
aVTAP5-1669
p930
aVTAP5-1668
p931
aVTAP5-1667
p932
aVTAP5-1666
p933
aVTAP5-1665
p934
aVTAP5-1664
p935
aVTAP5-1663
p936
aVTAP5-1662
p937
aVTAP5-1661
p938
aVTAP5-1660
p939
aVTAP5-1659
p940
aVTAP5-1658
p941
aVTAP5-1657
p942
aVTAP5-1656
p943
aVTAP5-1655
p944
aVTAP5-1654
p945
aVTAP5-1653
p946
aVTAP5-1652
p947
aVTAP5-1651
p948
aVTAP5-1650
p949
aVTAP5-1649
p950
aVTAP5-1648
p951
aVTAP5-1647
p952
aVTAP5-1646
p953
aVTAP5-1645
p954
aVTAP5-1644
p955
aVTAP5-1643
p956
aVTAP5-1642
p957
aVTAP5-1641
p958
aVTAP5-1640
p959
aVTAP5-1639
p960
aVTAP5-1638
p961
aVTAP5-1637
p962
aVTAP5-1636
p963
aVTAP5-1635
p964
aVTAP5-1634
p965
aVTAP5-1633
p966
aVTAP5-1632
p967
aVTAP5-1631
p968
aVTAP5-1630
p969
aVTAP5-1629
p970
aVTAP5-1628
p971
aVTAP5-1627
p972
aVTAP5-1626
p973
aVTAP5-1625
p974
aVTAP5-1624
p975
aVTAP5-1623
p976
aVTAP5-1622
p977
aVTAP5-1621
p978
aVTAP5-1620
p979
aVTAP5-1619
p980
aVTAP5-1618
p981
aVTAP5-1617
p982
aVTAP5-1616
p983
aVTAP5-1615
p984
aVTAP5-1614
p985
aVTAP5-1613
p986
aVTAP5-1612
p987
aVTAP5-1611
p988
aVTAP5-1610
p989
aVTAP5-1609
p990
aVTAP5-1608
p991
aVTAP5-1607
p992
aVTAP5-1606
p993
aVTAP5-1605
p994
aVTAP5-1604
p995
aVTAP5-1603
p996
aVTAP5-1602
p997
aVTAP5-1601
p998
aVTAP5-1600
p999
aVTAP5-1599
p1000
aVTAP5-1598
p1001
aVTAP5-1597
p1002
aVTAP5-1596
p1003
aVTAP5-1595
p1004
aVTAP5-1594
p1005
aVTAP5-1593
p1006
aVTAP5-1592
p1007
aVTAP5-1591
p1008
aVTAP5-1590
p1009
aVTAP5-1589
p1010
aVTAP5-1588
p1011
aVTAP5-1587
p1012
aVTAP5-1586
p1013
aVTAP5-1585
p1014
aVTAP5-1584
p1015
aVTAP5-1583
p1016
aVTAP5-1582
p1017
aVTAP5-1581
p1018
aVTAP5-1580
p1019
aVTAP5-1579
p1020
aVTAP5-1578
p1021
aVTAP5-1577
p1022
aVTAP5-1576
p1023
aVTAP5-1575
p1024
aVTAP5-1574
p1025
aVTAP5-1573
p1026
aVTAP5-1572
p1027
aVTAP5-1571
p1028
aVTAP5-1570
p1029
aVTAP5-1569
p1030
aVTAP5-1568
p1031
aVTAP5-1567
p1032
aVTAP5-1566
p1033
aVTAP5-1565
p1034
aVTAP5-1564
p1035
aVTAP5-1563
p1036
aVTAP5-1562
p1037
aVTAP5-1561
p1038
aVTAP5-1560
p1039
aVTAP5-1559
p1040
aVTAP5-1558
p1041
aVTAP5-1557
p1042
aVTAP5-1556
p1043
aVTAP5-1555
p1044
aVTAP5-1554
p1045
aVTAP5-1552
p1046
aVTAP5-1551
p1047
aVTAP5-1550
p1048
aVTAP5-1549
p1049
aVTAP5-1548
p1050
aVTAP5-1547
p1051
aVTAP5-1546
p1052
aVTAP5-1545
p1053
aVTAP5-1544
p1054
aVTAP5-1543
p1055
aVTAP5-1542
p1056
aVTAP5-1541
p1057
aVTAP5-1540
p1058
aVTAP5-1539
p1059
aVTAP5-1538
p1060
aVTAP5-1537
p1061
aVTAP5-1536
p1062
aVTAP5-1535
p1063
aVTAP5-1534
p1064
aVTAP5-1533
p1065
aVTAP5-1532
p1066
aVTAP5-1531
p1067
aVTAP5-1530
p1068
aVTAP5-1529
p1069
aVTAP5-1528
p1070
aVTAP5-1527
p1071
aVTAP5-1526
p1072
aVTAP5-1525
p1073
aVTAP5-1524
p1074
aVTAP5-1523
p1075
aVTAP5-1522
p1076
aVTAP5-1521
p1077
aVTAP5-1520
p1078
aVTAP5-1519
p1079
aVTAP5-1518
p1080
aVTAP5-1517
p1081
aVTAP5-1516
p1082
aVTAP5-1515
p1083
aVTAP5-1514
p1084
aVTAP5-1513
p1085
aVTAP5-1512
p1086
aVTAP5-1511
p1087
aVTAP5-1510
p1088
aVTAP5-1509
p1089
aVTAP5-1508
p1090
aVTAP5-1507
p1091
aVTAP5-1506
p1092
aVTAP5-1505
p1093
aVTAP5-1504
p1094
aVTAP5-1503
p1095
aVTAP5-1502
p1096
aVTAP5-1501
p1097
aVTAP5-1500
p1098
aVTAP5-1499
p1099
aVTAP5-1498
p1100
aVTAP5-1497
p1101
aVTAP5-1496
p1102
aVTAP5-1495
p1103
aVTAP5-1494
p1104
aVTAP5-1493
p1105
aVTAP5-1492
p1106
aVTAP5-1491
p1107
aVTAP5-1490
p1108
aVTAP5-1489
p1109
aVTAP5-1488
p1110
aVTAP5-1487
p1111
aVTAP5-1486
p1112
aVTAP5-1485
p1113
aVTAP5-1484
p1114
aVTAP5-1483
p1115
aVTAP5-1482
p1116
aVTAP5-1481
p1117
aVTAP5-1480
p1118
aVTAP5-1479
p1119
aVTAP5-1478
p1120
aVTAP5-1477
p1121
aVTAP5-1476
p1122
aVTAP5-1475
p1123
aVTAP5-1474
p1124
aVTAP5-1473
p1125
aVTAP5-1472
p1126
aVTAP5-1471
p1127
aVTAP5-1470
p1128
aVTAP5-1469
p1129
aVTAP5-1468
p1130
aVTAP5-1467
p1131
aVTAP5-1466
p1132
aVTAP5-1465
p1133
aVTAP5-1464
p1134
aVTAP5-1463
p1135
aVTAP5-1462
p1136
aVTAP5-1461
p1137
aVTAP5-1460
p1138
aVTAP5-1459
p1139
aVTAP5-1458
p1140
aVTAP5-1457
p1141
aVTAP5-1456
p1142
aVTAP5-1455
p1143
aVTAP5-1454
p1144
aVTAP5-1453
p1145
aVTAP5-1452
p1146
aVTAP5-1451
p1147
aVTAP5-1450
p1148
aVTAP5-1449
p1149
aVTAP5-1448
p1150
aVTAP5-1447
p1151
aVTAP5-1446
p1152
aVTAP5-1445
p1153
aVTAP5-1444
p1154
aVTAP5-1443
p1155
aVTAP5-1442
p1156
aVTAP5-1441
p1157
aVTAP5-1440
p1158
aVTAP5-1439
p1159
aVTAP5-1438
p1160
aVTAP5-1437
p1161
aVTAP5-1436
p1162
aVTAP5-1435
p1163
aVTAP5-1434
p1164
aVTAP5-1433
p1165
aVTAP5-1432
p1166
aVTAP5-1431
p1167
aVTAP5-1430
p1168
aVTAP5-1429
p1169
aVTAP5-1428
p1170
aVTAP5-1427
p1171
aVTAP5-1426
p1172
aVTAP5-1425
p1173
aVTAP5-1424
p1174
aVTAP5-1423
p1175
aVTAP5-1422
p1176
aVTAP5-1421
p1177
aVTAP5-1420
p1178
aVTAP5-1419
p1179
aVTAP5-1418
p1180
aVTAP5-1417
p1181
aVTAP5-1416
p1182
aVTAP5-1415
p1183
aVTAP5-1414
p1184
aVTAP5-1413
p1185
aVTAP5-1412
p1186
aVTAP5-1411
p1187
aVTAP5-1410
p1188
aVTAP5-1409
p1189
aVTAP5-1408
p1190
aVTAP5-1407
p1191
aVTAP5-1406
p1192
aVTAP5-1405
p1193
aVTAP5-1404
p1194
aVTAP5-1403
p1195
aVTAP5-1402
p1196
aVTAP5-1401
p1197
aVTAP5-1400
p1198
aVTAP5-1399
p1199
aVTAP5-1398
p1200
aVTAP5-1397
p1201
aVTAP5-1396
p1202
aVTAP5-1395
p1203
aVTAP5-1394
p1204
aVTAP5-1393
p1205
aVTAP5-1392
p1206
aVTAP5-1391
p1207
aVTAP5-1390
p1208
aVTAP5-1389
p1209
aVTAP5-1388
p1210
aVTAP5-1387
p1211
aVTAP5-1386
p1212
aVTAP5-1385
p1213
aVTAP5-1384
p1214
aVTAP5-1383
p1215
aVTAP5-1382
p1216
aVTAP5-1381
p1217
aVTAP5-1380
p1218
aVTAP5-1379
p1219
aVTAP5-1378
p1220
aVTAP5-1377
p1221
aVTAP5-1376
p1222
aVTAP5-1375
p1223
aVTAP5-1374
p1224
aVTAP5-1373
p1225
aVTAP5-1372
p1226
aVTAP5-1371
p1227
aVTAP5-1370
p1228
aVTAP5-1369
p1229
aVTAP5-1368
p1230
aVTAP5-1367
p1231
aVTAP5-1366
p1232
aVTAP5-1365
p1233
aVTAP5-1364
p1234
aVTAP5-1363
p1235
aVTAP5-1362
p1236
aVTAP5-1361
p1237
aVTAP5-1360
p1238
aVTAP5-1359
p1239
aVTAP5-1358
p1240
aVTAP5-1357
p1241
aVTAP5-1356
p1242
aVTAP5-1355
p1243
aVTAP5-1354
p1244
aVTAP5-1353
p1245
aVTAP5-1352
p1246
aVTAP5-1351
p1247
aVTAP5-1350
p1248
aVTAP5-1349
p1249
aVTAP5-1348
p1250
aVTAP5-1347
p1251
aVTAP5-1346
p1252
aVTAP5-1345
p1253
aVTAP5-1344
p1254
aVTAP5-1343
p1255
aVTAP5-1342
p1256
aVTAP5-1341
p1257
aVTAP5-1340
p1258
aVTAP5-1339
p1259
aVTAP5-1338
p1260
aVTAP5-1337
p1261
aVTAP5-1336
p1262
aVTAP5-1335
p1263
aVTAP5-1334
p1264
aVTAP5-1333
p1265
aVTAP5-1332
p1266
aVTAP5-1331
p1267
aVTAP5-1330
p1268
aVTAP5-1329
p1269
aVTAP5-1328
p1270
aVTAP5-1327
p1271
aVTAP5-1326
p1272
aVTAP5-1325
p1273
aVTAP5-1324
p1274
aVTAP5-1323
p1275
aVTAP5-1322
p1276
aVTAP5-1321
p1277
aVTAP5-1320
p1278
aVTAP5-1319
p1279
aVTAP5-1318
p1280
aVTAP5-1317
p1281
aVTAP5-1316
p1282
aVTAP5-1315
p1283
aVTAP5-1314
p1284
aVTAP5-1313
p1285
aVTAP5-1312
p1286
aVTAP5-1311
p1287
aVTAP5-1310
p1288
aVTAP5-1309
p1289
aVTAP5-1308
p1290
aVTAP5-1307
p1291
aVTAP5-1306
p1292
aVTAP5-1305
p1293
aVTAP5-1304
p1294
aVTAP5-1303
p1295
aVTAP5-1302
p1296
aVTAP5-1301
p1297
aVTAP5-1300
p1298
aVTAP5-1299
p1299
aVTAP5-1298
p1300
aVTAP5-1297
p1301
aVTAP5-1296
p1302
aVTAP5-1295
p1303
aVTAP5-1294
p1304
aVTAP5-1293
p1305
aVTAP5-1292
p1306
aVTAP5-1291
p1307
aVTAP5-1290
p1308
aVTAP5-1289
p1309
aVTAP5-1288
p1310
aVTAP5-1287
p1311
aVTAP5-1286
p1312
aVTAP5-1285
p1313
aVTAP5-1284
p1314
aVTAP5-1283
p1315
aVTAP5-1282
p1316
aVTAP5-1281
p1317
aVTAP5-1280
p1318
aVTAP5-1279
p1319
aVTAP5-1278
p1320
aVTAP5-1277
p1321
aVTAP5-1276
p1322
aVTAP5-1275
p1323
aVTAP5-1274
p1324
aVTAP5-1273
p1325
aVTAP5-1272
p1326
aVTAP5-1271
p1327
aVTAP5-1270
p1328
aVTAP5-1269
p1329
aVTAP5-1268
p1330
aVTAP5-1267
p1331
aVTAP5-1266
p1332
aVTAP5-1265
p1333
aVTAP5-1264
p1334
aVTAP5-1263
p1335
aVTAP5-1262
p1336
aVTAP5-1261
p1337
aVTAP5-1260
p1338
aVTAP5-1259
p1339
aVTAP5-1258
p1340
aVTAP5-1257
p1341
aVTAP5-1256
p1342
aVTAP5-1255
p1343
aVTAP5-1254
p1344
aVTAP5-1253
p1345
aVTAP5-1252
p1346
aVTAP5-1251
p1347
aVTAP5-1250
p1348
aVTAP5-1249
p1349
aVTAP5-1248
p1350
aVTAP5-1247
p1351
aVTAP5-1246
p1352
aVTAP5-1245
p1353
aVTAP5-1244
p1354
aVTAP5-1243
p1355
aVTAP5-1242
p1356
aVTAP5-1241
p1357
aVTAP5-1240
p1358
aVTAP5-1239
p1359
aVTAP5-1238
p1360
aVTAP5-1237
p1361
aVTAP5-1236
p1362
aVTAP5-1235
p1363
aVTAP5-1234
p1364
aVTAP5-1233
p1365
aVTAP5-1232
p1366
aVTAP5-1231
p1367
aVTAP5-1230
p1368
aVTAP5-1229
p1369
aVTAP5-1228
p1370
aVTAP5-1227
p1371
aVTAP5-1226
p1372
aVTAP5-1225
p1373
aVTAP5-1224
p1374
aVTAP5-1223
p1375
aVTAP5-1222
p1376
aVTAP5-1221
p1377
aVTAP5-1220
p1378
aVTAP5-1219
p1379
aVTAP5-1218
p1380
aVTAP5-1217
p1381
aVTAP5-1216
p1382
aVTAP5-1215
p1383
aVTAP5-1214
p1384
aVTAP5-1213
p1385
aVTAP5-1212
p1386
aVTAP5-1211
p1387
aVTAP5-1210
p1388
aVTAP5-1209
p1389
aVTAP5-1208
p1390
aVTAP5-1207
p1391
aVTAP5-1206
p1392
aVTAP5-1205
p1393
aVTAP5-1204
p1394
aVTAP5-1203
p1395
aVTAP5-1202
p1396
aVTAP5-1201
p1397
aVTAP5-1200
p1398
aVTAP5-1199
p1399
aVTAP5-1198
p1400
aVTAP5-1197
p1401
aVTAP5-1196
p1402
aVTAP5-1195
p1403
aVTAP5-1194
p1404
aVTAP5-1193
p1405
aVTAP5-1192
p1406
aVTAP5-1191
p1407
aVTAP5-1190
p1408
aVTAP5-1189
p1409
aVTAP5-1188
p1410
aVTAP5-1187
p1411
aVTAP5-1186
p1412
aVTAP5-1185
p1413
aVTAP5-1184
p1414
aVTAP5-1183
p1415
aVTAP5-1182
p1416
aVTAP5-1181
p1417
aVTAP5-1180
p1418
aVTAP5-1179
p1419
aVTAP5-1178
p1420
aVTAP5-1177
p1421
aVTAP5-1176
p1422
aVTAP5-1175
p1423
aVTAP5-1174
p1424
aVTAP5-1173
p1425
aVTAP5-1172
p1426
aVTAP5-1171
p1427
aVTAP5-1170
p1428
aVTAP5-1169
p1429
aVTAP5-1168
p1430
aVTAP5-1167
p1431
aVTAP5-1166
p1432
aVTAP5-1165
p1433
aVTAP5-1164
p1434
aVTAP5-1163
p1435
aVTAP5-1162
p1436
aVTAP5-1161
p1437
aVTAP5-1160
p1438
aVTAP5-1159
p1439
aVTAP5-1158
p1440
aVTAP5-1157
p1441
aVTAP5-1156
p1442
aVTAP5-1155
p1443
aVTAP5-1154
p1444
aVTAP5-1153
p1445
aVTAP5-1152
p1446
aVTAP5-1151
p1447
aVTAP5-1150
p1448
aVTAP5-1149
p1449
aVTAP5-1148
p1450
aVTAP5-1147
p1451
aVTAP5-1146
p1452
aVTAP5-1145
p1453
aVTAP5-1144
p1454
aVTAP5-1143
p1455
aVTAP5-1142
p1456
aVTAP5-1141
p1457
aVTAP5-1140
p1458
aVTAP5-1139
p1459
aVTAP5-1138
p1460
aVTAP5-1137
p1461
aVTAP5-1136
p1462
aVTAP5-1135
p1463
aVTAP5-1134
p1464
aVTAP5-1133
p1465
aVTAP5-1132
p1466
aVTAP5-1131
p1467
aVTAP5-1130
p1468
aVTAP5-1129
p1469
aVTAP5-1128
p1470
aVTAP5-1127
p1471
aVTAP5-1126
p1472
aVTAP5-1125
p1473
aVTAP5-1124
p1474
aVTAP5-1123
p1475
aVTAP5-1122
p1476
aVTAP5-1121
p1477
aVTAP5-1120
p1478
aVTAP5-1119
p1479
aVTAP5-1118
p1480
aVTAP5-1117
p1481
aVTAP5-1116
p1482
aVTAP5-1115
p1483
aVTAP5-1114
p1484
aVTAP5-1113
p1485
aVTAP5-1112
p1486
aVTAP5-1111
p1487
aVTAP5-1110
p1488
aVTAP5-1109
p1489
aVTAP5-1108
p1490
aVTAP5-1107
p1491
aVTAP5-1106
p1492
aVTAP5-1105
p1493
aVTAP5-1104
p1494
aVTAP5-1103
p1495
aVTAP5-1102
p1496
aVTAP5-1101
p1497
aVTAP5-1100
p1498
aVTAP5-1099
p1499
aVTAP5-1098
p1500
aVTAP5-1097
p1501
aVTAP5-1096
p1502
aVTAP5-1095
p1503
aVTAP5-1094
p1504
aVTAP5-1093
p1505
aVTAP5-1092
p1506
aVTAP5-1091
p1507
aVTAP5-1090
p1508
aVTAP5-1089
p1509
aVTAP5-1088
p1510
aVTAP5-1087
p1511
aVTAP5-1086
p1512
aVTAP5-1085
p1513
aVTAP5-1084
p1514
aVTAP5-1083
p1515
aVTAP5-1082
p1516
aVTAP5-1081
p1517
aVTAP5-1080
p1518
aVTAP5-1079
p1519
aVTAP5-1078
p1520
aVTAP5-1077
p1521
aVTAP5-1076
p1522
aVTAP5-1075
p1523
aVTAP5-1074
p1524
aVTAP5-1073
p1525
aVTAP5-1072
p1526
aVTAP5-1071
p1527
aVTAP5-1070
p1528
aVTAP5-1069
p1529
aVTAP5-1068
p1530
aVTAP5-1067
p1531
aVTAP5-1066
p1532
aVTAP5-1065
p1533
aVTAP5-1064
p1534
aVTAP5-1063
p1535
aVTAP5-1062
p1536
aVTAP5-1061
p1537
aVTAP5-1060
p1538
aVTAP5-1059
p1539
aVTAP5-1058
p1540
aVTAP5-1057
p1541
aVTAP5-1056
p1542
aVTAP5-1055
p1543
aVTAP5-1054
p1544
aVTAP5-1053
p1545
aVTAP5-1052
p1546
aVTAP5-1051
p1547
aVTAP5-1050
p1548
aVTAP5-1049
p1549
aVTAP5-1048
p1550
aVTAP5-1047
p1551
aVTAP5-1046
p1552
aVTAP5-1045
p1553
aVTAP5-1044
p1554
aVTAP5-1043
p1555
aVTAP5-1042
p1556
aVTAP5-1041
p1557
aVTAP5-1040
p1558
aVTAP5-1039
p1559
aVTAP5-1038
p1560
aVTAP5-1037
p1561
aVTAP5-1036
p1562
aVTAP5-1035
p1563
aVTAP5-1034
p1564
aVTAP5-1033
p1565
aVTAP5-1032
p1566
aVTAP5-1031
p1567
aVTAP5-1030
p1568
aVTAP5-1029
p1569
aVTAP5-1028
p1570
aVTAP5-1027
p1571
aVTAP5-1026
p1572
aVTAP5-1025
p1573
aVTAP5-1024
p1574
aVTAP5-1023
p1575
aVTAP5-1022
p1576
aVTAP5-1021
p1577
aVTAP5-1020
p1578
aVTAP5-1019
p1579
aVTAP5-1018
p1580
aVTAP5-1017
p1581
aVTAP5-1016
p1582
aVTAP5-1015
p1583
aVTAP5-1014
p1584
aVTAP5-1013
p1585
aVTAP5-1012
p1586
aVTAP5-1011
p1587
aVTAP5-1010
p1588
aVTAP5-1009
p1589
aVTAP5-1008
p1590
aVTAP5-1007
p1591
aVTAP5-1006
p1592
aVTAP5-1005
p1593
aVTAP5-1004
p1594
aVTAP5-1003
p1595
aVTAP5-1002
p1596
aVTAP5-1001
p1597
aVTAP5-1000
p1598
aVTAP5-999
p1599
aVTAP5-998
p1600
aVTAP5-997
p1601
aVTAP5-996
p1602
aVTAP5-995
p1603
aVTAP5-994
p1604
aVTAP5-993
p1605
aVTAP5-992
p1606
aVTAP5-991
p1607
aVTAP5-990
p1608
aVTAP5-989
p1609
aVTAP5-988
p1610
aVTAP5-987
p1611
aVTAP5-986
p1612
aVTAP5-985
p1613
aVTAP5-984
p1614
aVTAP5-983
p1615
aVTAP5-982
p1616
aVTAP5-981
p1617
aVTAP5-980
p1618
aVTAP5-979
p1619
aVTAP5-978
p1620
aVTAP5-977
p1621
aVTAP5-976
p1622
aVTAP5-975
p1623
aVTAP5-974
p1624
aVTAP5-973
p1625
aVTAP5-972
p1626
aVTAP5-971
p1627
aVTAP5-970
p1628
aVTAP5-969
p1629
aVTAP5-968
p1630
aVTAP5-967
p1631
aVTAP5-966
p1632
aVTAP5-965
p1633
aVTAP5-964
p1634
aVTAP5-963
p1635
aVTAP5-962
p1636
aVTAP5-961
p1637
aVTAP5-960
p1638
aVTAP5-959
p1639
aVTAP5-958
p1640
aVTAP5-957
p1641
aVTAP5-956
p1642
aVTAP5-955
p1643
aVTAP5-954
p1644
aVTAP5-953
p1645
aVTAP5-952
p1646
aVTAP5-951
p1647
aVTAP5-950
p1648
aVTAP5-949
p1649
aVTAP5-948
p1650
aVTAP5-947
p1651
aVTAP5-946
p1652
aVTAP5-945
p1653
aVTAP5-944
p1654
aVTAP5-943
p1655
aVTAP5-942
p1656
aVTAP5-941
p1657
aVTAP5-940
p1658
aVTAP5-939
p1659
aVTAP5-938
p1660
aVTAP5-937
p1661
aVTAP5-936
p1662
aVTAP5-935
p1663
aVTAP5-934
p1664
aVTAP5-933
p1665
aVTAP5-932
p1666
aVTAP5-931
p1667
aVTAP5-930
p1668
aVTAP5-929
p1669
aVTAP5-928
p1670
aVTAP5-927
p1671
aVTAP5-926
p1672
aVTAP5-925
p1673
aVTAP5-924
p1674
aVTAP5-923
p1675
aVTAP5-922
p1676
aVTAP5-921
p1677
aVTAP5-920
p1678
aVTAP5-919
p1679
aVTAP5-918
p1680
aVTAP5-917
p1681
aVTAP5-916
p1682
aVTAP5-915
p1683
aVTAP5-914
p1684
aVTAP5-913
p1685
aVTAP5-912
p1686
aVTAP5-911
p1687
aVTAP5-910
p1688
aVTAP5-909
p1689
aVTAP5-908
p1690
aVTAP5-907
p1691
aVTAP5-906
p1692
aVTAP5-905
p1693
aVTAP5-904
p1694
aVTAP5-903
p1695
aVTAP5-902
p1696
aVTAP5-901
p1697
aVTAP5-900
p1698
aVTAP5-899
p1699
aVTAP5-898
p1700
aVTAP5-897
p1701
aVTAP5-896
p1702
aVTAP5-895
p1703
aVTAP5-894
p1704
aVTAP5-893
p1705
aVTAP5-892
p1706
aVTAP5-891
p1707
aVTAP5-890
p1708
aVTAP5-889
p1709
aVTAP5-888
p1710
aVTAP5-887
p1711
aVTAP5-886
p1712
aVTAP5-885
p1713
aVTAP5-884
p1714
aVTAP5-883
p1715
aVTAP5-882
p1716
aVTAP5-881
p1717
aVTAP5-880
p1718
aVTAP5-879
p1719
aVTAP5-878
p1720
aVTAP5-877
p1721
aVTAP5-876
p1722
aVTAP5-875
p1723
aVTAP5-874
p1724
aVTAP5-873
p1725
aVTAP5-872
p1726
aVTAP5-871
p1727
aVTAP5-870
p1728
aVTAP5-869
p1729
aVTAP5-868
p1730
aVTAP5-867
p1731
aVTAP5-866
p1732
aVTAP5-865
p1733
aVTAP5-864
p1734
aVTAP5-863
p1735
aVTAP5-862
p1736
aVTAP5-861
p1737
aVTAP5-860
p1738
aVTAP5-859
p1739
aVTAP5-858
p1740
aVTAP5-857
p1741
aVTAP5-856
p1742
aVTAP5-855
p1743
aVTAP5-854
p1744
aVTAP5-853
p1745
aVTAP5-852
p1746
aVTAP5-851
p1747
aVTAP5-850
p1748
aVTAP5-849
p1749
aVTAP5-848
p1750
aVTAP5-847
p1751
aVTAP5-846
p1752
aVTAP5-845
p1753
aVTAP5-844
p1754
aVTAP5-843
p1755
aVTAP5-842
p1756
aVTAP5-841
p1757
aVTAP5-840
p1758
aVTAP5-839
p1759
aVTAP5-838
p1760
aVTAP5-837
p1761
aVTAP5-836
p1762
aVTAP5-835
p1763
aVTAP5-834
p1764
aVTAP5-833
p1765
aVTAP5-832
p1766
aVTAP5-831
p1767
aVTAP5-830
p1768
aVTAP5-829
p1769
aVTAP5-828
p1770
aVTAP5-827
p1771
aVTAP5-826
p1772
aVTAP5-825
p1773
aVTAP5-824
p1774
aVTAP5-823
p1775
aVTAP5-822
p1776
aVTAP5-821
p1777
aVTAP5-820
p1778
aVTAP5-819
p1779
aVTAP5-818
p1780
aVTAP5-817
p1781
aVTAP5-816
p1782
aVTAP5-815
p1783
aVTAP5-814
p1784
aVTAP5-813
p1785
aVTAP5-812
p1786
aVTAP5-811
p1787
aVTAP5-810
p1788
aVTAP5-809
p1789
aVTAP5-808
p1790
aVTAP5-807
p1791
aVTAP5-806
p1792
aVTAP5-805
p1793
aVTAP5-804
p1794
aVTAP5-803
p1795
aVTAP5-802
p1796
aVTAP5-801
p1797
aVTAP5-800
p1798
aVTAP5-799
p1799
aVTAP5-798
p1800
aVTAP5-797
p1801
aVTAP5-796
p1802
aVTAP5-795
p1803
aVTAP5-794
p1804
aVTAP5-793
p1805
aVTAP5-792
p1806
aVTAP5-791
p1807
aVTAP5-790
p1808
aVTAP5-789
p1809
aVTAP5-788
p1810
aVTAP5-787
p1811
aVTAP5-786
p1812
aVTAP5-785
p1813
aVTAP5-784
p1814
aVTAP5-783
p1815
aVTAP5-782
p1816
aVTAP5-781
p1817
aVTAP5-780
p1818
aVTAP5-779
p1819
aVTAP5-778
p1820
aVTAP5-777
p1821
aVTAP5-776
p1822
aVTAP5-775
p1823
aVTAP5-774
p1824
aVTAP5-773
p1825
aVTAP5-772
p1826
aVTAP5-771
p1827
aVTAP5-770
p1828
aVTAP5-769
p1829
aVTAP5-768
p1830
aVTAP5-767
p1831
aVTAP5-766
p1832
aVTAP5-765
p1833
aVTAP5-764
p1834
aVTAP5-763
p1835
aVTAP5-762
p1836
aVTAP5-761
p1837
aVTAP5-760
p1838
aVTAP5-759
p1839
aVTAP5-758
p1840
aVTAP5-757
p1841
aVTAP5-756
p1842
aVTAP5-755
p1843
aVTAP5-754
p1844
aVTAP5-753
p1845
aVTAP5-752
p1846
aVTAP5-751
p1847
aVTAP5-750
p1848
aVTAP5-749
p1849
aVTAP5-748
p1850
aVTAP5-747
p1851
aVTAP5-746
p1852
aVTAP5-745
p1853
aVTAP5-744
p1854
aVTAP5-743
p1855
aVTAP5-742
p1856
aVTAP5-741
p1857
aVTAP5-740
p1858
aVTAP5-739
p1859
aVTAP5-738
p1860
aVTAP5-737
p1861
aVTAP5-736
p1862
aVTAP5-735
p1863
aVTAP5-734
p1864
aVTAP5-733
p1865
aVTAP5-732
p1866
aVTAP5-731
p1867
aVTAP5-730
p1868
aVTAP5-729
p1869
aVTAP5-728
p1870
aVTAP5-727
p1871
aVTAP5-726
p1872
aVTAP5-725
p1873
aVTAP5-724
p1874
aVTAP5-723
p1875
aVTAP5-722
p1876
aVTAP5-721
p1877
aVTAP5-720
p1878
aVTAP5-719
p1879
aVTAP5-718
p1880
aVTAP5-717
p1881
aVTAP5-716
p1882
aVTAP5-715
p1883
aVTAP5-714
p1884
aVTAP5-713
p1885
aVTAP5-712
p1886
aVTAP5-711
p1887
aVTAP5-710
p1888
aVTAP5-709
p1889
aVTAP5-708
p1890
aVTAP5-707
p1891
aVTAP5-706
p1892
aVTAP5-705
p1893
aVTAP5-704
p1894
aVTAP5-703
p1895
aVTAP5-702
p1896
aVTAP5-701
p1897
aVTAP5-700
p1898
aVTAP5-699
p1899
aVTAP5-698
p1900
aVTAP5-697
p1901
aVTAP5-696
p1902
aVTAP5-695
p1903
aVTAP5-694
p1904
aVTAP5-693
p1905
aVTAP5-692
p1906
aVTAP5-691
p1907
aVTAP5-690
p1908
aVTAP5-689
p1909
aVTAP5-688
p1910
aVTAP5-687
p1911
aVTAP5-686
p1912
aVTAP5-685
p1913
aVTAP5-684
p1914
aVTAP5-683
p1915
aVTAP5-682
p1916
aVTAP5-681
p1917
aVTAP5-680
p1918
aVTAP5-679
p1919
aVTAP5-678
p1920
aVTAP5-677
p1921
aVTAP5-676
p1922
aVTAP5-675
p1923
aVTAP5-674
p1924
aVTAP5-673
p1925
aVTAP5-672
p1926
aVTAP5-671
p1927
aVTAP5-670
p1928
aVTAP5-669
p1929
aVTAP5-668
p1930
aVTAP5-667
p1931
aVTAP5-666
p1932
aVTAP5-665
p1933
aVTAP5-664
p1934
aVTAP5-663
p1935
aVTAP5-662
p1936
aVTAP5-661
p1937
aVTAP5-660
p1938
aVTAP5-659
p1939
aVTAP5-658
p1940
aVTAP5-657
p1941
aVTAP5-656
p1942
aVTAP5-655
p1943
aVTAP5-654
p1944
aVTAP5-653
p1945
aVTAP5-652
p1946
aVTAP5-651
p1947
aVTAP5-650
p1948
aVTAP5-649
p1949
aVTAP5-648
p1950
aVTAP5-647
p1951
aVTAP5-646
p1952
aVTAP5-645
p1953
aVTAP5-644
p1954
aVTAP5-643
p1955
aVTAP5-642
p1956
aVTAP5-641
p1957
aVTAP5-640
p1958
aVTAP5-639
p1959
aVTAP5-638
p1960
aVTAP5-637
p1961
aVTAP5-636
p1962
aVTAP5-635
p1963
aVTAP5-634
p1964
aVTAP5-633
p1965
aVTAP5-632
p1966
aVTAP5-631
p1967
aVTAP5-630
p1968
aVTAP5-629
p1969
aVTAP5-628
p1970
aVTAP5-627
p1971
aVTAP5-626
p1972
aVTAP5-625
p1973
aVTAP5-624
p1974
aVTAP5-623
p1975
aVTAP5-622
p1976
aVTAP5-621
p1977
aVTAP5-620
p1978
aVTAP5-619
p1979
aVTAP5-618
p1980
aVTAP5-617
p1981
aVTAP5-616
p1982
aVTAP5-615
p1983
aVTAP5-614
p1984
aVTAP5-613
p1985
aVTAP5-612
p1986
aVTAP5-611
p1987
aVTAP5-610
p1988
aVTAP5-609
p1989
aVTAP5-608
p1990
aVTAP5-607
p1991
aVTAP5-606
p1992
aVTAP5-605
p1993
aVTAP5-604
p1994
aVTAP5-603
p1995
aVTAP5-602
p1996
aVTAP5-601
p1997
aVTAP5-600
p1998
aVTAP5-599
p1999
aVTAP5-598
p2000
aVTAP5-597
p2001
aVTAP5-596
p2002
aVTAP5-595
p2003
aVTAP5-594
p2004
aVTAP5-593
p2005
aVTAP5-592
p2006
aVTAP5-591
p2007
aVTAP5-590
p2008
aVTAP5-589
p2009
aVTAP5-588
p2010
aVTAP5-587
p2011
aVTAP5-586
p2012
aVTAP5-585
p2013
aVTAP5-584
p2014
aVTAP5-583
p2015
aVTAP5-582
p2016
aVTAP5-581
p2017
aVTAP5-580
p2018
aVTAP5-579
p2019
aVTAP5-578
p2020
aVTAP5-577
p2021
aVTAP5-576
p2022
aVTAP5-575
p2023
aVTAP5-574
p2024
aVTAP5-573
p2025
aVTAP5-572
p2026
aVTAP5-571
p2027
aVTAP5-570
p2028
aVTAP5-569
p2029
aVTAP5-567
p2030
aVTAP5-566
p2031
aVTAP5-565
p2032
aVTAP5-564
p2033
aVTAP5-563
p2034
aVTAP5-562
p2035
aVTAP5-561
p2036
aVTAP5-560
p2037
aVTAP5-559
p2038
aVTAP5-558
p2039
aVTAP5-557
p2040
aVTAP5-556
p2041
aVTAP5-555
p2042
aVTAP5-554
p2043
aVTAP5-553
p2044
aVTAP5-552
p2045
aVTAP5-551
p2046
aVTAP5-550
p2047
aVTAP5-549
p2048
aVTAP5-548
p2049
aVTAP5-547
p2050
aVTAP5-546
p2051
aVTAP5-545
p2052
aVTAP5-544
p2053
aVTAP5-543
p2054
aVTAP5-542
p2055
aVTAP5-541
p2056
aVTAP5-540
p2057
aVTAP5-539
p2058
aVTAP5-538
p2059
aVTAP5-537
p2060
aVTAP5-536
p2061
aVTAP5-535
p2062
aVTAP5-534
p2063
aVTAP5-533
p2064
aVTAP5-532
p2065
aVTAP5-531
p2066
aVTAP5-530
p2067
aVTAP5-529
p2068
aVTAP5-528
p2069
aVTAP5-527
p2070
aVTAP5-526
p2071
aVTAP5-525
p2072
aVTAP5-524
p2073
aVTAP5-523
p2074
aVTAP5-522
p2075
aVTAP5-521
p2076
aVTAP5-520
p2077
aVTAP5-519
p2078
aVTAP5-518
p2079
aVTAP5-517
p2080
aVTAP5-516
p2081
aVTAP5-515
p2082
aVTAP5-514
p2083
aVTAP5-513
p2084
aVTAP5-512
p2085
aVTAP5-511
p2086
aVTAP5-510
p2087
aVTAP5-509
p2088
aVTAP5-508
p2089
aVTAP5-507
p2090
aVTAP5-506
p2091
aVTAP5-505
p2092
aVTAP5-504
p2093
aVTAP5-503
p2094
aVTAP5-502
p2095
aVTAP5-501
p2096
aVTAP5-500
p2097
aVTAP5-499
p2098
aVTAP5-498
p2099
aVTAP5-497
p2100
aVTAP5-496
p2101
aVTAP5-495
p2102
aVTAP5-494
p2103
aVTAP5-493
p2104
aVTAP5-492
p2105
aVTAP5-491
p2106
aVTAP5-490
p2107
aVTAP5-489
p2108
aVTAP5-488
p2109
aVTAP5-487
p2110
aVTAP5-486
p2111
aVTAP5-485
p2112
aVTAP5-484
p2113
aVTAP5-483
p2114
aVTAP5-482
p2115
aVTAP5-481
p2116
aVTAP5-480
p2117
aVTAP5-479
p2118
aVTAP5-478
p2119
aVTAP5-477
p2120
aVTAP5-476
p2121
aVTAP5-475
p2122
aVTAP5-474
p2123
aVTAP5-473
p2124
aVTAP5-472
p2125
aVTAP5-471
p2126
aVTAP5-470
p2127
aVTAP5-469
p2128
aVTAP5-468
p2129
aVTAP5-467
p2130
aVTAP5-466
p2131
aVTAP5-465
p2132
aVTAP5-464
p2133
aVTAP5-463
p2134
aVTAP5-462
p2135
aVTAP5-461
p2136
aVTAP5-460
p2137
aVTAP5-459
p2138
aVTAP5-458
p2139
aVTAP5-457
p2140
aVTAP5-456
p2141
aVTAP5-455
p2142
aVTAP5-454
p2143
aVTAP5-453
p2144
aVTAP5-452
p2145
aVTAP5-451
p2146
aVTAP5-450
p2147
aVTAP5-449
p2148
aVTAP5-448
p2149
aVTAP5-447
p2150
aVTAP5-446
p2151
aVTAP5-445
p2152
aVTAP5-444
p2153
aVTAP5-443
p2154
aVTAP5-442
p2155
aVTAP5-441
p2156
aVTAP5-440
p2157
aVTAP5-439
p2158
aVTAP5-438
p2159
aVTAP5-437
p2160
aVTAP5-436
p2161
aVTAP5-435
p2162
aVTAP5-434
p2163
aVTAP5-433
p2164
aVTAP5-432
p2165
aVTAP5-431
p2166
aVTAP5-430
p2167
aVTAP5-429
p2168
aVTAP5-428
p2169
aVTAP5-427
p2170
aVTAP5-426
p2171
aVTAP5-425
p2172
aVTAP5-424
p2173
aVTAP5-423
p2174
aVTAP5-422
p2175
aVTAP5-421
p2176
aVTAP5-420
p2177
aVTAP5-419
p2178
aVTAP5-418
p2179
aVTAP5-417
p2180
aVTAP5-416
p2181
aVTAP5-415
p2182
aVTAP5-414
p2183
aVTAP5-413
p2184
aVTAP5-412
p2185
aVTAP5-411
p2186
aVTAP5-410
p2187
aVTAP5-409
p2188
aVTAP5-408
p2189
aVTAP5-407
p2190
aVTAP5-406
p2191
aVTAP5-405
p2192
aVTAP5-404
p2193
aVTAP5-403
p2194
aVTAP5-402
p2195
aVTAP5-401
p2196
aVTAP5-400
p2197
aVTAP5-399
p2198
aVTAP5-398
p2199
aVTAP5-397
p2200
aVTAP5-396
p2201
aVTAP5-395
p2202
aVTAP5-394
p2203
aVTAP5-393
p2204
aVTAP5-392
p2205
aVTAP5-391
p2206
aVTAP5-390
p2207
aVTAP5-389
p2208
aVTAP5-388
p2209
aVTAP5-387
p2210
aVTAP5-386
p2211
aVTAP5-385
p2212
aVTAP5-384
p2213
aVTAP5-383
p2214
aVTAP5-382
p2215
aVTAP5-381
p2216
aVTAP5-380
p2217
aVTAP5-379
p2218
aVTAP5-378
p2219
aVTAP5-377
p2220
aVTAP5-376
p2221
aVTAP5-375
p2222
aVTAP5-374
p2223
aVTAP5-373
p2224
aVTAP5-372
p2225
aVTAP5-371
p2226
aVTAP5-370
p2227
aVTAP5-369
p2228
aVTAP5-368
p2229
aVTAP5-367
p2230
aVTAP5-366
p2231
aVTAP5-365
p2232
aVTAP5-364
p2233
aVTAP5-363
p2234
aVTAP5-362
p2235
aVTAP5-361
p2236
aVTAP5-360
p2237
aVTAP5-359
p2238
aVTAP5-358
p2239
aVTAP5-357
p2240
aVTAP5-356
p2241
aVTAP5-355
p2242
aVTAP5-354
p2243
aVTAP5-353
p2244
aVTAP5-352
p2245
aVTAP5-351
p2246
aVTAP5-350
p2247
aVTAP5-349
p2248
aVTAP5-348
p2249
aVTAP5-347
p2250
aVTAP5-346
p2251
aVTAP5-345
p2252
aVTAP5-344
p2253
aVTAP5-343
p2254
aVTAP5-342
p2255
aVTAP5-341
p2256
aVTAP5-340
p2257
aVTAP5-339
p2258
aVTAP5-338
p2259
aVTAP5-337
p2260
aVTAP5-336
p2261
aVTAP5-335
p2262
aVTAP5-334
p2263
aVTAP5-333
p2264
aVTAP5-332
p2265
aVTAP5-331
p2266
aVTAP5-330
p2267
aVTAP5-329
p2268
aVTAP5-328
p2269
aVTAP5-327
p2270
aVTAP5-326
p2271
aVTAP5-325
p2272
aVTAP5-324
p2273
aVTAP5-323
p2274
aVTAP5-322
p2275
aVTAP5-321
p2276
aVTAP5-320
p2277
aVTAP5-319
p2278
aVTAP5-318
p2279
aVTAP5-317
p2280
aVTAP5-316
p2281
aVTAP5-315
p2282
aVTAP5-314
p2283
aVTAP5-313
p2284
aVTAP5-312
p2285
aVTAP5-311
p2286
aVTAP5-310
p2287
aVTAP5-309
p2288
aVTAP5-308
p2289
aVTAP5-307
p2290
aVTAP5-306
p2291
aVTAP5-305
p2292
aVTAP5-304
p2293
aVTAP5-303
p2294
aVTAP5-302
p2295
aVTAP5-301
p2296
aVTAP5-300
p2297
aVTAP5-299
p2298
aVTAP5-298
p2299
aVTAP5-297
p2300
aVTAP5-296
p2301
aVTAP5-295
p2302
aVTAP5-294
p2303
aVTAP5-293
p2304
aVTAP5-292
p2305
aVTAP5-291
p2306
aVTAP5-290
p2307
aVTAP5-289
p2308
aVTAP5-288
p2309
aVTAP5-287
p2310
aVTAP5-286
p2311
aVTAP5-285
p2312
aVTAP5-284
p2313
aVTAP5-283
p2314
aVTAP5-282
p2315
aVTAP5-281
p2316
aVTAP5-280
p2317
aVTAP5-279
p2318
aVTAP5-278
p2319
aVTAP5-277
p2320
aVTAP5-276
p2321
aVTAP5-275
p2322
aVTAP5-274
p2323
aVTAP5-273
p2324
aVTAP5-272
p2325
aVTAP5-271
p2326
aVTAP5-270
p2327
aVTAP5-269
p2328
aVTAP5-268
p2329
aVTAP5-267
p2330
aVTAP5-266
p2331
aVTAP5-265
p2332
aVTAP5-264
p2333
aVTAP5-263
p2334
aVTAP5-262
p2335
aVTAP5-261
p2336
aVTAP5-260
p2337
aVTAP5-259
p2338
aVTAP5-258
p2339
aVTAP5-257
p2340
aVTAP5-256
p2341
aVTAP5-255
p2342
aVTAP5-254
p2343
aVTAP5-253
p2344
aVTAP5-252
p2345
aVTAP5-251
p2346
aVTAP5-250
p2347
aVTAP5-249
p2348
aVTAP5-248
p2349
aVTAP5-247
p2350
aVTAP5-246
p2351
aVTAP5-245
p2352
aVTAP5-244
p2353
aVTAP5-243
p2354
aVTAP5-242
p2355
aVTAP5-241
p2356
aVTAP5-240
p2357
aVTAP5-239
p2358
aVTAP5-238
p2359
aVTAP5-237
p2360
aVTAP5-236
p2361
aVTAP5-235
p2362
aVTAP5-234
p2363
aVTAP5-233
p2364
aVTAP5-232
p2365
aVTAP5-231
p2366
aVTAP5-230
p2367
aVTAP5-229
p2368
aVTAP5-228
p2369
aVTAP5-227
p2370
aVTAP5-226
p2371
aVTAP5-225
p2372
aVTAP5-224
p2373
aVTAP5-223
p2374
aVTAP5-222
p2375
aVTAP5-221
p2376
aVTAP5-220
p2377
aVTAP5-219
p2378
aVTAP5-218
p2379
aVTAP5-217
p2380
aVTAP5-216
p2381
aVTAP5-215
p2382
aVTAP5-214
p2383
aVTAP5-213
p2384
aVTAP5-212
p2385
aVTAP5-211
p2386
aVTAP5-210
p2387
aVTAP5-209
p2388
aVTAP5-208
p2389
aVTAP5-207
p2390
aVTAP5-206
p2391
aVTAP5-205
p2392
aVTAP5-204
p2393
aVTAP5-203
p2394
aVTAP5-202
p2395
aVTAP5-201
p2396
aVTAP5-200
p2397
aVTAP5-199
p2398
aVTAP5-198
p2399
aVTAP5-197
p2400
aVTAP5-196
p2401
aVTAP5-195
p2402
aVTAP5-194
p2403
aVTAP5-193
p2404
aVTAP5-192
p2405
aVTAP5-191
p2406
aVTAP5-190
p2407
aVTAP5-189
p2408
aVTAP5-188
p2409
aVTAP5-187
p2410
aVTAP5-186
p2411
aVTAP5-185
p2412
aVTAP5-184
p2413
aVTAP5-183
p2414
aVTAP5-182
p2415
aVTAP5-181
p2416
aVTAP5-180
p2417
aVTAP5-179
p2418
aVTAP5-178
p2419
aVTAP5-177
p2420
aVTAP5-176
p2421
aVTAP5-175
p2422
aVTAP5-174
p2423
aVTAP5-173
p2424
aVTAP5-172
p2425
aVTAP5-171
p2426
aVTAP5-170
p2427
aVTAP5-169
p2428
aVTAP5-168
p2429
aVTAP5-167
p2430
aVTAP5-166
p2431
aVTAP5-165
p2432
aVTAP5-164
p2433
aVTAP5-163
p2434
aVTAP5-162
p2435
aVTAP5-161
p2436
aVTAP5-160
p2437
aVTAP5-159
p2438
aVTAP5-158
p2439
aVTAP5-157
p2440
aVTAP5-156
p2441
aVTAP5-155
p2442
aVTAP5-154
p2443
aVTAP5-153
p2444
aVTAP5-152
p2445
aVTAP5-151
p2446
aVTAP5-150
p2447
aVTAP5-149
p2448
aVTAP5-148
p2449
aVTAP5-147
p2450
aVTAP5-146
p2451
aVTAP5-145
p2452
aVTAP5-144
p2453
aVTAP5-143
p2454
aVTAP5-142
p2455
aVTAP5-141
p2456
aVTAP5-140
p2457
aVTAP5-139
p2458
aVTAP5-138
p2459
aVTAP5-137
p2460
aVTAP5-136
p2461
aVTAP5-135
p2462
aVTAP5-134
p2463
aVTAP5-133
p2464
aVTAP5-132
p2465
aVTAP5-131
p2466
aVTAP5-130
p2467
aVTAP5-129
p2468
aVTAP5-128
p2469
aVTAP5-127
p2470
aVTAP5-126
p2471
aVTAP5-125
p2472
aVTAP5-124
p2473
aVTAP5-123
p2474
aVTAP5-122
p2475
aVTAP5-121
p2476
aVTAP5-120
p2477
aVTAP5-119
p2478
aVTAP5-118
p2479
aVTAP5-117
p2480
aVTAP5-116
p2481
aVTAP5-115
p2482
aVTAP5-114
p2483
aVTAP5-113
p2484
aVTAP5-112
p2485
aVTAP5-111
p2486
aVTAP5-110
p2487
aVTAP5-109
p2488
aVTAP5-108
p2489
aVTAP5-107
p2490
aVTAP5-106
p2491
aVTAP5-105
p2492
aVTAP5-104
p2493
aVTAP5-103
p2494
aVTAP5-102
p2495
aVTAP5-101
p2496
aVTAP5-100
p2497
aVTAP5-99
p2498
aVTAP5-98
p2499
aVTAP5-97
p2500
aVTAP5-96
p2501
aVTAP5-95
p2502
aVTAP5-94
p2503
aVTAP5-93
p2504
aVTAP5-92
p2505
aVTAP5-91
p2506
aVTAP5-90
p2507
aVTAP5-89
p2508
aVTAP5-88
p2509
aVTAP5-87
p2510
aVTAP5-86
p2511
aVTAP5-85
p2512
aVTAP5-84
p2513
aVTAP5-83
p2514
aVTAP5-82
p2515
aVTAP5-81
p2516
aVTAP5-80
p2517
aVTAP5-79
p2518
aVTAP5-78
p2519
aVTAP5-77
p2520
aVTAP5-76
p2521
aVTAP5-75
p2522
aVTAP5-74
p2523
aVTAP5-73
p2524
aVTAP5-72
p2525
aVTAP5-71
p2526
aVTAP5-70
p2527
aVTAP5-69
p2528
aVTAP5-68
p2529
aVTAP5-67
p2530
aVTAP5-66
p2531
aVTAP5-65
p2532
aVTAP5-64
p2533
aVTAP5-63
p2534
aVTAP5-62
p2535
aVTAP5-61
p2536
aVTAP5-60
p2537
aVTAP5-59
p2538
aVTAP5-58
p2539
aVTAP5-57
p2540
aVTAP5-56
p2541
aVTAP5-55
p2542
aVTAP5-54
p2543
aVTAP5-53
p2544
aVTAP5-52
p2545
aVTAP5-51
p2546
aVTAP5-50
p2547
aVTAP5-49
p2548
aVTAP5-48
p2549
aVTAP5-47
p2550
aVTAP5-46
p2551
aVTAP5-45
p2552
aVTAP5-44
p2553
aVTAP5-43
p2554
aVTAP5-42
p2555
aVTAP5-41
p2556
aVTAP5-40
p2557
aVTAP5-39
p2558
aVTAP5-38
p2559
aVTAP5-37
p2560
aVTAP5-36
p2561
aVTAP5-35
p2562
aVTAP5-34
p2563
aVTAP5-33
p2564
aVTAP5-32
p2565
aVTAP5-31
p2566
aVTAP5-30
p2567
aVTAP5-29
p2568
aVTAP5-28
p2569
aVTAP5-27
p2570
aVTAP5-26
p2571
aVTAP5-25
p2572
aVTAP5-24
p2573
aVTAP5-23
p2574
aVTAP5-22
p2575
aVTAP5-21
p2576
aVTAP5-20
p2577
aVTAP5-19
p2578
aVTAP5-18
p2579
aVTAP5-17
p2580
aVTAP5-16
p2581
aVTAP5-15
p2582
aVTAP5-14
p2583
aVTAP5-13
p2584
aVTAP5-12
p2585
aVTAP5-11
p2586
aVTAP5-10
p2587
aVTAP5-9
p2588
aVTAP5-8
p2589
aVTAP5-7
p2590
aVTAP5-6
p2591
aVTAP5-5
p2592
aVTAP5-4
p2593
aVTAP5-3
p2594
aVTAP5-2
p2595
aVTAP5-1
p2596
a.