(lp0
VTEXT-131
p1
aVTEXT-130
p2
aVTEXT-129
p3
aVTEXT-128
p4
aVTEXT-127
p5
aVTEXT-126
p6
aVTEXT-125
p7
aVTEXT-124
p8
aVTEXT-123
p9
aVTEXT-122
p10
aVTEXT-121
p11
aVTEXT-120
p12
aVTEXT-119
p13
aVTEXT-118
p14
aVTEXT-117
p15
aVTEXT-116
p16
aVTEXT-115
p17
aVTEXT-114
p18
aVTEXT-113
p19
aVTEXT-112
p20
aVTEXT-111
p21
aVTEXT-110
p22
aVTEXT-109
p23
aVTEXT-108
p24
aVTEXT-107
p25
aVTEXT-106
p26
aVTEXT-105
p27
aVTEXT-104
p28
aVTEXT-103
p29
aVTEXT-102
p30
aVTEXT-101
p31
aVTEXT-100
p32
aVTEXT-99
p33
aVTEXT-98
p34
aVTEXT-97
p35
aVTEXT-96
p36
aVTEXT-95
p37
aVTEXT-94
p38
aVTEXT-93
p39
aVTEXT-92
p40
aVTEXT-91
p41
aVTEXT-90
p42
aVTEXT-89
p43
aVTEXT-88
p44
aVTEXT-87
p45
aVTEXT-86
p46
aVTEXT-85
p47
aVTEXT-84
p48
aVTEXT-83
p49
aVTEXT-82
p50
aVTEXT-81
p51
aVTEXT-80
p52
aVTEXT-79
p53
aVTEXT-78
p54
aVTEXT-77
p55
aVTEXT-76
p56
aVTEXT-75
p57
aVTEXT-74
p58
aVTEXT-73
p59
aVTEXT-72
p60
aVTEXT-71
p61
aVTEXT-70
p62
aVTEXT-69
p63
aVTEXT-68
p64
aVTEXT-67
p65
aVTEXT-66
p66
aVTEXT-65
p67
aVTEXT-64
p68
aVTEXT-63
p69
aVTEXT-62
p70
aVTEXT-61
p71
aVTEXT-60
p72
aVTEXT-59
p73
aVTEXT-58
p74
aVTEXT-57
p75
aVTEXT-56
p76
aVTEXT-55
p77
aVTEXT-54
p78
aVTEXT-53
p79
aVTEXT-52
p80
aVTEXT-51
p81
aVTEXT-50
p82
aVTEXT-49
p83
aVTEXT-48
p84
aVTEXT-47
p85
aVTEXT-46
p86
aVTEXT-45
p87
aVTEXT-44
p88
aVTEXT-43
p89
aVTEXT-42
p90
aVTEXT-41
p91
aVTEXT-40
p92
aVTEXT-39
p93
aVTEXT-38
p94
aVTEXT-37
p95
aVTEXT-36
p96
aVTEXT-35
p97
aVTEXT-34
p98
aVTEXT-33
p99
aVTEXT-32
p100
aVTEXT-31
p101
aVTEXT-30
p102
aVTEXT-29
p103
aVTEXT-28
p104
aVTEXT-27
p105
aVTEXT-26
p106
aVTEXT-25
p107
aVTEXT-24
p108
aVTEXT-23
p109
aVTEXT-22
p110
aVTEXT-21
p111
aVTEXT-20
p112
aVTEXT-19
p113
aVTEXT-16
p114
aVTEXT-15
p115
aVTEXT-14
p116
aVTEXT-13
p117
aVTEXT-12
p118
aVTEXT-11
p119
aVTEXT-10
p120
aVTEXT-9
p121
aVTEXT-8
p122
aVTEXT-7
p123
aVTEXT-6
p124
aVTEXT-5
p125
aVTEXT-4
p126
aVTEXT-3
p127
aVTEXT-2
p128
aVTEXT-1
p129
a.