(lp0
VTEZ-3974
p1
aVTEZ-3973
p2
aVTEZ-3972
p3
aVTEZ-3971
p4
aVTEZ-3970
p5
aVTEZ-3969
p6
aVTEZ-3968
p7
aVTEZ-3967
p8
aVTEZ-3966
p9
aVTEZ-3965
p10
aVTEZ-3964
p11
aVTEZ-3963
p12
aVTEZ-3962
p13
aVTEZ-3961
p14
aVTEZ-3960
p15
aVTEZ-3959
p16
aVTEZ-3958
p17
aVTEZ-3957
p18
aVTEZ-3956
p19
aVTEZ-3955
p20
aVTEZ-3954
p21
aVTEZ-3953
p22
aVTEZ-3952
p23
aVTEZ-3951
p24
aVTEZ-3950
p25
aVTEZ-3949
p26
aVTEZ-3948
p27
aVTEZ-3947
p28
aVTEZ-3946
p29
aVTEZ-3945
p30
aVTEZ-3944
p31
aVTEZ-3943
p32
aVTEZ-3942
p33
aVTEZ-3941
p34
aVTEZ-3940
p35
aVTEZ-3939
p36
aVTEZ-3938
p37
aVTEZ-3937
p38
aVTEZ-3936
p39
aVTEZ-3935
p40
aVTEZ-3934
p41
aVTEZ-3933
p42
aVTEZ-3932
p43
aVTEZ-3931
p44
aVTEZ-3930
p45
aVTEZ-3929
p46
aVTEZ-3928
p47
aVTEZ-3927
p48
aVTEZ-3926
p49
aVTEZ-3925
p50
aVTEZ-3924
p51
aVTEZ-3923
p52
aVTEZ-3922
p53
aVTEZ-3921
p54
aVTEZ-3920
p55
aVTEZ-3919
p56
aVTEZ-3918
p57
aVTEZ-3917
p58
aVTEZ-3916
p59
aVTEZ-3915
p60
aVTEZ-3914
p61
aVTEZ-3913
p62
aVTEZ-3912
p63
aVTEZ-3911
p64
aVTEZ-3910
p65
aVTEZ-3909
p66
aVTEZ-3908
p67
aVTEZ-3907
p68
aVTEZ-3906
p69
aVTEZ-3905
p70
aVTEZ-3904
p71
aVTEZ-3903
p72
aVTEZ-3902
p73
aVTEZ-3901
p74
aVTEZ-3900
p75
aVTEZ-3899
p76
aVTEZ-3898
p77
aVTEZ-3897
p78
aVTEZ-3896
p79
aVTEZ-3895
p80
aVTEZ-3894
p81
aVTEZ-3893
p82
aVTEZ-3892
p83
aVTEZ-3891
p84
aVTEZ-3890
p85
aVTEZ-3889
p86
aVTEZ-3888
p87
aVTEZ-3887
p88
aVTEZ-3886
p89
aVTEZ-3885
p90
aVTEZ-3884
p91
aVTEZ-3883
p92
aVTEZ-3882
p93
aVTEZ-3881
p94
aVTEZ-3880
p95
aVTEZ-3879
p96
aVTEZ-3878
p97
aVTEZ-3877
p98
aVTEZ-3876
p99
aVTEZ-3875
p100
aVTEZ-3874
p101
aVTEZ-3873
p102
aVTEZ-3872
p103
aVTEZ-3870
p104
aVTEZ-3869
p105
aVTEZ-3868
p106
aVTEZ-3867
p107
aVTEZ-3866
p108
aVTEZ-3865
p109
aVTEZ-3864
p110
aVTEZ-3863
p111
aVTEZ-3862
p112
aVTEZ-3861
p113
aVTEZ-3860
p114
aVTEZ-3859
p115
aVTEZ-3858
p116
aVTEZ-3857
p117
aVTEZ-3856
p118
aVTEZ-3855
p119
aVTEZ-3854
p120
aVTEZ-3853
p121
aVTEZ-3852
p122
aVTEZ-3851
p123
aVTEZ-3850
p124
aVTEZ-3849
p125
aVTEZ-3848
p126
aVTEZ-3847
p127
aVTEZ-3846
p128
aVTEZ-3845
p129
aVTEZ-3844
p130
aVTEZ-3843
p131
aVTEZ-3842
p132
aVTEZ-3841
p133
aVTEZ-3840
p134
aVTEZ-3839
p135
aVTEZ-3838
p136
aVTEZ-3837
p137
aVTEZ-3836
p138
aVTEZ-3835
p139
aVTEZ-3834
p140
aVTEZ-3833
p141
aVTEZ-3832
p142
aVTEZ-3831
p143
aVTEZ-3830
p144
aVTEZ-3829
p145
aVTEZ-3828
p146
aVTEZ-3827
p147
aVTEZ-3826
p148
aVTEZ-3825
p149
aVTEZ-3824
p150
aVTEZ-3823
p151
aVTEZ-3822
p152
aVTEZ-3821
p153
aVTEZ-3820
p154
aVTEZ-3819
p155
aVTEZ-3818
p156
aVTEZ-3817
p157
aVTEZ-3816
p158
aVTEZ-3815
p159
aVTEZ-3814
p160
aVTEZ-3813
p161
aVTEZ-3812
p162
aVTEZ-3811
p163
aVTEZ-3810
p164
aVTEZ-3809
p165
aVTEZ-3808
p166
aVTEZ-3807
p167
aVTEZ-3806
p168
aVTEZ-3805
p169
aVTEZ-3804
p170
aVTEZ-3803
p171
aVTEZ-3802
p172
aVTEZ-3801
p173
aVTEZ-3800
p174
aVTEZ-3799
p175
aVTEZ-3798
p176
aVTEZ-3797
p177
aVTEZ-3796
p178
aVTEZ-3795
p179
aVTEZ-3794
p180
aVTEZ-3793
p181
aVTEZ-3792
p182
aVTEZ-3791
p183
aVTEZ-3790
p184
aVTEZ-3789
p185
aVTEZ-3788
p186
aVTEZ-3787
p187
aVTEZ-3786
p188
aVTEZ-3785
p189
aVTEZ-3784
p190
aVTEZ-3783
p191
aVTEZ-3782
p192
aVTEZ-3781
p193
aVTEZ-3780
p194
aVTEZ-3779
p195
aVTEZ-3778
p196
aVTEZ-3777
p197
aVTEZ-3776
p198
aVTEZ-3775
p199
aVTEZ-3774
p200
aVTEZ-3773
p201
aVTEZ-3772
p202
aVTEZ-3771
p203
aVTEZ-3770
p204
aVTEZ-3769
p205
aVTEZ-3768
p206
aVTEZ-3767
p207
aVTEZ-3766
p208
aVTEZ-3765
p209
aVTEZ-3764
p210
aVTEZ-3763
p211
aVTEZ-3762
p212
aVTEZ-3761
p213
aVTEZ-3760
p214
aVTEZ-3759
p215
aVTEZ-3758
p216
aVTEZ-3757
p217
aVTEZ-3756
p218
aVTEZ-3755
p219
aVTEZ-3754
p220
aVTEZ-3753
p221
aVTEZ-3752
p222
aVTEZ-3751
p223
aVTEZ-3750
p224
aVTEZ-3749
p225
aVTEZ-3748
p226
aVTEZ-3747
p227
aVTEZ-3746
p228
aVTEZ-3745
p229
aVTEZ-3744
p230
aVTEZ-3743
p231
aVTEZ-3742
p232
aVTEZ-3741
p233
aVTEZ-3740
p234
aVTEZ-3739
p235
aVTEZ-3738
p236
aVTEZ-3737
p237
aVTEZ-3736
p238
aVTEZ-3735
p239
aVTEZ-3734
p240
aVTEZ-3733
p241
aVTEZ-3732
p242
aVTEZ-3731
p243
aVTEZ-3730
p244
aVTEZ-3729
p245
aVTEZ-3728
p246
aVTEZ-3727
p247
aVTEZ-3726
p248
aVTEZ-3725
p249
aVTEZ-3724
p250
aVTEZ-3723
p251
aVTEZ-3722
p252
aVTEZ-3721
p253
aVTEZ-3720
p254
aVTEZ-3719
p255
aVTEZ-3718
p256
aVTEZ-3717
p257
aVTEZ-3716
p258
aVTEZ-3715
p259
aVTEZ-3714
p260
aVTEZ-3713
p261
aVTEZ-3712
p262
aVTEZ-3711
p263
aVTEZ-3710
p264
aVTEZ-3709
p265
aVTEZ-3708
p266
aVTEZ-3707
p267
aVTEZ-3706
p268
aVTEZ-3705
p269
aVTEZ-3704
p270
aVTEZ-3703
p271
aVTEZ-3702
p272
aVTEZ-3701
p273
aVTEZ-3700
p274
aVTEZ-3699
p275
aVTEZ-3698
p276
aVTEZ-3697
p277
aVTEZ-3696
p278
aVTEZ-3695
p279
aVTEZ-3694
p280
aVTEZ-3693
p281
aVTEZ-3692
p282
aVTEZ-3691
p283
aVTEZ-3690
p284
aVTEZ-3689
p285
aVTEZ-3688
p286
aVTEZ-3687
p287
aVTEZ-3686
p288
aVTEZ-3685
p289
aVTEZ-3684
p290
aVTEZ-3683
p291
aVTEZ-3682
p292
aVTEZ-3681
p293
aVTEZ-3680
p294
aVTEZ-3679
p295
aVTEZ-3678
p296
aVTEZ-3677
p297
aVTEZ-3676
p298
aVTEZ-3675
p299
aVTEZ-3674
p300
aVTEZ-3673
p301
aVTEZ-3672
p302
aVTEZ-3671
p303
aVTEZ-3670
p304
aVTEZ-3669
p305
aVTEZ-3668
p306
aVTEZ-3667
p307
aVTEZ-3666
p308
aVTEZ-3665
p309
aVTEZ-3664
p310
aVTEZ-3663
p311
aVTEZ-3662
p312
aVTEZ-3661
p313
aVTEZ-3660
p314
aVTEZ-3659
p315
aVTEZ-3658
p316
aVTEZ-3657
p317
aVTEZ-3656
p318
aVTEZ-3655
p319
aVTEZ-3654
p320
aVTEZ-3653
p321
aVTEZ-3652
p322
aVTEZ-3651
p323
aVTEZ-3650
p324
aVTEZ-3649
p325
aVTEZ-3648
p326
aVTEZ-3647
p327
aVTEZ-3646
p328
aVTEZ-3645
p329
aVTEZ-3644
p330
aVTEZ-3643
p331
aVTEZ-3642
p332
aVTEZ-3641
p333
aVTEZ-3640
p334
aVTEZ-3639
p335
aVTEZ-3638
p336
aVTEZ-3637
p337
aVTEZ-3636
p338
aVTEZ-3635
p339
aVTEZ-3634
p340
aVTEZ-3633
p341
aVTEZ-3632
p342
aVTEZ-3631
p343
aVTEZ-3630
p344
aVTEZ-3629
p345
aVTEZ-3628
p346
aVTEZ-3627
p347
aVTEZ-3626
p348
aVTEZ-3625
p349
aVTEZ-3624
p350
aVTEZ-3623
p351
aVTEZ-3622
p352
aVTEZ-3621
p353
aVTEZ-3620
p354
aVTEZ-3619
p355
aVTEZ-3618
p356
aVTEZ-3617
p357
aVTEZ-3616
p358
aVTEZ-3615
p359
aVTEZ-3614
p360
aVTEZ-3613
p361
aVTEZ-3612
p362
aVTEZ-3611
p363
aVTEZ-3610
p364
aVTEZ-3609
p365
aVTEZ-3608
p366
aVTEZ-3607
p367
aVTEZ-3606
p368
aVTEZ-3605
p369
aVTEZ-3604
p370
aVTEZ-3603
p371
aVTEZ-3602
p372
aVTEZ-3601
p373
aVTEZ-3600
p374
aVTEZ-3599
p375
aVTEZ-3598
p376
aVTEZ-3597
p377
aVTEZ-3596
p378
aVTEZ-3595
p379
aVTEZ-3594
p380
aVTEZ-3593
p381
aVTEZ-3592
p382
aVTEZ-3591
p383
aVTEZ-3590
p384
aVTEZ-3589
p385
aVTEZ-3588
p386
aVTEZ-3587
p387
aVTEZ-3586
p388
aVTEZ-3585
p389
aVTEZ-3584
p390
aVTEZ-3583
p391
aVTEZ-3582
p392
aVTEZ-3581
p393
aVTEZ-3580
p394
aVTEZ-3579
p395
aVTEZ-3578
p396
aVTEZ-3577
p397
aVTEZ-3576
p398
aVTEZ-3575
p399
aVTEZ-3574
p400
aVTEZ-3573
p401
aVTEZ-3572
p402
aVTEZ-3571
p403
aVTEZ-3570
p404
aVTEZ-3569
p405
aVTEZ-3568
p406
aVTEZ-3567
p407
aVTEZ-3566
p408
aVTEZ-3565
p409
aVTEZ-3564
p410
aVTEZ-3563
p411
aVTEZ-3562
p412
aVTEZ-3561
p413
aVTEZ-3560
p414
aVTEZ-3559
p415
aVTEZ-3558
p416
aVTEZ-3557
p417
aVTEZ-3556
p418
aVTEZ-3555
p419
aVTEZ-3554
p420
aVTEZ-3553
p421
aVTEZ-3552
p422
aVTEZ-3551
p423
aVTEZ-3550
p424
aVTEZ-3549
p425
aVTEZ-3548
p426
aVTEZ-3547
p427
aVTEZ-3546
p428
aVTEZ-3545
p429
aVTEZ-3544
p430
aVTEZ-3543
p431
aVTEZ-3542
p432
aVTEZ-3540
p433
aVTEZ-3539
p434
aVTEZ-3538
p435
aVTEZ-3537
p436
aVTEZ-3536
p437
aVTEZ-3535
p438
aVTEZ-3534
p439
aVTEZ-3533
p440
aVTEZ-3532
p441
aVTEZ-3531
p442
aVTEZ-3530
p443
aVTEZ-3529
p444
aVTEZ-3528
p445
aVTEZ-3527
p446
aVTEZ-3526
p447
aVTEZ-3525
p448
aVTEZ-3524
p449
aVTEZ-3523
p450
aVTEZ-3522
p451
aVTEZ-3521
p452
aVTEZ-3520
p453
aVTEZ-3519
p454
aVTEZ-3518
p455
aVTEZ-3517
p456
aVTEZ-3516
p457
aVTEZ-3515
p458
aVTEZ-3514
p459
aVTEZ-3513
p460
aVTEZ-3512
p461
aVTEZ-3511
p462
aVTEZ-3510
p463
aVTEZ-3509
p464
aVTEZ-3508
p465
aVTEZ-3507
p466
aVTEZ-3505
p467
aVTEZ-3504
p468
aVTEZ-3503
p469
aVTEZ-3502
p470
aVTEZ-3501
p471
aVTEZ-3500
p472
aVTEZ-3499
p473
aVTEZ-3498
p474
aVTEZ-3497
p475
aVTEZ-3496
p476
aVTEZ-3495
p477
aVTEZ-3494
p478
aVTEZ-3493
p479
aVTEZ-3492
p480
aVTEZ-3491
p481
aVTEZ-3490
p482
aVTEZ-3489
p483
aVTEZ-3488
p484
aVTEZ-3487
p485
aVTEZ-3486
p486
aVTEZ-3485
p487
aVTEZ-3484
p488
aVTEZ-3483
p489
aVTEZ-3482
p490
aVTEZ-3481
p491
aVTEZ-3480
p492
aVTEZ-3479
p493
aVTEZ-3478
p494
aVTEZ-3477
p495
aVTEZ-3476
p496
aVTEZ-3475
p497
aVTEZ-3473
p498
aVTEZ-3472
p499
aVTEZ-3471
p500
aVTEZ-3470
p501
aVTEZ-3469
p502
aVTEZ-3468
p503
aVTEZ-3467
p504
aVTEZ-3466
p505
aVTEZ-3465
p506
aVTEZ-3464
p507
aVTEZ-3463
p508
aVTEZ-3462
p509
aVTEZ-3461
p510
aVTEZ-3460
p511
aVTEZ-3459
p512
aVTEZ-3458
p513
aVTEZ-3457
p514
aVTEZ-3456
p515
aVTEZ-3455
p516
aVTEZ-3454
p517
aVTEZ-3453
p518
aVTEZ-3452
p519
aVTEZ-3450
p520
aVTEZ-3449
p521
aVTEZ-3448
p522
aVTEZ-3447
p523
aVTEZ-3446
p524
aVTEZ-3445
p525
aVTEZ-3444
p526
aVTEZ-3443
p527
aVTEZ-3442
p528
aVTEZ-3441
p529
aVTEZ-3440
p530
aVTEZ-3439
p531
aVTEZ-3438
p532
aVTEZ-3437
p533
aVTEZ-3436
p534
aVTEZ-3435
p535
aVTEZ-3434
p536
aVTEZ-3433
p537
aVTEZ-3432
p538
aVTEZ-3431
p539
aVTEZ-3430
p540
aVTEZ-3429
p541
aVTEZ-3428
p542
aVTEZ-3427
p543
aVTEZ-3426
p544
aVTEZ-3425
p545
aVTEZ-3424
p546
aVTEZ-3423
p547
aVTEZ-3422
p548
aVTEZ-3421
p549
aVTEZ-3420
p550
aVTEZ-3419
p551
aVTEZ-3418
p552
aVTEZ-3417
p553
aVTEZ-3416
p554
aVTEZ-3415
p555
aVTEZ-3414
p556
aVTEZ-3413
p557
aVTEZ-3412
p558
aVTEZ-3411
p559
aVTEZ-3410
p560
aVTEZ-3409
p561
aVTEZ-3408
p562
aVTEZ-3407
p563
aVTEZ-3406
p564
aVTEZ-3405
p565
aVTEZ-3404
p566
aVTEZ-3403
p567
aVTEZ-3402
p568
aVTEZ-3401
p569
aVTEZ-3399
p570
aVTEZ-3398
p571
aVTEZ-3397
p572
aVTEZ-3396
p573
aVTEZ-3395
p574
aVTEZ-3394
p575
aVTEZ-3393
p576
aVTEZ-3392
p577
aVTEZ-3391
p578
aVTEZ-3390
p579
aVTEZ-3389
p580
aVTEZ-3388
p581
aVTEZ-3387
p582
aVTEZ-3386
p583
aVTEZ-3385
p584
aVTEZ-3384
p585
aVTEZ-3383
p586
aVTEZ-3382
p587
aVTEZ-3381
p588
aVTEZ-3380
p589
aVTEZ-3379
p590
aVTEZ-3378
p591
aVTEZ-3377
p592
aVTEZ-3376
p593
aVTEZ-3375
p594
aVTEZ-3374
p595
aVTEZ-3373
p596
aVTEZ-3372
p597
aVTEZ-3371
p598
aVTEZ-3370
p599
aVTEZ-3369
p600
aVTEZ-3368
p601
aVTEZ-3367
p602
aVTEZ-3366
p603
aVTEZ-3365
p604
aVTEZ-3364
p605
aVTEZ-3363
p606
aVTEZ-3362
p607
aVTEZ-3361
p608
aVTEZ-3360
p609
aVTEZ-3359
p610
aVTEZ-3358
p611
aVTEZ-3357
p612
aVTEZ-3356
p613
aVTEZ-3355
p614
aVTEZ-3354
p615
aVTEZ-3353
p616
aVTEZ-3352
p617
aVTEZ-3351
p618
aVTEZ-3350
p619
aVTEZ-3349
p620
aVTEZ-3348
p621
aVTEZ-3347
p622
aVTEZ-3346
p623
aVTEZ-3345
p624
aVTEZ-3344
p625
aVTEZ-3343
p626
aVTEZ-3342
p627
aVTEZ-3341
p628
aVTEZ-3340
p629
aVTEZ-3339
p630
aVTEZ-3338
p631
aVTEZ-3337
p632
aVTEZ-3336
p633
aVTEZ-3335
p634
aVTEZ-3334
p635
aVTEZ-3333
p636
aVTEZ-3332
p637
aVTEZ-3331
p638
aVTEZ-3330
p639
aVTEZ-3329
p640
aVTEZ-3328
p641
aVTEZ-3327
p642
aVTEZ-3326
p643
aVTEZ-3325
p644
aVTEZ-3324
p645
aVTEZ-3323
p646
aVTEZ-3322
p647
aVTEZ-3321
p648
aVTEZ-3320
p649
aVTEZ-3319
p650
aVTEZ-3318
p651
aVTEZ-3317
p652
aVTEZ-3316
p653
aVTEZ-3315
p654
aVTEZ-3314
p655
aVTEZ-3313
p656
aVTEZ-3312
p657
aVTEZ-3311
p658
aVTEZ-3310
p659
aVTEZ-3309
p660
aVTEZ-3308
p661
aVTEZ-3307
p662
aVTEZ-3306
p663
aVTEZ-3305
p664
aVTEZ-3304
p665
aVTEZ-3303
p666
aVTEZ-3302
p667
aVTEZ-3301
p668
aVTEZ-3300
p669
aVTEZ-3299
p670
aVTEZ-3298
p671
aVTEZ-3297
p672
aVTEZ-3296
p673
aVTEZ-3295
p674
aVTEZ-3294
p675
aVTEZ-3293
p676
aVTEZ-3292
p677
aVTEZ-3291
p678
aVTEZ-3290
p679
aVTEZ-3289
p680
aVTEZ-3288
p681
aVTEZ-3287
p682
aVTEZ-3286
p683
aVTEZ-3285
p684
aVTEZ-3284
p685
aVTEZ-3283
p686
aVTEZ-3282
p687
aVTEZ-3281
p688
aVTEZ-3280
p689
aVTEZ-3279
p690
aVTEZ-3278
p691
aVTEZ-3277
p692
aVTEZ-3276
p693
aVTEZ-3275
p694
aVTEZ-3274
p695
aVTEZ-3273
p696
aVTEZ-3272
p697
aVTEZ-3271
p698
aVTEZ-3270
p699
aVTEZ-3269
p700
aVTEZ-3268
p701
aVTEZ-3267
p702
aVTEZ-3266
p703
aVTEZ-3265
p704
aVTEZ-3264
p705
aVTEZ-3263
p706
aVTEZ-3262
p707
aVTEZ-3261
p708
aVTEZ-3260
p709
aVTEZ-3259
p710
aVTEZ-3258
p711
aVTEZ-3257
p712
aVTEZ-3256
p713
aVTEZ-3255
p714
aVTEZ-3254
p715
aVTEZ-3253
p716
aVTEZ-3252
p717
aVTEZ-3251
p718
aVTEZ-3250
p719
aVTEZ-3249
p720
aVTEZ-3248
p721
aVTEZ-3247
p722
aVTEZ-3246
p723
aVTEZ-3245
p724
aVTEZ-3244
p725
aVTEZ-3243
p726
aVTEZ-3242
p727
aVTEZ-3241
p728
aVTEZ-3240
p729
aVTEZ-3239
p730
aVTEZ-3238
p731
aVTEZ-3237
p732
aVTEZ-3236
p733
aVTEZ-3235
p734
aVTEZ-3234
p735
aVTEZ-3233
p736
aVTEZ-3232
p737
aVTEZ-3231
p738
aVTEZ-3230
p739
aVTEZ-3229
p740
aVTEZ-3228
p741
aVTEZ-3227
p742
aVTEZ-3226
p743
aVTEZ-3225
p744
aVTEZ-3224
p745
aVTEZ-3223
p746
aVTEZ-3222
p747
aVTEZ-3221
p748
aVTEZ-3220
p749
aVTEZ-3219
p750
aVTEZ-3218
p751
aVTEZ-3217
p752
aVTEZ-3216
p753
aVTEZ-3215
p754
aVTEZ-3214
p755
aVTEZ-3213
p756
aVTEZ-3212
p757
aVTEZ-3211
p758
aVTEZ-3210
p759
aVTEZ-3209
p760
aVTEZ-3208
p761
aVTEZ-3207
p762
aVTEZ-3206
p763
aVTEZ-3205
p764
aVTEZ-3204
p765
aVTEZ-3203
p766
aVTEZ-3202
p767
aVTEZ-3201
p768
aVTEZ-3200
p769
aVTEZ-3199
p770
aVTEZ-3198
p771
aVTEZ-3197
p772
aVTEZ-3196
p773
aVTEZ-3195
p774
aVTEZ-3194
p775
aVTEZ-3193
p776
aVTEZ-3192
p777
aVTEZ-3191
p778
aVTEZ-3190
p779
aVTEZ-3189
p780
aVTEZ-3188
p781
aVTEZ-3187
p782
aVTEZ-3186
p783
aVTEZ-3185
p784
aVTEZ-3184
p785
aVTEZ-3183
p786
aVTEZ-3182
p787
aVTEZ-3181
p788
aVTEZ-3180
p789
aVTEZ-3179
p790
aVTEZ-3178
p791
aVTEZ-3177
p792
aVTEZ-3176
p793
aVTEZ-3175
p794
aVTEZ-3174
p795
aVTEZ-3173
p796
aVTEZ-3172
p797
aVTEZ-3171
p798
aVTEZ-3170
p799
aVTEZ-3169
p800
aVTEZ-3168
p801
aVTEZ-3167
p802
aVTEZ-3166
p803
aVTEZ-3165
p804
aVTEZ-3164
p805
aVTEZ-3163
p806
aVTEZ-3162
p807
aVTEZ-3161
p808
aVTEZ-3160
p809
aVTEZ-3159
p810
aVTEZ-3156
p811
aVTEZ-3155
p812
aVTEZ-3154
p813
aVTEZ-3153
p814
aVTEZ-3152
p815
aVTEZ-3151
p816
aVTEZ-3150
p817
aVTEZ-3149
p818
aVTEZ-3148
p819
aVTEZ-3147
p820
aVTEZ-3146
p821
aVTEZ-3145
p822
aVTEZ-3144
p823
aVTEZ-3143
p824
aVTEZ-3142
p825
aVTEZ-3141
p826
aVTEZ-3140
p827
aVTEZ-3139
p828
aVTEZ-3138
p829
aVTEZ-3137
p830
aVTEZ-3136
p831
aVTEZ-3135
p832
aVTEZ-3134
p833
aVTEZ-3133
p834
aVTEZ-3132
p835
aVTEZ-3131
p836
aVTEZ-3130
p837
aVTEZ-3129
p838
aVTEZ-3128
p839
aVTEZ-3127
p840
aVTEZ-3126
p841
aVTEZ-3125
p842
aVTEZ-3124
p843
aVTEZ-3123
p844
aVTEZ-3122
p845
aVTEZ-3121
p846
aVTEZ-3120
p847
aVTEZ-3119
p848
aVTEZ-3118
p849
aVTEZ-3117
p850
aVTEZ-3116
p851
aVTEZ-3115
p852
aVTEZ-3114
p853
aVTEZ-3113
p854
aVTEZ-3112
p855
aVTEZ-3111
p856
aVTEZ-3110
p857
aVTEZ-3109
p858
aVTEZ-3108
p859
aVTEZ-3107
p860
aVTEZ-3106
p861
aVTEZ-3105
p862
aVTEZ-3104
p863
aVTEZ-3103
p864
aVTEZ-3102
p865
aVTEZ-3101
p866
aVTEZ-3100
p867
aVTEZ-3099
p868
aVTEZ-3098
p869
aVTEZ-3097
p870
aVTEZ-3096
p871
aVTEZ-3095
p872
aVTEZ-3094
p873
aVTEZ-3093
p874
aVTEZ-3092
p875
aVTEZ-3091
p876
aVTEZ-3090
p877
aVTEZ-3089
p878
aVTEZ-3088
p879
aVTEZ-3087
p880
aVTEZ-3086
p881
aVTEZ-3085
p882
aVTEZ-3084
p883
aVTEZ-3083
p884
aVTEZ-3082
p885
aVTEZ-3081
p886
aVTEZ-3080
p887
aVTEZ-3079
p888
aVTEZ-3078
p889
aVTEZ-3077
p890
aVTEZ-3076
p891
aVTEZ-3075
p892
aVTEZ-3074
p893
aVTEZ-3073
p894
aVTEZ-3072
p895
aVTEZ-3071
p896
aVTEZ-3070
p897
aVTEZ-3069
p898
aVTEZ-3068
p899
aVTEZ-3067
p900
aVTEZ-3066
p901
aVTEZ-3065
p902
aVTEZ-3064
p903
aVTEZ-3063
p904
aVTEZ-3062
p905
aVTEZ-3061
p906
aVTEZ-3060
p907
aVTEZ-3059
p908
aVTEZ-3058
p909
aVTEZ-3057
p910
aVTEZ-3056
p911
aVTEZ-3055
p912
aVTEZ-3054
p913
aVTEZ-3053
p914
aVTEZ-3052
p915
aVTEZ-3051
p916
aVTEZ-3050
p917
aVTEZ-3049
p918
aVTEZ-3048
p919
aVTEZ-3047
p920
aVTEZ-3046
p921
aVTEZ-3045
p922
aVTEZ-3044
p923
aVTEZ-3043
p924
aVTEZ-3042
p925
aVTEZ-3041
p926
aVTEZ-3040
p927
aVTEZ-3039
p928
aVTEZ-3038
p929
aVTEZ-3037
p930
aVTEZ-3036
p931
aVTEZ-3035
p932
aVTEZ-3033
p933
aVTEZ-3032
p934
aVTEZ-3031
p935
aVTEZ-3030
p936
aVTEZ-3029
p937
aVTEZ-3028
p938
aVTEZ-3027
p939
aVTEZ-3026
p940
aVTEZ-3025
p941
aVTEZ-3024
p942
aVTEZ-3023
p943
aVTEZ-3022
p944
aVTEZ-3021
p945
aVTEZ-3020
p946
aVTEZ-3019
p947
aVTEZ-3018
p948
aVTEZ-3017
p949
aVTEZ-3016
p950
aVTEZ-3015
p951
aVTEZ-3014
p952
aVTEZ-3013
p953
aVTEZ-3012
p954
aVTEZ-3011
p955
aVTEZ-3010
p956
aVTEZ-3009
p957
aVTEZ-3008
p958
aVTEZ-3007
p959
aVTEZ-3006
p960
aVTEZ-3005
p961
aVTEZ-3004
p962
aVTEZ-3003
p963
aVTEZ-3001
p964
aVTEZ-3000
p965
aVTEZ-2999
p966
aVTEZ-2998
p967
aVTEZ-2997
p968
aVTEZ-2996
p969
aVTEZ-2995
p970
aVTEZ-2994
p971
aVTEZ-2993
p972
aVTEZ-2992
p973
aVTEZ-2991
p974
aVTEZ-2990
p975
aVTEZ-2989
p976
aVTEZ-2988
p977
aVTEZ-2987
p978
aVTEZ-2986
p979
aVTEZ-2985
p980
aVTEZ-2984
p981
aVTEZ-2983
p982
aVTEZ-2982
p983
aVTEZ-2981
p984
aVTEZ-2980
p985
aVTEZ-2979
p986
aVTEZ-2978
p987
aVTEZ-2977
p988
aVTEZ-2976
p989
aVTEZ-2975
p990
aVTEZ-2974
p991
aVTEZ-2973
p992
aVTEZ-2972
p993
aVTEZ-2971
p994
aVTEZ-2970
p995
aVTEZ-2969
p996
aVTEZ-2968
p997
aVTEZ-2967
p998
aVTEZ-2966
p999
aVTEZ-2965
p1000
aVTEZ-2964
p1001
aVTEZ-2963
p1002
aVTEZ-2962
p1003
aVTEZ-2961
p1004
aVTEZ-2960
p1005
aVTEZ-2959
p1006
aVTEZ-2958
p1007
aVTEZ-2957
p1008
aVTEZ-2956
p1009
aVTEZ-2955
p1010
aVTEZ-2954
p1011
aVTEZ-2953
p1012
aVTEZ-2952
p1013
aVTEZ-2951
p1014
aVTEZ-2950
p1015
aVTEZ-2949
p1016
aVTEZ-2948
p1017
aVTEZ-2947
p1018
aVTEZ-2946
p1019
aVTEZ-2945
p1020
aVTEZ-2944
p1021
aVTEZ-2943
p1022
aVTEZ-2942
p1023
aVTEZ-2941
p1024
aVTEZ-2940
p1025
aVTEZ-2939
p1026
aVTEZ-2938
p1027
aVTEZ-2937
p1028
aVTEZ-2936
p1029
aVTEZ-2935
p1030
aVTEZ-2934
p1031
aVTEZ-2933
p1032
aVTEZ-2932
p1033
aVTEZ-2931
p1034
aVTEZ-2930
p1035
aVTEZ-2929
p1036
aVTEZ-2928
p1037
aVTEZ-2927
p1038
aVTEZ-2926
p1039
aVTEZ-2925
p1040
aVTEZ-2924
p1041
aVTEZ-2923
p1042
aVTEZ-2922
p1043
aVTEZ-2921
p1044
aVTEZ-2920
p1045
aVTEZ-2919
p1046
aVTEZ-2918
p1047
aVTEZ-2917
p1048
aVTEZ-2916
p1049
aVTEZ-2915
p1050
aVTEZ-2914
p1051
aVTEZ-2913
p1052
aVTEZ-2912
p1053
aVTEZ-2911
p1054
aVTEZ-2910
p1055
aVTEZ-2909
p1056
aVTEZ-2908
p1057
aVTEZ-2907
p1058
aVTEZ-2906
p1059
aVTEZ-2905
p1060
aVTEZ-2904
p1061
aVTEZ-2903
p1062
aVTEZ-2902
p1063
aVTEZ-2901
p1064
aVTEZ-2900
p1065
aVTEZ-2899
p1066
aVTEZ-2898
p1067
aVTEZ-2897
p1068
aVTEZ-2896
p1069
aVTEZ-2895
p1070
aVTEZ-2894
p1071
aVTEZ-2893
p1072
aVTEZ-2892
p1073
aVTEZ-2891
p1074
aVTEZ-2890
p1075
aVTEZ-2889
p1076
aVTEZ-2888
p1077
aVTEZ-2887
p1078
aVTEZ-2886
p1079
aVTEZ-2885
p1080
aVTEZ-2884
p1081
aVTEZ-2883
p1082
aVTEZ-2882
p1083
aVTEZ-2881
p1084
aVTEZ-2880
p1085
aVTEZ-2879
p1086
aVTEZ-2878
p1087
aVTEZ-2877
p1088
aVTEZ-2876
p1089
aVTEZ-2875
p1090
aVTEZ-2874
p1091
aVTEZ-2873
p1092
aVTEZ-2872
p1093
aVTEZ-2871
p1094
aVTEZ-2870
p1095
aVTEZ-2869
p1096
aVTEZ-2868
p1097
aVTEZ-2867
p1098
aVTEZ-2866
p1099
aVTEZ-2865
p1100
aVTEZ-2864
p1101
aVTEZ-2863
p1102
aVTEZ-2862
p1103
aVTEZ-2861
p1104
aVTEZ-2860
p1105
aVTEZ-2859
p1106
aVTEZ-2858
p1107
aVTEZ-2857
p1108
aVTEZ-2856
p1109
aVTEZ-2855
p1110
aVTEZ-2854
p1111
aVTEZ-2853
p1112
aVTEZ-2852
p1113
aVTEZ-2851
p1114
aVTEZ-2850
p1115
aVTEZ-2849
p1116
aVTEZ-2848
p1117
aVTEZ-2847
p1118
aVTEZ-2846
p1119
aVTEZ-2845
p1120
aVTEZ-2844
p1121
aVTEZ-2843
p1122
aVTEZ-2842
p1123
aVTEZ-2841
p1124
aVTEZ-2840
p1125
aVTEZ-2839
p1126
aVTEZ-2838
p1127
aVTEZ-2837
p1128
aVTEZ-2836
p1129
aVTEZ-2835
p1130
aVTEZ-2834
p1131
aVTEZ-2833
p1132
aVTEZ-2832
p1133
aVTEZ-2831
p1134
aVTEZ-2830
p1135
aVTEZ-2829
p1136
aVTEZ-2828
p1137
aVTEZ-2827
p1138
aVTEZ-2826
p1139
aVTEZ-2825
p1140
aVTEZ-2824
p1141
aVTEZ-2823
p1142
aVTEZ-2822
p1143
aVTEZ-2821
p1144
aVTEZ-2820
p1145
aVTEZ-2819
p1146
aVTEZ-2818
p1147
aVTEZ-2817
p1148
aVTEZ-2816
p1149
aVTEZ-2815
p1150
aVTEZ-2814
p1151
aVTEZ-2813
p1152
aVTEZ-2812
p1153
aVTEZ-2811
p1154
aVTEZ-2810
p1155
aVTEZ-2809
p1156
aVTEZ-2808
p1157
aVTEZ-2807
p1158
aVTEZ-2806
p1159
aVTEZ-2805
p1160
aVTEZ-2804
p1161
aVTEZ-2803
p1162
aVTEZ-2802
p1163
aVTEZ-2801
p1164
aVTEZ-2800
p1165
aVTEZ-2799
p1166
aVTEZ-2798
p1167
aVTEZ-2797
p1168
aVTEZ-2796
p1169
aVTEZ-2795
p1170
aVTEZ-2794
p1171
aVTEZ-2793
p1172
aVTEZ-2792
p1173
aVTEZ-2791
p1174
aVTEZ-2790
p1175
aVTEZ-2789
p1176
aVTEZ-2788
p1177
aVTEZ-2787
p1178
aVTEZ-2786
p1179
aVTEZ-2785
p1180
aVTEZ-2784
p1181
aVTEZ-2783
p1182
aVTEZ-2782
p1183
aVTEZ-2781
p1184
aVTEZ-2780
p1185
aVTEZ-2779
p1186
aVTEZ-2778
p1187
aVTEZ-2777
p1188
aVTEZ-2776
p1189
aVTEZ-2775
p1190
aVTEZ-2774
p1191
aVTEZ-2773
p1192
aVTEZ-2772
p1193
aVTEZ-2771
p1194
aVTEZ-2770
p1195
aVTEZ-2769
p1196
aVTEZ-2768
p1197
aVTEZ-2767
p1198
aVTEZ-2766
p1199
aVTEZ-2765
p1200
aVTEZ-2764
p1201
aVTEZ-2763
p1202
aVTEZ-2762
p1203
aVTEZ-2761
p1204
aVTEZ-2760
p1205
aVTEZ-2759
p1206
aVTEZ-2758
p1207
aVTEZ-2757
p1208
aVTEZ-2756
p1209
aVTEZ-2755
p1210
aVTEZ-2754
p1211
aVTEZ-2753
p1212
aVTEZ-2752
p1213
aVTEZ-2751
p1214
aVTEZ-2750
p1215
aVTEZ-2749
p1216
aVTEZ-2748
p1217
aVTEZ-2747
p1218
aVTEZ-2746
p1219
aVTEZ-2745
p1220
aVTEZ-2744
p1221
aVTEZ-2743
p1222
aVTEZ-2742
p1223
aVTEZ-2741
p1224
aVTEZ-2740
p1225
aVTEZ-2739
p1226
aVTEZ-2738
p1227
aVTEZ-2737
p1228
aVTEZ-2736
p1229
aVTEZ-2735
p1230
aVTEZ-2734
p1231
aVTEZ-2733
p1232
aVTEZ-2732
p1233
aVTEZ-2731
p1234
aVTEZ-2730
p1235
aVTEZ-2729
p1236
aVTEZ-2728
p1237
aVTEZ-2727
p1238
aVTEZ-2726
p1239
aVTEZ-2725
p1240
aVTEZ-2724
p1241
aVTEZ-2723
p1242
aVTEZ-2722
p1243
aVTEZ-2721
p1244
aVTEZ-2720
p1245
aVTEZ-2719
p1246
aVTEZ-2718
p1247
aVTEZ-2717
p1248
aVTEZ-2716
p1249
aVTEZ-2715
p1250
aVTEZ-2714
p1251
aVTEZ-2713
p1252
aVTEZ-2712
p1253
aVTEZ-2711
p1254
aVTEZ-2710
p1255
aVTEZ-2709
p1256
aVTEZ-2708
p1257
aVTEZ-2707
p1258
aVTEZ-2706
p1259
aVTEZ-2705
p1260
aVTEZ-2704
p1261
aVTEZ-2703
p1262
aVTEZ-2702
p1263
aVTEZ-2701
p1264
aVTEZ-2700
p1265
aVTEZ-2699
p1266
aVTEZ-2698
p1267
aVTEZ-2697
p1268
aVTEZ-2696
p1269
aVTEZ-2695
p1270
aVTEZ-2694
p1271
aVTEZ-2693
p1272
aVTEZ-2692
p1273
aVTEZ-2691
p1274
aVTEZ-2690
p1275
aVTEZ-2689
p1276
aVTEZ-2688
p1277
aVTEZ-2687
p1278
aVTEZ-2686
p1279
aVTEZ-2685
p1280
aVTEZ-2684
p1281
aVTEZ-2683
p1282
aVTEZ-2682
p1283
aVTEZ-2681
p1284
aVTEZ-2680
p1285
aVTEZ-2679
p1286
aVTEZ-2678
p1287
aVTEZ-2677
p1288
aVTEZ-2676
p1289
aVTEZ-2675
p1290
aVTEZ-2674
p1291
aVTEZ-2673
p1292
aVTEZ-2672
p1293
aVTEZ-2671
p1294
aVTEZ-2670
p1295
aVTEZ-2669
p1296
aVTEZ-2668
p1297
aVTEZ-2667
p1298
aVTEZ-2666
p1299
aVTEZ-2665
p1300
aVTEZ-2664
p1301
aVTEZ-2663
p1302
aVTEZ-2662
p1303
aVTEZ-2661
p1304
aVTEZ-2660
p1305
aVTEZ-2659
p1306
aVTEZ-2658
p1307
aVTEZ-2657
p1308
aVTEZ-2656
p1309
aVTEZ-2655
p1310
aVTEZ-2654
p1311
aVTEZ-2653
p1312
aVTEZ-2652
p1313
aVTEZ-2651
p1314
aVTEZ-2650
p1315
aVTEZ-2649
p1316
aVTEZ-2648
p1317
aVTEZ-2647
p1318
aVTEZ-2646
p1319
aVTEZ-2645
p1320
aVTEZ-2644
p1321
aVTEZ-2643
p1322
aVTEZ-2642
p1323
aVTEZ-2641
p1324
aVTEZ-2640
p1325
aVTEZ-2639
p1326
aVTEZ-2638
p1327
aVTEZ-2637
p1328
aVTEZ-2636
p1329
aVTEZ-2635
p1330
aVTEZ-2634
p1331
aVTEZ-2633
p1332
aVTEZ-2632
p1333
aVTEZ-2631
p1334
aVTEZ-2630
p1335
aVTEZ-2629
p1336
aVTEZ-2628
p1337
aVTEZ-2627
p1338
aVTEZ-2626
p1339
aVTEZ-2625
p1340
aVTEZ-2624
p1341
aVTEZ-2623
p1342
aVTEZ-2621
p1343
aVTEZ-2620
p1344
aVTEZ-2619
p1345
aVTEZ-2618
p1346
aVTEZ-2617
p1347
aVTEZ-2616
p1348
aVTEZ-2615
p1349
aVTEZ-2614
p1350
aVTEZ-2613
p1351
aVTEZ-2612
p1352
aVTEZ-2611
p1353
aVTEZ-2610
p1354
aVTEZ-2609
p1355
aVTEZ-2608
p1356
aVTEZ-2607
p1357
aVTEZ-2606
p1358
aVTEZ-2605
p1359
aVTEZ-2604
p1360
aVTEZ-2603
p1361
aVTEZ-2602
p1362
aVTEZ-2601
p1363
aVTEZ-2600
p1364
aVTEZ-2599
p1365
aVTEZ-2598
p1366
aVTEZ-2597
p1367
aVTEZ-2596
p1368
aVTEZ-2595
p1369
aVTEZ-2594
p1370
aVTEZ-2593
p1371
aVTEZ-2592
p1372
aVTEZ-2591
p1373
aVTEZ-2590
p1374
aVTEZ-2589
p1375
aVTEZ-2588
p1376
aVTEZ-2587
p1377
aVTEZ-2586
p1378
aVTEZ-2585
p1379
aVTEZ-2584
p1380
aVTEZ-2583
p1381
aVTEZ-2582
p1382
aVTEZ-2581
p1383
aVTEZ-2580
p1384
aVTEZ-2579
p1385
aVTEZ-2578
p1386
aVTEZ-2577
p1387
aVTEZ-2576
p1388
aVTEZ-2575
p1389
aVTEZ-2574
p1390
aVTEZ-2573
p1391
aVTEZ-2572
p1392
aVTEZ-2571
p1393
aVTEZ-2570
p1394
aVTEZ-2569
p1395
aVTEZ-2568
p1396
aVTEZ-2567
p1397
aVTEZ-2566
p1398
aVTEZ-2565
p1399
aVTEZ-2564
p1400
aVTEZ-2563
p1401
aVTEZ-2562
p1402
aVTEZ-2561
p1403
aVTEZ-2560
p1404
aVTEZ-2559
p1405
aVTEZ-2558
p1406
aVTEZ-2557
p1407
aVTEZ-2556
p1408
aVTEZ-2555
p1409
aVTEZ-2554
p1410
aVTEZ-2553
p1411
aVTEZ-2552
p1412
aVTEZ-2551
p1413
aVTEZ-2550
p1414
aVTEZ-2549
p1415
aVTEZ-2548
p1416
aVTEZ-2547
p1417
aVTEZ-2546
p1418
aVTEZ-2545
p1419
aVTEZ-2544
p1420
aVTEZ-2543
p1421
aVTEZ-2542
p1422
aVTEZ-2541
p1423
aVTEZ-2540
p1424
aVTEZ-2539
p1425
aVTEZ-2538
p1426
aVTEZ-2537
p1427
aVTEZ-2536
p1428
aVTEZ-2535
p1429
aVTEZ-2534
p1430
aVTEZ-2533
p1431
aVTEZ-2532
p1432
aVTEZ-2531
p1433
aVTEZ-2530
p1434
aVTEZ-2529
p1435
aVTEZ-2528
p1436
aVTEZ-2527
p1437
aVTEZ-2526
p1438
aVTEZ-2525
p1439
aVTEZ-2524
p1440
aVTEZ-2523
p1441
aVTEZ-2522
p1442
aVTEZ-2521
p1443
aVTEZ-2520
p1444
aVTEZ-2519
p1445
aVTEZ-2518
p1446
aVTEZ-2517
p1447
aVTEZ-2516
p1448
aVTEZ-2515
p1449
aVTEZ-2514
p1450
aVTEZ-2513
p1451
aVTEZ-2512
p1452
aVTEZ-2511
p1453
aVTEZ-2510
p1454
aVTEZ-2509
p1455
aVTEZ-2508
p1456
aVTEZ-2507
p1457
aVTEZ-2506
p1458
aVTEZ-2505
p1459
aVTEZ-2504
p1460
aVTEZ-2503
p1461
aVTEZ-2502
p1462
aVTEZ-2501
p1463
aVTEZ-2500
p1464
aVTEZ-2499
p1465
aVTEZ-2498
p1466
aVTEZ-2497
p1467
aVTEZ-2496
p1468
aVTEZ-2495
p1469
aVTEZ-2494
p1470
aVTEZ-2493
p1471
aVTEZ-2492
p1472
aVTEZ-2491
p1473
aVTEZ-2490
p1474
aVTEZ-2489
p1475
aVTEZ-2488
p1476
aVTEZ-2487
p1477
aVTEZ-2486
p1478
aVTEZ-2485
p1479
aVTEZ-2484
p1480
aVTEZ-2483
p1481
aVTEZ-2482
p1482
aVTEZ-2481
p1483
aVTEZ-2480
p1484
aVTEZ-2479
p1485
aVTEZ-2478
p1486
aVTEZ-2477
p1487
aVTEZ-2476
p1488
aVTEZ-2475
p1489
aVTEZ-2474
p1490
aVTEZ-2473
p1491
aVTEZ-2472
p1492
aVTEZ-2471
p1493
aVTEZ-2470
p1494
aVTEZ-2469
p1495
aVTEZ-2468
p1496
aVTEZ-2467
p1497
aVTEZ-2466
p1498
aVTEZ-2465
p1499
aVTEZ-2464
p1500
aVTEZ-2463
p1501
aVTEZ-2462
p1502
aVTEZ-2461
p1503
aVTEZ-2460
p1504
aVTEZ-2459
p1505
aVTEZ-2458
p1506
aVTEZ-2457
p1507
aVTEZ-2456
p1508
aVTEZ-2455
p1509
aVTEZ-2454
p1510
aVTEZ-2453
p1511
aVTEZ-2452
p1512
aVTEZ-2451
p1513
aVTEZ-2450
p1514
aVTEZ-2449
p1515
aVTEZ-2448
p1516
aVTEZ-2447
p1517
aVTEZ-2446
p1518
aVTEZ-2445
p1519
aVTEZ-2444
p1520
aVTEZ-2443
p1521
aVTEZ-2442
p1522
aVTEZ-2441
p1523
aVTEZ-2440
p1524
aVTEZ-2439
p1525
aVTEZ-2438
p1526
aVTEZ-2437
p1527
aVTEZ-2436
p1528
aVTEZ-2435
p1529
aVTEZ-2434
p1530
aVTEZ-2433
p1531
aVTEZ-2432
p1532
aVTEZ-2431
p1533
aVTEZ-2430
p1534
aVTEZ-2429
p1535
aVTEZ-2428
p1536
aVTEZ-2427
p1537
aVTEZ-2426
p1538
aVTEZ-2425
p1539
aVTEZ-2424
p1540
aVTEZ-2423
p1541
aVTEZ-2422
p1542
aVTEZ-2421
p1543
aVTEZ-2420
p1544
aVTEZ-2419
p1545
aVTEZ-2418
p1546
aVTEZ-2417
p1547
aVTEZ-2416
p1548
aVTEZ-2415
p1549
aVTEZ-2414
p1550
aVTEZ-2413
p1551
aVTEZ-2412
p1552
aVTEZ-2411
p1553
aVTEZ-2410
p1554
aVTEZ-2409
p1555
aVTEZ-2408
p1556
aVTEZ-2407
p1557
aVTEZ-2406
p1558
aVTEZ-2405
p1559
aVTEZ-2404
p1560
aVTEZ-2403
p1561
aVTEZ-2402
p1562
aVTEZ-2401
p1563
aVTEZ-2400
p1564
aVTEZ-2399
p1565
aVTEZ-2398
p1566
aVTEZ-2397
p1567
aVTEZ-2396
p1568
aVTEZ-2395
p1569
aVTEZ-2394
p1570
aVTEZ-2393
p1571
aVTEZ-2392
p1572
aVTEZ-2391
p1573
aVTEZ-2390
p1574
aVTEZ-2389
p1575
aVTEZ-2388
p1576
aVTEZ-2387
p1577
aVTEZ-2386
p1578
aVTEZ-2385
p1579
aVTEZ-2384
p1580
aVTEZ-2383
p1581
aVTEZ-2382
p1582
aVTEZ-2381
p1583
aVTEZ-2380
p1584
aVTEZ-2379
p1585
aVTEZ-2378
p1586
aVTEZ-2377
p1587
aVTEZ-2376
p1588
aVTEZ-2375
p1589
aVTEZ-2374
p1590
aVTEZ-2373
p1591
aVTEZ-2372
p1592
aVTEZ-2370
p1593
aVTEZ-2369
p1594
aVTEZ-2368
p1595
aVTEZ-2367
p1596
aVTEZ-2366
p1597
aVTEZ-2365
p1598
aVTEZ-2364
p1599
aVTEZ-2363
p1600
aVTEZ-2362
p1601
aVTEZ-2361
p1602
aVTEZ-2360
p1603
aVTEZ-2359
p1604
aVTEZ-2358
p1605
aVTEZ-2357
p1606
aVTEZ-2356
p1607
aVTEZ-2355
p1608
aVTEZ-2354
p1609
aVTEZ-2353
p1610
aVTEZ-2352
p1611
aVTEZ-2351
p1612
aVTEZ-2350
p1613
aVTEZ-2349
p1614
aVTEZ-2348
p1615
aVTEZ-2347
p1616
aVTEZ-2346
p1617
aVTEZ-2345
p1618
aVTEZ-2344
p1619
aVTEZ-2343
p1620
aVTEZ-2342
p1621
aVTEZ-2341
p1622
aVTEZ-2340
p1623
aVTEZ-2339
p1624
aVTEZ-2338
p1625
aVTEZ-2337
p1626
aVTEZ-2336
p1627
aVTEZ-2335
p1628
aVTEZ-2334
p1629
aVTEZ-2333
p1630
aVTEZ-2332
p1631
aVTEZ-2331
p1632
aVTEZ-2330
p1633
aVTEZ-2329
p1634
aVTEZ-2328
p1635
aVTEZ-2327
p1636
aVTEZ-2326
p1637
aVTEZ-2325
p1638
aVTEZ-2324
p1639
aVTEZ-2323
p1640
aVTEZ-2322
p1641
aVTEZ-2321
p1642
aVTEZ-2320
p1643
aVTEZ-2319
p1644
aVTEZ-2318
p1645
aVTEZ-2317
p1646
aVTEZ-2316
p1647
aVTEZ-2315
p1648
aVTEZ-2314
p1649
aVTEZ-2313
p1650
aVTEZ-2312
p1651
aVTEZ-2311
p1652
aVTEZ-2310
p1653
aVTEZ-2309
p1654
aVTEZ-2308
p1655
aVTEZ-2307
p1656
aVTEZ-2306
p1657
aVTEZ-2305
p1658
aVTEZ-2304
p1659
aVTEZ-2303
p1660
aVTEZ-2302
p1661
aVTEZ-2301
p1662
aVTEZ-2300
p1663
aVTEZ-2299
p1664
aVTEZ-2298
p1665
aVTEZ-2297
p1666
aVTEZ-2296
p1667
aVTEZ-2295
p1668
aVTEZ-2294
p1669
aVTEZ-2293
p1670
aVTEZ-2292
p1671
aVTEZ-2291
p1672
aVTEZ-2290
p1673
aVTEZ-2289
p1674
aVTEZ-2288
p1675
aVTEZ-2287
p1676
aVTEZ-2286
p1677
aVTEZ-2285
p1678
aVTEZ-2284
p1679
aVTEZ-2283
p1680
aVTEZ-2282
p1681
aVTEZ-2281
p1682
aVTEZ-2280
p1683
aVTEZ-2279
p1684
aVTEZ-2278
p1685
aVTEZ-2277
p1686
aVTEZ-2276
p1687
aVTEZ-2275
p1688
aVTEZ-2274
p1689
aVTEZ-2273
p1690
aVTEZ-2272
p1691
aVTEZ-2271
p1692
aVTEZ-2270
p1693
aVTEZ-2269
p1694
aVTEZ-2268
p1695
aVTEZ-2267
p1696
aVTEZ-2266
p1697
aVTEZ-2265
p1698
aVTEZ-2264
p1699
aVTEZ-2263
p1700
aVTEZ-2262
p1701
aVTEZ-2261
p1702
aVTEZ-2260
p1703
aVTEZ-2259
p1704
aVTEZ-2258
p1705
aVTEZ-2257
p1706
aVTEZ-2256
p1707
aVTEZ-2255
p1708
aVTEZ-2254
p1709
aVTEZ-2253
p1710
aVTEZ-2252
p1711
aVTEZ-2251
p1712
aVTEZ-2250
p1713
aVTEZ-2249
p1714
aVTEZ-2248
p1715
aVTEZ-2247
p1716
aVTEZ-2246
p1717
aVTEZ-2245
p1718
aVTEZ-2244
p1719
aVTEZ-2243
p1720
aVTEZ-2242
p1721
aVTEZ-2241
p1722
aVTEZ-2240
p1723
aVTEZ-2239
p1724
aVTEZ-2238
p1725
aVTEZ-2237
p1726
aVTEZ-2236
p1727
aVTEZ-2235
p1728
aVTEZ-2234
p1729
aVTEZ-2233
p1730
aVTEZ-2232
p1731
aVTEZ-2231
p1732
aVTEZ-2230
p1733
aVTEZ-2229
p1734
aVTEZ-2228
p1735
aVTEZ-2227
p1736
aVTEZ-2226
p1737
aVTEZ-2225
p1738
aVTEZ-2224
p1739
aVTEZ-2223
p1740
aVTEZ-2222
p1741
aVTEZ-2221
p1742
aVTEZ-2220
p1743
aVTEZ-2219
p1744
aVTEZ-2218
p1745
aVTEZ-2217
p1746
aVTEZ-2216
p1747
aVTEZ-2215
p1748
aVTEZ-2214
p1749
aVTEZ-2213
p1750
aVTEZ-2212
p1751
aVTEZ-2211
p1752
aVTEZ-2210
p1753
aVTEZ-2209
p1754
aVTEZ-2208
p1755
aVTEZ-2207
p1756
aVTEZ-2206
p1757
aVTEZ-2205
p1758
aVTEZ-2204
p1759
aVTEZ-2203
p1760
aVTEZ-2202
p1761
aVTEZ-2201
p1762
aVTEZ-2200
p1763
aVTEZ-2199
p1764
aVTEZ-2198
p1765
aVTEZ-2197
p1766
aVTEZ-2196
p1767
aVTEZ-2195
p1768
aVTEZ-2194
p1769
aVTEZ-2193
p1770
aVTEZ-2192
p1771
aVTEZ-2191
p1772
aVTEZ-2190
p1773
aVTEZ-2189
p1774
aVTEZ-2188
p1775
aVTEZ-2187
p1776
aVTEZ-2186
p1777
aVTEZ-2185
p1778
aVTEZ-2184
p1779
aVTEZ-2183
p1780
aVTEZ-2182
p1781
aVTEZ-2181
p1782
aVTEZ-2180
p1783
aVTEZ-2179
p1784
aVTEZ-2178
p1785
aVTEZ-2177
p1786
aVTEZ-2176
p1787
aVTEZ-2175
p1788
aVTEZ-2174
p1789
aVTEZ-2173
p1790
aVTEZ-2172
p1791
aVTEZ-2171
p1792
aVTEZ-2170
p1793
aVTEZ-2169
p1794
aVTEZ-2168
p1795
aVTEZ-2167
p1796
aVTEZ-2166
p1797
aVTEZ-2165
p1798
aVTEZ-2164
p1799
aVTEZ-2163
p1800
aVTEZ-2162
p1801
aVTEZ-2161
p1802
aVTEZ-2160
p1803
aVTEZ-2159
p1804
aVTEZ-2158
p1805
aVTEZ-2157
p1806
aVTEZ-2156
p1807
aVTEZ-2155
p1808
aVTEZ-2154
p1809
aVTEZ-2153
p1810
aVTEZ-2152
p1811
aVTEZ-2151
p1812
aVTEZ-2150
p1813
aVTEZ-2149
p1814
aVTEZ-2148
p1815
aVTEZ-2147
p1816
aVTEZ-2146
p1817
aVTEZ-2145
p1818
aVTEZ-2144
p1819
aVTEZ-2143
p1820
aVTEZ-2142
p1821
aVTEZ-2141
p1822
aVTEZ-2140
p1823
aVTEZ-2139
p1824
aVTEZ-2138
p1825
aVTEZ-2137
p1826
aVTEZ-2136
p1827
aVTEZ-2135
p1828
aVTEZ-2134
p1829
aVTEZ-2133
p1830
aVTEZ-2132
p1831
aVTEZ-2131
p1832
aVTEZ-2130
p1833
aVTEZ-2129
p1834
aVTEZ-2128
p1835
aVTEZ-2127
p1836
aVTEZ-2126
p1837
aVTEZ-2125
p1838
aVTEZ-2124
p1839
aVTEZ-2123
p1840
aVTEZ-2122
p1841
aVTEZ-2121
p1842
aVTEZ-2120
p1843
aVTEZ-2119
p1844
aVTEZ-2118
p1845
aVTEZ-2117
p1846
aVTEZ-2116
p1847
aVTEZ-2115
p1848
aVTEZ-2114
p1849
aVTEZ-2113
p1850
aVTEZ-2112
p1851
aVTEZ-2111
p1852
aVTEZ-2110
p1853
aVTEZ-2109
p1854
aVTEZ-2108
p1855
aVTEZ-2107
p1856
aVTEZ-2106
p1857
aVTEZ-2105
p1858
aVTEZ-2104
p1859
aVTEZ-2103
p1860
aVTEZ-2102
p1861
aVTEZ-2101
p1862
aVTEZ-2100
p1863
aVTEZ-2099
p1864
aVTEZ-2098
p1865
aVTEZ-2097
p1866
aVTEZ-2096
p1867
aVTEZ-2095
p1868
aVTEZ-2094
p1869
aVTEZ-2093
p1870
aVTEZ-2092
p1871
aVTEZ-2091
p1872
aVTEZ-2090
p1873
aVTEZ-2089
p1874
aVTEZ-2088
p1875
aVTEZ-2087
p1876
aVTEZ-2086
p1877
aVTEZ-2085
p1878
aVTEZ-2084
p1879
aVTEZ-2083
p1880
aVTEZ-2082
p1881
aVTEZ-2081
p1882
aVTEZ-2080
p1883
aVTEZ-2079
p1884
aVTEZ-2078
p1885
aVTEZ-2077
p1886
aVTEZ-2076
p1887
aVTEZ-2075
p1888
aVTEZ-2074
p1889
aVTEZ-2073
p1890
aVTEZ-2072
p1891
aVTEZ-2071
p1892
aVTEZ-2070
p1893
aVTEZ-2069
p1894
aVTEZ-2068
p1895
aVTEZ-2067
p1896
aVTEZ-2066
p1897
aVTEZ-2065
p1898
aVTEZ-2064
p1899
aVTEZ-2063
p1900
aVTEZ-2062
p1901
aVTEZ-2061
p1902
aVTEZ-2060
p1903
aVTEZ-2059
p1904
aVTEZ-2058
p1905
aVTEZ-2057
p1906
aVTEZ-2056
p1907
aVTEZ-2055
p1908
aVTEZ-2054
p1909
aVTEZ-2053
p1910
aVTEZ-2052
p1911
aVTEZ-2051
p1912
aVTEZ-2050
p1913
aVTEZ-2049
p1914
aVTEZ-2048
p1915
aVTEZ-2047
p1916
aVTEZ-2046
p1917
aVTEZ-2045
p1918
aVTEZ-2044
p1919
aVTEZ-2043
p1920
aVTEZ-2042
p1921
aVTEZ-2041
p1922
aVTEZ-2040
p1923
aVTEZ-2039
p1924
aVTEZ-2038
p1925
aVTEZ-2037
p1926
aVTEZ-2036
p1927
aVTEZ-2035
p1928
aVTEZ-2033
p1929
aVTEZ-2032
p1930
aVTEZ-2031
p1931
aVTEZ-2030
p1932
aVTEZ-2029
p1933
aVTEZ-2028
p1934
aVTEZ-2027
p1935
aVTEZ-2026
p1936
aVTEZ-2025
p1937
aVTEZ-2024
p1938
aVTEZ-2023
p1939
aVTEZ-2022
p1940
aVTEZ-2021
p1941
aVTEZ-2020
p1942
aVTEZ-2019
p1943
aVTEZ-2018
p1944
aVTEZ-2017
p1945
aVTEZ-2016
p1946
aVTEZ-2015
p1947
aVTEZ-2014
p1948
aVTEZ-2013
p1949
aVTEZ-2012
p1950
aVTEZ-2011
p1951
aVTEZ-2010
p1952
aVTEZ-2009
p1953
aVTEZ-2008
p1954
aVTEZ-2007
p1955
aVTEZ-2006
p1956
aVTEZ-2005
p1957
aVTEZ-2004
p1958
aVTEZ-2003
p1959
aVTEZ-2002
p1960
aVTEZ-2001
p1961
aVTEZ-2000
p1962
aVTEZ-1999
p1963
aVTEZ-1998
p1964
aVTEZ-1997
p1965
aVTEZ-1996
p1966
aVTEZ-1995
p1967
aVTEZ-1994
p1968
aVTEZ-1993
p1969
aVTEZ-1992
p1970
aVTEZ-1991
p1971
aVTEZ-1990
p1972
aVTEZ-1989
p1973
aVTEZ-1988
p1974
aVTEZ-1987
p1975
aVTEZ-1986
p1976
aVTEZ-1985
p1977
aVTEZ-1984
p1978
aVTEZ-1983
p1979
aVTEZ-1982
p1980
aVTEZ-1981
p1981
aVTEZ-1980
p1982
aVTEZ-1979
p1983
aVTEZ-1978
p1984
aVTEZ-1977
p1985
aVTEZ-1976
p1986
aVTEZ-1975
p1987
aVTEZ-1974
p1988
aVTEZ-1973
p1989
aVTEZ-1972
p1990
aVTEZ-1971
p1991
aVTEZ-1970
p1992
aVTEZ-1969
p1993
aVTEZ-1968
p1994
aVTEZ-1967
p1995
aVTEZ-1966
p1996
aVTEZ-1965
p1997
aVTEZ-1964
p1998
aVTEZ-1963
p1999
aVTEZ-1962
p2000
aVTEZ-1961
p2001
aVTEZ-1960
p2002
aVTEZ-1959
p2003
aVTEZ-1958
p2004
aVTEZ-1957
p2005
aVTEZ-1956
p2006
aVTEZ-1955
p2007
aVTEZ-1954
p2008
aVTEZ-1953
p2009
aVTEZ-1952
p2010
aVTEZ-1951
p2011
aVTEZ-1950
p2012
aVTEZ-1949
p2013
aVTEZ-1948
p2014
aVTEZ-1947
p2015
aVTEZ-1946
p2016
aVTEZ-1945
p2017
aVTEZ-1944
p2018
aVTEZ-1943
p2019
aVTEZ-1942
p2020
aVTEZ-1941
p2021
aVTEZ-1940
p2022
aVTEZ-1939
p2023
aVTEZ-1938
p2024
aVTEZ-1937
p2025
aVTEZ-1936
p2026
aVTEZ-1935
p2027
aVTEZ-1934
p2028
aVTEZ-1933
p2029
aVTEZ-1932
p2030
aVTEZ-1931
p2031
aVTEZ-1930
p2032
aVTEZ-1929
p2033
aVTEZ-1928
p2034
aVTEZ-1927
p2035
aVTEZ-1926
p2036
aVTEZ-1925
p2037
aVTEZ-1924
p2038
aVTEZ-1923
p2039
aVTEZ-1922
p2040
aVTEZ-1921
p2041
aVTEZ-1920
p2042
aVTEZ-1919
p2043
aVTEZ-1918
p2044
aVTEZ-1917
p2045
aVTEZ-1916
p2046
aVTEZ-1915
p2047
aVTEZ-1914
p2048
aVTEZ-1913
p2049
aVTEZ-1912
p2050
aVTEZ-1911
p2051
aVTEZ-1910
p2052
aVTEZ-1909
p2053
aVTEZ-1908
p2054
aVTEZ-1907
p2055
aVTEZ-1906
p2056
aVTEZ-1905
p2057
aVTEZ-1904
p2058
aVTEZ-1903
p2059
aVTEZ-1902
p2060
aVTEZ-1901
p2061
aVTEZ-1900
p2062
aVTEZ-1899
p2063
aVTEZ-1898
p2064
aVTEZ-1897
p2065
aVTEZ-1896
p2066
aVTEZ-1895
p2067
aVTEZ-1894
p2068
aVTEZ-1893
p2069
aVTEZ-1892
p2070
aVTEZ-1891
p2071
aVTEZ-1890
p2072
aVTEZ-1889
p2073
aVTEZ-1888
p2074
aVTEZ-1887
p2075
aVTEZ-1886
p2076
aVTEZ-1885
p2077
aVTEZ-1884
p2078
aVTEZ-1883
p2079
aVTEZ-1882
p2080
aVTEZ-1881
p2081
aVTEZ-1880
p2082
aVTEZ-1879
p2083
aVTEZ-1878
p2084
aVTEZ-1877
p2085
aVTEZ-1876
p2086
aVTEZ-1875
p2087
aVTEZ-1874
p2088
aVTEZ-1873
p2089
aVTEZ-1872
p2090
aVTEZ-1871
p2091
aVTEZ-1870
p2092
aVTEZ-1869
p2093
aVTEZ-1868
p2094
aVTEZ-1867
p2095
aVTEZ-1866
p2096
aVTEZ-1865
p2097
aVTEZ-1864
p2098
aVTEZ-1863
p2099
aVTEZ-1862
p2100
aVTEZ-1861
p2101
aVTEZ-1860
p2102
aVTEZ-1859
p2103
aVTEZ-1858
p2104
aVTEZ-1857
p2105
aVTEZ-1856
p2106
aVTEZ-1855
p2107
aVTEZ-1854
p2108
aVTEZ-1853
p2109
aVTEZ-1852
p2110
aVTEZ-1851
p2111
aVTEZ-1850
p2112
aVTEZ-1849
p2113
aVTEZ-1848
p2114
aVTEZ-1847
p2115
aVTEZ-1846
p2116
aVTEZ-1845
p2117
aVTEZ-1844
p2118
aVTEZ-1843
p2119
aVTEZ-1842
p2120
aVTEZ-1841
p2121
aVTEZ-1840
p2122
aVTEZ-1839
p2123
aVTEZ-1838
p2124
aVTEZ-1837
p2125
aVTEZ-1836
p2126
aVTEZ-1835
p2127
aVTEZ-1834
p2128
aVTEZ-1833
p2129
aVTEZ-1832
p2130
aVTEZ-1831
p2131
aVTEZ-1830
p2132
aVTEZ-1829
p2133
aVTEZ-1828
p2134
aVTEZ-1827
p2135
aVTEZ-1826
p2136
aVTEZ-1825
p2137
aVTEZ-1824
p2138
aVTEZ-1823
p2139
aVTEZ-1822
p2140
aVTEZ-1821
p2141
aVTEZ-1820
p2142
aVTEZ-1819
p2143
aVTEZ-1818
p2144
aVTEZ-1817
p2145
aVTEZ-1816
p2146
aVTEZ-1815
p2147
aVTEZ-1814
p2148
aVTEZ-1813
p2149
aVTEZ-1812
p2150
aVTEZ-1811
p2151
aVTEZ-1810
p2152
aVTEZ-1809
p2153
aVTEZ-1808
p2154
aVTEZ-1807
p2155
aVTEZ-1806
p2156
aVTEZ-1805
p2157
aVTEZ-1804
p2158
aVTEZ-1803
p2159
aVTEZ-1802
p2160
aVTEZ-1801
p2161
aVTEZ-1800
p2162
aVTEZ-1799
p2163
aVTEZ-1798
p2164
aVTEZ-1797
p2165
aVTEZ-1796
p2166
aVTEZ-1795
p2167
aVTEZ-1794
p2168
aVTEZ-1793
p2169
aVTEZ-1792
p2170
aVTEZ-1791
p2171
aVTEZ-1790
p2172
aVTEZ-1789
p2173
aVTEZ-1788
p2174
aVTEZ-1787
p2175
aVTEZ-1786
p2176
aVTEZ-1785
p2177
aVTEZ-1784
p2178
aVTEZ-1783
p2179
aVTEZ-1782
p2180
aVTEZ-1781
p2181
aVTEZ-1780
p2182
aVTEZ-1779
p2183
aVTEZ-1778
p2184
aVTEZ-1777
p2185
aVTEZ-1776
p2186
aVTEZ-1775
p2187
aVTEZ-1774
p2188
aVTEZ-1773
p2189
aVTEZ-1772
p2190
aVTEZ-1771
p2191
aVTEZ-1770
p2192
aVTEZ-1769
p2193
aVTEZ-1768
p2194
aVTEZ-1767
p2195
aVTEZ-1766
p2196
aVTEZ-1765
p2197
aVTEZ-1764
p2198
aVTEZ-1763
p2199
aVTEZ-1762
p2200
aVTEZ-1761
p2201
aVTEZ-1760
p2202
aVTEZ-1759
p2203
aVTEZ-1758
p2204
aVTEZ-1757
p2205
aVTEZ-1756
p2206
aVTEZ-1755
p2207
aVTEZ-1754
p2208
aVTEZ-1753
p2209
aVTEZ-1752
p2210
aVTEZ-1751
p2211
aVTEZ-1750
p2212
aVTEZ-1749
p2213
aVTEZ-1748
p2214
aVTEZ-1747
p2215
aVTEZ-1746
p2216
aVTEZ-1745
p2217
aVTEZ-1744
p2218
aVTEZ-1743
p2219
aVTEZ-1742
p2220
aVTEZ-1741
p2221
aVTEZ-1740
p2222
aVTEZ-1739
p2223
aVTEZ-1738
p2224
aVTEZ-1737
p2225
aVTEZ-1736
p2226
aVTEZ-1735
p2227
aVTEZ-1734
p2228
aVTEZ-1733
p2229
aVTEZ-1732
p2230
aVTEZ-1731
p2231
aVTEZ-1730
p2232
aVTEZ-1729
p2233
aVTEZ-1728
p2234
aVTEZ-1727
p2235
aVTEZ-1726
p2236
aVTEZ-1725
p2237
aVTEZ-1724
p2238
aVTEZ-1723
p2239
aVTEZ-1722
p2240
aVTEZ-1721
p2241
aVTEZ-1720
p2242
aVTEZ-1719
p2243
aVTEZ-1718
p2244
aVTEZ-1717
p2245
aVTEZ-1716
p2246
aVTEZ-1715
p2247
aVTEZ-1714
p2248
aVTEZ-1713
p2249
aVTEZ-1712
p2250
aVTEZ-1711
p2251
aVTEZ-1710
p2252
aVTEZ-1709
p2253
aVTEZ-1708
p2254
aVTEZ-1707
p2255
aVTEZ-1706
p2256
aVTEZ-1705
p2257
aVTEZ-1704
p2258
aVTEZ-1703
p2259
aVTEZ-1702
p2260
aVTEZ-1701
p2261
aVTEZ-1700
p2262
aVTEZ-1699
p2263
aVTEZ-1698
p2264
aVTEZ-1697
p2265
aVTEZ-1696
p2266
aVTEZ-1695
p2267
aVTEZ-1694
p2268
aVTEZ-1693
p2269
aVTEZ-1692
p2270
aVTEZ-1691
p2271
aVTEZ-1690
p2272
aVTEZ-1689
p2273
aVTEZ-1688
p2274
aVTEZ-1687
p2275
aVTEZ-1686
p2276
aVTEZ-1685
p2277
aVTEZ-1684
p2278
aVTEZ-1683
p2279
aVTEZ-1682
p2280
aVTEZ-1681
p2281
aVTEZ-1680
p2282
aVTEZ-1679
p2283
aVTEZ-1678
p2284
aVTEZ-1677
p2285
aVTEZ-1676
p2286
aVTEZ-1675
p2287
aVTEZ-1674
p2288
aVTEZ-1673
p2289
aVTEZ-1672
p2290
aVTEZ-1671
p2291
aVTEZ-1670
p2292
aVTEZ-1669
p2293
aVTEZ-1668
p2294
aVTEZ-1667
p2295
aVTEZ-1666
p2296
aVTEZ-1665
p2297
aVTEZ-1664
p2298
aVTEZ-1663
p2299
aVTEZ-1662
p2300
aVTEZ-1661
p2301
aVTEZ-1660
p2302
aVTEZ-1659
p2303
aVTEZ-1658
p2304
aVTEZ-1657
p2305
aVTEZ-1656
p2306
aVTEZ-1655
p2307
aVTEZ-1654
p2308
aVTEZ-1653
p2309
aVTEZ-1652
p2310
aVTEZ-1651
p2311
aVTEZ-1650
p2312
aVTEZ-1649
p2313
aVTEZ-1648
p2314
aVTEZ-1647
p2315
aVTEZ-1646
p2316
aVTEZ-1645
p2317
aVTEZ-1644
p2318
aVTEZ-1643
p2319
aVTEZ-1642
p2320
aVTEZ-1641
p2321
aVTEZ-1640
p2322
aVTEZ-1639
p2323
aVTEZ-1638
p2324
aVTEZ-1637
p2325
aVTEZ-1636
p2326
aVTEZ-1635
p2327
aVTEZ-1634
p2328
aVTEZ-1633
p2329
aVTEZ-1632
p2330
aVTEZ-1631
p2331
aVTEZ-1630
p2332
aVTEZ-1629
p2333
aVTEZ-1628
p2334
aVTEZ-1627
p2335
aVTEZ-1626
p2336
aVTEZ-1625
p2337
aVTEZ-1624
p2338
aVTEZ-1623
p2339
aVTEZ-1622
p2340
aVTEZ-1621
p2341
aVTEZ-1620
p2342
aVTEZ-1619
p2343
aVTEZ-1618
p2344
aVTEZ-1617
p2345
aVTEZ-1616
p2346
aVTEZ-1615
p2347
aVTEZ-1614
p2348
aVTEZ-1613
p2349
aVTEZ-1612
p2350
aVTEZ-1611
p2351
aVTEZ-1610
p2352
aVTEZ-1609
p2353
aVTEZ-1608
p2354
aVTEZ-1607
p2355
aVTEZ-1606
p2356
aVTEZ-1605
p2357
aVTEZ-1604
p2358
aVTEZ-1603
p2359
aVTEZ-1602
p2360
aVTEZ-1601
p2361
aVTEZ-1600
p2362
aVTEZ-1599
p2363
aVTEZ-1598
p2364
aVTEZ-1597
p2365
aVTEZ-1596
p2366
aVTEZ-1595
p2367
aVTEZ-1594
p2368
aVTEZ-1593
p2369
aVTEZ-1592
p2370
aVTEZ-1591
p2371
aVTEZ-1590
p2372
aVTEZ-1589
p2373
aVTEZ-1588
p2374
aVTEZ-1587
p2375
aVTEZ-1586
p2376
aVTEZ-1585
p2377
aVTEZ-1584
p2378
aVTEZ-1583
p2379
aVTEZ-1582
p2380
aVTEZ-1581
p2381
aVTEZ-1580
p2382
aVTEZ-1579
p2383
aVTEZ-1578
p2384
aVTEZ-1577
p2385
aVTEZ-1576
p2386
aVTEZ-1575
p2387
aVTEZ-1574
p2388
aVTEZ-1573
p2389
aVTEZ-1572
p2390
aVTEZ-1571
p2391
aVTEZ-1570
p2392
aVTEZ-1569
p2393
aVTEZ-1568
p2394
aVTEZ-1567
p2395
aVTEZ-1566
p2396
aVTEZ-1565
p2397
aVTEZ-1564
p2398
aVTEZ-1563
p2399
aVTEZ-1562
p2400
aVTEZ-1561
p2401
aVTEZ-1560
p2402
aVTEZ-1559
p2403
aVTEZ-1558
p2404
aVTEZ-1557
p2405
aVTEZ-1556
p2406
aVTEZ-1555
p2407
aVTEZ-1554
p2408
aVTEZ-1553
p2409
aVTEZ-1552
p2410
aVTEZ-1551
p2411
aVTEZ-1550
p2412
aVTEZ-1549
p2413
aVTEZ-1548
p2414
aVTEZ-1547
p2415
aVTEZ-1546
p2416
aVTEZ-1545
p2417
aVTEZ-1544
p2418
aVTEZ-1543
p2419
aVTEZ-1542
p2420
aVTEZ-1541
p2421
aVTEZ-1540
p2422
aVTEZ-1539
p2423
aVTEZ-1538
p2424
aVTEZ-1537
p2425
aVTEZ-1536
p2426
aVTEZ-1535
p2427
aVTEZ-1534
p2428
aVTEZ-1533
p2429
aVTEZ-1532
p2430
aVTEZ-1531
p2431
aVTEZ-1530
p2432
aVTEZ-1529
p2433
aVTEZ-1528
p2434
aVTEZ-1527
p2435
aVTEZ-1526
p2436
aVTEZ-1525
p2437
aVTEZ-1524
p2438
aVTEZ-1523
p2439
aVTEZ-1522
p2440
aVTEZ-1521
p2441
aVTEZ-1520
p2442
aVTEZ-1519
p2443
aVTEZ-1518
p2444
aVTEZ-1517
p2445
aVTEZ-1516
p2446
aVTEZ-1515
p2447
aVTEZ-1514
p2448
aVTEZ-1513
p2449
aVTEZ-1512
p2450
aVTEZ-1511
p2451
aVTEZ-1510
p2452
aVTEZ-1509
p2453
aVTEZ-1508
p2454
aVTEZ-1507
p2455
aVTEZ-1506
p2456
aVTEZ-1505
p2457
aVTEZ-1504
p2458
aVTEZ-1503
p2459
aVTEZ-1502
p2460
aVTEZ-1501
p2461
aVTEZ-1500
p2462
aVTEZ-1499
p2463
aVTEZ-1498
p2464
aVTEZ-1497
p2465
aVTEZ-1496
p2466
aVTEZ-1495
p2467
aVTEZ-1494
p2468
aVTEZ-1493
p2469
aVTEZ-1492
p2470
aVTEZ-1491
p2471
aVTEZ-1490
p2472
aVTEZ-1489
p2473
aVTEZ-1488
p2474
aVTEZ-1487
p2475
aVTEZ-1486
p2476
aVTEZ-1485
p2477
aVTEZ-1484
p2478
aVTEZ-1483
p2479
aVTEZ-1482
p2480
aVTEZ-1481
p2481
aVTEZ-1480
p2482
aVTEZ-1479
p2483
aVTEZ-1478
p2484
aVTEZ-1477
p2485
aVTEZ-1476
p2486
aVTEZ-1475
p2487
aVTEZ-1474
p2488
aVTEZ-1473
p2489
aVTEZ-1472
p2490
aVTEZ-1471
p2491
aVTEZ-1470
p2492
aVTEZ-1469
p2493
aVTEZ-1468
p2494
aVTEZ-1467
p2495
aVTEZ-1466
p2496
aVTEZ-1465
p2497
aVTEZ-1464
p2498
aVTEZ-1463
p2499
aVTEZ-1462
p2500
aVTEZ-1461
p2501
aVTEZ-1460
p2502
aVTEZ-1459
p2503
aVTEZ-1458
p2504
aVTEZ-1457
p2505
aVTEZ-1456
p2506
aVTEZ-1455
p2507
aVTEZ-1454
p2508
aVTEZ-1453
p2509
aVTEZ-1452
p2510
aVTEZ-1451
p2511
aVTEZ-1450
p2512
aVTEZ-1449
p2513
aVTEZ-1448
p2514
aVTEZ-1447
p2515
aVTEZ-1446
p2516
aVTEZ-1445
p2517
aVTEZ-1444
p2518
aVTEZ-1443
p2519
aVTEZ-1442
p2520
aVTEZ-1441
p2521
aVTEZ-1440
p2522
aVTEZ-1439
p2523
aVTEZ-1438
p2524
aVTEZ-1437
p2525
aVTEZ-1436
p2526
aVTEZ-1435
p2527
aVTEZ-1434
p2528
aVTEZ-1433
p2529
aVTEZ-1432
p2530
aVTEZ-1431
p2531
aVTEZ-1430
p2532
aVTEZ-1429
p2533
aVTEZ-1428
p2534
aVTEZ-1427
p2535
aVTEZ-1426
p2536
aVTEZ-1425
p2537
aVTEZ-1424
p2538
aVTEZ-1423
p2539
aVTEZ-1422
p2540
aVTEZ-1421
p2541
aVTEZ-1420
p2542
aVTEZ-1419
p2543
aVTEZ-1418
p2544
aVTEZ-1417
p2545
aVTEZ-1416
p2546
aVTEZ-1415
p2547
aVTEZ-1414
p2548
aVTEZ-1413
p2549
aVTEZ-1412
p2550
aVTEZ-1411
p2551
aVTEZ-1410
p2552
aVTEZ-1409
p2553
aVTEZ-1408
p2554
aVTEZ-1407
p2555
aVTEZ-1406
p2556
aVTEZ-1405
p2557
aVTEZ-1404
p2558
aVTEZ-1403
p2559
aVTEZ-1402
p2560
aVTEZ-1401
p2561
aVTEZ-1400
p2562
aVTEZ-1399
p2563
aVTEZ-1398
p2564
aVTEZ-1397
p2565
aVTEZ-1396
p2566
aVTEZ-1395
p2567
aVTEZ-1394
p2568
aVTEZ-1393
p2569
aVTEZ-1392
p2570
aVTEZ-1391
p2571
aVTEZ-1390
p2572
aVTEZ-1389
p2573
aVTEZ-1388
p2574
aVTEZ-1387
p2575
aVTEZ-1386
p2576
aVTEZ-1385
p2577
aVTEZ-1384
p2578
aVTEZ-1383
p2579
aVTEZ-1382
p2580
aVTEZ-1381
p2581
aVTEZ-1380
p2582
aVTEZ-1379
p2583
aVTEZ-1378
p2584
aVTEZ-1377
p2585
aVTEZ-1376
p2586
aVTEZ-1375
p2587
aVTEZ-1374
p2588
aVTEZ-1373
p2589
aVTEZ-1372
p2590
aVTEZ-1371
p2591
aVTEZ-1370
p2592
aVTEZ-1369
p2593
aVTEZ-1368
p2594
aVTEZ-1367
p2595
aVTEZ-1366
p2596
aVTEZ-1365
p2597
aVTEZ-1364
p2598
aVTEZ-1363
p2599
aVTEZ-1362
p2600
aVTEZ-1361
p2601
aVTEZ-1360
p2602
aVTEZ-1359
p2603
aVTEZ-1358
p2604
aVTEZ-1357
p2605
aVTEZ-1356
p2606
aVTEZ-1355
p2607
aVTEZ-1354
p2608
aVTEZ-1353
p2609
aVTEZ-1352
p2610
aVTEZ-1351
p2611
aVTEZ-1350
p2612
aVTEZ-1349
p2613
aVTEZ-1348
p2614
aVTEZ-1347
p2615
aVTEZ-1346
p2616
aVTEZ-1345
p2617
aVTEZ-1344
p2618
aVTEZ-1343
p2619
aVTEZ-1342
p2620
aVTEZ-1341
p2621
aVTEZ-1340
p2622
aVTEZ-1339
p2623
aVTEZ-1338
p2624
aVTEZ-1337
p2625
aVTEZ-1336
p2626
aVTEZ-1335
p2627
aVTEZ-1334
p2628
aVTEZ-1333
p2629
aVTEZ-1332
p2630
aVTEZ-1331
p2631
aVTEZ-1330
p2632
aVTEZ-1329
p2633
aVTEZ-1328
p2634
aVTEZ-1327
p2635
aVTEZ-1326
p2636
aVTEZ-1325
p2637
aVTEZ-1324
p2638
aVTEZ-1323
p2639
aVTEZ-1322
p2640
aVTEZ-1321
p2641
aVTEZ-1320
p2642
aVTEZ-1319
p2643
aVTEZ-1318
p2644
aVTEZ-1317
p2645
aVTEZ-1316
p2646
aVTEZ-1315
p2647
aVTEZ-1314
p2648
aVTEZ-1313
p2649
aVTEZ-1312
p2650
aVTEZ-1311
p2651
aVTEZ-1310
p2652
aVTEZ-1309
p2653
aVTEZ-1308
p2654
aVTEZ-1307
p2655
aVTEZ-1306
p2656
aVTEZ-1305
p2657
aVTEZ-1304
p2658
aVTEZ-1303
p2659
aVTEZ-1302
p2660
aVTEZ-1301
p2661
aVTEZ-1300
p2662
aVTEZ-1299
p2663
aVTEZ-1298
p2664
aVTEZ-1297
p2665
aVTEZ-1296
p2666
aVTEZ-1295
p2667
aVTEZ-1294
p2668
aVTEZ-1293
p2669
aVTEZ-1292
p2670
aVTEZ-1291
p2671
aVTEZ-1290
p2672
aVTEZ-1289
p2673
aVTEZ-1288
p2674
aVTEZ-1287
p2675
aVTEZ-1286
p2676
aVTEZ-1285
p2677
aVTEZ-1284
p2678
aVTEZ-1283
p2679
aVTEZ-1282
p2680
aVTEZ-1281
p2681
aVTEZ-1280
p2682
aVTEZ-1279
p2683
aVTEZ-1278
p2684
aVTEZ-1277
p2685
aVTEZ-1276
p2686
aVTEZ-1275
p2687
aVTEZ-1274
p2688
aVTEZ-1273
p2689
aVTEZ-1272
p2690
aVTEZ-1271
p2691
aVTEZ-1270
p2692
aVTEZ-1269
p2693
aVTEZ-1268
p2694
aVTEZ-1267
p2695
aVTEZ-1266
p2696
aVTEZ-1265
p2697
aVTEZ-1264
p2698
aVTEZ-1263
p2699
aVTEZ-1262
p2700
aVTEZ-1261
p2701
aVTEZ-1260
p2702
aVTEZ-1259
p2703
aVTEZ-1258
p2704
aVTEZ-1257
p2705
aVTEZ-1256
p2706
aVTEZ-1255
p2707
aVTEZ-1254
p2708
aVTEZ-1253
p2709
aVTEZ-1252
p2710
aVTEZ-1251
p2711
aVTEZ-1250
p2712
aVTEZ-1249
p2713
aVTEZ-1248
p2714
aVTEZ-1247
p2715
aVTEZ-1246
p2716
aVTEZ-1245
p2717
aVTEZ-1244
p2718
aVTEZ-1243
p2719
aVTEZ-1242
p2720
aVTEZ-1241
p2721
aVTEZ-1240
p2722
aVTEZ-1239
p2723
aVTEZ-1238
p2724
aVTEZ-1237
p2725
aVTEZ-1236
p2726
aVTEZ-1235
p2727
aVTEZ-1234
p2728
aVTEZ-1233
p2729
aVTEZ-1232
p2730
aVTEZ-1231
p2731
aVTEZ-1230
p2732
aVTEZ-1229
p2733
aVTEZ-1228
p2734
aVTEZ-1227
p2735
aVTEZ-1226
p2736
aVTEZ-1225
p2737
aVTEZ-1224
p2738
aVTEZ-1223
p2739
aVTEZ-1222
p2740
aVTEZ-1221
p2741
aVTEZ-1220
p2742
aVTEZ-1219
p2743
aVTEZ-1218
p2744
aVTEZ-1217
p2745
aVTEZ-1216
p2746
aVTEZ-1214
p2747
aVTEZ-1213
p2748
aVTEZ-1212
p2749
aVTEZ-1211
p2750
aVTEZ-1210
p2751
aVTEZ-1209
p2752
aVTEZ-1208
p2753
aVTEZ-1207
p2754
aVTEZ-1206
p2755
aVTEZ-1205
p2756
aVTEZ-1204
p2757
aVTEZ-1203
p2758
aVTEZ-1202
p2759
aVTEZ-1201
p2760
aVTEZ-1200
p2761
aVTEZ-1199
p2762
aVTEZ-1198
p2763
aVTEZ-1197
p2764
aVTEZ-1196
p2765
aVTEZ-1195
p2766
aVTEZ-1194
p2767
aVTEZ-1193
p2768
aVTEZ-1192
p2769
aVTEZ-1191
p2770
aVTEZ-1190
p2771
aVTEZ-1189
p2772
aVTEZ-1188
p2773
aVTEZ-1187
p2774
aVTEZ-1186
p2775
aVTEZ-1185
p2776
aVTEZ-1184
p2777
aVTEZ-1183
p2778
aVTEZ-1182
p2779
aVTEZ-1181
p2780
aVTEZ-1180
p2781
aVTEZ-1179
p2782
aVTEZ-1178
p2783
aVTEZ-1177
p2784
aVTEZ-1176
p2785
aVTEZ-1175
p2786
aVTEZ-1174
p2787
aVTEZ-1173
p2788
aVTEZ-1172
p2789
aVTEZ-1171
p2790
aVTEZ-1170
p2791
aVTEZ-1169
p2792
aVTEZ-1168
p2793
aVTEZ-1167
p2794
aVTEZ-1166
p2795
aVTEZ-1165
p2796
aVTEZ-1164
p2797
aVTEZ-1163
p2798
aVTEZ-1162
p2799
aVTEZ-1161
p2800
aVTEZ-1160
p2801
aVTEZ-1159
p2802
aVTEZ-1158
p2803
aVTEZ-1157
p2804
aVTEZ-1156
p2805
aVTEZ-1155
p2806
aVTEZ-1154
p2807
aVTEZ-1153
p2808
aVTEZ-1152
p2809
aVTEZ-1151
p2810
aVTEZ-1150
p2811
aVTEZ-1149
p2812
aVTEZ-1148
p2813
aVTEZ-1147
p2814
aVTEZ-1146
p2815
aVTEZ-1145
p2816
aVTEZ-1144
p2817
aVTEZ-1143
p2818
aVTEZ-1142
p2819
aVTEZ-1141
p2820
aVTEZ-1140
p2821
aVTEZ-1139
p2822
aVTEZ-1138
p2823
aVTEZ-1137
p2824
aVTEZ-1136
p2825
aVTEZ-1135
p2826
aVTEZ-1134
p2827
aVTEZ-1133
p2828
aVTEZ-1132
p2829
aVTEZ-1131
p2830
aVTEZ-1130
p2831
aVTEZ-1129
p2832
aVTEZ-1128
p2833
aVTEZ-1127
p2834
aVTEZ-1126
p2835
aVTEZ-1125
p2836
aVTEZ-1124
p2837
aVTEZ-1123
p2838
aVTEZ-1122
p2839
aVTEZ-1121
p2840
aVTEZ-1120
p2841
aVTEZ-1119
p2842
aVTEZ-1118
p2843
aVTEZ-1117
p2844
aVTEZ-1116
p2845
aVTEZ-1115
p2846
aVTEZ-1114
p2847
aVTEZ-1113
p2848
aVTEZ-1112
p2849
aVTEZ-1111
p2850
aVTEZ-1110
p2851
aVTEZ-1109
p2852
aVTEZ-1108
p2853
aVTEZ-1107
p2854
aVTEZ-1106
p2855
aVTEZ-1105
p2856
aVTEZ-1104
p2857
aVTEZ-1103
p2858
aVTEZ-1102
p2859
aVTEZ-1101
p2860
aVTEZ-1100
p2861
aVTEZ-1099
p2862
aVTEZ-1098
p2863
aVTEZ-1097
p2864
aVTEZ-1096
p2865
aVTEZ-1095
p2866
aVTEZ-1094
p2867
aVTEZ-1093
p2868
aVTEZ-1092
p2869
aVTEZ-1091
p2870
aVTEZ-1090
p2871
aVTEZ-1089
p2872
aVTEZ-1088
p2873
aVTEZ-1087
p2874
aVTEZ-1086
p2875
aVTEZ-1085
p2876
aVTEZ-1084
p2877
aVTEZ-1083
p2878
aVTEZ-1082
p2879
aVTEZ-1081
p2880
aVTEZ-1080
p2881
aVTEZ-1079
p2882
aVTEZ-1078
p2883
aVTEZ-1077
p2884
aVTEZ-1076
p2885
aVTEZ-1075
p2886
aVTEZ-1074
p2887
aVTEZ-1073
p2888
aVTEZ-1072
p2889
aVTEZ-1071
p2890
aVTEZ-1070
p2891
aVTEZ-1069
p2892
aVTEZ-1068
p2893
aVTEZ-1067
p2894
aVTEZ-1066
p2895
aVTEZ-1065
p2896
aVTEZ-1064
p2897
aVTEZ-1063
p2898
aVTEZ-1062
p2899
aVTEZ-1061
p2900
aVTEZ-1060
p2901
aVTEZ-1059
p2902
aVTEZ-1058
p2903
aVTEZ-1057
p2904
aVTEZ-1056
p2905
aVTEZ-1055
p2906
aVTEZ-1054
p2907
aVTEZ-1053
p2908
aVTEZ-1052
p2909
aVTEZ-1050
p2910
aVTEZ-1049
p2911
aVTEZ-1048
p2912
aVTEZ-1047
p2913
aVTEZ-1046
p2914
aVTEZ-1045
p2915
aVTEZ-1044
p2916
aVTEZ-1043
p2917
aVTEZ-1042
p2918
aVTEZ-1041
p2919
aVTEZ-1040
p2920
aVTEZ-1039
p2921
aVTEZ-1038
p2922
aVTEZ-1037
p2923
aVTEZ-1036
p2924
aVTEZ-1035
p2925
aVTEZ-1034
p2926
aVTEZ-1033
p2927
aVTEZ-1032
p2928
aVTEZ-1031
p2929
aVTEZ-1030
p2930
aVTEZ-1029
p2931
aVTEZ-1028
p2932
aVTEZ-1027
p2933
aVTEZ-1026
p2934
aVTEZ-1025
p2935
aVTEZ-1024
p2936
aVTEZ-1023
p2937
aVTEZ-1022
p2938
aVTEZ-1021
p2939
aVTEZ-1020
p2940
aVTEZ-1019
p2941
aVTEZ-1018
p2942
aVTEZ-1017
p2943
aVTEZ-1016
p2944
aVTEZ-1015
p2945
aVTEZ-1014
p2946
aVTEZ-1013
p2947
aVTEZ-1012
p2948
aVTEZ-1011
p2949
aVTEZ-1010
p2950
aVTEZ-1009
p2951
aVTEZ-1008
p2952
aVTEZ-1007
p2953
aVTEZ-1006
p2954
aVTEZ-1005
p2955
aVTEZ-1004
p2956
aVTEZ-1003
p2957
aVTEZ-1002
p2958
aVTEZ-1001
p2959
aVTEZ-1000
p2960
aVTEZ-999
p2961
aVTEZ-998
p2962
aVTEZ-997
p2963
aVTEZ-996
p2964
aVTEZ-995
p2965
aVTEZ-994
p2966
aVTEZ-993
p2967
aVTEZ-992
p2968
aVTEZ-991
p2969
aVTEZ-990
p2970
aVTEZ-989
p2971
aVTEZ-988
p2972
aVTEZ-987
p2973
aVTEZ-986
p2974
aVTEZ-985
p2975
aVTEZ-984
p2976
aVTEZ-983
p2977
aVTEZ-982
p2978
aVTEZ-981
p2979
aVTEZ-980
p2980
aVTEZ-979
p2981
aVTEZ-978
p2982
aVTEZ-977
p2983
aVTEZ-976
p2984
aVTEZ-975
p2985
aVTEZ-974
p2986
aVTEZ-973
p2987
aVTEZ-972
p2988
aVTEZ-971
p2989
aVTEZ-970
p2990
aVTEZ-969
p2991
aVTEZ-968
p2992
aVTEZ-967
p2993
aVTEZ-966
p2994
aVTEZ-965
p2995
aVTEZ-964
p2996
aVTEZ-963
p2997
aVTEZ-962
p2998
aVTEZ-961
p2999
aVTEZ-960
p3000
aVTEZ-959
p3001
aVTEZ-958
p3002
aVTEZ-957
p3003
aVTEZ-956
p3004
aVTEZ-955
p3005
aVTEZ-954
p3006
aVTEZ-953
p3007
aVTEZ-952
p3008
aVTEZ-951
p3009
aVTEZ-950
p3010
aVTEZ-949
p3011
aVTEZ-948
p3012
aVTEZ-947
p3013
aVTEZ-946
p3014
aVTEZ-945
p3015
aVTEZ-944
p3016
aVTEZ-943
p3017
aVTEZ-942
p3018
aVTEZ-941
p3019
aVTEZ-940
p3020
aVTEZ-939
p3021
aVTEZ-938
p3022
aVTEZ-937
p3023
aVTEZ-936
p3024
aVTEZ-935
p3025
aVTEZ-934
p3026
aVTEZ-933
p3027
aVTEZ-932
p3028
aVTEZ-931
p3029
aVTEZ-930
p3030
aVTEZ-929
p3031
aVTEZ-928
p3032
aVTEZ-927
p3033
aVTEZ-926
p3034
aVTEZ-925
p3035
aVTEZ-924
p3036
aVTEZ-923
p3037
aVTEZ-922
p3038
aVTEZ-921
p3039
aVTEZ-920
p3040
aVTEZ-919
p3041
aVTEZ-918
p3042
aVTEZ-917
p3043
aVTEZ-916
p3044
aVTEZ-915
p3045
aVTEZ-914
p3046
aVTEZ-913
p3047
aVTEZ-912
p3048
aVTEZ-911
p3049
aVTEZ-910
p3050
aVTEZ-909
p3051
aVTEZ-908
p3052
aVTEZ-907
p3053
aVTEZ-906
p3054
aVTEZ-905
p3055
aVTEZ-904
p3056
aVTEZ-903
p3057
aVTEZ-902
p3058
aVTEZ-901
p3059
aVTEZ-900
p3060
aVTEZ-899
p3061
aVTEZ-898
p3062
aVTEZ-897
p3063
aVTEZ-896
p3064
aVTEZ-895
p3065
aVTEZ-894
p3066
aVTEZ-893
p3067
aVTEZ-892
p3068
aVTEZ-891
p3069
aVTEZ-890
p3070
aVTEZ-889
p3071
aVTEZ-888
p3072
aVTEZ-887
p3073
aVTEZ-886
p3074
aVTEZ-885
p3075
aVTEZ-884
p3076
aVTEZ-883
p3077
aVTEZ-882
p3078
aVTEZ-881
p3079
aVTEZ-880
p3080
aVTEZ-879
p3081
aVTEZ-878
p3082
aVTEZ-877
p3083
aVTEZ-876
p3084
aVTEZ-875
p3085
aVTEZ-874
p3086
aVTEZ-873
p3087
aVTEZ-872
p3088
aVTEZ-871
p3089
aVTEZ-870
p3090
aVTEZ-869
p3091
aVTEZ-868
p3092
aVTEZ-867
p3093
aVTEZ-866
p3094
aVTEZ-865
p3095
aVTEZ-864
p3096
aVTEZ-863
p3097
aVTEZ-862
p3098
aVTEZ-861
p3099
aVTEZ-860
p3100
aVTEZ-857
p3101
aVTEZ-856
p3102
aVTEZ-855
p3103
aVTEZ-854
p3104
aVTEZ-853
p3105
aVTEZ-852
p3106
aVTEZ-851
p3107
aVTEZ-850
p3108
aVTEZ-849
p3109
aVTEZ-848
p3110
aVTEZ-847
p3111
aVTEZ-846
p3112
aVTEZ-845
p3113
aVTEZ-844
p3114
aVTEZ-843
p3115
aVTEZ-842
p3116
aVTEZ-841
p3117
aVTEZ-840
p3118
aVTEZ-839
p3119
aVTEZ-838
p3120
aVTEZ-837
p3121
aVTEZ-836
p3122
aVTEZ-835
p3123
aVTEZ-834
p3124
aVTEZ-833
p3125
aVTEZ-832
p3126
aVTEZ-831
p3127
aVTEZ-830
p3128
aVTEZ-829
p3129
aVTEZ-828
p3130
aVTEZ-827
p3131
aVTEZ-826
p3132
aVTEZ-825
p3133
aVTEZ-824
p3134
aVTEZ-823
p3135
aVTEZ-822
p3136
aVTEZ-821
p3137
aVTEZ-820
p3138
aVTEZ-819
p3139
aVTEZ-818
p3140
aVTEZ-817
p3141
aVTEZ-816
p3142
aVTEZ-815
p3143
aVTEZ-814
p3144
aVTEZ-813
p3145
aVTEZ-812
p3146
aVTEZ-811
p3147
aVTEZ-810
p3148
aVTEZ-809
p3149
aVTEZ-808
p3150
aVTEZ-807
p3151
aVTEZ-806
p3152
aVTEZ-805
p3153
aVTEZ-804
p3154
aVTEZ-803
p3155
aVTEZ-802
p3156
aVTEZ-801
p3157
aVTEZ-800
p3158
aVTEZ-799
p3159
aVTEZ-798
p3160
aVTEZ-797
p3161
aVTEZ-796
p3162
aVTEZ-795
p3163
aVTEZ-794
p3164
aVTEZ-793
p3165
aVTEZ-792
p3166
aVTEZ-791
p3167
aVTEZ-790
p3168
aVTEZ-789
p3169
aVTEZ-788
p3170
aVTEZ-787
p3171
aVTEZ-786
p3172
aVTEZ-785
p3173
aVTEZ-784
p3174
aVTEZ-783
p3175
aVTEZ-782
p3176
aVTEZ-781
p3177
aVTEZ-780
p3178
aVTEZ-779
p3179
aVTEZ-778
p3180
aVTEZ-777
p3181
aVTEZ-776
p3182
aVTEZ-775
p3183
aVTEZ-774
p3184
aVTEZ-773
p3185
aVTEZ-772
p3186
aVTEZ-771
p3187
aVTEZ-770
p3188
aVTEZ-769
p3189
aVTEZ-768
p3190
aVTEZ-767
p3191
aVTEZ-766
p3192
aVTEZ-765
p3193
aVTEZ-764
p3194
aVTEZ-763
p3195
aVTEZ-762
p3196
aVTEZ-761
p3197
aVTEZ-760
p3198
aVTEZ-759
p3199
aVTEZ-758
p3200
aVTEZ-757
p3201
aVTEZ-756
p3202
aVTEZ-755
p3203
aVTEZ-754
p3204
aVTEZ-753
p3205
aVTEZ-752
p3206
aVTEZ-751
p3207
aVTEZ-750
p3208
aVTEZ-749
p3209
aVTEZ-748
p3210
aVTEZ-747
p3211
aVTEZ-746
p3212
aVTEZ-745
p3213
aVTEZ-744
p3214
aVTEZ-743
p3215
aVTEZ-742
p3216
aVTEZ-741
p3217
aVTEZ-740
p3218
aVTEZ-739
p3219
aVTEZ-738
p3220
aVTEZ-737
p3221
aVTEZ-736
p3222
aVTEZ-735
p3223
aVTEZ-734
p3224
aVTEZ-733
p3225
aVTEZ-732
p3226
aVTEZ-731
p3227
aVTEZ-730
p3228
aVTEZ-729
p3229
aVTEZ-728
p3230
aVTEZ-727
p3231
aVTEZ-726
p3232
aVTEZ-725
p3233
aVTEZ-724
p3234
aVTEZ-723
p3235
aVTEZ-722
p3236
aVTEZ-721
p3237
aVTEZ-720
p3238
aVTEZ-719
p3239
aVTEZ-718
p3240
aVTEZ-717
p3241
aVTEZ-716
p3242
aVTEZ-715
p3243
aVTEZ-714
p3244
aVTEZ-713
p3245
aVTEZ-712
p3246
aVTEZ-711
p3247
aVTEZ-710
p3248
aVTEZ-709
p3249
aVTEZ-708
p3250
aVTEZ-707
p3251
aVTEZ-706
p3252
aVTEZ-705
p3253
aVTEZ-704
p3254
aVTEZ-703
p3255
aVTEZ-702
p3256
aVTEZ-701
p3257
aVTEZ-700
p3258
aVTEZ-699
p3259
aVTEZ-698
p3260
aVTEZ-697
p3261
aVTEZ-696
p3262
aVTEZ-695
p3263
aVTEZ-694
p3264
aVTEZ-693
p3265
aVTEZ-692
p3266
aVTEZ-691
p3267
aVTEZ-690
p3268
aVTEZ-689
p3269
aVTEZ-688
p3270
aVTEZ-687
p3271
aVTEZ-686
p3272
aVTEZ-685
p3273
aVTEZ-684
p3274
aVTEZ-683
p3275
aVTEZ-682
p3276
aVTEZ-681
p3277
aVTEZ-680
p3278
aVTEZ-679
p3279
aVTEZ-678
p3280
aVTEZ-677
p3281
aVTEZ-676
p3282
aVTEZ-675
p3283
aVTEZ-674
p3284
aVTEZ-673
p3285
aVTEZ-672
p3286
aVTEZ-671
p3287
aVTEZ-670
p3288
aVTEZ-669
p3289
aVTEZ-668
p3290
aVTEZ-667
p3291
aVTEZ-666
p3292
aVTEZ-665
p3293
aVTEZ-664
p3294
aVTEZ-663
p3295
aVTEZ-662
p3296
aVTEZ-661
p3297
aVTEZ-660
p3298
aVTEZ-659
p3299
aVTEZ-658
p3300
aVTEZ-657
p3301
aVTEZ-656
p3302
aVTEZ-655
p3303
aVTEZ-654
p3304
aVTEZ-653
p3305
aVTEZ-652
p3306
aVTEZ-650
p3307
aVTEZ-649
p3308
aVTEZ-648
p3309
aVTEZ-647
p3310
aVTEZ-646
p3311
aVTEZ-645
p3312
aVTEZ-644
p3313
aVTEZ-643
p3314
aVTEZ-642
p3315
aVTEZ-641
p3316
aVTEZ-640
p3317
aVTEZ-639
p3318
aVTEZ-638
p3319
aVTEZ-637
p3320
aVTEZ-636
p3321
aVTEZ-635
p3322
aVTEZ-634
p3323
aVTEZ-633
p3324
aVTEZ-632
p3325
aVTEZ-631
p3326
aVTEZ-630
p3327
aVTEZ-629
p3328
aVTEZ-628
p3329
aVTEZ-627
p3330
aVTEZ-626
p3331
aVTEZ-625
p3332
aVTEZ-624
p3333
aVTEZ-623
p3334
aVTEZ-622
p3335
aVTEZ-621
p3336
aVTEZ-620
p3337
aVTEZ-619
p3338
aVTEZ-618
p3339
aVTEZ-617
p3340
aVTEZ-616
p3341
aVTEZ-615
p3342
aVTEZ-614
p3343
aVTEZ-613
p3344
aVTEZ-612
p3345
aVTEZ-611
p3346
aVTEZ-610
p3347
aVTEZ-609
p3348
aVTEZ-608
p3349
aVTEZ-607
p3350
aVTEZ-606
p3351
aVTEZ-605
p3352
aVTEZ-604
p3353
aVTEZ-603
p3354
aVTEZ-602
p3355
aVTEZ-601
p3356
aVTEZ-600
p3357
aVTEZ-599
p3358
aVTEZ-598
p3359
aVTEZ-597
p3360
aVTEZ-596
p3361
aVTEZ-595
p3362
aVTEZ-594
p3363
aVTEZ-593
p3364
aVTEZ-592
p3365
aVTEZ-591
p3366
aVTEZ-590
p3367
aVTEZ-589
p3368
aVTEZ-588
p3369
aVTEZ-587
p3370
aVTEZ-586
p3371
aVTEZ-585
p3372
aVTEZ-584
p3373
aVTEZ-583
p3374
aVTEZ-582
p3375
aVTEZ-581
p3376
aVTEZ-580
p3377
aVTEZ-579
p3378
aVTEZ-578
p3379
aVTEZ-577
p3380
aVTEZ-576
p3381
aVTEZ-575
p3382
aVTEZ-574
p3383
aVTEZ-573
p3384
aVTEZ-572
p3385
aVTEZ-571
p3386
aVTEZ-570
p3387
aVTEZ-569
p3388
aVTEZ-568
p3389
aVTEZ-567
p3390
aVTEZ-566
p3391
aVTEZ-565
p3392
aVTEZ-564
p3393
aVTEZ-563
p3394
aVTEZ-562
p3395
aVTEZ-561
p3396
aVTEZ-560
p3397
aVTEZ-559
p3398
aVTEZ-558
p3399
aVTEZ-557
p3400
aVTEZ-556
p3401
aVTEZ-555
p3402
aVTEZ-554
p3403
aVTEZ-553
p3404
aVTEZ-552
p3405
aVTEZ-551
p3406
aVTEZ-550
p3407
aVTEZ-549
p3408
aVTEZ-548
p3409
aVTEZ-547
p3410
aVTEZ-546
p3411
aVTEZ-545
p3412
aVTEZ-544
p3413
aVTEZ-543
p3414
aVTEZ-542
p3415
aVTEZ-541
p3416
aVTEZ-540
p3417
aVTEZ-539
p3418
aVTEZ-538
p3419
aVTEZ-537
p3420
aVTEZ-536
p3421
aVTEZ-535
p3422
aVTEZ-534
p3423
aVTEZ-533
p3424
aVTEZ-532
p3425
aVTEZ-531
p3426
aVTEZ-530
p3427
aVTEZ-529
p3428
aVTEZ-528
p3429
aVTEZ-527
p3430
aVTEZ-526
p3431
aVTEZ-525
p3432
aVTEZ-524
p3433
aVTEZ-523
p3434
aVTEZ-522
p3435
aVTEZ-521
p3436
aVTEZ-520
p3437
aVTEZ-519
p3438
aVTEZ-518
p3439
aVTEZ-517
p3440
aVTEZ-516
p3441
aVTEZ-515
p3442
aVTEZ-514
p3443
aVTEZ-513
p3444
aVTEZ-512
p3445
aVTEZ-511
p3446
aVTEZ-510
p3447
aVTEZ-509
p3448
aVTEZ-508
p3449
aVTEZ-507
p3450
aVTEZ-506
p3451
aVTEZ-505
p3452
aVTEZ-504
p3453
aVTEZ-503
p3454
aVTEZ-502
p3455
aVTEZ-501
p3456
aVTEZ-500
p3457
aVTEZ-499
p3458
aVTEZ-498
p3459
aVTEZ-497
p3460
aVTEZ-496
p3461
aVTEZ-495
p3462
aVTEZ-494
p3463
aVTEZ-493
p3464
aVTEZ-492
p3465
aVTEZ-491
p3466
aVTEZ-490
p3467
aVTEZ-489
p3468
aVTEZ-488
p3469
aVTEZ-487
p3470
aVTEZ-486
p3471
aVTEZ-485
p3472
aVTEZ-484
p3473
aVTEZ-483
p3474
aVTEZ-482
p3475
aVTEZ-481
p3476
aVTEZ-480
p3477
aVTEZ-479
p3478
aVTEZ-478
p3479
aVTEZ-477
p3480
aVTEZ-476
p3481
aVTEZ-475
p3482
aVTEZ-474
p3483
aVTEZ-473
p3484
aVTEZ-472
p3485
aVTEZ-471
p3486
aVTEZ-470
p3487
aVTEZ-469
p3488
aVTEZ-468
p3489
aVTEZ-467
p3490
aVTEZ-466
p3491
aVTEZ-465
p3492
aVTEZ-464
p3493
aVTEZ-463
p3494
aVTEZ-462
p3495
aVTEZ-461
p3496
aVTEZ-460
p3497
aVTEZ-459
p3498
aVTEZ-458
p3499
aVTEZ-457
p3500
aVTEZ-456
p3501
aVTEZ-455
p3502
aVTEZ-454
p3503
aVTEZ-453
p3504
aVTEZ-452
p3505
aVTEZ-451
p3506
aVTEZ-450
p3507
aVTEZ-449
p3508
aVTEZ-448
p3509
aVTEZ-447
p3510
aVTEZ-446
p3511
aVTEZ-445
p3512
aVTEZ-444
p3513
aVTEZ-443
p3514
aVTEZ-442
p3515
aVTEZ-441
p3516
aVTEZ-440
p3517
aVTEZ-439
p3518
aVTEZ-438
p3519
aVTEZ-437
p3520
aVTEZ-436
p3521
aVTEZ-435
p3522
aVTEZ-434
p3523
aVTEZ-433
p3524
aVTEZ-432
p3525
aVTEZ-431
p3526
aVTEZ-430
p3527
aVTEZ-429
p3528
aVTEZ-428
p3529
aVTEZ-427
p3530
aVTEZ-426
p3531
aVTEZ-425
p3532
aVTEZ-424
p3533
aVTEZ-423
p3534
aVTEZ-422
p3535
aVTEZ-421
p3536
aVTEZ-420
p3537
aVTEZ-419
p3538
aVTEZ-418
p3539
aVTEZ-417
p3540
aVTEZ-416
p3541
aVTEZ-415
p3542
aVTEZ-414
p3543
aVTEZ-413
p3544
aVTEZ-412
p3545
aVTEZ-411
p3546
aVTEZ-410
p3547
aVTEZ-409
p3548
aVTEZ-408
p3549
aVTEZ-407
p3550
aVTEZ-406
p3551
aVTEZ-405
p3552
aVTEZ-404
p3553
aVTEZ-403
p3554
aVTEZ-402
p3555
aVTEZ-401
p3556
aVTEZ-400
p3557
aVTEZ-399
p3558
aVTEZ-398
p3559
aVTEZ-397
p3560
aVTEZ-396
p3561
aVTEZ-395
p3562
aVTEZ-394
p3563
aVTEZ-393
p3564
aVTEZ-392
p3565
aVTEZ-391
p3566
aVTEZ-390
p3567
aVTEZ-389
p3568
aVTEZ-388
p3569
aVTEZ-387
p3570
aVTEZ-386
p3571
aVTEZ-385
p3572
aVTEZ-384
p3573
aVTEZ-383
p3574
aVTEZ-382
p3575
aVTEZ-381
p3576
aVTEZ-380
p3577
aVTEZ-379
p3578
aVTEZ-378
p3579
aVTEZ-377
p3580
aVTEZ-376
p3581
aVTEZ-375
p3582
aVTEZ-374
p3583
aVTEZ-373
p3584
aVTEZ-372
p3585
aVTEZ-371
p3586
aVTEZ-370
p3587
aVTEZ-369
p3588
aVTEZ-368
p3589
aVTEZ-367
p3590
aVTEZ-366
p3591
aVTEZ-365
p3592
aVTEZ-364
p3593
aVTEZ-363
p3594
aVTEZ-362
p3595
aVTEZ-361
p3596
aVTEZ-360
p3597
aVTEZ-359
p3598
aVTEZ-358
p3599
aVTEZ-357
p3600
aVTEZ-356
p3601
aVTEZ-355
p3602
aVTEZ-354
p3603
aVTEZ-353
p3604
aVTEZ-352
p3605
aVTEZ-351
p3606
aVTEZ-350
p3607
aVTEZ-349
p3608
aVTEZ-348
p3609
aVTEZ-347
p3610
aVTEZ-346
p3611
aVTEZ-345
p3612
aVTEZ-344
p3613
aVTEZ-343
p3614
aVTEZ-342
p3615
aVTEZ-341
p3616
aVTEZ-340
p3617
aVTEZ-339
p3618
aVTEZ-338
p3619
aVTEZ-337
p3620
aVTEZ-336
p3621
aVTEZ-335
p3622
aVTEZ-334
p3623
aVTEZ-333
p3624
aVTEZ-332
p3625
aVTEZ-331
p3626
aVTEZ-330
p3627
aVTEZ-329
p3628
aVTEZ-328
p3629
aVTEZ-327
p3630
aVTEZ-326
p3631
aVTEZ-325
p3632
aVTEZ-324
p3633
aVTEZ-323
p3634
aVTEZ-322
p3635
aVTEZ-321
p3636
aVTEZ-320
p3637
aVTEZ-319
p3638
aVTEZ-318
p3639
aVTEZ-317
p3640
aVTEZ-316
p3641
aVTEZ-315
p3642
aVTEZ-314
p3643
aVTEZ-313
p3644
aVTEZ-312
p3645
aVTEZ-311
p3646
aVTEZ-310
p3647
aVTEZ-309
p3648
aVTEZ-308
p3649
aVTEZ-307
p3650
aVTEZ-306
p3651
aVTEZ-305
p3652
aVTEZ-304
p3653
aVTEZ-303
p3654
aVTEZ-302
p3655
aVTEZ-301
p3656
aVTEZ-300
p3657
aVTEZ-299
p3658
aVTEZ-298
p3659
aVTEZ-297
p3660
aVTEZ-296
p3661
aVTEZ-295
p3662
aVTEZ-294
p3663
aVTEZ-293
p3664
aVTEZ-292
p3665
aVTEZ-291
p3666
aVTEZ-290
p3667
aVTEZ-289
p3668
aVTEZ-288
p3669
aVTEZ-287
p3670
aVTEZ-286
p3671
aVTEZ-285
p3672
aVTEZ-284
p3673
aVTEZ-283
p3674
aVTEZ-282
p3675
aVTEZ-281
p3676
aVTEZ-280
p3677
aVTEZ-279
p3678
aVTEZ-278
p3679
aVTEZ-277
p3680
aVTEZ-276
p3681
aVTEZ-275
p3682
aVTEZ-274
p3683
aVTEZ-273
p3684
aVTEZ-272
p3685
aVTEZ-271
p3686
aVTEZ-270
p3687
aVTEZ-269
p3688
aVTEZ-268
p3689
aVTEZ-267
p3690
aVTEZ-266
p3691
aVTEZ-265
p3692
aVTEZ-264
p3693
aVTEZ-263
p3694
aVTEZ-262
p3695
aVTEZ-261
p3696
aVTEZ-260
p3697
aVTEZ-259
p3698
aVTEZ-258
p3699
aVTEZ-257
p3700
aVTEZ-256
p3701
aVTEZ-255
p3702
aVTEZ-254
p3703
aVTEZ-253
p3704
aVTEZ-252
p3705
aVTEZ-251
p3706
aVTEZ-250
p3707
aVTEZ-249
p3708
aVTEZ-248
p3709
aVTEZ-247
p3710
aVTEZ-246
p3711
aVTEZ-245
p3712
aVTEZ-244
p3713
aVTEZ-243
p3714
aVTEZ-242
p3715
aVTEZ-241
p3716
aVTEZ-240
p3717
aVTEZ-239
p3718
aVTEZ-238
p3719
aVTEZ-237
p3720
aVTEZ-236
p3721
aVTEZ-235
p3722
aVTEZ-234
p3723
aVTEZ-233
p3724
aVTEZ-232
p3725
aVTEZ-231
p3726
aVTEZ-230
p3727
aVTEZ-229
p3728
aVTEZ-228
p3729
aVTEZ-227
p3730
aVTEZ-226
p3731
aVTEZ-225
p3732
aVTEZ-224
p3733
aVTEZ-223
p3734
aVTEZ-222
p3735
aVTEZ-221
p3736
aVTEZ-220
p3737
aVTEZ-219
p3738
aVTEZ-218
p3739
aVTEZ-217
p3740
aVTEZ-216
p3741
aVTEZ-215
p3742
aVTEZ-214
p3743
aVTEZ-213
p3744
aVTEZ-212
p3745
aVTEZ-211
p3746
aVTEZ-210
p3747
aVTEZ-209
p3748
aVTEZ-208
p3749
aVTEZ-207
p3750
aVTEZ-206
p3751
aVTEZ-205
p3752
aVTEZ-204
p3753
aVTEZ-203
p3754
aVTEZ-202
p3755
aVTEZ-201
p3756
aVTEZ-200
p3757
aVTEZ-199
p3758
aVTEZ-198
p3759
aVTEZ-197
p3760
aVTEZ-196
p3761
aVTEZ-195
p3762
aVTEZ-194
p3763
aVTEZ-193
p3764
aVTEZ-192
p3765
aVTEZ-191
p3766
aVTEZ-190
p3767
aVTEZ-189
p3768
aVTEZ-188
p3769
aVTEZ-187
p3770
aVTEZ-186
p3771
aVTEZ-185
p3772
aVTEZ-184
p3773
aVTEZ-183
p3774
aVTEZ-182
p3775
aVTEZ-181
p3776
aVTEZ-180
p3777
aVTEZ-179
p3778
aVTEZ-178
p3779
aVTEZ-177
p3780
aVTEZ-176
p3781
aVTEZ-175
p3782
aVTEZ-174
p3783
aVTEZ-173
p3784
aVTEZ-172
p3785
aVTEZ-171
p3786
aVTEZ-170
p3787
aVTEZ-169
p3788
aVTEZ-168
p3789
aVTEZ-167
p3790
aVTEZ-166
p3791
aVTEZ-165
p3792
aVTEZ-164
p3793
aVTEZ-163
p3794
aVTEZ-162
p3795
aVTEZ-161
p3796
aVTEZ-160
p3797
aVTEZ-159
p3798
aVTEZ-158
p3799
aVTEZ-157
p3800
aVTEZ-156
p3801
aVTEZ-155
p3802
aVTEZ-154
p3803
aVTEZ-153
p3804
aVTEZ-152
p3805
aVTEZ-151
p3806
aVTEZ-150
p3807
aVTEZ-149
p3808
aVTEZ-148
p3809
aVTEZ-147
p3810
aVTEZ-146
p3811
aVTEZ-145
p3812
aVTEZ-144
p3813
aVTEZ-143
p3814
aVTEZ-142
p3815
aVTEZ-141
p3816
aVTEZ-140
p3817
aVTEZ-139
p3818
aVTEZ-138
p3819
aVTEZ-137
p3820
aVTEZ-136
p3821
aVTEZ-135
p3822
aVTEZ-134
p3823
aVTEZ-133
p3824
aVTEZ-132
p3825
aVTEZ-131
p3826
aVTEZ-130
p3827
aVTEZ-129
p3828
aVTEZ-128
p3829
aVTEZ-127
p3830
aVTEZ-126
p3831
aVTEZ-125
p3832
aVTEZ-124
p3833
aVTEZ-123
p3834
aVTEZ-122
p3835
aVTEZ-121
p3836
aVTEZ-120
p3837
aVTEZ-119
p3838
aVTEZ-118
p3839
aVTEZ-117
p3840
aVTEZ-116
p3841
aVTEZ-115
p3842
aVTEZ-114
p3843
aVTEZ-113
p3844
aVTEZ-112
p3845
aVTEZ-111
p3846
aVTEZ-110
p3847
aVTEZ-109
p3848
aVTEZ-108
p3849
aVTEZ-107
p3850
aVTEZ-106
p3851
aVTEZ-105
p3852
aVTEZ-104
p3853
aVTEZ-103
p3854
aVTEZ-102
p3855
aVTEZ-101
p3856
aVTEZ-100
p3857
aVTEZ-99
p3858
aVTEZ-98
p3859
aVTEZ-97
p3860
aVTEZ-96
p3861
aVTEZ-95
p3862
aVTEZ-94
p3863
aVTEZ-93
p3864
aVTEZ-92
p3865
aVTEZ-91
p3866
aVTEZ-90
p3867
aVTEZ-89
p3868
aVTEZ-88
p3869
aVTEZ-87
p3870
aVTEZ-86
p3871
aVTEZ-85
p3872
aVTEZ-84
p3873
aVTEZ-83
p3874
aVTEZ-82
p3875
aVTEZ-81
p3876
aVTEZ-80
p3877
aVTEZ-79
p3878
aVTEZ-78
p3879
aVTEZ-77
p3880
aVTEZ-76
p3881
aVTEZ-75
p3882
aVTEZ-74
p3883
aVTEZ-73
p3884
aVTEZ-72
p3885
aVTEZ-71
p3886
aVTEZ-70
p3887
aVTEZ-69
p3888
aVTEZ-68
p3889
aVTEZ-67
p3890
aVTEZ-66
p3891
aVTEZ-65
p3892
aVTEZ-64
p3893
aVTEZ-63
p3894
aVTEZ-62
p3895
aVTEZ-61
p3896
aVTEZ-60
p3897
aVTEZ-59
p3898
aVTEZ-58
p3899
aVTEZ-57
p3900
aVTEZ-56
p3901
aVTEZ-55
p3902
aVTEZ-54
p3903
aVTEZ-53
p3904
aVTEZ-52
p3905
aVTEZ-51
p3906
aVTEZ-50
p3907
aVTEZ-49
p3908
aVTEZ-48
p3909
aVTEZ-47
p3910
aVTEZ-46
p3911
aVTEZ-45
p3912
aVTEZ-44
p3913
aVTEZ-43
p3914
aVTEZ-42
p3915
aVTEZ-41
p3916
aVTEZ-40
p3917
aVTEZ-39
p3918
aVTEZ-38
p3919
aVTEZ-37
p3920
aVTEZ-36
p3921
aVTEZ-35
p3922
aVTEZ-34
p3923
aVTEZ-33
p3924
aVTEZ-32
p3925
aVTEZ-31
p3926
aVTEZ-30
p3927
aVTEZ-29
p3928
aVTEZ-28
p3929
aVTEZ-27
p3930
aVTEZ-26
p3931
aVTEZ-25
p3932
aVTEZ-24
p3933
aVTEZ-23
p3934
aVTEZ-22
p3935
aVTEZ-21
p3936
aVTEZ-20
p3937
aVTEZ-19
p3938
aVTEZ-18
p3939
aVTEZ-17
p3940
aVTEZ-16
p3941
aVTEZ-15
p3942
aVTEZ-14
p3943
aVTEZ-13
p3944
aVTEZ-12
p3945
aVTEZ-11
p3946
aVTEZ-10
p3947
aVTEZ-9
p3948
aVTEZ-8
p3949
aVTEZ-7
p3950
aVTEZ-6
p3951
aVTEZ-5
p3952
aVTEZ-4
p3953
aVTEZ-3
p3954
aVTEZ-2
p3955
aVTEZ-1
p3956
a.