(lp0
VTIKA-2704
p1
aVTIKA-2703
p2
aVTIKA-2702
p3
aVTIKA-2701
p4
aVTIKA-2700
p5
aVTIKA-2699
p6
aVTIKA-2698
p7
aVTIKA-2697
p8
aVTIKA-2696
p9
aVTIKA-2695
p10
aVTIKA-2694
p11
aVTIKA-2693
p12
aVTIKA-2692
p13
aVTIKA-2691
p14
aVTIKA-2690
p15
aVTIKA-2689
p16
aVTIKA-2688
p17
aVTIKA-2687
p18
aVTIKA-2686
p19
aVTIKA-2685
p20
aVTIKA-2684
p21
aVTIKA-2683
p22
aVTIKA-2682
p23
aVTIKA-2681
p24
aVTIKA-2680
p25
aVTIKA-2679
p26
aVTIKA-2678
p27
aVTIKA-2677
p28
aVTIKA-2676
p29
aVTIKA-2675
p30
aVTIKA-2674
p31
aVTIKA-2673
p32
aVTIKA-2672
p33
aVTIKA-2671
p34
aVTIKA-2670
p35
aVTIKA-2669
p36
aVTIKA-2668
p37
aVTIKA-2667
p38
aVTIKA-2666
p39
aVTIKA-2665
p40
aVTIKA-2664
p41
aVTIKA-2663
p42
aVTIKA-2662
p43
aVTIKA-2661
p44
aVTIKA-2660
p45
aVTIKA-2659
p46
aVTIKA-2658
p47
aVTIKA-2657
p48
aVTIKA-2656
p49
aVTIKA-2655
p50
aVTIKA-2654
p51
aVTIKA-2653
p52
aVTIKA-2652
p53
aVTIKA-2651
p54
aVTIKA-2650
p55
aVTIKA-2649
p56
aVTIKA-2648
p57
aVTIKA-2647
p58
aVTIKA-2646
p59
aVTIKA-2645
p60
aVTIKA-2644
p61
aVTIKA-2643
p62
aVTIKA-2642
p63
aVTIKA-2641
p64
aVTIKA-2640
p65
aVTIKA-2639
p66
aVTIKA-2638
p67
aVTIKA-2637
p68
aVTIKA-2636
p69
aVTIKA-2635
p70
aVTIKA-2634
p71
aVTIKA-2633
p72
aVTIKA-2632
p73
aVTIKA-2631
p74
aVTIKA-2630
p75
aVTIKA-2629
p76
aVTIKA-2628
p77
aVTIKA-2627
p78
aVTIKA-2626
p79
aVTIKA-2625
p80
aVTIKA-2624
p81
aVTIKA-2623
p82
aVTIKA-2622
p83
aVTIKA-2621
p84
aVTIKA-2620
p85
aVTIKA-2619
p86
aVTIKA-2618
p87
aVTIKA-2617
p88
aVTIKA-2616
p89
aVTIKA-2615
p90
aVTIKA-2614
p91
aVTIKA-2613
p92
aVTIKA-2612
p93
aVTIKA-2611
p94
aVTIKA-2610
p95
aVTIKA-2609
p96
aVTIKA-2608
p97
aVTIKA-2607
p98
aVTIKA-2606
p99
aVTIKA-2605
p100
aVTIKA-2604
p101
aVTIKA-2603
p102
aVTIKA-2602
p103
aVTIKA-2601
p104
aVTIKA-2600
p105
aVTIKA-2599
p106
aVTIKA-2598
p107
aVTIKA-2597
p108
aVTIKA-2596
p109
aVTIKA-2595
p110
aVTIKA-2594
p111
aVTIKA-2593
p112
aVTIKA-2592
p113
aVTIKA-2591
p114
aVTIKA-2590
p115
aVTIKA-2589
p116
aVTIKA-2588
p117
aVTIKA-2587
p118
aVTIKA-2586
p119
aVTIKA-2585
p120
aVTIKA-2584
p121
aVTIKA-2583
p122
aVTIKA-2582
p123
aVTIKA-2581
p124
aVTIKA-2580
p125
aVTIKA-2579
p126
aVTIKA-2578
p127
aVTIKA-2577
p128
aVTIKA-2576
p129
aVTIKA-2575
p130
aVTIKA-2574
p131
aVTIKA-2573
p132
aVTIKA-2572
p133
aVTIKA-2571
p134
aVTIKA-2570
p135
aVTIKA-2569
p136
aVTIKA-2568
p137
aVTIKA-2567
p138
aVTIKA-2566
p139
aVTIKA-2565
p140
aVTIKA-2564
p141
aVTIKA-2563
p142
aVTIKA-2562
p143
aVTIKA-2561
p144
aVTIKA-2560
p145
aVTIKA-2559
p146
aVTIKA-2558
p147
aVTIKA-2557
p148
aVTIKA-2556
p149
aVTIKA-2555
p150
aVTIKA-2554
p151
aVTIKA-2553
p152
aVTIKA-2552
p153
aVTIKA-2551
p154
aVTIKA-2550
p155
aVTIKA-2549
p156
aVTIKA-2548
p157
aVTIKA-2547
p158
aVTIKA-2546
p159
aVTIKA-2545
p160
aVTIKA-2544
p161
aVTIKA-2543
p162
aVTIKA-2542
p163
aVTIKA-2541
p164
aVTIKA-2540
p165
aVTIKA-2539
p166
aVTIKA-2538
p167
aVTIKA-2537
p168
aVTIKA-2536
p169
aVTIKA-2535
p170
aVTIKA-2534
p171
aVTIKA-2533
p172
aVTIKA-2532
p173
aVTIKA-2531
p174
aVTIKA-2530
p175
aVTIKA-2529
p176
aVTIKA-2528
p177
aVTIKA-2527
p178
aVTIKA-2526
p179
aVTIKA-2525
p180
aVTIKA-2524
p181
aVTIKA-2523
p182
aVTIKA-2522
p183
aVTIKA-2521
p184
aVTIKA-2520
p185
aVTIKA-2519
p186
aVTIKA-2518
p187
aVTIKA-2517
p188
aVTIKA-2516
p189
aVTIKA-2515
p190
aVTIKA-2514
p191
aVTIKA-2513
p192
aVTIKA-2512
p193
aVTIKA-2511
p194
aVTIKA-2510
p195
aVTIKA-2509
p196
aVTIKA-2508
p197
aVTIKA-2507
p198
aVTIKA-2506
p199
aVTIKA-2505
p200
aVTIKA-2504
p201
aVTIKA-2503
p202
aVTIKA-2502
p203
aVTIKA-2501
p204
aVTIKA-2500
p205
aVTIKA-2499
p206
aVTIKA-2498
p207
aVTIKA-2497
p208
aVTIKA-2496
p209
aVTIKA-2495
p210
aVTIKA-2494
p211
aVTIKA-2493
p212
aVTIKA-2492
p213
aVTIKA-2491
p214
aVTIKA-2490
p215
aVTIKA-2489
p216
aVTIKA-2488
p217
aVTIKA-2487
p218
aVTIKA-2486
p219
aVTIKA-2485
p220
aVTIKA-2484
p221
aVTIKA-2483
p222
aVTIKA-2482
p223
aVTIKA-2481
p224
aVTIKA-2480
p225
aVTIKA-2479
p226
aVTIKA-2478
p227
aVTIKA-2477
p228
aVTIKA-2476
p229
aVTIKA-2475
p230
aVTIKA-2474
p231
aVTIKA-2473
p232
aVTIKA-2472
p233
aVTIKA-2471
p234
aVTIKA-2470
p235
aVTIKA-2469
p236
aVTIKA-2468
p237
aVTIKA-2467
p238
aVTIKA-2466
p239
aVTIKA-2465
p240
aVTIKA-2464
p241
aVTIKA-2463
p242
aVTIKA-2462
p243
aVTIKA-2461
p244
aVTIKA-2460
p245
aVTIKA-2459
p246
aVTIKA-2458
p247
aVTIKA-2457
p248
aVTIKA-2456
p249
aVTIKA-2455
p250
aVTIKA-2454
p251
aVTIKA-2453
p252
aVTIKA-2452
p253
aVTIKA-2451
p254
aVTIKA-2450
p255
aVTIKA-2449
p256
aVTIKA-2448
p257
aVTIKA-2447
p258
aVTIKA-2446
p259
aVTIKA-2445
p260
aVTIKA-2444
p261
aVTIKA-2443
p262
aVTIKA-2442
p263
aVTIKA-2441
p264
aVTIKA-2440
p265
aVTIKA-2439
p266
aVTIKA-2438
p267
aVTIKA-2437
p268
aVTIKA-2436
p269
aVTIKA-2435
p270
aVTIKA-2434
p271
aVTIKA-2433
p272
aVTIKA-2432
p273
aVTIKA-2431
p274
aVTIKA-2430
p275
aVTIKA-2429
p276
aVTIKA-2428
p277
aVTIKA-2427
p278
aVTIKA-2426
p279
aVTIKA-2425
p280
aVTIKA-2424
p281
aVTIKA-2423
p282
aVTIKA-2422
p283
aVTIKA-2421
p284
aVTIKA-2420
p285
aVTIKA-2419
p286
aVTIKA-2418
p287
aVTIKA-2417
p288
aVTIKA-2416
p289
aVTIKA-2415
p290
aVTIKA-2414
p291
aVTIKA-2413
p292
aVTIKA-2412
p293
aVTIKA-2411
p294
aVTIKA-2410
p295
aVTIKA-2409
p296
aVTIKA-2408
p297
aVTIKA-2407
p298
aVTIKA-2406
p299
aVTIKA-2405
p300
aVTIKA-2404
p301
aVTIKA-2403
p302
aVTIKA-2402
p303
aVTIKA-2401
p304
aVTIKA-2400
p305
aVTIKA-2399
p306
aVTIKA-2398
p307
aVTIKA-2397
p308
aVTIKA-2396
p309
aVTIKA-2395
p310
aVTIKA-2394
p311
aVTIKA-2393
p312
aVTIKA-2392
p313
aVTIKA-2391
p314
aVTIKA-2390
p315
aVTIKA-2389
p316
aVTIKA-2388
p317
aVTIKA-2387
p318
aVTIKA-2386
p319
aVTIKA-2385
p320
aVTIKA-2384
p321
aVTIKA-2383
p322
aVTIKA-2382
p323
aVTIKA-2381
p324
aVTIKA-2380
p325
aVTIKA-2379
p326
aVTIKA-2378
p327
aVTIKA-2377
p328
aVTIKA-2376
p329
aVTIKA-2375
p330
aVTIKA-2374
p331
aVTIKA-2373
p332
aVTIKA-2372
p333
aVTIKA-2371
p334
aVTIKA-2370
p335
aVTIKA-2369
p336
aVTIKA-2368
p337
aVTIKA-2367
p338
aVTIKA-2366
p339
aVTIKA-2365
p340
aVTIKA-2364
p341
aVTIKA-2363
p342
aVTIKA-2362
p343
aVTIKA-2361
p344
aVTIKA-2360
p345
aVTIKA-2359
p346
aVTIKA-2358
p347
aVTIKA-2357
p348
aVTIKA-2356
p349
aVTIKA-2355
p350
aVTIKA-2354
p351
aVTIKA-2353
p352
aVTIKA-2352
p353
aVTIKA-2351
p354
aVTIKA-2350
p355
aVTIKA-2349
p356
aVTIKA-2348
p357
aVTIKA-2347
p358
aVTIKA-2346
p359
aVTIKA-2345
p360
aVTIKA-2344
p361
aVTIKA-2343
p362
aVTIKA-2342
p363
aVTIKA-2341
p364
aVTIKA-2340
p365
aVTIKA-2339
p366
aVTIKA-2338
p367
aVTIKA-2337
p368
aVTIKA-2336
p369
aVTIKA-2335
p370
aVTIKA-2334
p371
aVTIKA-2333
p372
aVTIKA-2332
p373
aVTIKA-2331
p374
aVTIKA-2330
p375
aVTIKA-2329
p376
aVTIKA-2328
p377
aVTIKA-2327
p378
aVTIKA-2326
p379
aVTIKA-2325
p380
aVTIKA-2324
p381
aVTIKA-2323
p382
aVTIKA-2322
p383
aVTIKA-2321
p384
aVTIKA-2320
p385
aVTIKA-2319
p386
aVTIKA-2318
p387
aVTIKA-2317
p388
aVTIKA-2316
p389
aVTIKA-2315
p390
aVTIKA-2314
p391
aVTIKA-2313
p392
aVTIKA-2312
p393
aVTIKA-2311
p394
aVTIKA-2310
p395
aVTIKA-2309
p396
aVTIKA-2308
p397
aVTIKA-2307
p398
aVTIKA-2306
p399
aVTIKA-2305
p400
aVTIKA-2304
p401
aVTIKA-2303
p402
aVTIKA-2302
p403
aVTIKA-2301
p404
aVTIKA-2300
p405
aVTIKA-2298
p406
aVTIKA-2297
p407
aVTIKA-2296
p408
aVTIKA-2295
p409
aVTIKA-2294
p410
aVTIKA-2293
p411
aVTIKA-2292
p412
aVTIKA-2291
p413
aVTIKA-2290
p414
aVTIKA-2289
p415
aVTIKA-2288
p416
aVTIKA-2287
p417
aVTIKA-2286
p418
aVTIKA-2285
p419
aVTIKA-2284
p420
aVTIKA-2283
p421
aVTIKA-2282
p422
aVTIKA-2281
p423
aVTIKA-2280
p424
aVTIKA-2279
p425
aVTIKA-2278
p426
aVTIKA-2277
p427
aVTIKA-2276
p428
aVTIKA-2275
p429
aVTIKA-2274
p430
aVTIKA-2273
p431
aVTIKA-2272
p432
aVTIKA-2271
p433
aVTIKA-2270
p434
aVTIKA-2269
p435
aVTIKA-2268
p436
aVTIKA-2267
p437
aVTIKA-2266
p438
aVTIKA-2265
p439
aVTIKA-2264
p440
aVTIKA-2263
p441
aVTIKA-2262
p442
aVTIKA-2261
p443
aVTIKA-2260
p444
aVTIKA-2259
p445
aVTIKA-2258
p446
aVTIKA-2257
p447
aVTIKA-2256
p448
aVTIKA-2255
p449
aVTIKA-2254
p450
aVTIKA-2253
p451
aVTIKA-2252
p452
aVTIKA-2251
p453
aVTIKA-2250
p454
aVTIKA-2249
p455
aVTIKA-2248
p456
aVTIKA-2247
p457
aVTIKA-2246
p458
aVTIKA-2245
p459
aVTIKA-2244
p460
aVTIKA-2243
p461
aVTIKA-2242
p462
aVTIKA-2241
p463
aVTIKA-2240
p464
aVTIKA-2239
p465
aVTIKA-2238
p466
aVTIKA-2237
p467
aVTIKA-2236
p468
aVTIKA-2235
p469
aVTIKA-2234
p470
aVTIKA-2233
p471
aVTIKA-2232
p472
aVTIKA-2231
p473
aVTIKA-2230
p474
aVTIKA-2229
p475
aVTIKA-2228
p476
aVTIKA-2227
p477
aVTIKA-2226
p478
aVTIKA-2225
p479
aVTIKA-2224
p480
aVTIKA-2223
p481
aVTIKA-2222
p482
aVTIKA-2221
p483
aVTIKA-2220
p484
aVTIKA-2219
p485
aVTIKA-2218
p486
aVTIKA-2217
p487
aVTIKA-2216
p488
aVTIKA-2215
p489
aVTIKA-2214
p490
aVTIKA-2213
p491
aVTIKA-2212
p492
aVTIKA-2211
p493
aVTIKA-2210
p494
aVTIKA-2209
p495
aVTIKA-2208
p496
aVTIKA-2207
p497
aVTIKA-2206
p498
aVTIKA-2205
p499
aVTIKA-2204
p500
aVTIKA-2203
p501
aVTIKA-2202
p502
aVTIKA-2201
p503
aVTIKA-2200
p504
aVTIKA-2199
p505
aVTIKA-2198
p506
aVTIKA-2197
p507
aVTIKA-2196
p508
aVTIKA-2195
p509
aVTIKA-2194
p510
aVTIKA-2193
p511
aVTIKA-2192
p512
aVTIKA-2191
p513
aVTIKA-2190
p514
aVTIKA-2189
p515
aVTIKA-2188
p516
aVTIKA-2187
p517
aVTIKA-2186
p518
aVTIKA-2185
p519
aVTIKA-2184
p520
aVTIKA-2183
p521
aVTIKA-2182
p522
aVTIKA-2181
p523
aVTIKA-2180
p524
aVTIKA-2179
p525
aVTIKA-2178
p526
aVTIKA-2177
p527
aVTIKA-2176
p528
aVTIKA-2175
p529
aVTIKA-2174
p530
aVTIKA-2173
p531
aVTIKA-2172
p532
aVTIKA-2171
p533
aVTIKA-2170
p534
aVTIKA-2169
p535
aVTIKA-2168
p536
aVTIKA-2167
p537
aVTIKA-2166
p538
aVTIKA-2165
p539
aVTIKA-2164
p540
aVTIKA-2163
p541
aVTIKA-2162
p542
aVTIKA-2161
p543
aVTIKA-2160
p544
aVTIKA-2159
p545
aVTIKA-2158
p546
aVTIKA-2157
p547
aVTIKA-2156
p548
aVTIKA-2155
p549
aVTIKA-2154
p550
aVTIKA-2153
p551
aVTIKA-2152
p552
aVTIKA-2151
p553
aVTIKA-2150
p554
aVTIKA-2149
p555
aVTIKA-2148
p556
aVTIKA-2147
p557
aVTIKA-2146
p558
aVTIKA-2145
p559
aVTIKA-2144
p560
aVTIKA-2143
p561
aVTIKA-2142
p562
aVTIKA-2141
p563
aVTIKA-2140
p564
aVTIKA-2139
p565
aVTIKA-2138
p566
aVTIKA-2137
p567
aVTIKA-2136
p568
aVTIKA-2135
p569
aVTIKA-2134
p570
aVTIKA-2133
p571
aVTIKA-2132
p572
aVTIKA-2131
p573
aVTIKA-2130
p574
aVTIKA-2129
p575
aVTIKA-2128
p576
aVTIKA-2127
p577
aVTIKA-2126
p578
aVTIKA-2125
p579
aVTIKA-2124
p580
aVTIKA-2123
p581
aVTIKA-2122
p582
aVTIKA-2121
p583
aVTIKA-2120
p584
aVTIKA-2119
p585
aVTIKA-2118
p586
aVTIKA-2117
p587
aVTIKA-2116
p588
aVTIKA-2115
p589
aVTIKA-2114
p590
aVTIKA-2113
p591
aVTIKA-2112
p592
aVTIKA-2111
p593
aVTIKA-2110
p594
aVTIKA-2109
p595
aVTIKA-2108
p596
aVTIKA-2107
p597
aVTIKA-2106
p598
aVTIKA-2105
p599
aVTIKA-2104
p600
aVTIKA-2103
p601
aVTIKA-2102
p602
aVTIKA-2101
p603
aVTIKA-2100
p604
aVTIKA-2099
p605
aVTIKA-2098
p606
aVTIKA-2097
p607
aVTIKA-2096
p608
aVTIKA-2095
p609
aVTIKA-2094
p610
aVTIKA-2093
p611
aVTIKA-2092
p612
aVTIKA-2091
p613
aVTIKA-2090
p614
aVTIKA-2089
p615
aVTIKA-2088
p616
aVTIKA-2087
p617
aVTIKA-2086
p618
aVTIKA-2085
p619
aVTIKA-2084
p620
aVTIKA-2083
p621
aVTIKA-2082
p622
aVTIKA-2081
p623
aVTIKA-2080
p624
aVTIKA-2079
p625
aVTIKA-2078
p626
aVTIKA-2077
p627
aVTIKA-2076
p628
aVTIKA-2075
p629
aVTIKA-2074
p630
aVTIKA-2073
p631
aVTIKA-2072
p632
aVTIKA-2071
p633
aVTIKA-2070
p634
aVTIKA-2069
p635
aVTIKA-2068
p636
aVTIKA-2067
p637
aVTIKA-2066
p638
aVTIKA-2065
p639
aVTIKA-2064
p640
aVTIKA-2063
p641
aVTIKA-2062
p642
aVTIKA-2061
p643
aVTIKA-2060
p644
aVTIKA-2059
p645
aVTIKA-2058
p646
aVTIKA-2057
p647
aVTIKA-2056
p648
aVTIKA-2055
p649
aVTIKA-2054
p650
aVTIKA-2053
p651
aVTIKA-2052
p652
aVTIKA-2051
p653
aVTIKA-2050
p654
aVTIKA-2049
p655
aVTIKA-2048
p656
aVTIKA-2047
p657
aVTIKA-2046
p658
aVTIKA-2045
p659
aVTIKA-2044
p660
aVTIKA-2043
p661
aVTIKA-2042
p662
aVTIKA-2041
p663
aVTIKA-2040
p664
aVTIKA-2039
p665
aVTIKA-2038
p666
aVTIKA-2037
p667
aVTIKA-2036
p668
aVTIKA-2035
p669
aVTIKA-2034
p670
aVTIKA-2033
p671
aVTIKA-2032
p672
aVTIKA-2031
p673
aVTIKA-2030
p674
aVTIKA-2029
p675
aVTIKA-2028
p676
aVTIKA-2027
p677
aVTIKA-2026
p678
aVTIKA-2025
p679
aVTIKA-2024
p680
aVTIKA-2023
p681
aVTIKA-2022
p682
aVTIKA-2021
p683
aVTIKA-2020
p684
aVTIKA-2019
p685
aVTIKA-2018
p686
aVTIKA-2017
p687
aVTIKA-2016
p688
aVTIKA-2015
p689
aVTIKA-2014
p690
aVTIKA-2013
p691
aVTIKA-2012
p692
aVTIKA-2011
p693
aVTIKA-2010
p694
aVTIKA-2009
p695
aVTIKA-2008
p696
aVTIKA-2007
p697
aVTIKA-2006
p698
aVTIKA-2005
p699
aVTIKA-2004
p700
aVTIKA-2003
p701
aVTIKA-2002
p702
aVTIKA-2001
p703
aVTIKA-2000
p704
aVTIKA-1999
p705
aVTIKA-1998
p706
aVTIKA-1997
p707
aVTIKA-1996
p708
aVTIKA-1995
p709
aVTIKA-1994
p710
aVTIKA-1993
p711
aVTIKA-1992
p712
aVTIKA-1991
p713
aVTIKA-1990
p714
aVTIKA-1989
p715
aVTIKA-1988
p716
aVTIKA-1987
p717
aVTIKA-1986
p718
aVTIKA-1985
p719
aVTIKA-1984
p720
aVTIKA-1983
p721
aVTIKA-1982
p722
aVTIKA-1981
p723
aVTIKA-1980
p724
aVTIKA-1979
p725
aVTIKA-1978
p726
aVTIKA-1977
p727
aVTIKA-1976
p728
aVTIKA-1975
p729
aVTIKA-1974
p730
aVTIKA-1973
p731
aVTIKA-1972
p732
aVTIKA-1971
p733
aVTIKA-1970
p734
aVTIKA-1969
p735
aVTIKA-1968
p736
aVTIKA-1967
p737
aVTIKA-1966
p738
aVTIKA-1965
p739
aVTIKA-1964
p740
aVTIKA-1963
p741
aVTIKA-1962
p742
aVTIKA-1961
p743
aVTIKA-1960
p744
aVTIKA-1959
p745
aVTIKA-1958
p746
aVTIKA-1957
p747
aVTIKA-1956
p748
aVTIKA-1955
p749
aVTIKA-1954
p750
aVTIKA-1953
p751
aVTIKA-1952
p752
aVTIKA-1951
p753
aVTIKA-1950
p754
aVTIKA-1949
p755
aVTIKA-1948
p756
aVTIKA-1947
p757
aVTIKA-1946
p758
aVTIKA-1945
p759
aVTIKA-1944
p760
aVTIKA-1943
p761
aVTIKA-1942
p762
aVTIKA-1941
p763
aVTIKA-1940
p764
aVTIKA-1939
p765
aVTIKA-1938
p766
aVTIKA-1937
p767
aVTIKA-1936
p768
aVTIKA-1935
p769
aVTIKA-1934
p770
aVTIKA-1933
p771
aVTIKA-1932
p772
aVTIKA-1931
p773
aVTIKA-1930
p774
aVTIKA-1929
p775
aVTIKA-1928
p776
aVTIKA-1927
p777
aVTIKA-1926
p778
aVTIKA-1925
p779
aVTIKA-1924
p780
aVTIKA-1923
p781
aVTIKA-1922
p782
aVTIKA-1921
p783
aVTIKA-1920
p784
aVTIKA-1919
p785
aVTIKA-1918
p786
aVTIKA-1917
p787
aVTIKA-1916
p788
aVTIKA-1915
p789
aVTIKA-1914
p790
aVTIKA-1913
p791
aVTIKA-1912
p792
aVTIKA-1911
p793
aVTIKA-1910
p794
aVTIKA-1909
p795
aVTIKA-1908
p796
aVTIKA-1907
p797
aVTIKA-1906
p798
aVTIKA-1905
p799
aVTIKA-1904
p800
aVTIKA-1903
p801
aVTIKA-1902
p802
aVTIKA-1901
p803
aVTIKA-1900
p804
aVTIKA-1899
p805
aVTIKA-1898
p806
aVTIKA-1897
p807
aVTIKA-1896
p808
aVTIKA-1895
p809
aVTIKA-1894
p810
aVTIKA-1893
p811
aVTIKA-1892
p812
aVTIKA-1891
p813
aVTIKA-1890
p814
aVTIKA-1889
p815
aVTIKA-1888
p816
aVTIKA-1887
p817
aVTIKA-1886
p818
aVTIKA-1885
p819
aVTIKA-1884
p820
aVTIKA-1883
p821
aVTIKA-1882
p822
aVTIKA-1881
p823
aVTIKA-1880
p824
aVTIKA-1879
p825
aVTIKA-1878
p826
aVTIKA-1877
p827
aVTIKA-1876
p828
aVTIKA-1875
p829
aVTIKA-1874
p830
aVTIKA-1873
p831
aVTIKA-1872
p832
aVTIKA-1871
p833
aVTIKA-1870
p834
aVTIKA-1869
p835
aVTIKA-1868
p836
aVTIKA-1867
p837
aVTIKA-1866
p838
aVTIKA-1865
p839
aVTIKA-1864
p840
aVTIKA-1863
p841
aVTIKA-1862
p842
aVTIKA-1861
p843
aVTIKA-1860
p844
aVTIKA-1859
p845
aVTIKA-1858
p846
aVTIKA-1857
p847
aVTIKA-1856
p848
aVTIKA-1855
p849
aVTIKA-1854
p850
aVTIKA-1853
p851
aVTIKA-1852
p852
aVTIKA-1851
p853
aVTIKA-1850
p854
aVTIKA-1849
p855
aVTIKA-1848
p856
aVTIKA-1847
p857
aVTIKA-1846
p858
aVTIKA-1845
p859
aVTIKA-1844
p860
aVTIKA-1843
p861
aVTIKA-1842
p862
aVTIKA-1841
p863
aVTIKA-1840
p864
aVTIKA-1839
p865
aVTIKA-1838
p866
aVTIKA-1837
p867
aVTIKA-1836
p868
aVTIKA-1835
p869
aVTIKA-1834
p870
aVTIKA-1833
p871
aVTIKA-1832
p872
aVTIKA-1831
p873
aVTIKA-1830
p874
aVTIKA-1829
p875
aVTIKA-1828
p876
aVTIKA-1827
p877
aVTIKA-1826
p878
aVTIKA-1825
p879
aVTIKA-1824
p880
aVTIKA-1823
p881
aVTIKA-1822
p882
aVTIKA-1821
p883
aVTIKA-1820
p884
aVTIKA-1819
p885
aVTIKA-1818
p886
aVTIKA-1817
p887
aVTIKA-1816
p888
aVTIKA-1815
p889
aVTIKA-1814
p890
aVTIKA-1813
p891
aVTIKA-1812
p892
aVTIKA-1811
p893
aVTIKA-1810
p894
aVTIKA-1809
p895
aVTIKA-1808
p896
aVTIKA-1807
p897
aVTIKA-1806
p898
aVTIKA-1805
p899
aVTIKA-1804
p900
aVTIKA-1803
p901
aVTIKA-1802
p902
aVTIKA-1801
p903
aVTIKA-1800
p904
aVTIKA-1799
p905
aVTIKA-1798
p906
aVTIKA-1797
p907
aVTIKA-1796
p908
aVTIKA-1795
p909
aVTIKA-1794
p910
aVTIKA-1793
p911
aVTIKA-1792
p912
aVTIKA-1791
p913
aVTIKA-1790
p914
aVTIKA-1788
p915
aVTIKA-1787
p916
aVTIKA-1786
p917
aVTIKA-1785
p918
aVTIKA-1784
p919
aVTIKA-1783
p920
aVTIKA-1782
p921
aVTIKA-1781
p922
aVTIKA-1780
p923
aVTIKA-1779
p924
aVTIKA-1778
p925
aVTIKA-1777
p926
aVTIKA-1776
p927
aVTIKA-1775
p928
aVTIKA-1774
p929
aVTIKA-1773
p930
aVTIKA-1772
p931
aVTIKA-1771
p932
aVTIKA-1770
p933
aVTIKA-1769
p934
aVTIKA-1768
p935
aVTIKA-1767
p936
aVTIKA-1766
p937
aVTIKA-1765
p938
aVTIKA-1764
p939
aVTIKA-1763
p940
aVTIKA-1762
p941
aVTIKA-1761
p942
aVTIKA-1760
p943
aVTIKA-1759
p944
aVTIKA-1758
p945
aVTIKA-1757
p946
aVTIKA-1756
p947
aVTIKA-1755
p948
aVTIKA-1754
p949
aVTIKA-1753
p950
aVTIKA-1752
p951
aVTIKA-1751
p952
aVTIKA-1750
p953
aVTIKA-1749
p954
aVTIKA-1748
p955
aVTIKA-1747
p956
aVTIKA-1746
p957
aVTIKA-1745
p958
aVTIKA-1744
p959
aVTIKA-1743
p960
aVTIKA-1742
p961
aVTIKA-1741
p962
aVTIKA-1740
p963
aVTIKA-1739
p964
aVTIKA-1738
p965
aVTIKA-1737
p966
aVTIKA-1736
p967
aVTIKA-1735
p968
aVTIKA-1734
p969
aVTIKA-1733
p970
aVTIKA-1732
p971
aVTIKA-1731
p972
aVTIKA-1730
p973
aVTIKA-1729
p974
aVTIKA-1728
p975
aVTIKA-1727
p976
aVTIKA-1726
p977
aVTIKA-1725
p978
aVTIKA-1724
p979
aVTIKA-1723
p980
aVTIKA-1722
p981
aVTIKA-1721
p982
aVTIKA-1720
p983
aVTIKA-1719
p984
aVTIKA-1718
p985
aVTIKA-1717
p986
aVTIKA-1716
p987
aVTIKA-1715
p988
aVTIKA-1714
p989
aVTIKA-1713
p990
aVTIKA-1712
p991
aVTIKA-1711
p992
aVTIKA-1710
p993
aVTIKA-1709
p994
aVTIKA-1708
p995
aVTIKA-1707
p996
aVTIKA-1706
p997
aVTIKA-1705
p998
aVTIKA-1704
p999
aVTIKA-1703
p1000
aVTIKA-1702
p1001
aVTIKA-1701
p1002
aVTIKA-1700
p1003
aVTIKA-1699
p1004
aVTIKA-1698
p1005
aVTIKA-1697
p1006
aVTIKA-1696
p1007
aVTIKA-1695
p1008
aVTIKA-1694
p1009
aVTIKA-1693
p1010
aVTIKA-1692
p1011
aVTIKA-1691
p1012
aVTIKA-1690
p1013
aVTIKA-1689
p1014
aVTIKA-1688
p1015
aVTIKA-1687
p1016
aVTIKA-1686
p1017
aVTIKA-1685
p1018
aVTIKA-1684
p1019
aVTIKA-1683
p1020
aVTIKA-1682
p1021
aVTIKA-1681
p1022
aVTIKA-1680
p1023
aVTIKA-1679
p1024
aVTIKA-1678
p1025
aVTIKA-1677
p1026
aVTIKA-1676
p1027
aVTIKA-1675
p1028
aVTIKA-1674
p1029
aVTIKA-1673
p1030
aVTIKA-1672
p1031
aVTIKA-1671
p1032
aVTIKA-1670
p1033
aVTIKA-1669
p1034
aVTIKA-1668
p1035
aVTIKA-1667
p1036
aVTIKA-1666
p1037
aVTIKA-1665
p1038
aVTIKA-1664
p1039
aVTIKA-1663
p1040
aVTIKA-1662
p1041
aVTIKA-1661
p1042
aVTIKA-1660
p1043
aVTIKA-1659
p1044
aVTIKA-1658
p1045
aVTIKA-1657
p1046
aVTIKA-1656
p1047
aVTIKA-1655
p1048
aVTIKA-1654
p1049
aVTIKA-1653
p1050
aVTIKA-1652
p1051
aVTIKA-1651
p1052
aVTIKA-1650
p1053
aVTIKA-1649
p1054
aVTIKA-1648
p1055
aVTIKA-1647
p1056
aVTIKA-1646
p1057
aVTIKA-1645
p1058
aVTIKA-1644
p1059
aVTIKA-1643
p1060
aVTIKA-1642
p1061
aVTIKA-1641
p1062
aVTIKA-1640
p1063
aVTIKA-1639
p1064
aVTIKA-1638
p1065
aVTIKA-1637
p1066
aVTIKA-1636
p1067
aVTIKA-1635
p1068
aVTIKA-1634
p1069
aVTIKA-1633
p1070
aVTIKA-1632
p1071
aVTIKA-1631
p1072
aVTIKA-1630
p1073
aVTIKA-1629
p1074
aVTIKA-1628
p1075
aVTIKA-1627
p1076
aVTIKA-1626
p1077
aVTIKA-1625
p1078
aVTIKA-1624
p1079
aVTIKA-1623
p1080
aVTIKA-1622
p1081
aVTIKA-1621
p1082
aVTIKA-1620
p1083
aVTIKA-1619
p1084
aVTIKA-1618
p1085
aVTIKA-1617
p1086
aVTIKA-1616
p1087
aVTIKA-1615
p1088
aVTIKA-1614
p1089
aVTIKA-1613
p1090
aVTIKA-1612
p1091
aVTIKA-1611
p1092
aVTIKA-1610
p1093
aVTIKA-1609
p1094
aVTIKA-1608
p1095
aVTIKA-1607
p1096
aVTIKA-1606
p1097
aVTIKA-1605
p1098
aVTIKA-1604
p1099
aVTIKA-1603
p1100
aVTIKA-1602
p1101
aVTIKA-1601
p1102
aVTIKA-1600
p1103
aVTIKA-1599
p1104
aVTIKA-1598
p1105
aVTIKA-1597
p1106
aVTIKA-1596
p1107
aVTIKA-1595
p1108
aVTIKA-1594
p1109
aVTIKA-1593
p1110
aVTIKA-1592
p1111
aVTIKA-1591
p1112
aVTIKA-1590
p1113
aVTIKA-1589
p1114
aVTIKA-1588
p1115
aVTIKA-1587
p1116
aVTIKA-1586
p1117
aVTIKA-1585
p1118
aVTIKA-1584
p1119
aVTIKA-1583
p1120
aVTIKA-1582
p1121
aVTIKA-1581
p1122
aVTIKA-1580
p1123
aVTIKA-1579
p1124
aVTIKA-1578
p1125
aVTIKA-1577
p1126
aVTIKA-1576
p1127
aVTIKA-1575
p1128
aVTIKA-1574
p1129
aVTIKA-1573
p1130
aVTIKA-1572
p1131
aVTIKA-1571
p1132
aVTIKA-1570
p1133
aVTIKA-1569
p1134
aVTIKA-1568
p1135
aVTIKA-1567
p1136
aVTIKA-1566
p1137
aVTIKA-1565
p1138
aVTIKA-1564
p1139
aVTIKA-1563
p1140
aVTIKA-1562
p1141
aVTIKA-1561
p1142
aVTIKA-1560
p1143
aVTIKA-1559
p1144
aVTIKA-1558
p1145
aVTIKA-1557
p1146
aVTIKA-1556
p1147
aVTIKA-1555
p1148
aVTIKA-1554
p1149
aVTIKA-1553
p1150
aVTIKA-1552
p1151
aVTIKA-1551
p1152
aVTIKA-1550
p1153
aVTIKA-1549
p1154
aVTIKA-1548
p1155
aVTIKA-1547
p1156
aVTIKA-1546
p1157
aVTIKA-1545
p1158
aVTIKA-1544
p1159
aVTIKA-1543
p1160
aVTIKA-1542
p1161
aVTIKA-1541
p1162
aVTIKA-1540
p1163
aVTIKA-1539
p1164
aVTIKA-1538
p1165
aVTIKA-1537
p1166
aVTIKA-1536
p1167
aVTIKA-1535
p1168
aVTIKA-1534
p1169
aVTIKA-1533
p1170
aVTIKA-1532
p1171
aVTIKA-1531
p1172
aVTIKA-1530
p1173
aVTIKA-1529
p1174
aVTIKA-1528
p1175
aVTIKA-1527
p1176
aVTIKA-1526
p1177
aVTIKA-1525
p1178
aVTIKA-1524
p1179
aVTIKA-1523
p1180
aVTIKA-1522
p1181
aVTIKA-1521
p1182
aVTIKA-1520
p1183
aVTIKA-1519
p1184
aVTIKA-1518
p1185
aVTIKA-1517
p1186
aVTIKA-1516
p1187
aVTIKA-1515
p1188
aVTIKA-1514
p1189
aVTIKA-1513
p1190
aVTIKA-1512
p1191
aVTIKA-1511
p1192
aVTIKA-1510
p1193
aVTIKA-1509
p1194
aVTIKA-1508
p1195
aVTIKA-1507
p1196
aVTIKA-1506
p1197
aVTIKA-1505
p1198
aVTIKA-1504
p1199
aVTIKA-1503
p1200
aVTIKA-1502
p1201
aVTIKA-1501
p1202
aVTIKA-1500
p1203
aVTIKA-1499
p1204
aVTIKA-1498
p1205
aVTIKA-1497
p1206
aVTIKA-1496
p1207
aVTIKA-1495
p1208
aVTIKA-1494
p1209
aVTIKA-1493
p1210
aVTIKA-1492
p1211
aVTIKA-1491
p1212
aVTIKA-1490
p1213
aVTIKA-1489
p1214
aVTIKA-1488
p1215
aVTIKA-1487
p1216
aVTIKA-1486
p1217
aVTIKA-1485
p1218
aVTIKA-1484
p1219
aVTIKA-1483
p1220
aVTIKA-1482
p1221
aVTIKA-1481
p1222
aVTIKA-1480
p1223
aVTIKA-1479
p1224
aVTIKA-1478
p1225
aVTIKA-1477
p1226
aVTIKA-1476
p1227
aVTIKA-1475
p1228
aVTIKA-1474
p1229
aVTIKA-1473
p1230
aVTIKA-1472
p1231
aVTIKA-1471
p1232
aVTIKA-1470
p1233
aVTIKA-1469
p1234
aVTIKA-1468
p1235
aVTIKA-1467
p1236
aVTIKA-1466
p1237
aVTIKA-1465
p1238
aVTIKA-1464
p1239
aVTIKA-1463
p1240
aVTIKA-1462
p1241
aVTIKA-1461
p1242
aVTIKA-1460
p1243
aVTIKA-1459
p1244
aVTIKA-1458
p1245
aVTIKA-1457
p1246
aVTIKA-1456
p1247
aVTIKA-1455
p1248
aVTIKA-1454
p1249
aVTIKA-1453
p1250
aVTIKA-1452
p1251
aVTIKA-1451
p1252
aVTIKA-1450
p1253
aVTIKA-1449
p1254
aVTIKA-1448
p1255
aVTIKA-1447
p1256
aVTIKA-1446
p1257
aVTIKA-1445
p1258
aVTIKA-1444
p1259
aVTIKA-1443
p1260
aVTIKA-1442
p1261
aVTIKA-1441
p1262
aVTIKA-1440
p1263
aVTIKA-1439
p1264
aVTIKA-1438
p1265
aVTIKA-1437
p1266
aVTIKA-1436
p1267
aVTIKA-1435
p1268
aVTIKA-1434
p1269
aVTIKA-1433
p1270
aVTIKA-1432
p1271
aVTIKA-1431
p1272
aVTIKA-1430
p1273
aVTIKA-1429
p1274
aVTIKA-1428
p1275
aVTIKA-1427
p1276
aVTIKA-1426
p1277
aVTIKA-1425
p1278
aVTIKA-1424
p1279
aVTIKA-1423
p1280
aVTIKA-1422
p1281
aVTIKA-1421
p1282
aVTIKA-1420
p1283
aVTIKA-1419
p1284
aVTIKA-1418
p1285
aVTIKA-1417
p1286
aVTIKA-1416
p1287
aVTIKA-1415
p1288
aVTIKA-1414
p1289
aVTIKA-1413
p1290
aVTIKA-1412
p1291
aVTIKA-1411
p1292
aVTIKA-1410
p1293
aVTIKA-1409
p1294
aVTIKA-1408
p1295
aVTIKA-1407
p1296
aVTIKA-1406
p1297
aVTIKA-1405
p1298
aVTIKA-1404
p1299
aVTIKA-1403
p1300
aVTIKA-1402
p1301
aVTIKA-1401
p1302
aVTIKA-1400
p1303
aVTIKA-1399
p1304
aVTIKA-1398
p1305
aVTIKA-1397
p1306
aVTIKA-1396
p1307
aVTIKA-1395
p1308
aVTIKA-1394
p1309
aVTIKA-1393
p1310
aVTIKA-1392
p1311
aVTIKA-1391
p1312
aVTIKA-1390
p1313
aVTIKA-1389
p1314
aVTIKA-1388
p1315
aVTIKA-1387
p1316
aVTIKA-1385
p1317
aVTIKA-1384
p1318
aVTIKA-1383
p1319
aVTIKA-1382
p1320
aVTIKA-1381
p1321
aVTIKA-1380
p1322
aVTIKA-1379
p1323
aVTIKA-1378
p1324
aVTIKA-1377
p1325
aVTIKA-1376
p1326
aVTIKA-1375
p1327
aVTIKA-1374
p1328
aVTIKA-1373
p1329
aVTIKA-1372
p1330
aVTIKA-1371
p1331
aVTIKA-1370
p1332
aVTIKA-1369
p1333
aVTIKA-1368
p1334
aVTIKA-1367
p1335
aVTIKA-1366
p1336
aVTIKA-1365
p1337
aVTIKA-1364
p1338
aVTIKA-1363
p1339
aVTIKA-1362
p1340
aVTIKA-1361
p1341
aVTIKA-1360
p1342
aVTIKA-1359
p1343
aVTIKA-1358
p1344
aVTIKA-1357
p1345
aVTIKA-1356
p1346
aVTIKA-1355
p1347
aVTIKA-1354
p1348
aVTIKA-1353
p1349
aVTIKA-1352
p1350
aVTIKA-1351
p1351
aVTIKA-1350
p1352
aVTIKA-1345
p1353
aVTIKA-1344
p1354
aVTIKA-1343
p1355
aVTIKA-1342
p1356
aVTIKA-1341
p1357
aVTIKA-1340
p1358
aVTIKA-1339
p1359
aVTIKA-1338
p1360
aVTIKA-1337
p1361
aVTIKA-1336
p1362
aVTIKA-1335
p1363
aVTIKA-1334
p1364
aVTIKA-1333
p1365
aVTIKA-1332
p1366
aVTIKA-1331
p1367
aVTIKA-1330
p1368
aVTIKA-1329
p1369
aVTIKA-1328
p1370
aVTIKA-1327
p1371
aVTIKA-1326
p1372
aVTIKA-1325
p1373
aVTIKA-1324
p1374
aVTIKA-1323
p1375
aVTIKA-1322
p1376
aVTIKA-1321
p1377
aVTIKA-1320
p1378
aVTIKA-1319
p1379
aVTIKA-1318
p1380
aVTIKA-1317
p1381
aVTIKA-1316
p1382
aVTIKA-1315
p1383
aVTIKA-1314
p1384
aVTIKA-1313
p1385
aVTIKA-1312
p1386
aVTIKA-1311
p1387
aVTIKA-1310
p1388
aVTIKA-1309
p1389
aVTIKA-1308
p1390
aVTIKA-1307
p1391
aVTIKA-1306
p1392
aVTIKA-1305
p1393
aVTIKA-1304
p1394
aVTIKA-1303
p1395
aVTIKA-1302
p1396
aVTIKA-1301
p1397
aVTIKA-1300
p1398
aVTIKA-1299
p1399
aVTIKA-1298
p1400
aVTIKA-1297
p1401
aVTIKA-1296
p1402
aVTIKA-1295
p1403
aVTIKA-1294
p1404
aVTIKA-1293
p1405
aVTIKA-1292
p1406
aVTIKA-1291
p1407
aVTIKA-1290
p1408
aVTIKA-1289
p1409
aVTIKA-1288
p1410
aVTIKA-1287
p1411
aVTIKA-1286
p1412
aVTIKA-1285
p1413
aVTIKA-1284
p1414
aVTIKA-1283
p1415
aVTIKA-1282
p1416
aVTIKA-1281
p1417
aVTIKA-1280
p1418
aVTIKA-1279
p1419
aVTIKA-1278
p1420
aVTIKA-1277
p1421
aVTIKA-1276
p1422
aVTIKA-1275
p1423
aVTIKA-1274
p1424
aVTIKA-1273
p1425
aVTIKA-1272
p1426
aVTIKA-1271
p1427
aVTIKA-1270
p1428
aVTIKA-1269
p1429
aVTIKA-1268
p1430
aVTIKA-1267
p1431
aVTIKA-1266
p1432
aVTIKA-1265
p1433
aVTIKA-1264
p1434
aVTIKA-1263
p1435
aVTIKA-1262
p1436
aVTIKA-1261
p1437
aVTIKA-1260
p1438
aVTIKA-1259
p1439
aVTIKA-1258
p1440
aVTIKA-1257
p1441
aVTIKA-1256
p1442
aVTIKA-1255
p1443
aVTIKA-1254
p1444
aVTIKA-1253
p1445
aVTIKA-1252
p1446
aVTIKA-1251
p1447
aVTIKA-1250
p1448
aVTIKA-1249
p1449
aVTIKA-1248
p1450
aVTIKA-1247
p1451
aVTIKA-1246
p1452
aVTIKA-1245
p1453
aVTIKA-1244
p1454
aVTIKA-1243
p1455
aVTIKA-1242
p1456
aVTIKA-1241
p1457
aVTIKA-1240
p1458
aVTIKA-1239
p1459
aVTIKA-1238
p1460
aVTIKA-1237
p1461
aVTIKA-1236
p1462
aVTIKA-1235
p1463
aVTIKA-1234
p1464
aVTIKA-1233
p1465
aVTIKA-1232
p1466
aVTIKA-1231
p1467
aVTIKA-1230
p1468
aVTIKA-1229
p1469
aVTIKA-1228
p1470
aVTIKA-1227
p1471
aVTIKA-1226
p1472
aVTIKA-1225
p1473
aVTIKA-1224
p1474
aVTIKA-1223
p1475
aVTIKA-1222
p1476
aVTIKA-1221
p1477
aVTIKA-1220
p1478
aVTIKA-1219
p1479
aVTIKA-1218
p1480
aVTIKA-1217
p1481
aVTIKA-1216
p1482
aVTIKA-1215
p1483
aVTIKA-1214
p1484
aVTIKA-1213
p1485
aVTIKA-1212
p1486
aVTIKA-1211
p1487
aVTIKA-1210
p1488
aVTIKA-1209
p1489
aVTIKA-1208
p1490
aVTIKA-1207
p1491
aVTIKA-1206
p1492
aVTIKA-1205
p1493
aVTIKA-1204
p1494
aVTIKA-1203
p1495
aVTIKA-1202
p1496
aVTIKA-1201
p1497
aVTIKA-1200
p1498
aVTIKA-1199
p1499
aVTIKA-1198
p1500
aVTIKA-1197
p1501
aVTIKA-1196
p1502
aVTIKA-1195
p1503
aVTIKA-1194
p1504
aVTIKA-1193
p1505
aVTIKA-1192
p1506
aVTIKA-1191
p1507
aVTIKA-1190
p1508
aVTIKA-1189
p1509
aVTIKA-1188
p1510
aVTIKA-1187
p1511
aVTIKA-1186
p1512
aVTIKA-1185
p1513
aVTIKA-1184
p1514
aVTIKA-1183
p1515
aVTIKA-1182
p1516
aVTIKA-1181
p1517
aVTIKA-1180
p1518
aVTIKA-1179
p1519
aVTIKA-1178
p1520
aVTIKA-1177
p1521
aVTIKA-1176
p1522
aVTIKA-1175
p1523
aVTIKA-1174
p1524
aVTIKA-1173
p1525
aVTIKA-1172
p1526
aVTIKA-1171
p1527
aVTIKA-1170
p1528
aVTIKA-1169
p1529
aVTIKA-1168
p1530
aVTIKA-1167
p1531
aVTIKA-1166
p1532
aVTIKA-1165
p1533
aVTIKA-1164
p1534
aVTIKA-1163
p1535
aVTIKA-1162
p1536
aVTIKA-1161
p1537
aVTIKA-1160
p1538
aVTIKA-1159
p1539
aVTIKA-1158
p1540
aVTIKA-1157
p1541
aVTIKA-1156
p1542
aVTIKA-1155
p1543
aVTIKA-1154
p1544
aVTIKA-1153
p1545
aVTIKA-1152
p1546
aVTIKA-1151
p1547
aVTIKA-1150
p1548
aVTIKA-1149
p1549
aVTIKA-1148
p1550
aVTIKA-1147
p1551
aVTIKA-1146
p1552
aVTIKA-1145
p1553
aVTIKA-1144
p1554
aVTIKA-1143
p1555
aVTIKA-1142
p1556
aVTIKA-1141
p1557
aVTIKA-1140
p1558
aVTIKA-1139
p1559
aVTIKA-1138
p1560
aVTIKA-1137
p1561
aVTIKA-1136
p1562
aVTIKA-1135
p1563
aVTIKA-1134
p1564
aVTIKA-1133
p1565
aVTIKA-1132
p1566
aVTIKA-1131
p1567
aVTIKA-1130
p1568
aVTIKA-1129
p1569
aVTIKA-1128
p1570
aVTIKA-1127
p1571
aVTIKA-1126
p1572
aVTIKA-1125
p1573
aVTIKA-1124
p1574
aVTIKA-1123
p1575
aVTIKA-1122
p1576
aVTIKA-1121
p1577
aVTIKA-1120
p1578
aVTIKA-1119
p1579
aVTIKA-1118
p1580
aVTIKA-1117
p1581
aVTIKA-1116
p1582
aVTIKA-1115
p1583
aVTIKA-1114
p1584
aVTIKA-1113
p1585
aVTIKA-1112
p1586
aVTIKA-1111
p1587
aVTIKA-1110
p1588
aVTIKA-1109
p1589
aVTIKA-1108
p1590
aVTIKA-1107
p1591
aVTIKA-1106
p1592
aVTIKA-1105
p1593
aVTIKA-1104
p1594
aVTIKA-1103
p1595
aVTIKA-1102
p1596
aVTIKA-1101
p1597
aVTIKA-1100
p1598
aVTIKA-1099
p1599
aVTIKA-1098
p1600
aVTIKA-1097
p1601
aVTIKA-1096
p1602
aVTIKA-1095
p1603
aVTIKA-1094
p1604
aVTIKA-1093
p1605
aVTIKA-1092
p1606
aVTIKA-1091
p1607
aVTIKA-1090
p1608
aVTIKA-1089
p1609
aVTIKA-1088
p1610
aVTIKA-1087
p1611
aVTIKA-1086
p1612
aVTIKA-1085
p1613
aVTIKA-1084
p1614
aVTIKA-1083
p1615
aVTIKA-1082
p1616
aVTIKA-1081
p1617
aVTIKA-1080
p1618
aVTIKA-1079
p1619
aVTIKA-1078
p1620
aVTIKA-1077
p1621
aVTIKA-1076
p1622
aVTIKA-1075
p1623
aVTIKA-1074
p1624
aVTIKA-1073
p1625
aVTIKA-1072
p1626
aVTIKA-1071
p1627
aVTIKA-1070
p1628
aVTIKA-1069
p1629
aVTIKA-1068
p1630
aVTIKA-1067
p1631
aVTIKA-1066
p1632
aVTIKA-1065
p1633
aVTIKA-1064
p1634
aVTIKA-1063
p1635
aVTIKA-1062
p1636
aVTIKA-1061
p1637
aVTIKA-1060
p1638
aVTIKA-1059
p1639
aVTIKA-1058
p1640
aVTIKA-1057
p1641
aVTIKA-1056
p1642
aVTIKA-1055
p1643
aVTIKA-1054
p1644
aVTIKA-1053
p1645
aVTIKA-1052
p1646
aVTIKA-1051
p1647
aVTIKA-1050
p1648
aVTIKA-1049
p1649
aVTIKA-1048
p1650
aVTIKA-1047
p1651
aVTIKA-1046
p1652
aVTIKA-1045
p1653
aVTIKA-1044
p1654
aVTIKA-1043
p1655
aVTIKA-1042
p1656
aVTIKA-1041
p1657
aVTIKA-1040
p1658
aVTIKA-1039
p1659
aVTIKA-1038
p1660
aVTIKA-1037
p1661
aVTIKA-1036
p1662
aVTIKA-1035
p1663
aVTIKA-1034
p1664
aVTIKA-1033
p1665
aVTIKA-1032
p1666
aVTIKA-1031
p1667
aVTIKA-1030
p1668
aVTIKA-1029
p1669
aVTIKA-1028
p1670
aVTIKA-1027
p1671
aVTIKA-1026
p1672
aVTIKA-1025
p1673
aVTIKA-1024
p1674
aVTIKA-1023
p1675
aVTIKA-1022
p1676
aVTIKA-1021
p1677
aVTIKA-1020
p1678
aVTIKA-1019
p1679
aVTIKA-1018
p1680
aVTIKA-1017
p1681
aVTIKA-1016
p1682
aVTIKA-1015
p1683
aVTIKA-1014
p1684
aVTIKA-1013
p1685
aVTIKA-1012
p1686
aVTIKA-1011
p1687
aVTIKA-1010
p1688
aVTIKA-1009
p1689
aVTIKA-1008
p1690
aVTIKA-1007
p1691
aVTIKA-1006
p1692
aVTIKA-1005
p1693
aVTIKA-1004
p1694
aVTIKA-1003
p1695
aVTIKA-1002
p1696
aVTIKA-1001
p1697
aVTIKA-1000
p1698
aVTIKA-999
p1699
aVTIKA-998
p1700
aVTIKA-997
p1701
aVTIKA-996
p1702
aVTIKA-995
p1703
aVTIKA-994
p1704
aVTIKA-993
p1705
aVTIKA-992
p1706
aVTIKA-991
p1707
aVTIKA-990
p1708
aVTIKA-989
p1709
aVTIKA-988
p1710
aVTIKA-987
p1711
aVTIKA-986
p1712
aVTIKA-985
p1713
aVTIKA-984
p1714
aVTIKA-983
p1715
aVTIKA-982
p1716
aVTIKA-981
p1717
aVTIKA-980
p1718
aVTIKA-979
p1719
aVTIKA-978
p1720
aVTIKA-977
p1721
aVTIKA-976
p1722
aVTIKA-975
p1723
aVTIKA-974
p1724
aVTIKA-973
p1725
aVTIKA-972
p1726
aVTIKA-971
p1727
aVTIKA-970
p1728
aVTIKA-969
p1729
aVTIKA-968
p1730
aVTIKA-967
p1731
aVTIKA-966
p1732
aVTIKA-965
p1733
aVTIKA-964
p1734
aVTIKA-963
p1735
aVTIKA-962
p1736
aVTIKA-961
p1737
aVTIKA-960
p1738
aVTIKA-959
p1739
aVTIKA-958
p1740
aVTIKA-957
p1741
aVTIKA-956
p1742
aVTIKA-955
p1743
aVTIKA-954
p1744
aVTIKA-953
p1745
aVTIKA-952
p1746
aVTIKA-951
p1747
aVTIKA-950
p1748
aVTIKA-949
p1749
aVTIKA-948
p1750
aVTIKA-947
p1751
aVTIKA-946
p1752
aVTIKA-945
p1753
aVTIKA-944
p1754
aVTIKA-943
p1755
aVTIKA-942
p1756
aVTIKA-941
p1757
aVTIKA-940
p1758
aVTIKA-939
p1759
aVTIKA-938
p1760
aVTIKA-937
p1761
aVTIKA-936
p1762
aVTIKA-935
p1763
aVTIKA-934
p1764
aVTIKA-933
p1765
aVTIKA-932
p1766
aVTIKA-931
p1767
aVTIKA-930
p1768
aVTIKA-929
p1769
aVTIKA-928
p1770
aVTIKA-927
p1771
aVTIKA-926
p1772
aVTIKA-925
p1773
aVTIKA-924
p1774
aVTIKA-923
p1775
aVTIKA-922
p1776
aVTIKA-921
p1777
aVTIKA-920
p1778
aVTIKA-919
p1779
aVTIKA-918
p1780
aVTIKA-917
p1781
aVTIKA-916
p1782
aVTIKA-915
p1783
aVTIKA-914
p1784
aVTIKA-913
p1785
aVTIKA-912
p1786
aVTIKA-911
p1787
aVTIKA-910
p1788
aVTIKA-909
p1789
aVTIKA-908
p1790
aVTIKA-907
p1791
aVTIKA-906
p1792
aVTIKA-905
p1793
aVTIKA-904
p1794
aVTIKA-903
p1795
aVTIKA-902
p1796
aVTIKA-901
p1797
aVTIKA-900
p1798
aVTIKA-899
p1799
aVTIKA-898
p1800
aVTIKA-897
p1801
aVTIKA-896
p1802
aVTIKA-895
p1803
aVTIKA-894
p1804
aVTIKA-893
p1805
aVTIKA-892
p1806
aVTIKA-891
p1807
aVTIKA-890
p1808
aVTIKA-889
p1809
aVTIKA-888
p1810
aVTIKA-887
p1811
aVTIKA-886
p1812
aVTIKA-885
p1813
aVTIKA-884
p1814
aVTIKA-883
p1815
aVTIKA-882
p1816
aVTIKA-881
p1817
aVTIKA-880
p1818
aVTIKA-879
p1819
aVTIKA-878
p1820
aVTIKA-877
p1821
aVTIKA-876
p1822
aVTIKA-875
p1823
aVTIKA-874
p1824
aVTIKA-873
p1825
aVTIKA-872
p1826
aVTIKA-871
p1827
aVTIKA-870
p1828
aVTIKA-869
p1829
aVTIKA-868
p1830
aVTIKA-867
p1831
aVTIKA-866
p1832
aVTIKA-865
p1833
aVTIKA-864
p1834
aVTIKA-863
p1835
aVTIKA-862
p1836
aVTIKA-861
p1837
aVTIKA-860
p1838
aVTIKA-859
p1839
aVTIKA-858
p1840
aVTIKA-857
p1841
aVTIKA-856
p1842
aVTIKA-855
p1843
aVTIKA-854
p1844
aVTIKA-853
p1845
aVTIKA-852
p1846
aVTIKA-851
p1847
aVTIKA-850
p1848
aVTIKA-849
p1849
aVTIKA-848
p1850
aVTIKA-847
p1851
aVTIKA-846
p1852
aVTIKA-845
p1853
aVTIKA-844
p1854
aVTIKA-843
p1855
aVTIKA-842
p1856
aVTIKA-841
p1857
aVTIKA-840
p1858
aVTIKA-839
p1859
aVTIKA-838
p1860
aVTIKA-837
p1861
aVTIKA-836
p1862
aVTIKA-835
p1863
aVTIKA-834
p1864
aVTIKA-833
p1865
aVTIKA-832
p1866
aVTIKA-831
p1867
aVTIKA-830
p1868
aVTIKA-829
p1869
aVTIKA-828
p1870
aVTIKA-827
p1871
aVTIKA-826
p1872
aVTIKA-825
p1873
aVTIKA-824
p1874
aVTIKA-823
p1875
aVTIKA-822
p1876
aVTIKA-821
p1877
aVTIKA-820
p1878
aVTIKA-819
p1879
aVTIKA-818
p1880
aVTIKA-817
p1881
aVTIKA-816
p1882
aVTIKA-815
p1883
aVTIKA-814
p1884
aVTIKA-813
p1885
aVTIKA-812
p1886
aVTIKA-811
p1887
aVTIKA-810
p1888
aVTIKA-809
p1889
aVTIKA-808
p1890
aVTIKA-807
p1891
aVTIKA-806
p1892
aVTIKA-805
p1893
aVTIKA-804
p1894
aVTIKA-803
p1895
aVTIKA-802
p1896
aVTIKA-801
p1897
aVTIKA-800
p1898
aVTIKA-799
p1899
aVTIKA-798
p1900
aVTIKA-797
p1901
aVTIKA-796
p1902
aVTIKA-795
p1903
aVTIKA-794
p1904
aVTIKA-793
p1905
aVTIKA-792
p1906
aVTIKA-791
p1907
aVTIKA-790
p1908
aVTIKA-789
p1909
aVTIKA-788
p1910
aVTIKA-787
p1911
aVTIKA-786
p1912
aVTIKA-785
p1913
aVTIKA-784
p1914
aVTIKA-783
p1915
aVTIKA-782
p1916
aVTIKA-781
p1917
aVTIKA-780
p1918
aVTIKA-779
p1919
aVTIKA-778
p1920
aVTIKA-777
p1921
aVTIKA-776
p1922
aVTIKA-775
p1923
aVTIKA-774
p1924
aVTIKA-773
p1925
aVTIKA-772
p1926
aVTIKA-771
p1927
aVTIKA-770
p1928
aVTIKA-769
p1929
aVTIKA-768
p1930
aVTIKA-767
p1931
aVTIKA-766
p1932
aVTIKA-765
p1933
aVTIKA-764
p1934
aVTIKA-763
p1935
aVTIKA-762
p1936
aVTIKA-761
p1937
aVTIKA-760
p1938
aVTIKA-759
p1939
aVTIKA-758
p1940
aVTIKA-757
p1941
aVTIKA-756
p1942
aVTIKA-755
p1943
aVTIKA-754
p1944
aVTIKA-753
p1945
aVTIKA-752
p1946
aVTIKA-751
p1947
aVTIKA-750
p1948
aVTIKA-749
p1949
aVTIKA-748
p1950
aVTIKA-747
p1951
aVTIKA-746
p1952
aVTIKA-745
p1953
aVTIKA-744
p1954
aVTIKA-743
p1955
aVTIKA-742
p1956
aVTIKA-741
p1957
aVTIKA-740
p1958
aVTIKA-739
p1959
aVTIKA-738
p1960
aVTIKA-737
p1961
aVTIKA-736
p1962
aVTIKA-735
p1963
aVTIKA-734
p1964
aVTIKA-733
p1965
aVTIKA-732
p1966
aVTIKA-731
p1967
aVTIKA-730
p1968
aVTIKA-729
p1969
aVTIKA-728
p1970
aVTIKA-727
p1971
aVTIKA-726
p1972
aVTIKA-725
p1973
aVTIKA-724
p1974
aVTIKA-723
p1975
aVTIKA-722
p1976
aVTIKA-721
p1977
aVTIKA-720
p1978
aVTIKA-719
p1979
aVTIKA-718
p1980
aVTIKA-717
p1981
aVTIKA-716
p1982
aVTIKA-715
p1983
aVTIKA-714
p1984
aVTIKA-713
p1985
aVTIKA-712
p1986
aVTIKA-711
p1987
aVTIKA-710
p1988
aVTIKA-709
p1989
aVTIKA-708
p1990
aVTIKA-707
p1991
aVTIKA-706
p1992
aVTIKA-705
p1993
aVTIKA-704
p1994
aVTIKA-703
p1995
aVTIKA-702
p1996
aVTIKA-701
p1997
aVTIKA-700
p1998
aVTIKA-699
p1999
aVTIKA-698
p2000
aVTIKA-697
p2001
aVTIKA-696
p2002
aVTIKA-695
p2003
aVTIKA-694
p2004
aVTIKA-693
p2005
aVTIKA-692
p2006
aVTIKA-691
p2007
aVTIKA-690
p2008
aVTIKA-689
p2009
aVTIKA-688
p2010
aVTIKA-687
p2011
aVTIKA-686
p2012
aVTIKA-685
p2013
aVTIKA-684
p2014
aVTIKA-683
p2015
aVTIKA-682
p2016
aVTIKA-681
p2017
aVTIKA-680
p2018
aVTIKA-679
p2019
aVTIKA-678
p2020
aVTIKA-677
p2021
aVTIKA-676
p2022
aVTIKA-675
p2023
aVTIKA-674
p2024
aVTIKA-673
p2025
aVTIKA-672
p2026
aVTIKA-671
p2027
aVTIKA-670
p2028
aVTIKA-669
p2029
aVTIKA-668
p2030
aVTIKA-667
p2031
aVTIKA-666
p2032
aVTIKA-665
p2033
aVTIKA-664
p2034
aVTIKA-663
p2035
aVTIKA-662
p2036
aVTIKA-661
p2037
aVTIKA-660
p2038
aVTIKA-659
p2039
aVTIKA-658
p2040
aVTIKA-657
p2041
aVTIKA-656
p2042
aVTIKA-655
p2043
aVTIKA-654
p2044
aVTIKA-653
p2045
aVTIKA-652
p2046
aVTIKA-651
p2047
aVTIKA-650
p2048
aVTIKA-649
p2049
aVTIKA-648
p2050
aVTIKA-647
p2051
aVTIKA-646
p2052
aVTIKA-645
p2053
aVTIKA-644
p2054
aVTIKA-643
p2055
aVTIKA-642
p2056
aVTIKA-641
p2057
aVTIKA-640
p2058
aVTIKA-639
p2059
aVTIKA-638
p2060
aVTIKA-637
p2061
aVTIKA-636
p2062
aVTIKA-635
p2063
aVTIKA-634
p2064
aVTIKA-633
p2065
aVTIKA-632
p2066
aVTIKA-631
p2067
aVTIKA-630
p2068
aVTIKA-629
p2069
aVTIKA-628
p2070
aVTIKA-627
p2071
aVTIKA-626
p2072
aVTIKA-625
p2073
aVTIKA-624
p2074
aVTIKA-623
p2075
aVTIKA-622
p2076
aVTIKA-621
p2077
aVTIKA-620
p2078
aVTIKA-619
p2079
aVTIKA-618
p2080
aVTIKA-617
p2081
aVTIKA-616
p2082
aVTIKA-615
p2083
aVTIKA-614
p2084
aVTIKA-613
p2085
aVTIKA-612
p2086
aVTIKA-611
p2087
aVTIKA-610
p2088
aVTIKA-609
p2089
aVTIKA-608
p2090
aVTIKA-607
p2091
aVTIKA-606
p2092
aVTIKA-605
p2093
aVTIKA-604
p2094
aVTIKA-603
p2095
aVTIKA-602
p2096
aVTIKA-601
p2097
aVTIKA-600
p2098
aVTIKA-599
p2099
aVTIKA-598
p2100
aVTIKA-597
p2101
aVTIKA-596
p2102
aVTIKA-595
p2103
aVTIKA-594
p2104
aVTIKA-593
p2105
aVTIKA-592
p2106
aVTIKA-591
p2107
aVTIKA-590
p2108
aVTIKA-589
p2109
aVTIKA-588
p2110
aVTIKA-587
p2111
aVTIKA-586
p2112
aVTIKA-585
p2113
aVTIKA-584
p2114
aVTIKA-583
p2115
aVTIKA-582
p2116
aVTIKA-581
p2117
aVTIKA-580
p2118
aVTIKA-579
p2119
aVTIKA-578
p2120
aVTIKA-577
p2121
aVTIKA-576
p2122
aVTIKA-575
p2123
aVTIKA-574
p2124
aVTIKA-573
p2125
aVTIKA-572
p2126
aVTIKA-571
p2127
aVTIKA-570
p2128
aVTIKA-569
p2129
aVTIKA-568
p2130
aVTIKA-567
p2131
aVTIKA-566
p2132
aVTIKA-565
p2133
aVTIKA-564
p2134
aVTIKA-563
p2135
aVTIKA-562
p2136
aVTIKA-561
p2137
aVTIKA-560
p2138
aVTIKA-559
p2139
aVTIKA-558
p2140
aVTIKA-557
p2141
aVTIKA-556
p2142
aVTIKA-555
p2143
aVTIKA-554
p2144
aVTIKA-553
p2145
aVTIKA-552
p2146
aVTIKA-551
p2147
aVTIKA-550
p2148
aVTIKA-549
p2149
aVTIKA-548
p2150
aVTIKA-547
p2151
aVTIKA-546
p2152
aVTIKA-545
p2153
aVTIKA-544
p2154
aVTIKA-543
p2155
aVTIKA-542
p2156
aVTIKA-541
p2157
aVTIKA-540
p2158
aVTIKA-539
p2159
aVTIKA-538
p2160
aVTIKA-537
p2161
aVTIKA-536
p2162
aVTIKA-535
p2163
aVTIKA-534
p2164
aVTIKA-533
p2165
aVTIKA-532
p2166
aVTIKA-531
p2167
aVTIKA-530
p2168
aVTIKA-529
p2169
aVTIKA-528
p2170
aVTIKA-527
p2171
aVTIKA-526
p2172
aVTIKA-525
p2173
aVTIKA-524
p2174
aVTIKA-523
p2175
aVTIKA-522
p2176
aVTIKA-521
p2177
aVTIKA-520
p2178
aVTIKA-519
p2179
aVTIKA-518
p2180
aVTIKA-517
p2181
aVTIKA-516
p2182
aVTIKA-515
p2183
aVTIKA-514
p2184
aVTIKA-513
p2185
aVTIKA-512
p2186
aVTIKA-511
p2187
aVTIKA-510
p2188
aVTIKA-509
p2189
aVTIKA-508
p2190
aVTIKA-507
p2191
aVTIKA-506
p2192
aVTIKA-505
p2193
aVTIKA-504
p2194
aVTIKA-503
p2195
aVTIKA-502
p2196
aVTIKA-501
p2197
aVTIKA-500
p2198
aVTIKA-499
p2199
aVTIKA-498
p2200
aVTIKA-497
p2201
aVTIKA-496
p2202
aVTIKA-495
p2203
aVTIKA-494
p2204
aVTIKA-493
p2205
aVTIKA-492
p2206
aVTIKA-491
p2207
aVTIKA-490
p2208
aVTIKA-489
p2209
aVTIKA-488
p2210
aVTIKA-487
p2211
aVTIKA-486
p2212
aVTIKA-485
p2213
aVTIKA-484
p2214
aVTIKA-483
p2215
aVTIKA-482
p2216
aVTIKA-481
p2217
aVTIKA-480
p2218
aVTIKA-479
p2219
aVTIKA-478
p2220
aVTIKA-477
p2221
aVTIKA-476
p2222
aVTIKA-475
p2223
aVTIKA-474
p2224
aVTIKA-473
p2225
aVTIKA-472
p2226
aVTIKA-471
p2227
aVTIKA-470
p2228
aVTIKA-469
p2229
aVTIKA-468
p2230
aVTIKA-467
p2231
aVTIKA-466
p2232
aVTIKA-465
p2233
aVTIKA-464
p2234
aVTIKA-463
p2235
aVTIKA-462
p2236
aVTIKA-461
p2237
aVTIKA-460
p2238
aVTIKA-459
p2239
aVTIKA-458
p2240
aVTIKA-457
p2241
aVTIKA-456
p2242
aVTIKA-455
p2243
aVTIKA-454
p2244
aVTIKA-453
p2245
aVTIKA-452
p2246
aVTIKA-451
p2247
aVTIKA-450
p2248
aVTIKA-449
p2249
aVTIKA-448
p2250
aVTIKA-447
p2251
aVTIKA-446
p2252
aVTIKA-445
p2253
aVTIKA-444
p2254
aVTIKA-443
p2255
aVTIKA-442
p2256
aVTIKA-441
p2257
aVTIKA-440
p2258
aVTIKA-439
p2259
aVTIKA-438
p2260
aVTIKA-437
p2261
aVTIKA-436
p2262
aVTIKA-435
p2263
aVTIKA-434
p2264
aVTIKA-433
p2265
aVTIKA-432
p2266
aVTIKA-431
p2267
aVTIKA-430
p2268
aVTIKA-429
p2269
aVTIKA-428
p2270
aVTIKA-427
p2271
aVTIKA-426
p2272
aVTIKA-425
p2273
aVTIKA-424
p2274
aVTIKA-423
p2275
aVTIKA-422
p2276
aVTIKA-421
p2277
aVTIKA-420
p2278
aVTIKA-419
p2279
aVTIKA-418
p2280
aVTIKA-417
p2281
aVTIKA-416
p2282
aVTIKA-415
p2283
aVTIKA-414
p2284
aVTIKA-413
p2285
aVTIKA-412
p2286
aVTIKA-411
p2287
aVTIKA-410
p2288
aVTIKA-409
p2289
aVTIKA-408
p2290
aVTIKA-407
p2291
aVTIKA-405
p2292
aVTIKA-404
p2293
aVTIKA-403
p2294
aVTIKA-402
p2295
aVTIKA-401
p2296
aVTIKA-400
p2297
aVTIKA-399
p2298
aVTIKA-398
p2299
aVTIKA-397
p2300
aVTIKA-396
p2301
aVTIKA-395
p2302
aVTIKA-394
p2303
aVTIKA-393
p2304
aVTIKA-392
p2305
aVTIKA-391
p2306
aVTIKA-390
p2307
aVTIKA-389
p2308
aVTIKA-388
p2309
aVTIKA-387
p2310
aVTIKA-386
p2311
aVTIKA-385
p2312
aVTIKA-384
p2313
aVTIKA-383
p2314
aVTIKA-382
p2315
aVTIKA-381
p2316
aVTIKA-380
p2317
aVTIKA-379
p2318
aVTIKA-378
p2319
aVTIKA-377
p2320
aVTIKA-376
p2321
aVTIKA-375
p2322
aVTIKA-374
p2323
aVTIKA-373
p2324
aVTIKA-372
p2325
aVTIKA-371
p2326
aVTIKA-370
p2327
aVTIKA-369
p2328
aVTIKA-368
p2329
aVTIKA-367
p2330
aVTIKA-366
p2331
aVTIKA-365
p2332
aVTIKA-364
p2333
aVTIKA-363
p2334
aVTIKA-362
p2335
aVTIKA-361
p2336
aVTIKA-360
p2337
aVTIKA-359
p2338
aVTIKA-358
p2339
aVTIKA-357
p2340
aVTIKA-356
p2341
aVTIKA-355
p2342
aVTIKA-354
p2343
aVTIKA-353
p2344
aVTIKA-352
p2345
aVTIKA-351
p2346
aVTIKA-350
p2347
aVTIKA-349
p2348
aVTIKA-348
p2349
aVTIKA-347
p2350
aVTIKA-346
p2351
aVTIKA-345
p2352
aVTIKA-344
p2353
aVTIKA-343
p2354
aVTIKA-342
p2355
aVTIKA-341
p2356
aVTIKA-340
p2357
aVTIKA-339
p2358
aVTIKA-338
p2359
aVTIKA-337
p2360
aVTIKA-336
p2361
aVTIKA-335
p2362
aVTIKA-334
p2363
aVTIKA-333
p2364
aVTIKA-332
p2365
aVTIKA-331
p2366
aVTIKA-330
p2367
aVTIKA-329
p2368
aVTIKA-328
p2369
aVTIKA-327
p2370
aVTIKA-326
p2371
aVTIKA-325
p2372
aVTIKA-324
p2373
aVTIKA-323
p2374
aVTIKA-322
p2375
aVTIKA-321
p2376
aVTIKA-320
p2377
aVTIKA-319
p2378
aVTIKA-318
p2379
aVTIKA-317
p2380
aVTIKA-316
p2381
aVTIKA-315
p2382
aVTIKA-314
p2383
aVTIKA-313
p2384
aVTIKA-312
p2385
aVTIKA-311
p2386
aVTIKA-310
p2387
aVTIKA-309
p2388
aVTIKA-308
p2389
aVTIKA-307
p2390
aVTIKA-306
p2391
aVTIKA-305
p2392
aVTIKA-304
p2393
aVTIKA-303
p2394
aVTIKA-302
p2395
aVTIKA-301
p2396
aVTIKA-300
p2397
aVTIKA-299
p2398
aVTIKA-298
p2399
aVTIKA-297
p2400
aVTIKA-296
p2401
aVTIKA-295
p2402
aVTIKA-294
p2403
aVTIKA-293
p2404
aVTIKA-292
p2405
aVTIKA-291
p2406
aVTIKA-290
p2407
aVTIKA-289
p2408
aVTIKA-288
p2409
aVTIKA-287
p2410
aVTIKA-286
p2411
aVTIKA-285
p2412
aVTIKA-284
p2413
aVTIKA-283
p2414
aVTIKA-282
p2415
aVTIKA-281
p2416
aVTIKA-280
p2417
aVTIKA-279
p2418
aVTIKA-278
p2419
aVTIKA-277
p2420
aVTIKA-276
p2421
aVTIKA-275
p2422
aVTIKA-274
p2423
aVTIKA-273
p2424
aVTIKA-272
p2425
aVTIKA-271
p2426
aVTIKA-270
p2427
aVTIKA-269
p2428
aVTIKA-268
p2429
aVTIKA-267
p2430
aVTIKA-266
p2431
aVTIKA-265
p2432
aVTIKA-264
p2433
aVTIKA-263
p2434
aVTIKA-262
p2435
aVTIKA-261
p2436
aVTIKA-260
p2437
aVTIKA-259
p2438
aVTIKA-258
p2439
aVTIKA-257
p2440
aVTIKA-256
p2441
aVTIKA-255
p2442
aVTIKA-254
p2443
aVTIKA-253
p2444
aVTIKA-252
p2445
aVTIKA-251
p2446
aVTIKA-250
p2447
aVTIKA-249
p2448
aVTIKA-248
p2449
aVTIKA-247
p2450
aVTIKA-246
p2451
aVTIKA-245
p2452
aVTIKA-244
p2453
aVTIKA-243
p2454
aVTIKA-242
p2455
aVTIKA-241
p2456
aVTIKA-240
p2457
aVTIKA-239
p2458
aVTIKA-238
p2459
aVTIKA-237
p2460
aVTIKA-236
p2461
aVTIKA-235
p2462
aVTIKA-234
p2463
aVTIKA-233
p2464
aVTIKA-232
p2465
aVTIKA-231
p2466
aVTIKA-230
p2467
aVTIKA-229
p2468
aVTIKA-228
p2469
aVTIKA-227
p2470
aVTIKA-226
p2471
aVTIKA-225
p2472
aVTIKA-224
p2473
aVTIKA-223
p2474
aVTIKA-222
p2475
aVTIKA-221
p2476
aVTIKA-220
p2477
aVTIKA-219
p2478
aVTIKA-218
p2479
aVTIKA-217
p2480
aVTIKA-216
p2481
aVTIKA-215
p2482
aVTIKA-214
p2483
aVTIKA-213
p2484
aVTIKA-212
p2485
aVTIKA-211
p2486
aVTIKA-210
p2487
aVTIKA-209
p2488
aVTIKA-208
p2489
aVTIKA-207
p2490
aVTIKA-206
p2491
aVTIKA-205
p2492
aVTIKA-204
p2493
aVTIKA-203
p2494
aVTIKA-202
p2495
aVTIKA-201
p2496
aVTIKA-200
p2497
aVTIKA-199
p2498
aVTIKA-198
p2499
aVTIKA-197
p2500
aVTIKA-196
p2501
aVTIKA-195
p2502
aVTIKA-194
p2503
aVTIKA-193
p2504
aVTIKA-192
p2505
aVTIKA-191
p2506
aVTIKA-190
p2507
aVTIKA-189
p2508
aVTIKA-188
p2509
aVTIKA-187
p2510
aVTIKA-186
p2511
aVTIKA-185
p2512
aVTIKA-184
p2513
aVTIKA-183
p2514
aVTIKA-182
p2515
aVTIKA-181
p2516
aVTIKA-180
p2517
aVTIKA-179
p2518
aVTIKA-178
p2519
aVTIKA-177
p2520
aVTIKA-176
p2521
aVTIKA-175
p2522
aVTIKA-174
p2523
aVTIKA-173
p2524
aVTIKA-172
p2525
aVTIKA-171
p2526
aVTIKA-170
p2527
aVTIKA-169
p2528
aVTIKA-168
p2529
aVTIKA-167
p2530
aVTIKA-166
p2531
aVTIKA-165
p2532
aVTIKA-164
p2533
aVTIKA-163
p2534
aVTIKA-162
p2535
aVTIKA-161
p2536
aVTIKA-160
p2537
aVTIKA-159
p2538
aVTIKA-158
p2539
aVTIKA-157
p2540
aVTIKA-156
p2541
aVTIKA-155
p2542
aVTIKA-154
p2543
aVTIKA-153
p2544
aVTIKA-152
p2545
aVTIKA-151
p2546
aVTIKA-150
p2547
aVTIKA-149
p2548
aVTIKA-148
p2549
aVTIKA-147
p2550
aVTIKA-146
p2551
aVTIKA-145
p2552
aVTIKA-144
p2553
aVTIKA-143
p2554
aVTIKA-142
p2555
aVTIKA-141
p2556
aVTIKA-140
p2557
aVTIKA-139
p2558
aVTIKA-138
p2559
aVTIKA-137
p2560
aVTIKA-136
p2561
aVTIKA-135
p2562
aVTIKA-134
p2563
aVTIKA-133
p2564
aVTIKA-132
p2565
aVTIKA-131
p2566
aVTIKA-130
p2567
aVTIKA-129
p2568
aVTIKA-128
p2569
aVTIKA-127
p2570
aVTIKA-126
p2571
aVTIKA-125
p2572
aVTIKA-124
p2573
aVTIKA-123
p2574
aVTIKA-122
p2575
aVTIKA-121
p2576
aVTIKA-120
p2577
aVTIKA-119
p2578
aVTIKA-118
p2579
aVTIKA-117
p2580
aVTIKA-116
p2581
aVTIKA-115
p2582
aVTIKA-114
p2583
aVTIKA-113
p2584
aVTIKA-112
p2585
aVTIKA-111
p2586
aVTIKA-110
p2587
aVTIKA-109
p2588
aVTIKA-108
p2589
aVTIKA-107
p2590
aVTIKA-106
p2591
aVTIKA-105
p2592
aVTIKA-104
p2593
aVTIKA-103
p2594
aVTIKA-102
p2595
aVTIKA-101
p2596
aVTIKA-100
p2597
aVTIKA-99
p2598
aVTIKA-98
p2599
aVTIKA-97
p2600
aVTIKA-96
p2601
aVTIKA-95
p2602
aVTIKA-94
p2603
aVTIKA-93
p2604
aVTIKA-92
p2605
aVTIKA-91
p2606
aVTIKA-90
p2607
aVTIKA-89
p2608
aVTIKA-88
p2609
aVTIKA-87
p2610
aVTIKA-86
p2611
aVTIKA-85
p2612
aVTIKA-84
p2613
aVTIKA-83
p2614
aVTIKA-82
p2615
aVTIKA-81
p2616
aVTIKA-80
p2617
aVTIKA-79
p2618
aVTIKA-78
p2619
aVTIKA-77
p2620
aVTIKA-76
p2621
aVTIKA-75
p2622
aVTIKA-74
p2623
aVTIKA-73
p2624
aVTIKA-72
p2625
aVTIKA-71
p2626
aVTIKA-70
p2627
aVTIKA-69
p2628
aVTIKA-68
p2629
aVTIKA-67
p2630
aVTIKA-66
p2631
aVTIKA-65
p2632
aVTIKA-64
p2633
aVTIKA-63
p2634
aVTIKA-62
p2635
aVTIKA-61
p2636
aVTIKA-60
p2637
aVTIKA-59
p2638
aVTIKA-58
p2639
aVTIKA-57
p2640
aVTIKA-56
p2641
aVTIKA-55
p2642
aVTIKA-54
p2643
aVTIKA-53
p2644
aVTIKA-52
p2645
aVTIKA-51
p2646
aVTIKA-50
p2647
aVTIKA-49
p2648
aVTIKA-48
p2649
aVTIKA-47
p2650
aVTIKA-46
p2651
aVTIKA-45
p2652
aVTIKA-44
p2653
aVTIKA-43
p2654
aVTIKA-42
p2655
aVTIKA-41
p2656
aVTIKA-40
p2657
aVTIKA-39
p2658
aVTIKA-38
p2659
aVTIKA-37
p2660
aVTIKA-36
p2661
aVTIKA-35
p2662
aVTIKA-34
p2663
aVTIKA-33
p2664
aVTIKA-32
p2665
aVTIKA-31
p2666
aVTIKA-30
p2667
aVTIKA-29
p2668
aVTIKA-28
p2669
aVTIKA-27
p2670
aVTIKA-26
p2671
aVTIKA-25
p2672
aVTIKA-24
p2673
aVTIKA-23
p2674
aVTIKA-22
p2675
aVTIKA-21
p2676
aVTIKA-20
p2677
aVTIKA-19
p2678
aVTIKA-18
p2679
aVTIKA-17
p2680
aVTIKA-16
p2681
aVTIKA-15
p2682
aVTIKA-14
p2683
aVTIKA-13
p2684
aVTIKA-12
p2685
aVTIKA-11
p2686
aVTIKA-10
p2687
aVTIKA-9
p2688
aVTIKA-8
p2689
aVTIKA-7
p2690
aVTIKA-6
p2691
aVTIKA-5
p2692
aVTIKA-4
p2693
aVTIKA-3
p2694
aVTIKA-2
p2695
aVTIKA-1
p2696
a.