(lp0
VTILES-598
p1
aVTILES-597
p2
aVTILES-596
p3
aVTILES-595
p4
aVTILES-594
p5
aVTILES-593
p6
aVTILES-592
p7
aVTILES-591
p8
aVTILES-590
p9
aVTILES-589
p10
aVTILES-588
p11
aVTILES-587
p12
aVTILES-586
p13
aVTILES-585
p14
aVTILES-584
p15
aVTILES-583
p16
aVTILES-582
p17
aVTILES-581
p18
aVTILES-580
p19
aVTILES-578
p20
aVTILES-577
p21
aVTILES-576
p22
aVTILES-575
p23
aVTILES-574
p24
aVTILES-573
p25
aVTILES-572
p26
aVTILES-570
p27
aVTILES-569
p28
aVTILES-568
p29
aVTILES-567
p30
aVTILES-566
p31
aVTILES-565
p32
aVTILES-564
p33
aVTILES-563
p34
aVTILES-562
p35
aVTILES-561
p36
aVTILES-560
p37
aVTILES-559
p38
aVTILES-558
p39
aVTILES-557
p40
aVTILES-556
p41
aVTILES-555
p42
aVTILES-554
p43
aVTILES-553
p44
aVTILES-552
p45
aVTILES-551
p46
aVTILES-550
p47
aVTILES-549
p48
aVTILES-548
p49
aVTILES-547
p50
aVTILES-546
p51
aVTILES-545
p52
aVTILES-544
p53
aVTILES-543
p54
aVTILES-542
p55
aVTILES-541
p56
aVTILES-540
p57
aVTILES-539
p58
aVTILES-538
p59
aVTILES-537
p60
aVTILES-536
p61
aVTILES-535
p62
aVTILES-534
p63
aVTILES-533
p64
aVTILES-532
p65
aVTILES-531
p66
aVTILES-530
p67
aVTILES-529
p68
aVTILES-528
p69
aVTILES-527
p70
aVTILES-526
p71
aVTILES-525
p72
aVTILES-524
p73
aVTILES-523
p74
aVTILES-522
p75
aVTILES-521
p76
aVTILES-520
p77
aVTILES-519
p78
aVTILES-518
p79
aVTILES-517
p80
aVTILES-516
p81
aVTILES-515
p82
aVTILES-514
p83
aVTILES-513
p84
aVTILES-512
p85
aVTILES-511
p86
aVTILES-510
p87
aVTILES-509
p88
aVTILES-508
p89
aVTILES-506
p90
aVTILES-505
p91
aVTILES-504
p92
aVTILES-503
p93
aVTILES-502
p94
aVTILES-501
p95
aVTILES-500
p96
aVTILES-499
p97
aVTILES-498
p98
aVTILES-497
p99
aVTILES-496
p100
aVTILES-495
p101
aVTILES-494
p102
aVTILES-493
p103
aVTILES-492
p104
aVTILES-491
p105
aVTILES-490
p106
aVTILES-489
p107
aVTILES-488
p108
aVTILES-487
p109
aVTILES-486
p110
aVTILES-485
p111
aVTILES-484
p112
aVTILES-483
p113
aVTILES-482
p114
aVTILES-481
p115
aVTILES-480
p116
aVTILES-479
p117
aVTILES-478
p118
aVTILES-477
p119
aVTILES-476
p120
aVTILES-475
p121
aVTILES-474
p122
aVTILES-473
p123
aVTILES-472
p124
aVTILES-471
p125
aVTILES-470
p126
aVTILES-469
p127
aVTILES-468
p128
aVTILES-467
p129
aVTILES-466
p130
aVTILES-465
p131
aVTILES-464
p132
aVTILES-463
p133
aVTILES-462
p134
aVTILES-461
p135
aVTILES-460
p136
aVTILES-459
p137
aVTILES-458
p138
aVTILES-457
p139
aVTILES-456
p140
aVTILES-455
p141
aVTILES-454
p142
aVTILES-453
p143
aVTILES-452
p144
aVTILES-451
p145
aVTILES-450
p146
aVTILES-449
p147
aVTILES-448
p148
aVTILES-447
p149
aVTILES-446
p150
aVTILES-445
p151
aVTILES-444
p152
aVTILES-443
p153
aVTILES-442
p154
aVTILES-441
p155
aVTILES-440
p156
aVTILES-439
p157
aVTILES-438
p158
aVTILES-437
p159
aVTILES-436
p160
aVTILES-435
p161
aVTILES-434
p162
aVTILES-433
p163
aVTILES-432
p164
aVTILES-431
p165
aVTILES-430
p166
aVTILES-429
p167
aVTILES-428
p168
aVTILES-427
p169
aVTILES-426
p170
aVTILES-425
p171
aVTILES-424
p172
aVTILES-423
p173
aVTILES-422
p174
aVTILES-421
p175
aVTILES-420
p176
aVTILES-419
p177
aVTILES-418
p178
aVTILES-417
p179
aVTILES-416
p180
aVTILES-415
p181
aVTILES-414
p182
aVTILES-413
p183
aVTILES-412
p184
aVTILES-411
p185
aVTILES-410
p186
aVTILES-409
p187
aVTILES-408
p188
aVTILES-407
p189
aVTILES-406
p190
aVTILES-405
p191
aVTILES-404
p192
aVTILES-403
p193
aVTILES-402
p194
aVTILES-401
p195
aVTILES-400
p196
aVTILES-399
p197
aVTILES-398
p198
aVTILES-397
p199
aVTILES-396
p200
aVTILES-395
p201
aVTILES-394
p202
aVTILES-393
p203
aVTILES-392
p204
aVTILES-391
p205
aVTILES-390
p206
aVTILES-389
p207
aVTILES-388
p208
aVTILES-387
p209
aVTILES-386
p210
aVTILES-385
p211
aVTILES-384
p212
aVTILES-383
p213
aVTILES-382
p214
aVTILES-381
p215
aVTILES-380
p216
aVTILES-379
p217
aVTILES-378
p218
aVTILES-377
p219
aVTILES-376
p220
aVTILES-375
p221
aVTILES-374
p222
aVTILES-373
p223
aVTILES-372
p224
aVTILES-371
p225
aVTILES-370
p226
aVTILES-369
p227
aVTILES-368
p228
aVTILES-367
p229
aVTILES-366
p230
aVTILES-365
p231
aVTILES-364
p232
aVTILES-363
p233
aVTILES-362
p234
aVTILES-361
p235
aVTILES-360
p236
aVTILES-359
p237
aVTILES-358
p238
aVTILES-357
p239
aVTILES-356
p240
aVTILES-355
p241
aVTILES-354
p242
aVTILES-353
p243
aVTILES-352
p244
aVTILES-351
p245
aVTILES-350
p246
aVTILES-349
p247
aVTILES-348
p248
aVTILES-347
p249
aVTILES-346
p250
aVTILES-345
p251
aVTILES-344
p252
aVTILES-343
p253
aVTILES-342
p254
aVTILES-341
p255
aVTILES-340
p256
aVTILES-339
p257
aVTILES-338
p258
aVTILES-337
p259
aVTILES-336
p260
aVTILES-335
p261
aVTILES-334
p262
aVTILES-333
p263
aVTILES-332
p264
aVTILES-331
p265
aVTILES-330
p266
aVTILES-329
p267
aVTILES-328
p268
aVTILES-327
p269
aVTILES-326
p270
aVTILES-325
p271
aVTILES-324
p272
aVTILES-322
p273
aVTILES-321
p274
aVTILES-320
p275
aVTILES-319
p276
aVTILES-318
p277
aVTILES-317
p278
aVTILES-316
p279
aVTILES-315
p280
aVTILES-314
p281
aVTILES-313
p282
aVTILES-312
p283
aVTILES-311
p284
aVTILES-310
p285
aVTILES-309
p286
aVTILES-308
p287
aVTILES-307
p288
aVTILES-306
p289
aVTILES-305
p290
aVTILES-304
p291
aVTILES-303
p292
aVTILES-302
p293
aVTILES-301
p294
aVTILES-300
p295
aVTILES-299
p296
aVTILES-298
p297
aVTILES-297
p298
aVTILES-296
p299
aVTILES-295
p300
aVTILES-294
p301
aVTILES-293
p302
aVTILES-292
p303
aVTILES-291
p304
aVTILES-290
p305
aVTILES-288
p306
aVTILES-287
p307
aVTILES-286
p308
aVTILES-285
p309
aVTILES-284
p310
aVTILES-283
p311
aVTILES-282
p312
aVTILES-281
p313
aVTILES-280
p314
aVTILES-279
p315
aVTILES-278
p316
aVTILES-277
p317
aVTILES-276
p318
aVTILES-275
p319
aVTILES-274
p320
aVTILES-273
p321
aVTILES-272
p322
aVTILES-271
p323
aVTILES-270
p324
aVTILES-269
p325
aVTILES-268
p326
aVTILES-267
p327
aVTILES-266
p328
aVTILES-265
p329
aVTILES-264
p330
aVTILES-263
p331
aVTILES-262
p332
aVTILES-261
p333
aVTILES-260
p334
aVTILES-259
p335
aVTILES-258
p336
aVTILES-257
p337
aVTILES-256
p338
aVTILES-255
p339
aVTILES-254
p340
aVTILES-253
p341
aVTILES-252
p342
aVTILES-251
p343
aVTILES-250
p344
aVTILES-249
p345
aVTILES-248
p346
aVTILES-247
p347
aVTILES-246
p348
aVTILES-245
p349
aVTILES-244
p350
aVTILES-243
p351
aVTILES-242
p352
aVTILES-241
p353
aVTILES-240
p354
aVTILES-239
p355
aVTILES-238
p356
aVTILES-237
p357
aVTILES-236
p358
aVTILES-235
p359
aVTILES-234
p360
aVTILES-233
p361
aVTILES-232
p362
aVTILES-231
p363
aVTILES-230
p364
aVTILES-229
p365
aVTILES-228
p366
aVTILES-227
p367
aVTILES-226
p368
aVTILES-225
p369
aVTILES-224
p370
aVTILES-223
p371
aVTILES-222
p372
aVTILES-221
p373
aVTILES-220
p374
aVTILES-219
p375
aVTILES-218
p376
aVTILES-217
p377
aVTILES-216
p378
aVTILES-215
p379
aVTILES-214
p380
aVTILES-213
p381
aVTILES-212
p382
aVTILES-211
p383
aVTILES-210
p384
aVTILES-209
p385
aVTILES-208
p386
aVTILES-207
p387
aVTILES-206
p388
aVTILES-204
p389
aVTILES-203
p390
aVTILES-202
p391
aVTILES-201
p392
aVTILES-200
p393
aVTILES-199
p394
aVTILES-198
p395
aVTILES-197
p396
aVTILES-196
p397
aVTILES-195
p398
aVTILES-194
p399
aVTILES-192
p400
aVTILES-191
p401
aVTILES-190
p402
aVTILES-189
p403
aVTILES-188
p404
aVTILES-187
p405
aVTILES-186
p406
aVTILES-185
p407
aVTILES-184
p408
aVTILES-183
p409
aVTILES-182
p410
aVTILES-181
p411
aVTILES-180
p412
aVTILES-179
p413
aVTILES-178
p414
aVTILES-177
p415
aVTILES-176
p416
aVTILES-175
p417
aVTILES-174
p418
aVTILES-173
p419
aVTILES-172
p420
aVTILES-171
p421
aVTILES-170
p422
aVTILES-169
p423
aVTILES-168
p424
aVTILES-167
p425
aVTILES-166
p426
aVTILES-165
p427
aVTILES-164
p428
aVTILES-163
p429
aVTILES-162
p430
aVTILES-161
p431
aVTILES-160
p432
aVTILES-159
p433
aVTILES-158
p434
aVTILES-157
p435
aVTILES-156
p436
aVTILES-155
p437
aVTILES-154
p438
aVTILES-153
p439
aVTILES-152
p440
aVTILES-151
p441
aVTILES-149
p442
aVTILES-148
p443
aVTILES-147
p444
aVTILES-146
p445
aVTILES-145
p446
aVTILES-144
p447
aVTILES-143
p448
aVTILES-142
p449
aVTILES-141
p450
aVTILES-140
p451
aVTILES-139
p452
aVTILES-138
p453
aVTILES-137
p454
aVTILES-136
p455
aVTILES-135
p456
aVTILES-134
p457
aVTILES-133
p458
aVTILES-132
p459
aVTILES-131
p460
aVTILES-130
p461
aVTILES-129
p462
aVTILES-128
p463
aVTILES-127
p464
aVTILES-126
p465
aVTILES-125
p466
aVTILES-124
p467
aVTILES-123
p468
aVTILES-122
p469
aVTILES-121
p470
aVTILES-120
p471
aVTILES-119
p472
aVTILES-118
p473
aVTILES-117
p474
aVTILES-116
p475
aVTILES-115
p476
aVTILES-114
p477
aVTILES-113
p478
aVTILES-112
p479
aVTILES-111
p480
aVTILES-109
p481
aVTILES-108
p482
aVTILES-107
p483
aVTILES-106
p484
aVTILES-105
p485
aVTILES-104
p486
aVTILES-103
p487
aVTILES-101
p488
aVTILES-100
p489
aVTILES-98
p490
aVTILES-97
p491
aVTILES-96
p492
aVTILES-95
p493
aVTILES-94
p494
aVTILES-93
p495
aVTILES-92
p496
aVTILES-91
p497
aVTILES-90
p498
aVTILES-89
p499
aVTILES-88
p500
aVTILES-87
p501
aVTILES-86
p502
aVTILES-85
p503
aVTILES-84
p504
aVTILES-83
p505
aVTILES-82
p506
aVTILES-81
p507
aVTILES-80
p508
aVTILES-79
p509
aVTILES-78
p510
aVTILES-77
p511
aVTILES-76
p512
aVTILES-75
p513
aVTILES-74
p514
aVTILES-73
p515
aVTILES-72
p516
aVTILES-71
p517
aVTILES-70
p518
aVTILES-69
p519
aVTILES-68
p520
aVTILES-67
p521
aVTILES-66
p522
aVTILES-65
p523
aVTILES-64
p524
aVTILES-63
p525
aVTILES-62
p526
aVTILES-61
p527
aVTILES-60
p528
aVTILES-59
p529
aVTILES-58
p530
aVTILES-57
p531
aVTILES-56
p532
aVTILES-55
p533
aVTILES-54
p534
aVTILES-53
p535
aVTILES-52
p536
aVTILES-51
p537
aVTILES-50
p538
aVTILES-49
p539
aVTILES-48
p540
aVTILES-47
p541
aVTILES-46
p542
aVTILES-45
p543
aVTILES-44
p544
aVTILES-43
p545
aVTILES-42
p546
aVTILES-41
p547
aVTILES-40
p548
aVTILES-39
p549
aVTILES-38
p550
aVTILES-37
p551
aVTILES-36
p552
aVTILES-35
p553
aVTILES-34
p554
aVTILES-33
p555
aVTILES-32
p556
aVTILES-31
p557
aVTILES-30
p558
aVTILES-29
p559
aVTILES-28
p560
aVTILES-27
p561
aVTILES-26
p562
aVTILES-25
p563
aVTILES-24
p564
aVTILES-23
p565
aVTILES-22
p566
aVTILES-21
p567
aVTILES-20
p568
aVTILES-19
p569
aVTILES-18
p570
aVTILES-17
p571
aVTILES-16
p572
aVTILES-4
p573
aVTILES-3
p574
aVTILES-2
p575
aVTILES-1
p576
a.