(lp0
VTINKERPOP-2018
p1
aVTINKERPOP-2017
p2
aVTINKERPOP-2016
p3
aVTINKERPOP-2015
p4
aVTINKERPOP-2014
p5
aVTINKERPOP-2013
p6
aVTINKERPOP-2012
p7
aVTINKERPOP-2011
p8
aVTINKERPOP-2010
p9
aVTINKERPOP-2009
p10
aVTINKERPOP-2008
p11
aVTINKERPOP-2007
p12
aVTINKERPOP-2006
p13
aVTINKERPOP-2005
p14
aVTINKERPOP-2004
p15
aVTINKERPOP-2003
p16
aVTINKERPOP-2002
p17
aVTINKERPOP-2001
p18
aVTINKERPOP-2000
p19
aVTINKERPOP-1999
p20
aVTINKERPOP-1998
p21
aVTINKERPOP-1997
p22
aVTINKERPOP-1996
p23
aVTINKERPOP-1995
p24
aVTINKERPOP-1994
p25
aVTINKERPOP-1993
p26
aVTINKERPOP-1992
p27
aVTINKERPOP-1991
p28
aVTINKERPOP-1990
p29
aVTINKERPOP-1989
p30
aVTINKERPOP-1988
p31
aVTINKERPOP-1987
p32
aVTINKERPOP-1986
p33
aVTINKERPOP-1985
p34
aVTINKERPOP-1984
p35
aVTINKERPOP-1983
p36
aVTINKERPOP-1982
p37
aVTINKERPOP-1981
p38
aVTINKERPOP-1980
p39
aVTINKERPOP-1979
p40
aVTINKERPOP-1978
p41
aVTINKERPOP-1977
p42
aVTINKERPOP-1976
p43
aVTINKERPOP-1975
p44
aVTINKERPOP-1974
p45
aVTINKERPOP-1973
p46
aVTINKERPOP-1972
p47
aVTINKERPOP-1971
p48
aVTINKERPOP-1970
p49
aVTINKERPOP-1969
p50
aVTINKERPOP-1968
p51
aVTINKERPOP-1967
p52
aVTINKERPOP-1966
p53
aVTINKERPOP-1965
p54
aVTINKERPOP-1964
p55
aVTINKERPOP-1963
p56
aVTINKERPOP-1962
p57
aVTINKERPOP-1961
p58
aVTINKERPOP-1960
p59
aVTINKERPOP-1959
p60
aVTINKERPOP-1958
p61
aVTINKERPOP-1957
p62
aVTINKERPOP-1956
p63
aVTINKERPOP-1955
p64
aVTINKERPOP-1954
p65
aVTINKERPOP-1953
p66
aVTINKERPOP-1952
p67
aVTINKERPOP-1951
p68
aVTINKERPOP-1950
p69
aVTINKERPOP-1949
p70
aVTINKERPOP-1948
p71
aVTINKERPOP-1947
p72
aVTINKERPOP-1946
p73
aVTINKERPOP-1945
p74
aVTINKERPOP-1944
p75
aVTINKERPOP-1943
p76
aVTINKERPOP-1942
p77
aVTINKERPOP-1941
p78
aVTINKERPOP-1940
p79
aVTINKERPOP-1939
p80
aVTINKERPOP-1938
p81
aVTINKERPOP-1937
p82
aVTINKERPOP-1936
p83
aVTINKERPOP-1935
p84
aVTINKERPOP-1934
p85
aVTINKERPOP-1933
p86
aVTINKERPOP-1932
p87
aVTINKERPOP-1931
p88
aVTINKERPOP-1930
p89
aVTINKERPOP-1929
p90
aVTINKERPOP-1928
p91
aVTINKERPOP-1927
p92
aVTINKERPOP-1926
p93
aVTINKERPOP-1925
p94
aVTINKERPOP-1924
p95
aVTINKERPOP-1923
p96
aVTINKERPOP-1922
p97
aVTINKERPOP-1921
p98
aVTINKERPOP-1920
p99
aVTINKERPOP-1919
p100
aVTINKERPOP-1918
p101
aVTINKERPOP-1917
p102
aVTINKERPOP-1916
p103
aVTINKERPOP-1915
p104
aVTINKERPOP-1914
p105
aVTINKERPOP-1913
p106
aVTINKERPOP-1912
p107
aVTINKERPOP-1911
p108
aVTINKERPOP-1910
p109
aVTINKERPOP-1909
p110
aVTINKERPOP-1908
p111
aVTINKERPOP-1907
p112
aVTINKERPOP-1906
p113
aVTINKERPOP-1905
p114
aVTINKERPOP-1904
p115
aVTINKERPOP-1903
p116
aVTINKERPOP-1902
p117
aVTINKERPOP-1901
p118
aVTINKERPOP-1900
p119
aVTINKERPOP-1899
p120
aVTINKERPOP-1898
p121
aVTINKERPOP-1897
p122
aVTINKERPOP-1896
p123
aVTINKERPOP-1895
p124
aVTINKERPOP-1894
p125
aVTINKERPOP-1893
p126
aVTINKERPOP-1892
p127
aVTINKERPOP-1891
p128
aVTINKERPOP-1890
p129
aVTINKERPOP-1889
p130
aVTINKERPOP-1888
p131
aVTINKERPOP-1887
p132
aVTINKERPOP-1886
p133
aVTINKERPOP-1885
p134
aVTINKERPOP-1884
p135
aVTINKERPOP-1883
p136
aVTINKERPOP-1882
p137
aVTINKERPOP-1881
p138
aVTINKERPOP-1880
p139
aVTINKERPOP-1879
p140
aVTINKERPOP-1878
p141
aVTINKERPOP-1877
p142
aVTINKERPOP-1876
p143
aVTINKERPOP-1875
p144
aVTINKERPOP-1874
p145
aVTINKERPOP-1873
p146
aVTINKERPOP-1872
p147
aVTINKERPOP-1871
p148
aVTINKERPOP-1870
p149
aVTINKERPOP-1869
p150
aVTINKERPOP-1868
p151
aVTINKERPOP-1867
p152
aVTINKERPOP-1866
p153
aVTINKERPOP-1865
p154
aVTINKERPOP-1864
p155
aVTINKERPOP-1863
p156
aVTINKERPOP-1862
p157
aVTINKERPOP-1861
p158
aVTINKERPOP-1860
p159
aVTINKERPOP-1859
p160
aVTINKERPOP-1858
p161
aVTINKERPOP-1857
p162
aVTINKERPOP-1856
p163
aVTINKERPOP-1855
p164
aVTINKERPOP-1854
p165
aVTINKERPOP-1853
p166
aVTINKERPOP-1852
p167
aVTINKERPOP-1851
p168
aVTINKERPOP-1850
p169
aVTINKERPOP-1849
p170
aVTINKERPOP-1848
p171
aVTINKERPOP-1847
p172
aVTINKERPOP-1846
p173
aVTINKERPOP-1845
p174
aVTINKERPOP-1844
p175
aVTINKERPOP-1843
p176
aVTINKERPOP-1842
p177
aVTINKERPOP-1841
p178
aVTINKERPOP-1840
p179
aVTINKERPOP-1839
p180
aVTINKERPOP-1838
p181
aVTINKERPOP-1837
p182
aVTINKERPOP-1836
p183
aVTINKERPOP-1835
p184
aVTINKERPOP-1834
p185
aVTINKERPOP-1833
p186
aVTINKERPOP-1832
p187
aVTINKERPOP-1831
p188
aVTINKERPOP-1830
p189
aVTINKERPOP-1829
p190
aVTINKERPOP-1828
p191
aVTINKERPOP-1827
p192
aVTINKERPOP-1826
p193
aVTINKERPOP-1825
p194
aVTINKERPOP-1824
p195
aVTINKERPOP-1823
p196
aVTINKERPOP-1822
p197
aVTINKERPOP-1821
p198
aVTINKERPOP-1820
p199
aVTINKERPOP-1819
p200
aVTINKERPOP-1818
p201
aVTINKERPOP-1817
p202
aVTINKERPOP-1816
p203
aVTINKERPOP-1815
p204
aVTINKERPOP-1814
p205
aVTINKERPOP-1813
p206
aVTINKERPOP-1812
p207
aVTINKERPOP-1811
p208
aVTINKERPOP-1810
p209
aVTINKERPOP-1809
p210
aVTINKERPOP-1808
p211
aVTINKERPOP-1807
p212
aVTINKERPOP-1806
p213
aVTINKERPOP-1805
p214
aVTINKERPOP-1804
p215
aVTINKERPOP-1803
p216
aVTINKERPOP-1802
p217
aVTINKERPOP-1801
p218
aVTINKERPOP-1800
p219
aVTINKERPOP-1799
p220
aVTINKERPOP-1798
p221
aVTINKERPOP-1797
p222
aVTINKERPOP-1796
p223
aVTINKERPOP-1795
p224
aVTINKERPOP-1794
p225
aVTINKERPOP-1793
p226
aVTINKERPOP-1792
p227
aVTINKERPOP-1791
p228
aVTINKERPOP-1790
p229
aVTINKERPOP-1789
p230
aVTINKERPOP-1788
p231
aVTINKERPOP-1787
p232
aVTINKERPOP-1786
p233
aVTINKERPOP-1785
p234
aVTINKERPOP-1784
p235
aVTINKERPOP-1783
p236
aVTINKERPOP-1782
p237
aVTINKERPOP-1781
p238
aVTINKERPOP-1780
p239
aVTINKERPOP-1779
p240
aVTINKERPOP-1778
p241
aVTINKERPOP-1777
p242
aVTINKERPOP-1776
p243
aVTINKERPOP-1775
p244
aVTINKERPOP-1774
p245
aVTINKERPOP-1773
p246
aVTINKERPOP-1772
p247
aVTINKERPOP-1771
p248
aVTINKERPOP-1770
p249
aVTINKERPOP-1769
p250
aVTINKERPOP-1768
p251
aVTINKERPOP-1767
p252
aVTINKERPOP-1766
p253
aVTINKERPOP-1765
p254
aVTINKERPOP-1764
p255
aVTINKERPOP-1763
p256
aVTINKERPOP-1762
p257
aVTINKERPOP-1761
p258
aVTINKERPOP-1760
p259
aVTINKERPOP-1759
p260
aVTINKERPOP-1758
p261
aVTINKERPOP-1757
p262
aVTINKERPOP-1756
p263
aVTINKERPOP-1755
p264
aVTINKERPOP-1754
p265
aVTINKERPOP-1753
p266
aVTINKERPOP-1752
p267
aVTINKERPOP-1751
p268
aVTINKERPOP-1750
p269
aVTINKERPOP-1749
p270
aVTINKERPOP-1748
p271
aVTINKERPOP-1747
p272
aVTINKERPOP-1746
p273
aVTINKERPOP-1745
p274
aVTINKERPOP-1744
p275
aVTINKERPOP-1743
p276
aVTINKERPOP-1742
p277
aVTINKERPOP-1741
p278
aVTINKERPOP-1740
p279
aVTINKERPOP-1739
p280
aVTINKERPOP-1738
p281
aVTINKERPOP-1737
p282
aVTINKERPOP-1736
p283
aVTINKERPOP-1735
p284
aVTINKERPOP-1734
p285
aVTINKERPOP-1733
p286
aVTINKERPOP-1732
p287
aVTINKERPOP-1731
p288
aVTINKERPOP-1730
p289
aVTINKERPOP-1729
p290
aVTINKERPOP-1728
p291
aVTINKERPOP-1727
p292
aVTINKERPOP-1726
p293
aVTINKERPOP-1725
p294
aVTINKERPOP-1724
p295
aVTINKERPOP-1723
p296
aVTINKERPOP-1722
p297
aVTINKERPOP-1721
p298
aVTINKERPOP-1720
p299
aVTINKERPOP-1719
p300
aVTINKERPOP-1718
p301
aVTINKERPOP-1717
p302
aVTINKERPOP-1716
p303
aVTINKERPOP-1715
p304
aVTINKERPOP-1714
p305
aVTINKERPOP-1713
p306
aVTINKERPOP-1712
p307
aVTINKERPOP-1711
p308
aVTINKERPOP-1710
p309
aVTINKERPOP-1709
p310
aVTINKERPOP-1708
p311
aVTINKERPOP-1707
p312
aVTINKERPOP-1706
p313
aVTINKERPOP-1705
p314
aVTINKERPOP-1704
p315
aVTINKERPOP-1703
p316
aVTINKERPOP-1702
p317
aVTINKERPOP-1701
p318
aVTINKERPOP-1700
p319
aVTINKERPOP-1699
p320
aVTINKERPOP-1698
p321
aVTINKERPOP-1697
p322
aVTINKERPOP-1696
p323
aVTINKERPOP-1695
p324
aVTINKERPOP-1694
p325
aVTINKERPOP-1693
p326
aVTINKERPOP-1692
p327
aVTINKERPOP-1691
p328
aVTINKERPOP-1690
p329
aVTINKERPOP-1689
p330
aVTINKERPOP-1688
p331
aVTINKERPOP-1687
p332
aVTINKERPOP-1686
p333
aVTINKERPOP-1685
p334
aVTINKERPOP-1684
p335
aVTINKERPOP-1683
p336
aVTINKERPOP-1682
p337
aVTINKERPOP-1681
p338
aVTINKERPOP-1680
p339
aVTINKERPOP-1679
p340
aVTINKERPOP-1678
p341
aVTINKERPOP-1677
p342
aVTINKERPOP-1676
p343
aVTINKERPOP-1675
p344
aVTINKERPOP-1674
p345
aVTINKERPOP-1673
p346
aVTINKERPOP-1672
p347
aVTINKERPOP-1671
p348
aVTINKERPOP-1670
p349
aVTINKERPOP-1669
p350
aVTINKERPOP-1668
p351
aVTINKERPOP-1667
p352
aVTINKERPOP-1666
p353
aVTINKERPOP-1665
p354
aVTINKERPOP-1664
p355
aVTINKERPOP-1663
p356
aVTINKERPOP-1662
p357
aVTINKERPOP-1661
p358
aVTINKERPOP-1660
p359
aVTINKERPOP-1659
p360
aVTINKERPOP-1658
p361
aVTINKERPOP-1657
p362
aVTINKERPOP-1656
p363
aVTINKERPOP-1655
p364
aVTINKERPOP-1654
p365
aVTINKERPOP-1653
p366
aVTINKERPOP-1652
p367
aVTINKERPOP-1651
p368
aVTINKERPOP-1650
p369
aVTINKERPOP-1649
p370
aVTINKERPOP-1648
p371
aVTINKERPOP-1647
p372
aVTINKERPOP-1646
p373
aVTINKERPOP-1645
p374
aVTINKERPOP-1644
p375
aVTINKERPOP-1643
p376
aVTINKERPOP-1642
p377
aVTINKERPOP-1641
p378
aVTINKERPOP-1640
p379
aVTINKERPOP-1639
p380
aVTINKERPOP-1638
p381
aVTINKERPOP-1637
p382
aVTINKERPOP-1636
p383
aVTINKERPOP-1635
p384
aVTINKERPOP-1634
p385
aVTINKERPOP-1633
p386
aVTINKERPOP-1632
p387
aVTINKERPOP-1631
p388
aVTINKERPOP-1630
p389
aVTINKERPOP-1629
p390
aVTINKERPOP-1628
p391
aVTINKERPOP-1627
p392
aVTINKERPOP-1626
p393
aVTINKERPOP-1625
p394
aVTINKERPOP-1624
p395
aVTINKERPOP-1623
p396
aVTINKERPOP-1622
p397
aVTINKERPOP-1621
p398
aVTINKERPOP-1620
p399
aVTINKERPOP-1619
p400
aVTINKERPOP-1618
p401
aVTINKERPOP-1617
p402
aVTINKERPOP-1616
p403
aVTINKERPOP-1615
p404
aVTINKERPOP-1614
p405
aVTINKERPOP-1613
p406
aVTINKERPOP-1612
p407
aVTINKERPOP-1611
p408
aVTINKERPOP-1610
p409
aVTINKERPOP-1609
p410
aVTINKERPOP-1608
p411
aVTINKERPOP-1607
p412
aVTINKERPOP-1606
p413
aVTINKERPOP-1605
p414
aVTINKERPOP-1604
p415
aVTINKERPOP-1603
p416
aVTINKERPOP-1602
p417
aVTINKERPOP-1601
p418
aVTINKERPOP-1600
p419
aVTINKERPOP-1599
p420
aVTINKERPOP-1598
p421
aVTINKERPOP-1597
p422
aVTINKERPOP-1596
p423
aVTINKERPOP-1595
p424
aVTINKERPOP-1594
p425
aVTINKERPOP-1593
p426
aVTINKERPOP-1592
p427
aVTINKERPOP-1591
p428
aVTINKERPOP-1590
p429
aVTINKERPOP-1589
p430
aVTINKERPOP-1588
p431
aVTINKERPOP-1587
p432
aVTINKERPOP-1586
p433
aVTINKERPOP-1585
p434
aVTINKERPOP-1584
p435
aVTINKERPOP-1583
p436
aVTINKERPOP-1582
p437
aVTINKERPOP-1581
p438
aVTINKERPOP-1580
p439
aVTINKERPOP-1579
p440
aVTINKERPOP-1578
p441
aVTINKERPOP-1577
p442
aVTINKERPOP-1576
p443
aVTINKERPOP-1575
p444
aVTINKERPOP-1574
p445
aVTINKERPOP-1573
p446
aVTINKERPOP-1572
p447
aVTINKERPOP-1571
p448
aVTINKERPOP-1570
p449
aVTINKERPOP-1569
p450
aVTINKERPOP-1568
p451
aVTINKERPOP-1567
p452
aVTINKERPOP-1566
p453
aVTINKERPOP-1565
p454
aVTINKERPOP-1564
p455
aVTINKERPOP-1563
p456
aVTINKERPOP-1562
p457
aVTINKERPOP-1561
p458
aVTINKERPOP-1560
p459
aVTINKERPOP-1559
p460
aVTINKERPOP-1558
p461
aVTINKERPOP-1557
p462
aVTINKERPOP-1556
p463
aVTINKERPOP-1555
p464
aVTINKERPOP-1554
p465
aVTINKERPOP-1553
p466
aVTINKERPOP-1552
p467
aVTINKERPOP-1551
p468
aVTINKERPOP-1550
p469
aVTINKERPOP-1549
p470
aVTINKERPOP-1548
p471
aVTINKERPOP-1547
p472
aVTINKERPOP-1546
p473
aVTINKERPOP-1545
p474
aVTINKERPOP-1544
p475
aVTINKERPOP-1543
p476
aVTINKERPOP-1542
p477
aVTINKERPOP-1541
p478
aVTINKERPOP-1540
p479
aVTINKERPOP-1539
p480
aVTINKERPOP-1538
p481
aVTINKERPOP-1537
p482
aVTINKERPOP-1536
p483
aVTINKERPOP-1535
p484
aVTINKERPOP-1534
p485
aVTINKERPOP-1533
p486
aVTINKERPOP-1532
p487
aVTINKERPOP-1531
p488
aVTINKERPOP-1530
p489
aVTINKERPOP-1529
p490
aVTINKERPOP-1528
p491
aVTINKERPOP-1527
p492
aVTINKERPOP-1526
p493
aVTINKERPOP-1525
p494
aVTINKERPOP-1524
p495
aVTINKERPOP-1523
p496
aVTINKERPOP-1522
p497
aVTINKERPOP-1521
p498
aVTINKERPOP-1520
p499
aVTINKERPOP-1519
p500
aVTINKERPOP-1518
p501
aVTINKERPOP-1517
p502
aVTINKERPOP-1516
p503
aVTINKERPOP-1515
p504
aVTINKERPOP-1514
p505
aVTINKERPOP-1513
p506
aVTINKERPOP-1512
p507
aVTINKERPOP-1511
p508
aVTINKERPOP-1510
p509
aVTINKERPOP-1509
p510
aVTINKERPOP-1508
p511
aVTINKERPOP-1507
p512
aVTINKERPOP-1506
p513
aVTINKERPOP-1505
p514
aVTINKERPOP-1504
p515
aVTINKERPOP-1503
p516
aVTINKERPOP-1502
p517
aVTINKERPOP-1501
p518
aVTINKERPOP-1500
p519
aVTINKERPOP-1499
p520
aVTINKERPOP-1498
p521
aVTINKERPOP-1497
p522
aVTINKERPOP-1496
p523
aVTINKERPOP-1495
p524
aVTINKERPOP-1494
p525
aVTINKERPOP-1493
p526
aVTINKERPOP-1492
p527
aVTINKERPOP-1491
p528
aVTINKERPOP-1490
p529
aVTINKERPOP-1489
p530
aVTINKERPOP-1488
p531
aVTINKERPOP-1487
p532
aVTINKERPOP-1486
p533
aVTINKERPOP-1485
p534
aVTINKERPOP-1484
p535
aVTINKERPOP-1483
p536
aVTINKERPOP-1482
p537
aVTINKERPOP-1481
p538
aVTINKERPOP-1480
p539
aVTINKERPOP-1479
p540
aVTINKERPOP-1478
p541
aVTINKERPOP-1477
p542
aVTINKERPOP-1476
p543
aVTINKERPOP-1475
p544
aVTINKERPOP-1474
p545
aVTINKERPOP-1473
p546
aVTINKERPOP-1472
p547
aVTINKERPOP-1471
p548
aVTINKERPOP-1470
p549
aVTINKERPOP-1469
p550
aVTINKERPOP-1468
p551
aVTINKERPOP-1467
p552
aVTINKERPOP-1466
p553
aVTINKERPOP-1465
p554
aVTINKERPOP-1464
p555
aVTINKERPOP-1463
p556
aVTINKERPOP-1462
p557
aVTINKERPOP-1461
p558
aVTINKERPOP-1460
p559
aVTINKERPOP-1459
p560
aVTINKERPOP-1458
p561
aVTINKERPOP-1457
p562
aVTINKERPOP-1456
p563
aVTINKERPOP-1455
p564
aVTINKERPOP-1454
p565
aVTINKERPOP-1453
p566
aVTINKERPOP-1452
p567
aVTINKERPOP-1451
p568
aVTINKERPOP-1450
p569
aVTINKERPOP-1449
p570
aVTINKERPOP-1448
p571
aVTINKERPOP-1447
p572
aVTINKERPOP-1446
p573
aVTINKERPOP-1445
p574
aVTINKERPOP-1444
p575
aVTINKERPOP-1443
p576
aVTINKERPOP-1442
p577
aVTINKERPOP-1441
p578
aVTINKERPOP-1440
p579
aVTINKERPOP-1439
p580
aVTINKERPOP-1438
p581
aVTINKERPOP-1437
p582
aVTINKERPOP-1436
p583
aVTINKERPOP-1435
p584
aVTINKERPOP-1434
p585
aVTINKERPOP-1433
p586
aVTINKERPOP-1432
p587
aVTINKERPOP-1431
p588
aVTINKERPOP-1430
p589
aVTINKERPOP-1429
p590
aVTINKERPOP-1428
p591
aVTINKERPOP-1427
p592
aVTINKERPOP-1426
p593
aVTINKERPOP-1425
p594
aVTINKERPOP-1424
p595
aVTINKERPOP-1423
p596
aVTINKERPOP-1422
p597
aVTINKERPOP-1421
p598
aVTINKERPOP-1420
p599
aVTINKERPOP-1419
p600
aVTINKERPOP-1418
p601
aVTINKERPOP-1417
p602
aVTINKERPOP-1416
p603
aVTINKERPOP-1415
p604
aVTINKERPOP-1414
p605
aVTINKERPOP-1413
p606
aVTINKERPOP-1412
p607
aVTINKERPOP-1411
p608
aVTINKERPOP-1410
p609
aVTINKERPOP-1409
p610
aVTINKERPOP-1408
p611
aVTINKERPOP-1407
p612
aVTINKERPOP-1406
p613
aVTINKERPOP-1405
p614
aVTINKERPOP-1404
p615
aVTINKERPOP-1403
p616
aVTINKERPOP-1402
p617
aVTINKERPOP-1401
p618
aVTINKERPOP-1400
p619
aVTINKERPOP-1399
p620
aVTINKERPOP-1398
p621
aVTINKERPOP-1397
p622
aVTINKERPOP-1396
p623
aVTINKERPOP-1395
p624
aVTINKERPOP-1394
p625
aVTINKERPOP-1393
p626
aVTINKERPOP-1392
p627
aVTINKERPOP-1391
p628
aVTINKERPOP-1390
p629
aVTINKERPOP-1389
p630
aVTINKERPOP-1388
p631
aVTINKERPOP-1387
p632
aVTINKERPOP-1386
p633
aVTINKERPOP-1385
p634
aVTINKERPOP-1384
p635
aVTINKERPOP-1383
p636
aVTINKERPOP-1382
p637
aVTINKERPOP-1381
p638
aVTINKERPOP-1380
p639
aVTINKERPOP-1379
p640
aVTINKERPOP-1378
p641
aVTINKERPOP-1377
p642
aVTINKERPOP-1376
p643
aVTINKERPOP-1375
p644
aVTINKERPOP-1374
p645
aVTINKERPOP-1373
p646
aVTINKERPOP-1372
p647
aVTINKERPOP-1371
p648
aVTINKERPOP-1370
p649
aVTINKERPOP-1369
p650
aVTINKERPOP-1368
p651
aVTINKERPOP-1367
p652
aVTINKERPOP-1366
p653
aVTINKERPOP-1365
p654
aVTINKERPOP-1364
p655
aVTINKERPOP-1363
p656
aVTINKERPOP-1362
p657
aVTINKERPOP-1361
p658
aVTINKERPOP-1360
p659
aVTINKERPOP-1359
p660
aVTINKERPOP-1358
p661
aVTINKERPOP-1357
p662
aVTINKERPOP-1356
p663
aVTINKERPOP-1355
p664
aVTINKERPOP-1354
p665
aVTINKERPOP-1353
p666
aVTINKERPOP-1352
p667
aVTINKERPOP-1351
p668
aVTINKERPOP-1350
p669
aVTINKERPOP-1349
p670
aVTINKERPOP-1348
p671
aVTINKERPOP-1347
p672
aVTINKERPOP-1346
p673
aVTINKERPOP-1345
p674
aVTINKERPOP-1344
p675
aVTINKERPOP-1343
p676
aVTINKERPOP-1342
p677
aVTINKERPOP-1341
p678
aVTINKERPOP-1340
p679
aVTINKERPOP-1339
p680
aVTINKERPOP-1338
p681
aVTINKERPOP-1337
p682
aVTINKERPOP-1336
p683
aVTINKERPOP-1335
p684
aVTINKERPOP-1334
p685
aVTINKERPOP-1333
p686
aVTINKERPOP-1332
p687
aVTINKERPOP-1331
p688
aVTINKERPOP-1330
p689
aVTINKERPOP-1329
p690
aVTINKERPOP-1328
p691
aVTINKERPOP-1327
p692
aVTINKERPOP-1326
p693
aVTINKERPOP-1325
p694
aVTINKERPOP-1324
p695
aVTINKERPOP-1323
p696
aVTINKERPOP-1322
p697
aVTINKERPOP-1321
p698
aVTINKERPOP-1320
p699
aVTINKERPOP-1319
p700
aVTINKERPOP-1318
p701
aVTINKERPOP-1317
p702
aVTINKERPOP-1316
p703
aVTINKERPOP-1315
p704
aVTINKERPOP-1314
p705
aVTINKERPOP-1313
p706
aVTINKERPOP-1312
p707
aVTINKERPOP-1311
p708
aVTINKERPOP-1310
p709
aVTINKERPOP-1309
p710
aVTINKERPOP-1308
p711
aVTINKERPOP-1307
p712
aVTINKERPOP-1306
p713
aVTINKERPOP-1305
p714
aVTINKERPOP-1304
p715
aVTINKERPOP-1303
p716
aVTINKERPOP-1302
p717
aVTINKERPOP-1301
p718
aVTINKERPOP-1300
p719
aVTINKERPOP-1299
p720
aVTINKERPOP-1298
p721
aVTINKERPOP-1297
p722
aVTINKERPOP-1296
p723
aVTINKERPOP-1295
p724
aVTINKERPOP-1294
p725
aVTINKERPOP-1293
p726
aVTINKERPOP-1292
p727
aVTINKERPOP-1291
p728
aVTINKERPOP-1290
p729
aVTINKERPOP-1289
p730
aVTINKERPOP-1288
p731
aVTINKERPOP-1287
p732
aVTINKERPOP-1286
p733
aVTINKERPOP-1285
p734
aVTINKERPOP-1284
p735
aVTINKERPOP-1283
p736
aVTINKERPOP-1282
p737
aVTINKERPOP-1281
p738
aVTINKERPOP-1280
p739
aVTINKERPOP-1279
p740
aVTINKERPOP-1278
p741
aVTINKERPOP-1277
p742
aVTINKERPOP-1276
p743
aVTINKERPOP-1275
p744
aVTINKERPOP-1274
p745
aVTINKERPOP-1273
p746
aVTINKERPOP-1272
p747
aVTINKERPOP-1271
p748
aVTINKERPOP-1270
p749
aVTINKERPOP-1269
p750
aVTINKERPOP-1268
p751
aVTINKERPOP-1267
p752
aVTINKERPOP-1266
p753
aVTINKERPOP-1265
p754
aVTINKERPOP-1264
p755
aVTINKERPOP-1263
p756
aVTINKERPOP-1262
p757
aVTINKERPOP-1261
p758
aVTINKERPOP-1260
p759
aVTINKERPOP-1259
p760
aVTINKERPOP-1258
p761
aVTINKERPOP-1257
p762
aVTINKERPOP-1256
p763
aVTINKERPOP-1255
p764
aVTINKERPOP-1254
p765
aVTINKERPOP-1253
p766
aVTINKERPOP-1252
p767
aVTINKERPOP-1251
p768
aVTINKERPOP-1250
p769
aVTINKERPOP-1249
p770
aVTINKERPOP-1248
p771
aVTINKERPOP-1247
p772
aVTINKERPOP-1246
p773
aVTINKERPOP-1245
p774
aVTINKERPOP-1244
p775
aVTINKERPOP-1243
p776
aVTINKERPOP-1242
p777
aVTINKERPOP-1241
p778
aVTINKERPOP-1240
p779
aVTINKERPOP-1239
p780
aVTINKERPOP-1238
p781
aVTINKERPOP-1237
p782
aVTINKERPOP-1236
p783
aVTINKERPOP-1235
p784
aVTINKERPOP-1234
p785
aVTINKERPOP-1233
p786
aVTINKERPOP-1232
p787
aVTINKERPOP-1231
p788
aVTINKERPOP-1230
p789
aVTINKERPOP-1229
p790
aVTINKERPOP-1228
p791
aVTINKERPOP-1227
p792
aVTINKERPOP-1226
p793
aVTINKERPOP-1225
p794
aVTINKERPOP-1224
p795
aVTINKERPOP-1223
p796
aVTINKERPOP-1222
p797
aVTINKERPOP-1221
p798
aVTINKERPOP-1220
p799
aVTINKERPOP-1219
p800
aVTINKERPOP-1218
p801
aVTINKERPOP-1217
p802
aVTINKERPOP-1216
p803
aVTINKERPOP-1215
p804
aVTINKERPOP-1214
p805
aVTINKERPOP-1213
p806
aVTINKERPOP-1212
p807
aVTINKERPOP-1211
p808
aVTINKERPOP-1210
p809
aVTINKERPOP-1209
p810
aVTINKERPOP-1208
p811
aVTINKERPOP-1207
p812
aVTINKERPOP-1206
p813
aVTINKERPOP-1205
p814
aVTINKERPOP-1204
p815
aVTINKERPOP-1203
p816
aVTINKERPOP-1202
p817
aVTINKERPOP-1201
p818
aVTINKERPOP-1200
p819
aVTINKERPOP-1199
p820
aVTINKERPOP-1198
p821
aVTINKERPOP-1197
p822
aVTINKERPOP-1196
p823
aVTINKERPOP-1195
p824
aVTINKERPOP-1194
p825
aVTINKERPOP-1193
p826
aVTINKERPOP-1192
p827
aVTINKERPOP-1191
p828
aVTINKERPOP-1190
p829
aVTINKERPOP-1189
p830
aVTINKERPOP-1188
p831
aVTINKERPOP-1187
p832
aVTINKERPOP-1186
p833
aVTINKERPOP-1185
p834
aVTINKERPOP-1184
p835
aVTINKERPOP-1183
p836
aVTINKERPOP-1182
p837
aVTINKERPOP-1181
p838
aVTINKERPOP-1180
p839
aVTINKERPOP-1179
p840
aVTINKERPOP-1178
p841
aVTINKERPOP-1177
p842
aVTINKERPOP-1176
p843
aVTINKERPOP-1175
p844
aVTINKERPOP-1174
p845
aVTINKERPOP-1173
p846
aVTINKERPOP-1172
p847
aVTINKERPOP-1171
p848
aVTINKERPOP-1170
p849
aVTINKERPOP-1169
p850
aVTINKERPOP-1168
p851
aVTINKERPOP-1167
p852
aVTINKERPOP-1166
p853
aVTINKERPOP-1165
p854
aVTINKERPOP-1164
p855
aVTINKERPOP-1163
p856
aVTINKERPOP-1162
p857
aVTINKERPOP-1161
p858
aVTINKERPOP-1160
p859
aVTINKERPOP-1159
p860
aVTINKERPOP-1158
p861
aVTINKERPOP-1157
p862
aVTINKERPOP-1156
p863
aVTINKERPOP-1155
p864
aVTINKERPOP-1154
p865
aVTINKERPOP-1153
p866
aVTINKERPOP-1152
p867
aVTINKERPOP-1151
p868
aVTINKERPOP-1150
p869
aVTINKERPOP-1149
p870
aVTINKERPOP-1148
p871
aVTINKERPOP-1147
p872
aVTINKERPOP-1146
p873
aVTINKERPOP-1145
p874
aVTINKERPOP-1144
p875
aVTINKERPOP-1143
p876
aVTINKERPOP-1142
p877
aVTINKERPOP-1141
p878
aVTINKERPOP-1140
p879
aVTINKERPOP-1139
p880
aVTINKERPOP-1138
p881
aVTINKERPOP-1137
p882
aVTINKERPOP-1136
p883
aVTINKERPOP-1135
p884
aVTINKERPOP-1134
p885
aVTINKERPOP-1133
p886
aVTINKERPOP-1132
p887
aVTINKERPOP-1131
p888
aVTINKERPOP-1130
p889
aVTINKERPOP-1129
p890
aVTINKERPOP-1128
p891
aVTINKERPOP-1127
p892
aVTINKERPOP-1126
p893
aVTINKERPOP-1125
p894
aVTINKERPOP-1124
p895
aVTINKERPOP-1123
p896
aVTINKERPOP-1122
p897
aVTINKERPOP-1121
p898
aVTINKERPOP-1120
p899
aVTINKERPOP-1119
p900
aVTINKERPOP-1118
p901
aVTINKERPOP-1117
p902
aVTINKERPOP-1116
p903
aVTINKERPOP-1115
p904
aVTINKERPOP-1114
p905
aVTINKERPOP-1113
p906
aVTINKERPOP-1112
p907
aVTINKERPOP-1111
p908
aVTINKERPOP-1110
p909
aVTINKERPOP-1109
p910
aVTINKERPOP-1108
p911
aVTINKERPOP-1107
p912
aVTINKERPOP-1106
p913
aVTINKERPOP-1105
p914
aVTINKERPOP-1104
p915
aVTINKERPOP-1103
p916
aVTINKERPOP-1102
p917
aVTINKERPOP-1101
p918
aVTINKERPOP-1100
p919
aVTINKERPOP-1099
p920
aVTINKERPOP-1098
p921
aVTINKERPOP-1097
p922
aVTINKERPOP-1096
p923
aVTINKERPOP-1095
p924
aVTINKERPOP-1094
p925
aVTINKERPOP-1093
p926
aVTINKERPOP-1092
p927
aVTINKERPOP-1091
p928
aVTINKERPOP-1090
p929
aVTINKERPOP-1089
p930
aVTINKERPOP-1088
p931
aVTINKERPOP-1087
p932
aVTINKERPOP-1086
p933
aVTINKERPOP-1085
p934
aVTINKERPOP-1084
p935
aVTINKERPOP-1083
p936
aVTINKERPOP-1082
p937
aVTINKERPOP-1081
p938
aVTINKERPOP-1080
p939
aVTINKERPOP-1079
p940
aVTINKERPOP-1078
p941
aVTINKERPOP-1077
p942
aVTINKERPOP-1076
p943
aVTINKERPOP-1075
p944
aVTINKERPOP-1074
p945
aVTINKERPOP-1073
p946
aVTINKERPOP-1072
p947
aVTINKERPOP-1071
p948
aVTINKERPOP-1070
p949
aVTINKERPOP-1069
p950
aVTINKERPOP-1068
p951
aVTINKERPOP-1067
p952
aVTINKERPOP-1066
p953
aVTINKERPOP-1065
p954
aVTINKERPOP-1064
p955
aVTINKERPOP-1063
p956
aVTINKERPOP-1062
p957
aVTINKERPOP-1061
p958
aVTINKERPOP-1060
p959
aVTINKERPOP-1059
p960
aVTINKERPOP-1058
p961
aVTINKERPOP-1057
p962
aVTINKERPOP-1056
p963
aVTINKERPOP-1055
p964
aVTINKERPOP-1054
p965
aVTINKERPOP-1053
p966
aVTINKERPOP-1052
p967
aVTINKERPOP-1051
p968
aVTINKERPOP-1050
p969
aVTINKERPOP-1049
p970
aVTINKERPOP-1048
p971
aVTINKERPOP-1047
p972
aVTINKERPOP-1046
p973
aVTINKERPOP-1045
p974
aVTINKERPOP-1044
p975
aVTINKERPOP-1043
p976
aVTINKERPOP-1042
p977
aVTINKERPOP-1041
p978
aVTINKERPOP-1040
p979
aVTINKERPOP-1039
p980
aVTINKERPOP-1038
p981
aVTINKERPOP-1037
p982
aVTINKERPOP-1036
p983
aVTINKERPOP-1035
p984
aVTINKERPOP-1034
p985
aVTINKERPOP-1033
p986
aVTINKERPOP-1032
p987
aVTINKERPOP-1031
p988
aVTINKERPOP-1030
p989
aVTINKERPOP-1029
p990
aVTINKERPOP-1028
p991
aVTINKERPOP-1027
p992
aVTINKERPOP-1026
p993
aVTINKERPOP-1025
p994
aVTINKERPOP-1024
p995
aVTINKERPOP-1023
p996
aVTINKERPOP-1022
p997
aVTINKERPOP-1021
p998
aVTINKERPOP-1020
p999
aVTINKERPOP-1019
p1000
aVTINKERPOP-1018
p1001
aVTINKERPOP-1017
p1002
aVTINKERPOP-1016
p1003
aVTINKERPOP-1015
p1004
aVTINKERPOP-1014
p1005
aVTINKERPOP-1013
p1006
aVTINKERPOP-1012
p1007
aVTINKERPOP-1011
p1008
aVTINKERPOP-1010
p1009
aVTINKERPOP-1009
p1010
aVTINKERPOP-1008
p1011
aVTINKERPOP-1007
p1012
aVTINKERPOP-1006
p1013
aVTINKERPOP-1005
p1014
aVTINKERPOP-1004
p1015
aVTINKERPOP-1003
p1016
aVTINKERPOP-1002
p1017
aVTINKERPOP-1001
p1018
aVTINKERPOP-1000
p1019
aVTINKERPOP-999
p1020
aVTINKERPOP-998
p1021
aVTINKERPOP-997
p1022
aVTINKERPOP-996
p1023
aVTINKERPOP-995
p1024
aVTINKERPOP-994
p1025
aVTINKERPOP-993
p1026
aVTINKERPOP-992
p1027
aVTINKERPOP-991
p1028
aVTINKERPOP-990
p1029
aVTINKERPOP-989
p1030
aVTINKERPOP-988
p1031
aVTINKERPOP-987
p1032
aVTINKERPOP-986
p1033
aVTINKERPOP-985
p1034
aVTINKERPOP-984
p1035
aVTINKERPOP-983
p1036
aVTINKERPOP-982
p1037
aVTINKERPOP-981
p1038
aVTINKERPOP-980
p1039
aVTINKERPOP-979
p1040
aVTINKERPOP-978
p1041
aVTINKERPOP-977
p1042
aVTINKERPOP-976
p1043
aVTINKERPOP-975
p1044
aVTINKERPOP-974
p1045
aVTINKERPOP-973
p1046
aVTINKERPOP-972
p1047
aVTINKERPOP-971
p1048
aVTINKERPOP-970
p1049
aVTINKERPOP-969
p1050
aVTINKERPOP-968
p1051
aVTINKERPOP-967
p1052
aVTINKERPOP-966
p1053
aVTINKERPOP-965
p1054
aVTINKERPOP-964
p1055
aVTINKERPOP-963
p1056
aVTINKERPOP-962
p1057
aVTINKERPOP-961
p1058
aVTINKERPOP-960
p1059
aVTINKERPOP-959
p1060
aVTINKERPOP-958
p1061
aVTINKERPOP-957
p1062
aVTINKERPOP-956
p1063
aVTINKERPOP-955
p1064
aVTINKERPOP-954
p1065
aVTINKERPOP-953
p1066
aVTINKERPOP-952
p1067
aVTINKERPOP-951
p1068
aVTINKERPOP-950
p1069
aVTINKERPOP-949
p1070
aVTINKERPOP-948
p1071
aVTINKERPOP-947
p1072
aVTINKERPOP-946
p1073
aVTINKERPOP-945
p1074
aVTINKERPOP-944
p1075
aVTINKERPOP-943
p1076
aVTINKERPOP-942
p1077
aVTINKERPOP-941
p1078
aVTINKERPOP-940
p1079
aVTINKERPOP-939
p1080
aVTINKERPOP-938
p1081
aVTINKERPOP-937
p1082
aVTINKERPOP-936
p1083
aVTINKERPOP-935
p1084
aVTINKERPOP-934
p1085
aVTINKERPOP-933
p1086
aVTINKERPOP-932
p1087
aVTINKERPOP-931
p1088
aVTINKERPOP-930
p1089
aVTINKERPOP-929
p1090
aVTINKERPOP-928
p1091
aVTINKERPOP-927
p1092
aVTINKERPOP-926
p1093
aVTINKERPOP-925
p1094
aVTINKERPOP-924
p1095
aVTINKERPOP-923
p1096
aVTINKERPOP-922
p1097
aVTINKERPOP-921
p1098
aVTINKERPOP-920
p1099
aVTINKERPOP-919
p1100
aVTINKERPOP-918
p1101
aVTINKERPOP-917
p1102
aVTINKERPOP-916
p1103
aVTINKERPOP-915
p1104
aVTINKERPOP-914
p1105
aVTINKERPOP-913
p1106
aVTINKERPOP-912
p1107
aVTINKERPOP-911
p1108
aVTINKERPOP-910
p1109
aVTINKERPOP-909
p1110
aVTINKERPOP-908
p1111
aVTINKERPOP-907
p1112
aVTINKERPOP-906
p1113
aVTINKERPOP-905
p1114
aVTINKERPOP-904
p1115
aVTINKERPOP-903
p1116
aVTINKERPOP-902
p1117
aVTINKERPOP-901
p1118
aVTINKERPOP-900
p1119
aVTINKERPOP-899
p1120
aVTINKERPOP-898
p1121
aVTINKERPOP-897
p1122
aVTINKERPOP-896
p1123
aVTINKERPOP-895
p1124
aVTINKERPOP-894
p1125
aVTINKERPOP-893
p1126
aVTINKERPOP-892
p1127
aVTINKERPOP-891
p1128
aVTINKERPOP-890
p1129
aVTINKERPOP-889
p1130
aVTINKERPOP-888
p1131
aVTINKERPOP-887
p1132
aVTINKERPOP-886
p1133
aVTINKERPOP-885
p1134
aVTINKERPOP-884
p1135
aVTINKERPOP-883
p1136
aVTINKERPOP-882
p1137
aVTINKERPOP-881
p1138
aVTINKERPOP-880
p1139
aVTINKERPOP-879
p1140
aVTINKERPOP-878
p1141
aVTINKERPOP-877
p1142
aVTINKERPOP-876
p1143
aVTINKERPOP-875
p1144
aVTINKERPOP-874
p1145
aVTINKERPOP-873
p1146
aVTINKERPOP-872
p1147
aVTINKERPOP-871
p1148
aVTINKERPOP-870
p1149
aVTINKERPOP-869
p1150
aVTINKERPOP-868
p1151
aVTINKERPOP-867
p1152
aVTINKERPOP-866
p1153
aVTINKERPOP-865
p1154
aVTINKERPOP-864
p1155
aVTINKERPOP-863
p1156
aVTINKERPOP-862
p1157
aVTINKERPOP-861
p1158
aVTINKERPOP-860
p1159
aVTINKERPOP-859
p1160
aVTINKERPOP-858
p1161
aVTINKERPOP-857
p1162
aVTINKERPOP-856
p1163
aVTINKERPOP-855
p1164
aVTINKERPOP-854
p1165
aVTINKERPOP-853
p1166
aVTINKERPOP-852
p1167
aVTINKERPOP-851
p1168
aVTINKERPOP-850
p1169
aVTINKERPOP-849
p1170
aVTINKERPOP-848
p1171
aVTINKERPOP-847
p1172
aVTINKERPOP-846
p1173
aVTINKERPOP-845
p1174
aVTINKERPOP-844
p1175
aVTINKERPOP-843
p1176
aVTINKERPOP-842
p1177
aVTINKERPOP-841
p1178
aVTINKERPOP-840
p1179
aVTINKERPOP-839
p1180
aVTINKERPOP-838
p1181
aVTINKERPOP-837
p1182
aVTINKERPOP-836
p1183
aVTINKERPOP-835
p1184
aVTINKERPOP-834
p1185
aVTINKERPOP-833
p1186
aVTINKERPOP-832
p1187
aVTINKERPOP-831
p1188
aVTINKERPOP-830
p1189
aVTINKERPOP-829
p1190
aVTINKERPOP-828
p1191
aVTINKERPOP-827
p1192
aVTINKERPOP-826
p1193
aVTINKERPOP-825
p1194
aVTINKERPOP-824
p1195
aVTINKERPOP-823
p1196
aVTINKERPOP-822
p1197
aVTINKERPOP-821
p1198
aVTINKERPOP-820
p1199
aVTINKERPOP-819
p1200
aVTINKERPOP-818
p1201
aVTINKERPOP-817
p1202
aVTINKERPOP-816
p1203
aVTINKERPOP-815
p1204
aVTINKERPOP-814
p1205
aVTINKERPOP-813
p1206
aVTINKERPOP-812
p1207
aVTINKERPOP-811
p1208
aVTINKERPOP-810
p1209
aVTINKERPOP-809
p1210
aVTINKERPOP-808
p1211
aVTINKERPOP-807
p1212
aVTINKERPOP-806
p1213
aVTINKERPOP-805
p1214
aVTINKERPOP-804
p1215
aVTINKERPOP-803
p1216
aVTINKERPOP-802
p1217
aVTINKERPOP-801
p1218
aVTINKERPOP-800
p1219
aVTINKERPOP-799
p1220
aVTINKERPOP-798
p1221
aVTINKERPOP-797
p1222
aVTINKERPOP-796
p1223
aVTINKERPOP-795
p1224
aVTINKERPOP-794
p1225
aVTINKERPOP-793
p1226
aVTINKERPOP-792
p1227
aVTINKERPOP-791
p1228
aVTINKERPOP-790
p1229
aVTINKERPOP-789
p1230
aVTINKERPOP-788
p1231
aVTINKERPOP-787
p1232
aVTINKERPOP-786
p1233
aVTINKERPOP-785
p1234
aVTINKERPOP-784
p1235
aVTINKERPOP-783
p1236
aVTINKERPOP-782
p1237
aVTINKERPOP-781
p1238
aVTINKERPOP-780
p1239
aVTINKERPOP-779
p1240
aVTINKERPOP-778
p1241
aVTINKERPOP-777
p1242
aVTINKERPOP-776
p1243
aVTINKERPOP-775
p1244
aVTINKERPOP-774
p1245
aVTINKERPOP-773
p1246
aVTINKERPOP-772
p1247
aVTINKERPOP-771
p1248
aVTINKERPOP-770
p1249
aVTINKERPOP-769
p1250
aVTINKERPOP-768
p1251
aVTINKERPOP-767
p1252
aVTINKERPOP-766
p1253
aVTINKERPOP-765
p1254
aVTINKERPOP-764
p1255
aVTINKERPOP-763
p1256
aVTINKERPOP-762
p1257
aVTINKERPOP-761
p1258
aVTINKERPOP-760
p1259
aVTINKERPOP-759
p1260
aVTINKERPOP-758
p1261
aVTINKERPOP-757
p1262
aVTINKERPOP-756
p1263
aVTINKERPOP-755
p1264
aVTINKERPOP-754
p1265
aVTINKERPOP-753
p1266
aVTINKERPOP-752
p1267
aVTINKERPOP-751
p1268
aVTINKERPOP-750
p1269
aVTINKERPOP-749
p1270
aVTINKERPOP-748
p1271
aVTINKERPOP-747
p1272
aVTINKERPOP-746
p1273
aVTINKERPOP-745
p1274
aVTINKERPOP-744
p1275
aVTINKERPOP-743
p1276
aVTINKERPOP-742
p1277
aVTINKERPOP-741
p1278
aVTINKERPOP-740
p1279
aVTINKERPOP-739
p1280
aVTINKERPOP-738
p1281
aVTINKERPOP-737
p1282
aVTINKERPOP-736
p1283
aVTINKERPOP-735
p1284
aVTINKERPOP-734
p1285
aVTINKERPOP-733
p1286
aVTINKERPOP-732
p1287
aVTINKERPOP-731
p1288
aVTINKERPOP-730
p1289
aVTINKERPOP-729
p1290
aVTINKERPOP-728
p1291
aVTINKERPOP-727
p1292
aVTINKERPOP-726
p1293
aVTINKERPOP-725
p1294
aVTINKERPOP-724
p1295
aVTINKERPOP-723
p1296
aVTINKERPOP-722
p1297
aVTINKERPOP-721
p1298
aVTINKERPOP-720
p1299
aVTINKERPOP-719
p1300
aVTINKERPOP-718
p1301
aVTINKERPOP-717
p1302
aVTINKERPOP-716
p1303
aVTINKERPOP-715
p1304
aVTINKERPOP-714
p1305
aVTINKERPOP-713
p1306
aVTINKERPOP-712
p1307
aVTINKERPOP-711
p1308
aVTINKERPOP-710
p1309
aVTINKERPOP-709
p1310
aVTINKERPOP-708
p1311
aVTINKERPOP-707
p1312
aVTINKERPOP-706
p1313
aVTINKERPOP-705
p1314
aVTINKERPOP-704
p1315
aVTINKERPOP-703
p1316
aVTINKERPOP-702
p1317
aVTINKERPOP-701
p1318
aVTINKERPOP-700
p1319
aVTINKERPOP-699
p1320
aVTINKERPOP-698
p1321
aVTINKERPOP-697
p1322
aVTINKERPOP-696
p1323
aVTINKERPOP-695
p1324
aVTINKERPOP-694
p1325
aVTINKERPOP-693
p1326
aVTINKERPOP-692
p1327
aVTINKERPOP-691
p1328
aVTINKERPOP-690
p1329
aVTINKERPOP-689
p1330
aVTINKERPOP-688
p1331
aVTINKERPOP-687
p1332
aVTINKERPOP-686
p1333
aVTINKERPOP-685
p1334
aVTINKERPOP-684
p1335
aVTINKERPOP-683
p1336
aVTINKERPOP-682
p1337
aVTINKERPOP-681
p1338
aVTINKERPOP-680
p1339
aVTINKERPOP-679
p1340
aVTINKERPOP-678
p1341
aVTINKERPOP-677
p1342
aVTINKERPOP-676
p1343
aVTINKERPOP-675
p1344
aVTINKERPOP-674
p1345
aVTINKERPOP-673
p1346
aVTINKERPOP-672
p1347
aVTINKERPOP-671
p1348
aVTINKERPOP-670
p1349
aVTINKERPOP-669
p1350
aVTINKERPOP-668
p1351
aVTINKERPOP-667
p1352
aVTINKERPOP-666
p1353
aVTINKERPOP-665
p1354
aVTINKERPOP-664
p1355
aVTINKERPOP-663
p1356
aVTINKERPOP-662
p1357
aVTINKERPOP-661
p1358
aVTINKERPOP-660
p1359
aVTINKERPOP-659
p1360
aVTINKERPOP-658
p1361
aVTINKERPOP-657
p1362
aVTINKERPOP-656
p1363
aVTINKERPOP-655
p1364
aVTINKERPOP-654
p1365
aVTINKERPOP-653
p1366
aVTINKERPOP-652
p1367
aVTINKERPOP-651
p1368
aVTINKERPOP-650
p1369
aVTINKERPOP-649
p1370
aVTINKERPOP-648
p1371
aVTINKERPOP-647
p1372
aVTINKERPOP-646
p1373
aVTINKERPOP-645
p1374
aVTINKERPOP-644
p1375
aVTINKERPOP-643
p1376
aVTINKERPOP-642
p1377
aVTINKERPOP-641
p1378
aVTINKERPOP-640
p1379
aVTINKERPOP-639
p1380
aVTINKERPOP-638
p1381
aVTINKERPOP-637
p1382
aVTINKERPOP-636
p1383
aVTINKERPOP-635
p1384
aVTINKERPOP-634
p1385
aVTINKERPOP-633
p1386
aVTINKERPOP-632
p1387
aVTINKERPOP-631
p1388
aVTINKERPOP-630
p1389
aVTINKERPOP-629
p1390
aVTINKERPOP-628
p1391
aVTINKERPOP-627
p1392
aVTINKERPOP-626
p1393
aVTINKERPOP-625
p1394
aVTINKERPOP-624
p1395
aVTINKERPOP-623
p1396
aVTINKERPOP-622
p1397
aVTINKERPOP-621
p1398
aVTINKERPOP-620
p1399
aVTINKERPOP-619
p1400
aVTINKERPOP-618
p1401
aVTINKERPOP-617
p1402
aVTINKERPOP-616
p1403
aVTINKERPOP-615
p1404
aVTINKERPOP-614
p1405
aVTINKERPOP-613
p1406
aVTINKERPOP-612
p1407
aVTINKERPOP-611
p1408
aVTINKERPOP-610
p1409
aVTINKERPOP-609
p1410
aVTINKERPOP-608
p1411
aVTINKERPOP-607
p1412
aVTINKERPOP-606
p1413
aVTINKERPOP-605
p1414
aVTINKERPOP-604
p1415
aVTINKERPOP-603
p1416
aVTINKERPOP-602
p1417
aVTINKERPOP-601
p1418
aVTINKERPOP-600
p1419
aVTINKERPOP-599
p1420
aVTINKERPOP-598
p1421
aVTINKERPOP-597
p1422
aVTINKERPOP-596
p1423
aVTINKERPOP-595
p1424
aVTINKERPOP-594
p1425
aVTINKERPOP-593
p1426
aVTINKERPOP-592
p1427
aVTINKERPOP-591
p1428
aVTINKERPOP-590
p1429
aVTINKERPOP-589
p1430
aVTINKERPOP-588
p1431
aVTINKERPOP-587
p1432
aVTINKERPOP-586
p1433
aVTINKERPOP-585
p1434
aVTINKERPOP-584
p1435
aVTINKERPOP-583
p1436
aVTINKERPOP-582
p1437
aVTINKERPOP-581
p1438
aVTINKERPOP-580
p1439
aVTINKERPOP-579
p1440
aVTINKERPOP-578
p1441
aVTINKERPOP-577
p1442
aVTINKERPOP-576
p1443
aVTINKERPOP-575
p1444
aVTINKERPOP-574
p1445
aVTINKERPOP-573
p1446
aVTINKERPOP-572
p1447
aVTINKERPOP-571
p1448
aVTINKERPOP-570
p1449
aVTINKERPOP-569
p1450
aVTINKERPOP-568
p1451
aVTINKERPOP-567
p1452
aVTINKERPOP-566
p1453
aVTINKERPOP-565
p1454
aVTINKERPOP-564
p1455
aVTINKERPOP-563
p1456
aVTINKERPOP-562
p1457
aVTINKERPOP-561
p1458
aVTINKERPOP-560
p1459
aVTINKERPOP-559
p1460
aVTINKERPOP-558
p1461
aVTINKERPOP-557
p1462
aVTINKERPOP-556
p1463
aVTINKERPOP-555
p1464
aVTINKERPOP-554
p1465
aVTINKERPOP-553
p1466
aVTINKERPOP-552
p1467
aVTINKERPOP-551
p1468
aVTINKERPOP-550
p1469
aVTINKERPOP-549
p1470
aVTINKERPOP-548
p1471
aVTINKERPOP-547
p1472
aVTINKERPOP-546
p1473
aVTINKERPOP-545
p1474
aVTINKERPOP-544
p1475
aVTINKERPOP-543
p1476
aVTINKERPOP-542
p1477
aVTINKERPOP-541
p1478
aVTINKERPOP-540
p1479
aVTINKERPOP-539
p1480
aVTINKERPOP-538
p1481
aVTINKERPOP-537
p1482
aVTINKERPOP-536
p1483
aVTINKERPOP-535
p1484
aVTINKERPOP-534
p1485
aVTINKERPOP-533
p1486
aVTINKERPOP-532
p1487
aVTINKERPOP-531
p1488
aVTINKERPOP-530
p1489
aVTINKERPOP-529
p1490
aVTINKERPOP-528
p1491
aVTINKERPOP-527
p1492
aVTINKERPOP-526
p1493
aVTINKERPOP-525
p1494
aVTINKERPOP-524
p1495
aVTINKERPOP-523
p1496
aVTINKERPOP-522
p1497
aVTINKERPOP-521
p1498
aVTINKERPOP-520
p1499
aVTINKERPOP-519
p1500
aVTINKERPOP-518
p1501
aVTINKERPOP-517
p1502
aVTINKERPOP-516
p1503
aVTINKERPOP-515
p1504
aVTINKERPOP-514
p1505
aVTINKERPOP-513
p1506
aVTINKERPOP-512
p1507
aVTINKERPOP-511
p1508
aVTINKERPOP-510
p1509
aVTINKERPOP-509
p1510
aVTINKERPOP-508
p1511
aVTINKERPOP-507
p1512
aVTINKERPOP-506
p1513
aVTINKERPOP-505
p1514
aVTINKERPOP-504
p1515
aVTINKERPOP-503
p1516
aVTINKERPOP-502
p1517
aVTINKERPOP-501
p1518
aVTINKERPOP-500
p1519
aVTINKERPOP-499
p1520
aVTINKERPOP-498
p1521
aVTINKERPOP-497
p1522
aVTINKERPOP-496
p1523
aVTINKERPOP-495
p1524
aVTINKERPOP-494
p1525
aVTINKERPOP-493
p1526
aVTINKERPOP-492
p1527
aVTINKERPOP-491
p1528
aVTINKERPOP-490
p1529
aVTINKERPOP-489
p1530
aVTINKERPOP-488
p1531
aVTINKERPOP-487
p1532
aVTINKERPOP-486
p1533
aVTINKERPOP-485
p1534
aVTINKERPOP-484
p1535
aVTINKERPOP-483
p1536
aVTINKERPOP-482
p1537
aVTINKERPOP-481
p1538
aVTINKERPOP-480
p1539
aVTINKERPOP-479
p1540
aVTINKERPOP-478
p1541
aVTINKERPOP-477
p1542
aVTINKERPOP-476
p1543
aVTINKERPOP-475
p1544
aVTINKERPOP-474
p1545
aVTINKERPOP-473
p1546
aVTINKERPOP-472
p1547
aVTINKERPOP-471
p1548
aVTINKERPOP-470
p1549
aVTINKERPOP-469
p1550
aVTINKERPOP-468
p1551
aVTINKERPOP-467
p1552
aVTINKERPOP-466
p1553
aVTINKERPOP-465
p1554
aVTINKERPOP-464
p1555
aVTINKERPOP-463
p1556
aVTINKERPOP-462
p1557
aVTINKERPOP-461
p1558
aVTINKERPOP-460
p1559
aVTINKERPOP-459
p1560
aVTINKERPOP-458
p1561
aVTINKERPOP-457
p1562
aVTINKERPOP-456
p1563
aVTINKERPOP-455
p1564
aVTINKERPOP-454
p1565
aVTINKERPOP-453
p1566
aVTINKERPOP-452
p1567
aVTINKERPOP-451
p1568
aVTINKERPOP-450
p1569
aVTINKERPOP-449
p1570
aVTINKERPOP-448
p1571
aVTINKERPOP-447
p1572
aVTINKERPOP-446
p1573
aVTINKERPOP-445
p1574
aVTINKERPOP-444
p1575
aVTINKERPOP-443
p1576
aVTINKERPOP-442
p1577
aVTINKERPOP-441
p1578
aVTINKERPOP-440
p1579
aVTINKERPOP-439
p1580
aVTINKERPOP-438
p1581
aVTINKERPOP-437
p1582
aVTINKERPOP-436
p1583
aVTINKERPOP-435
p1584
aVTINKERPOP-434
p1585
aVTINKERPOP-433
p1586
aVTINKERPOP-432
p1587
aVTINKERPOP-431
p1588
aVTINKERPOP-430
p1589
aVTINKERPOP-429
p1590
aVTINKERPOP-428
p1591
aVTINKERPOP-427
p1592
aVTINKERPOP-426
p1593
aVTINKERPOP-425
p1594
aVTINKERPOP-424
p1595
aVTINKERPOP-423
p1596
aVTINKERPOP-422
p1597
aVTINKERPOP-421
p1598
aVTINKERPOP-420
p1599
aVTINKERPOP-419
p1600
aVTINKERPOP-418
p1601
aVTINKERPOP-417
p1602
aVTINKERPOP-416
p1603
aVTINKERPOP-415
p1604
aVTINKERPOP-414
p1605
aVTINKERPOP-413
p1606
aVTINKERPOP-412
p1607
aVTINKERPOP-411
p1608
aVTINKERPOP-410
p1609
aVTINKERPOP-409
p1610
aVTINKERPOP-408
p1611
aVTINKERPOP-407
p1612
aVTINKERPOP-406
p1613
aVTINKERPOP-405
p1614
aVTINKERPOP-404
p1615
aVTINKERPOP-403
p1616
aVTINKERPOP-402
p1617
aVTINKERPOP-401
p1618
aVTINKERPOP-400
p1619
aVTINKERPOP-399
p1620
aVTINKERPOP-398
p1621
aVTINKERPOP-397
p1622
aVTINKERPOP-396
p1623
aVTINKERPOP-395
p1624
aVTINKERPOP-394
p1625
aVTINKERPOP-393
p1626
aVTINKERPOP-392
p1627
aVTINKERPOP-391
p1628
aVTINKERPOP-390
p1629
aVTINKERPOP-389
p1630
aVTINKERPOP-388
p1631
aVTINKERPOP-387
p1632
aVTINKERPOP-386
p1633
aVTINKERPOP-385
p1634
aVTINKERPOP-384
p1635
aVTINKERPOP-383
p1636
aVTINKERPOP-382
p1637
aVTINKERPOP-381
p1638
aVTINKERPOP-380
p1639
aVTINKERPOP-379
p1640
aVTINKERPOP-378
p1641
aVTINKERPOP-377
p1642
aVTINKERPOP-376
p1643
aVTINKERPOP-375
p1644
aVTINKERPOP-374
p1645
aVTINKERPOP-373
p1646
aVTINKERPOP-372
p1647
aVTINKERPOP-371
p1648
aVTINKERPOP-370
p1649
aVTINKERPOP-369
p1650
aVTINKERPOP-368
p1651
aVTINKERPOP-367
p1652
aVTINKERPOP-366
p1653
aVTINKERPOP-365
p1654
aVTINKERPOP-364
p1655
aVTINKERPOP-363
p1656
aVTINKERPOP-362
p1657
aVTINKERPOP-361
p1658
aVTINKERPOP-360
p1659
aVTINKERPOP-359
p1660
aVTINKERPOP-358
p1661
aVTINKERPOP-357
p1662
aVTINKERPOP-356
p1663
aVTINKERPOP-355
p1664
aVTINKERPOP-354
p1665
aVTINKERPOP-353
p1666
aVTINKERPOP-352
p1667
aVTINKERPOP-351
p1668
aVTINKERPOP-350
p1669
aVTINKERPOP-349
p1670
aVTINKERPOP-348
p1671
aVTINKERPOP-347
p1672
aVTINKERPOP-346
p1673
aVTINKERPOP-345
p1674
aVTINKERPOP-344
p1675
aVTINKERPOP-343
p1676
aVTINKERPOP-342
p1677
aVTINKERPOP-341
p1678
aVTINKERPOP-340
p1679
aVTINKERPOP-339
p1680
aVTINKERPOP-338
p1681
aVTINKERPOP-337
p1682
aVTINKERPOP-336
p1683
aVTINKERPOP-335
p1684
aVTINKERPOP-334
p1685
aVTINKERPOP-333
p1686
aVTINKERPOP-332
p1687
aVTINKERPOP-331
p1688
aVTINKERPOP-330
p1689
aVTINKERPOP-329
p1690
aVTINKERPOP-328
p1691
aVTINKERPOP-327
p1692
aVTINKERPOP-326
p1693
aVTINKERPOP-325
p1694
aVTINKERPOP-324
p1695
aVTINKERPOP-323
p1696
aVTINKERPOP-322
p1697
aVTINKERPOP-321
p1698
aVTINKERPOP-320
p1699
aVTINKERPOP-319
p1700
aVTINKERPOP-318
p1701
aVTINKERPOP-317
p1702
aVTINKERPOP-316
p1703
aVTINKERPOP-315
p1704
aVTINKERPOP-314
p1705
aVTINKERPOP-313
p1706
aVTINKERPOP-312
p1707
aVTINKERPOP-311
p1708
aVTINKERPOP-310
p1709
aVTINKERPOP-309
p1710
aVTINKERPOP-308
p1711
aVTINKERPOP-307
p1712
aVTINKERPOP-306
p1713
aVTINKERPOP-305
p1714
aVTINKERPOP-304
p1715
aVTINKERPOP-303
p1716
aVTINKERPOP-302
p1717
aVTINKERPOP-301
p1718
aVTINKERPOP-300
p1719
aVTINKERPOP-299
p1720
aVTINKERPOP-298
p1721
aVTINKERPOP-297
p1722
aVTINKERPOP-296
p1723
aVTINKERPOP-295
p1724
aVTINKERPOP-294
p1725
aVTINKERPOP-293
p1726
aVTINKERPOP-292
p1727
aVTINKERPOP-291
p1728
aVTINKERPOP-290
p1729
aVTINKERPOP-289
p1730
aVTINKERPOP-288
p1731
aVTINKERPOP-287
p1732
aVTINKERPOP-286
p1733
aVTINKERPOP-285
p1734
aVTINKERPOP-284
p1735
aVTINKERPOP-283
p1736
aVTINKERPOP-282
p1737
aVTINKERPOP-281
p1738
aVTINKERPOP-280
p1739
aVTINKERPOP-279
p1740
aVTINKERPOP-278
p1741
aVTINKERPOP-277
p1742
aVTINKERPOP-276
p1743
aVTINKERPOP-275
p1744
aVTINKERPOP-274
p1745
aVTINKERPOP-273
p1746
aVTINKERPOP-272
p1747
aVTINKERPOP-271
p1748
aVTINKERPOP-270
p1749
aVTINKERPOP-269
p1750
aVTINKERPOP-268
p1751
aVTINKERPOP-267
p1752
aVTINKERPOP-266
p1753
aVTINKERPOP-265
p1754
aVTINKERPOP-264
p1755
aVTINKERPOP-263
p1756
aVTINKERPOP-262
p1757
aVTINKERPOP-261
p1758
aVTINKERPOP-260
p1759
aVTINKERPOP-259
p1760
aVTINKERPOP-258
p1761
aVTINKERPOP-257
p1762
aVTINKERPOP-256
p1763
aVTINKERPOP-255
p1764
aVTINKERPOP-254
p1765
aVTINKERPOP-253
p1766
aVTINKERPOP-252
p1767
aVTINKERPOP-251
p1768
aVTINKERPOP-250
p1769
aVTINKERPOP-249
p1770
aVTINKERPOP-248
p1771
aVTINKERPOP-247
p1772
aVTINKERPOP-246
p1773
aVTINKERPOP-245
p1774
aVTINKERPOP-244
p1775
aVTINKERPOP-243
p1776
aVTINKERPOP-242
p1777
aVTINKERPOP-241
p1778
aVTINKERPOP-240
p1779
aVTINKERPOP-239
p1780
aVTINKERPOP-238
p1781
aVTINKERPOP-237
p1782
aVTINKERPOP-236
p1783
aVTINKERPOP-235
p1784
aVTINKERPOP-234
p1785
aVTINKERPOP-233
p1786
aVTINKERPOP-232
p1787
aVTINKERPOP-231
p1788
aVTINKERPOP-230
p1789
aVTINKERPOP-229
p1790
aVTINKERPOP-228
p1791
aVTINKERPOP-227
p1792
aVTINKERPOP-226
p1793
aVTINKERPOP-225
p1794
aVTINKERPOP-224
p1795
aVTINKERPOP-223
p1796
aVTINKERPOP-222
p1797
aVTINKERPOP-221
p1798
aVTINKERPOP-220
p1799
aVTINKERPOP-219
p1800
aVTINKERPOP-218
p1801
aVTINKERPOP-217
p1802
aVTINKERPOP-216
p1803
aVTINKERPOP-215
p1804
aVTINKERPOP-214
p1805
aVTINKERPOP-213
p1806
aVTINKERPOP-212
p1807
aVTINKERPOP-211
p1808
aVTINKERPOP-210
p1809
aVTINKERPOP-209
p1810
aVTINKERPOP-208
p1811
aVTINKERPOP-207
p1812
aVTINKERPOP-206
p1813
aVTINKERPOP-205
p1814
aVTINKERPOP-204
p1815
aVTINKERPOP-203
p1816
aVTINKERPOP-202
p1817
aVTINKERPOP-201
p1818
aVTINKERPOP-200
p1819
aVTINKERPOP-199
p1820
aVTINKERPOP-198
p1821
aVTINKERPOP-197
p1822
aVTINKERPOP-196
p1823
aVTINKERPOP-195
p1824
aVTINKERPOP-194
p1825
aVTINKERPOP-193
p1826
aVTINKERPOP-192
p1827
aVTINKERPOP-191
p1828
aVTINKERPOP-190
p1829
aVTINKERPOP-189
p1830
aVTINKERPOP-188
p1831
aVTINKERPOP-187
p1832
aVTINKERPOP-186
p1833
aVTINKERPOP-185
p1834
aVTINKERPOP-184
p1835
aVTINKERPOP-183
p1836
aVTINKERPOP-182
p1837
aVTINKERPOP-181
p1838
aVTINKERPOP-180
p1839
aVTINKERPOP-179
p1840
aVTINKERPOP-178
p1841
aVTINKERPOP-177
p1842
aVTINKERPOP-176
p1843
aVTINKERPOP-175
p1844
aVTINKERPOP-174
p1845
aVTINKERPOP-173
p1846
aVTINKERPOP-172
p1847
aVTINKERPOP-171
p1848
aVTINKERPOP-170
p1849
aVTINKERPOP-169
p1850
aVTINKERPOP-168
p1851
aVTINKERPOP-167
p1852
aVTINKERPOP-166
p1853
aVTINKERPOP-165
p1854
aVTINKERPOP-164
p1855
aVTINKERPOP-163
p1856
aVTINKERPOP-162
p1857
aVTINKERPOP-161
p1858
aVTINKERPOP-160
p1859
aVTINKERPOP-159
p1860
aVTINKERPOP-158
p1861
aVTINKERPOP-157
p1862
aVTINKERPOP-156
p1863
aVTINKERPOP-155
p1864
aVTINKERPOP-154
p1865
aVTINKERPOP-153
p1866
aVTINKERPOP-152
p1867
aVTINKERPOP-151
p1868
aVTINKERPOP-150
p1869
aVTINKERPOP-149
p1870
aVTINKERPOP-148
p1871
aVTINKERPOP-147
p1872
aVTINKERPOP-146
p1873
aVTINKERPOP-145
p1874
aVTINKERPOP-144
p1875
aVTINKERPOP-143
p1876
aVTINKERPOP-142
p1877
aVTINKERPOP-141
p1878
aVTINKERPOP-140
p1879
aVTINKERPOP-139
p1880
aVTINKERPOP-138
p1881
aVTINKERPOP-137
p1882
aVTINKERPOP-136
p1883
aVTINKERPOP-135
p1884
aVTINKERPOP-134
p1885
aVTINKERPOP-133
p1886
aVTINKERPOP-132
p1887
aVTINKERPOP-131
p1888
aVTINKERPOP-130
p1889
aVTINKERPOP-129
p1890
aVTINKERPOP-128
p1891
aVTINKERPOP-127
p1892
aVTINKERPOP-126
p1893
aVTINKERPOP-125
p1894
aVTINKERPOP-124
p1895
aVTINKERPOP-123
p1896
aVTINKERPOP-122
p1897
aVTINKERPOP-121
p1898
aVTINKERPOP-120
p1899
aVTINKERPOP-119
p1900
aVTINKERPOP-118
p1901
aVTINKERPOP-117
p1902
aVTINKERPOP-116
p1903
aVTINKERPOP-115
p1904
aVTINKERPOP-114
p1905
aVTINKERPOP-113
p1906
aVTINKERPOP-112
p1907
aVTINKERPOP-111
p1908
aVTINKERPOP-110
p1909
aVTINKERPOP-109
p1910
aVTINKERPOP-108
p1911
aVTINKERPOP-107
p1912
aVTINKERPOP-106
p1913
aVTINKERPOP-105
p1914
aVTINKERPOP-104
p1915
aVTINKERPOP-103
p1916
aVTINKERPOP-102
p1917
aVTINKERPOP-101
p1918
aVTINKERPOP-100
p1919
aVTINKERPOP-99
p1920
aVTINKERPOP-98
p1921
aVTINKERPOP-97
p1922
aVTINKERPOP-96
p1923
aVTINKERPOP-95
p1924
aVTINKERPOP-94
p1925
aVTINKERPOP-93
p1926
aVTINKERPOP-92
p1927
aVTINKERPOP-91
p1928
aVTINKERPOP-90
p1929
aVTINKERPOP-89
p1930
aVTINKERPOP-88
p1931
aVTINKERPOP-87
p1932
aVTINKERPOP-86
p1933
aVTINKERPOP-85
p1934
aVTINKERPOP-84
p1935
aVTINKERPOP-83
p1936
aVTINKERPOP-82
p1937
aVTINKERPOP-81
p1938
aVTINKERPOP-80
p1939
aVTINKERPOP-79
p1940
aVTINKERPOP-78
p1941
aVTINKERPOP-77
p1942
aVTINKERPOP-76
p1943
aVTINKERPOP-75
p1944
aVTINKERPOP-74
p1945
aVTINKERPOP-73
p1946
aVTINKERPOP-72
p1947
aVTINKERPOP-71
p1948
aVTINKERPOP-70
p1949
aVTINKERPOP-69
p1950
aVTINKERPOP-68
p1951
aVTINKERPOP-67
p1952
aVTINKERPOP-66
p1953
aVTINKERPOP-65
p1954
aVTINKERPOP-64
p1955
aVTINKERPOP-63
p1956
aVTINKERPOP-62
p1957
aVTINKERPOP-61
p1958
aVTINKERPOP-60
p1959
aVTINKERPOP-59
p1960
aVTINKERPOP-58
p1961
aVTINKERPOP-57
p1962
aVTINKERPOP-56
p1963
aVTINKERPOP-55
p1964
aVTINKERPOP-54
p1965
aVTINKERPOP-53
p1966
aVTINKERPOP-52
p1967
aVTINKERPOP-51
p1968
aVTINKERPOP-50
p1969
aVTINKERPOP-49
p1970
aVTINKERPOP-48
p1971
aVTINKERPOP-47
p1972
aVTINKERPOP-46
p1973
aVTINKERPOP-45
p1974
aVTINKERPOP-44
p1975
aVTINKERPOP-43
p1976
aVTINKERPOP-42
p1977
aVTINKERPOP-41
p1978
aVTINKERPOP-40
p1979
aVTINKERPOP-39
p1980
aVTINKERPOP-38
p1981
aVTINKERPOP-37
p1982
aVTINKERPOP-36
p1983
aVTINKERPOP-35
p1984
aVTINKERPOP-34
p1985
aVTINKERPOP-33
p1986
aVTINKERPOP-32
p1987
aVTINKERPOP-31
p1988
aVTINKERPOP-30
p1989
aVTINKERPOP-29
p1990
aVTINKERPOP-28
p1991
aVTINKERPOP-27
p1992
aVTINKERPOP-26
p1993
aVTINKERPOP-25
p1994
aVTINKERPOP-24
p1995
aVTINKERPOP-23
p1996
aVTINKERPOP-22
p1997
aVTINKERPOP-21
p1998
aVTINKERPOP-20
p1999
aVTINKERPOP-19
p2000
aVTINKERPOP-18
p2001
aVTINKERPOP-17
p2002
aVTINKERPOP-16
p2003
aVTINKERPOP-15
p2004
aVTINKERPOP-14
p2005
aVTINKERPOP-13
p2006
aVTINKERPOP-12
p2007
aVTINKERPOP-11
p2008
aVTINKERPOP-10
p2009
aVTINKERPOP-9
p2010
aVTINKERPOP-8
p2011
aVTINKERPOP-7
p2012
aVTINKERPOP-6
p2013
aVTINKERPOP-5
p2014
aVTINKERPOP-4
p2015
aVTINKERPOP-3
p2016
aVTINKERPOP-2
p2017
aVTINKERPOP-1
p2018
a.