(lp0
VTOBAGO-1911
p1
aVTOBAGO-1910
p2
aVTOBAGO-1909
p3
aVTOBAGO-1908
p4
aVTOBAGO-1907
p5
aVTOBAGO-1906
p6
aVTOBAGO-1905
p7
aVTOBAGO-1904
p8
aVTOBAGO-1903
p9
aVTOBAGO-1902
p10
aVTOBAGO-1901
p11
aVTOBAGO-1900
p12
aVTOBAGO-1899
p13
aVTOBAGO-1898
p14
aVTOBAGO-1897
p15
aVTOBAGO-1896
p16
aVTOBAGO-1895
p17
aVTOBAGO-1894
p18
aVTOBAGO-1893
p19
aVTOBAGO-1892
p20
aVTOBAGO-1891
p21
aVTOBAGO-1890
p22
aVTOBAGO-1889
p23
aVTOBAGO-1888
p24
aVTOBAGO-1887
p25
aVTOBAGO-1886
p26
aVTOBAGO-1885
p27
aVTOBAGO-1884
p28
aVTOBAGO-1883
p29
aVTOBAGO-1882
p30
aVTOBAGO-1881
p31
aVTOBAGO-1880
p32
aVTOBAGO-1879
p33
aVTOBAGO-1878
p34
aVTOBAGO-1877
p35
aVTOBAGO-1876
p36
aVTOBAGO-1875
p37
aVTOBAGO-1874
p38
aVTOBAGO-1873
p39
aVTOBAGO-1872
p40
aVTOBAGO-1871
p41
aVTOBAGO-1870
p42
aVTOBAGO-1869
p43
aVTOBAGO-1868
p44
aVTOBAGO-1867
p45
aVTOBAGO-1866
p46
aVTOBAGO-1865
p47
aVTOBAGO-1864
p48
aVTOBAGO-1863
p49
aVTOBAGO-1862
p50
aVTOBAGO-1861
p51
aVTOBAGO-1860
p52
aVTOBAGO-1859
p53
aVTOBAGO-1858
p54
aVTOBAGO-1857
p55
aVTOBAGO-1856
p56
aVTOBAGO-1855
p57
aVTOBAGO-1854
p58
aVTOBAGO-1853
p59
aVTOBAGO-1852
p60
aVTOBAGO-1851
p61
aVTOBAGO-1850
p62
aVTOBAGO-1849
p63
aVTOBAGO-1848
p64
aVTOBAGO-1847
p65
aVTOBAGO-1846
p66
aVTOBAGO-1845
p67
aVTOBAGO-1844
p68
aVTOBAGO-1843
p69
aVTOBAGO-1842
p70
aVTOBAGO-1841
p71
aVTOBAGO-1840
p72
aVTOBAGO-1839
p73
aVTOBAGO-1838
p74
aVTOBAGO-1837
p75
aVTOBAGO-1836
p76
aVTOBAGO-1835
p77
aVTOBAGO-1834
p78
aVTOBAGO-1833
p79
aVTOBAGO-1832
p80
aVTOBAGO-1831
p81
aVTOBAGO-1830
p82
aVTOBAGO-1829
p83
aVTOBAGO-1828
p84
aVTOBAGO-1827
p85
aVTOBAGO-1826
p86
aVTOBAGO-1825
p87
aVTOBAGO-1824
p88
aVTOBAGO-1823
p89
aVTOBAGO-1822
p90
aVTOBAGO-1821
p91
aVTOBAGO-1820
p92
aVTOBAGO-1819
p93
aVTOBAGO-1818
p94
aVTOBAGO-1817
p95
aVTOBAGO-1816
p96
aVTOBAGO-1815
p97
aVTOBAGO-1814
p98
aVTOBAGO-1813
p99
aVTOBAGO-1812
p100
aVTOBAGO-1811
p101
aVTOBAGO-1810
p102
aVTOBAGO-1809
p103
aVTOBAGO-1808
p104
aVTOBAGO-1807
p105
aVTOBAGO-1806
p106
aVTOBAGO-1805
p107
aVTOBAGO-1804
p108
aVTOBAGO-1803
p109
aVTOBAGO-1802
p110
aVTOBAGO-1801
p111
aVTOBAGO-1800
p112
aVTOBAGO-1799
p113
aVTOBAGO-1798
p114
aVTOBAGO-1797
p115
aVTOBAGO-1796
p116
aVTOBAGO-1795
p117
aVTOBAGO-1794
p118
aVTOBAGO-1793
p119
aVTOBAGO-1792
p120
aVTOBAGO-1791
p121
aVTOBAGO-1790
p122
aVTOBAGO-1789
p123
aVTOBAGO-1788
p124
aVTOBAGO-1787
p125
aVTOBAGO-1786
p126
aVTOBAGO-1785
p127
aVTOBAGO-1784
p128
aVTOBAGO-1783
p129
aVTOBAGO-1782
p130
aVTOBAGO-1781
p131
aVTOBAGO-1780
p132
aVTOBAGO-1779
p133
aVTOBAGO-1778
p134
aVTOBAGO-1777
p135
aVTOBAGO-1776
p136
aVTOBAGO-1775
p137
aVTOBAGO-1774
p138
aVTOBAGO-1773
p139
aVTOBAGO-1772
p140
aVTOBAGO-1771
p141
aVTOBAGO-1770
p142
aVTOBAGO-1769
p143
aVTOBAGO-1768
p144
aVTOBAGO-1767
p145
aVTOBAGO-1766
p146
aVTOBAGO-1765
p147
aVTOBAGO-1764
p148
aVTOBAGO-1763
p149
aVTOBAGO-1762
p150
aVTOBAGO-1761
p151
aVTOBAGO-1760
p152
aVTOBAGO-1759
p153
aVTOBAGO-1758
p154
aVTOBAGO-1757
p155
aVTOBAGO-1756
p156
aVTOBAGO-1755
p157
aVTOBAGO-1754
p158
aVTOBAGO-1753
p159
aVTOBAGO-1752
p160
aVTOBAGO-1751
p161
aVTOBAGO-1750
p162
aVTOBAGO-1749
p163
aVTOBAGO-1748
p164
aVTOBAGO-1747
p165
aVTOBAGO-1746
p166
aVTOBAGO-1745
p167
aVTOBAGO-1744
p168
aVTOBAGO-1743
p169
aVTOBAGO-1742
p170
aVTOBAGO-1741
p171
aVTOBAGO-1740
p172
aVTOBAGO-1739
p173
aVTOBAGO-1738
p174
aVTOBAGO-1737
p175
aVTOBAGO-1736
p176
aVTOBAGO-1735
p177
aVTOBAGO-1734
p178
aVTOBAGO-1733
p179
aVTOBAGO-1732
p180
aVTOBAGO-1731
p181
aVTOBAGO-1730
p182
aVTOBAGO-1729
p183
aVTOBAGO-1728
p184
aVTOBAGO-1727
p185
aVTOBAGO-1726
p186
aVTOBAGO-1725
p187
aVTOBAGO-1724
p188
aVTOBAGO-1723
p189
aVTOBAGO-1722
p190
aVTOBAGO-1721
p191
aVTOBAGO-1720
p192
aVTOBAGO-1719
p193
aVTOBAGO-1718
p194
aVTOBAGO-1717
p195
aVTOBAGO-1716
p196
aVTOBAGO-1715
p197
aVTOBAGO-1714
p198
aVTOBAGO-1713
p199
aVTOBAGO-1712
p200
aVTOBAGO-1711
p201
aVTOBAGO-1710
p202
aVTOBAGO-1709
p203
aVTOBAGO-1708
p204
aVTOBAGO-1707
p205
aVTOBAGO-1706
p206
aVTOBAGO-1705
p207
aVTOBAGO-1704
p208
aVTOBAGO-1703
p209
aVTOBAGO-1702
p210
aVTOBAGO-1701
p211
aVTOBAGO-1700
p212
aVTOBAGO-1699
p213
aVTOBAGO-1698
p214
aVTOBAGO-1697
p215
aVTOBAGO-1696
p216
aVTOBAGO-1695
p217
aVTOBAGO-1694
p218
aVTOBAGO-1693
p219
aVTOBAGO-1692
p220
aVTOBAGO-1691
p221
aVTOBAGO-1690
p222
aVTOBAGO-1689
p223
aVTOBAGO-1688
p224
aVTOBAGO-1687
p225
aVTOBAGO-1686
p226
aVTOBAGO-1685
p227
aVTOBAGO-1684
p228
aVTOBAGO-1683
p229
aVTOBAGO-1682
p230
aVTOBAGO-1681
p231
aVTOBAGO-1680
p232
aVTOBAGO-1679
p233
aVTOBAGO-1678
p234
aVTOBAGO-1677
p235
aVTOBAGO-1676
p236
aVTOBAGO-1675
p237
aVTOBAGO-1674
p238
aVTOBAGO-1673
p239
aVTOBAGO-1672
p240
aVTOBAGO-1671
p241
aVTOBAGO-1670
p242
aVTOBAGO-1669
p243
aVTOBAGO-1668
p244
aVTOBAGO-1667
p245
aVTOBAGO-1666
p246
aVTOBAGO-1665
p247
aVTOBAGO-1664
p248
aVTOBAGO-1663
p249
aVTOBAGO-1662
p250
aVTOBAGO-1661
p251
aVTOBAGO-1660
p252
aVTOBAGO-1659
p253
aVTOBAGO-1658
p254
aVTOBAGO-1657
p255
aVTOBAGO-1656
p256
aVTOBAGO-1655
p257
aVTOBAGO-1654
p258
aVTOBAGO-1653
p259
aVTOBAGO-1652
p260
aVTOBAGO-1651
p261
aVTOBAGO-1650
p262
aVTOBAGO-1649
p263
aVTOBAGO-1648
p264
aVTOBAGO-1647
p265
aVTOBAGO-1646
p266
aVTOBAGO-1645
p267
aVTOBAGO-1644
p268
aVTOBAGO-1643
p269
aVTOBAGO-1642
p270
aVTOBAGO-1641
p271
aVTOBAGO-1640
p272
aVTOBAGO-1639
p273
aVTOBAGO-1638
p274
aVTOBAGO-1637
p275
aVTOBAGO-1636
p276
aVTOBAGO-1635
p277
aVTOBAGO-1634
p278
aVTOBAGO-1633
p279
aVTOBAGO-1632
p280
aVTOBAGO-1631
p281
aVTOBAGO-1630
p282
aVTOBAGO-1629
p283
aVTOBAGO-1628
p284
aVTOBAGO-1627
p285
aVTOBAGO-1626
p286
aVTOBAGO-1625
p287
aVTOBAGO-1624
p288
aVTOBAGO-1623
p289
aVTOBAGO-1622
p290
aVTOBAGO-1621
p291
aVTOBAGO-1620
p292
aVTOBAGO-1619
p293
aVTOBAGO-1618
p294
aVTOBAGO-1617
p295
aVTOBAGO-1616
p296
aVTOBAGO-1615
p297
aVTOBAGO-1614
p298
aVTOBAGO-1613
p299
aVTOBAGO-1612
p300
aVTOBAGO-1611
p301
aVTOBAGO-1610
p302
aVTOBAGO-1609
p303
aVTOBAGO-1608
p304
aVTOBAGO-1607
p305
aVTOBAGO-1606
p306
aVTOBAGO-1605
p307
aVTOBAGO-1604
p308
aVTOBAGO-1602
p309
aVTOBAGO-1601
p310
aVTOBAGO-1600
p311
aVTOBAGO-1599
p312
aVTOBAGO-1598
p313
aVTOBAGO-1597
p314
aVTOBAGO-1596
p315
aVTOBAGO-1595
p316
aVTOBAGO-1594
p317
aVTOBAGO-1593
p318
aVTOBAGO-1592
p319
aVTOBAGO-1591
p320
aVTOBAGO-1590
p321
aVTOBAGO-1589
p322
aVTOBAGO-1588
p323
aVTOBAGO-1587
p324
aVTOBAGO-1586
p325
aVTOBAGO-1585
p326
aVTOBAGO-1584
p327
aVTOBAGO-1583
p328
aVTOBAGO-1582
p329
aVTOBAGO-1581
p330
aVTOBAGO-1580
p331
aVTOBAGO-1579
p332
aVTOBAGO-1578
p333
aVTOBAGO-1577
p334
aVTOBAGO-1576
p335
aVTOBAGO-1575
p336
aVTOBAGO-1574
p337
aVTOBAGO-1573
p338
aVTOBAGO-1572
p339
aVTOBAGO-1571
p340
aVTOBAGO-1570
p341
aVTOBAGO-1569
p342
aVTOBAGO-1568
p343
aVTOBAGO-1567
p344
aVTOBAGO-1566
p345
aVTOBAGO-1565
p346
aVTOBAGO-1564
p347
aVTOBAGO-1563
p348
aVTOBAGO-1562
p349
aVTOBAGO-1561
p350
aVTOBAGO-1560
p351
aVTOBAGO-1559
p352
aVTOBAGO-1558
p353
aVTOBAGO-1557
p354
aVTOBAGO-1556
p355
aVTOBAGO-1555
p356
aVTOBAGO-1554
p357
aVTOBAGO-1553
p358
aVTOBAGO-1552
p359
aVTOBAGO-1551
p360
aVTOBAGO-1550
p361
aVTOBAGO-1549
p362
aVTOBAGO-1548
p363
aVTOBAGO-1547
p364
aVTOBAGO-1546
p365
aVTOBAGO-1545
p366
aVTOBAGO-1544
p367
aVTOBAGO-1543
p368
aVTOBAGO-1542
p369
aVTOBAGO-1541
p370
aVTOBAGO-1540
p371
aVTOBAGO-1539
p372
aVTOBAGO-1538
p373
aVTOBAGO-1537
p374
aVTOBAGO-1536
p375
aVTOBAGO-1535
p376
aVTOBAGO-1534
p377
aVTOBAGO-1533
p378
aVTOBAGO-1532
p379
aVTOBAGO-1531
p380
aVTOBAGO-1530
p381
aVTOBAGO-1529
p382
aVTOBAGO-1528
p383
aVTOBAGO-1527
p384
aVTOBAGO-1526
p385
aVTOBAGO-1525
p386
aVTOBAGO-1524
p387
aVTOBAGO-1523
p388
aVTOBAGO-1522
p389
aVTOBAGO-1521
p390
aVTOBAGO-1520
p391
aVTOBAGO-1519
p392
aVTOBAGO-1518
p393
aVTOBAGO-1517
p394
aVTOBAGO-1516
p395
aVTOBAGO-1515
p396
aVTOBAGO-1514
p397
aVTOBAGO-1513
p398
aVTOBAGO-1512
p399
aVTOBAGO-1511
p400
aVTOBAGO-1510
p401
aVTOBAGO-1509
p402
aVTOBAGO-1508
p403
aVTOBAGO-1507
p404
aVTOBAGO-1506
p405
aVTOBAGO-1505
p406
aVTOBAGO-1504
p407
aVTOBAGO-1503
p408
aVTOBAGO-1502
p409
aVTOBAGO-1501
p410
aVTOBAGO-1500
p411
aVTOBAGO-1499
p412
aVTOBAGO-1498
p413
aVTOBAGO-1497
p414
aVTOBAGO-1496
p415
aVTOBAGO-1495
p416
aVTOBAGO-1494
p417
aVTOBAGO-1493
p418
aVTOBAGO-1492
p419
aVTOBAGO-1491
p420
aVTOBAGO-1490
p421
aVTOBAGO-1489
p422
aVTOBAGO-1488
p423
aVTOBAGO-1487
p424
aVTOBAGO-1486
p425
aVTOBAGO-1485
p426
aVTOBAGO-1484
p427
aVTOBAGO-1483
p428
aVTOBAGO-1482
p429
aVTOBAGO-1481
p430
aVTOBAGO-1480
p431
aVTOBAGO-1479
p432
aVTOBAGO-1478
p433
aVTOBAGO-1477
p434
aVTOBAGO-1476
p435
aVTOBAGO-1475
p436
aVTOBAGO-1474
p437
aVTOBAGO-1473
p438
aVTOBAGO-1472
p439
aVTOBAGO-1471
p440
aVTOBAGO-1470
p441
aVTOBAGO-1469
p442
aVTOBAGO-1468
p443
aVTOBAGO-1467
p444
aVTOBAGO-1466
p445
aVTOBAGO-1465
p446
aVTOBAGO-1464
p447
aVTOBAGO-1463
p448
aVTOBAGO-1462
p449
aVTOBAGO-1461
p450
aVTOBAGO-1460
p451
aVTOBAGO-1459
p452
aVTOBAGO-1458
p453
aVTOBAGO-1457
p454
aVTOBAGO-1456
p455
aVTOBAGO-1455
p456
aVTOBAGO-1454
p457
aVTOBAGO-1453
p458
aVTOBAGO-1452
p459
aVTOBAGO-1451
p460
aVTOBAGO-1450
p461
aVTOBAGO-1449
p462
aVTOBAGO-1448
p463
aVTOBAGO-1447
p464
aVTOBAGO-1446
p465
aVTOBAGO-1445
p466
aVTOBAGO-1444
p467
aVTOBAGO-1443
p468
aVTOBAGO-1442
p469
aVTOBAGO-1441
p470
aVTOBAGO-1440
p471
aVTOBAGO-1439
p472
aVTOBAGO-1438
p473
aVTOBAGO-1437
p474
aVTOBAGO-1436
p475
aVTOBAGO-1435
p476
aVTOBAGO-1434
p477
aVTOBAGO-1433
p478
aVTOBAGO-1432
p479
aVTOBAGO-1431
p480
aVTOBAGO-1430
p481
aVTOBAGO-1429
p482
aVTOBAGO-1428
p483
aVTOBAGO-1427
p484
aVTOBAGO-1426
p485
aVTOBAGO-1425
p486
aVTOBAGO-1424
p487
aVTOBAGO-1423
p488
aVTOBAGO-1422
p489
aVTOBAGO-1421
p490
aVTOBAGO-1420
p491
aVTOBAGO-1419
p492
aVTOBAGO-1418
p493
aVTOBAGO-1417
p494
aVTOBAGO-1416
p495
aVTOBAGO-1415
p496
aVTOBAGO-1414
p497
aVTOBAGO-1413
p498
aVTOBAGO-1412
p499
aVTOBAGO-1411
p500
aVTOBAGO-1410
p501
aVTOBAGO-1409
p502
aVTOBAGO-1408
p503
aVTOBAGO-1407
p504
aVTOBAGO-1406
p505
aVTOBAGO-1405
p506
aVTOBAGO-1404
p507
aVTOBAGO-1403
p508
aVTOBAGO-1402
p509
aVTOBAGO-1401
p510
aVTOBAGO-1400
p511
aVTOBAGO-1399
p512
aVTOBAGO-1398
p513
aVTOBAGO-1397
p514
aVTOBAGO-1396
p515
aVTOBAGO-1395
p516
aVTOBAGO-1394
p517
aVTOBAGO-1393
p518
aVTOBAGO-1392
p519
aVTOBAGO-1391
p520
aVTOBAGO-1390
p521
aVTOBAGO-1389
p522
aVTOBAGO-1388
p523
aVTOBAGO-1387
p524
aVTOBAGO-1386
p525
aVTOBAGO-1385
p526
aVTOBAGO-1384
p527
aVTOBAGO-1383
p528
aVTOBAGO-1382
p529
aVTOBAGO-1381
p530
aVTOBAGO-1380
p531
aVTOBAGO-1379
p532
aVTOBAGO-1378
p533
aVTOBAGO-1377
p534
aVTOBAGO-1376
p535
aVTOBAGO-1375
p536
aVTOBAGO-1374
p537
aVTOBAGO-1373
p538
aVTOBAGO-1372
p539
aVTOBAGO-1371
p540
aVTOBAGO-1370
p541
aVTOBAGO-1369
p542
aVTOBAGO-1368
p543
aVTOBAGO-1367
p544
aVTOBAGO-1366
p545
aVTOBAGO-1365
p546
aVTOBAGO-1364
p547
aVTOBAGO-1363
p548
aVTOBAGO-1362
p549
aVTOBAGO-1361
p550
aVTOBAGO-1360
p551
aVTOBAGO-1359
p552
aVTOBAGO-1358
p553
aVTOBAGO-1357
p554
aVTOBAGO-1356
p555
aVTOBAGO-1355
p556
aVTOBAGO-1354
p557
aVTOBAGO-1353
p558
aVTOBAGO-1352
p559
aVTOBAGO-1351
p560
aVTOBAGO-1350
p561
aVTOBAGO-1349
p562
aVTOBAGO-1348
p563
aVTOBAGO-1347
p564
aVTOBAGO-1346
p565
aVTOBAGO-1345
p566
aVTOBAGO-1344
p567
aVTOBAGO-1343
p568
aVTOBAGO-1342
p569
aVTOBAGO-1341
p570
aVTOBAGO-1340
p571
aVTOBAGO-1339
p572
aVTOBAGO-1338
p573
aVTOBAGO-1337
p574
aVTOBAGO-1336
p575
aVTOBAGO-1335
p576
aVTOBAGO-1334
p577
aVTOBAGO-1333
p578
aVTOBAGO-1332
p579
aVTOBAGO-1331
p580
aVTOBAGO-1330
p581
aVTOBAGO-1329
p582
aVTOBAGO-1328
p583
aVTOBAGO-1327
p584
aVTOBAGO-1326
p585
aVTOBAGO-1325
p586
aVTOBAGO-1324
p587
aVTOBAGO-1323
p588
aVTOBAGO-1322
p589
aVTOBAGO-1321
p590
aVTOBAGO-1320
p591
aVTOBAGO-1319
p592
aVTOBAGO-1318
p593
aVTOBAGO-1317
p594
aVTOBAGO-1316
p595
aVTOBAGO-1315
p596
aVTOBAGO-1314
p597
aVTOBAGO-1313
p598
aVTOBAGO-1312
p599
aVTOBAGO-1311
p600
aVTOBAGO-1310
p601
aVTOBAGO-1309
p602
aVTOBAGO-1308
p603
aVTOBAGO-1307
p604
aVTOBAGO-1306
p605
aVTOBAGO-1305
p606
aVTOBAGO-1304
p607
aVTOBAGO-1303
p608
aVTOBAGO-1302
p609
aVTOBAGO-1301
p610
aVTOBAGO-1300
p611
aVTOBAGO-1299
p612
aVTOBAGO-1298
p613
aVTOBAGO-1297
p614
aVTOBAGO-1296
p615
aVTOBAGO-1295
p616
aVTOBAGO-1294
p617
aVTOBAGO-1293
p618
aVTOBAGO-1292
p619
aVTOBAGO-1291
p620
aVTOBAGO-1290
p621
aVTOBAGO-1289
p622
aVTOBAGO-1288
p623
aVTOBAGO-1287
p624
aVTOBAGO-1286
p625
aVTOBAGO-1285
p626
aVTOBAGO-1284
p627
aVTOBAGO-1283
p628
aVTOBAGO-1282
p629
aVTOBAGO-1281
p630
aVTOBAGO-1280
p631
aVTOBAGO-1279
p632
aVTOBAGO-1278
p633
aVTOBAGO-1277
p634
aVTOBAGO-1276
p635
aVTOBAGO-1275
p636
aVTOBAGO-1274
p637
aVTOBAGO-1273
p638
aVTOBAGO-1272
p639
aVTOBAGO-1271
p640
aVTOBAGO-1270
p641
aVTOBAGO-1269
p642
aVTOBAGO-1268
p643
aVTOBAGO-1267
p644
aVTOBAGO-1266
p645
aVTOBAGO-1265
p646
aVTOBAGO-1264
p647
aVTOBAGO-1263
p648
aVTOBAGO-1262
p649
aVTOBAGO-1261
p650
aVTOBAGO-1260
p651
aVTOBAGO-1259
p652
aVTOBAGO-1258
p653
aVTOBAGO-1257
p654
aVTOBAGO-1256
p655
aVTOBAGO-1255
p656
aVTOBAGO-1254
p657
aVTOBAGO-1253
p658
aVTOBAGO-1252
p659
aVTOBAGO-1251
p660
aVTOBAGO-1250
p661
aVTOBAGO-1249
p662
aVTOBAGO-1248
p663
aVTOBAGO-1247
p664
aVTOBAGO-1246
p665
aVTOBAGO-1245
p666
aVTOBAGO-1244
p667
aVTOBAGO-1243
p668
aVTOBAGO-1242
p669
aVTOBAGO-1241
p670
aVTOBAGO-1240
p671
aVTOBAGO-1239
p672
aVTOBAGO-1238
p673
aVTOBAGO-1237
p674
aVTOBAGO-1236
p675
aVTOBAGO-1235
p676
aVTOBAGO-1234
p677
aVTOBAGO-1233
p678
aVTOBAGO-1232
p679
aVTOBAGO-1231
p680
aVTOBAGO-1230
p681
aVTOBAGO-1229
p682
aVTOBAGO-1228
p683
aVTOBAGO-1227
p684
aVTOBAGO-1226
p685
aVTOBAGO-1225
p686
aVTOBAGO-1224
p687
aVTOBAGO-1223
p688
aVTOBAGO-1222
p689
aVTOBAGO-1221
p690
aVTOBAGO-1220
p691
aVTOBAGO-1219
p692
aVTOBAGO-1218
p693
aVTOBAGO-1217
p694
aVTOBAGO-1216
p695
aVTOBAGO-1215
p696
aVTOBAGO-1214
p697
aVTOBAGO-1213
p698
aVTOBAGO-1212
p699
aVTOBAGO-1211
p700
aVTOBAGO-1210
p701
aVTOBAGO-1207
p702
aVTOBAGO-1206
p703
aVTOBAGO-1205
p704
aVTOBAGO-1204
p705
aVTOBAGO-1203
p706
aVTOBAGO-1202
p707
aVTOBAGO-1201
p708
aVTOBAGO-1200
p709
aVTOBAGO-1199
p710
aVTOBAGO-1198
p711
aVTOBAGO-1197
p712
aVTOBAGO-1196
p713
aVTOBAGO-1195
p714
aVTOBAGO-1194
p715
aVTOBAGO-1193
p716
aVTOBAGO-1192
p717
aVTOBAGO-1191
p718
aVTOBAGO-1190
p719
aVTOBAGO-1189
p720
aVTOBAGO-1188
p721
aVTOBAGO-1187
p722
aVTOBAGO-1186
p723
aVTOBAGO-1185
p724
aVTOBAGO-1184
p725
aVTOBAGO-1183
p726
aVTOBAGO-1182
p727
aVTOBAGO-1181
p728
aVTOBAGO-1180
p729
aVTOBAGO-1179
p730
aVTOBAGO-1178
p731
aVTOBAGO-1177
p732
aVTOBAGO-1176
p733
aVTOBAGO-1175
p734
aVTOBAGO-1174
p735
aVTOBAGO-1173
p736
aVTOBAGO-1172
p737
aVTOBAGO-1171
p738
aVTOBAGO-1170
p739
aVTOBAGO-1169
p740
aVTOBAGO-1168
p741
aVTOBAGO-1167
p742
aVTOBAGO-1166
p743
aVTOBAGO-1165
p744
aVTOBAGO-1164
p745
aVTOBAGO-1163
p746
aVTOBAGO-1162
p747
aVTOBAGO-1161
p748
aVTOBAGO-1160
p749
aVTOBAGO-1159
p750
aVTOBAGO-1158
p751
aVTOBAGO-1157
p752
aVTOBAGO-1156
p753
aVTOBAGO-1155
p754
aVTOBAGO-1154
p755
aVTOBAGO-1153
p756
aVTOBAGO-1152
p757
aVTOBAGO-1151
p758
aVTOBAGO-1150
p759
aVTOBAGO-1149
p760
aVTOBAGO-1148
p761
aVTOBAGO-1147
p762
aVTOBAGO-1146
p763
aVTOBAGO-1145
p764
aVTOBAGO-1144
p765
aVTOBAGO-1143
p766
aVTOBAGO-1142
p767
aVTOBAGO-1141
p768
aVTOBAGO-1140
p769
aVTOBAGO-1139
p770
aVTOBAGO-1138
p771
aVTOBAGO-1137
p772
aVTOBAGO-1136
p773
aVTOBAGO-1135
p774
aVTOBAGO-1134
p775
aVTOBAGO-1133
p776
aVTOBAGO-1132
p777
aVTOBAGO-1126
p778
aVTOBAGO-1125
p779
aVTOBAGO-1124
p780
aVTOBAGO-1123
p781
aVTOBAGO-1122
p782
aVTOBAGO-1121
p783
aVTOBAGO-1120
p784
aVTOBAGO-1119
p785
aVTOBAGO-1118
p786
aVTOBAGO-1117
p787
aVTOBAGO-1116
p788
aVTOBAGO-1115
p789
aVTOBAGO-1114
p790
aVTOBAGO-1113
p791
aVTOBAGO-1112
p792
aVTOBAGO-1111
p793
aVTOBAGO-1110
p794
aVTOBAGO-1109
p795
aVTOBAGO-1108
p796
aVTOBAGO-1107
p797
aVTOBAGO-1106
p798
aVTOBAGO-1105
p799
aVTOBAGO-1104
p800
aVTOBAGO-1103
p801
aVTOBAGO-1102
p802
aVTOBAGO-1101
p803
aVTOBAGO-1100
p804
aVTOBAGO-1099
p805
aVTOBAGO-1098
p806
aVTOBAGO-1097
p807
aVTOBAGO-1096
p808
aVTOBAGO-1095
p809
aVTOBAGO-1094
p810
aVTOBAGO-1093
p811
aVTOBAGO-1092
p812
aVTOBAGO-1091
p813
aVTOBAGO-1090
p814
aVTOBAGO-1089
p815
aVTOBAGO-1088
p816
aVTOBAGO-1087
p817
aVTOBAGO-1086
p818
aVTOBAGO-1085
p819
aVTOBAGO-1084
p820
aVTOBAGO-1083
p821
aVTOBAGO-1082
p822
aVTOBAGO-1081
p823
aVTOBAGO-1080
p824
aVTOBAGO-1079
p825
aVTOBAGO-1078
p826
aVTOBAGO-1077
p827
aVTOBAGO-1076
p828
aVTOBAGO-1075
p829
aVTOBAGO-1074
p830
aVTOBAGO-1073
p831
aVTOBAGO-1072
p832
aVTOBAGO-1071
p833
aVTOBAGO-1070
p834
aVTOBAGO-1069
p835
aVTOBAGO-1068
p836
aVTOBAGO-1067
p837
aVTOBAGO-1066
p838
aVTOBAGO-1065
p839
aVTOBAGO-1064
p840
aVTOBAGO-1063
p841
aVTOBAGO-1062
p842
aVTOBAGO-1061
p843
aVTOBAGO-1060
p844
aVTOBAGO-1059
p845
aVTOBAGO-1058
p846
aVTOBAGO-1057
p847
aVTOBAGO-1056
p848
aVTOBAGO-1055
p849
aVTOBAGO-1054
p850
aVTOBAGO-1053
p851
aVTOBAGO-1052
p852
aVTOBAGO-1051
p853
aVTOBAGO-1050
p854
aVTOBAGO-1049
p855
aVTOBAGO-1048
p856
aVTOBAGO-1047
p857
aVTOBAGO-1046
p858
aVTOBAGO-1045
p859
aVTOBAGO-1044
p860
aVTOBAGO-1043
p861
aVTOBAGO-1042
p862
aVTOBAGO-1041
p863
aVTOBAGO-1040
p864
aVTOBAGO-1039
p865
aVTOBAGO-1038
p866
aVTOBAGO-1037
p867
aVTOBAGO-1036
p868
aVTOBAGO-1035
p869
aVTOBAGO-1034
p870
aVTOBAGO-1033
p871
aVTOBAGO-1032
p872
aVTOBAGO-1031
p873
aVTOBAGO-1030
p874
aVTOBAGO-1029
p875
aVTOBAGO-1028
p876
aVTOBAGO-1027
p877
aVTOBAGO-1026
p878
aVTOBAGO-1025
p879
aVTOBAGO-1024
p880
aVTOBAGO-1023
p881
aVTOBAGO-1022
p882
aVTOBAGO-1021
p883
aVTOBAGO-1020
p884
aVTOBAGO-1019
p885
aVTOBAGO-1018
p886
aVTOBAGO-1017
p887
aVTOBAGO-1016
p888
aVTOBAGO-1015
p889
aVTOBAGO-1014
p890
aVTOBAGO-1013
p891
aVTOBAGO-1012
p892
aVTOBAGO-1011
p893
aVTOBAGO-1010
p894
aVTOBAGO-1009
p895
aVTOBAGO-1008
p896
aVTOBAGO-1007
p897
aVTOBAGO-1006
p898
aVTOBAGO-1005
p899
aVTOBAGO-1004
p900
aVTOBAGO-1003
p901
aVTOBAGO-1002
p902
aVTOBAGO-1001
p903
aVTOBAGO-1000
p904
aVTOBAGO-999
p905
aVTOBAGO-998
p906
aVTOBAGO-997
p907
aVTOBAGO-996
p908
aVTOBAGO-995
p909
aVTOBAGO-994
p910
aVTOBAGO-993
p911
aVTOBAGO-992
p912
aVTOBAGO-991
p913
aVTOBAGO-990
p914
aVTOBAGO-989
p915
aVTOBAGO-988
p916
aVTOBAGO-987
p917
aVTOBAGO-986
p918
aVTOBAGO-985
p919
aVTOBAGO-984
p920
aVTOBAGO-983
p921
aVTOBAGO-982
p922
aVTOBAGO-981
p923
aVTOBAGO-980
p924
aVTOBAGO-979
p925
aVTOBAGO-978
p926
aVTOBAGO-977
p927
aVTOBAGO-976
p928
aVTOBAGO-975
p929
aVTOBAGO-974
p930
aVTOBAGO-973
p931
aVTOBAGO-972
p932
aVTOBAGO-971
p933
aVTOBAGO-970
p934
aVTOBAGO-969
p935
aVTOBAGO-968
p936
aVTOBAGO-967
p937
aVTOBAGO-966
p938
aVTOBAGO-965
p939
aVTOBAGO-964
p940
aVTOBAGO-963
p941
aVTOBAGO-962
p942
aVTOBAGO-961
p943
aVTOBAGO-960
p944
aVTOBAGO-959
p945
aVTOBAGO-958
p946
aVTOBAGO-957
p947
aVTOBAGO-956
p948
aVTOBAGO-955
p949
aVTOBAGO-954
p950
aVTOBAGO-953
p951
aVTOBAGO-952
p952
aVTOBAGO-951
p953
aVTOBAGO-950
p954
aVTOBAGO-949
p955
aVTOBAGO-948
p956
aVTOBAGO-947
p957
aVTOBAGO-946
p958
aVTOBAGO-945
p959
aVTOBAGO-944
p960
aVTOBAGO-943
p961
aVTOBAGO-942
p962
aVTOBAGO-941
p963
aVTOBAGO-940
p964
aVTOBAGO-939
p965
aVTOBAGO-938
p966
aVTOBAGO-937
p967
aVTOBAGO-936
p968
aVTOBAGO-935
p969
aVTOBAGO-934
p970
aVTOBAGO-933
p971
aVTOBAGO-932
p972
aVTOBAGO-931
p973
aVTOBAGO-930
p974
aVTOBAGO-929
p975
aVTOBAGO-928
p976
aVTOBAGO-927
p977
aVTOBAGO-926
p978
aVTOBAGO-925
p979
aVTOBAGO-924
p980
aVTOBAGO-923
p981
aVTOBAGO-922
p982
aVTOBAGO-921
p983
aVTOBAGO-920
p984
aVTOBAGO-919
p985
aVTOBAGO-918
p986
aVTOBAGO-917
p987
aVTOBAGO-916
p988
aVTOBAGO-915
p989
aVTOBAGO-914
p990
aVTOBAGO-913
p991
aVTOBAGO-912
p992
aVTOBAGO-911
p993
aVTOBAGO-910
p994
aVTOBAGO-909
p995
aVTOBAGO-908
p996
aVTOBAGO-907
p997
aVTOBAGO-906
p998
aVTOBAGO-905
p999
aVTOBAGO-904
p1000
aVTOBAGO-903
p1001
aVTOBAGO-902
p1002
aVTOBAGO-901
p1003
aVTOBAGO-900
p1004
aVTOBAGO-899
p1005
aVTOBAGO-898
p1006
aVTOBAGO-897
p1007
aVTOBAGO-896
p1008
aVTOBAGO-895
p1009
aVTOBAGO-894
p1010
aVTOBAGO-893
p1011
aVTOBAGO-892
p1012
aVTOBAGO-891
p1013
aVTOBAGO-890
p1014
aVTOBAGO-889
p1015
aVTOBAGO-888
p1016
aVTOBAGO-887
p1017
aVTOBAGO-886
p1018
aVTOBAGO-885
p1019
aVTOBAGO-884
p1020
aVTOBAGO-883
p1021
aVTOBAGO-882
p1022
aVTOBAGO-881
p1023
aVTOBAGO-880
p1024
aVTOBAGO-879
p1025
aVTOBAGO-878
p1026
aVTOBAGO-877
p1027
aVTOBAGO-876
p1028
aVTOBAGO-875
p1029
aVTOBAGO-874
p1030
aVTOBAGO-873
p1031
aVTOBAGO-872
p1032
aVTOBAGO-871
p1033
aVTOBAGO-870
p1034
aVTOBAGO-869
p1035
aVTOBAGO-868
p1036
aVTOBAGO-867
p1037
aVTOBAGO-866
p1038
aVTOBAGO-865
p1039
aVTOBAGO-864
p1040
aVTOBAGO-863
p1041
aVTOBAGO-862
p1042
aVTOBAGO-861
p1043
aVTOBAGO-860
p1044
aVTOBAGO-859
p1045
aVTOBAGO-858
p1046
aVTOBAGO-857
p1047
aVTOBAGO-856
p1048
aVTOBAGO-855
p1049
aVTOBAGO-854
p1050
aVTOBAGO-853
p1051
aVTOBAGO-852
p1052
aVTOBAGO-851
p1053
aVTOBAGO-850
p1054
aVTOBAGO-849
p1055
aVTOBAGO-848
p1056
aVTOBAGO-847
p1057
aVTOBAGO-846
p1058
aVTOBAGO-845
p1059
aVTOBAGO-844
p1060
aVTOBAGO-843
p1061
aVTOBAGO-842
p1062
aVTOBAGO-841
p1063
aVTOBAGO-840
p1064
aVTOBAGO-839
p1065
aVTOBAGO-838
p1066
aVTOBAGO-837
p1067
aVTOBAGO-836
p1068
aVTOBAGO-835
p1069
aVTOBAGO-834
p1070
aVTOBAGO-833
p1071
aVTOBAGO-832
p1072
aVTOBAGO-831
p1073
aVTOBAGO-830
p1074
aVTOBAGO-829
p1075
aVTOBAGO-828
p1076
aVTOBAGO-827
p1077
aVTOBAGO-826
p1078
aVTOBAGO-825
p1079
aVTOBAGO-824
p1080
aVTOBAGO-823
p1081
aVTOBAGO-822
p1082
aVTOBAGO-821
p1083
aVTOBAGO-820
p1084
aVTOBAGO-819
p1085
aVTOBAGO-818
p1086
aVTOBAGO-817
p1087
aVTOBAGO-816
p1088
aVTOBAGO-815
p1089
aVTOBAGO-814
p1090
aVTOBAGO-813
p1091
aVTOBAGO-812
p1092
aVTOBAGO-811
p1093
aVTOBAGO-810
p1094
aVTOBAGO-809
p1095
aVTOBAGO-808
p1096
aVTOBAGO-807
p1097
aVTOBAGO-806
p1098
aVTOBAGO-805
p1099
aVTOBAGO-804
p1100
aVTOBAGO-803
p1101
aVTOBAGO-802
p1102
aVTOBAGO-801
p1103
aVTOBAGO-800
p1104
aVTOBAGO-799
p1105
aVTOBAGO-798
p1106
aVTOBAGO-797
p1107
aVTOBAGO-796
p1108
aVTOBAGO-795
p1109
aVTOBAGO-794
p1110
aVTOBAGO-793
p1111
aVTOBAGO-792
p1112
aVTOBAGO-791
p1113
aVTOBAGO-790
p1114
aVTOBAGO-789
p1115
aVTOBAGO-788
p1116
aVTOBAGO-787
p1117
aVTOBAGO-786
p1118
aVTOBAGO-785
p1119
aVTOBAGO-784
p1120
aVTOBAGO-783
p1121
aVTOBAGO-782
p1122
aVTOBAGO-781
p1123
aVTOBAGO-780
p1124
aVTOBAGO-779
p1125
aVTOBAGO-778
p1126
aVTOBAGO-777
p1127
aVTOBAGO-776
p1128
aVTOBAGO-775
p1129
aVTOBAGO-774
p1130
aVTOBAGO-773
p1131
aVTOBAGO-772
p1132
aVTOBAGO-771
p1133
aVTOBAGO-770
p1134
aVTOBAGO-769
p1135
aVTOBAGO-768
p1136
aVTOBAGO-767
p1137
aVTOBAGO-766
p1138
aVTOBAGO-765
p1139
aVTOBAGO-764
p1140
aVTOBAGO-763
p1141
aVTOBAGO-762
p1142
aVTOBAGO-761
p1143
aVTOBAGO-760
p1144
aVTOBAGO-759
p1145
aVTOBAGO-758
p1146
aVTOBAGO-757
p1147
aVTOBAGO-756
p1148
aVTOBAGO-755
p1149
aVTOBAGO-754
p1150
aVTOBAGO-753
p1151
aVTOBAGO-752
p1152
aVTOBAGO-751
p1153
aVTOBAGO-750
p1154
aVTOBAGO-749
p1155
aVTOBAGO-748
p1156
aVTOBAGO-747
p1157
aVTOBAGO-746
p1158
aVTOBAGO-745
p1159
aVTOBAGO-744
p1160
aVTOBAGO-743
p1161
aVTOBAGO-742
p1162
aVTOBAGO-741
p1163
aVTOBAGO-740
p1164
aVTOBAGO-739
p1165
aVTOBAGO-738
p1166
aVTOBAGO-737
p1167
aVTOBAGO-736
p1168
aVTOBAGO-735
p1169
aVTOBAGO-734
p1170
aVTOBAGO-733
p1171
aVTOBAGO-732
p1172
aVTOBAGO-731
p1173
aVTOBAGO-730
p1174
aVTOBAGO-729
p1175
aVTOBAGO-728
p1176
aVTOBAGO-727
p1177
aVTOBAGO-726
p1178
aVTOBAGO-725
p1179
aVTOBAGO-724
p1180
aVTOBAGO-723
p1181
aVTOBAGO-722
p1182
aVTOBAGO-721
p1183
aVTOBAGO-720
p1184
aVTOBAGO-719
p1185
aVTOBAGO-718
p1186
aVTOBAGO-717
p1187
aVTOBAGO-716
p1188
aVTOBAGO-715
p1189
aVTOBAGO-714
p1190
aVTOBAGO-713
p1191
aVTOBAGO-712
p1192
aVTOBAGO-711
p1193
aVTOBAGO-710
p1194
aVTOBAGO-709
p1195
aVTOBAGO-708
p1196
aVTOBAGO-707
p1197
aVTOBAGO-706
p1198
aVTOBAGO-705
p1199
aVTOBAGO-704
p1200
aVTOBAGO-703
p1201
aVTOBAGO-702
p1202
aVTOBAGO-701
p1203
aVTOBAGO-700
p1204
aVTOBAGO-699
p1205
aVTOBAGO-698
p1206
aVTOBAGO-697
p1207
aVTOBAGO-696
p1208
aVTOBAGO-695
p1209
aVTOBAGO-694
p1210
aVTOBAGO-693
p1211
aVTOBAGO-692
p1212
aVTOBAGO-691
p1213
aVTOBAGO-690
p1214
aVTOBAGO-689
p1215
aVTOBAGO-688
p1216
aVTOBAGO-687
p1217
aVTOBAGO-686
p1218
aVTOBAGO-685
p1219
aVTOBAGO-684
p1220
aVTOBAGO-683
p1221
aVTOBAGO-682
p1222
aVTOBAGO-681
p1223
aVTOBAGO-680
p1224
aVTOBAGO-679
p1225
aVTOBAGO-678
p1226
aVTOBAGO-677
p1227
aVTOBAGO-676
p1228
aVTOBAGO-675
p1229
aVTOBAGO-674
p1230
aVTOBAGO-673
p1231
aVTOBAGO-672
p1232
aVTOBAGO-671
p1233
aVTOBAGO-670
p1234
aVTOBAGO-669
p1235
aVTOBAGO-668
p1236
aVTOBAGO-667
p1237
aVTOBAGO-666
p1238
aVTOBAGO-665
p1239
aVTOBAGO-664
p1240
aVTOBAGO-663
p1241
aVTOBAGO-662
p1242
aVTOBAGO-661
p1243
aVTOBAGO-660
p1244
aVTOBAGO-659
p1245
aVTOBAGO-658
p1246
aVTOBAGO-657
p1247
aVTOBAGO-656
p1248
aVTOBAGO-655
p1249
aVTOBAGO-654
p1250
aVTOBAGO-653
p1251
aVTOBAGO-652
p1252
aVTOBAGO-651
p1253
aVTOBAGO-650
p1254
aVTOBAGO-649
p1255
aVTOBAGO-648
p1256
aVTOBAGO-647
p1257
aVTOBAGO-646
p1258
aVTOBAGO-645
p1259
aVTOBAGO-644
p1260
aVTOBAGO-643
p1261
aVTOBAGO-642
p1262
aVTOBAGO-641
p1263
aVTOBAGO-640
p1264
aVTOBAGO-639
p1265
aVTOBAGO-638
p1266
aVTOBAGO-637
p1267
aVTOBAGO-636
p1268
aVTOBAGO-635
p1269
aVTOBAGO-634
p1270
aVTOBAGO-633
p1271
aVTOBAGO-632
p1272
aVTOBAGO-630
p1273
aVTOBAGO-629
p1274
aVTOBAGO-628
p1275
aVTOBAGO-627
p1276
aVTOBAGO-626
p1277
aVTOBAGO-625
p1278
aVTOBAGO-624
p1279
aVTOBAGO-623
p1280
aVTOBAGO-622
p1281
aVTOBAGO-621
p1282
aVTOBAGO-620
p1283
aVTOBAGO-619
p1284
aVTOBAGO-618
p1285
aVTOBAGO-617
p1286
aVTOBAGO-616
p1287
aVTOBAGO-615
p1288
aVTOBAGO-614
p1289
aVTOBAGO-613
p1290
aVTOBAGO-612
p1291
aVTOBAGO-611
p1292
aVTOBAGO-610
p1293
aVTOBAGO-609
p1294
aVTOBAGO-608
p1295
aVTOBAGO-607
p1296
aVTOBAGO-606
p1297
aVTOBAGO-605
p1298
aVTOBAGO-604
p1299
aVTOBAGO-603
p1300
aVTOBAGO-602
p1301
aVTOBAGO-601
p1302
aVTOBAGO-600
p1303
aVTOBAGO-599
p1304
aVTOBAGO-598
p1305
aVTOBAGO-597
p1306
aVTOBAGO-596
p1307
aVTOBAGO-595
p1308
aVTOBAGO-594
p1309
aVTOBAGO-593
p1310
aVTOBAGO-592
p1311
aVTOBAGO-591
p1312
aVTOBAGO-590
p1313
aVTOBAGO-589
p1314
aVTOBAGO-588
p1315
aVTOBAGO-587
p1316
aVTOBAGO-586
p1317
aVTOBAGO-585
p1318
aVTOBAGO-584
p1319
aVTOBAGO-583
p1320
aVTOBAGO-582
p1321
aVTOBAGO-581
p1322
aVTOBAGO-580
p1323
aVTOBAGO-579
p1324
aVTOBAGO-578
p1325
aVTOBAGO-577
p1326
aVTOBAGO-576
p1327
aVTOBAGO-575
p1328
aVTOBAGO-574
p1329
aVTOBAGO-573
p1330
aVTOBAGO-572
p1331
aVTOBAGO-571
p1332
aVTOBAGO-570
p1333
aVTOBAGO-569
p1334
aVTOBAGO-568
p1335
aVTOBAGO-567
p1336
aVTOBAGO-566
p1337
aVTOBAGO-565
p1338
aVTOBAGO-564
p1339
aVTOBAGO-563
p1340
aVTOBAGO-562
p1341
aVTOBAGO-561
p1342
aVTOBAGO-560
p1343
aVTOBAGO-559
p1344
aVTOBAGO-558
p1345
aVTOBAGO-557
p1346
aVTOBAGO-556
p1347
aVTOBAGO-555
p1348
aVTOBAGO-554
p1349
aVTOBAGO-553
p1350
aVTOBAGO-552
p1351
aVTOBAGO-551
p1352
aVTOBAGO-550
p1353
aVTOBAGO-549
p1354
aVTOBAGO-548
p1355
aVTOBAGO-547
p1356
aVTOBAGO-546
p1357
aVTOBAGO-545
p1358
aVTOBAGO-544
p1359
aVTOBAGO-543
p1360
aVTOBAGO-542
p1361
aVTOBAGO-541
p1362
aVTOBAGO-540
p1363
aVTOBAGO-539
p1364
aVTOBAGO-538
p1365
aVTOBAGO-537
p1366
aVTOBAGO-536
p1367
aVTOBAGO-535
p1368
aVTOBAGO-534
p1369
aVTOBAGO-533
p1370
aVTOBAGO-532
p1371
aVTOBAGO-531
p1372
aVTOBAGO-530
p1373
aVTOBAGO-529
p1374
aVTOBAGO-528
p1375
aVTOBAGO-527
p1376
aVTOBAGO-526
p1377
aVTOBAGO-525
p1378
aVTOBAGO-524
p1379
aVTOBAGO-523
p1380
aVTOBAGO-522
p1381
aVTOBAGO-521
p1382
aVTOBAGO-520
p1383
aVTOBAGO-519
p1384
aVTOBAGO-518
p1385
aVTOBAGO-517
p1386
aVTOBAGO-516
p1387
aVTOBAGO-515
p1388
aVTOBAGO-514
p1389
aVTOBAGO-513
p1390
aVTOBAGO-512
p1391
aVTOBAGO-511
p1392
aVTOBAGO-510
p1393
aVTOBAGO-509
p1394
aVTOBAGO-508
p1395
aVTOBAGO-507
p1396
aVTOBAGO-506
p1397
aVTOBAGO-505
p1398
aVTOBAGO-504
p1399
aVTOBAGO-503
p1400
aVTOBAGO-502
p1401
aVTOBAGO-501
p1402
aVTOBAGO-500
p1403
aVTOBAGO-499
p1404
aVTOBAGO-498
p1405
aVTOBAGO-497
p1406
aVTOBAGO-496
p1407
aVTOBAGO-495
p1408
aVTOBAGO-494
p1409
aVTOBAGO-493
p1410
aVTOBAGO-492
p1411
aVTOBAGO-491
p1412
aVTOBAGO-490
p1413
aVTOBAGO-489
p1414
aVTOBAGO-488
p1415
aVTOBAGO-487
p1416
aVTOBAGO-486
p1417
aVTOBAGO-485
p1418
aVTOBAGO-484
p1419
aVTOBAGO-483
p1420
aVTOBAGO-482
p1421
aVTOBAGO-481
p1422
aVTOBAGO-480
p1423
aVTOBAGO-479
p1424
aVTOBAGO-478
p1425
aVTOBAGO-477
p1426
aVTOBAGO-476
p1427
aVTOBAGO-475
p1428
aVTOBAGO-474
p1429
aVTOBAGO-473
p1430
aVTOBAGO-472
p1431
aVTOBAGO-471
p1432
aVTOBAGO-470
p1433
aVTOBAGO-469
p1434
aVTOBAGO-468
p1435
aVTOBAGO-467
p1436
aVTOBAGO-466
p1437
aVTOBAGO-465
p1438
aVTOBAGO-464
p1439
aVTOBAGO-463
p1440
aVTOBAGO-462
p1441
aVTOBAGO-461
p1442
aVTOBAGO-460
p1443
aVTOBAGO-459
p1444
aVTOBAGO-458
p1445
aVTOBAGO-457
p1446
aVTOBAGO-456
p1447
aVTOBAGO-455
p1448
aVTOBAGO-454
p1449
aVTOBAGO-453
p1450
aVTOBAGO-452
p1451
aVTOBAGO-451
p1452
aVTOBAGO-450
p1453
aVTOBAGO-449
p1454
aVTOBAGO-448
p1455
aVTOBAGO-447
p1456
aVTOBAGO-446
p1457
aVTOBAGO-445
p1458
aVTOBAGO-444
p1459
aVTOBAGO-443
p1460
aVTOBAGO-442
p1461
aVTOBAGO-441
p1462
aVTOBAGO-440
p1463
aVTOBAGO-439
p1464
aVTOBAGO-438
p1465
aVTOBAGO-437
p1466
aVTOBAGO-436
p1467
aVTOBAGO-435
p1468
aVTOBAGO-434
p1469
aVTOBAGO-433
p1470
aVTOBAGO-432
p1471
aVTOBAGO-431
p1472
aVTOBAGO-430
p1473
aVTOBAGO-429
p1474
aVTOBAGO-428
p1475
aVTOBAGO-427
p1476
aVTOBAGO-426
p1477
aVTOBAGO-425
p1478
aVTOBAGO-424
p1479
aVTOBAGO-423
p1480
aVTOBAGO-422
p1481
aVTOBAGO-421
p1482
aVTOBAGO-420
p1483
aVTOBAGO-419
p1484
aVTOBAGO-418
p1485
aVTOBAGO-417
p1486
aVTOBAGO-416
p1487
aVTOBAGO-415
p1488
aVTOBAGO-414
p1489
aVTOBAGO-413
p1490
aVTOBAGO-412
p1491
aVTOBAGO-411
p1492
aVTOBAGO-410
p1493
aVTOBAGO-409
p1494
aVTOBAGO-408
p1495
aVTOBAGO-407
p1496
aVTOBAGO-406
p1497
aVTOBAGO-405
p1498
aVTOBAGO-404
p1499
aVTOBAGO-403
p1500
aVTOBAGO-402
p1501
aVTOBAGO-401
p1502
aVTOBAGO-400
p1503
aVTOBAGO-399
p1504
aVTOBAGO-398
p1505
aVTOBAGO-397
p1506
aVTOBAGO-396
p1507
aVTOBAGO-394
p1508
aVTOBAGO-393
p1509
aVTOBAGO-392
p1510
aVTOBAGO-391
p1511
aVTOBAGO-390
p1512
aVTOBAGO-389
p1513
aVTOBAGO-388
p1514
aVTOBAGO-387
p1515
aVTOBAGO-386
p1516
aVTOBAGO-385
p1517
aVTOBAGO-384
p1518
aVTOBAGO-383
p1519
aVTOBAGO-382
p1520
aVTOBAGO-381
p1521
aVTOBAGO-380
p1522
aVTOBAGO-379
p1523
aVTOBAGO-378
p1524
aVTOBAGO-377
p1525
aVTOBAGO-376
p1526
aVTOBAGO-375
p1527
aVTOBAGO-374
p1528
aVTOBAGO-373
p1529
aVTOBAGO-372
p1530
aVTOBAGO-371
p1531
aVTOBAGO-370
p1532
aVTOBAGO-369
p1533
aVTOBAGO-368
p1534
aVTOBAGO-367
p1535
aVTOBAGO-366
p1536
aVTOBAGO-365
p1537
aVTOBAGO-364
p1538
aVTOBAGO-363
p1539
aVTOBAGO-362
p1540
aVTOBAGO-361
p1541
aVTOBAGO-360
p1542
aVTOBAGO-359
p1543
aVTOBAGO-358
p1544
aVTOBAGO-357
p1545
aVTOBAGO-356
p1546
aVTOBAGO-355
p1547
aVTOBAGO-354
p1548
aVTOBAGO-353
p1549
aVTOBAGO-352
p1550
aVTOBAGO-351
p1551
aVTOBAGO-350
p1552
aVTOBAGO-349
p1553
aVTOBAGO-348
p1554
aVTOBAGO-347
p1555
aVTOBAGO-346
p1556
aVTOBAGO-345
p1557
aVTOBAGO-344
p1558
aVTOBAGO-343
p1559
aVTOBAGO-342
p1560
aVTOBAGO-341
p1561
aVTOBAGO-340
p1562
aVTOBAGO-339
p1563
aVTOBAGO-338
p1564
aVTOBAGO-337
p1565
aVTOBAGO-336
p1566
aVTOBAGO-335
p1567
aVTOBAGO-334
p1568
aVTOBAGO-333
p1569
aVTOBAGO-332
p1570
aVTOBAGO-331
p1571
aVTOBAGO-330
p1572
aVTOBAGO-329
p1573
aVTOBAGO-328
p1574
aVTOBAGO-327
p1575
aVTOBAGO-326
p1576
aVTOBAGO-325
p1577
aVTOBAGO-324
p1578
aVTOBAGO-323
p1579
aVTOBAGO-322
p1580
aVTOBAGO-321
p1581
aVTOBAGO-320
p1582
aVTOBAGO-319
p1583
aVTOBAGO-318
p1584
aVTOBAGO-317
p1585
aVTOBAGO-316
p1586
aVTOBAGO-315
p1587
aVTOBAGO-314
p1588
aVTOBAGO-313
p1589
aVTOBAGO-312
p1590
aVTOBAGO-311
p1591
aVTOBAGO-310
p1592
aVTOBAGO-309
p1593
aVTOBAGO-308
p1594
aVTOBAGO-307
p1595
aVTOBAGO-306
p1596
aVTOBAGO-305
p1597
aVTOBAGO-304
p1598
aVTOBAGO-303
p1599
aVTOBAGO-302
p1600
aVTOBAGO-301
p1601
aVTOBAGO-300
p1602
aVTOBAGO-299
p1603
aVTOBAGO-298
p1604
aVTOBAGO-297
p1605
aVTOBAGO-296
p1606
aVTOBAGO-295
p1607
aVTOBAGO-294
p1608
aVTOBAGO-293
p1609
aVTOBAGO-292
p1610
aVTOBAGO-291
p1611
aVTOBAGO-290
p1612
aVTOBAGO-289
p1613
aVTOBAGO-288
p1614
aVTOBAGO-287
p1615
aVTOBAGO-286
p1616
aVTOBAGO-285
p1617
aVTOBAGO-284
p1618
aVTOBAGO-283
p1619
aVTOBAGO-282
p1620
aVTOBAGO-281
p1621
aVTOBAGO-280
p1622
aVTOBAGO-279
p1623
aVTOBAGO-278
p1624
aVTOBAGO-277
p1625
aVTOBAGO-276
p1626
aVTOBAGO-275
p1627
aVTOBAGO-274
p1628
aVTOBAGO-273
p1629
aVTOBAGO-272
p1630
aVTOBAGO-271
p1631
aVTOBAGO-270
p1632
aVTOBAGO-269
p1633
aVTOBAGO-268
p1634
aVTOBAGO-267
p1635
aVTOBAGO-266
p1636
aVTOBAGO-265
p1637
aVTOBAGO-264
p1638
aVTOBAGO-263
p1639
aVTOBAGO-262
p1640
aVTOBAGO-261
p1641
aVTOBAGO-260
p1642
aVTOBAGO-259
p1643
aVTOBAGO-258
p1644
aVTOBAGO-257
p1645
aVTOBAGO-256
p1646
aVTOBAGO-255
p1647
aVTOBAGO-254
p1648
aVTOBAGO-253
p1649
aVTOBAGO-252
p1650
aVTOBAGO-251
p1651
aVTOBAGO-250
p1652
aVTOBAGO-249
p1653
aVTOBAGO-248
p1654
aVTOBAGO-247
p1655
aVTOBAGO-246
p1656
aVTOBAGO-245
p1657
aVTOBAGO-244
p1658
aVTOBAGO-243
p1659
aVTOBAGO-242
p1660
aVTOBAGO-241
p1661
aVTOBAGO-240
p1662
aVTOBAGO-239
p1663
aVTOBAGO-238
p1664
aVTOBAGO-237
p1665
aVTOBAGO-236
p1666
aVTOBAGO-235
p1667
aVTOBAGO-234
p1668
aVTOBAGO-233
p1669
aVTOBAGO-232
p1670
aVTOBAGO-231
p1671
aVTOBAGO-230
p1672
aVTOBAGO-229
p1673
aVTOBAGO-228
p1674
aVTOBAGO-227
p1675
aVTOBAGO-226
p1676
aVTOBAGO-225
p1677
aVTOBAGO-224
p1678
aVTOBAGO-223
p1679
aVTOBAGO-222
p1680
aVTOBAGO-221
p1681
aVTOBAGO-220
p1682
aVTOBAGO-219
p1683
aVTOBAGO-218
p1684
aVTOBAGO-217
p1685
aVTOBAGO-216
p1686
aVTOBAGO-215
p1687
aVTOBAGO-214
p1688
aVTOBAGO-213
p1689
aVTOBAGO-212
p1690
aVTOBAGO-211
p1691
aVTOBAGO-210
p1692
aVTOBAGO-209
p1693
aVTOBAGO-208
p1694
aVTOBAGO-207
p1695
aVTOBAGO-206
p1696
aVTOBAGO-205
p1697
aVTOBAGO-204
p1698
aVTOBAGO-203
p1699
aVTOBAGO-202
p1700
aVTOBAGO-201
p1701
aVTOBAGO-200
p1702
aVTOBAGO-199
p1703
aVTOBAGO-198
p1704
aVTOBAGO-197
p1705
aVTOBAGO-196
p1706
aVTOBAGO-195
p1707
aVTOBAGO-194
p1708
aVTOBAGO-193
p1709
aVTOBAGO-192
p1710
aVTOBAGO-191
p1711
aVTOBAGO-190
p1712
aVTOBAGO-189
p1713
aVTOBAGO-188
p1714
aVTOBAGO-187
p1715
aVTOBAGO-186
p1716
aVTOBAGO-185
p1717
aVTOBAGO-184
p1718
aVTOBAGO-183
p1719
aVTOBAGO-182
p1720
aVTOBAGO-181
p1721
aVTOBAGO-180
p1722
aVTOBAGO-179
p1723
aVTOBAGO-178
p1724
aVTOBAGO-177
p1725
aVTOBAGO-176
p1726
aVTOBAGO-175
p1727
aVTOBAGO-174
p1728
aVTOBAGO-173
p1729
aVTOBAGO-172
p1730
aVTOBAGO-171
p1731
aVTOBAGO-170
p1732
aVTOBAGO-169
p1733
aVTOBAGO-168
p1734
aVTOBAGO-167
p1735
aVTOBAGO-166
p1736
aVTOBAGO-165
p1737
aVTOBAGO-164
p1738
aVTOBAGO-163
p1739
aVTOBAGO-162
p1740
aVTOBAGO-161
p1741
aVTOBAGO-160
p1742
aVTOBAGO-159
p1743
aVTOBAGO-158
p1744
aVTOBAGO-157
p1745
aVTOBAGO-156
p1746
aVTOBAGO-155
p1747
aVTOBAGO-154
p1748
aVTOBAGO-153
p1749
aVTOBAGO-152
p1750
aVTOBAGO-151
p1751
aVTOBAGO-150
p1752
aVTOBAGO-149
p1753
aVTOBAGO-148
p1754
aVTOBAGO-147
p1755
aVTOBAGO-146
p1756
aVTOBAGO-145
p1757
aVTOBAGO-144
p1758
aVTOBAGO-143
p1759
aVTOBAGO-142
p1760
aVTOBAGO-141
p1761
aVTOBAGO-140
p1762
aVTOBAGO-139
p1763
aVTOBAGO-138
p1764
aVTOBAGO-137
p1765
aVTOBAGO-136
p1766
aVTOBAGO-135
p1767
aVTOBAGO-134
p1768
aVTOBAGO-133
p1769
aVTOBAGO-132
p1770
aVTOBAGO-131
p1771
aVTOBAGO-130
p1772
aVTOBAGO-129
p1773
aVTOBAGO-128
p1774
aVTOBAGO-127
p1775
aVTOBAGO-126
p1776
aVTOBAGO-125
p1777
aVTOBAGO-124
p1778
aVTOBAGO-123
p1779
aVTOBAGO-122
p1780
aVTOBAGO-121
p1781
aVTOBAGO-120
p1782
aVTOBAGO-119
p1783
aVTOBAGO-118
p1784
aVTOBAGO-117
p1785
aVTOBAGO-116
p1786
aVTOBAGO-115
p1787
aVTOBAGO-114
p1788
aVTOBAGO-113
p1789
aVTOBAGO-112
p1790
aVTOBAGO-111
p1791
aVTOBAGO-110
p1792
aVTOBAGO-109
p1793
aVTOBAGO-108
p1794
aVTOBAGO-107
p1795
aVTOBAGO-106
p1796
aVTOBAGO-105
p1797
aVTOBAGO-104
p1798
aVTOBAGO-103
p1799
aVTOBAGO-102
p1800
aVTOBAGO-101
p1801
aVTOBAGO-100
p1802
aVTOBAGO-99
p1803
aVTOBAGO-98
p1804
aVTOBAGO-97
p1805
aVTOBAGO-96
p1806
aVTOBAGO-95
p1807
aVTOBAGO-94
p1808
aVTOBAGO-93
p1809
aVTOBAGO-92
p1810
aVTOBAGO-91
p1811
aVTOBAGO-90
p1812
aVTOBAGO-89
p1813
aVTOBAGO-88
p1814
aVTOBAGO-87
p1815
aVTOBAGO-86
p1816
aVTOBAGO-85
p1817
aVTOBAGO-84
p1818
aVTOBAGO-83
p1819
aVTOBAGO-82
p1820
aVTOBAGO-81
p1821
aVTOBAGO-80
p1822
aVTOBAGO-79
p1823
aVTOBAGO-78
p1824
aVTOBAGO-77
p1825
aVTOBAGO-76
p1826
aVTOBAGO-75
p1827
aVTOBAGO-74
p1828
aVTOBAGO-73
p1829
aVTOBAGO-72
p1830
aVTOBAGO-71
p1831
aVTOBAGO-70
p1832
aVTOBAGO-69
p1833
aVTOBAGO-68
p1834
aVTOBAGO-67
p1835
aVTOBAGO-66
p1836
aVTOBAGO-65
p1837
aVTOBAGO-64
p1838
aVTOBAGO-63
p1839
aVTOBAGO-62
p1840
aVTOBAGO-61
p1841
aVTOBAGO-60
p1842
aVTOBAGO-59
p1843
aVTOBAGO-58
p1844
aVTOBAGO-57
p1845
aVTOBAGO-56
p1846
aVTOBAGO-55
p1847
aVTOBAGO-54
p1848
aVTOBAGO-53
p1849
aVTOBAGO-52
p1850
aVTOBAGO-51
p1851
aVTOBAGO-50
p1852
aVTOBAGO-49
p1853
aVTOBAGO-48
p1854
aVTOBAGO-47
p1855
aVTOBAGO-46
p1856
aVTOBAGO-45
p1857
aVTOBAGO-44
p1858
aVTOBAGO-43
p1859
aVTOBAGO-42
p1860
aVTOBAGO-41
p1861
aVTOBAGO-40
p1862
aVTOBAGO-38
p1863
aVTOBAGO-37
p1864
aVTOBAGO-36
p1865
aVTOBAGO-35
p1866
aVTOBAGO-34
p1867
aVTOBAGO-33
p1868
aVTOBAGO-32
p1869
aVTOBAGO-31
p1870
aVTOBAGO-30
p1871
aVTOBAGO-29
p1872
aVTOBAGO-28
p1873
aVTOBAGO-27
p1874
aVTOBAGO-26
p1875
aVTOBAGO-24
p1876
aVTOBAGO-23
p1877
aVTOBAGO-22
p1878
aVTOBAGO-21
p1879
aVTOBAGO-20
p1880
aVTOBAGO-19
p1881
aVTOBAGO-18
p1882
aVTOBAGO-17
p1883
aVTOBAGO-16
p1884
aVTOBAGO-15
p1885
aVTOBAGO-14
p1886
aVTOBAGO-13
p1887
aVTOBAGO-12
p1888
aVTOBAGO-11
p1889
aVTOBAGO-10
p1890
aVTOBAGO-9
p1891
aVTOBAGO-8
p1892
aVTOBAGO-7
p1893
aVTOBAGO-6
p1894
aVTOBAGO-5
p1895
aVTOBAGO-4
p1896
aVTOBAGO-3
p1897
aVTOBAGO-2
p1898
aVTOBAGO-1
p1899
a.