(lp0
VTOMEE-2206
p1
aVTOMEE-2205
p2
aVTOMEE-2204
p3
aVTOMEE-2203
p4
aVTOMEE-2202
p5
aVTOMEE-2201
p6
aVTOMEE-2200
p7
aVTOMEE-2199
p8
aVTOMEE-2198
p9
aVTOMEE-2197
p10
aVTOMEE-2196
p11
aVTOMEE-2195
p12
aVTOMEE-2194
p13
aVTOMEE-2193
p14
aVTOMEE-2192
p15
aVTOMEE-2191
p16
aVTOMEE-2190
p17
aVTOMEE-2189
p18
aVTOMEE-2188
p19
aVTOMEE-2187
p20
aVTOMEE-2186
p21
aVTOMEE-2185
p22
aVTOMEE-2184
p23
aVTOMEE-2183
p24
aVTOMEE-2182
p25
aVTOMEE-2181
p26
aVTOMEE-2180
p27
aVTOMEE-2179
p28
aVTOMEE-2178
p29
aVTOMEE-2177
p30
aVTOMEE-2176
p31
aVTOMEE-2175
p32
aVTOMEE-2174
p33
aVTOMEE-2173
p34
aVTOMEE-2172
p35
aVTOMEE-2171
p36
aVTOMEE-2170
p37
aVTOMEE-2169
p38
aVTOMEE-2168
p39
aVTOMEE-2167
p40
aVTOMEE-2166
p41
aVTOMEE-2165
p42
aVTOMEE-2164
p43
aVTOMEE-2163
p44
aVTOMEE-2162
p45
aVTOMEE-2161
p46
aVTOMEE-2160
p47
aVTOMEE-2159
p48
aVTOMEE-2158
p49
aVTOMEE-2157
p50
aVTOMEE-2156
p51
aVTOMEE-2155
p52
aVTOMEE-2154
p53
aVTOMEE-2153
p54
aVTOMEE-2152
p55
aVTOMEE-2151
p56
aVTOMEE-2150
p57
aVTOMEE-2149
p58
aVTOMEE-2148
p59
aVTOMEE-2147
p60
aVTOMEE-2146
p61
aVTOMEE-2145
p62
aVTOMEE-2144
p63
aVTOMEE-2143
p64
aVTOMEE-2142
p65
aVTOMEE-2141
p66
aVTOMEE-2140
p67
aVTOMEE-2139
p68
aVTOMEE-2138
p69
aVTOMEE-2137
p70
aVTOMEE-2136
p71
aVTOMEE-2135
p72
aVTOMEE-2134
p73
aVTOMEE-2133
p74
aVTOMEE-2132
p75
aVTOMEE-2131
p76
aVTOMEE-2130
p77
aVTOMEE-2129
p78
aVTOMEE-2128
p79
aVTOMEE-2127
p80
aVTOMEE-2126
p81
aVTOMEE-2125
p82
aVTOMEE-2124
p83
aVTOMEE-2123
p84
aVTOMEE-2122
p85
aVTOMEE-2121
p86
aVTOMEE-2120
p87
aVTOMEE-2119
p88
aVTOMEE-2118
p89
aVTOMEE-2117
p90
aVTOMEE-2116
p91
aVTOMEE-2115
p92
aVTOMEE-2114
p93
aVTOMEE-2113
p94
aVTOMEE-2112
p95
aVTOMEE-2111
p96
aVTOMEE-2110
p97
aVTOMEE-2109
p98
aVTOMEE-2108
p99
aVTOMEE-2107
p100
aVTOMEE-2106
p101
aVTOMEE-2105
p102
aVTOMEE-2104
p103
aVTOMEE-2103
p104
aVTOMEE-2102
p105
aVTOMEE-2101
p106
aVTOMEE-2100
p107
aVTOMEE-2099
p108
aVTOMEE-2098
p109
aVTOMEE-2097
p110
aVTOMEE-2096
p111
aVTOMEE-2095
p112
aVTOMEE-2094
p113
aVTOMEE-2093
p114
aVTOMEE-2092
p115
aVTOMEE-2091
p116
aVTOMEE-2090
p117
aVTOMEE-2089
p118
aVTOMEE-2088
p119
aVTOMEE-2087
p120
aVTOMEE-2086
p121
aVTOMEE-2085
p122
aVTOMEE-2084
p123
aVTOMEE-2083
p124
aVTOMEE-2082
p125
aVTOMEE-2081
p126
aVTOMEE-2080
p127
aVTOMEE-2079
p128
aVTOMEE-2078
p129
aVTOMEE-2077
p130
aVTOMEE-2076
p131
aVTOMEE-2075
p132
aVTOMEE-2074
p133
aVTOMEE-2073
p134
aVTOMEE-2072
p135
aVTOMEE-2071
p136
aVTOMEE-2070
p137
aVTOMEE-2069
p138
aVTOMEE-2068
p139
aVTOMEE-2067
p140
aVTOMEE-2066
p141
aVTOMEE-2065
p142
aVTOMEE-2064
p143
aVTOMEE-2063
p144
aVTOMEE-2062
p145
aVTOMEE-2061
p146
aVTOMEE-2060
p147
aVTOMEE-2059
p148
aVTOMEE-2058
p149
aVTOMEE-2057
p150
aVTOMEE-2056
p151
aVTOMEE-2055
p152
aVTOMEE-2054
p153
aVTOMEE-2053
p154
aVTOMEE-2052
p155
aVTOMEE-2051
p156
aVTOMEE-2050
p157
aVTOMEE-2049
p158
aVTOMEE-2048
p159
aVTOMEE-2047
p160
aVTOMEE-2046
p161
aVTOMEE-2045
p162
aVTOMEE-2044
p163
aVTOMEE-2043
p164
aVTOMEE-2042
p165
aVTOMEE-2041
p166
aVTOMEE-2040
p167
aVTOMEE-2039
p168
aVTOMEE-2038
p169
aVTOMEE-2037
p170
aVTOMEE-2035
p171
aVTOMEE-2034
p172
aVTOMEE-2033
p173
aVTOMEE-2032
p174
aVTOMEE-2031
p175
aVTOMEE-2030
p176
aVTOMEE-2029
p177
aVTOMEE-2028
p178
aVTOMEE-2027
p179
aVTOMEE-2026
p180
aVTOMEE-2025
p181
aVTOMEE-2024
p182
aVTOMEE-2023
p183
aVTOMEE-2022
p184
aVTOMEE-2021
p185
aVTOMEE-2020
p186
aVTOMEE-2019
p187
aVTOMEE-2018
p188
aVTOMEE-2017
p189
aVTOMEE-2016
p190
aVTOMEE-2015
p191
aVTOMEE-2014
p192
aVTOMEE-2013
p193
aVTOMEE-2012
p194
aVTOMEE-2011
p195
aVTOMEE-2010
p196
aVTOMEE-2009
p197
aVTOMEE-2008
p198
aVTOMEE-2007
p199
aVTOMEE-2006
p200
aVTOMEE-2005
p201
aVTOMEE-2004
p202
aVTOMEE-2003
p203
aVTOMEE-2002
p204
aVTOMEE-2001
p205
aVTOMEE-2000
p206
aVTOMEE-1999
p207
aVTOMEE-1998
p208
aVTOMEE-1997
p209
aVTOMEE-1996
p210
aVTOMEE-1995
p211
aVTOMEE-1994
p212
aVTOMEE-1993
p213
aVTOMEE-1992
p214
aVTOMEE-1991
p215
aVTOMEE-1990
p216
aVTOMEE-1989
p217
aVTOMEE-1988
p218
aVTOMEE-1987
p219
aVTOMEE-1986
p220
aVTOMEE-1985
p221
aVTOMEE-1984
p222
aVTOMEE-1983
p223
aVTOMEE-1982
p224
aVTOMEE-1981
p225
aVTOMEE-1980
p226
aVTOMEE-1979
p227
aVTOMEE-1978
p228
aVTOMEE-1977
p229
aVTOMEE-1976
p230
aVTOMEE-1975
p231
aVTOMEE-1974
p232
aVTOMEE-1973
p233
aVTOMEE-1972
p234
aVTOMEE-1971
p235
aVTOMEE-1970
p236
aVTOMEE-1969
p237
aVTOMEE-1968
p238
aVTOMEE-1967
p239
aVTOMEE-1966
p240
aVTOMEE-1965
p241
aVTOMEE-1964
p242
aVTOMEE-1963
p243
aVTOMEE-1962
p244
aVTOMEE-1961
p245
aVTOMEE-1960
p246
aVTOMEE-1959
p247
aVTOMEE-1958
p248
aVTOMEE-1957
p249
aVTOMEE-1956
p250
aVTOMEE-1955
p251
aVTOMEE-1954
p252
aVTOMEE-1953
p253
aVTOMEE-1952
p254
aVTOMEE-1951
p255
aVTOMEE-1950
p256
aVTOMEE-1949
p257
aVTOMEE-1948
p258
aVTOMEE-1947
p259
aVTOMEE-1946
p260
aVTOMEE-1945
p261
aVTOMEE-1944
p262
aVTOMEE-1943
p263
aVTOMEE-1942
p264
aVTOMEE-1941
p265
aVTOMEE-1940
p266
aVTOMEE-1939
p267
aVTOMEE-1938
p268
aVTOMEE-1937
p269
aVTOMEE-1936
p270
aVTOMEE-1935
p271
aVTOMEE-1934
p272
aVTOMEE-1933
p273
aVTOMEE-1932
p274
aVTOMEE-1931
p275
aVTOMEE-1930
p276
aVTOMEE-1929
p277
aVTOMEE-1928
p278
aVTOMEE-1927
p279
aVTOMEE-1926
p280
aVTOMEE-1925
p281
aVTOMEE-1924
p282
aVTOMEE-1923
p283
aVTOMEE-1922
p284
aVTOMEE-1921
p285
aVTOMEE-1920
p286
aVTOMEE-1919
p287
aVTOMEE-1918
p288
aVTOMEE-1917
p289
aVTOMEE-1916
p290
aVTOMEE-1915
p291
aVTOMEE-1914
p292
aVTOMEE-1913
p293
aVTOMEE-1912
p294
aVTOMEE-1911
p295
aVTOMEE-1910
p296
aVTOMEE-1909
p297
aVTOMEE-1908
p298
aVTOMEE-1907
p299
aVTOMEE-1906
p300
aVTOMEE-1905
p301
aVTOMEE-1904
p302
aVTOMEE-1903
p303
aVTOMEE-1902
p304
aVTOMEE-1901
p305
aVTOMEE-1900
p306
aVTOMEE-1899
p307
aVTOMEE-1898
p308
aVTOMEE-1897
p309
aVTOMEE-1896
p310
aVTOMEE-1895
p311
aVTOMEE-1894
p312
aVTOMEE-1893
p313
aVTOMEE-1892
p314
aVTOMEE-1891
p315
aVTOMEE-1890
p316
aVTOMEE-1889
p317
aVTOMEE-1888
p318
aVTOMEE-1887
p319
aVTOMEE-1886
p320
aVTOMEE-1885
p321
aVTOMEE-1884
p322
aVTOMEE-1883
p323
aVTOMEE-1882
p324
aVTOMEE-1881
p325
aVTOMEE-1880
p326
aVTOMEE-1879
p327
aVTOMEE-1878
p328
aVTOMEE-1877
p329
aVTOMEE-1876
p330
aVTOMEE-1875
p331
aVTOMEE-1874
p332
aVTOMEE-1873
p333
aVTOMEE-1872
p334
aVTOMEE-1871
p335
aVTOMEE-1870
p336
aVTOMEE-1869
p337
aVTOMEE-1868
p338
aVTOMEE-1867
p339
aVTOMEE-1866
p340
aVTOMEE-1865
p341
aVTOMEE-1864
p342
aVTOMEE-1863
p343
aVTOMEE-1862
p344
aVTOMEE-1861
p345
aVTOMEE-1860
p346
aVTOMEE-1859
p347
aVTOMEE-1858
p348
aVTOMEE-1857
p349
aVTOMEE-1856
p350
aVTOMEE-1855
p351
aVTOMEE-1854
p352
aVTOMEE-1853
p353
aVTOMEE-1852
p354
aVTOMEE-1851
p355
aVTOMEE-1850
p356
aVTOMEE-1849
p357
aVTOMEE-1848
p358
aVTOMEE-1847
p359
aVTOMEE-1846
p360
aVTOMEE-1845
p361
aVTOMEE-1844
p362
aVTOMEE-1843
p363
aVTOMEE-1842
p364
aVTOMEE-1841
p365
aVTOMEE-1840
p366
aVTOMEE-1839
p367
aVTOMEE-1838
p368
aVTOMEE-1837
p369
aVTOMEE-1836
p370
aVTOMEE-1835
p371
aVTOMEE-1834
p372
aVTOMEE-1833
p373
aVTOMEE-1832
p374
aVTOMEE-1831
p375
aVTOMEE-1830
p376
aVTOMEE-1829
p377
aVTOMEE-1828
p378
aVTOMEE-1827
p379
aVTOMEE-1826
p380
aVTOMEE-1825
p381
aVTOMEE-1824
p382
aVTOMEE-1823
p383
aVTOMEE-1822
p384
aVTOMEE-1821
p385
aVTOMEE-1820
p386
aVTOMEE-1819
p387
aVTOMEE-1818
p388
aVTOMEE-1817
p389
aVTOMEE-1816
p390
aVTOMEE-1815
p391
aVTOMEE-1814
p392
aVTOMEE-1813
p393
aVTOMEE-1812
p394
aVTOMEE-1811
p395
aVTOMEE-1810
p396
aVTOMEE-1809
p397
aVTOMEE-1808
p398
aVTOMEE-1807
p399
aVTOMEE-1806
p400
aVTOMEE-1805
p401
aVTOMEE-1804
p402
aVTOMEE-1803
p403
aVTOMEE-1802
p404
aVTOMEE-1801
p405
aVTOMEE-1800
p406
aVTOMEE-1799
p407
aVTOMEE-1798
p408
aVTOMEE-1797
p409
aVTOMEE-1796
p410
aVTOMEE-1794
p411
aVTOMEE-1793
p412
aVTOMEE-1792
p413
aVTOMEE-1791
p414
aVTOMEE-1790
p415
aVTOMEE-1789
p416
aVTOMEE-1788
p417
aVTOMEE-1787
p418
aVTOMEE-1786
p419
aVTOMEE-1785
p420
aVTOMEE-1784
p421
aVTOMEE-1783
p422
aVTOMEE-1782
p423
aVTOMEE-1781
p424
aVTOMEE-1780
p425
aVTOMEE-1779
p426
aVTOMEE-1778
p427
aVTOMEE-1777
p428
aVTOMEE-1776
p429
aVTOMEE-1775
p430
aVTOMEE-1774
p431
aVTOMEE-1773
p432
aVTOMEE-1772
p433
aVTOMEE-1771
p434
aVTOMEE-1770
p435
aVTOMEE-1769
p436
aVTOMEE-1768
p437
aVTOMEE-1767
p438
aVTOMEE-1766
p439
aVTOMEE-1765
p440
aVTOMEE-1764
p441
aVTOMEE-1763
p442
aVTOMEE-1762
p443
aVTOMEE-1761
p444
aVTOMEE-1760
p445
aVTOMEE-1759
p446
aVTOMEE-1758
p447
aVTOMEE-1757
p448
aVTOMEE-1756
p449
aVTOMEE-1755
p450
aVTOMEE-1754
p451
aVTOMEE-1753
p452
aVTOMEE-1752
p453
aVTOMEE-1751
p454
aVTOMEE-1750
p455
aVTOMEE-1749
p456
aVTOMEE-1748
p457
aVTOMEE-1747
p458
aVTOMEE-1746
p459
aVTOMEE-1745
p460
aVTOMEE-1744
p461
aVTOMEE-1743
p462
aVTOMEE-1742
p463
aVTOMEE-1741
p464
aVTOMEE-1740
p465
aVTOMEE-1739
p466
aVTOMEE-1738
p467
aVTOMEE-1737
p468
aVTOMEE-1736
p469
aVTOMEE-1735
p470
aVTOMEE-1734
p471
aVTOMEE-1733
p472
aVTOMEE-1732
p473
aVTOMEE-1731
p474
aVTOMEE-1730
p475
aVTOMEE-1729
p476
aVTOMEE-1728
p477
aVTOMEE-1727
p478
aVTOMEE-1726
p479
aVTOMEE-1725
p480
aVTOMEE-1724
p481
aVTOMEE-1723
p482
aVTOMEE-1722
p483
aVTOMEE-1721
p484
aVTOMEE-1720
p485
aVTOMEE-1719
p486
aVTOMEE-1718
p487
aVTOMEE-1717
p488
aVTOMEE-1716
p489
aVTOMEE-1715
p490
aVTOMEE-1714
p491
aVTOMEE-1713
p492
aVTOMEE-1712
p493
aVTOMEE-1711
p494
aVTOMEE-1710
p495
aVTOMEE-1709
p496
aVTOMEE-1708
p497
aVTOMEE-1707
p498
aVTOMEE-1706
p499
aVTOMEE-1705
p500
aVTOMEE-1704
p501
aVTOMEE-1703
p502
aVTOMEE-1702
p503
aVTOMEE-1701
p504
aVTOMEE-1700
p505
aVTOMEE-1699
p506
aVTOMEE-1698
p507
aVTOMEE-1697
p508
aVTOMEE-1696
p509
aVTOMEE-1695
p510
aVTOMEE-1694
p511
aVTOMEE-1693
p512
aVTOMEE-1692
p513
aVTOMEE-1691
p514
aVTOMEE-1690
p515
aVTOMEE-1689
p516
aVTOMEE-1688
p517
aVTOMEE-1687
p518
aVTOMEE-1686
p519
aVTOMEE-1685
p520
aVTOMEE-1684
p521
aVTOMEE-1683
p522
aVTOMEE-1682
p523
aVTOMEE-1681
p524
aVTOMEE-1680
p525
aVTOMEE-1679
p526
aVTOMEE-1678
p527
aVTOMEE-1677
p528
aVTOMEE-1676
p529
aVTOMEE-1675
p530
aVTOMEE-1674
p531
aVTOMEE-1673
p532
aVTOMEE-1672
p533
aVTOMEE-1671
p534
aVTOMEE-1670
p535
aVTOMEE-1669
p536
aVTOMEE-1668
p537
aVTOMEE-1667
p538
aVTOMEE-1666
p539
aVTOMEE-1664
p540
aVTOMEE-1663
p541
aVTOMEE-1662
p542
aVTOMEE-1661
p543
aVTOMEE-1660
p544
aVTOMEE-1659
p545
aVTOMEE-1658
p546
aVTOMEE-1657
p547
aVTOMEE-1656
p548
aVTOMEE-1655
p549
aVTOMEE-1654
p550
aVTOMEE-1653
p551
aVTOMEE-1652
p552
aVTOMEE-1651
p553
aVTOMEE-1650
p554
aVTOMEE-1649
p555
aVTOMEE-1648
p556
aVTOMEE-1647
p557
aVTOMEE-1646
p558
aVTOMEE-1645
p559
aVTOMEE-1644
p560
aVTOMEE-1643
p561
aVTOMEE-1642
p562
aVTOMEE-1641
p563
aVTOMEE-1640
p564
aVTOMEE-1639
p565
aVTOMEE-1638
p566
aVTOMEE-1637
p567
aVTOMEE-1636
p568
aVTOMEE-1634
p569
aVTOMEE-1633
p570
aVTOMEE-1632
p571
aVTOMEE-1631
p572
aVTOMEE-1630
p573
aVTOMEE-1629
p574
aVTOMEE-1628
p575
aVTOMEE-1627
p576
aVTOMEE-1626
p577
aVTOMEE-1625
p578
aVTOMEE-1624
p579
aVTOMEE-1623
p580
aVTOMEE-1622
p581
aVTOMEE-1621
p582
aVTOMEE-1620
p583
aVTOMEE-1619
p584
aVTOMEE-1618
p585
aVTOMEE-1617
p586
aVTOMEE-1616
p587
aVTOMEE-1615
p588
aVTOMEE-1614
p589
aVTOMEE-1613
p590
aVTOMEE-1612
p591
aVTOMEE-1611
p592
aVTOMEE-1610
p593
aVTOMEE-1609
p594
aVTOMEE-1608
p595
aVTOMEE-1607
p596
aVTOMEE-1606
p597
aVTOMEE-1605
p598
aVTOMEE-1604
p599
aVTOMEE-1603
p600
aVTOMEE-1602
p601
aVTOMEE-1601
p602
aVTOMEE-1600
p603
aVTOMEE-1599
p604
aVTOMEE-1598
p605
aVTOMEE-1597
p606
aVTOMEE-1596
p607
aVTOMEE-1595
p608
aVTOMEE-1594
p609
aVTOMEE-1593
p610
aVTOMEE-1592
p611
aVTOMEE-1590
p612
aVTOMEE-1589
p613
aVTOMEE-1588
p614
aVTOMEE-1587
p615
aVTOMEE-1586
p616
aVTOMEE-1585
p617
aVTOMEE-1584
p618
aVTOMEE-1583
p619
aVTOMEE-1582
p620
aVTOMEE-1581
p621
aVTOMEE-1580
p622
aVTOMEE-1579
p623
aVTOMEE-1578
p624
aVTOMEE-1577
p625
aVTOMEE-1576
p626
aVTOMEE-1575
p627
aVTOMEE-1574
p628
aVTOMEE-1573
p629
aVTOMEE-1572
p630
aVTOMEE-1571
p631
aVTOMEE-1570
p632
aVTOMEE-1569
p633
aVTOMEE-1568
p634
aVTOMEE-1567
p635
aVTOMEE-1566
p636
aVTOMEE-1565
p637
aVTOMEE-1564
p638
aVTOMEE-1563
p639
aVTOMEE-1562
p640
aVTOMEE-1561
p641
aVTOMEE-1560
p642
aVTOMEE-1559
p643
aVTOMEE-1558
p644
aVTOMEE-1557
p645
aVTOMEE-1556
p646
aVTOMEE-1555
p647
aVTOMEE-1554
p648
aVTOMEE-1553
p649
aVTOMEE-1552
p650
aVTOMEE-1551
p651
aVTOMEE-1550
p652
aVTOMEE-1549
p653
aVTOMEE-1548
p654
aVTOMEE-1547
p655
aVTOMEE-1546
p656
aVTOMEE-1545
p657
aVTOMEE-1544
p658
aVTOMEE-1543
p659
aVTOMEE-1542
p660
aVTOMEE-1541
p661
aVTOMEE-1540
p662
aVTOMEE-1539
p663
aVTOMEE-1538
p664
aVTOMEE-1537
p665
aVTOMEE-1535
p666
aVTOMEE-1534
p667
aVTOMEE-1533
p668
aVTOMEE-1532
p669
aVTOMEE-1531
p670
aVTOMEE-1530
p671
aVTOMEE-1529
p672
aVTOMEE-1528
p673
aVTOMEE-1527
p674
aVTOMEE-1526
p675
aVTOMEE-1525
p676
aVTOMEE-1524
p677
aVTOMEE-1523
p678
aVTOMEE-1522
p679
aVTOMEE-1521
p680
aVTOMEE-1520
p681
aVTOMEE-1519
p682
aVTOMEE-1518
p683
aVTOMEE-1517
p684
aVTOMEE-1516
p685
aVTOMEE-1515
p686
aVTOMEE-1514
p687
aVTOMEE-1513
p688
aVTOMEE-1512
p689
aVTOMEE-1511
p690
aVTOMEE-1510
p691
aVTOMEE-1509
p692
aVTOMEE-1508
p693
aVTOMEE-1507
p694
aVTOMEE-1506
p695
aVTOMEE-1505
p696
aVTOMEE-1504
p697
aVTOMEE-1503
p698
aVTOMEE-1502
p699
aVTOMEE-1501
p700
aVTOMEE-1500
p701
aVTOMEE-1499
p702
aVTOMEE-1498
p703
aVTOMEE-1497
p704
aVTOMEE-1496
p705
aVTOMEE-1495
p706
aVTOMEE-1494
p707
aVTOMEE-1493
p708
aVTOMEE-1492
p709
aVTOMEE-1491
p710
aVTOMEE-1490
p711
aVTOMEE-1489
p712
aVTOMEE-1488
p713
aVTOMEE-1487
p714
aVTOMEE-1486
p715
aVTOMEE-1485
p716
aVTOMEE-1484
p717
aVTOMEE-1483
p718
aVTOMEE-1482
p719
aVTOMEE-1481
p720
aVTOMEE-1480
p721
aVTOMEE-1479
p722
aVTOMEE-1478
p723
aVTOMEE-1477
p724
aVTOMEE-1476
p725
aVTOMEE-1475
p726
aVTOMEE-1473
p727
aVTOMEE-1472
p728
aVTOMEE-1471
p729
aVTOMEE-1470
p730
aVTOMEE-1469
p731
aVTOMEE-1468
p732
aVTOMEE-1467
p733
aVTOMEE-1466
p734
aVTOMEE-1465
p735
aVTOMEE-1464
p736
aVTOMEE-1463
p737
aVTOMEE-1462
p738
aVTOMEE-1461
p739
aVTOMEE-1460
p740
aVTOMEE-1458
p741
aVTOMEE-1457
p742
aVTOMEE-1456
p743
aVTOMEE-1455
p744
aVTOMEE-1454
p745
aVTOMEE-1453
p746
aVTOMEE-1452
p747
aVTOMEE-1451
p748
aVTOMEE-1450
p749
aVTOMEE-1449
p750
aVTOMEE-1448
p751
aVTOMEE-1447
p752
aVTOMEE-1446
p753
aVTOMEE-1445
p754
aVTOMEE-1444
p755
aVTOMEE-1443
p756
aVTOMEE-1442
p757
aVTOMEE-1441
p758
aVTOMEE-1440
p759
aVTOMEE-1439
p760
aVTOMEE-1438
p761
aVTOMEE-1437
p762
aVTOMEE-1436
p763
aVTOMEE-1435
p764
aVTOMEE-1434
p765
aVTOMEE-1433
p766
aVTOMEE-1432
p767
aVTOMEE-1431
p768
aVTOMEE-1430
p769
aVTOMEE-1429
p770
aVTOMEE-1428
p771
aVTOMEE-1427
p772
aVTOMEE-1426
p773
aVTOMEE-1425
p774
aVTOMEE-1424
p775
aVTOMEE-1423
p776
aVTOMEE-1422
p777
aVTOMEE-1421
p778
aVTOMEE-1420
p779
aVTOMEE-1419
p780
aVTOMEE-1418
p781
aVTOMEE-1417
p782
aVTOMEE-1416
p783
aVTOMEE-1415
p784
aVTOMEE-1414
p785
aVTOMEE-1413
p786
aVTOMEE-1412
p787
aVTOMEE-1411
p788
aVTOMEE-1410
p789
aVTOMEE-1409
p790
aVTOMEE-1408
p791
aVTOMEE-1407
p792
aVTOMEE-1406
p793
aVTOMEE-1405
p794
aVTOMEE-1404
p795
aVTOMEE-1403
p796
aVTOMEE-1402
p797
aVTOMEE-1401
p798
aVTOMEE-1400
p799
aVTOMEE-1399
p800
aVTOMEE-1398
p801
aVTOMEE-1397
p802
aVTOMEE-1396
p803
aVTOMEE-1395
p804
aVTOMEE-1394
p805
aVTOMEE-1393
p806
aVTOMEE-1392
p807
aVTOMEE-1391
p808
aVTOMEE-1390
p809
aVTOMEE-1389
p810
aVTOMEE-1388
p811
aVTOMEE-1387
p812
aVTOMEE-1386
p813
aVTOMEE-1385
p814
aVTOMEE-1384
p815
aVTOMEE-1383
p816
aVTOMEE-1382
p817
aVTOMEE-1381
p818
aVTOMEE-1380
p819
aVTOMEE-1379
p820
aVTOMEE-1378
p821
aVTOMEE-1377
p822
aVTOMEE-1376
p823
aVTOMEE-1375
p824
aVTOMEE-1374
p825
aVTOMEE-1373
p826
aVTOMEE-1372
p827
aVTOMEE-1371
p828
aVTOMEE-1370
p829
aVTOMEE-1369
p830
aVTOMEE-1368
p831
aVTOMEE-1367
p832
aVTOMEE-1366
p833
aVTOMEE-1365
p834
aVTOMEE-1364
p835
aVTOMEE-1363
p836
aVTOMEE-1362
p837
aVTOMEE-1361
p838
aVTOMEE-1360
p839
aVTOMEE-1359
p840
aVTOMEE-1358
p841
aVTOMEE-1357
p842
aVTOMEE-1356
p843
aVTOMEE-1355
p844
aVTOMEE-1354
p845
aVTOMEE-1353
p846
aVTOMEE-1352
p847
aVTOMEE-1351
p848
aVTOMEE-1350
p849
aVTOMEE-1349
p850
aVTOMEE-1348
p851
aVTOMEE-1347
p852
aVTOMEE-1346
p853
aVTOMEE-1345
p854
aVTOMEE-1344
p855
aVTOMEE-1343
p856
aVTOMEE-1342
p857
aVTOMEE-1341
p858
aVTOMEE-1340
p859
aVTOMEE-1339
p860
aVTOMEE-1338
p861
aVTOMEE-1337
p862
aVTOMEE-1336
p863
aVTOMEE-1335
p864
aVTOMEE-1334
p865
aVTOMEE-1333
p866
aVTOMEE-1332
p867
aVTOMEE-1331
p868
aVTOMEE-1330
p869
aVTOMEE-1329
p870
aVTOMEE-1328
p871
aVTOMEE-1327
p872
aVTOMEE-1326
p873
aVTOMEE-1325
p874
aVTOMEE-1324
p875
aVTOMEE-1323
p876
aVTOMEE-1322
p877
aVTOMEE-1321
p878
aVTOMEE-1320
p879
aVTOMEE-1319
p880
aVTOMEE-1318
p881
aVTOMEE-1317
p882
aVTOMEE-1316
p883
aVTOMEE-1315
p884
aVTOMEE-1314
p885
aVTOMEE-1313
p886
aVTOMEE-1312
p887
aVTOMEE-1311
p888
aVTOMEE-1310
p889
aVTOMEE-1309
p890
aVTOMEE-1308
p891
aVTOMEE-1307
p892
aVTOMEE-1306
p893
aVTOMEE-1305
p894
aVTOMEE-1304
p895
aVTOMEE-1303
p896
aVTOMEE-1302
p897
aVTOMEE-1301
p898
aVTOMEE-1300
p899
aVTOMEE-1299
p900
aVTOMEE-1298
p901
aVTOMEE-1297
p902
aVTOMEE-1296
p903
aVTOMEE-1295
p904
aVTOMEE-1294
p905
aVTOMEE-1293
p906
aVTOMEE-1292
p907
aVTOMEE-1291
p908
aVTOMEE-1290
p909
aVTOMEE-1289
p910
aVTOMEE-1288
p911
aVTOMEE-1287
p912
aVTOMEE-1286
p913
aVTOMEE-1285
p914
aVTOMEE-1284
p915
aVTOMEE-1283
p916
aVTOMEE-1282
p917
aVTOMEE-1281
p918
aVTOMEE-1280
p919
aVTOMEE-1279
p920
aVTOMEE-1278
p921
aVTOMEE-1277
p922
aVTOMEE-1276
p923
aVTOMEE-1275
p924
aVTOMEE-1274
p925
aVTOMEE-1273
p926
aVTOMEE-1272
p927
aVTOMEE-1271
p928
aVTOMEE-1270
p929
aVTOMEE-1269
p930
aVTOMEE-1268
p931
aVTOMEE-1267
p932
aVTOMEE-1266
p933
aVTOMEE-1265
p934
aVTOMEE-1264
p935
aVTOMEE-1263
p936
aVTOMEE-1262
p937
aVTOMEE-1261
p938
aVTOMEE-1260
p939
aVTOMEE-1259
p940
aVTOMEE-1258
p941
aVTOMEE-1257
p942
aVTOMEE-1256
p943
aVTOMEE-1255
p944
aVTOMEE-1254
p945
aVTOMEE-1253
p946
aVTOMEE-1252
p947
aVTOMEE-1251
p948
aVTOMEE-1250
p949
aVTOMEE-1249
p950
aVTOMEE-1248
p951
aVTOMEE-1247
p952
aVTOMEE-1246
p953
aVTOMEE-1245
p954
aVTOMEE-1244
p955
aVTOMEE-1243
p956
aVTOMEE-1242
p957
aVTOMEE-1241
p958
aVTOMEE-1240
p959
aVTOMEE-1239
p960
aVTOMEE-1238
p961
aVTOMEE-1237
p962
aVTOMEE-1236
p963
aVTOMEE-1235
p964
aVTOMEE-1234
p965
aVTOMEE-1233
p966
aVTOMEE-1232
p967
aVTOMEE-1231
p968
aVTOMEE-1230
p969
aVTOMEE-1229
p970
aVTOMEE-1228
p971
aVTOMEE-1227
p972
aVTOMEE-1226
p973
aVTOMEE-1225
p974
aVTOMEE-1224
p975
aVTOMEE-1223
p976
aVTOMEE-1222
p977
aVTOMEE-1221
p978
aVTOMEE-1220
p979
aVTOMEE-1219
p980
aVTOMEE-1218
p981
aVTOMEE-1217
p982
aVTOMEE-1216
p983
aVTOMEE-1215
p984
aVTOMEE-1214
p985
aVTOMEE-1213
p986
aVTOMEE-1212
p987
aVTOMEE-1211
p988
aVTOMEE-1210
p989
aVTOMEE-1209
p990
aVTOMEE-1208
p991
aVTOMEE-1207
p992
aVTOMEE-1206
p993
aVTOMEE-1205
p994
aVTOMEE-1204
p995
aVTOMEE-1203
p996
aVTOMEE-1202
p997
aVTOMEE-1201
p998
aVTOMEE-1200
p999
aVTOMEE-1199
p1000
aVTOMEE-1198
p1001
aVTOMEE-1197
p1002
aVTOMEE-1196
p1003
aVTOMEE-1195
p1004
aVTOMEE-1194
p1005
aVTOMEE-1193
p1006
aVTOMEE-1192
p1007
aVTOMEE-1191
p1008
aVTOMEE-1190
p1009
aVTOMEE-1189
p1010
aVTOMEE-1188
p1011
aVTOMEE-1187
p1012
aVTOMEE-1186
p1013
aVTOMEE-1185
p1014
aVTOMEE-1184
p1015
aVTOMEE-1183
p1016
aVTOMEE-1182
p1017
aVTOMEE-1181
p1018
aVTOMEE-1180
p1019
aVTOMEE-1179
p1020
aVTOMEE-1178
p1021
aVTOMEE-1177
p1022
aVTOMEE-1176
p1023
aVTOMEE-1175
p1024
aVTOMEE-1174
p1025
aVTOMEE-1173
p1026
aVTOMEE-1172
p1027
aVTOMEE-1171
p1028
aVTOMEE-1170
p1029
aVTOMEE-1169
p1030
aVTOMEE-1168
p1031
aVTOMEE-1167
p1032
aVTOMEE-1166
p1033
aVTOMEE-1165
p1034
aVTOMEE-1164
p1035
aVTOMEE-1163
p1036
aVTOMEE-1162
p1037
aVTOMEE-1161
p1038
aVTOMEE-1160
p1039
aVTOMEE-1159
p1040
aVTOMEE-1158
p1041
aVTOMEE-1157
p1042
aVTOMEE-1156
p1043
aVTOMEE-1155
p1044
aVTOMEE-1154
p1045
aVTOMEE-1153
p1046
aVTOMEE-1152
p1047
aVTOMEE-1151
p1048
aVTOMEE-1150
p1049
aVTOMEE-1149
p1050
aVTOMEE-1148
p1051
aVTOMEE-1147
p1052
aVTOMEE-1146
p1053
aVTOMEE-1145
p1054
aVTOMEE-1144
p1055
aVTOMEE-1143
p1056
aVTOMEE-1142
p1057
aVTOMEE-1141
p1058
aVTOMEE-1140
p1059
aVTOMEE-1139
p1060
aVTOMEE-1138
p1061
aVTOMEE-1137
p1062
aVTOMEE-1136
p1063
aVTOMEE-1135
p1064
aVTOMEE-1134
p1065
aVTOMEE-1133
p1066
aVTOMEE-1132
p1067
aVTOMEE-1131
p1068
aVTOMEE-1130
p1069
aVTOMEE-1129
p1070
aVTOMEE-1128
p1071
aVTOMEE-1127
p1072
aVTOMEE-1126
p1073
aVTOMEE-1125
p1074
aVTOMEE-1124
p1075
aVTOMEE-1123
p1076
aVTOMEE-1122
p1077
aVTOMEE-1121
p1078
aVTOMEE-1120
p1079
aVTOMEE-1119
p1080
aVTOMEE-1118
p1081
aVTOMEE-1117
p1082
aVTOMEE-1116
p1083
aVTOMEE-1115
p1084
aVTOMEE-1114
p1085
aVTOMEE-1113
p1086
aVTOMEE-1112
p1087
aVTOMEE-1111
p1088
aVTOMEE-1110
p1089
aVTOMEE-1109
p1090
aVTOMEE-1108
p1091
aVTOMEE-1107
p1092
aVTOMEE-1106
p1093
aVTOMEE-1105
p1094
aVTOMEE-1104
p1095
aVTOMEE-1103
p1096
aVTOMEE-1102
p1097
aVTOMEE-1101
p1098
aVTOMEE-1100
p1099
aVTOMEE-1099
p1100
aVTOMEE-1098
p1101
aVTOMEE-1097
p1102
aVTOMEE-1096
p1103
aVTOMEE-1095
p1104
aVTOMEE-1094
p1105
aVTOMEE-1093
p1106
aVTOMEE-1092
p1107
aVTOMEE-1091
p1108
aVTOMEE-1090
p1109
aVTOMEE-1089
p1110
aVTOMEE-1088
p1111
aVTOMEE-1087
p1112
aVTOMEE-1086
p1113
aVTOMEE-1085
p1114
aVTOMEE-1084
p1115
aVTOMEE-1083
p1116
aVTOMEE-1082
p1117
aVTOMEE-1081
p1118
aVTOMEE-1080
p1119
aVTOMEE-1079
p1120
aVTOMEE-1078
p1121
aVTOMEE-1077
p1122
aVTOMEE-1076
p1123
aVTOMEE-1075
p1124
aVTOMEE-1074
p1125
aVTOMEE-1073
p1126
aVTOMEE-1072
p1127
aVTOMEE-1071
p1128
aVTOMEE-1070
p1129
aVTOMEE-1069
p1130
aVTOMEE-1068
p1131
aVTOMEE-1067
p1132
aVTOMEE-1066
p1133
aVTOMEE-1065
p1134
aVTOMEE-1064
p1135
aVTOMEE-1063
p1136
aVTOMEE-1062
p1137
aVTOMEE-1061
p1138
aVTOMEE-1060
p1139
aVTOMEE-1059
p1140
aVTOMEE-1058
p1141
aVTOMEE-1057
p1142
aVTOMEE-1056
p1143
aVTOMEE-1055
p1144
aVTOMEE-1054
p1145
aVTOMEE-1053
p1146
aVTOMEE-1052
p1147
aVTOMEE-1051
p1148
aVTOMEE-1050
p1149
aVTOMEE-1049
p1150
aVTOMEE-1048
p1151
aVTOMEE-1047
p1152
aVTOMEE-1046
p1153
aVTOMEE-1045
p1154
aVTOMEE-1044
p1155
aVTOMEE-1043
p1156
aVTOMEE-1041
p1157
aVTOMEE-1040
p1158
aVTOMEE-1039
p1159
aVTOMEE-1038
p1160
aVTOMEE-1037
p1161
aVTOMEE-1036
p1162
aVTOMEE-1035
p1163
aVTOMEE-1034
p1164
aVTOMEE-1033
p1165
aVTOMEE-1032
p1166
aVTOMEE-1031
p1167
aVTOMEE-1030
p1168
aVTOMEE-1029
p1169
aVTOMEE-1028
p1170
aVTOMEE-1027
p1171
aVTOMEE-1026
p1172
aVTOMEE-1025
p1173
aVTOMEE-1024
p1174
aVTOMEE-1023
p1175
aVTOMEE-1022
p1176
aVTOMEE-1021
p1177
aVTOMEE-1020
p1178
aVTOMEE-1019
p1179
aVTOMEE-1018
p1180
aVTOMEE-1017
p1181
aVTOMEE-1016
p1182
aVTOMEE-1015
p1183
aVTOMEE-1014
p1184
aVTOMEE-1013
p1185
aVTOMEE-1012
p1186
aVTOMEE-1011
p1187
aVTOMEE-1010
p1188
aVTOMEE-1009
p1189
aVTOMEE-1008
p1190
aVTOMEE-1007
p1191
aVTOMEE-1006
p1192
aVTOMEE-1005
p1193
aVTOMEE-1004
p1194
aVTOMEE-1002
p1195
aVTOMEE-1001
p1196
aVTOMEE-1000
p1197
aVTOMEE-999
p1198
aVTOMEE-998
p1199
aVTOMEE-997
p1200
aVTOMEE-996
p1201
aVTOMEE-995
p1202
aVTOMEE-994
p1203
aVTOMEE-993
p1204
aVTOMEE-992
p1205
aVTOMEE-991
p1206
aVTOMEE-990
p1207
aVTOMEE-989
p1208
aVTOMEE-988
p1209
aVTOMEE-987
p1210
aVTOMEE-986
p1211
aVTOMEE-985
p1212
aVTOMEE-984
p1213
aVTOMEE-983
p1214
aVTOMEE-982
p1215
aVTOMEE-981
p1216
aVTOMEE-980
p1217
aVTOMEE-979
p1218
aVTOMEE-978
p1219
aVTOMEE-977
p1220
aVTOMEE-976
p1221
aVTOMEE-975
p1222
aVTOMEE-974
p1223
aVTOMEE-973
p1224
aVTOMEE-972
p1225
aVTOMEE-971
p1226
aVTOMEE-970
p1227
aVTOMEE-969
p1228
aVTOMEE-968
p1229
aVTOMEE-967
p1230
aVTOMEE-966
p1231
aVTOMEE-965
p1232
aVTOMEE-964
p1233
aVTOMEE-963
p1234
aVTOMEE-962
p1235
aVTOMEE-961
p1236
aVTOMEE-960
p1237
aVTOMEE-959
p1238
aVTOMEE-958
p1239
aVTOMEE-957
p1240
aVTOMEE-956
p1241
aVTOMEE-955
p1242
aVTOMEE-954
p1243
aVTOMEE-953
p1244
aVTOMEE-952
p1245
aVTOMEE-951
p1246
aVTOMEE-950
p1247
aVTOMEE-949
p1248
aVTOMEE-948
p1249
aVTOMEE-947
p1250
aVTOMEE-946
p1251
aVTOMEE-945
p1252
aVTOMEE-944
p1253
aVTOMEE-943
p1254
aVTOMEE-942
p1255
aVTOMEE-941
p1256
aVTOMEE-940
p1257
aVTOMEE-939
p1258
aVTOMEE-938
p1259
aVTOMEE-937
p1260
aVTOMEE-936
p1261
aVTOMEE-935
p1262
aVTOMEE-934
p1263
aVTOMEE-933
p1264
aVTOMEE-932
p1265
aVTOMEE-931
p1266
aVTOMEE-930
p1267
aVTOMEE-929
p1268
aVTOMEE-928
p1269
aVTOMEE-927
p1270
aVTOMEE-926
p1271
aVTOMEE-925
p1272
aVTOMEE-924
p1273
aVTOMEE-923
p1274
aVTOMEE-922
p1275
aVTOMEE-921
p1276
aVTOMEE-920
p1277
aVTOMEE-919
p1278
aVTOMEE-918
p1279
aVTOMEE-917
p1280
aVTOMEE-916
p1281
aVTOMEE-915
p1282
aVTOMEE-914
p1283
aVTOMEE-913
p1284
aVTOMEE-912
p1285
aVTOMEE-911
p1286
aVTOMEE-910
p1287
aVTOMEE-909
p1288
aVTOMEE-908
p1289
aVTOMEE-907
p1290
aVTOMEE-906
p1291
aVTOMEE-905
p1292
aVTOMEE-904
p1293
aVTOMEE-903
p1294
aVTOMEE-902
p1295
aVTOMEE-901
p1296
aVTOMEE-900
p1297
aVTOMEE-899
p1298
aVTOMEE-898
p1299
aVTOMEE-897
p1300
aVTOMEE-896
p1301
aVTOMEE-895
p1302
aVTOMEE-894
p1303
aVTOMEE-893
p1304
aVTOMEE-892
p1305
aVTOMEE-891
p1306
aVTOMEE-890
p1307
aVTOMEE-889
p1308
aVTOMEE-888
p1309
aVTOMEE-887
p1310
aVTOMEE-886
p1311
aVTOMEE-885
p1312
aVTOMEE-884
p1313
aVTOMEE-883
p1314
aVTOMEE-882
p1315
aVTOMEE-881
p1316
aVTOMEE-880
p1317
aVTOMEE-879
p1318
aVTOMEE-878
p1319
aVTOMEE-877
p1320
aVTOMEE-876
p1321
aVTOMEE-875
p1322
aVTOMEE-874
p1323
aVTOMEE-873
p1324
aVTOMEE-872
p1325
aVTOMEE-871
p1326
aVTOMEE-870
p1327
aVTOMEE-869
p1328
aVTOMEE-868
p1329
aVTOMEE-867
p1330
aVTOMEE-866
p1331
aVTOMEE-865
p1332
aVTOMEE-864
p1333
aVTOMEE-863
p1334
aVTOMEE-862
p1335
aVTOMEE-861
p1336
aVTOMEE-860
p1337
aVTOMEE-859
p1338
aVTOMEE-858
p1339
aVTOMEE-857
p1340
aVTOMEE-856
p1341
aVTOMEE-855
p1342
aVTOMEE-854
p1343
aVTOMEE-853
p1344
aVTOMEE-852
p1345
aVTOMEE-851
p1346
aVTOMEE-850
p1347
aVTOMEE-849
p1348
aVTOMEE-848
p1349
aVTOMEE-847
p1350
aVTOMEE-846
p1351
aVTOMEE-845
p1352
aVTOMEE-844
p1353
aVTOMEE-843
p1354
aVTOMEE-842
p1355
aVTOMEE-841
p1356
aVTOMEE-840
p1357
aVTOMEE-839
p1358
aVTOMEE-838
p1359
aVTOMEE-837
p1360
aVTOMEE-836
p1361
aVTOMEE-835
p1362
aVTOMEE-834
p1363
aVTOMEE-833
p1364
aVTOMEE-832
p1365
aVTOMEE-831
p1366
aVTOMEE-830
p1367
aVTOMEE-829
p1368
aVTOMEE-828
p1369
aVTOMEE-827
p1370
aVTOMEE-826
p1371
aVTOMEE-825
p1372
aVTOMEE-824
p1373
aVTOMEE-823
p1374
aVTOMEE-822
p1375
aVTOMEE-821
p1376
aVTOMEE-820
p1377
aVTOMEE-819
p1378
aVTOMEE-818
p1379
aVTOMEE-817
p1380
aVTOMEE-816
p1381
aVTOMEE-815
p1382
aVTOMEE-814
p1383
aVTOMEE-813
p1384
aVTOMEE-812
p1385
aVTOMEE-811
p1386
aVTOMEE-810
p1387
aVTOMEE-809
p1388
aVTOMEE-808
p1389
aVTOMEE-807
p1390
aVTOMEE-806
p1391
aVTOMEE-805
p1392
aVTOMEE-804
p1393
aVTOMEE-803
p1394
aVTOMEE-802
p1395
aVTOMEE-801
p1396
aVTOMEE-800
p1397
aVTOMEE-799
p1398
aVTOMEE-798
p1399
aVTOMEE-797
p1400
aVTOMEE-796
p1401
aVTOMEE-795
p1402
aVTOMEE-794
p1403
aVTOMEE-793
p1404
aVTOMEE-792
p1405
aVTOMEE-791
p1406
aVTOMEE-790
p1407
aVTOMEE-789
p1408
aVTOMEE-788
p1409
aVTOMEE-787
p1410
aVTOMEE-786
p1411
aVTOMEE-785
p1412
aVTOMEE-784
p1413
aVTOMEE-783
p1414
aVTOMEE-782
p1415
aVTOMEE-781
p1416
aVTOMEE-780
p1417
aVTOMEE-779
p1418
aVTOMEE-778
p1419
aVTOMEE-777
p1420
aVTOMEE-776
p1421
aVTOMEE-775
p1422
aVTOMEE-774
p1423
aVTOMEE-773
p1424
aVTOMEE-772
p1425
aVTOMEE-771
p1426
aVTOMEE-770
p1427
aVTOMEE-769
p1428
aVTOMEE-768
p1429
aVTOMEE-767
p1430
aVTOMEE-766
p1431
aVTOMEE-765
p1432
aVTOMEE-764
p1433
aVTOMEE-763
p1434
aVTOMEE-762
p1435
aVTOMEE-761
p1436
aVTOMEE-760
p1437
aVTOMEE-759
p1438
aVTOMEE-758
p1439
aVTOMEE-757
p1440
aVTOMEE-756
p1441
aVTOMEE-755
p1442
aVTOMEE-754
p1443
aVTOMEE-753
p1444
aVTOMEE-752
p1445
aVTOMEE-751
p1446
aVTOMEE-750
p1447
aVTOMEE-749
p1448
aVTOMEE-748
p1449
aVTOMEE-747
p1450
aVTOMEE-746
p1451
aVTOMEE-745
p1452
aVTOMEE-744
p1453
aVTOMEE-743
p1454
aVTOMEE-742
p1455
aVTOMEE-741
p1456
aVTOMEE-740
p1457
aVTOMEE-739
p1458
aVTOMEE-738
p1459
aVTOMEE-737
p1460
aVTOMEE-736
p1461
aVTOMEE-735
p1462
aVTOMEE-734
p1463
aVTOMEE-733
p1464
aVTOMEE-732
p1465
aVTOMEE-731
p1466
aVTOMEE-730
p1467
aVTOMEE-729
p1468
aVTOMEE-728
p1469
aVTOMEE-727
p1470
aVTOMEE-726
p1471
aVTOMEE-725
p1472
aVTOMEE-724
p1473
aVTOMEE-723
p1474
aVTOMEE-722
p1475
aVTOMEE-721
p1476
aVTOMEE-720
p1477
aVTOMEE-719
p1478
aVTOMEE-717
p1479
aVTOMEE-716
p1480
aVTOMEE-715
p1481
aVTOMEE-714
p1482
aVTOMEE-713
p1483
aVTOMEE-712
p1484
aVTOMEE-711
p1485
aVTOMEE-710
p1486
aVTOMEE-709
p1487
aVTOMEE-708
p1488
aVTOMEE-707
p1489
aVTOMEE-705
p1490
aVTOMEE-704
p1491
aVTOMEE-703
p1492
aVTOMEE-702
p1493
aVTOMEE-701
p1494
aVTOMEE-700
p1495
aVTOMEE-699
p1496
aVTOMEE-698
p1497
aVTOMEE-697
p1498
aVTOMEE-696
p1499
aVTOMEE-695
p1500
aVTOMEE-694
p1501
aVTOMEE-693
p1502
aVTOMEE-692
p1503
aVTOMEE-691
p1504
aVTOMEE-690
p1505
aVTOMEE-689
p1506
aVTOMEE-688
p1507
aVTOMEE-687
p1508
aVTOMEE-686
p1509
aVTOMEE-685
p1510
aVTOMEE-684
p1511
aVTOMEE-683
p1512
aVTOMEE-682
p1513
aVTOMEE-681
p1514
aVTOMEE-680
p1515
aVTOMEE-679
p1516
aVTOMEE-678
p1517
aVTOMEE-677
p1518
aVTOMEE-676
p1519
aVTOMEE-675
p1520
aVTOMEE-674
p1521
aVTOMEE-673
p1522
aVTOMEE-672
p1523
aVTOMEE-671
p1524
aVTOMEE-670
p1525
aVTOMEE-669
p1526
aVTOMEE-668
p1527
aVTOMEE-667
p1528
aVTOMEE-666
p1529
aVTOMEE-665
p1530
aVTOMEE-664
p1531
aVTOMEE-663
p1532
aVTOMEE-662
p1533
aVTOMEE-661
p1534
aVTOMEE-660
p1535
aVTOMEE-659
p1536
aVTOMEE-658
p1537
aVTOMEE-657
p1538
aVTOMEE-656
p1539
aVTOMEE-655
p1540
aVTOMEE-654
p1541
aVTOMEE-653
p1542
aVTOMEE-652
p1543
aVTOMEE-651
p1544
aVTOMEE-650
p1545
aVTOMEE-648
p1546
aVTOMEE-647
p1547
aVTOMEE-646
p1548
aVTOMEE-645
p1549
aVTOMEE-644
p1550
aVTOMEE-643
p1551
aVTOMEE-642
p1552
aVTOMEE-641
p1553
aVTOMEE-640
p1554
aVTOMEE-639
p1555
aVTOMEE-638
p1556
aVTOMEE-637
p1557
aVTOMEE-636
p1558
aVTOMEE-635
p1559
aVTOMEE-634
p1560
aVTOMEE-633
p1561
aVTOMEE-632
p1562
aVTOMEE-631
p1563
aVTOMEE-630
p1564
aVTOMEE-629
p1565
aVTOMEE-628
p1566
aVTOMEE-627
p1567
aVTOMEE-626
p1568
aVTOMEE-625
p1569
aVTOMEE-624
p1570
aVTOMEE-623
p1571
aVTOMEE-622
p1572
aVTOMEE-621
p1573
aVTOMEE-620
p1574
aVTOMEE-619
p1575
aVTOMEE-618
p1576
aVTOMEE-617
p1577
aVTOMEE-616
p1578
aVTOMEE-615
p1579
aVTOMEE-614
p1580
aVTOMEE-613
p1581
aVTOMEE-612
p1582
aVTOMEE-611
p1583
aVTOMEE-610
p1584
aVTOMEE-609
p1585
aVTOMEE-608
p1586
aVTOMEE-607
p1587
aVTOMEE-606
p1588
aVTOMEE-605
p1589
aVTOMEE-604
p1590
aVTOMEE-603
p1591
aVTOMEE-602
p1592
aVTOMEE-601
p1593
aVTOMEE-600
p1594
aVTOMEE-599
p1595
aVTOMEE-598
p1596
aVTOMEE-597
p1597
aVTOMEE-596
p1598
aVTOMEE-595
p1599
aVTOMEE-594
p1600
aVTOMEE-593
p1601
aVTOMEE-592
p1602
aVTOMEE-591
p1603
aVTOMEE-590
p1604
aVTOMEE-589
p1605
aVTOMEE-588
p1606
aVTOMEE-587
p1607
aVTOMEE-586
p1608
aVTOMEE-585
p1609
aVTOMEE-584
p1610
aVTOMEE-583
p1611
aVTOMEE-582
p1612
aVTOMEE-581
p1613
aVTOMEE-580
p1614
aVTOMEE-579
p1615
aVTOMEE-578
p1616
aVTOMEE-577
p1617
aVTOMEE-576
p1618
aVTOMEE-575
p1619
aVTOMEE-574
p1620
aVTOMEE-573
p1621
aVTOMEE-572
p1622
aVTOMEE-571
p1623
aVTOMEE-570
p1624
aVTOMEE-569
p1625
aVTOMEE-568
p1626
aVTOMEE-567
p1627
aVTOMEE-566
p1628
aVTOMEE-565
p1629
aVTOMEE-564
p1630
aVTOMEE-563
p1631
aVTOMEE-562
p1632
aVTOMEE-561
p1633
aVTOMEE-560
p1634
aVTOMEE-559
p1635
aVTOMEE-558
p1636
aVTOMEE-557
p1637
aVTOMEE-556
p1638
aVTOMEE-555
p1639
aVTOMEE-554
p1640
aVTOMEE-553
p1641
aVTOMEE-552
p1642
aVTOMEE-551
p1643
aVTOMEE-550
p1644
aVTOMEE-549
p1645
aVTOMEE-548
p1646
aVTOMEE-547
p1647
aVTOMEE-546
p1648
aVTOMEE-545
p1649
aVTOMEE-544
p1650
aVTOMEE-543
p1651
aVTOMEE-542
p1652
aVTOMEE-541
p1653
aVTOMEE-540
p1654
aVTOMEE-539
p1655
aVTOMEE-538
p1656
aVTOMEE-537
p1657
aVTOMEE-536
p1658
aVTOMEE-535
p1659
aVTOMEE-534
p1660
aVTOMEE-533
p1661
aVTOMEE-532
p1662
aVTOMEE-531
p1663
aVTOMEE-530
p1664
aVTOMEE-529
p1665
aVTOMEE-528
p1666
aVTOMEE-527
p1667
aVTOMEE-526
p1668
aVTOMEE-525
p1669
aVTOMEE-524
p1670
aVTOMEE-523
p1671
aVTOMEE-522
p1672
aVTOMEE-521
p1673
aVTOMEE-520
p1674
aVTOMEE-519
p1675
aVTOMEE-518
p1676
aVTOMEE-517
p1677
aVTOMEE-516
p1678
aVTOMEE-515
p1679
aVTOMEE-514
p1680
aVTOMEE-513
p1681
aVTOMEE-512
p1682
aVTOMEE-511
p1683
aVTOMEE-510
p1684
aVTOMEE-509
p1685
aVTOMEE-508
p1686
aVTOMEE-507
p1687
aVTOMEE-506
p1688
aVTOMEE-505
p1689
aVTOMEE-504
p1690
aVTOMEE-503
p1691
aVTOMEE-502
p1692
aVTOMEE-501
p1693
aVTOMEE-500
p1694
aVTOMEE-499
p1695
aVTOMEE-498
p1696
aVTOMEE-497
p1697
aVTOMEE-496
p1698
aVTOMEE-495
p1699
aVTOMEE-494
p1700
aVTOMEE-493
p1701
aVTOMEE-492
p1702
aVTOMEE-491
p1703
aVTOMEE-490
p1704
aVTOMEE-489
p1705
aVTOMEE-488
p1706
aVTOMEE-487
p1707
aVTOMEE-486
p1708
aVTOMEE-485
p1709
aVTOMEE-484
p1710
aVTOMEE-483
p1711
aVTOMEE-482
p1712
aVTOMEE-481
p1713
aVTOMEE-480
p1714
aVTOMEE-479
p1715
aVTOMEE-478
p1716
aVTOMEE-477
p1717
aVTOMEE-476
p1718
aVTOMEE-475
p1719
aVTOMEE-474
p1720
aVTOMEE-473
p1721
aVTOMEE-472
p1722
aVTOMEE-471
p1723
aVTOMEE-470
p1724
aVTOMEE-469
p1725
aVTOMEE-468
p1726
aVTOMEE-467
p1727
aVTOMEE-466
p1728
aVTOMEE-465
p1729
aVTOMEE-464
p1730
aVTOMEE-463
p1731
aVTOMEE-462
p1732
aVTOMEE-461
p1733
aVTOMEE-460
p1734
aVTOMEE-459
p1735
aVTOMEE-458
p1736
aVTOMEE-457
p1737
aVTOMEE-456
p1738
aVTOMEE-455
p1739
aVTOMEE-454
p1740
aVTOMEE-453
p1741
aVTOMEE-452
p1742
aVTOMEE-451
p1743
aVTOMEE-450
p1744
aVTOMEE-449
p1745
aVTOMEE-448
p1746
aVTOMEE-447
p1747
aVTOMEE-446
p1748
aVTOMEE-445
p1749
aVTOMEE-444
p1750
aVTOMEE-443
p1751
aVTOMEE-442
p1752
aVTOMEE-441
p1753
aVTOMEE-440
p1754
aVTOMEE-439
p1755
aVTOMEE-438
p1756
aVTOMEE-437
p1757
aVTOMEE-436
p1758
aVTOMEE-435
p1759
aVTOMEE-434
p1760
aVTOMEE-433
p1761
aVTOMEE-432
p1762
aVTOMEE-431
p1763
aVTOMEE-430
p1764
aVTOMEE-429
p1765
aVTOMEE-428
p1766
aVTOMEE-427
p1767
aVTOMEE-426
p1768
aVTOMEE-425
p1769
aVTOMEE-424
p1770
aVTOMEE-423
p1771
aVTOMEE-422
p1772
aVTOMEE-421
p1773
aVTOMEE-420
p1774
aVTOMEE-419
p1775
aVTOMEE-418
p1776
aVTOMEE-417
p1777
aVTOMEE-416
p1778
aVTOMEE-415
p1779
aVTOMEE-414
p1780
aVTOMEE-413
p1781
aVTOMEE-412
p1782
aVTOMEE-411
p1783
aVTOMEE-410
p1784
aVTOMEE-409
p1785
aVTOMEE-408
p1786
aVTOMEE-407
p1787
aVTOMEE-406
p1788
aVTOMEE-405
p1789
aVTOMEE-404
p1790
aVTOMEE-403
p1791
aVTOMEE-402
p1792
aVTOMEE-401
p1793
aVTOMEE-400
p1794
aVTOMEE-399
p1795
aVTOMEE-398
p1796
aVTOMEE-397
p1797
aVTOMEE-396
p1798
aVTOMEE-395
p1799
aVTOMEE-394
p1800
aVTOMEE-393
p1801
aVTOMEE-392
p1802
aVTOMEE-391
p1803
aVTOMEE-390
p1804
aVTOMEE-389
p1805
aVTOMEE-388
p1806
aVTOMEE-387
p1807
aVTOMEE-386
p1808
aVTOMEE-385
p1809
aVTOMEE-384
p1810
aVTOMEE-383
p1811
aVTOMEE-382
p1812
aVTOMEE-381
p1813
aVTOMEE-380
p1814
aVTOMEE-379
p1815
aVTOMEE-378
p1816
aVTOMEE-377
p1817
aVTOMEE-376
p1818
aVTOMEE-375
p1819
aVTOMEE-374
p1820
aVTOMEE-373
p1821
aVTOMEE-372
p1822
aVTOMEE-371
p1823
aVTOMEE-370
p1824
aVTOMEE-369
p1825
aVTOMEE-368
p1826
aVTOMEE-367
p1827
aVTOMEE-366
p1828
aVTOMEE-365
p1829
aVTOMEE-364
p1830
aVTOMEE-363
p1831
aVTOMEE-362
p1832
aVTOMEE-361
p1833
aVTOMEE-360
p1834
aVTOMEE-359
p1835
aVTOMEE-358
p1836
aVTOMEE-357
p1837
aVTOMEE-356
p1838
aVTOMEE-355
p1839
aVTOMEE-354
p1840
aVTOMEE-353
p1841
aVTOMEE-352
p1842
aVTOMEE-351
p1843
aVTOMEE-350
p1844
aVTOMEE-349
p1845
aVTOMEE-348
p1846
aVTOMEE-347
p1847
aVTOMEE-346
p1848
aVTOMEE-345
p1849
aVTOMEE-344
p1850
aVTOMEE-343
p1851
aVTOMEE-342
p1852
aVTOMEE-341
p1853
aVTOMEE-340
p1854
aVTOMEE-339
p1855
aVTOMEE-338
p1856
aVTOMEE-337
p1857
aVTOMEE-336
p1858
aVTOMEE-335
p1859
aVTOMEE-334
p1860
aVTOMEE-333
p1861
aVTOMEE-332
p1862
aVTOMEE-331
p1863
aVTOMEE-330
p1864
aVTOMEE-329
p1865
aVTOMEE-328
p1866
aVTOMEE-327
p1867
aVTOMEE-326
p1868
aVTOMEE-325
p1869
aVTOMEE-324
p1870
aVTOMEE-323
p1871
aVTOMEE-322
p1872
aVTOMEE-321
p1873
aVTOMEE-320
p1874
aVTOMEE-319
p1875
aVTOMEE-318
p1876
aVTOMEE-317
p1877
aVTOMEE-316
p1878
aVTOMEE-315
p1879
aVTOMEE-314
p1880
aVTOMEE-313
p1881
aVTOMEE-312
p1882
aVTOMEE-311
p1883
aVTOMEE-310
p1884
aVTOMEE-309
p1885
aVTOMEE-308
p1886
aVTOMEE-307
p1887
aVTOMEE-306
p1888
aVTOMEE-303
p1889
aVTOMEE-302
p1890
aVTOMEE-301
p1891
aVTOMEE-300
p1892
aVTOMEE-299
p1893
aVTOMEE-298
p1894
aVTOMEE-297
p1895
aVTOMEE-296
p1896
aVTOMEE-295
p1897
aVTOMEE-294
p1898
aVTOMEE-283
p1899
aVTOMEE-282
p1900
aVTOMEE-281
p1901
aVTOMEE-280
p1902
aVTOMEE-279
p1903
aVTOMEE-278
p1904
aVTOMEE-277
p1905
aVTOMEE-276
p1906
aVTOMEE-275
p1907
aVTOMEE-274
p1908
aVTOMEE-273
p1909
aVTOMEE-272
p1910
aVTOMEE-271
p1911
aVTOMEE-270
p1912
aVTOMEE-269
p1913
aVTOMEE-268
p1914
aVTOMEE-267
p1915
aVTOMEE-266
p1916
aVTOMEE-265
p1917
aVTOMEE-264
p1918
aVTOMEE-263
p1919
aVTOMEE-262
p1920
aVTOMEE-261
p1921
aVTOMEE-260
p1922
aVTOMEE-259
p1923
aVTOMEE-258
p1924
aVTOMEE-257
p1925
aVTOMEE-256
p1926
aVTOMEE-255
p1927
aVTOMEE-254
p1928
aVTOMEE-253
p1929
aVTOMEE-252
p1930
aVTOMEE-251
p1931
aVTOMEE-250
p1932
aVTOMEE-249
p1933
aVTOMEE-248
p1934
aVTOMEE-247
p1935
aVTOMEE-246
p1936
aVTOMEE-245
p1937
aVTOMEE-244
p1938
aVTOMEE-243
p1939
aVTOMEE-242
p1940
aVTOMEE-241
p1941
aVTOMEE-240
p1942
aVTOMEE-239
p1943
aVTOMEE-238
p1944
aVTOMEE-237
p1945
aVTOMEE-236
p1946
aVTOMEE-235
p1947
aVTOMEE-234
p1948
aVTOMEE-233
p1949
aVTOMEE-232
p1950
aVTOMEE-231
p1951
aVTOMEE-230
p1952
aVTOMEE-229
p1953
aVTOMEE-228
p1954
aVTOMEE-227
p1955
aVTOMEE-226
p1956
aVTOMEE-225
p1957
aVTOMEE-224
p1958
aVTOMEE-223
p1959
aVTOMEE-222
p1960
aVTOMEE-221
p1961
aVTOMEE-220
p1962
aVTOMEE-219
p1963
aVTOMEE-218
p1964
aVTOMEE-217
p1965
aVTOMEE-216
p1966
aVTOMEE-215
p1967
aVTOMEE-214
p1968
aVTOMEE-213
p1969
aVTOMEE-212
p1970
aVTOMEE-211
p1971
aVTOMEE-210
p1972
aVTOMEE-209
p1973
aVTOMEE-208
p1974
aVTOMEE-207
p1975
aVTOMEE-205
p1976
aVTOMEE-204
p1977
aVTOMEE-203
p1978
aVTOMEE-202
p1979
aVTOMEE-201
p1980
aVTOMEE-200
p1981
aVTOMEE-199
p1982
aVTOMEE-198
p1983
aVTOMEE-197
p1984
aVTOMEE-196
p1985
aVTOMEE-194
p1986
aVTOMEE-193
p1987
aVTOMEE-192
p1988
aVTOMEE-191
p1989
aVTOMEE-190
p1990
aVTOMEE-189
p1991
aVTOMEE-188
p1992
aVTOMEE-187
p1993
aVTOMEE-186
p1994
aVTOMEE-185
p1995
aVTOMEE-184
p1996
aVTOMEE-183
p1997
aVTOMEE-182
p1998
aVTOMEE-181
p1999
aVTOMEE-180
p2000
aVTOMEE-179
p2001
aVTOMEE-178
p2002
aVTOMEE-177
p2003
aVTOMEE-176
p2004
aVTOMEE-175
p2005
aVTOMEE-174
p2006
aVTOMEE-173
p2007
aVTOMEE-172
p2008
aVTOMEE-171
p2009
aVTOMEE-170
p2010
aVTOMEE-169
p2011
aVTOMEE-168
p2012
aVTOMEE-167
p2013
aVTOMEE-166
p2014
aVTOMEE-165
p2015
aVTOMEE-164
p2016
aVTOMEE-163
p2017
aVTOMEE-162
p2018
aVTOMEE-161
p2019
aVTOMEE-160
p2020
aVTOMEE-159
p2021
aVTOMEE-158
p2022
aVTOMEE-157
p2023
aVTOMEE-156
p2024
aVTOMEE-155
p2025
aVTOMEE-154
p2026
aVTOMEE-153
p2027
aVTOMEE-152
p2028
aVTOMEE-151
p2029
aVTOMEE-150
p2030
aVTOMEE-149
p2031
aVTOMEE-148
p2032
aVTOMEE-147
p2033
aVTOMEE-146
p2034
aVTOMEE-145
p2035
aVTOMEE-144
p2036
aVTOMEE-143
p2037
aVTOMEE-141
p2038
aVTOMEE-140
p2039
aVTOMEE-139
p2040
aVTOMEE-138
p2041
aVTOMEE-137
p2042
aVTOMEE-136
p2043
aVTOMEE-135
p2044
aVTOMEE-134
p2045
aVTOMEE-133
p2046
aVTOMEE-132
p2047
aVTOMEE-131
p2048
aVTOMEE-130
p2049
aVTOMEE-129
p2050
aVTOMEE-128
p2051
aVTOMEE-127
p2052
aVTOMEE-126
p2053
aVTOMEE-125
p2054
aVTOMEE-124
p2055
aVTOMEE-123
p2056
aVTOMEE-122
p2057
aVTOMEE-121
p2058
aVTOMEE-120
p2059
aVTOMEE-119
p2060
aVTOMEE-118
p2061
aVTOMEE-117
p2062
aVTOMEE-116
p2063
aVTOMEE-115
p2064
aVTOMEE-114
p2065
aVTOMEE-113
p2066
aVTOMEE-112
p2067
aVTOMEE-111
p2068
aVTOMEE-110
p2069
aVTOMEE-109
p2070
aVTOMEE-108
p2071
aVTOMEE-107
p2072
aVTOMEE-106
p2073
aVTOMEE-105
p2074
aVTOMEE-104
p2075
aVTOMEE-103
p2076
aVTOMEE-102
p2077
aVTOMEE-101
p2078
aVTOMEE-100
p2079
aVTOMEE-99
p2080
aVTOMEE-98
p2081
aVTOMEE-97
p2082
aVTOMEE-96
p2083
aVTOMEE-95
p2084
aVTOMEE-94
p2085
aVTOMEE-93
p2086
aVTOMEE-92
p2087
aVTOMEE-91
p2088
aVTOMEE-90
p2089
aVTOMEE-89
p2090
aVTOMEE-88
p2091
aVTOMEE-87
p2092
aVTOMEE-86
p2093
aVTOMEE-85
p2094
aVTOMEE-84
p2095
aVTOMEE-83
p2096
aVTOMEE-82
p2097
aVTOMEE-81
p2098
aVTOMEE-80
p2099
aVTOMEE-79
p2100
aVTOMEE-78
p2101
aVTOMEE-77
p2102
aVTOMEE-76
p2103
aVTOMEE-75
p2104
aVTOMEE-74
p2105
aVTOMEE-73
p2106
aVTOMEE-72
p2107
aVTOMEE-71
p2108
aVTOMEE-66
p2109
aVTOMEE-65
p2110
aVTOMEE-64
p2111
aVTOMEE-63
p2112
aVTOMEE-62
p2113
aVTOMEE-61
p2114
aVTOMEE-60
p2115
aVTOMEE-59
p2116
aVTOMEE-58
p2117
aVTOMEE-57
p2118
aVTOMEE-56
p2119
aVTOMEE-55
p2120
aVTOMEE-54
p2121
aVTOMEE-53
p2122
aVTOMEE-52
p2123
aVTOMEE-51
p2124
aVTOMEE-50
p2125
aVTOMEE-49
p2126
aVTOMEE-48
p2127
aVTOMEE-47
p2128
aVTOMEE-46
p2129
aVTOMEE-45
p2130
aVTOMEE-44
p2131
aVTOMEE-43
p2132
aVTOMEE-42
p2133
aVTOMEE-41
p2134
aVTOMEE-40
p2135
aVTOMEE-39
p2136
aVTOMEE-38
p2137
aVTOMEE-37
p2138
aVTOMEE-36
p2139
aVTOMEE-35
p2140
aVTOMEE-34
p2141
aVTOMEE-33
p2142
aVTOMEE-32
p2143
aVTOMEE-31
p2144
aVTOMEE-30
p2145
aVTOMEE-29
p2146
aVTOMEE-28
p2147
aVTOMEE-27
p2148
aVTOMEE-26
p2149
aVTOMEE-25
p2150
aVTOMEE-24
p2151
aVTOMEE-23
p2152
aVTOMEE-22
p2153
aVTOMEE-21
p2154
aVTOMEE-20
p2155
aVTOMEE-19
p2156
aVTOMEE-18
p2157
aVTOMEE-17
p2158
aVTOMEE-16
p2159
aVTOMEE-15
p2160
aVTOMEE-14
p2161
aVTOMEE-13
p2162
aVTOMEE-12
p2163
aVTOMEE-11
p2164
aVTOMEE-10
p2165
aVTOMEE-9
p2166
aVTOMEE-8
p2167
aVTOMEE-7
p2168
aVTOMEE-6
p2169
aVTOMEE-5
p2170
aVTOMEE-4
p2171
aVTOMEE-3
p2172
aVTOMEE-2
p2173
aVTOMEE-1
p2174
a.