(lp0
VTREQ-21
p1
aVTREQ-20
p2
aVTREQ-19
p3
aVTREQ-18
p4
aVTREQ-17
p5
aVTREQ-16
p6
aVTREQ-15
p7
aVTREQ-14
p8
aVTREQ-13
p9
aVTREQ-12
p10
aVTREQ-11
p11
aVTREQ-10
p12
aVTREQ-9
p13
aVTREQ-8
p14
aVTREQ-7
p15
aVTREQ-6
p16
aVTREQ-5
p17
aVTREQ-4
p18
aVTREQ-3
p19
aVTREQ-2
p20
aVTREQ-1
p21
a.