(lp0
VTWILL-260
p1
aVTWILL-259
p2
aVTWILL-258
p3
aVTWILL-257
p4
aVTWILL-256
p5
aVTWILL-255
p6
aVTWILL-254
p7
aVTWILL-253
p8
aVTWILL-252
p9
aVTWILL-251
p10
aVTWILL-250
p11
aVTWILL-249
p12
aVTWILL-248
p13
aVTWILL-247
p14
aVTWILL-246
p15
aVTWILL-245
p16
aVTWILL-244
p17
aVTWILL-243
p18
aVTWILL-242
p19
aVTWILL-241
p20
aVTWILL-240
p21
aVTWILL-239
p22
aVTWILL-238
p23
aVTWILL-237
p24
aVTWILL-236
p25
aVTWILL-235
p26
aVTWILL-234
p27
aVTWILL-233
p28
aVTWILL-232
p29
aVTWILL-231
p30
aVTWILL-230
p31
aVTWILL-229
p32
aVTWILL-228
p33
aVTWILL-227
p34
aVTWILL-226
p35
aVTWILL-225
p36
aVTWILL-224
p37
aVTWILL-223
p38
aVTWILL-222
p39
aVTWILL-221
p40
aVTWILL-220
p41
aVTWILL-219
p42
aVTWILL-218
p43
aVTWILL-217
p44
aVTWILL-216
p45
aVTWILL-215
p46
aVTWILL-214
p47
aVTWILL-213
p48
aVTWILL-212
p49
aVTWILL-211
p50
aVTWILL-210
p51
aVTWILL-209
p52
aVTWILL-208
p53
aVTWILL-207
p54
aVTWILL-206
p55
aVTWILL-205
p56
aVTWILL-204
p57
aVTWILL-203
p58
aVTWILL-202
p59
aVTWILL-201
p60
aVTWILL-200
p61
aVTWILL-199
p62
aVTWILL-198
p63
aVTWILL-197
p64
aVTWILL-196
p65
aVTWILL-195
p66
aVTWILL-194
p67
aVTWILL-193
p68
aVTWILL-192
p69
aVTWILL-191
p70
aVTWILL-190
p71
aVTWILL-189
p72
aVTWILL-188
p73
aVTWILL-187
p74
aVTWILL-186
p75
aVTWILL-185
p76
aVTWILL-184
p77
aVTWILL-183
p78
aVTWILL-182
p79
aVTWILL-181
p80
aVTWILL-180
p81
aVTWILL-179
p82
aVTWILL-178
p83
aVTWILL-177
p84
aVTWILL-176
p85
aVTWILL-175
p86
aVTWILL-174
p87
aVTWILL-173
p88
aVTWILL-172
p89
aVTWILL-171
p90
aVTWILL-170
p91
aVTWILL-169
p92
aVTWILL-168
p93
aVTWILL-167
p94
aVTWILL-166
p95
aVTWILL-165
p96
aVTWILL-164
p97
aVTWILL-163
p98
aVTWILL-162
p99
aVTWILL-161
p100
aVTWILL-160
p101
aVTWILL-159
p102
aVTWILL-158
p103
aVTWILL-157
p104
aVTWILL-156
p105
aVTWILL-155
p106
aVTWILL-154
p107
aVTWILL-153
p108
aVTWILL-152
p109
aVTWILL-151
p110
aVTWILL-150
p111
aVTWILL-149
p112
aVTWILL-148
p113
aVTWILL-147
p114
aVTWILL-146
p115
aVTWILL-145
p116
aVTWILL-144
p117
aVTWILL-143
p118
aVTWILL-142
p119
aVTWILL-141
p120
aVTWILL-140
p121
aVTWILL-139
p122
aVTWILL-138
p123
aVTWILL-137
p124
aVTWILL-136
p125
aVTWILL-135
p126
aVTWILL-134
p127
aVTWILL-133
p128
aVTWILL-132
p129
aVTWILL-131
p130
aVTWILL-130
p131
aVTWILL-129
p132
aVTWILL-128
p133
aVTWILL-127
p134
aVTWILL-126
p135
aVTWILL-125
p136
aVTWILL-124
p137
aVTWILL-123
p138
aVTWILL-122
p139
aVTWILL-121
p140
aVTWILL-120
p141
aVTWILL-119
p142
aVTWILL-118
p143
aVTWILL-117
p144
aVTWILL-116
p145
aVTWILL-115
p146
aVTWILL-114
p147
aVTWILL-113
p148
aVTWILL-112
p149
aVTWILL-111
p150
aVTWILL-110
p151
aVTWILL-109
p152
aVTWILL-108
p153
aVTWILL-107
p154
aVTWILL-106
p155
aVTWILL-105
p156
aVTWILL-104
p157
aVTWILL-103
p158
aVTWILL-102
p159
aVTWILL-101
p160
aVTWILL-100
p161
aVTWILL-99
p162
aVTWILL-98
p163
aVTWILL-97
p164
aVTWILL-96
p165
aVTWILL-95
p166
aVTWILL-94
p167
aVTWILL-93
p168
aVTWILL-92
p169
aVTWILL-91
p170
aVTWILL-90
p171
aVTWILL-89
p172
aVTWILL-88
p173
aVTWILL-87
p174
aVTWILL-86
p175
aVTWILL-85
p176
aVTWILL-84
p177
aVTWILL-83
p178
aVTWILL-82
p179
aVTWILL-81
p180
aVTWILL-80
p181
aVTWILL-79
p182
aVTWILL-78
p183
aVTWILL-77
p184
aVTWILL-76
p185
aVTWILL-75
p186
aVTWILL-74
p187
aVTWILL-73
p188
aVTWILL-72
p189
aVTWILL-71
p190
aVTWILL-70
p191
aVTWILL-69
p192
aVTWILL-68
p193
aVTWILL-67
p194
aVTWILL-66
p195
aVTWILL-65
p196
aVTWILL-64
p197
aVTWILL-63
p198
aVTWILL-62
p199
aVTWILL-61
p200
aVTWILL-60
p201
aVTWILL-59
p202
aVTWILL-58
p203
aVTWILL-57
p204
aVTWILL-56
p205
aVTWILL-55
p206
aVTWILL-54
p207
aVTWILL-53
p208
aVTWILL-52
p209
aVTWILL-51
p210
aVTWILL-50
p211
aVTWILL-49
p212
aVTWILL-48
p213
aVTWILL-47
p214
aVTWILL-46
p215
aVTWILL-45
p216
aVTWILL-44
p217
aVTWILL-43
p218
aVTWILL-42
p219
aVTWILL-41
p220
aVTWILL-40
p221
aVTWILL-39
p222
aVTWILL-38
p223
aVTWILL-37
p224
aVTWILL-36
p225
aVTWILL-35
p226
aVTWILL-34
p227
aVTWILL-33
p228
aVTWILL-32
p229
aVTWILL-31
p230
aVTWILL-30
p231
aVTWILL-29
p232
aVTWILL-28
p233
aVTWILL-27
p234
aVTWILL-26
p235
aVTWILL-25
p236
aVTWILL-24
p237
aVTWILL-23
p238
aVTWILL-22
p239
aVTWILL-21
p240
aVTWILL-20
p241
aVTWILL-19
p242
aVTWILL-18
p243
aVTWILL-17
p244
aVTWILL-16
p245
aVTWILL-15
p246
aVTWILL-14
p247
aVTWILL-13
p248
aVTWILL-12
p249
aVTWILL-11
p250
aVTWILL-10
p251
aVTWILL-9
p252
aVTWILL-8
p253
aVTWILL-7
p254
aVTWILL-6
p255
aVTWILL-5
p256
aVTWILL-4
p257
aVTWILL-3
p258
aVTWILL-2
p259
aVTWILL-1
p260
a.