(lp0
VUSERGRID-1347
p1
aVUSERGRID-1346
p2
aVUSERGRID-1345
p3
aVUSERGRID-1344
p4
aVUSERGRID-1343
p5
aVUSERGRID-1342
p6
aVUSERGRID-1341
p7
aVUSERGRID-1340
p8
aVUSERGRID-1339
p9
aVUSERGRID-1338
p10
aVUSERGRID-1337
p11
aVUSERGRID-1336
p12
aVUSERGRID-1335
p13
aVUSERGRID-1334
p14
aVUSERGRID-1333
p15
aVUSERGRID-1332
p16
aVUSERGRID-1331
p17
aVUSERGRID-1330
p18
aVUSERGRID-1329
p19
aVUSERGRID-1328
p20
aVUSERGRID-1327
p21
aVUSERGRID-1326
p22
aVUSERGRID-1325
p23
aVUSERGRID-1324
p24
aVUSERGRID-1323
p25
aVUSERGRID-1322
p26
aVUSERGRID-1321
p27
aVUSERGRID-1320
p28
aVUSERGRID-1319
p29
aVUSERGRID-1318
p30
aVUSERGRID-1317
p31
aVUSERGRID-1316
p32
aVUSERGRID-1315
p33
aVUSERGRID-1314
p34
aVUSERGRID-1313
p35
aVUSERGRID-1312
p36
aVUSERGRID-1311
p37
aVUSERGRID-1310
p38
aVUSERGRID-1309
p39
aVUSERGRID-1308
p40
aVUSERGRID-1307
p41
aVUSERGRID-1306
p42
aVUSERGRID-1305
p43
aVUSERGRID-1304
p44
aVUSERGRID-1303
p45
aVUSERGRID-1302
p46
aVUSERGRID-1301
p47
aVUSERGRID-1300
p48
aVUSERGRID-1299
p49
aVUSERGRID-1298
p50
aVUSERGRID-1297
p51
aVUSERGRID-1296
p52
aVUSERGRID-1295
p53
aVUSERGRID-1294
p54
aVUSERGRID-1293
p55
aVUSERGRID-1292
p56
aVUSERGRID-1291
p57
aVUSERGRID-1289
p58
aVUSERGRID-1288
p59
aVUSERGRID-1287
p60
aVUSERGRID-1286
p61
aVUSERGRID-1285
p62
aVUSERGRID-1284
p63
aVUSERGRID-1283
p64
aVUSERGRID-1282
p65
aVUSERGRID-1281
p66
aVUSERGRID-1280
p67
aVUSERGRID-1279
p68
aVUSERGRID-1278
p69
aVUSERGRID-1277
p70
aVUSERGRID-1276
p71
aVUSERGRID-1275
p72
aVUSERGRID-1274
p73
aVUSERGRID-1273
p74
aVUSERGRID-1272
p75
aVUSERGRID-1271
p76
aVUSERGRID-1270
p77
aVUSERGRID-1269
p78
aVUSERGRID-1268
p79
aVUSERGRID-1267
p80
aVUSERGRID-1266
p81
aVUSERGRID-1265
p82
aVUSERGRID-1264
p83
aVUSERGRID-1263
p84
aVUSERGRID-1262
p85
aVUSERGRID-1261
p86
aVUSERGRID-1260
p87
aVUSERGRID-1259
p88
aVUSERGRID-1258
p89
aVUSERGRID-1257
p90
aVUSERGRID-1256
p91
aVUSERGRID-1255
p92
aVUSERGRID-1254
p93
aVUSERGRID-1253
p94
aVUSERGRID-1252
p95
aVUSERGRID-1251
p96
aVUSERGRID-1250
p97
aVUSERGRID-1249
p98
aVUSERGRID-1248
p99
aVUSERGRID-1247
p100
aVUSERGRID-1246
p101
aVUSERGRID-1245
p102
aVUSERGRID-1244
p103
aVUSERGRID-1243
p104
aVUSERGRID-1242
p105
aVUSERGRID-1241
p106
aVUSERGRID-1240
p107
aVUSERGRID-1239
p108
aVUSERGRID-1238
p109
aVUSERGRID-1237
p110
aVUSERGRID-1236
p111
aVUSERGRID-1235
p112
aVUSERGRID-1234
p113
aVUSERGRID-1233
p114
aVUSERGRID-1232
p115
aVUSERGRID-1231
p116
aVUSERGRID-1230
p117
aVUSERGRID-1229
p118
aVUSERGRID-1228
p119
aVUSERGRID-1227
p120
aVUSERGRID-1226
p121
aVUSERGRID-1225
p122
aVUSERGRID-1224
p123
aVUSERGRID-1223
p124
aVUSERGRID-1222
p125
aVUSERGRID-1221
p126
aVUSERGRID-1220
p127
aVUSERGRID-1219
p128
aVUSERGRID-1218
p129
aVUSERGRID-1217
p130
aVUSERGRID-1216
p131
aVUSERGRID-1215
p132
aVUSERGRID-1214
p133
aVUSERGRID-1213
p134
aVUSERGRID-1212
p135
aVUSERGRID-1211
p136
aVUSERGRID-1210
p137
aVUSERGRID-1209
p138
aVUSERGRID-1208
p139
aVUSERGRID-1207
p140
aVUSERGRID-1206
p141
aVUSERGRID-1205
p142
aVUSERGRID-1204
p143
aVUSERGRID-1203
p144
aVUSERGRID-1202
p145
aVUSERGRID-1201
p146
aVUSERGRID-1200
p147
aVUSERGRID-1199
p148
aVUSERGRID-1198
p149
aVUSERGRID-1197
p150
aVUSERGRID-1196
p151
aVUSERGRID-1195
p152
aVUSERGRID-1194
p153
aVUSERGRID-1193
p154
aVUSERGRID-1192
p155
aVUSERGRID-1191
p156
aVUSERGRID-1190
p157
aVUSERGRID-1189
p158
aVUSERGRID-1188
p159
aVUSERGRID-1187
p160
aVUSERGRID-1186
p161
aVUSERGRID-1185
p162
aVUSERGRID-1184
p163
aVUSERGRID-1183
p164
aVUSERGRID-1182
p165
aVUSERGRID-1181
p166
aVUSERGRID-1180
p167
aVUSERGRID-1179
p168
aVUSERGRID-1178
p169
aVUSERGRID-1177
p170
aVUSERGRID-1176
p171
aVUSERGRID-1175
p172
aVUSERGRID-1174
p173
aVUSERGRID-1173
p174
aVUSERGRID-1172
p175
aVUSERGRID-1171
p176
aVUSERGRID-1170
p177
aVUSERGRID-1169
p178
aVUSERGRID-1168
p179
aVUSERGRID-1167
p180
aVUSERGRID-1166
p181
aVUSERGRID-1165
p182
aVUSERGRID-1164
p183
aVUSERGRID-1163
p184
aVUSERGRID-1162
p185
aVUSERGRID-1161
p186
aVUSERGRID-1160
p187
aVUSERGRID-1159
p188
aVUSERGRID-1158
p189
aVUSERGRID-1157
p190
aVUSERGRID-1156
p191
aVUSERGRID-1155
p192
aVUSERGRID-1154
p193
aVUSERGRID-1153
p194
aVUSERGRID-1152
p195
aVUSERGRID-1151
p196
aVUSERGRID-1150
p197
aVUSERGRID-1149
p198
aVUSERGRID-1148
p199
aVUSERGRID-1147
p200
aVUSERGRID-1146
p201
aVUSERGRID-1145
p202
aVUSERGRID-1144
p203
aVUSERGRID-1143
p204
aVUSERGRID-1142
p205
aVUSERGRID-1141
p206
aVUSERGRID-1140
p207
aVUSERGRID-1139
p208
aVUSERGRID-1138
p209
aVUSERGRID-1137
p210
aVUSERGRID-1136
p211
aVUSERGRID-1135
p212
aVUSERGRID-1134
p213
aVUSERGRID-1133
p214
aVUSERGRID-1132
p215
aVUSERGRID-1131
p216
aVUSERGRID-1130
p217
aVUSERGRID-1129
p218
aVUSERGRID-1128
p219
aVUSERGRID-1127
p220
aVUSERGRID-1126
p221
aVUSERGRID-1125
p222
aVUSERGRID-1124
p223
aVUSERGRID-1123
p224
aVUSERGRID-1122
p225
aVUSERGRID-1121
p226
aVUSERGRID-1120
p227
aVUSERGRID-1119
p228
aVUSERGRID-1118
p229
aVUSERGRID-1117
p230
aVUSERGRID-1116
p231
aVUSERGRID-1115
p232
aVUSERGRID-1114
p233
aVUSERGRID-1113
p234
aVUSERGRID-1112
p235
aVUSERGRID-1111
p236
aVUSERGRID-1110
p237
aVUSERGRID-1109
p238
aVUSERGRID-1108
p239
aVUSERGRID-1107
p240
aVUSERGRID-1106
p241
aVUSERGRID-1105
p242
aVUSERGRID-1104
p243
aVUSERGRID-1103
p244
aVUSERGRID-1102
p245
aVUSERGRID-1101
p246
aVUSERGRID-1100
p247
aVUSERGRID-1099
p248
aVUSERGRID-1098
p249
aVUSERGRID-1097
p250
aVUSERGRID-1096
p251
aVUSERGRID-1095
p252
aVUSERGRID-1094
p253
aVUSERGRID-1093
p254
aVUSERGRID-1092
p255
aVUSERGRID-1091
p256
aVUSERGRID-1090
p257
aVUSERGRID-1089
p258
aVUSERGRID-1088
p259
aVUSERGRID-1087
p260
aVUSERGRID-1086
p261
aVUSERGRID-1085
p262
aVUSERGRID-1084
p263
aVUSERGRID-1083
p264
aVUSERGRID-1082
p265
aVUSERGRID-1081
p266
aVUSERGRID-1080
p267
aVUSERGRID-1079
p268
aVUSERGRID-1078
p269
aVUSERGRID-1077
p270
aVUSERGRID-1076
p271
aVUSERGRID-1075
p272
aVUSERGRID-1074
p273
aVUSERGRID-1073
p274
aVUSERGRID-1072
p275
aVUSERGRID-1071
p276
aVUSERGRID-1070
p277
aVUSERGRID-1069
p278
aVUSERGRID-1068
p279
aVUSERGRID-1067
p280
aVUSERGRID-1066
p281
aVUSERGRID-1065
p282
aVUSERGRID-1064
p283
aVUSERGRID-1063
p284
aVUSERGRID-1062
p285
aVUSERGRID-1061
p286
aVUSERGRID-1060
p287
aVUSERGRID-1059
p288
aVUSERGRID-1058
p289
aVUSERGRID-1057
p290
aVUSERGRID-1056
p291
aVUSERGRID-1054
p292
aVUSERGRID-1053
p293
aVUSERGRID-1052
p294
aVUSERGRID-1051
p295
aVUSERGRID-1050
p296
aVUSERGRID-1049
p297
aVUSERGRID-1048
p298
aVUSERGRID-1047
p299
aVUSERGRID-1046
p300
aVUSERGRID-1045
p301
aVUSERGRID-1044
p302
aVUSERGRID-1043
p303
aVUSERGRID-1042
p304
aVUSERGRID-1041
p305
aVUSERGRID-1040
p306
aVUSERGRID-1039
p307
aVUSERGRID-1038
p308
aVUSERGRID-1037
p309
aVUSERGRID-1036
p310
aVUSERGRID-1035
p311
aVUSERGRID-1034
p312
aVUSERGRID-1033
p313
aVUSERGRID-1032
p314
aVUSERGRID-1031
p315
aVUSERGRID-1030
p316
aVUSERGRID-1029
p317
aVUSERGRID-1028
p318
aVUSERGRID-1027
p319
aVUSERGRID-1026
p320
aVUSERGRID-1025
p321
aVUSERGRID-1024
p322
aVUSERGRID-1023
p323
aVUSERGRID-1022
p324
aVUSERGRID-1021
p325
aVUSERGRID-1020
p326
aVUSERGRID-1019
p327
aVUSERGRID-1018
p328
aVUSERGRID-1017
p329
aVUSERGRID-1016
p330
aVUSERGRID-1015
p331
aVUSERGRID-1014
p332
aVUSERGRID-1013
p333
aVUSERGRID-1012
p334
aVUSERGRID-1011
p335
aVUSERGRID-1010
p336
aVUSERGRID-1009
p337
aVUSERGRID-1008
p338
aVUSERGRID-1007
p339
aVUSERGRID-1006
p340
aVUSERGRID-1005
p341
aVUSERGRID-1004
p342
aVUSERGRID-1003
p343
aVUSERGRID-1002
p344
aVUSERGRID-1001
p345
aVUSERGRID-1000
p346
aVUSERGRID-999
p347
aVUSERGRID-998
p348
aVUSERGRID-997
p349
aVUSERGRID-995
p350
aVUSERGRID-994
p351
aVUSERGRID-993
p352
aVUSERGRID-992
p353
aVUSERGRID-991
p354
aVUSERGRID-990
p355
aVUSERGRID-989
p356
aVUSERGRID-988
p357
aVUSERGRID-987
p358
aVUSERGRID-986
p359
aVUSERGRID-985
p360
aVUSERGRID-984
p361
aVUSERGRID-983
p362
aVUSERGRID-982
p363
aVUSERGRID-981
p364
aVUSERGRID-980
p365
aVUSERGRID-979
p366
aVUSERGRID-978
p367
aVUSERGRID-977
p368
aVUSERGRID-976
p369
aVUSERGRID-975
p370
aVUSERGRID-974
p371
aVUSERGRID-973
p372
aVUSERGRID-972
p373
aVUSERGRID-971
p374
aVUSERGRID-970
p375
aVUSERGRID-969
p376
aVUSERGRID-968
p377
aVUSERGRID-967
p378
aVUSERGRID-966
p379
aVUSERGRID-965
p380
aVUSERGRID-964
p381
aVUSERGRID-963
p382
aVUSERGRID-962
p383
aVUSERGRID-961
p384
aVUSERGRID-960
p385
aVUSERGRID-959
p386
aVUSERGRID-958
p387
aVUSERGRID-957
p388
aVUSERGRID-956
p389
aVUSERGRID-955
p390
aVUSERGRID-954
p391
aVUSERGRID-953
p392
aVUSERGRID-952
p393
aVUSERGRID-951
p394
aVUSERGRID-950
p395
aVUSERGRID-949
p396
aVUSERGRID-948
p397
aVUSERGRID-947
p398
aVUSERGRID-946
p399
aVUSERGRID-945
p400
aVUSERGRID-944
p401
aVUSERGRID-943
p402
aVUSERGRID-942
p403
aVUSERGRID-941
p404
aVUSERGRID-940
p405
aVUSERGRID-939
p406
aVUSERGRID-938
p407
aVUSERGRID-937
p408
aVUSERGRID-936
p409
aVUSERGRID-935
p410
aVUSERGRID-934
p411
aVUSERGRID-933
p412
aVUSERGRID-932
p413
aVUSERGRID-931
p414
aVUSERGRID-930
p415
aVUSERGRID-929
p416
aVUSERGRID-928
p417
aVUSERGRID-927
p418
aVUSERGRID-926
p419
aVUSERGRID-925
p420
aVUSERGRID-924
p421
aVUSERGRID-923
p422
aVUSERGRID-922
p423
aVUSERGRID-921
p424
aVUSERGRID-920
p425
aVUSERGRID-919
p426
aVUSERGRID-918
p427
aVUSERGRID-917
p428
aVUSERGRID-916
p429
aVUSERGRID-915
p430
aVUSERGRID-914
p431
aVUSERGRID-913
p432
aVUSERGRID-912
p433
aVUSERGRID-911
p434
aVUSERGRID-910
p435
aVUSERGRID-909
p436
aVUSERGRID-908
p437
aVUSERGRID-907
p438
aVUSERGRID-906
p439
aVUSERGRID-905
p440
aVUSERGRID-904
p441
aVUSERGRID-903
p442
aVUSERGRID-902
p443
aVUSERGRID-901
p444
aVUSERGRID-900
p445
aVUSERGRID-899
p446
aVUSERGRID-898
p447
aVUSERGRID-897
p448
aVUSERGRID-896
p449
aVUSERGRID-895
p450
aVUSERGRID-894
p451
aVUSERGRID-893
p452
aVUSERGRID-892
p453
aVUSERGRID-891
p454
aVUSERGRID-890
p455
aVUSERGRID-889
p456
aVUSERGRID-888
p457
aVUSERGRID-887
p458
aVUSERGRID-886
p459
aVUSERGRID-885
p460
aVUSERGRID-884
p461
aVUSERGRID-883
p462
aVUSERGRID-882
p463
aVUSERGRID-881
p464
aVUSERGRID-880
p465
aVUSERGRID-879
p466
aVUSERGRID-878
p467
aVUSERGRID-877
p468
aVUSERGRID-876
p469
aVUSERGRID-875
p470
aVUSERGRID-874
p471
aVUSERGRID-873
p472
aVUSERGRID-872
p473
aVUSERGRID-871
p474
aVUSERGRID-870
p475
aVUSERGRID-869
p476
aVUSERGRID-868
p477
aVUSERGRID-867
p478
aVUSERGRID-866
p479
aVUSERGRID-865
p480
aVUSERGRID-864
p481
aVUSERGRID-863
p482
aVUSERGRID-862
p483
aVUSERGRID-861
p484
aVUSERGRID-860
p485
aVUSERGRID-859
p486
aVUSERGRID-858
p487
aVUSERGRID-857
p488
aVUSERGRID-856
p489
aVUSERGRID-855
p490
aVUSERGRID-854
p491
aVUSERGRID-853
p492
aVUSERGRID-852
p493
aVUSERGRID-851
p494
aVUSERGRID-850
p495
aVUSERGRID-849
p496
aVUSERGRID-848
p497
aVUSERGRID-847
p498
aVUSERGRID-846
p499
aVUSERGRID-845
p500
aVUSERGRID-844
p501
aVUSERGRID-843
p502
aVUSERGRID-842
p503
aVUSERGRID-841
p504
aVUSERGRID-840
p505
aVUSERGRID-839
p506
aVUSERGRID-838
p507
aVUSERGRID-837
p508
aVUSERGRID-836
p509
aVUSERGRID-835
p510
aVUSERGRID-834
p511
aVUSERGRID-833
p512
aVUSERGRID-832
p513
aVUSERGRID-831
p514
aVUSERGRID-830
p515
aVUSERGRID-829
p516
aVUSERGRID-828
p517
aVUSERGRID-827
p518
aVUSERGRID-826
p519
aVUSERGRID-825
p520
aVUSERGRID-824
p521
aVUSERGRID-823
p522
aVUSERGRID-822
p523
aVUSERGRID-821
p524
aVUSERGRID-820
p525
aVUSERGRID-819
p526
aVUSERGRID-818
p527
aVUSERGRID-817
p528
aVUSERGRID-816
p529
aVUSERGRID-815
p530
aVUSERGRID-814
p531
aVUSERGRID-813
p532
aVUSERGRID-812
p533
aVUSERGRID-811
p534
aVUSERGRID-810
p535
aVUSERGRID-809
p536
aVUSERGRID-808
p537
aVUSERGRID-807
p538
aVUSERGRID-806
p539
aVUSERGRID-805
p540
aVUSERGRID-804
p541
aVUSERGRID-803
p542
aVUSERGRID-802
p543
aVUSERGRID-801
p544
aVUSERGRID-800
p545
aVUSERGRID-799
p546
aVUSERGRID-798
p547
aVUSERGRID-797
p548
aVUSERGRID-796
p549
aVUSERGRID-795
p550
aVUSERGRID-794
p551
aVUSERGRID-793
p552
aVUSERGRID-792
p553
aVUSERGRID-791
p554
aVUSERGRID-790
p555
aVUSERGRID-789
p556
aVUSERGRID-788
p557
aVUSERGRID-787
p558
aVUSERGRID-786
p559
aVUSERGRID-785
p560
aVUSERGRID-784
p561
aVUSERGRID-783
p562
aVUSERGRID-782
p563
aVUSERGRID-781
p564
aVUSERGRID-780
p565
aVUSERGRID-779
p566
aVUSERGRID-778
p567
aVUSERGRID-777
p568
aVUSERGRID-776
p569
aVUSERGRID-775
p570
aVUSERGRID-774
p571
aVUSERGRID-773
p572
aVUSERGRID-772
p573
aVUSERGRID-771
p574
aVUSERGRID-770
p575
aVUSERGRID-769
p576
aVUSERGRID-768
p577
aVUSERGRID-767
p578
aVUSERGRID-766
p579
aVUSERGRID-765
p580
aVUSERGRID-764
p581
aVUSERGRID-763
p582
aVUSERGRID-762
p583
aVUSERGRID-761
p584
aVUSERGRID-760
p585
aVUSERGRID-759
p586
aVUSERGRID-758
p587
aVUSERGRID-757
p588
aVUSERGRID-756
p589
aVUSERGRID-755
p590
aVUSERGRID-754
p591
aVUSERGRID-753
p592
aVUSERGRID-752
p593
aVUSERGRID-751
p594
aVUSERGRID-750
p595
aVUSERGRID-749
p596
aVUSERGRID-748
p597
aVUSERGRID-747
p598
aVUSERGRID-746
p599
aVUSERGRID-745
p600
aVUSERGRID-744
p601
aVUSERGRID-742
p602
aVUSERGRID-741
p603
aVUSERGRID-740
p604
aVUSERGRID-739
p605
aVUSERGRID-738
p606
aVUSERGRID-737
p607
aVUSERGRID-736
p608
aVUSERGRID-735
p609
aVUSERGRID-734
p610
aVUSERGRID-733
p611
aVUSERGRID-732
p612
aVUSERGRID-731
p613
aVUSERGRID-730
p614
aVUSERGRID-729
p615
aVUSERGRID-728
p616
aVUSERGRID-727
p617
aVUSERGRID-726
p618
aVUSERGRID-725
p619
aVUSERGRID-724
p620
aVUSERGRID-723
p621
aVUSERGRID-722
p622
aVUSERGRID-720
p623
aVUSERGRID-719
p624
aVUSERGRID-718
p625
aVUSERGRID-717
p626
aVUSERGRID-716
p627
aVUSERGRID-715
p628
aVUSERGRID-714
p629
aVUSERGRID-713
p630
aVUSERGRID-712
p631
aVUSERGRID-711
p632
aVUSERGRID-710
p633
aVUSERGRID-709
p634
aVUSERGRID-708
p635
aVUSERGRID-707
p636
aVUSERGRID-706
p637
aVUSERGRID-705
p638
aVUSERGRID-704
p639
aVUSERGRID-703
p640
aVUSERGRID-702
p641
aVUSERGRID-701
p642
aVUSERGRID-700
p643
aVUSERGRID-699
p644
aVUSERGRID-698
p645
aVUSERGRID-697
p646
aVUSERGRID-696
p647
aVUSERGRID-695
p648
aVUSERGRID-693
p649
aVUSERGRID-692
p650
aVUSERGRID-691
p651
aVUSERGRID-690
p652
aVUSERGRID-689
p653
aVUSERGRID-688
p654
aVUSERGRID-687
p655
aVUSERGRID-686
p656
aVUSERGRID-685
p657
aVUSERGRID-684
p658
aVUSERGRID-683
p659
aVUSERGRID-682
p660
aVUSERGRID-681
p661
aVUSERGRID-680
p662
aVUSERGRID-679
p663
aVUSERGRID-678
p664
aVUSERGRID-677
p665
aVUSERGRID-676
p666
aVUSERGRID-675
p667
aVUSERGRID-674
p668
aVUSERGRID-673
p669
aVUSERGRID-672
p670
aVUSERGRID-671
p671
aVUSERGRID-670
p672
aVUSERGRID-669
p673
aVUSERGRID-668
p674
aVUSERGRID-667
p675
aVUSERGRID-666
p676
aVUSERGRID-665
p677
aVUSERGRID-664
p678
aVUSERGRID-663
p679
aVUSERGRID-662
p680
aVUSERGRID-661
p681
aVUSERGRID-660
p682
aVUSERGRID-659
p683
aVUSERGRID-657
p684
aVUSERGRID-656
p685
aVUSERGRID-655
p686
aVUSERGRID-654
p687
aVUSERGRID-653
p688
aVUSERGRID-652
p689
aVUSERGRID-649
p690
aVUSERGRID-648
p691
aVUSERGRID-647
p692
aVUSERGRID-646
p693
aVUSERGRID-645
p694
aVUSERGRID-644
p695
aVUSERGRID-643
p696
aVUSERGRID-642
p697
aVUSERGRID-641
p698
aVUSERGRID-640
p699
aVUSERGRID-639
p700
aVUSERGRID-638
p701
aVUSERGRID-637
p702
aVUSERGRID-636
p703
aVUSERGRID-635
p704
aVUSERGRID-634
p705
aVUSERGRID-633
p706
aVUSERGRID-632
p707
aVUSERGRID-631
p708
aVUSERGRID-630
p709
aVUSERGRID-629
p710
aVUSERGRID-628
p711
aVUSERGRID-627
p712
aVUSERGRID-626
p713
aVUSERGRID-625
p714
aVUSERGRID-624
p715
aVUSERGRID-623
p716
aVUSERGRID-622
p717
aVUSERGRID-621
p718
aVUSERGRID-619
p719
aVUSERGRID-618
p720
aVUSERGRID-617
p721
aVUSERGRID-616
p722
aVUSERGRID-615
p723
aVUSERGRID-614
p724
aVUSERGRID-613
p725
aVUSERGRID-612
p726
aVUSERGRID-611
p727
aVUSERGRID-610
p728
aVUSERGRID-609
p729
aVUSERGRID-608
p730
aVUSERGRID-607
p731
aVUSERGRID-606
p732
aVUSERGRID-604
p733
aVUSERGRID-603
p734
aVUSERGRID-602
p735
aVUSERGRID-601
p736
aVUSERGRID-600
p737
aVUSERGRID-599
p738
aVUSERGRID-598
p739
aVUSERGRID-597
p740
aVUSERGRID-596
p741
aVUSERGRID-595
p742
aVUSERGRID-594
p743
aVUSERGRID-593
p744
aVUSERGRID-592
p745
aVUSERGRID-591
p746
aVUSERGRID-589
p747
aVUSERGRID-588
p748
aVUSERGRID-587
p749
aVUSERGRID-586
p750
aVUSERGRID-585
p751
aVUSERGRID-584
p752
aVUSERGRID-583
p753
aVUSERGRID-582
p754
aVUSERGRID-581
p755
aVUSERGRID-580
p756
aVUSERGRID-579
p757
aVUSERGRID-578
p758
aVUSERGRID-577
p759
aVUSERGRID-576
p760
aVUSERGRID-575
p761
aVUSERGRID-574
p762
aVUSERGRID-573
p763
aVUSERGRID-572
p764
aVUSERGRID-571
p765
aVUSERGRID-570
p766
aVUSERGRID-569
p767
aVUSERGRID-568
p768
aVUSERGRID-567
p769
aVUSERGRID-566
p770
aVUSERGRID-565
p771
aVUSERGRID-564
p772
aVUSERGRID-563
p773
aVUSERGRID-562
p774
aVUSERGRID-561
p775
aVUSERGRID-560
p776
aVUSERGRID-559
p777
aVUSERGRID-558
p778
aVUSERGRID-557
p779
aVUSERGRID-556
p780
aVUSERGRID-555
p781
aVUSERGRID-553
p782
aVUSERGRID-552
p783
aVUSERGRID-551
p784
aVUSERGRID-550
p785
aVUSERGRID-549
p786
aVUSERGRID-548
p787
aVUSERGRID-547
p788
aVUSERGRID-546
p789
aVUSERGRID-545
p790
aVUSERGRID-544
p791
aVUSERGRID-543
p792
aVUSERGRID-542
p793
aVUSERGRID-541
p794
aVUSERGRID-540
p795
aVUSERGRID-539
p796
aVUSERGRID-538
p797
aVUSERGRID-537
p798
aVUSERGRID-536
p799
aVUSERGRID-535
p800
aVUSERGRID-534
p801
aVUSERGRID-533
p802
aVUSERGRID-532
p803
aVUSERGRID-531
p804
aVUSERGRID-530
p805
aVUSERGRID-529
p806
aVUSERGRID-528
p807
aVUSERGRID-527
p808
aVUSERGRID-525
p809
aVUSERGRID-524
p810
aVUSERGRID-523
p811
aVUSERGRID-522
p812
aVUSERGRID-521
p813
aVUSERGRID-520
p814
aVUSERGRID-519
p815
aVUSERGRID-518
p816
aVUSERGRID-516
p817
aVUSERGRID-515
p818
aVUSERGRID-514
p819
aVUSERGRID-513
p820
aVUSERGRID-512
p821
aVUSERGRID-511
p822
aVUSERGRID-510
p823
aVUSERGRID-509
p824
aVUSERGRID-508
p825
aVUSERGRID-507
p826
aVUSERGRID-506
p827
aVUSERGRID-505
p828
aVUSERGRID-504
p829
aVUSERGRID-503
p830
aVUSERGRID-502
p831
aVUSERGRID-501
p832
aVUSERGRID-500
p833
aVUSERGRID-499
p834
aVUSERGRID-498
p835
aVUSERGRID-497
p836
aVUSERGRID-496
p837
aVUSERGRID-495
p838
aVUSERGRID-494
p839
aVUSERGRID-493
p840
aVUSERGRID-492
p841
aVUSERGRID-491
p842
aVUSERGRID-490
p843
aVUSERGRID-489
p844
aVUSERGRID-488
p845
aVUSERGRID-487
p846
aVUSERGRID-486
p847
aVUSERGRID-485
p848
aVUSERGRID-484
p849
aVUSERGRID-483
p850
aVUSERGRID-482
p851
aVUSERGRID-481
p852
aVUSERGRID-480
p853
aVUSERGRID-479
p854
aVUSERGRID-478
p855
aVUSERGRID-477
p856
aVUSERGRID-476
p857
aVUSERGRID-475
p858
aVUSERGRID-474
p859
aVUSERGRID-473
p860
aVUSERGRID-472
p861
aVUSERGRID-471
p862
aVUSERGRID-470
p863
aVUSERGRID-469
p864
aVUSERGRID-468
p865
aVUSERGRID-467
p866
aVUSERGRID-466
p867
aVUSERGRID-465
p868
aVUSERGRID-464
p869
aVUSERGRID-463
p870
aVUSERGRID-462
p871
aVUSERGRID-461
p872
aVUSERGRID-460
p873
aVUSERGRID-459
p874
aVUSERGRID-458
p875
aVUSERGRID-457
p876
aVUSERGRID-456
p877
aVUSERGRID-455
p878
aVUSERGRID-454
p879
aVUSERGRID-453
p880
aVUSERGRID-452
p881
aVUSERGRID-451
p882
aVUSERGRID-450
p883
aVUSERGRID-449
p884
aVUSERGRID-448
p885
aVUSERGRID-447
p886
aVUSERGRID-446
p887
aVUSERGRID-445
p888
aVUSERGRID-444
p889
aVUSERGRID-443
p890
aVUSERGRID-442
p891
aVUSERGRID-441
p892
aVUSERGRID-439
p893
aVUSERGRID-438
p894
aVUSERGRID-437
p895
aVUSERGRID-436
p896
aVUSERGRID-435
p897
aVUSERGRID-434
p898
aVUSERGRID-433
p899
aVUSERGRID-432
p900
aVUSERGRID-431
p901
aVUSERGRID-430
p902
aVUSERGRID-429
p903
aVUSERGRID-428
p904
aVUSERGRID-427
p905
aVUSERGRID-426
p906
aVUSERGRID-425
p907
aVUSERGRID-424
p908
aVUSERGRID-423
p909
aVUSERGRID-422
p910
aVUSERGRID-421
p911
aVUSERGRID-420
p912
aVUSERGRID-419
p913
aVUSERGRID-418
p914
aVUSERGRID-416
p915
aVUSERGRID-415
p916
aVUSERGRID-414
p917
aVUSERGRID-413
p918
aVUSERGRID-412
p919
aVUSERGRID-411
p920
aVUSERGRID-410
p921
aVUSERGRID-409
p922
aVUSERGRID-408
p923
aVUSERGRID-407
p924
aVUSERGRID-406
p925
aVUSERGRID-405
p926
aVUSERGRID-404
p927
aVUSERGRID-403
p928
aVUSERGRID-402
p929
aVUSERGRID-401
p930
aVUSERGRID-400
p931
aVUSERGRID-399
p932
aVUSERGRID-398
p933
aVUSERGRID-397
p934
aVUSERGRID-396
p935
aVUSERGRID-395
p936
aVUSERGRID-394
p937
aVUSERGRID-393
p938
aVUSERGRID-392
p939
aVUSERGRID-391
p940
aVUSERGRID-390
p941
aVUSERGRID-389
p942
aVUSERGRID-388
p943
aVUSERGRID-387
p944
aVUSERGRID-386
p945
aVUSERGRID-385
p946
aVUSERGRID-384
p947
aVUSERGRID-383
p948
aVUSERGRID-382
p949
aVUSERGRID-381
p950
aVUSERGRID-380
p951
aVUSERGRID-379
p952
aVUSERGRID-378
p953
aVUSERGRID-377
p954
aVUSERGRID-376
p955
aVUSERGRID-375
p956
aVUSERGRID-374
p957
aVUSERGRID-373
p958
aVUSERGRID-372
p959
aVUSERGRID-371
p960
aVUSERGRID-370
p961
aVUSERGRID-369
p962
aVUSERGRID-368
p963
aVUSERGRID-367
p964
aVUSERGRID-366
p965
aVUSERGRID-365
p966
aVUSERGRID-364
p967
aVUSERGRID-363
p968
aVUSERGRID-362
p969
aVUSERGRID-361
p970
aVUSERGRID-360
p971
aVUSERGRID-359
p972
aVUSERGRID-358
p973
aVUSERGRID-357
p974
aVUSERGRID-356
p975
aVUSERGRID-355
p976
aVUSERGRID-354
p977
aVUSERGRID-353
p978
aVUSERGRID-352
p979
aVUSERGRID-351
p980
aVUSERGRID-350
p981
aVUSERGRID-349
p982
aVUSERGRID-348
p983
aVUSERGRID-347
p984
aVUSERGRID-346
p985
aVUSERGRID-345
p986
aVUSERGRID-344
p987
aVUSERGRID-343
p988
aVUSERGRID-342
p989
aVUSERGRID-341
p990
aVUSERGRID-340
p991
aVUSERGRID-339
p992
aVUSERGRID-338
p993
aVUSERGRID-337
p994
aVUSERGRID-336
p995
aVUSERGRID-335
p996
aVUSERGRID-334
p997
aVUSERGRID-333
p998
aVUSERGRID-332
p999
aVUSERGRID-331
p1000
aVUSERGRID-330
p1001
aVUSERGRID-329
p1002
aVUSERGRID-328
p1003
aVUSERGRID-327
p1004
aVUSERGRID-326
p1005
aVUSERGRID-325
p1006
aVUSERGRID-324
p1007
aVUSERGRID-323
p1008
aVUSERGRID-322
p1009
aVUSERGRID-321
p1010
aVUSERGRID-320
p1011
aVUSERGRID-319
p1012
aVUSERGRID-318
p1013
aVUSERGRID-317
p1014
aVUSERGRID-316
p1015
aVUSERGRID-315
p1016
aVUSERGRID-314
p1017
aVUSERGRID-313
p1018
aVUSERGRID-312
p1019
aVUSERGRID-311
p1020
aVUSERGRID-310
p1021
aVUSERGRID-309
p1022
aVUSERGRID-308
p1023
aVUSERGRID-307
p1024
aVUSERGRID-306
p1025
aVUSERGRID-305
p1026
aVUSERGRID-304
p1027
aVUSERGRID-303
p1028
aVUSERGRID-302
p1029
aVUSERGRID-301
p1030
aVUSERGRID-300
p1031
aVUSERGRID-299
p1032
aVUSERGRID-298
p1033
aVUSERGRID-297
p1034
aVUSERGRID-296
p1035
aVUSERGRID-295
p1036
aVUSERGRID-294
p1037
aVUSERGRID-293
p1038
aVUSERGRID-292
p1039
aVUSERGRID-291
p1040
aVUSERGRID-290
p1041
aVUSERGRID-289
p1042
aVUSERGRID-288
p1043
aVUSERGRID-287
p1044
aVUSERGRID-286
p1045
aVUSERGRID-285
p1046
aVUSERGRID-284
p1047
aVUSERGRID-282
p1048
aVUSERGRID-281
p1049
aVUSERGRID-280
p1050
aVUSERGRID-279
p1051
aVUSERGRID-278
p1052
aVUSERGRID-276
p1053
aVUSERGRID-274
p1054
aVUSERGRID-273
p1055
aVUSERGRID-272
p1056
aVUSERGRID-271
p1057
aVUSERGRID-270
p1058
aVUSERGRID-269
p1059
aVUSERGRID-268
p1060
aVUSERGRID-267
p1061
aVUSERGRID-266
p1062
aVUSERGRID-265
p1063
aVUSERGRID-264
p1064
aVUSERGRID-263
p1065
aVUSERGRID-262
p1066
aVUSERGRID-261
p1067
aVUSERGRID-260
p1068
aVUSERGRID-259
p1069
aVUSERGRID-258
p1070
aVUSERGRID-257
p1071
aVUSERGRID-256
p1072
aVUSERGRID-255
p1073
aVUSERGRID-254
p1074
aVUSERGRID-253
p1075
aVUSERGRID-252
p1076
aVUSERGRID-251
p1077
aVUSERGRID-250
p1078
aVUSERGRID-249
p1079
aVUSERGRID-248
p1080
aVUSERGRID-247
p1081
aVUSERGRID-246
p1082
aVUSERGRID-245
p1083
aVUSERGRID-244
p1084
aVUSERGRID-243
p1085
aVUSERGRID-242
p1086
aVUSERGRID-241
p1087
aVUSERGRID-240
p1088
aVUSERGRID-239
p1089
aVUSERGRID-238
p1090
aVUSERGRID-237
p1091
aVUSERGRID-236
p1092
aVUSERGRID-235
p1093
aVUSERGRID-234
p1094
aVUSERGRID-233
p1095
aVUSERGRID-232
p1096
aVUSERGRID-231
p1097
aVUSERGRID-230
p1098
aVUSERGRID-229
p1099
aVUSERGRID-228
p1100
aVUSERGRID-227
p1101
aVUSERGRID-226
p1102
aVUSERGRID-225
p1103
aVUSERGRID-224
p1104
aVUSERGRID-223
p1105
aVUSERGRID-222
p1106
aVUSERGRID-221
p1107
aVUSERGRID-220
p1108
aVUSERGRID-219
p1109
aVUSERGRID-218
p1110
aVUSERGRID-217
p1111
aVUSERGRID-216
p1112
aVUSERGRID-215
p1113
aVUSERGRID-214
p1114
aVUSERGRID-213
p1115
aVUSERGRID-212
p1116
aVUSERGRID-211
p1117
aVUSERGRID-210
p1118
aVUSERGRID-209
p1119
aVUSERGRID-208
p1120
aVUSERGRID-207
p1121
aVUSERGRID-206
p1122
aVUSERGRID-205
p1123
aVUSERGRID-204
p1124
aVUSERGRID-203
p1125
aVUSERGRID-202
p1126
aVUSERGRID-201
p1127
aVUSERGRID-200
p1128
aVUSERGRID-199
p1129
aVUSERGRID-198
p1130
aVUSERGRID-197
p1131
aVUSERGRID-196
p1132
aVUSERGRID-195
p1133
aVUSERGRID-194
p1134
aVUSERGRID-193
p1135
aVUSERGRID-192
p1136
aVUSERGRID-191
p1137
aVUSERGRID-190
p1138
aVUSERGRID-189
p1139
aVUSERGRID-188
p1140
aVUSERGRID-187
p1141
aVUSERGRID-186
p1142
aVUSERGRID-185
p1143
aVUSERGRID-184
p1144
aVUSERGRID-183
p1145
aVUSERGRID-182
p1146
aVUSERGRID-181
p1147
aVUSERGRID-180
p1148
aVUSERGRID-179
p1149
aVUSERGRID-178
p1150
aVUSERGRID-177
p1151
aVUSERGRID-176
p1152
aVUSERGRID-175
p1153
aVUSERGRID-174
p1154
aVUSERGRID-173
p1155
aVUSERGRID-172
p1156
aVUSERGRID-171
p1157
aVUSERGRID-170
p1158
aVUSERGRID-169
p1159
aVUSERGRID-168
p1160
aVUSERGRID-167
p1161
aVUSERGRID-166
p1162
aVUSERGRID-165
p1163
aVUSERGRID-164
p1164
aVUSERGRID-163
p1165
aVUSERGRID-162
p1166
aVUSERGRID-161
p1167
aVUSERGRID-160
p1168
aVUSERGRID-159
p1169
aVUSERGRID-158
p1170
aVUSERGRID-157
p1171
aVUSERGRID-156
p1172
aVUSERGRID-155
p1173
aVUSERGRID-154
p1174
aVUSERGRID-153
p1175
aVUSERGRID-152
p1176
aVUSERGRID-151
p1177
aVUSERGRID-150
p1178
aVUSERGRID-149
p1179
aVUSERGRID-148
p1180
aVUSERGRID-147
p1181
aVUSERGRID-146
p1182
aVUSERGRID-145
p1183
aVUSERGRID-144
p1184
aVUSERGRID-143
p1185
aVUSERGRID-142
p1186
aVUSERGRID-141
p1187
aVUSERGRID-140
p1188
aVUSERGRID-139
p1189
aVUSERGRID-138
p1190
aVUSERGRID-137
p1191
aVUSERGRID-136
p1192
aVUSERGRID-135
p1193
aVUSERGRID-134
p1194
aVUSERGRID-133
p1195
aVUSERGRID-132
p1196
aVUSERGRID-131
p1197
aVUSERGRID-130
p1198
aVUSERGRID-129
p1199
aVUSERGRID-128
p1200
aVUSERGRID-127
p1201
aVUSERGRID-126
p1202
aVUSERGRID-125
p1203
aVUSERGRID-124
p1204
aVUSERGRID-123
p1205
aVUSERGRID-122
p1206
aVUSERGRID-121
p1207
aVUSERGRID-120
p1208
aVUSERGRID-119
p1209
aVUSERGRID-118
p1210
aVUSERGRID-117
p1211
aVUSERGRID-116
p1212
aVUSERGRID-115
p1213
aVUSERGRID-114
p1214
aVUSERGRID-113
p1215
aVUSERGRID-112
p1216
aVUSERGRID-111
p1217
aVUSERGRID-110
p1218
aVUSERGRID-109
p1219
aVUSERGRID-108
p1220
aVUSERGRID-107
p1221
aVUSERGRID-106
p1222
aVUSERGRID-105
p1223
aVUSERGRID-104
p1224
aVUSERGRID-103
p1225
aVUSERGRID-102
p1226
aVUSERGRID-101
p1227
aVUSERGRID-100
p1228
aVUSERGRID-99
p1229
aVUSERGRID-98
p1230
aVUSERGRID-97
p1231
aVUSERGRID-96
p1232
aVUSERGRID-95
p1233
aVUSERGRID-94
p1234
aVUSERGRID-93
p1235
aVUSERGRID-92
p1236
aVUSERGRID-91
p1237
aVUSERGRID-90
p1238
aVUSERGRID-89
p1239
aVUSERGRID-88
p1240
aVUSERGRID-87
p1241
aVUSERGRID-86
p1242
aVUSERGRID-85
p1243
aVUSERGRID-84
p1244
aVUSERGRID-83
p1245
aVUSERGRID-82
p1246
aVUSERGRID-81
p1247
aVUSERGRID-80
p1248
aVUSERGRID-79
p1249
aVUSERGRID-78
p1250
aVUSERGRID-77
p1251
aVUSERGRID-76
p1252
aVUSERGRID-75
p1253
aVUSERGRID-74
p1254
aVUSERGRID-73
p1255
aVUSERGRID-72
p1256
aVUSERGRID-71
p1257
aVUSERGRID-70
p1258
aVUSERGRID-69
p1259
aVUSERGRID-68
p1260
aVUSERGRID-67
p1261
aVUSERGRID-66
p1262
aVUSERGRID-65
p1263
aVUSERGRID-64
p1264
aVUSERGRID-63
p1265
aVUSERGRID-62
p1266
aVUSERGRID-61
p1267
aVUSERGRID-60
p1268
aVUSERGRID-59
p1269
aVUSERGRID-58
p1270
aVUSERGRID-57
p1271
aVUSERGRID-56
p1272
aVUSERGRID-55
p1273
aVUSERGRID-54
p1274
aVUSERGRID-53
p1275
aVUSERGRID-52
p1276
aVUSERGRID-51
p1277
aVUSERGRID-50
p1278
aVUSERGRID-49
p1279
aVUSERGRID-48
p1280
aVUSERGRID-47
p1281
aVUSERGRID-46
p1282
aVUSERGRID-45
p1283
aVUSERGRID-44
p1284
aVUSERGRID-43
p1285
aVUSERGRID-42
p1286
aVUSERGRID-41
p1287
aVUSERGRID-40
p1288
aVUSERGRID-39
p1289
aVUSERGRID-38
p1290
aVUSERGRID-37
p1291
aVUSERGRID-36
p1292
aVUSERGRID-35
p1293
aVUSERGRID-34
p1294
aVUSERGRID-33
p1295
aVUSERGRID-32
p1296
aVUSERGRID-31
p1297
aVUSERGRID-30
p1298
aVUSERGRID-29
p1299
aVUSERGRID-28
p1300
aVUSERGRID-27
p1301
aVUSERGRID-26
p1302
aVUSERGRID-25
p1303
aVUSERGRID-24
p1304
aVUSERGRID-23
p1305
aVUSERGRID-22
p1306
aVUSERGRID-21
p1307
aVUSERGRID-20
p1308
aVUSERGRID-19
p1309
aVUSERGRID-18
p1310
aVUSERGRID-17
p1311
aVUSERGRID-16
p1312
aVUSERGRID-15
p1313
aVUSERGRID-14
p1314
aVUSERGRID-13
p1315
aVUSERGRID-12
p1316
aVUSERGRID-11
p1317
aVUSERGRID-10
p1318
aVUSERGRID-9
p1319
aVUSERGRID-8
p1320
aVUSERGRID-7
p1321
aVUSERGRID-6
p1322
aVUSERGRID-5
p1323
aVUSERGRID-4
p1324
aVUSERGRID-3
p1325
aVUSERGRID-2
p1326
aVUSERGRID-1
p1327
a.