(lp0
VVALIDATOR-442
p1
aVVALIDATOR-441
p2
aVVALIDATOR-440
p3
aVVALIDATOR-439
p4
aVVALIDATOR-438
p5
aVVALIDATOR-437
p6
aVVALIDATOR-436
p7
aVVALIDATOR-435
p8
aVVALIDATOR-434
p9
aVVALIDATOR-433
p10
aVVALIDATOR-430
p11
aVVALIDATOR-429
p12
aVVALIDATOR-428
p13
aVVALIDATOR-427
p14
aVVALIDATOR-426
p15
aVVALIDATOR-425
p16
aVVALIDATOR-424
p17
aVVALIDATOR-423
p18
aVVALIDATOR-422
p19
aVVALIDATOR-421
p20
aVVALIDATOR-420
p21
aVVALIDATOR-419
p22
aVVALIDATOR-418
p23
aVVALIDATOR-417
p24
aVVALIDATOR-416
p25
aVVALIDATOR-415
p26
aVVALIDATOR-414
p27
aVVALIDATOR-413
p28
aVVALIDATOR-412
p29
aVVALIDATOR-411
p30
aVVALIDATOR-410
p31
aVVALIDATOR-409
p32
aVVALIDATOR-408
p33
aVVALIDATOR-407
p34
aVVALIDATOR-406
p35
aVVALIDATOR-405
p36
aVVALIDATOR-404
p37
aVVALIDATOR-403
p38
aVVALIDATOR-402
p39
aVVALIDATOR-401
p40
aVVALIDATOR-400
p41
aVVALIDATOR-399
p42
aVVALIDATOR-398
p43
aVVALIDATOR-397
p44
aVVALIDATOR-396
p45
aVVALIDATOR-395
p46
aVVALIDATOR-394
p47
aVVALIDATOR-393
p48
aVVALIDATOR-392
p49
aVVALIDATOR-391
p50
aVVALIDATOR-390
p51
aVVALIDATOR-389
p52
aVVALIDATOR-388
p53
aVVALIDATOR-387
p54
aVVALIDATOR-386
p55
aVVALIDATOR-385
p56
aVVALIDATOR-384
p57
aVVALIDATOR-383
p58
aVVALIDATOR-382
p59
aVVALIDATOR-381
p60
aVVALIDATOR-380
p61
aVVALIDATOR-379
p62
aVVALIDATOR-378
p63
aVVALIDATOR-377
p64
aVVALIDATOR-376
p65
aVVALIDATOR-375
p66
aVVALIDATOR-374
p67
aVVALIDATOR-373
p68
aVVALIDATOR-372
p69
aVVALIDATOR-371
p70
aVVALIDATOR-370
p71
aVVALIDATOR-369
p72
aVVALIDATOR-368
p73
aVVALIDATOR-367
p74
aVVALIDATOR-366
p75
aVVALIDATOR-365
p76
aVVALIDATOR-364
p77
aVVALIDATOR-363
p78
aVVALIDATOR-362
p79
aVVALIDATOR-361
p80
aVVALIDATOR-360
p81
aVVALIDATOR-359
p82
aVVALIDATOR-358
p83
aVVALIDATOR-357
p84
aVVALIDATOR-356
p85
aVVALIDATOR-355
p86
aVVALIDATOR-354
p87
aVVALIDATOR-353
p88
aVVALIDATOR-352
p89
aVVALIDATOR-351
p90
aVVALIDATOR-350
p91
aVVALIDATOR-349
p92
aVVALIDATOR-348
p93
aVVALIDATOR-347
p94
aVVALIDATOR-346
p95
aVVALIDATOR-345
p96
aVVALIDATOR-344
p97
aVVALIDATOR-343
p98
aVVALIDATOR-342
p99
aVVALIDATOR-341
p100
aVVALIDATOR-340
p101
aVVALIDATOR-339
p102
aVVALIDATOR-338
p103
aVVALIDATOR-337
p104
aVVALIDATOR-336
p105
aVVALIDATOR-335
p106
aVVALIDATOR-334
p107
aVVALIDATOR-333
p108
aVVALIDATOR-332
p109
aVVALIDATOR-331
p110
aVVALIDATOR-330
p111
aVVALIDATOR-329
p112
aVVALIDATOR-328
p113
aVVALIDATOR-327
p114
aVVALIDATOR-326
p115
aVVALIDATOR-325
p116
aVVALIDATOR-324
p117
aVVALIDATOR-323
p118
aVVALIDATOR-322
p119
aVVALIDATOR-321
p120
aVVALIDATOR-320
p121
aVVALIDATOR-319
p122
aVVALIDATOR-318
p123
aVVALIDATOR-317
p124
aVVALIDATOR-316
p125
aVVALIDATOR-315
p126
aVVALIDATOR-314
p127
aVVALIDATOR-313
p128
aVVALIDATOR-312
p129
aVVALIDATOR-311
p130
aVVALIDATOR-310
p131
aVVALIDATOR-309
p132
aVVALIDATOR-308
p133
aVVALIDATOR-307
p134
aVVALIDATOR-306
p135
aVVALIDATOR-305
p136
aVVALIDATOR-304
p137
aVVALIDATOR-303
p138
aVVALIDATOR-302
p139
aVVALIDATOR-301
p140
aVVALIDATOR-300
p141
aVVALIDATOR-299
p142
aVVALIDATOR-298
p143
aVVALIDATOR-297
p144
aVVALIDATOR-296
p145
aVVALIDATOR-295
p146
aVVALIDATOR-294
p147
aVVALIDATOR-293
p148
aVVALIDATOR-292
p149
aVVALIDATOR-291
p150
aVVALIDATOR-290
p151
aVVALIDATOR-289
p152
aVVALIDATOR-288
p153
aVVALIDATOR-287
p154
aVVALIDATOR-286
p155
aVVALIDATOR-285
p156
aVVALIDATOR-284
p157
aVVALIDATOR-283
p158
aVVALIDATOR-282
p159
aVVALIDATOR-281
p160
aVVALIDATOR-280
p161
aVVALIDATOR-279
p162
aVVALIDATOR-278
p163
aVVALIDATOR-277
p164
aVVALIDATOR-276
p165
aVVALIDATOR-275
p166
aVVALIDATOR-274
p167
aVVALIDATOR-273
p168
aVVALIDATOR-272
p169
aVVALIDATOR-271
p170
aVVALIDATOR-270
p171
aVVALIDATOR-269
p172
aVVALIDATOR-268
p173
aVVALIDATOR-267
p174
aVVALIDATOR-266
p175
aVVALIDATOR-265
p176
aVVALIDATOR-264
p177
aVVALIDATOR-263
p178
aVVALIDATOR-262
p179
aVVALIDATOR-261
p180
aVVALIDATOR-260
p181
aVVALIDATOR-259
p182
aVVALIDATOR-258
p183
aVVALIDATOR-257
p184
aVVALIDATOR-256
p185
aVVALIDATOR-255
p186
aVVALIDATOR-254
p187
aVVALIDATOR-253
p188
aVVALIDATOR-252
p189
aVVALIDATOR-251
p190
aVVALIDATOR-250
p191
aVVALIDATOR-249
p192
aVVALIDATOR-248
p193
aVVALIDATOR-247
p194
aVVALIDATOR-246
p195
aVVALIDATOR-245
p196
aVVALIDATOR-244
p197
aVVALIDATOR-243
p198
aVVALIDATOR-242
p199
aVVALIDATOR-241
p200
aVVALIDATOR-240
p201
aVVALIDATOR-239
p202
aVVALIDATOR-238
p203
aVVALIDATOR-237
p204
aVVALIDATOR-236
p205
aVVALIDATOR-235
p206
aVVALIDATOR-234
p207
aVVALIDATOR-233
p208
aVVALIDATOR-232
p209
aVVALIDATOR-231
p210
aVVALIDATOR-230
p211
aVVALIDATOR-229
p212
aVVALIDATOR-228
p213
aVVALIDATOR-227
p214
aVVALIDATOR-226
p215
aVVALIDATOR-225
p216
aVVALIDATOR-224
p217
aVVALIDATOR-223
p218
aVVALIDATOR-222
p219
aVVALIDATOR-221
p220
aVVALIDATOR-220
p221
aVVALIDATOR-219
p222
aVVALIDATOR-218
p223
aVVALIDATOR-217
p224
aVVALIDATOR-216
p225
aVVALIDATOR-215
p226
aVVALIDATOR-214
p227
aVVALIDATOR-213
p228
aVVALIDATOR-212
p229
aVVALIDATOR-211
p230
aVVALIDATOR-210
p231
aVVALIDATOR-209
p232
aVVALIDATOR-208
p233
aVVALIDATOR-207
p234
aVVALIDATOR-206
p235
aVVALIDATOR-205
p236
aVVALIDATOR-204
p237
aVVALIDATOR-203
p238
aVVALIDATOR-202
p239
aVVALIDATOR-201
p240
aVVALIDATOR-200
p241
aVVALIDATOR-199
p242
aVVALIDATOR-198
p243
aVVALIDATOR-197
p244
aVVALIDATOR-196
p245
aVVALIDATOR-195
p246
aVVALIDATOR-194
p247
aVVALIDATOR-193
p248
aVVALIDATOR-192
p249
aVVALIDATOR-191
p250
aVVALIDATOR-190
p251
aVVALIDATOR-189
p252
aVVALIDATOR-188
p253
aVVALIDATOR-187
p254
aVVALIDATOR-186
p255
aVVALIDATOR-185
p256
aVVALIDATOR-184
p257
aVVALIDATOR-183
p258
aVVALIDATOR-182
p259
aVVALIDATOR-181
p260
aVVALIDATOR-180
p261
aVVALIDATOR-179
p262
aVVALIDATOR-178
p263
aVVALIDATOR-177
p264
aVVALIDATOR-176
p265
aVVALIDATOR-175
p266
aVVALIDATOR-174
p267
aVVALIDATOR-173
p268
aVVALIDATOR-172
p269
aVVALIDATOR-171
p270
aVVALIDATOR-170
p271
aVVALIDATOR-169
p272
aVVALIDATOR-168
p273
aVVALIDATOR-167
p274
aVVALIDATOR-166
p275
aVVALIDATOR-165
p276
aVVALIDATOR-164
p277
aVVALIDATOR-163
p278
aVVALIDATOR-162
p279
aVVALIDATOR-161
p280
aVVALIDATOR-160
p281
aVVALIDATOR-159
p282
aVVALIDATOR-158
p283
aVVALIDATOR-157
p284
aVVALIDATOR-156
p285
aVVALIDATOR-155
p286
aVVALIDATOR-154
p287
aVVALIDATOR-153
p288
aVVALIDATOR-152
p289
aVVALIDATOR-151
p290
aVVALIDATOR-150
p291
aVVALIDATOR-149
p292
aVVALIDATOR-148
p293
aVVALIDATOR-147
p294
aVVALIDATOR-146
p295
aVVALIDATOR-145
p296
aVVALIDATOR-144
p297
aVVALIDATOR-143
p298
aVVALIDATOR-142
p299
aVVALIDATOR-141
p300
aVVALIDATOR-140
p301
aVVALIDATOR-139
p302
aVVALIDATOR-138
p303
aVVALIDATOR-137
p304
aVVALIDATOR-136
p305
aVVALIDATOR-135
p306
aVVALIDATOR-134
p307
aVVALIDATOR-133
p308
aVVALIDATOR-132
p309
aVVALIDATOR-131
p310
aVVALIDATOR-130
p311
aVVALIDATOR-129
p312
aVVALIDATOR-128
p313
aVVALIDATOR-127
p314
aVVALIDATOR-126
p315
aVVALIDATOR-125
p316
aVVALIDATOR-124
p317
aVVALIDATOR-123
p318
aVVALIDATOR-122
p319
aVVALIDATOR-121
p320
aVVALIDATOR-120
p321
aVVALIDATOR-119
p322
aVVALIDATOR-118
p323
aVVALIDATOR-117
p324
aVVALIDATOR-116
p325
aVVALIDATOR-115
p326
aVVALIDATOR-114
p327
aVVALIDATOR-113
p328
aVVALIDATOR-112
p329
aVVALIDATOR-111
p330
aVVALIDATOR-110
p331
aVVALIDATOR-109
p332
aVVALIDATOR-108
p333
aVVALIDATOR-107
p334
aVVALIDATOR-106
p335
aVVALIDATOR-105
p336
aVVALIDATOR-104
p337
aVVALIDATOR-103
p338
aVVALIDATOR-102
p339
aVVALIDATOR-101
p340
aVVALIDATOR-100
p341
aVVALIDATOR-99
p342
aVVALIDATOR-98
p343
aVVALIDATOR-97
p344
aVVALIDATOR-96
p345
aVVALIDATOR-95
p346
aVVALIDATOR-94
p347
aVVALIDATOR-93
p348
aVVALIDATOR-92
p349
aVVALIDATOR-91
p350
aVVALIDATOR-90
p351
aVVALIDATOR-89
p352
aVVALIDATOR-88
p353
aVVALIDATOR-87
p354
aVVALIDATOR-86
p355
aVVALIDATOR-85
p356
aVVALIDATOR-84
p357
aVVALIDATOR-83
p358
aVVALIDATOR-82
p359
aVVALIDATOR-81
p360
aVVALIDATOR-80
p361
aVVALIDATOR-79
p362
aVVALIDATOR-78
p363
aVVALIDATOR-77
p364
aVVALIDATOR-76
p365
aVVALIDATOR-75
p366
aVVALIDATOR-74
p367
aVVALIDATOR-73
p368
aVVALIDATOR-72
p369
aVVALIDATOR-71
p370
aVVALIDATOR-70
p371
aVVALIDATOR-69
p372
aVVALIDATOR-68
p373
aVVALIDATOR-67
p374
aVVALIDATOR-66
p375
aVVALIDATOR-65
p376
aVVALIDATOR-64
p377
aVVALIDATOR-63
p378
aVVALIDATOR-62
p379
aVVALIDATOR-61
p380
aVVALIDATOR-60
p381
aVVALIDATOR-59
p382
aVVALIDATOR-58
p383
aVVALIDATOR-57
p384
aVVALIDATOR-56
p385
aVVALIDATOR-55
p386
aVVALIDATOR-54
p387
aVVALIDATOR-53
p388
aVVALIDATOR-52
p389
aVVALIDATOR-51
p390
aVVALIDATOR-50
p391
aVVALIDATOR-49
p392
aVVALIDATOR-48
p393
aVVALIDATOR-47
p394
aVVALIDATOR-46
p395
aVVALIDATOR-45
p396
aVVALIDATOR-44
p397
aVVALIDATOR-43
p398
aVVALIDATOR-42
p399
aVVALIDATOR-41
p400
aVVALIDATOR-40
p401
aVVALIDATOR-39
p402
aVVALIDATOR-38
p403
aVVALIDATOR-37
p404
aVVALIDATOR-36
p405
aVVALIDATOR-35
p406
aVVALIDATOR-34
p407
aVVALIDATOR-33
p408
aVVALIDATOR-32
p409
aVVALIDATOR-31
p410
aVVALIDATOR-30
p411
aVVALIDATOR-29
p412
aVVALIDATOR-28
p413
aVVALIDATOR-27
p414
aVVALIDATOR-26
p415
aVVALIDATOR-25
p416
aVVALIDATOR-24
p417
aVVALIDATOR-23
p418
aVVALIDATOR-22
p419
aVVALIDATOR-21
p420
aVVALIDATOR-20
p421
aVVALIDATOR-19
p422
aVVALIDATOR-18
p423
aVVALIDATOR-17
p424
aVVALIDATOR-16
p425
aVVALIDATOR-15
p426
aVVALIDATOR-14
p427
aVVALIDATOR-13
p428
aVVALIDATOR-12
p429
aVVALIDATOR-11
p430
aVVALIDATOR-10
p431
aVVALIDATOR-9
p432
aVVALIDATOR-8
p433
aVVALIDATOR-7
p434
aVVALIDATOR-6
p435
aVVALIDATOR-5
p436
aVVALIDATOR-4
p437
aVVALIDATOR-3
p438
aVVALIDATOR-2
p439
aVVALIDATOR-1
p440
a.