(lp0
VVELTOOLS-173
p1
aVVELTOOLS-172
p2
aVVELTOOLS-171
p3
aVVELTOOLS-170
p4
aVVELTOOLS-169
p5
aVVELTOOLS-168
p6
aVVELTOOLS-167
p7
aVVELTOOLS-166
p8
aVVELTOOLS-165
p9
aVVELTOOLS-164
p10
aVVELTOOLS-163
p11
aVVELTOOLS-162
p12
aVVELTOOLS-161
p13
aVVELTOOLS-160
p14
aVVELTOOLS-159
p15
aVVELTOOLS-158
p16
aVVELTOOLS-157
p17
aVVELTOOLS-156
p18
aVVELTOOLS-155
p19
aVVELTOOLS-154
p20
aVVELTOOLS-153
p21
aVVELTOOLS-152
p22
aVVELTOOLS-151
p23
aVVELTOOLS-150
p24
aVVELTOOLS-149
p25
aVVELTOOLS-148
p26
aVVELTOOLS-147
p27
aVVELTOOLS-146
p28
aVVELTOOLS-145
p29
aVVELTOOLS-144
p30
aVVELTOOLS-143
p31
aVVELTOOLS-142
p32
aVVELTOOLS-141
p33
aVVELTOOLS-140
p34
aVVELTOOLS-139
p35
aVVELTOOLS-138
p36
aVVELTOOLS-137
p37
aVVELTOOLS-136
p38
aVVELTOOLS-135
p39
aVVELTOOLS-134
p40
aVVELTOOLS-133
p41
aVVELTOOLS-132
p42
aVVELTOOLS-131
p43
aVVELTOOLS-130
p44
aVVELTOOLS-129
p45
aVVELTOOLS-128
p46
aVVELTOOLS-127
p47
aVVELTOOLS-126
p48
aVVELTOOLS-125
p49
aVVELTOOLS-124
p50
aVVELTOOLS-123
p51
aVVELTOOLS-122
p52
aVVELTOOLS-121
p53
aVVELTOOLS-120
p54
aVVELTOOLS-119
p55
aVVELTOOLS-118
p56
aVVELTOOLS-117
p57
aVVELTOOLS-116
p58
aVVELTOOLS-115
p59
aVVELTOOLS-114
p60
aVVELTOOLS-113
p61
aVVELTOOLS-112
p62
aVVELTOOLS-111
p63
aVVELTOOLS-110
p64
aVVELTOOLS-109
p65
aVVELTOOLS-108
p66
aVVELTOOLS-107
p67
aVVELTOOLS-106
p68
aVVELTOOLS-105
p69
aVVELTOOLS-104
p70
aVVELTOOLS-103
p71
aVVELTOOLS-102
p72
aVVELTOOLS-101
p73
aVVELTOOLS-100
p74
aVVELTOOLS-99
p75
aVVELTOOLS-98
p76
aVVELTOOLS-97
p77
aVVELTOOLS-96
p78
aVVELTOOLS-94
p79
aVVELTOOLS-93
p80
aVVELTOOLS-92
p81
aVVELTOOLS-91
p82
aVVELTOOLS-90
p83
aVVELTOOLS-89
p84
aVVELTOOLS-88
p85
aVVELTOOLS-87
p86
aVVELTOOLS-85
p87
aVVELTOOLS-84
p88
aVVELTOOLS-83
p89
aVVELTOOLS-82
p90
aVVELTOOLS-81
p91
aVVELTOOLS-80
p92
aVVELTOOLS-79
p93
aVVELTOOLS-78
p94
aVVELTOOLS-77
p95
aVVELTOOLS-76
p96
aVVELTOOLS-75
p97
aVVELTOOLS-74
p98
aVVELTOOLS-73
p99
aVVELTOOLS-72
p100
aVVELTOOLS-71
p101
aVVELTOOLS-70
p102
aVVELTOOLS-69
p103
aVVELTOOLS-68
p104
aVVELTOOLS-67
p105
aVVELTOOLS-66
p106
aVVELTOOLS-65
p107
aVVELTOOLS-64
p108
aVVELTOOLS-63
p109
aVVELTOOLS-62
p110
aVVELTOOLS-61
p111
aVVELTOOLS-60
p112
aVVELTOOLS-59
p113
aVVELTOOLS-58
p114
aVVELTOOLS-57
p115
aVVELTOOLS-56
p116
aVVELTOOLS-55
p117
aVVELTOOLS-54
p118
aVVELTOOLS-53
p119
aVVELTOOLS-52
p120
aVVELTOOLS-51
p121
aVVELTOOLS-50
p122
aVVELTOOLS-49
p123
aVVELTOOLS-48
p124
aVVELTOOLS-47
p125
aVVELTOOLS-46
p126
aVVELTOOLS-45
p127
aVVELTOOLS-44
p128
aVVELTOOLS-43
p129
aVVELTOOLS-42
p130
aVVELTOOLS-41
p131
aVVELTOOLS-40
p132
aVVELTOOLS-39
p133
aVVELTOOLS-38
p134
aVVELTOOLS-37
p135
aVVELTOOLS-36
p136
aVVELTOOLS-35
p137
aVVELTOOLS-34
p138
aVVELTOOLS-33
p139
aVVELTOOLS-32
p140
aVVELTOOLS-31
p141
aVVELTOOLS-30
p142
aVVELTOOLS-29
p143
aVVELTOOLS-28
p144
aVVELTOOLS-27
p145
aVVELTOOLS-26
p146
aVVELTOOLS-25
p147
aVVELTOOLS-24
p148
aVVELTOOLS-23
p149
aVVELTOOLS-22
p150
aVVELTOOLS-21
p151
aVVELTOOLS-20
p152
aVVELTOOLS-19
p153
aVVELTOOLS-18
p154
aVVELTOOLS-17
p155
aVVELTOOLS-16
p156
aVVELTOOLS-15
p157
aVVELTOOLS-14
p158
aVVELTOOLS-13
p159
aVVELTOOLS-12
p160
aVVELTOOLS-11
p161
aVVELTOOLS-10
p162
aVVELTOOLS-9
p163
aVVELTOOLS-8
p164
aVVELTOOLS-7
p165
aVVELTOOLS-6
p166
aVVELTOOLS-5
p167
aVVELTOOLS-4
p168
aVVELTOOLS-3
p169
aVVELTOOLS-2
p170
aVVELTOOLS-1
p171
a.