(lp0
VVFS-669
p1
aVVFS-668
p2
aVVFS-667
p3
aVVFS-666
p4
aVVFS-665
p5
aVVFS-664
p6
aVVFS-663
p7
aVVFS-662
p8
aVVFS-661
p9
aVVFS-660
p10
aVVFS-659
p11
aVVFS-658
p12
aVVFS-657
p13
aVVFS-656
p14
aVVFS-655
p15
aVVFS-654
p16
aVVFS-653
p17
aVVFS-652
p18
aVVFS-651
p19
aVVFS-650
p20
aVVFS-649
p21
aVVFS-648
p22
aVVFS-647
p23
aVVFS-646
p24
aVVFS-645
p25
aVVFS-644
p26
aVVFS-643
p27
aVVFS-642
p28
aVVFS-641
p29
aVVFS-640
p30
aVVFS-639
p31
aVVFS-638
p32
aVVFS-637
p33
aVVFS-636
p34
aVVFS-635
p35
aVVFS-634
p36
aVVFS-633
p37
aVVFS-632
p38
aVVFS-631
p39
aVVFS-630
p40
aVVFS-629
p41
aVVFS-628
p42
aVVFS-627
p43
aVVFS-626
p44
aVVFS-625
p45
aVVFS-624
p46
aVVFS-623
p47
aVVFS-622
p48
aVVFS-621
p49
aVVFS-620
p50
aVVFS-619
p51
aVVFS-618
p52
aVVFS-617
p53
aVVFS-616
p54
aVVFS-615
p55
aVVFS-614
p56
aVVFS-613
p57
aVVFS-612
p58
aVVFS-611
p59
aVVFS-610
p60
aVVFS-609
p61
aVVFS-608
p62
aVVFS-607
p63
aVVFS-606
p64
aVVFS-605
p65
aVVFS-604
p66
aVVFS-603
p67
aVVFS-602
p68
aVVFS-601
p69
aVVFS-600
p70
aVVFS-599
p71
aVVFS-598
p72
aVVFS-597
p73
aVVFS-596
p74
aVVFS-595
p75
aVVFS-594
p76
aVVFS-593
p77
aVVFS-592
p78
aVVFS-591
p79
aVVFS-590
p80
aVVFS-589
p81
aVVFS-588
p82
aVVFS-587
p83
aVVFS-586
p84
aVVFS-585
p85
aVVFS-584
p86
aVVFS-583
p87
aVVFS-582
p88
aVVFS-581
p89
aVVFS-580
p90
aVVFS-579
p91
aVVFS-578
p92
aVVFS-577
p93
aVVFS-576
p94
aVVFS-575
p95
aVVFS-574
p96
aVVFS-573
p97
aVVFS-572
p98
aVVFS-571
p99
aVVFS-570
p100
aVVFS-569
p101
aVVFS-568
p102
aVVFS-567
p103
aVVFS-566
p104
aVVFS-565
p105
aVVFS-564
p106
aVVFS-563
p107
aVVFS-562
p108
aVVFS-561
p109
aVVFS-560
p110
aVVFS-559
p111
aVVFS-558
p112
aVVFS-557
p113
aVVFS-556
p114
aVVFS-555
p115
aVVFS-554
p116
aVVFS-553
p117
aVVFS-552
p118
aVVFS-551
p119
aVVFS-550
p120
aVVFS-549
p121
aVVFS-548
p122
aVVFS-547
p123
aVVFS-546
p124
aVVFS-545
p125
aVVFS-544
p126
aVVFS-543
p127
aVVFS-542
p128
aVVFS-541
p129
aVVFS-540
p130
aVVFS-539
p131
aVVFS-538
p132
aVVFS-537
p133
aVVFS-536
p134
aVVFS-535
p135
aVVFS-534
p136
aVVFS-533
p137
aVVFS-532
p138
aVVFS-531
p139
aVVFS-530
p140
aVVFS-529
p141
aVVFS-528
p142
aVVFS-527
p143
aVVFS-526
p144
aVVFS-525
p145
aVVFS-524
p146
aVVFS-523
p147
aVVFS-522
p148
aVVFS-521
p149
aVVFS-520
p150
aVVFS-519
p151
aVVFS-518
p152
aVVFS-517
p153
aVVFS-516
p154
aVVFS-515
p155
aVVFS-514
p156
aVVFS-513
p157
aVVFS-512
p158
aVVFS-511
p159
aVVFS-510
p160
aVVFS-509
p161
aVVFS-508
p162
aVVFS-507
p163
aVVFS-506
p164
aVVFS-505
p165
aVVFS-504
p166
aVVFS-503
p167
aVVFS-502
p168
aVVFS-501
p169
aVVFS-500
p170
aVVFS-499
p171
aVVFS-498
p172
aVVFS-497
p173
aVVFS-496
p174
aVVFS-495
p175
aVVFS-494
p176
aVVFS-493
p177
aVVFS-492
p178
aVVFS-491
p179
aVVFS-490
p180
aVVFS-489
p181
aVVFS-488
p182
aVVFS-487
p183
aVVFS-486
p184
aVVFS-485
p185
aVVFS-484
p186
aVVFS-483
p187
aVVFS-482
p188
aVVFS-481
p189
aVVFS-480
p190
aVVFS-479
p191
aVVFS-478
p192
aVVFS-477
p193
aVVFS-476
p194
aVVFS-475
p195
aVVFS-474
p196
aVVFS-473
p197
aVVFS-472
p198
aVVFS-471
p199
aVVFS-470
p200
aVVFS-469
p201
aVVFS-468
p202
aVVFS-467
p203
aVVFS-466
p204
aVVFS-465
p205
aVVFS-464
p206
aVVFS-463
p207
aVVFS-462
p208
aVVFS-461
p209
aVVFS-460
p210
aVVFS-459
p211
aVVFS-458
p212
aVVFS-457
p213
aVVFS-456
p214
aVVFS-455
p215
aVVFS-454
p216
aVVFS-453
p217
aVVFS-452
p218
aVVFS-451
p219
aVVFS-450
p220
aVVFS-449
p221
aVVFS-448
p222
aVVFS-447
p223
aVVFS-446
p224
aVVFS-445
p225
aVVFS-444
p226
aVVFS-443
p227
aVVFS-442
p228
aVVFS-441
p229
aVVFS-440
p230
aVVFS-439
p231
aVVFS-438
p232
aVVFS-437
p233
aVVFS-436
p234
aVVFS-435
p235
aVVFS-434
p236
aVVFS-433
p237
aVVFS-432
p238
aVVFS-431
p239
aVVFS-430
p240
aVVFS-429
p241
aVVFS-428
p242
aVVFS-427
p243
aVVFS-426
p244
aVVFS-425
p245
aVVFS-424
p246
aVVFS-423
p247
aVVFS-422
p248
aVVFS-421
p249
aVVFS-420
p250
aVVFS-419
p251
aVVFS-418
p252
aVVFS-417
p253
aVVFS-416
p254
aVVFS-415
p255
aVVFS-414
p256
aVVFS-413
p257
aVVFS-412
p258
aVVFS-411
p259
aVVFS-410
p260
aVVFS-409
p261
aVVFS-408
p262
aVVFS-407
p263
aVVFS-406
p264
aVVFS-405
p265
aVVFS-404
p266
aVVFS-403
p267
aVVFS-402
p268
aVVFS-401
p269
aVVFS-400
p270
aVVFS-399
p271
aVVFS-398
p272
aVVFS-397
p273
aVVFS-396
p274
aVVFS-395
p275
aVVFS-394
p276
aVVFS-393
p277
aVVFS-392
p278
aVVFS-391
p279
aVVFS-390
p280
aVVFS-389
p281
aVVFS-388
p282
aVVFS-387
p283
aVVFS-386
p284
aVVFS-385
p285
aVVFS-384
p286
aVVFS-383
p287
aVVFS-382
p288
aVVFS-381
p289
aVVFS-380
p290
aVVFS-379
p291
aVVFS-378
p292
aVVFS-377
p293
aVVFS-376
p294
aVVFS-375
p295
aVVFS-374
p296
aVVFS-373
p297
aVVFS-372
p298
aVVFS-371
p299
aVVFS-370
p300
aVVFS-369
p301
aVVFS-368
p302
aVVFS-367
p303
aVVFS-366
p304
aVVFS-365
p305
aVVFS-364
p306
aVVFS-363
p307
aVVFS-362
p308
aVVFS-361
p309
aVVFS-360
p310
aVVFS-359
p311
aVVFS-358
p312
aVVFS-357
p313
aVVFS-356
p314
aVVFS-355
p315
aVVFS-354
p316
aVVFS-353
p317
aVVFS-352
p318
aVVFS-351
p319
aVVFS-350
p320
aVVFS-349
p321
aVVFS-348
p322
aVVFS-347
p323
aVVFS-346
p324
aVVFS-345
p325
aVVFS-344
p326
aVVFS-343
p327
aVVFS-342
p328
aVVFS-341
p329
aVVFS-340
p330
aVVFS-339
p331
aVVFS-338
p332
aVVFS-337
p333
aVVFS-336
p334
aVVFS-335
p335
aVVFS-334
p336
aVVFS-333
p337
aVVFS-332
p338
aVVFS-331
p339
aVVFS-330
p340
aVVFS-329
p341
aVVFS-328
p342
aVVFS-327
p343
aVVFS-326
p344
aVVFS-325
p345
aVVFS-324
p346
aVVFS-323
p347
aVVFS-322
p348
aVVFS-321
p349
aVVFS-320
p350
aVVFS-319
p351
aVVFS-317
p352
aVVFS-316
p353
aVVFS-315
p354
aVVFS-314
p355
aVVFS-313
p356
aVVFS-312
p357
aVVFS-311
p358
aVVFS-310
p359
aVVFS-309
p360
aVVFS-308
p361
aVVFS-307
p362
aVVFS-306
p363
aVVFS-305
p364
aVVFS-304
p365
aVVFS-303
p366
aVVFS-302
p367
aVVFS-301
p368
aVVFS-300
p369
aVVFS-299
p370
aVVFS-298
p371
aVVFS-297
p372
aVVFS-296
p373
aVVFS-295
p374
aVVFS-294
p375
aVVFS-293
p376
aVVFS-292
p377
aVVFS-291
p378
aVVFS-290
p379
aVVFS-289
p380
aVVFS-288
p381
aVVFS-287
p382
aVVFS-286
p383
aVVFS-285
p384
aVVFS-284
p385
aVVFS-283
p386
aVVFS-282
p387
aVVFS-281
p388
aVVFS-280
p389
aVVFS-279
p390
aVVFS-278
p391
aVVFS-277
p392
aVVFS-276
p393
aVVFS-275
p394
aVVFS-274
p395
aVVFS-273
p396
aVVFS-272
p397
aVVFS-271
p398
aVVFS-270
p399
aVVFS-269
p400
aVVFS-268
p401
aVVFS-267
p402
aVVFS-266
p403
aVVFS-265
p404
aVVFS-264
p405
aVVFS-263
p406
aVVFS-262
p407
aVVFS-261
p408
aVVFS-260
p409
aVVFS-259
p410
aVVFS-258
p411
aVVFS-257
p412
aVVFS-256
p413
aVVFS-255
p414
aVVFS-254
p415
aVVFS-253
p416
aVVFS-252
p417
aVVFS-251
p418
aVVFS-250
p419
aVVFS-249
p420
aVVFS-248
p421
aVVFS-247
p422
aVVFS-246
p423
aVVFS-245
p424
aVVFS-244
p425
aVVFS-243
p426
aVVFS-242
p427
aVVFS-241
p428
aVVFS-240
p429
aVVFS-239
p430
aVVFS-238
p431
aVVFS-237
p432
aVVFS-236
p433
aVVFS-235
p434
aVVFS-234
p435
aVVFS-233
p436
aVVFS-232
p437
aVVFS-231
p438
aVVFS-230
p439
aVVFS-229
p440
aVVFS-228
p441
aVVFS-227
p442
aVVFS-226
p443
aVVFS-225
p444
aVVFS-224
p445
aVVFS-223
p446
aVVFS-222
p447
aVVFS-221
p448
aVVFS-220
p449
aVVFS-219
p450
aVVFS-218
p451
aVVFS-217
p452
aVVFS-216
p453
aVVFS-215
p454
aVVFS-214
p455
aVVFS-213
p456
aVVFS-212
p457
aVVFS-211
p458
aVVFS-210
p459
aVVFS-209
p460
aVVFS-208
p461
aVVFS-207
p462
aVVFS-206
p463
aVVFS-205
p464
aVVFS-204
p465
aVVFS-203
p466
aVVFS-202
p467
aVVFS-201
p468
aVVFS-200
p469
aVVFS-199
p470
aVVFS-198
p471
aVVFS-197
p472
aVVFS-196
p473
aVVFS-195
p474
aVVFS-194
p475
aVVFS-193
p476
aVVFS-192
p477
aVVFS-191
p478
aVVFS-190
p479
aVVFS-189
p480
aVVFS-188
p481
aVVFS-187
p482
aVVFS-186
p483
aVVFS-185
p484
aVVFS-184
p485
aVVFS-183
p486
aVVFS-182
p487
aVVFS-181
p488
aVVFS-180
p489
aVVFS-179
p490
aVVFS-178
p491
aVVFS-177
p492
aVVFS-176
p493
aVVFS-175
p494
aVVFS-174
p495
aVVFS-173
p496
aVVFS-172
p497
aVVFS-171
p498
aVVFS-170
p499
aVVFS-169
p500
aVVFS-168
p501
aVVFS-167
p502
aVVFS-166
p503
aVVFS-165
p504
aVVFS-164
p505
aVVFS-163
p506
aVVFS-162
p507
aVVFS-161
p508
aVVFS-160
p509
aVVFS-159
p510
aVVFS-158
p511
aVVFS-157
p512
aVVFS-156
p513
aVVFS-155
p514
aVVFS-154
p515
aVVFS-153
p516
aVVFS-152
p517
aVVFS-151
p518
aVVFS-150
p519
aVVFS-149
p520
aVVFS-148
p521
aVVFS-147
p522
aVVFS-146
p523
aVVFS-145
p524
aVVFS-144
p525
aVVFS-143
p526
aVVFS-142
p527
aVVFS-141
p528
aVVFS-140
p529
aVVFS-139
p530
aVVFS-138
p531
aVVFS-137
p532
aVVFS-136
p533
aVVFS-135
p534
aVVFS-134
p535
aVVFS-133
p536
aVVFS-132
p537
aVVFS-131
p538
aVVFS-130
p539
aVVFS-129
p540
aVVFS-128
p541
aVVFS-127
p542
aVVFS-126
p543
aVVFS-125
p544
aVVFS-124
p545
aVVFS-123
p546
aVVFS-122
p547
aVVFS-121
p548
aVVFS-120
p549
aVVFS-119
p550
aVVFS-118
p551
aVVFS-117
p552
aVVFS-116
p553
aVVFS-115
p554
aVVFS-114
p555
aVVFS-113
p556
aVVFS-112
p557
aVVFS-111
p558
aVVFS-110
p559
aVVFS-109
p560
aVVFS-108
p561
aVVFS-107
p562
aVVFS-106
p563
aVVFS-105
p564
aVVFS-104
p565
aVVFS-103
p566
aVVFS-102
p567
aVVFS-101
p568
aVVFS-100
p569
aVVFS-99
p570
aVVFS-98
p571
aVVFS-97
p572
aVVFS-96
p573
aVVFS-95
p574
aVVFS-94
p575
aVVFS-93
p576
aVVFS-92
p577
aVVFS-91
p578
aVVFS-90
p579
aVVFS-89
p580
aVVFS-88
p581
aVVFS-87
p582
aVVFS-86
p583
aVVFS-85
p584
aVVFS-84
p585
aVVFS-83
p586
aVVFS-82
p587
aVVFS-81
p588
aVVFS-80
p589
aVVFS-78
p590
aVVFS-76
p591
aVVFS-75
p592
aVVFS-74
p593
aVVFS-73
p594
aVVFS-72
p595
aVVFS-71
p596
aVVFS-70
p597
aVVFS-69
p598
aVVFS-68
p599
aVVFS-67
p600
aVVFS-66
p601
aVVFS-65
p602
aVVFS-64
p603
aVVFS-63
p604
aVVFS-62
p605
aVVFS-61
p606
aVVFS-60
p607
aVVFS-59
p608
aVVFS-58
p609
aVVFS-57
p610
aVVFS-56
p611
aVVFS-55
p612
aVVFS-54
p613
aVVFS-53
p614
aVVFS-52
p615
aVVFS-51
p616
aVVFS-50
p617
aVVFS-49
p618
aVVFS-48
p619
aVVFS-47
p620
aVVFS-46
p621
aVVFS-45
p622
aVVFS-44
p623
aVVFS-43
p624
aVVFS-42
p625
aVVFS-41
p626
aVVFS-40
p627
aVVFS-39
p628
aVVFS-38
p629
aVVFS-37
p630
aVVFS-36
p631
aVVFS-35
p632
aVVFS-34
p633
aVVFS-33
p634
aVVFS-32
p635
aVVFS-31
p636
aVVFS-30
p637
aVVFS-29
p638
aVVFS-28
p639
aVVFS-27
p640
aVVFS-26
p641
aVVFS-25
p642
aVVFS-24
p643
aVVFS-23
p644
aVVFS-22
p645
aVVFS-21
p646
aVVFS-20
p647
aVVFS-19
p648
aVVFS-18
p649
aVVFS-17
p650
aVVFS-16
p651
aVVFS-15
p652
aVVFS-14
p653
aVVFS-13
p654
aVVFS-12
p655
aVVFS-11
p656
aVVFS-10
p657
aVVFS-9
p658
aVVFS-8
p659
aVVFS-7
p660
aVVFS-6
p661
aVVFS-5
p662
aVVFS-4
p663
aVVFS-3
p664
aVVFS-2
p665
aVVFS-1
p666
a.