(lp0
VVXQUERY-246
p1
aVVXQUERY-245
p2
aVVXQUERY-244
p3
aVVXQUERY-243
p4
aVVXQUERY-242
p5
aVVXQUERY-241
p6
aVVXQUERY-240
p7
aVVXQUERY-239
p8
aVVXQUERY-238
p9
aVVXQUERY-237
p10
aVVXQUERY-236
p11
aVVXQUERY-235
p12
aVVXQUERY-234
p13
aVVXQUERY-233
p14
aVVXQUERY-232
p15
aVVXQUERY-231
p16
aVVXQUERY-230
p17
aVVXQUERY-229
p18
aVVXQUERY-228
p19
aVVXQUERY-227
p20
aVVXQUERY-226
p21
aVVXQUERY-225
p22
aVVXQUERY-224
p23
aVVXQUERY-223
p24
aVVXQUERY-222
p25
aVVXQUERY-221
p26
aVVXQUERY-220
p27
aVVXQUERY-219
p28
aVVXQUERY-218
p29
aVVXQUERY-217
p30
aVVXQUERY-216
p31
aVVXQUERY-215
p32
aVVXQUERY-214
p33
aVVXQUERY-213
p34
aVVXQUERY-212
p35
aVVXQUERY-211
p36
aVVXQUERY-210
p37
aVVXQUERY-209
p38
aVVXQUERY-208
p39
aVVXQUERY-207
p40
aVVXQUERY-206
p41
aVVXQUERY-205
p42
aVVXQUERY-204
p43
aVVXQUERY-203
p44
aVVXQUERY-202
p45
aVVXQUERY-201
p46
aVVXQUERY-200
p47
aVVXQUERY-199
p48
aVVXQUERY-198
p49
aVVXQUERY-197
p50
aVVXQUERY-196
p51
aVVXQUERY-195
p52
aVVXQUERY-194
p53
aVVXQUERY-193
p54
aVVXQUERY-192
p55
aVVXQUERY-191
p56
aVVXQUERY-190
p57
aVVXQUERY-189
p58
aVVXQUERY-188
p59
aVVXQUERY-187
p60
aVVXQUERY-186
p61
aVVXQUERY-185
p62
aVVXQUERY-184
p63
aVVXQUERY-183
p64
aVVXQUERY-182
p65
aVVXQUERY-181
p66
aVVXQUERY-180
p67
aVVXQUERY-179
p68
aVVXQUERY-178
p69
aVVXQUERY-177
p70
aVVXQUERY-176
p71
aVVXQUERY-175
p72
aVVXQUERY-174
p73
aVVXQUERY-173
p74
aVVXQUERY-172
p75
aVVXQUERY-171
p76
aVVXQUERY-170
p77
aVVXQUERY-169
p78
aVVXQUERY-168
p79
aVVXQUERY-167
p80
aVVXQUERY-166
p81
aVVXQUERY-165
p82
aVVXQUERY-164
p83
aVVXQUERY-163
p84
aVVXQUERY-162
p85
aVVXQUERY-161
p86
aVVXQUERY-160
p87
aVVXQUERY-159
p88
aVVXQUERY-158
p89
aVVXQUERY-157
p90
aVVXQUERY-156
p91
aVVXQUERY-155
p92
aVVXQUERY-154
p93
aVVXQUERY-153
p94
aVVXQUERY-152
p95
aVVXQUERY-151
p96
aVVXQUERY-150
p97
aVVXQUERY-149
p98
aVVXQUERY-148
p99
aVVXQUERY-147
p100
aVVXQUERY-146
p101
aVVXQUERY-145
p102
aVVXQUERY-144
p103
aVVXQUERY-143
p104
aVVXQUERY-142
p105
aVVXQUERY-141
p106
aVVXQUERY-140
p107
aVVXQUERY-139
p108
aVVXQUERY-138
p109
aVVXQUERY-137
p110
aVVXQUERY-136
p111
aVVXQUERY-135
p112
aVVXQUERY-134
p113
aVVXQUERY-133
p114
aVVXQUERY-132
p115
aVVXQUERY-131
p116
aVVXQUERY-130
p117
aVVXQUERY-129
p118
aVVXQUERY-128
p119
aVVXQUERY-127
p120
aVVXQUERY-126
p121
aVVXQUERY-125
p122
aVVXQUERY-124
p123
aVVXQUERY-123
p124
aVVXQUERY-122
p125
aVVXQUERY-121
p126
aVVXQUERY-120
p127
aVVXQUERY-119
p128
aVVXQUERY-118
p129
aVVXQUERY-117
p130
aVVXQUERY-116
p131
aVVXQUERY-115
p132
aVVXQUERY-114
p133
aVVXQUERY-113
p134
aVVXQUERY-112
p135
aVVXQUERY-111
p136
aVVXQUERY-110
p137
aVVXQUERY-109
p138
aVVXQUERY-108
p139
aVVXQUERY-107
p140
aVVXQUERY-106
p141
aVVXQUERY-105
p142
aVVXQUERY-104
p143
aVVXQUERY-103
p144
aVVXQUERY-102
p145
aVVXQUERY-101
p146
aVVXQUERY-97
p147
aVVXQUERY-96
p148
aVVXQUERY-95
p149
aVVXQUERY-94
p150
aVVXQUERY-93
p151
aVVXQUERY-92
p152
aVVXQUERY-91
p153
aVVXQUERY-90
p154
aVVXQUERY-89
p155
aVVXQUERY-88
p156
aVVXQUERY-87
p157
aVVXQUERY-86
p158
aVVXQUERY-85
p159
aVVXQUERY-84
p160
aVVXQUERY-83
p161
aVVXQUERY-82
p162
aVVXQUERY-81
p163
aVVXQUERY-80
p164
aVVXQUERY-79
p165
aVVXQUERY-78
p166
aVVXQUERY-77
p167
aVVXQUERY-76
p168
aVVXQUERY-75
p169
aVVXQUERY-74
p170
aVVXQUERY-73
p171
aVVXQUERY-72
p172
aVVXQUERY-71
p173
aVVXQUERY-70
p174
aVVXQUERY-69
p175
aVVXQUERY-68
p176
aVVXQUERY-67
p177
aVVXQUERY-66
p178
aVVXQUERY-65
p179
aVVXQUERY-64
p180
aVVXQUERY-63
p181
aVVXQUERY-62
p182
aVVXQUERY-61
p183
aVVXQUERY-60
p184
aVVXQUERY-59
p185
aVVXQUERY-58
p186
aVVXQUERY-57
p187
aVVXQUERY-56
p188
aVVXQUERY-55
p189
aVVXQUERY-54
p190
aVVXQUERY-53
p191
aVVXQUERY-52
p192
aVVXQUERY-51
p193
aVVXQUERY-50
p194
aVVXQUERY-49
p195
aVVXQUERY-48
p196
aVVXQUERY-47
p197
aVVXQUERY-46
p198
aVVXQUERY-45
p199
aVVXQUERY-44
p200
aVVXQUERY-43
p201
aVVXQUERY-42
p202
aVVXQUERY-41
p203
aVVXQUERY-40
p204
aVVXQUERY-39
p205
aVVXQUERY-38
p206
aVVXQUERY-37
p207
aVVXQUERY-36
p208
aVVXQUERY-35
p209
aVVXQUERY-34
p210
aVVXQUERY-33
p211
aVVXQUERY-32
p212
aVVXQUERY-31
p213
aVVXQUERY-30
p214
aVVXQUERY-29
p215
aVVXQUERY-28
p216
aVVXQUERY-27
p217
aVVXQUERY-26
p218
aVVXQUERY-25
p219
aVVXQUERY-24
p220
aVVXQUERY-23
p221
aVVXQUERY-22
p222
aVVXQUERY-21
p223
aVVXQUERY-20
p224
aVVXQUERY-19
p225
aVVXQUERY-18
p226
aVVXQUERY-17
p227
aVVXQUERY-16
p228
aVVXQUERY-15
p229
aVVXQUERY-14
p230
aVVXQUERY-13
p231
aVVXQUERY-12
p232
aVVXQUERY-11
p233
aVVXQUERY-10
p234
aVVXQUERY-9
p235
aVVXQUERY-8
p236
aVVXQUERY-7
p237
aVVXQUERY-6
p238
aVVXQUERY-5
p239
aVVXQUERY-4
p240
aVVXQUERY-3
p241
aVVXQUERY-2
p242
aVVXQUERY-1
p243
a.