(lp0
VVYSPER-351
p1
aVVYSPER-350
p2
aVVYSPER-349
p3
aVVYSPER-348
p4
aVVYSPER-347
p5
aVVYSPER-346
p6
aVVYSPER-345
p7
aVVYSPER-344
p8
aVVYSPER-343
p9
aVVYSPER-342
p10
aVVYSPER-341
p11
aVVYSPER-340
p12
aVVYSPER-339
p13
aVVYSPER-338
p14
aVVYSPER-337
p15
aVVYSPER-336
p16
aVVYSPER-335
p17
aVVYSPER-334
p18
aVVYSPER-333
p19
aVVYSPER-332
p20
aVVYSPER-331
p21
aVVYSPER-330
p22
aVVYSPER-329
p23
aVVYSPER-328
p24
aVVYSPER-327
p25
aVVYSPER-326
p26
aVVYSPER-325
p27
aVVYSPER-324
p28
aVVYSPER-323
p29
aVVYSPER-322
p30
aVVYSPER-321
p31
aVVYSPER-320
p32
aVVYSPER-319
p33
aVVYSPER-318
p34
aVVYSPER-317
p35
aVVYSPER-316
p36
aVVYSPER-315
p37
aVVYSPER-314
p38
aVVYSPER-313
p39
aVVYSPER-312
p40
aVVYSPER-311
p41
aVVYSPER-310
p42
aVVYSPER-309
p43
aVVYSPER-308
p44
aVVYSPER-307
p45
aVVYSPER-306
p46
aVVYSPER-305
p47
aVVYSPER-304
p48
aVVYSPER-303
p49
aVVYSPER-302
p50
aVVYSPER-301
p51
aVVYSPER-300
p52
aVVYSPER-299
p53
aVVYSPER-298
p54
aVVYSPER-297
p55
aVVYSPER-296
p56
aVVYSPER-295
p57
aVVYSPER-294
p58
aVVYSPER-293
p59
aVVYSPER-292
p60
aVVYSPER-291
p61
aVVYSPER-289
p62
aVVYSPER-288
p63
aVVYSPER-287
p64
aVVYSPER-286
p65
aVVYSPER-285
p66
aVVYSPER-284
p67
aVVYSPER-283
p68
aVVYSPER-282
p69
aVVYSPER-281
p70
aVVYSPER-280
p71
aVVYSPER-279
p72
aVVYSPER-278
p73
aVVYSPER-277
p74
aVVYSPER-276
p75
aVVYSPER-275
p76
aVVYSPER-274
p77
aVVYSPER-273
p78
aVVYSPER-272
p79
aVVYSPER-271
p80
aVVYSPER-270
p81
aVVYSPER-269
p82
aVVYSPER-268
p83
aVVYSPER-267
p84
aVVYSPER-266
p85
aVVYSPER-265
p86
aVVYSPER-264
p87
aVVYSPER-263
p88
aVVYSPER-262
p89
aVVYSPER-261
p90
aVVYSPER-260
p91
aVVYSPER-259
p92
aVVYSPER-258
p93
aVVYSPER-257
p94
aVVYSPER-256
p95
aVVYSPER-255
p96
aVVYSPER-254
p97
aVVYSPER-252
p98
aVVYSPER-251
p99
aVVYSPER-250
p100
aVVYSPER-249
p101
aVVYSPER-248
p102
aVVYSPER-247
p103
aVVYSPER-246
p104
aVVYSPER-245
p105
aVVYSPER-244
p106
aVVYSPER-243
p107
aVVYSPER-242
p108
aVVYSPER-241
p109
aVVYSPER-240
p110
aVVYSPER-239
p111
aVVYSPER-238
p112
aVVYSPER-237
p113
aVVYSPER-236
p114
aVVYSPER-235
p115
aVVYSPER-234
p116
aVVYSPER-233
p117
aVVYSPER-232
p118
aVVYSPER-231
p119
aVVYSPER-230
p120
aVVYSPER-229
p121
aVVYSPER-228
p122
aVVYSPER-227
p123
aVVYSPER-226
p124
aVVYSPER-225
p125
aVVYSPER-224
p126
aVVYSPER-223
p127
aVVYSPER-222
p128
aVVYSPER-221
p129
aVVYSPER-220
p130
aVVYSPER-219
p131
aVVYSPER-218
p132
aVVYSPER-217
p133
aVVYSPER-216
p134
aVVYSPER-215
p135
aVVYSPER-214
p136
aVVYSPER-213
p137
aVVYSPER-212
p138
aVVYSPER-211
p139
aVVYSPER-210
p140
aVVYSPER-209
p141
aVVYSPER-208
p142
aVVYSPER-207
p143
aVVYSPER-206
p144
aVVYSPER-205
p145
aVVYSPER-204
p146
aVVYSPER-203
p147
aVVYSPER-202
p148
aVVYSPER-201
p149
aVVYSPER-200
p150
aVVYSPER-199
p151
aVVYSPER-198
p152
aVVYSPER-197
p153
aVVYSPER-196
p154
aVVYSPER-195
p155
aVVYSPER-194
p156
aVVYSPER-193
p157
aVVYSPER-192
p158
aVVYSPER-191
p159
aVVYSPER-190
p160
aVVYSPER-189
p161
aVVYSPER-188
p162
aVVYSPER-187
p163
aVVYSPER-186
p164
aVVYSPER-185
p165
aVVYSPER-184
p166
aVVYSPER-183
p167
aVVYSPER-182
p168
aVVYSPER-181
p169
aVVYSPER-180
p170
aVVYSPER-179
p171
aVVYSPER-178
p172
aVVYSPER-177
p173
aVVYSPER-176
p174
aVVYSPER-175
p175
aVVYSPER-174
p176
aVVYSPER-173
p177
aVVYSPER-172
p178
aVVYSPER-171
p179
aVVYSPER-170
p180
aVVYSPER-169
p181
aVVYSPER-168
p182
aVVYSPER-167
p183
aVVYSPER-166
p184
aVVYSPER-165
p185
aVVYSPER-164
p186
aVVYSPER-163
p187
aVVYSPER-162
p188
aVVYSPER-161
p189
aVVYSPER-160
p190
aVVYSPER-159
p191
aVVYSPER-158
p192
aVVYSPER-157
p193
aVVYSPER-156
p194
aVVYSPER-155
p195
aVVYSPER-154
p196
aVVYSPER-153
p197
aVVYSPER-152
p198
aVVYSPER-151
p199
aVVYSPER-150
p200
aVVYSPER-149
p201
aVVYSPER-148
p202
aVVYSPER-147
p203
aVVYSPER-146
p204
aVVYSPER-145
p205
aVVYSPER-144
p206
aVVYSPER-143
p207
aVVYSPER-142
p208
aVVYSPER-141
p209
aVVYSPER-140
p210
aVVYSPER-139
p211
aVVYSPER-138
p212
aVVYSPER-137
p213
aVVYSPER-136
p214
aVVYSPER-135
p215
aVVYSPER-134
p216
aVVYSPER-133
p217
aVVYSPER-132
p218
aVVYSPER-131
p219
aVVYSPER-130
p220
aVVYSPER-129
p221
aVVYSPER-128
p222
aVVYSPER-127
p223
aVVYSPER-126
p224
aVVYSPER-125
p225
aVVYSPER-124
p226
aVVYSPER-123
p227
aVVYSPER-122
p228
aVVYSPER-121
p229
aVVYSPER-120
p230
aVVYSPER-119
p231
aVVYSPER-118
p232
aVVYSPER-117
p233
aVVYSPER-116
p234
aVVYSPER-115
p235
aVVYSPER-114
p236
aVVYSPER-113
p237
aVVYSPER-112
p238
aVVYSPER-111
p239
aVVYSPER-110
p240
aVVYSPER-109
p241
aVVYSPER-108
p242
aVVYSPER-107
p243
aVVYSPER-106
p244
aVVYSPER-105
p245
aVVYSPER-104
p246
aVVYSPER-103
p247
aVVYSPER-102
p248
aVVYSPER-101
p249
aVVYSPER-100
p250
aVVYSPER-99
p251
aVVYSPER-98
p252
aVVYSPER-97
p253
aVVYSPER-96
p254
aVVYSPER-95
p255
aVVYSPER-94
p256
aVVYSPER-93
p257
aVVYSPER-92
p258
aVVYSPER-91
p259
aVVYSPER-90
p260
aVVYSPER-89
p261
aVVYSPER-88
p262
aVVYSPER-87
p263
aVVYSPER-86
p264
aVVYSPER-85
p265
aVVYSPER-84
p266
aVVYSPER-83
p267
aVVYSPER-82
p268
aVVYSPER-81
p269
aVVYSPER-80
p270
aVVYSPER-79
p271
aVVYSPER-78
p272
aVVYSPER-77
p273
aVVYSPER-76
p274
aVVYSPER-75
p275
aVVYSPER-74
p276
aVVYSPER-73
p277
aVVYSPER-72
p278
aVVYSPER-71
p279
aVVYSPER-70
p280
aVVYSPER-69
p281
aVVYSPER-68
p282
aVVYSPER-67
p283
aVVYSPER-66
p284
aVVYSPER-65
p285
aVVYSPER-64
p286
aVVYSPER-63
p287
aVVYSPER-62
p288
aVVYSPER-61
p289
aVVYSPER-60
p290
aVVYSPER-59
p291
aVVYSPER-58
p292
aVVYSPER-57
p293
aVVYSPER-56
p294
aVVYSPER-55
p295
aVVYSPER-54
p296
aVVYSPER-53
p297
aVVYSPER-52
p298
aVVYSPER-51
p299
aVVYSPER-50
p300
aVVYSPER-49
p301
aVVYSPER-48
p302
aVVYSPER-47
p303
aVVYSPER-46
p304
aVVYSPER-45
p305
aVVYSPER-44
p306
aVVYSPER-43
p307
aVVYSPER-42
p308
aVVYSPER-41
p309
aVVYSPER-40
p310
aVVYSPER-39
p311
aVVYSPER-38
p312
aVVYSPER-37
p313
aVVYSPER-36
p314
aVVYSPER-35
p315
aVVYSPER-34
p316
aVVYSPER-33
p317
aVVYSPER-32
p318
aVVYSPER-31
p319
aVVYSPER-30
p320
aVVYSPER-29
p321
aVVYSPER-28
p322
aVVYSPER-27
p323
aVVYSPER-26
p324
aVVYSPER-25
p325
aVVYSPER-24
p326
aVVYSPER-23
p327
aVVYSPER-22
p328
aVVYSPER-21
p329
aVVYSPER-20
p330
aVVYSPER-19
p331
aVVYSPER-18
p332
aVVYSPER-17
p333
aVVYSPER-16
p334
aVVYSPER-15
p335
aVVYSPER-14
p336
aVVYSPER-13
p337
aVVYSPER-12
p338
aVVYSPER-11
p339
aVVYSPER-10
p340
aVVYSPER-9
p341
aVVYSPER-8
p342
aVVYSPER-7
p343
aVVYSPER-6
p344
aVVYSPER-5
p345
aVVYSPER-4
p346
aVVYSPER-3
p347
aVVYSPER-2
p348
aVVYSPER-1
p349
a.