(lp0
VWAGON-523
p1
aVWAGON-522
p2
aVWAGON-521
p3
aVWAGON-520
p4
aVWAGON-519
p5
aVWAGON-518
p6
aVWAGON-517
p7
aVWAGON-516
p8
aVWAGON-515
p9
aVWAGON-514
p10
aVWAGON-513
p11
aVWAGON-512
p12
aVWAGON-511
p13
aVWAGON-510
p14
aVWAGON-509
p15
aVWAGON-508
p16
aVWAGON-507
p17
aVWAGON-506
p18
aVWAGON-505
p19
aVWAGON-504
p20
aVWAGON-503
p21
aVWAGON-502
p22
aVWAGON-501
p23
aVWAGON-500
p24
aVWAGON-499
p25
aVWAGON-498
p26
aVWAGON-497
p27
aVWAGON-496
p28
aVWAGON-495
p29
aVWAGON-494
p30
aVWAGON-493
p31
aVWAGON-492
p32
aVWAGON-491
p33
aVWAGON-490
p34
aVWAGON-489
p35
aVWAGON-488
p36
aVWAGON-487
p37
aVWAGON-486
p38
aVWAGON-485
p39
aVWAGON-484
p40
aVWAGON-483
p41
aVWAGON-482
p42
aVWAGON-481
p43
aVWAGON-480
p44
aVWAGON-479
p45
aVWAGON-478
p46
aVWAGON-477
p47
aVWAGON-476
p48
aVWAGON-475
p49
aVWAGON-474
p50
aVWAGON-473
p51
aVWAGON-472
p52
aVWAGON-471
p53
aVWAGON-470
p54
aVWAGON-469
p55
aVWAGON-468
p56
aVWAGON-467
p57
aVWAGON-466
p58
aVWAGON-465
p59
aVWAGON-464
p60
aVWAGON-463
p61
aVWAGON-462
p62
aVWAGON-461
p63
aVWAGON-460
p64
aVWAGON-459
p65
aVWAGON-458
p66
aVWAGON-457
p67
aVWAGON-456
p68
aVWAGON-455
p69
aVWAGON-454
p70
aVWAGON-453
p71
aVWAGON-452
p72
aVWAGON-451
p73
aVWAGON-450
p74
aVWAGON-449
p75
aVWAGON-448
p76
aVWAGON-447
p77
aVWAGON-446
p78
aVWAGON-445
p79
aVWAGON-444
p80
aVWAGON-443
p81
aVWAGON-442
p82
aVWAGON-441
p83
aVWAGON-440
p84
aVWAGON-439
p85
aVWAGON-438
p86
aVWAGON-437
p87
aVWAGON-436
p88
aVWAGON-435
p89
aVWAGON-434
p90
aVWAGON-433
p91
aVWAGON-432
p92
aVWAGON-431
p93
aVWAGON-430
p94
aVWAGON-429
p95
aVWAGON-428
p96
aVWAGON-427
p97
aVWAGON-426
p98
aVWAGON-425
p99
aVWAGON-424
p100
aVWAGON-423
p101
aVWAGON-422
p102
aVWAGON-421
p103
aVWAGON-420
p104
aVWAGON-419
p105
aVWAGON-418
p106
aVWAGON-417
p107
aVWAGON-416
p108
aVWAGON-415
p109
aVWAGON-414
p110
aVWAGON-413
p111
aVWAGON-412
p112
aVWAGON-411
p113
aVWAGON-410
p114
aVWAGON-409
p115
aVWAGON-408
p116
aVWAGON-407
p117
aVWAGON-406
p118
aVWAGON-405
p119
aVWAGON-404
p120
aVWAGON-403
p121
aVWAGON-402
p122
aVWAGON-401
p123
aVWAGON-400
p124
aVWAGON-399
p125
aVWAGON-398
p126
aVWAGON-397
p127
aVWAGON-396
p128
aVWAGON-395
p129
aVWAGON-394
p130
aVWAGON-393
p131
aVWAGON-392
p132
aVWAGON-391
p133
aVWAGON-390
p134
aVWAGON-389
p135
aVWAGON-388
p136
aVWAGON-387
p137
aVWAGON-386
p138
aVWAGON-385
p139
aVWAGON-384
p140
aVWAGON-383
p141
aVWAGON-382
p142
aVWAGON-381
p143
aVWAGON-380
p144
aVWAGON-379
p145
aVWAGON-378
p146
aVWAGON-377
p147
aVWAGON-376
p148
aVWAGON-375
p149
aVWAGON-374
p150
aVWAGON-373
p151
aVWAGON-372
p152
aVWAGON-371
p153
aVWAGON-370
p154
aVWAGON-369
p155
aVWAGON-368
p156
aVWAGON-367
p157
aVWAGON-366
p158
aVWAGON-365
p159
aVWAGON-364
p160
aVWAGON-363
p161
aVWAGON-362
p162
aVWAGON-361
p163
aVWAGON-359
p164
aVWAGON-358
p165
aVWAGON-357
p166
aVWAGON-356
p167
aVWAGON-355
p168
aVWAGON-354
p169
aVWAGON-353
p170
aVWAGON-352
p171
aVWAGON-351
p172
aVWAGON-350
p173
aVWAGON-349
p174
aVWAGON-348
p175
aVWAGON-347
p176
aVWAGON-346
p177
aVWAGON-345
p178
aVWAGON-344
p179
aVWAGON-343
p180
aVWAGON-342
p181
aVWAGON-341
p182
aVWAGON-340
p183
aVWAGON-339
p184
aVWAGON-338
p185
aVWAGON-337
p186
aVWAGON-336
p187
aVWAGON-335
p188
aVWAGON-334
p189
aVWAGON-333
p190
aVWAGON-332
p191
aVWAGON-331
p192
aVWAGON-330
p193
aVWAGON-329
p194
aVWAGON-328
p195
aVWAGON-327
p196
aVWAGON-326
p197
aVWAGON-325
p198
aVWAGON-324
p199
aVWAGON-323
p200
aVWAGON-322
p201
aVWAGON-321
p202
aVWAGON-320
p203
aVWAGON-319
p204
aVWAGON-318
p205
aVWAGON-317
p206
aVWAGON-316
p207
aVWAGON-314
p208
aVWAGON-313
p209
aVWAGON-312
p210
aVWAGON-311
p211
aVWAGON-310
p212
aVWAGON-309
p213
aVWAGON-308
p214
aVWAGON-307
p215
aVWAGON-306
p216
aVWAGON-305
p217
aVWAGON-304
p218
aVWAGON-303
p219
aVWAGON-302
p220
aVWAGON-299
p221
aVWAGON-298
p222
aVWAGON-297
p223
aVWAGON-296
p224
aVWAGON-295
p225
aVWAGON-294
p226
aVWAGON-293
p227
aVWAGON-292
p228
aVWAGON-291
p229
aVWAGON-290
p230
aVWAGON-289
p231
aVWAGON-288
p232
aVWAGON-287
p233
aVWAGON-286
p234
aVWAGON-285
p235
aVWAGON-284
p236
aVWAGON-283
p237
aVWAGON-277
p238
aVWAGON-276
p239
aVWAGON-275
p240
aVWAGON-274
p241
aVWAGON-273
p242
aVWAGON-272
p243
aVWAGON-271
p244
aVWAGON-270
p245
aVWAGON-269
p246
aVWAGON-268
p247
aVWAGON-266
p248
aVWAGON-265
p249
aVWAGON-264
p250
aVWAGON-262
p251
aVWAGON-261
p252
aVWAGON-260
p253
aVWAGON-259
p254
aVWAGON-258
p255
aVWAGON-257
p256
aVWAGON-256
p257
aVWAGON-255
p258
aVWAGON-254
p259
aVWAGON-253
p260
aVWAGON-252
p261
aVWAGON-251
p262
aVWAGON-250
p263
aVWAGON-249
p264
aVWAGON-248
p265
aVWAGON-247
p266
aVWAGON-246
p267
aVWAGON-245
p268
aVWAGON-244
p269
aVWAGON-243
p270
aVWAGON-242
p271
aVWAGON-239
p272
aVWAGON-238
p273
aVWAGON-237
p274
aVWAGON-236
p275
aVWAGON-235
p276
aVWAGON-234
p277
aVWAGON-233
p278
aVWAGON-232
p279
aVWAGON-231
p280
aVWAGON-230
p281
aVWAGON-229
p282
aVWAGON-228
p283
aVWAGON-227
p284
aVWAGON-226
p285
aVWAGON-225
p286
aVWAGON-224
p287
aVWAGON-223
p288
aVWAGON-222
p289
aVWAGON-221
p290
aVWAGON-220
p291
aVWAGON-219
p292
aVWAGON-218
p293
aVWAGON-217
p294
aVWAGON-216
p295
aVWAGON-215
p296
aVWAGON-213
p297
aVWAGON-212
p298
aVWAGON-211
p299
aVWAGON-210
p300
aVWAGON-209
p301
aVWAGON-208
p302
aVWAGON-207
p303
aVWAGON-206
p304
aVWAGON-205
p305
aVWAGON-204
p306
aVWAGON-203
p307
aVWAGON-202
p308
aVWAGON-201
p309
aVWAGON-200
p310
aVWAGON-199
p311
aVWAGON-198
p312
aVWAGON-197
p313
aVWAGON-196
p314
aVWAGON-195
p315
aVWAGON-194
p316
aVWAGON-193
p317
aVWAGON-192
p318
aVWAGON-191
p319
aVWAGON-190
p320
aVWAGON-189
p321
aVWAGON-188
p322
aVWAGON-187
p323
aVWAGON-186
p324
aVWAGON-185
p325
aVWAGON-184
p326
aVWAGON-183
p327
aVWAGON-182
p328
aVWAGON-181
p329
aVWAGON-180
p330
aVWAGON-179
p331
aVWAGON-178
p332
aVWAGON-177
p333
aVWAGON-176
p334
aVWAGON-175
p335
aVWAGON-174
p336
aVWAGON-173
p337
aVWAGON-172
p338
aVWAGON-171
p339
aVWAGON-170
p340
aVWAGON-169
p341
aVWAGON-168
p342
aVWAGON-167
p343
aVWAGON-166
p344
aVWAGON-165
p345
aVWAGON-164
p346
aVWAGON-163
p347
aVWAGON-162
p348
aVWAGON-161
p349
aVWAGON-160
p350
aVWAGON-159
p351
aVWAGON-158
p352
aVWAGON-157
p353
aVWAGON-156
p354
aVWAGON-155
p355
aVWAGON-154
p356
aVWAGON-153
p357
aVWAGON-152
p358
aVWAGON-151
p359
aVWAGON-150
p360
aVWAGON-149
p361
aVWAGON-148
p362
aVWAGON-147
p363
aVWAGON-146
p364
aVWAGON-145
p365
aVWAGON-144
p366
aVWAGON-143
p367
aVWAGON-142
p368
aVWAGON-141
p369
aVWAGON-140
p370
aVWAGON-139
p371
aVWAGON-138
p372
aVWAGON-137
p373
aVWAGON-136
p374
aVWAGON-135
p375
aVWAGON-134
p376
aVWAGON-133
p377
aVWAGON-132
p378
aVWAGON-131
p379
aVWAGON-130
p380
aVWAGON-129
p381
aVWAGON-128
p382
aVWAGON-127
p383
aVWAGON-126
p384
aVWAGON-125
p385
aVWAGON-124
p386
aVWAGON-123
p387
aVWAGON-122
p388
aVWAGON-121
p389
aVWAGON-120
p390
aVWAGON-119
p391
aVWAGON-118
p392
aVWAGON-117
p393
aVWAGON-116
p394
aVWAGON-115
p395
aVWAGON-114
p396
aVWAGON-113
p397
aVWAGON-112
p398
aVWAGON-111
p399
aVWAGON-110
p400
aVWAGON-109
p401
aVWAGON-108
p402
aVWAGON-107
p403
aVWAGON-105
p404
aVWAGON-104
p405
aVWAGON-103
p406
aVWAGON-102
p407
aVWAGON-101
p408
aVWAGON-100
p409
aVWAGON-99
p410
aVWAGON-98
p411
aVWAGON-97
p412
aVWAGON-96
p413
aVWAGON-95
p414
aVWAGON-94
p415
aVWAGON-93
p416
aVWAGON-92
p417
aVWAGON-91
p418
aVWAGON-90
p419
aVWAGON-89
p420
aVWAGON-88
p421
aVWAGON-87
p422
aVWAGON-86
p423
aVWAGON-85
p424
aVWAGON-84
p425
aVWAGON-83
p426
aVWAGON-82
p427
aVWAGON-81
p428
aVWAGON-80
p429
aVWAGON-79
p430
aVWAGON-78
p431
aVWAGON-77
p432
aVWAGON-76
p433
aVWAGON-75
p434
aVWAGON-74
p435
aVWAGON-73
p436
aVWAGON-72
p437
aVWAGON-70
p438
aVWAGON-69
p439
aVWAGON-68
p440
aVWAGON-67
p441
aVWAGON-66
p442
aVWAGON-65
p443
aVWAGON-64
p444
aVWAGON-63
p445
aVWAGON-62
p446
aVWAGON-61
p447
aVWAGON-60
p448
aVWAGON-59
p449
aVWAGON-58
p450
aVWAGON-57
p451
aVWAGON-56
p452
aVWAGON-55
p453
aVWAGON-54
p454
aVWAGON-53
p455
aVWAGON-52
p456
aVWAGON-51
p457
aVWAGON-50
p458
aVWAGON-49
p459
aVWAGON-48
p460
aVWAGON-47
p461
aVWAGON-45
p462
aVWAGON-44
p463
aVWAGON-42
p464
aVWAGON-41
p465
aVWAGON-40
p466
aVWAGON-38
p467
aVWAGON-37
p468
aVWAGON-35
p469
aVWAGON-34
p470
aVWAGON-33
p471
aVWAGON-32
p472
aVWAGON-30
p473
aVWAGON-28
p474
aVWAGON-22
p475
aVWAGON-21
p476
aVWAGON-20
p477
aVWAGON-19
p478
aVWAGON-18
p479
aVWAGON-17
p480
aVWAGON-16
p481
aVWAGON-15
p482
aVWAGON-14
p483
aVWAGON-12
p484
aVWAGON-11
p485
aVWAGON-10
p486
aVWAGON-9
p487
aVWAGON-8
p488
aVWAGON-7
p489
aVWAGON-6
p490
aVWAGON-5
p491
aVWAGON-4
p492
aVWAGON-3
p493
aVWAGON-2
p494
aVWAGON-1
p495
a.