(lp0
VWEAVER-26
p1
aVWEAVER-25
p2
aVWEAVER-24
p3
aVWEAVER-23
p4
aVWEAVER-22
p5
aVWEAVER-21
p6
aVWEAVER-20
p7
aVWEAVER-19
p8
aVWEAVER-18
p9
aVWEAVER-17
p10
aVWEAVER-16
p11
aVWEAVER-15
p12
aVWEAVER-14
p13
aVWEAVER-13
p14
aVWEAVER-12
p15
aVWEAVER-11
p16
aVWEAVER-10
p17
aVWEAVER-9
p18
aVWEAVER-8
p19
aVWEAVER-7
p20
aVWEAVER-6
p21
aVWEAVER-5
p22
aVWEAVER-4
p23
aVWEAVER-3
p24
aVWEAVER-2
p25
aVWEAVER-1
p26
a.