(lp0
VWHIRR-763
p1
aVWHIRR-762
p2
aVWHIRR-761
p3
aVWHIRR-760
p4
aVWHIRR-759
p5
aVWHIRR-758
p6
aVWHIRR-757
p7
aVWHIRR-756
p8
aVWHIRR-755
p9
aVWHIRR-754
p10
aVWHIRR-753
p11
aVWHIRR-752
p12
aVWHIRR-751
p13
aVWHIRR-750
p14
aVWHIRR-749
p15
aVWHIRR-748
p16
aVWHIRR-747
p17
aVWHIRR-746
p18
aVWHIRR-745
p19
aVWHIRR-744
p20
aVWHIRR-743
p21
aVWHIRR-742
p22
aVWHIRR-741
p23
aVWHIRR-740
p24
aVWHIRR-739
p25
aVWHIRR-738
p26
aVWHIRR-737
p27
aVWHIRR-736
p28
aVWHIRR-735
p29
aVWHIRR-734
p30
aVWHIRR-733
p31
aVWHIRR-732
p32
aVWHIRR-731
p33
aVWHIRR-730
p34
aVWHIRR-729
p35
aVWHIRR-728
p36
aVWHIRR-727
p37
aVWHIRR-726
p38
aVWHIRR-725
p39
aVWHIRR-724
p40
aVWHIRR-723
p41
aVWHIRR-722
p42
aVWHIRR-721
p43
aVWHIRR-720
p44
aVWHIRR-719
p45
aVWHIRR-718
p46
aVWHIRR-717
p47
aVWHIRR-716
p48
aVWHIRR-715
p49
aVWHIRR-714
p50
aVWHIRR-713
p51
aVWHIRR-712
p52
aVWHIRR-711
p53
aVWHIRR-710
p54
aVWHIRR-709
p55
aVWHIRR-708
p56
aVWHIRR-707
p57
aVWHIRR-706
p58
aVWHIRR-705
p59
aVWHIRR-704
p60
aVWHIRR-703
p61
aVWHIRR-702
p62
aVWHIRR-701
p63
aVWHIRR-700
p64
aVWHIRR-699
p65
aVWHIRR-698
p66
aVWHIRR-697
p67
aVWHIRR-696
p68
aVWHIRR-695
p69
aVWHIRR-694
p70
aVWHIRR-693
p71
aVWHIRR-692
p72
aVWHIRR-691
p73
aVWHIRR-690
p74
aVWHIRR-689
p75
aVWHIRR-688
p76
aVWHIRR-687
p77
aVWHIRR-686
p78
aVWHIRR-685
p79
aVWHIRR-684
p80
aVWHIRR-683
p81
aVWHIRR-682
p82
aVWHIRR-681
p83
aVWHIRR-680
p84
aVWHIRR-679
p85
aVWHIRR-678
p86
aVWHIRR-677
p87
aVWHIRR-676
p88
aVWHIRR-675
p89
aVWHIRR-674
p90
aVWHIRR-673
p91
aVWHIRR-672
p92
aVWHIRR-671
p93
aVWHIRR-670
p94
aVWHIRR-669
p95
aVWHIRR-668
p96
aVWHIRR-667
p97
aVWHIRR-666
p98
aVWHIRR-665
p99
aVWHIRR-664
p100
aVWHIRR-663
p101
aVWHIRR-662
p102
aVWHIRR-661
p103
aVWHIRR-660
p104
aVWHIRR-659
p105
aVWHIRR-658
p106
aVWHIRR-657
p107
aVWHIRR-656
p108
aVWHIRR-655
p109
aVWHIRR-654
p110
aVWHIRR-653
p111
aVWHIRR-652
p112
aVWHIRR-651
p113
aVWHIRR-650
p114
aVWHIRR-649
p115
aVWHIRR-648
p116
aVWHIRR-647
p117
aVWHIRR-646
p118
aVWHIRR-645
p119
aVWHIRR-644
p120
aVWHIRR-643
p121
aVWHIRR-642
p122
aVWHIRR-641
p123
aVWHIRR-640
p124
aVWHIRR-639
p125
aVWHIRR-638
p126
aVWHIRR-637
p127
aVWHIRR-636
p128
aVWHIRR-635
p129
aVWHIRR-634
p130
aVWHIRR-633
p131
aVWHIRR-632
p132
aVWHIRR-631
p133
aVWHIRR-630
p134
aVWHIRR-629
p135
aVWHIRR-628
p136
aVWHIRR-618
p137
aVWHIRR-617
p138
aVWHIRR-616
p139
aVWHIRR-615
p140
aVWHIRR-614
p141
aVWHIRR-613
p142
aVWHIRR-612
p143
aVWHIRR-611
p144
aVWHIRR-610
p145
aVWHIRR-609
p146
aVWHIRR-608
p147
aVWHIRR-607
p148
aVWHIRR-606
p149
aVWHIRR-605
p150
aVWHIRR-604
p151
aVWHIRR-603
p152
aVWHIRR-602
p153
aVWHIRR-601
p154
aVWHIRR-600
p155
aVWHIRR-599
p156
aVWHIRR-598
p157
aVWHIRR-597
p158
aVWHIRR-596
p159
aVWHIRR-595
p160
aVWHIRR-594
p161
aVWHIRR-593
p162
aVWHIRR-592
p163
aVWHIRR-591
p164
aVWHIRR-590
p165
aVWHIRR-589
p166
aVWHIRR-588
p167
aVWHIRR-587
p168
aVWHIRR-586
p169
aVWHIRR-585
p170
aVWHIRR-584
p171
aVWHIRR-583
p172
aVWHIRR-582
p173
aVWHIRR-581
p174
aVWHIRR-580
p175
aVWHIRR-579
p176
aVWHIRR-578
p177
aVWHIRR-577
p178
aVWHIRR-576
p179
aVWHIRR-575
p180
aVWHIRR-574
p181
aVWHIRR-573
p182
aVWHIRR-572
p183
aVWHIRR-571
p184
aVWHIRR-570
p185
aVWHIRR-569
p186
aVWHIRR-568
p187
aVWHIRR-567
p188
aVWHIRR-566
p189
aVWHIRR-565
p190
aVWHIRR-564
p191
aVWHIRR-563
p192
aVWHIRR-562
p193
aVWHIRR-561
p194
aVWHIRR-560
p195
aVWHIRR-559
p196
aVWHIRR-558
p197
aVWHIRR-557
p198
aVWHIRR-556
p199
aVWHIRR-555
p200
aVWHIRR-554
p201
aVWHIRR-553
p202
aVWHIRR-552
p203
aVWHIRR-551
p204
aVWHIRR-550
p205
aVWHIRR-549
p206
aVWHIRR-548
p207
aVWHIRR-547
p208
aVWHIRR-546
p209
aVWHIRR-545
p210
aVWHIRR-544
p211
aVWHIRR-543
p212
aVWHIRR-542
p213
aVWHIRR-541
p214
aVWHIRR-540
p215
aVWHIRR-539
p216
aVWHIRR-538
p217
aVWHIRR-537
p218
aVWHIRR-536
p219
aVWHIRR-535
p220
aVWHIRR-534
p221
aVWHIRR-533
p222
aVWHIRR-532
p223
aVWHIRR-531
p224
aVWHIRR-530
p225
aVWHIRR-529
p226
aVWHIRR-528
p227
aVWHIRR-527
p228
aVWHIRR-526
p229
aVWHIRR-525
p230
aVWHIRR-524
p231
aVWHIRR-523
p232
aVWHIRR-522
p233
aVWHIRR-521
p234
aVWHIRR-520
p235
aVWHIRR-519
p236
aVWHIRR-518
p237
aVWHIRR-517
p238
aVWHIRR-516
p239
aVWHIRR-515
p240
aVWHIRR-514
p241
aVWHIRR-513
p242
aVWHIRR-512
p243
aVWHIRR-511
p244
aVWHIRR-510
p245
aVWHIRR-509
p246
aVWHIRR-508
p247
aVWHIRR-507
p248
aVWHIRR-506
p249
aVWHIRR-505
p250
aVWHIRR-504
p251
aVWHIRR-503
p252
aVWHIRR-502
p253
aVWHIRR-501
p254
aVWHIRR-500
p255
aVWHIRR-499
p256
aVWHIRR-498
p257
aVWHIRR-497
p258
aVWHIRR-496
p259
aVWHIRR-495
p260
aVWHIRR-494
p261
aVWHIRR-493
p262
aVWHIRR-492
p263
aVWHIRR-491
p264
aVWHIRR-490
p265
aVWHIRR-489
p266
aVWHIRR-488
p267
aVWHIRR-487
p268
aVWHIRR-486
p269
aVWHIRR-485
p270
aVWHIRR-484
p271
aVWHIRR-483
p272
aVWHIRR-482
p273
aVWHIRR-481
p274
aVWHIRR-480
p275
aVWHIRR-479
p276
aVWHIRR-478
p277
aVWHIRR-477
p278
aVWHIRR-476
p279
aVWHIRR-475
p280
aVWHIRR-474
p281
aVWHIRR-473
p282
aVWHIRR-472
p283
aVWHIRR-471
p284
aVWHIRR-470
p285
aVWHIRR-469
p286
aVWHIRR-468
p287
aVWHIRR-467
p288
aVWHIRR-466
p289
aVWHIRR-465
p290
aVWHIRR-464
p291
aVWHIRR-463
p292
aVWHIRR-462
p293
aVWHIRR-461
p294
aVWHIRR-460
p295
aVWHIRR-459
p296
aVWHIRR-458
p297
aVWHIRR-457
p298
aVWHIRR-456
p299
aVWHIRR-455
p300
aVWHIRR-454
p301
aVWHIRR-453
p302
aVWHIRR-452
p303
aVWHIRR-451
p304
aVWHIRR-450
p305
aVWHIRR-449
p306
aVWHIRR-448
p307
aVWHIRR-447
p308
aVWHIRR-446
p309
aVWHIRR-445
p310
aVWHIRR-444
p311
aVWHIRR-443
p312
aVWHIRR-442
p313
aVWHIRR-441
p314
aVWHIRR-440
p315
aVWHIRR-439
p316
aVWHIRR-438
p317
aVWHIRR-437
p318
aVWHIRR-436
p319
aVWHIRR-435
p320
aVWHIRR-434
p321
aVWHIRR-433
p322
aVWHIRR-432
p323
aVWHIRR-431
p324
aVWHIRR-430
p325
aVWHIRR-429
p326
aVWHIRR-428
p327
aVWHIRR-427
p328
aVWHIRR-426
p329
aVWHIRR-425
p330
aVWHIRR-424
p331
aVWHIRR-423
p332
aVWHIRR-422
p333
aVWHIRR-421
p334
aVWHIRR-420
p335
aVWHIRR-419
p336
aVWHIRR-418
p337
aVWHIRR-417
p338
aVWHIRR-416
p339
aVWHIRR-415
p340
aVWHIRR-414
p341
aVWHIRR-413
p342
aVWHIRR-412
p343
aVWHIRR-411
p344
aVWHIRR-410
p345
aVWHIRR-409
p346
aVWHIRR-408
p347
aVWHIRR-407
p348
aVWHIRR-406
p349
aVWHIRR-405
p350
aVWHIRR-404
p351
aVWHIRR-403
p352
aVWHIRR-402
p353
aVWHIRR-401
p354
aVWHIRR-400
p355
aVWHIRR-399
p356
aVWHIRR-398
p357
aVWHIRR-397
p358
aVWHIRR-396
p359
aVWHIRR-395
p360
aVWHIRR-394
p361
aVWHIRR-393
p362
aVWHIRR-392
p363
aVWHIRR-391
p364
aVWHIRR-390
p365
aVWHIRR-389
p366
aVWHIRR-388
p367
aVWHIRR-387
p368
aVWHIRR-386
p369
aVWHIRR-385
p370
aVWHIRR-384
p371
aVWHIRR-383
p372
aVWHIRR-382
p373
aVWHIRR-381
p374
aVWHIRR-380
p375
aVWHIRR-379
p376
aVWHIRR-378
p377
aVWHIRR-377
p378
aVWHIRR-376
p379
aVWHIRR-375
p380
aVWHIRR-374
p381
aVWHIRR-373
p382
aVWHIRR-372
p383
aVWHIRR-371
p384
aVWHIRR-370
p385
aVWHIRR-369
p386
aVWHIRR-368
p387
aVWHIRR-367
p388
aVWHIRR-366
p389
aVWHIRR-365
p390
aVWHIRR-364
p391
aVWHIRR-363
p392
aVWHIRR-362
p393
aVWHIRR-361
p394
aVWHIRR-360
p395
aVWHIRR-359
p396
aVWHIRR-358
p397
aVWHIRR-357
p398
aVWHIRR-356
p399
aVWHIRR-355
p400
aVWHIRR-354
p401
aVWHIRR-353
p402
aVWHIRR-352
p403
aVWHIRR-351
p404
aVWHIRR-350
p405
aVWHIRR-349
p406
aVWHIRR-348
p407
aVWHIRR-347
p408
aVWHIRR-346
p409
aVWHIRR-345
p410
aVWHIRR-344
p411
aVWHIRR-343
p412
aVWHIRR-342
p413
aVWHIRR-341
p414
aVWHIRR-340
p415
aVWHIRR-339
p416
aVWHIRR-338
p417
aVWHIRR-337
p418
aVWHIRR-336
p419
aVWHIRR-335
p420
aVWHIRR-334
p421
aVWHIRR-333
p422
aVWHIRR-332
p423
aVWHIRR-331
p424
aVWHIRR-330
p425
aVWHIRR-329
p426
aVWHIRR-328
p427
aVWHIRR-327
p428
aVWHIRR-326
p429
aVWHIRR-325
p430
aVWHIRR-324
p431
aVWHIRR-323
p432
aVWHIRR-322
p433
aVWHIRR-321
p434
aVWHIRR-320
p435
aVWHIRR-319
p436
aVWHIRR-318
p437
aVWHIRR-317
p438
aVWHIRR-316
p439
aVWHIRR-315
p440
aVWHIRR-314
p441
aVWHIRR-313
p442
aVWHIRR-312
p443
aVWHIRR-311
p444
aVWHIRR-310
p445
aVWHIRR-309
p446
aVWHIRR-308
p447
aVWHIRR-307
p448
aVWHIRR-306
p449
aVWHIRR-305
p450
aVWHIRR-304
p451
aVWHIRR-303
p452
aVWHIRR-302
p453
aVWHIRR-301
p454
aVWHIRR-300
p455
aVWHIRR-299
p456
aVWHIRR-298
p457
aVWHIRR-297
p458
aVWHIRR-296
p459
aVWHIRR-295
p460
aVWHIRR-294
p461
aVWHIRR-293
p462
aVWHIRR-292
p463
aVWHIRR-291
p464
aVWHIRR-290
p465
aVWHIRR-289
p466
aVWHIRR-288
p467
aVWHIRR-287
p468
aVWHIRR-286
p469
aVWHIRR-285
p470
aVWHIRR-284
p471
aVWHIRR-283
p472
aVWHIRR-282
p473
aVWHIRR-281
p474
aVWHIRR-280
p475
aVWHIRR-279
p476
aVWHIRR-278
p477
aVWHIRR-277
p478
aVWHIRR-276
p479
aVWHIRR-275
p480
aVWHIRR-274
p481
aVWHIRR-273
p482
aVWHIRR-272
p483
aVWHIRR-271
p484
aVWHIRR-270
p485
aVWHIRR-269
p486
aVWHIRR-268
p487
aVWHIRR-267
p488
aVWHIRR-266
p489
aVWHIRR-265
p490
aVWHIRR-264
p491
aVWHIRR-263
p492
aVWHIRR-262
p493
aVWHIRR-261
p494
aVWHIRR-260
p495
aVWHIRR-259
p496
aVWHIRR-258
p497
aVWHIRR-257
p498
aVWHIRR-256
p499
aVWHIRR-255
p500
aVWHIRR-254
p501
aVWHIRR-253
p502
aVWHIRR-252
p503
aVWHIRR-251
p504
aVWHIRR-250
p505
aVWHIRR-249
p506
aVWHIRR-248
p507
aVWHIRR-247
p508
aVWHIRR-246
p509
aVWHIRR-245
p510
aVWHIRR-244
p511
aVWHIRR-243
p512
aVWHIRR-242
p513
aVWHIRR-241
p514
aVWHIRR-240
p515
aVWHIRR-239
p516
aVWHIRR-238
p517
aVWHIRR-237
p518
aVWHIRR-236
p519
aVWHIRR-235
p520
aVWHIRR-234
p521
aVWHIRR-233
p522
aVWHIRR-232
p523
aVWHIRR-231
p524
aVWHIRR-230
p525
aVWHIRR-229
p526
aVWHIRR-228
p527
aVWHIRR-227
p528
aVWHIRR-226
p529
aVWHIRR-225
p530
aVWHIRR-224
p531
aVWHIRR-223
p532
aVWHIRR-222
p533
aVWHIRR-221
p534
aVWHIRR-220
p535
aVWHIRR-219
p536
aVWHIRR-218
p537
aVWHIRR-217
p538
aVWHIRR-216
p539
aVWHIRR-215
p540
aVWHIRR-214
p541
aVWHIRR-213
p542
aVWHIRR-212
p543
aVWHIRR-211
p544
aVWHIRR-210
p545
aVWHIRR-209
p546
aVWHIRR-208
p547
aVWHIRR-207
p548
aVWHIRR-206
p549
aVWHIRR-205
p550
aVWHIRR-204
p551
aVWHIRR-203
p552
aVWHIRR-202
p553
aVWHIRR-201
p554
aVWHIRR-200
p555
aVWHIRR-199
p556
aVWHIRR-198
p557
aVWHIRR-197
p558
aVWHIRR-196
p559
aVWHIRR-195
p560
aVWHIRR-194
p561
aVWHIRR-193
p562
aVWHIRR-192
p563
aVWHIRR-191
p564
aVWHIRR-190
p565
aVWHIRR-189
p566
aVWHIRR-188
p567
aVWHIRR-187
p568
aVWHIRR-186
p569
aVWHIRR-185
p570
aVWHIRR-184
p571
aVWHIRR-183
p572
aVWHIRR-182
p573
aVWHIRR-181
p574
aVWHIRR-180
p575
aVWHIRR-179
p576
aVWHIRR-178
p577
aVWHIRR-177
p578
aVWHIRR-176
p579
aVWHIRR-175
p580
aVWHIRR-174
p581
aVWHIRR-173
p582
aVWHIRR-172
p583
aVWHIRR-171
p584
aVWHIRR-170
p585
aVWHIRR-169
p586
aVWHIRR-168
p587
aVWHIRR-167
p588
aVWHIRR-166
p589
aVWHIRR-165
p590
aVWHIRR-164
p591
aVWHIRR-163
p592
aVWHIRR-162
p593
aVWHIRR-161
p594
aVWHIRR-160
p595
aVWHIRR-159
p596
aVWHIRR-158
p597
aVWHIRR-157
p598
aVWHIRR-156
p599
aVWHIRR-155
p600
aVWHIRR-154
p601
aVWHIRR-153
p602
aVWHIRR-152
p603
aVWHIRR-151
p604
aVWHIRR-150
p605
aVWHIRR-149
p606
aVWHIRR-148
p607
aVWHIRR-147
p608
aVWHIRR-146
p609
aVWHIRR-145
p610
aVWHIRR-144
p611
aVWHIRR-143
p612
aVWHIRR-142
p613
aVWHIRR-141
p614
aVWHIRR-140
p615
aVWHIRR-139
p616
aVWHIRR-138
p617
aVWHIRR-137
p618
aVWHIRR-136
p619
aVWHIRR-135
p620
aVWHIRR-134
p621
aVWHIRR-133
p622
aVWHIRR-132
p623
aVWHIRR-131
p624
aVWHIRR-130
p625
aVWHIRR-129
p626
aVWHIRR-128
p627
aVWHIRR-127
p628
aVWHIRR-126
p629
aVWHIRR-125
p630
aVWHIRR-124
p631
aVWHIRR-123
p632
aVWHIRR-122
p633
aVWHIRR-121
p634
aVWHIRR-120
p635
aVWHIRR-119
p636
aVWHIRR-118
p637
aVWHIRR-117
p638
aVWHIRR-116
p639
aVWHIRR-115
p640
aVWHIRR-114
p641
aVWHIRR-113
p642
aVWHIRR-112
p643
aVWHIRR-111
p644
aVWHIRR-110
p645
aVWHIRR-109
p646
aVWHIRR-108
p647
aVWHIRR-107
p648
aVWHIRR-106
p649
aVWHIRR-105
p650
aVWHIRR-104
p651
aVWHIRR-103
p652
aVWHIRR-102
p653
aVWHIRR-101
p654
aVWHIRR-100
p655
aVWHIRR-99
p656
aVWHIRR-98
p657
aVWHIRR-97
p658
aVWHIRR-96
p659
aVWHIRR-95
p660
aVWHIRR-94
p661
aVWHIRR-93
p662
aVWHIRR-92
p663
aVWHIRR-91
p664
aVWHIRR-90
p665
aVWHIRR-89
p666
aVWHIRR-88
p667
aVWHIRR-87
p668
aVWHIRR-86
p669
aVWHIRR-85
p670
aVWHIRR-84
p671
aVWHIRR-83
p672
aVWHIRR-82
p673
aVWHIRR-81
p674
aVWHIRR-80
p675
aVWHIRR-79
p676
aVWHIRR-78
p677
aVWHIRR-77
p678
aVWHIRR-76
p679
aVWHIRR-75
p680
aVWHIRR-74
p681
aVWHIRR-73
p682
aVWHIRR-72
p683
aVWHIRR-71
p684
aVWHIRR-70
p685
aVWHIRR-69
p686
aVWHIRR-68
p687
aVWHIRR-67
p688
aVWHIRR-66
p689
aVWHIRR-65
p690
aVWHIRR-64
p691
aVWHIRR-63
p692
aVWHIRR-62
p693
aVWHIRR-61
p694
aVWHIRR-60
p695
aVWHIRR-59
p696
aVWHIRR-58
p697
aVWHIRR-57
p698
aVWHIRR-56
p699
aVWHIRR-55
p700
aVWHIRR-54
p701
aVWHIRR-53
p702
aVWHIRR-52
p703
aVWHIRR-51
p704
aVWHIRR-50
p705
aVWHIRR-49
p706
aVWHIRR-48
p707
aVWHIRR-47
p708
aVWHIRR-46
p709
aVWHIRR-45
p710
aVWHIRR-44
p711
aVWHIRR-43
p712
aVWHIRR-42
p713
aVWHIRR-41
p714
aVWHIRR-40
p715
aVWHIRR-39
p716
aVWHIRR-38
p717
aVWHIRR-37
p718
aVWHIRR-36
p719
aVWHIRR-35
p720
aVWHIRR-34
p721
aVWHIRR-33
p722
aVWHIRR-32
p723
aVWHIRR-31
p724
aVWHIRR-30
p725
aVWHIRR-29
p726
aVWHIRR-28
p727
aVWHIRR-27
p728
aVWHIRR-26
p729
aVWHIRR-25
p730
aVWHIRR-24
p731
aVWHIRR-23
p732
aVWHIRR-22
p733
aVWHIRR-21
p734
aVWHIRR-20
p735
aVWHIRR-19
p736
aVWHIRR-18
p737
aVWHIRR-17
p738
aVWHIRR-16
p739
aVWHIRR-15
p740
aVWHIRR-14
p741
aVWHIRR-13
p742
aVWHIRR-12
p743
aVWHIRR-11
p744
aVWHIRR-10
p745
aVWHIRR-9
p746
aVWHIRR-8
p747
aVWHIRR-7
p748
aVWHIRR-6
p749
aVWHIRR-5
p750
aVWHIRR-4
p751
aVWHIRR-3
p752
aVWHIRR-2
p753
aVWHIRR-1
p754
a.