(lp0
VWICKET-6575
p1
aVWICKET-6574
p2
aVWICKET-6573
p3
aVWICKET-6572
p4
aVWICKET-6571
p5
aVWICKET-6570
p6
aVWICKET-6569
p7
aVWICKET-6568
p8
aVWICKET-6567
p9
aVWICKET-6566
p10
aVWICKET-6565
p11
aVWICKET-6564
p12
aVWICKET-6563
p13
aVWICKET-6562
p14
aVWICKET-6561
p15
aVWICKET-6560
p16
aVWICKET-6559
p17
aVWICKET-6558
p18
aVWICKET-6557
p19
aVWICKET-6556
p20
aVWICKET-6555
p21
aVWICKET-6554
p22
aVWICKET-6553
p23
aVWICKET-6552
p24
aVWICKET-6551
p25
aVWICKET-6550
p26
aVWICKET-6549
p27
aVWICKET-6548
p28
aVWICKET-6547
p29
aVWICKET-6546
p30
aVWICKET-6545
p31
aVWICKET-6544
p32
aVWICKET-6543
p33
aVWICKET-6542
p34
aVWICKET-6541
p35
aVWICKET-6540
p36
aVWICKET-6539
p37
aVWICKET-6538
p38
aVWICKET-6537
p39
aVWICKET-6536
p40
aVWICKET-6535
p41
aVWICKET-6534
p42
aVWICKET-6533
p43
aVWICKET-6532
p44
aVWICKET-6531
p45
aVWICKET-6530
p46
aVWICKET-6529
p47
aVWICKET-6528
p48
aVWICKET-6527
p49
aVWICKET-6526
p50
aVWICKET-6525
p51
aVWICKET-6524
p52
aVWICKET-6523
p53
aVWICKET-6522
p54
aVWICKET-6521
p55
aVWICKET-6520
p56
aVWICKET-6519
p57
aVWICKET-6518
p58
aVWICKET-6517
p59
aVWICKET-6516
p60
aVWICKET-6515
p61
aVWICKET-6514
p62
aVWICKET-6513
p63
aVWICKET-6512
p64
aVWICKET-6511
p65
aVWICKET-6510
p66
aVWICKET-6509
p67
aVWICKET-6508
p68
aVWICKET-6507
p69
aVWICKET-6506
p70
aVWICKET-6505
p71
aVWICKET-6504
p72
aVWICKET-6503
p73
aVWICKET-6502
p74
aVWICKET-6501
p75
aVWICKET-6500
p76
aVWICKET-6499
p77
aVWICKET-6498
p78
aVWICKET-6497
p79
aVWICKET-6496
p80
aVWICKET-6495
p81
aVWICKET-6494
p82
aVWICKET-6493
p83
aVWICKET-6492
p84
aVWICKET-6491
p85
aVWICKET-6490
p86
aVWICKET-6489
p87
aVWICKET-6488
p88
aVWICKET-6487
p89
aVWICKET-6486
p90
aVWICKET-6485
p91
aVWICKET-6484
p92
aVWICKET-6483
p93
aVWICKET-6482
p94
aVWICKET-6481
p95
aVWICKET-6480
p96
aVWICKET-6479
p97
aVWICKET-6478
p98
aVWICKET-6477
p99
aVWICKET-6476
p100
aVWICKET-6475
p101
aVWICKET-6474
p102
aVWICKET-6473
p103
aVWICKET-6472
p104
aVWICKET-6471
p105
aVWICKET-6470
p106
aVWICKET-6469
p107
aVWICKET-6468
p108
aVWICKET-6467
p109
aVWICKET-6466
p110
aVWICKET-6465
p111
aVWICKET-6464
p112
aVWICKET-6463
p113
aVWICKET-6462
p114
aVWICKET-6461
p115
aVWICKET-6460
p116
aVWICKET-6459
p117
aVWICKET-6458
p118
aVWICKET-6457
p119
aVWICKET-6456
p120
aVWICKET-6455
p121
aVWICKET-6454
p122
aVWICKET-6453
p123
aVWICKET-6452
p124
aVWICKET-6451
p125
aVWICKET-6450
p126
aVWICKET-6449
p127
aVWICKET-6448
p128
aVWICKET-6447
p129
aVWICKET-6446
p130
aVWICKET-6445
p131
aVWICKET-6444
p132
aVWICKET-6443
p133
aVWICKET-6442
p134
aVWICKET-6441
p135
aVWICKET-6440
p136
aVWICKET-6439
p137
aVWICKET-6438
p138
aVWICKET-6437
p139
aVWICKET-6436
p140
aVWICKET-6435
p141
aVWICKET-6434
p142
aVWICKET-6433
p143
aVWICKET-6432
p144
aVWICKET-6431
p145
aVWICKET-6430
p146
aVWICKET-6429
p147
aVWICKET-6428
p148
aVWICKET-6427
p149
aVWICKET-6426
p150
aVWICKET-6425
p151
aVWICKET-6424
p152
aVWICKET-6423
p153
aVWICKET-6422
p154
aVWICKET-6421
p155
aVWICKET-6420
p156
aVWICKET-6419
p157
aVWICKET-6418
p158
aVWICKET-6417
p159
aVWICKET-6416
p160
aVWICKET-6415
p161
aVWICKET-6414
p162
aVWICKET-6413
p163
aVWICKET-6412
p164
aVWICKET-6411
p165
aVWICKET-6410
p166
aVWICKET-6409
p167
aVWICKET-6408
p168
aVWICKET-6407
p169
aVWICKET-6406
p170
aVWICKET-6405
p171
aVWICKET-6404
p172
aVWICKET-6403
p173
aVWICKET-6402
p174
aVWICKET-6401
p175
aVWICKET-6400
p176
aVWICKET-6399
p177
aVWICKET-6398
p178
aVWICKET-6397
p179
aVWICKET-6396
p180
aVWICKET-6395
p181
aVWICKET-6394
p182
aVWICKET-6393
p183
aVWICKET-6392
p184
aVWICKET-6391
p185
aVWICKET-6390
p186
aVWICKET-6389
p187
aVWICKET-6388
p188
aVWICKET-6387
p189
aVWICKET-6386
p190
aVWICKET-6385
p191
aVWICKET-6384
p192
aVWICKET-6383
p193
aVWICKET-6382
p194
aVWICKET-6381
p195
aVWICKET-6380
p196
aVWICKET-6379
p197
aVWICKET-6378
p198
aVWICKET-6377
p199
aVWICKET-6376
p200
aVWICKET-6375
p201
aVWICKET-6374
p202
aVWICKET-6373
p203
aVWICKET-6372
p204
aVWICKET-6371
p205
aVWICKET-6370
p206
aVWICKET-6369
p207
aVWICKET-6368
p208
aVWICKET-6367
p209
aVWICKET-6366
p210
aVWICKET-6365
p211
aVWICKET-6364
p212
aVWICKET-6363
p213
aVWICKET-6362
p214
aVWICKET-6361
p215
aVWICKET-6360
p216
aVWICKET-6359
p217
aVWICKET-6358
p218
aVWICKET-6357
p219
aVWICKET-6356
p220
aVWICKET-6355
p221
aVWICKET-6354
p222
aVWICKET-6353
p223
aVWICKET-6352
p224
aVWICKET-6351
p225
aVWICKET-6350
p226
aVWICKET-6349
p227
aVWICKET-6348
p228
aVWICKET-6347
p229
aVWICKET-6346
p230
aVWICKET-6345
p231
aVWICKET-6344
p232
aVWICKET-6343
p233
aVWICKET-6342
p234
aVWICKET-6341
p235
aVWICKET-6340
p236
aVWICKET-6339
p237
aVWICKET-6338
p238
aVWICKET-6337
p239
aVWICKET-6336
p240
aVWICKET-6335
p241
aVWICKET-6334
p242
aVWICKET-6333
p243
aVWICKET-6332
p244
aVWICKET-6331
p245
aVWICKET-6330
p246
aVWICKET-6329
p247
aVWICKET-6328
p248
aVWICKET-6327
p249
aVWICKET-6326
p250
aVWICKET-6325
p251
aVWICKET-6324
p252
aVWICKET-6323
p253
aVWICKET-6322
p254
aVWICKET-6321
p255
aVWICKET-6320
p256
aVWICKET-6319
p257
aVWICKET-6318
p258
aVWICKET-6317
p259
aVWICKET-6316
p260
aVWICKET-6315
p261
aVWICKET-6314
p262
aVWICKET-6313
p263
aVWICKET-6312
p264
aVWICKET-6311
p265
aVWICKET-6310
p266
aVWICKET-6309
p267
aVWICKET-6308
p268
aVWICKET-6307
p269
aVWICKET-6306
p270
aVWICKET-6305
p271
aVWICKET-6304
p272
aVWICKET-6303
p273
aVWICKET-6302
p274
aVWICKET-6301
p275
aVWICKET-6300
p276
aVWICKET-6299
p277
aVWICKET-6298
p278
aVWICKET-6297
p279
aVWICKET-6296
p280
aVWICKET-6295
p281
aVWICKET-6294
p282
aVWICKET-6293
p283
aVWICKET-6292
p284
aVWICKET-6291
p285
aVWICKET-6290
p286
aVWICKET-6289
p287
aVWICKET-6288
p288
aVWICKET-6287
p289
aVWICKET-6286
p290
aVWICKET-6285
p291
aVWICKET-6284
p292
aVWICKET-6283
p293
aVWICKET-6282
p294
aVWICKET-6281
p295
aVWICKET-6280
p296
aVWICKET-6279
p297
aVWICKET-6278
p298
aVWICKET-6277
p299
aVWICKET-6276
p300
aVWICKET-6275
p301
aVWICKET-6274
p302
aVWICKET-6273
p303
aVWICKET-6272
p304
aVWICKET-6271
p305
aVWICKET-6270
p306
aVWICKET-6269
p307
aVWICKET-6268
p308
aVWICKET-6267
p309
aVWICKET-6266
p310
aVWICKET-6265
p311
aVWICKET-6264
p312
aVWICKET-6263
p313
aVWICKET-6262
p314
aVWICKET-6261
p315
aVWICKET-6260
p316
aVWICKET-6259
p317
aVWICKET-6258
p318
aVWICKET-6257
p319
aVWICKET-6256
p320
aVWICKET-6255
p321
aVWICKET-6254
p322
aVWICKET-6253
p323
aVWICKET-6252
p324
aVWICKET-6251
p325
aVWICKET-6250
p326
aVWICKET-6249
p327
aVWICKET-6248
p328
aVWICKET-6247
p329
aVWICKET-6246
p330
aVWICKET-6245
p331
aVWICKET-6244
p332
aVWICKET-6243
p333
aVWICKET-6242
p334
aVWICKET-6241
p335
aVWICKET-6240
p336
aVWICKET-6239
p337
aVWICKET-6238
p338
aVWICKET-6237
p339
aVWICKET-6236
p340
aVWICKET-6235
p341
aVWICKET-6234
p342
aVWICKET-6233
p343
aVWICKET-6232
p344
aVWICKET-6231
p345
aVWICKET-6230
p346
aVWICKET-6229
p347
aVWICKET-6228
p348
aVWICKET-6227
p349
aVWICKET-6226
p350
aVWICKET-6225
p351
aVWICKET-6224
p352
aVWICKET-6223
p353
aVWICKET-6222
p354
aVWICKET-6221
p355
aVWICKET-6220
p356
aVWICKET-6219
p357
aVWICKET-6218
p358
aVWICKET-6217
p359
aVWICKET-6216
p360
aVWICKET-6215
p361
aVWICKET-6214
p362
aVWICKET-6213
p363
aVWICKET-6212
p364
aVWICKET-6211
p365
aVWICKET-6210
p366
aVWICKET-6209
p367
aVWICKET-6208
p368
aVWICKET-6207
p369
aVWICKET-6206
p370
aVWICKET-6205
p371
aVWICKET-6204
p372
aVWICKET-6203
p373
aVWICKET-6202
p374
aVWICKET-6201
p375
aVWICKET-6200
p376
aVWICKET-6199
p377
aVWICKET-6198
p378
aVWICKET-6197
p379
aVWICKET-6196
p380
aVWICKET-6195
p381
aVWICKET-6194
p382
aVWICKET-6193
p383
aVWICKET-6192
p384
aVWICKET-6191
p385
aVWICKET-6190
p386
aVWICKET-6189
p387
aVWICKET-6188
p388
aVWICKET-6187
p389
aVWICKET-6186
p390
aVWICKET-6185
p391
aVWICKET-6184
p392
aVWICKET-6183
p393
aVWICKET-6182
p394
aVWICKET-6181
p395
aVWICKET-6180
p396
aVWICKET-6179
p397
aVWICKET-6178
p398
aVWICKET-6177
p399
aVWICKET-6176
p400
aVWICKET-6175
p401
aVWICKET-6174
p402
aVWICKET-6173
p403
aVWICKET-6172
p404
aVWICKET-6171
p405
aVWICKET-6170
p406
aVWICKET-6169
p407
aVWICKET-6168
p408
aVWICKET-6167
p409
aVWICKET-6166
p410
aVWICKET-6165
p411
aVWICKET-6162
p412
aVWICKET-6161
p413
aVWICKET-6160
p414
aVWICKET-6159
p415
aVWICKET-6158
p416
aVWICKET-6157
p417
aVWICKET-6156
p418
aVWICKET-6155
p419
aVWICKET-6154
p420
aVWICKET-6153
p421
aVWICKET-6152
p422
aVWICKET-6151
p423
aVWICKET-6150
p424
aVWICKET-6149
p425
aVWICKET-6148
p426
aVWICKET-6147
p427
aVWICKET-6146
p428
aVWICKET-6145
p429
aVWICKET-6144
p430
aVWICKET-6143
p431
aVWICKET-6142
p432
aVWICKET-6141
p433
aVWICKET-6140
p434
aVWICKET-6139
p435
aVWICKET-6138
p436
aVWICKET-6137
p437
aVWICKET-6136
p438
aVWICKET-6135
p439
aVWICKET-6134
p440
aVWICKET-6133
p441
aVWICKET-6132
p442
aVWICKET-6131
p443
aVWICKET-6130
p444
aVWICKET-6129
p445
aVWICKET-6128
p446
aVWICKET-6127
p447
aVWICKET-6126
p448
aVWICKET-6125
p449
aVWICKET-6124
p450
aVWICKET-6123
p451
aVWICKET-6122
p452
aVWICKET-6121
p453
aVWICKET-6120
p454
aVWICKET-6119
p455
aVWICKET-6118
p456
aVWICKET-6117
p457
aVWICKET-6116
p458
aVWICKET-6115
p459
aVWICKET-6114
p460
aVWICKET-6113
p461
aVWICKET-6112
p462
aVWICKET-6111
p463
aVWICKET-6110
p464
aVWICKET-6109
p465
aVWICKET-6108
p466
aVWICKET-6107
p467
aVWICKET-6106
p468
aVWICKET-6105
p469
aVWICKET-6104
p470
aVWICKET-6103
p471
aVWICKET-6102
p472
aVWICKET-6101
p473
aVWICKET-6100
p474
aVWICKET-6099
p475
aVWICKET-6098
p476
aVWICKET-6097
p477
aVWICKET-6096
p478
aVWICKET-6095
p479
aVWICKET-6094
p480
aVWICKET-6093
p481
aVWICKET-6092
p482
aVWICKET-6091
p483
aVWICKET-6090
p484
aVWICKET-6089
p485
aVWICKET-6088
p486
aVWICKET-6087
p487
aVWICKET-6086
p488
aVWICKET-6085
p489
aVWICKET-6084
p490
aVWICKET-6083
p491
aVWICKET-6082
p492
aVWICKET-6081
p493
aVWICKET-6080
p494
aVWICKET-6079
p495
aVWICKET-6078
p496
aVWICKET-6077
p497
aVWICKET-6076
p498
aVWICKET-6075
p499
aVWICKET-6074
p500
aVWICKET-6073
p501
aVWICKET-6072
p502
aVWICKET-6071
p503
aVWICKET-6070
p504
aVWICKET-6069
p505
aVWICKET-6068
p506
aVWICKET-6067
p507
aVWICKET-6066
p508
aVWICKET-6065
p509
aVWICKET-6064
p510
aVWICKET-6063
p511
aVWICKET-6062
p512
aVWICKET-6061
p513
aVWICKET-6060
p514
aVWICKET-6059
p515
aVWICKET-6058
p516
aVWICKET-6057
p517
aVWICKET-6056
p518
aVWICKET-6055
p519
aVWICKET-6054
p520
aVWICKET-6053
p521
aVWICKET-6052
p522
aVWICKET-6051
p523
aVWICKET-6050
p524
aVWICKET-6049
p525
aVWICKET-6048
p526
aVWICKET-6047
p527
aVWICKET-6046
p528
aVWICKET-6045
p529
aVWICKET-6044
p530
aVWICKET-6043
p531
aVWICKET-6042
p532
aVWICKET-6041
p533
aVWICKET-6040
p534
aVWICKET-6039
p535
aVWICKET-6038
p536
aVWICKET-6037
p537
aVWICKET-6036
p538
aVWICKET-6035
p539
aVWICKET-6034
p540
aVWICKET-6033
p541
aVWICKET-6032
p542
aVWICKET-6031
p543
aVWICKET-6030
p544
aVWICKET-6029
p545
aVWICKET-6028
p546
aVWICKET-6027
p547
aVWICKET-6026
p548
aVWICKET-6025
p549
aVWICKET-6024
p550
aVWICKET-6023
p551
aVWICKET-6022
p552
aVWICKET-6021
p553
aVWICKET-6020
p554
aVWICKET-6019
p555
aVWICKET-6018
p556
aVWICKET-6017
p557
aVWICKET-6016
p558
aVWICKET-6015
p559
aVWICKET-6014
p560
aVWICKET-6013
p561
aVWICKET-6012
p562
aVWICKET-6011
p563
aVWICKET-6010
p564
aVWICKET-6009
p565
aVWICKET-6008
p566
aVWICKET-6007
p567
aVWICKET-6006
p568
aVWICKET-6005
p569
aVWICKET-6004
p570
aVWICKET-6003
p571
aVWICKET-6002
p572
aVWICKET-6001
p573
aVWICKET-6000
p574
aVWICKET-5999
p575
aVWICKET-5998
p576
aVWICKET-5997
p577
aVWICKET-5996
p578
aVWICKET-5995
p579
aVWICKET-5994
p580
aVWICKET-5993
p581
aVWICKET-5992
p582
aVWICKET-5991
p583
aVWICKET-5990
p584
aVWICKET-5989
p585
aVWICKET-5988
p586
aVWICKET-5987
p587
aVWICKET-5986
p588
aVWICKET-5985
p589
aVWICKET-5984
p590
aVWICKET-5983
p591
aVWICKET-5982
p592
aVWICKET-5981
p593
aVWICKET-5980
p594
aVWICKET-5979
p595
aVWICKET-5978
p596
aVWICKET-5977
p597
aVWICKET-5976
p598
aVWICKET-5975
p599
aVWICKET-5974
p600
aVWICKET-5973
p601
aVWICKET-5972
p602
aVWICKET-5971
p603
aVWICKET-5970
p604
aVWICKET-5969
p605
aVWICKET-5968
p606
aVWICKET-5967
p607
aVWICKET-5966
p608
aVWICKET-5965
p609
aVWICKET-5964
p610
aVWICKET-5963
p611
aVWICKET-5962
p612
aVWICKET-5961
p613
aVWICKET-5960
p614
aVWICKET-5959
p615
aVWICKET-5958
p616
aVWICKET-5957
p617
aVWICKET-5956
p618
aVWICKET-5955
p619
aVWICKET-5954
p620
aVWICKET-5953
p621
aVWICKET-5952
p622
aVWICKET-5951
p623
aVWICKET-5950
p624
aVWICKET-5949
p625
aVWICKET-5948
p626
aVWICKET-5947
p627
aVWICKET-5946
p628
aVWICKET-5945
p629
aVWICKET-5944
p630
aVWICKET-5943
p631
aVWICKET-5942
p632
aVWICKET-5941
p633
aVWICKET-5940
p634
aVWICKET-5939
p635
aVWICKET-5938
p636
aVWICKET-5937
p637
aVWICKET-5936
p638
aVWICKET-5935
p639
aVWICKET-5934
p640
aVWICKET-5933
p641
aVWICKET-5932
p642
aVWICKET-5931
p643
aVWICKET-5930
p644
aVWICKET-5929
p645
aVWICKET-5928
p646
aVWICKET-5927
p647
aVWICKET-5926
p648
aVWICKET-5925
p649
aVWICKET-5924
p650
aVWICKET-5923
p651
aVWICKET-5922
p652
aVWICKET-5921
p653
aVWICKET-5920
p654
aVWICKET-5919
p655
aVWICKET-5918
p656
aVWICKET-5917
p657
aVWICKET-5916
p658
aVWICKET-5915
p659
aVWICKET-5914
p660
aVWICKET-5913
p661
aVWICKET-5912
p662
aVWICKET-5911
p663
aVWICKET-5910
p664
aVWICKET-5909
p665
aVWICKET-5908
p666
aVWICKET-5907
p667
aVWICKET-5906
p668
aVWICKET-5905
p669
aVWICKET-5904
p670
aVWICKET-5903
p671
aVWICKET-5902
p672
aVWICKET-5901
p673
aVWICKET-5900
p674
aVWICKET-5899
p675
aVWICKET-5898
p676
aVWICKET-5897
p677
aVWICKET-5896
p678
aVWICKET-5895
p679
aVWICKET-5894
p680
aVWICKET-5893
p681
aVWICKET-5892
p682
aVWICKET-5891
p683
aVWICKET-5890
p684
aVWICKET-5889
p685
aVWICKET-5888
p686
aVWICKET-5887
p687
aVWICKET-5886
p688
aVWICKET-5885
p689
aVWICKET-5884
p690
aVWICKET-5883
p691
aVWICKET-5882
p692
aVWICKET-5881
p693
aVWICKET-5880
p694
aVWICKET-5879
p695
aVWICKET-5878
p696
aVWICKET-5877
p697
aVWICKET-5876
p698
aVWICKET-5875
p699
aVWICKET-5874
p700
aVWICKET-5873
p701
aVWICKET-5872
p702
aVWICKET-5871
p703
aVWICKET-5870
p704
aVWICKET-5869
p705
aVWICKET-5868
p706
aVWICKET-5867
p707
aVWICKET-5866
p708
aVWICKET-5865
p709
aVWICKET-5864
p710
aVWICKET-5863
p711
aVWICKET-5862
p712
aVWICKET-5861
p713
aVWICKET-5860
p714
aVWICKET-5859
p715
aVWICKET-5858
p716
aVWICKET-5857
p717
aVWICKET-5856
p718
aVWICKET-5855
p719
aVWICKET-5854
p720
aVWICKET-5853
p721
aVWICKET-5852
p722
aVWICKET-5851
p723
aVWICKET-5850
p724
aVWICKET-5849
p725
aVWICKET-5848
p726
aVWICKET-5847
p727
aVWICKET-5846
p728
aVWICKET-5845
p729
aVWICKET-5844
p730
aVWICKET-5843
p731
aVWICKET-5842
p732
aVWICKET-5841
p733
aVWICKET-5840
p734
aVWICKET-5839
p735
aVWICKET-5838
p736
aVWICKET-5837
p737
aVWICKET-5836
p738
aVWICKET-5835
p739
aVWICKET-5834
p740
aVWICKET-5833
p741
aVWICKET-5832
p742
aVWICKET-5831
p743
aVWICKET-5830
p744
aVWICKET-5829
p745
aVWICKET-5828
p746
aVWICKET-5827
p747
aVWICKET-5826
p748
aVWICKET-5825
p749
aVWICKET-5824
p750
aVWICKET-5823
p751
aVWICKET-5822
p752
aVWICKET-5821
p753
aVWICKET-5820
p754
aVWICKET-5819
p755
aVWICKET-5818
p756
aVWICKET-5817
p757
aVWICKET-5816
p758
aVWICKET-5815
p759
aVWICKET-5814
p760
aVWICKET-5813
p761
aVWICKET-5812
p762
aVWICKET-5811
p763
aVWICKET-5810
p764
aVWICKET-5809
p765
aVWICKET-5808
p766
aVWICKET-5807
p767
aVWICKET-5806
p768
aVWICKET-5805
p769
aVWICKET-5804
p770
aVWICKET-5803
p771
aVWICKET-5802
p772
aVWICKET-5801
p773
aVWICKET-5800
p774
aVWICKET-5799
p775
aVWICKET-5798
p776
aVWICKET-5797
p777
aVWICKET-5796
p778
aVWICKET-5795
p779
aVWICKET-5794
p780
aVWICKET-5793
p781
aVWICKET-5792
p782
aVWICKET-5791
p783
aVWICKET-5790
p784
aVWICKET-5789
p785
aVWICKET-5788
p786
aVWICKET-5787
p787
aVWICKET-5786
p788
aVWICKET-5785
p789
aVWICKET-5784
p790
aVWICKET-5783
p791
aVWICKET-5782
p792
aVWICKET-5781
p793
aVWICKET-5780
p794
aVWICKET-5779
p795
aVWICKET-5778
p796
aVWICKET-5777
p797
aVWICKET-5776
p798
aVWICKET-5775
p799
aVWICKET-5774
p800
aVWICKET-5773
p801
aVWICKET-5772
p802
aVWICKET-5771
p803
aVWICKET-5770
p804
aVWICKET-5769
p805
aVWICKET-5768
p806
aVWICKET-5767
p807
aVWICKET-5766
p808
aVWICKET-5765
p809
aVWICKET-5764
p810
aVWICKET-5763
p811
aVWICKET-5762
p812
aVWICKET-5761
p813
aVWICKET-5760
p814
aVWICKET-5759
p815
aVWICKET-5758
p816
aVWICKET-5757
p817
aVWICKET-5756
p818
aVWICKET-5755
p819
aVWICKET-5754
p820
aVWICKET-5753
p821
aVWICKET-5752
p822
aVWICKET-5751
p823
aVWICKET-5750
p824
aVWICKET-5749
p825
aVWICKET-5748
p826
aVWICKET-5747
p827
aVWICKET-5746
p828
aVWICKET-5745
p829
aVWICKET-5744
p830
aVWICKET-5743
p831
aVWICKET-5742
p832
aVWICKET-5741
p833
aVWICKET-5740
p834
aVWICKET-5739
p835
aVWICKET-5738
p836
aVWICKET-5737
p837
aVWICKET-5736
p838
aVWICKET-5735
p839
aVWICKET-5734
p840
aVWICKET-5733
p841
aVWICKET-5732
p842
aVWICKET-5731
p843
aVWICKET-5730
p844
aVWICKET-5729
p845
aVWICKET-5728
p846
aVWICKET-5727
p847
aVWICKET-5726
p848
aVWICKET-5725
p849
aVWICKET-5724
p850
aVWICKET-5723
p851
aVWICKET-5722
p852
aVWICKET-5721
p853
aVWICKET-5720
p854
aVWICKET-5719
p855
aVWICKET-5718
p856
aVWICKET-5717
p857
aVWICKET-5716
p858
aVWICKET-5715
p859
aVWICKET-5714
p860
aVWICKET-5713
p861
aVWICKET-5712
p862
aVWICKET-5711
p863
aVWICKET-5710
p864
aVWICKET-5709
p865
aVWICKET-5708
p866
aVWICKET-5707
p867
aVWICKET-5706
p868
aVWICKET-5705
p869
aVWICKET-5704
p870
aVWICKET-5703
p871
aVWICKET-5702
p872
aVWICKET-5701
p873
aVWICKET-5700
p874
aVWICKET-5699
p875
aVWICKET-5698
p876
aVWICKET-5697
p877
aVWICKET-5696
p878
aVWICKET-5695
p879
aVWICKET-5694
p880
aVWICKET-5693
p881
aVWICKET-5692
p882
aVWICKET-5691
p883
aVWICKET-5690
p884
aVWICKET-5689
p885
aVWICKET-5688
p886
aVWICKET-5687
p887
aVWICKET-5686
p888
aVWICKET-5685
p889
aVWICKET-5684
p890
aVWICKET-5683
p891
aVWICKET-5682
p892
aVWICKET-5681
p893
aVWICKET-5680
p894
aVWICKET-5679
p895
aVWICKET-5678
p896
aVWICKET-5677
p897
aVWICKET-5676
p898
aVWICKET-5675
p899
aVWICKET-5674
p900
aVWICKET-5673
p901
aVWICKET-5672
p902
aVWICKET-5671
p903
aVWICKET-5670
p904
aVWICKET-5669
p905
aVWICKET-5668
p906
aVWICKET-5667
p907
aVWICKET-5666
p908
aVWICKET-5665
p909
aVWICKET-5664
p910
aVWICKET-5663
p911
aVWICKET-5662
p912
aVWICKET-5661
p913
aVWICKET-5660
p914
aVWICKET-5659
p915
aVWICKET-5658
p916
aVWICKET-5657
p917
aVWICKET-5656
p918
aVWICKET-5655
p919
aVWICKET-5654
p920
aVWICKET-5653
p921
aVWICKET-5652
p922
aVWICKET-5651
p923
aVWICKET-5650
p924
aVWICKET-5649
p925
aVWICKET-5648
p926
aVWICKET-5647
p927
aVWICKET-5646
p928
aVWICKET-5645
p929
aVWICKET-5644
p930
aVWICKET-5643
p931
aVWICKET-5642
p932
aVWICKET-5641
p933
aVWICKET-5640
p934
aVWICKET-5639
p935
aVWICKET-5638
p936
aVWICKET-5637
p937
aVWICKET-5636
p938
aVWICKET-5635
p939
aVWICKET-5634
p940
aVWICKET-5633
p941
aVWICKET-5632
p942
aVWICKET-5631
p943
aVWICKET-5630
p944
aVWICKET-5629
p945
aVWICKET-5628
p946
aVWICKET-5627
p947
aVWICKET-5626
p948
aVWICKET-5625
p949
aVWICKET-5624
p950
aVWICKET-5623
p951
aVWICKET-5622
p952
aVWICKET-5621
p953
aVWICKET-5620
p954
aVWICKET-5619
p955
aVWICKET-5618
p956
aVWICKET-5617
p957
aVWICKET-5616
p958
aVWICKET-5615
p959
aVWICKET-5614
p960
aVWICKET-5613
p961
aVWICKET-5612
p962
aVWICKET-5611
p963
aVWICKET-5610
p964
aVWICKET-5609
p965
aVWICKET-5608
p966
aVWICKET-5607
p967
aVWICKET-5606
p968
aVWICKET-5605
p969
aVWICKET-5604
p970
aVWICKET-5603
p971
aVWICKET-5602
p972
aVWICKET-5601
p973
aVWICKET-5600
p974
aVWICKET-5599
p975
aVWICKET-5598
p976
aVWICKET-5597
p977
aVWICKET-5596
p978
aVWICKET-5595
p979
aVWICKET-5594
p980
aVWICKET-5593
p981
aVWICKET-5592
p982
aVWICKET-5591
p983
aVWICKET-5590
p984
aVWICKET-5589
p985
aVWICKET-5588
p986
aVWICKET-5587
p987
aVWICKET-5586
p988
aVWICKET-5585
p989
aVWICKET-5584
p990
aVWICKET-5583
p991
aVWICKET-5582
p992
aVWICKET-5581
p993
aVWICKET-5580
p994
aVWICKET-5579
p995
aVWICKET-5578
p996
aVWICKET-5577
p997
aVWICKET-5576
p998
aVWICKET-5575
p999
aVWICKET-5574
p1000
aVWICKET-5573
p1001
aVWICKET-5572
p1002
aVWICKET-5571
p1003
aVWICKET-5570
p1004
aVWICKET-5569
p1005
aVWICKET-5568
p1006
aVWICKET-5567
p1007
aVWICKET-5566
p1008
aVWICKET-5565
p1009
aVWICKET-5564
p1010
aVWICKET-5563
p1011
aVWICKET-5562
p1012
aVWICKET-5561
p1013
aVWICKET-5560
p1014
aVWICKET-5559
p1015
aVWICKET-5558
p1016
aVWICKET-5557
p1017
aVWICKET-5556
p1018
aVWICKET-5555
p1019
aVWICKET-5554
p1020
aVWICKET-5553
p1021
aVWICKET-5552
p1022
aVWICKET-5551
p1023
aVWICKET-5550
p1024
aVWICKET-5549
p1025
aVWICKET-5548
p1026
aVWICKET-5547
p1027
aVWICKET-5546
p1028
aVWICKET-5545
p1029
aVWICKET-5544
p1030
aVWICKET-5543
p1031
aVWICKET-5542
p1032
aVWICKET-5541
p1033
aVWICKET-5540
p1034
aVWICKET-5539
p1035
aVWICKET-5538
p1036
aVWICKET-5537
p1037
aVWICKET-5536
p1038
aVWICKET-5535
p1039
aVWICKET-5534
p1040
aVWICKET-5533
p1041
aVWICKET-5532
p1042
aVWICKET-5531
p1043
aVWICKET-5530
p1044
aVWICKET-5529
p1045
aVWICKET-5528
p1046
aVWICKET-5527
p1047
aVWICKET-5526
p1048
aVWICKET-5525
p1049
aVWICKET-5524
p1050
aVWICKET-5523
p1051
aVWICKET-5522
p1052
aVWICKET-5521
p1053
aVWICKET-5520
p1054
aVWICKET-5519
p1055
aVWICKET-5518
p1056
aVWICKET-5517
p1057
aVWICKET-5516
p1058
aVWICKET-5515
p1059
aVWICKET-5514
p1060
aVWICKET-5513
p1061
aVWICKET-5512
p1062
aVWICKET-5511
p1063
aVWICKET-5510
p1064
aVWICKET-5509
p1065
aVWICKET-5508
p1066
aVWICKET-5507
p1067
aVWICKET-5506
p1068
aVWICKET-5505
p1069
aVWICKET-5504
p1070
aVWICKET-5503
p1071
aVWICKET-5502
p1072
aVWICKET-5501
p1073
aVWICKET-5500
p1074
aVWICKET-5499
p1075
aVWICKET-5498
p1076
aVWICKET-5497
p1077
aVWICKET-5496
p1078
aVWICKET-5495
p1079
aVWICKET-5494
p1080
aVWICKET-5493
p1081
aVWICKET-5492
p1082
aVWICKET-5491
p1083
aVWICKET-5490
p1084
aVWICKET-5489
p1085
aVWICKET-5488
p1086
aVWICKET-5487
p1087
aVWICKET-5486
p1088
aVWICKET-5485
p1089
aVWICKET-5484
p1090
aVWICKET-5483
p1091
aVWICKET-5482
p1092
aVWICKET-5481
p1093
aVWICKET-5480
p1094
aVWICKET-5479
p1095
aVWICKET-5478
p1096
aVWICKET-5477
p1097
aVWICKET-5476
p1098
aVWICKET-5475
p1099
aVWICKET-5474
p1100
aVWICKET-5473
p1101
aVWICKET-5472
p1102
aVWICKET-5471
p1103
aVWICKET-5470
p1104
aVWICKET-5469
p1105
aVWICKET-5468
p1106
aVWICKET-5467
p1107
aVWICKET-5466
p1108
aVWICKET-5465
p1109
aVWICKET-5464
p1110
aVWICKET-5463
p1111
aVWICKET-5462
p1112
aVWICKET-5461
p1113
aVWICKET-5460
p1114
aVWICKET-5459
p1115
aVWICKET-5458
p1116
aVWICKET-5457
p1117
aVWICKET-5456
p1118
aVWICKET-5455
p1119
aVWICKET-5454
p1120
aVWICKET-5453
p1121
aVWICKET-5452
p1122
aVWICKET-5451
p1123
aVWICKET-5450
p1124
aVWICKET-5449
p1125
aVWICKET-5448
p1126
aVWICKET-5447
p1127
aVWICKET-5446
p1128
aVWICKET-5445
p1129
aVWICKET-5444
p1130
aVWICKET-5443
p1131
aVWICKET-5442
p1132
aVWICKET-5441
p1133
aVWICKET-5440
p1134
aVWICKET-5439
p1135
aVWICKET-5438
p1136
aVWICKET-5437
p1137
aVWICKET-5436
p1138
aVWICKET-5435
p1139
aVWICKET-5434
p1140
aVWICKET-5433
p1141
aVWICKET-5432
p1142
aVWICKET-5431
p1143
aVWICKET-5430
p1144
aVWICKET-5429
p1145
aVWICKET-5428
p1146
aVWICKET-5427
p1147
aVWICKET-5426
p1148
aVWICKET-5425
p1149
aVWICKET-5424
p1150
aVWICKET-5423
p1151
aVWICKET-5422
p1152
aVWICKET-5421
p1153
aVWICKET-5420
p1154
aVWICKET-5419
p1155
aVWICKET-5418
p1156
aVWICKET-5417
p1157
aVWICKET-5416
p1158
aVWICKET-5415
p1159
aVWICKET-5414
p1160
aVWICKET-5413
p1161
aVWICKET-5412
p1162
aVWICKET-5411
p1163
aVWICKET-5410
p1164
aVWICKET-5409
p1165
aVWICKET-5408
p1166
aVWICKET-5407
p1167
aVWICKET-5406
p1168
aVWICKET-5405
p1169
aVWICKET-5404
p1170
aVWICKET-5403
p1171
aVWICKET-5402
p1172
aVWICKET-5401
p1173
aVWICKET-5400
p1174
aVWICKET-5399
p1175
aVWICKET-5398
p1176
aVWICKET-5397
p1177
aVWICKET-5396
p1178
aVWICKET-5395
p1179
aVWICKET-5394
p1180
aVWICKET-5393
p1181
aVWICKET-5392
p1182
aVWICKET-5391
p1183
aVWICKET-5390
p1184
aVWICKET-5389
p1185
aVWICKET-5388
p1186
aVWICKET-5387
p1187
aVWICKET-5386
p1188
aVWICKET-5385
p1189
aVWICKET-5384
p1190
aVWICKET-5383
p1191
aVWICKET-5382
p1192
aVWICKET-5381
p1193
aVWICKET-5380
p1194
aVWICKET-5379
p1195
aVWICKET-5378
p1196
aVWICKET-5377
p1197
aVWICKET-5376
p1198
aVWICKET-5375
p1199
aVWICKET-5374
p1200
aVWICKET-5373
p1201
aVWICKET-5372
p1202
aVWICKET-5371
p1203
aVWICKET-5370
p1204
aVWICKET-5369
p1205
aVWICKET-5368
p1206
aVWICKET-5367
p1207
aVWICKET-5366
p1208
aVWICKET-5365
p1209
aVWICKET-5364
p1210
aVWICKET-5363
p1211
aVWICKET-5362
p1212
aVWICKET-5361
p1213
aVWICKET-5360
p1214
aVWICKET-5359
p1215
aVWICKET-5358
p1216
aVWICKET-5357
p1217
aVWICKET-5356
p1218
aVWICKET-5355
p1219
aVWICKET-5354
p1220
aVWICKET-5353
p1221
aVWICKET-5352
p1222
aVWICKET-5351
p1223
aVWICKET-5350
p1224
aVWICKET-5349
p1225
aVWICKET-5348
p1226
aVWICKET-5347
p1227
aVWICKET-5346
p1228
aVWICKET-5345
p1229
aVWICKET-5344
p1230
aVWICKET-5343
p1231
aVWICKET-5342
p1232
aVWICKET-5341
p1233
aVWICKET-5340
p1234
aVWICKET-5339
p1235
aVWICKET-5338
p1236
aVWICKET-5337
p1237
aVWICKET-5336
p1238
aVWICKET-5335
p1239
aVWICKET-5334
p1240
aVWICKET-5333
p1241
aVWICKET-5332
p1242
aVWICKET-5331
p1243
aVWICKET-5330
p1244
aVWICKET-5329
p1245
aVWICKET-5328
p1246
aVWICKET-5327
p1247
aVWICKET-5326
p1248
aVWICKET-5325
p1249
aVWICKET-5324
p1250
aVWICKET-5323
p1251
aVWICKET-5322
p1252
aVWICKET-5321
p1253
aVWICKET-5320
p1254
aVWICKET-5319
p1255
aVWICKET-5318
p1256
aVWICKET-5317
p1257
aVWICKET-5316
p1258
aVWICKET-5315
p1259
aVWICKET-5314
p1260
aVWICKET-5313
p1261
aVWICKET-5312
p1262
aVWICKET-5311
p1263
aVWICKET-5310
p1264
aVWICKET-5309
p1265
aVWICKET-5308
p1266
aVWICKET-5307
p1267
aVWICKET-5306
p1268
aVWICKET-5305
p1269
aVWICKET-5304
p1270
aVWICKET-5303
p1271
aVWICKET-5302
p1272
aVWICKET-5301
p1273
aVWICKET-5300
p1274
aVWICKET-5299
p1275
aVWICKET-5298
p1276
aVWICKET-5297
p1277
aVWICKET-5296
p1278
aVWICKET-5295
p1279
aVWICKET-5294
p1280
aVWICKET-5293
p1281
aVWICKET-5292
p1282
aVWICKET-5291
p1283
aVWICKET-5290
p1284
aVWICKET-5289
p1285
aVWICKET-5288
p1286
aVWICKET-5287
p1287
aVWICKET-5286
p1288
aVWICKET-5285
p1289
aVWICKET-5284
p1290
aVWICKET-5283
p1291
aVWICKET-5282
p1292
aVWICKET-5281
p1293
aVWICKET-5280
p1294
aVWICKET-5279
p1295
aVWICKET-5278
p1296
aVWICKET-5277
p1297
aVWICKET-5276
p1298
aVWICKET-5275
p1299
aVWICKET-5274
p1300
aVWICKET-5273
p1301
aVWICKET-5272
p1302
aVWICKET-5271
p1303
aVWICKET-5270
p1304
aVWICKET-5269
p1305
aVWICKET-5268
p1306
aVWICKET-5267
p1307
aVWICKET-5266
p1308
aVWICKET-5265
p1309
aVWICKET-5264
p1310
aVWICKET-5263
p1311
aVWICKET-5262
p1312
aVWICKET-5261
p1313
aVWICKET-5260
p1314
aVWICKET-5259
p1315
aVWICKET-5258
p1316
aVWICKET-5257
p1317
aVWICKET-5256
p1318
aVWICKET-5255
p1319
aVWICKET-5254
p1320
aVWICKET-5253
p1321
aVWICKET-5252
p1322
aVWICKET-5251
p1323
aVWICKET-5250
p1324
aVWICKET-5249
p1325
aVWICKET-5248
p1326
aVWICKET-5247
p1327
aVWICKET-5246
p1328
aVWICKET-5245
p1329
aVWICKET-5244
p1330
aVWICKET-5243
p1331
aVWICKET-5242
p1332
aVWICKET-5241
p1333
aVWICKET-5240
p1334
aVWICKET-5239
p1335
aVWICKET-5238
p1336
aVWICKET-5237
p1337
aVWICKET-5236
p1338
aVWICKET-5235
p1339
aVWICKET-5234
p1340
aVWICKET-5233
p1341
aVWICKET-5232
p1342
aVWICKET-5231
p1343
aVWICKET-5230
p1344
aVWICKET-5229
p1345
aVWICKET-5228
p1346
aVWICKET-5227
p1347
aVWICKET-5226
p1348
aVWICKET-5225
p1349
aVWICKET-5224
p1350
aVWICKET-5223
p1351
aVWICKET-5222
p1352
aVWICKET-5221
p1353
aVWICKET-5220
p1354
aVWICKET-5219
p1355
aVWICKET-5218
p1356
aVWICKET-5217
p1357
aVWICKET-5216
p1358
aVWICKET-5215
p1359
aVWICKET-5214
p1360
aVWICKET-5213
p1361
aVWICKET-5212
p1362
aVWICKET-5211
p1363
aVWICKET-5210
p1364
aVWICKET-5209
p1365
aVWICKET-5208
p1366
aVWICKET-5207
p1367
aVWICKET-5206
p1368
aVWICKET-5205
p1369
aVWICKET-5204
p1370
aVWICKET-5203
p1371
aVWICKET-5202
p1372
aVWICKET-5201
p1373
aVWICKET-5200
p1374
aVWICKET-5199
p1375
aVWICKET-5198
p1376
aVWICKET-5197
p1377
aVWICKET-5196
p1378
aVWICKET-5195
p1379
aVWICKET-5194
p1380
aVWICKET-5193
p1381
aVWICKET-5192
p1382
aVWICKET-5191
p1383
aVWICKET-5190
p1384
aVWICKET-5189
p1385
aVWICKET-5188
p1386
aVWICKET-5187
p1387
aVWICKET-5186
p1388
aVWICKET-5185
p1389
aVWICKET-5184
p1390
aVWICKET-5183
p1391
aVWICKET-5182
p1392
aVWICKET-5181
p1393
aVWICKET-5180
p1394
aVWICKET-5179
p1395
aVWICKET-5178
p1396
aVWICKET-5177
p1397
aVWICKET-5176
p1398
aVWICKET-5175
p1399
aVWICKET-5174
p1400
aVWICKET-5173
p1401
aVWICKET-5172
p1402
aVWICKET-5170
p1403
aVWICKET-5169
p1404
aVWICKET-5168
p1405
aVWICKET-5167
p1406
aVWICKET-5166
p1407
aVWICKET-5165
p1408
aVWICKET-5164
p1409
aVWICKET-5163
p1410
aVWICKET-5162
p1411
aVWICKET-5161
p1412
aVWICKET-5160
p1413
aVWICKET-5159
p1414
aVWICKET-5158
p1415
aVWICKET-5157
p1416
aVWICKET-5156
p1417
aVWICKET-5155
p1418
aVWICKET-5154
p1419
aVWICKET-5153
p1420
aVWICKET-5152
p1421
aVWICKET-5151
p1422
aVWICKET-5150
p1423
aVWICKET-5149
p1424
aVWICKET-5148
p1425
aVWICKET-5147
p1426
aVWICKET-5146
p1427
aVWICKET-5145
p1428
aVWICKET-5144
p1429
aVWICKET-5143
p1430
aVWICKET-5142
p1431
aVWICKET-5141
p1432
aVWICKET-5140
p1433
aVWICKET-5139
p1434
aVWICKET-5138
p1435
aVWICKET-5137
p1436
aVWICKET-5136
p1437
aVWICKET-5135
p1438
aVWICKET-5134
p1439
aVWICKET-5133
p1440
aVWICKET-5132
p1441
aVWICKET-5131
p1442
aVWICKET-5130
p1443
aVWICKET-5129
p1444
aVWICKET-5128
p1445
aVWICKET-5127
p1446
aVWICKET-5126
p1447
aVWICKET-5125
p1448
aVWICKET-5124
p1449
aVWICKET-5123
p1450
aVWICKET-5122
p1451
aVWICKET-5121
p1452
aVWICKET-5120
p1453
aVWICKET-5119
p1454
aVWICKET-5118
p1455
aVWICKET-5117
p1456
aVWICKET-5116
p1457
aVWICKET-5115
p1458
aVWICKET-5114
p1459
aVWICKET-5113
p1460
aVWICKET-5112
p1461
aVWICKET-5111
p1462
aVWICKET-5110
p1463
aVWICKET-5109
p1464
aVWICKET-5108
p1465
aVWICKET-5107
p1466
aVWICKET-5106
p1467
aVWICKET-5105
p1468
aVWICKET-5104
p1469
aVWICKET-5103
p1470
aVWICKET-5102
p1471
aVWICKET-5101
p1472
aVWICKET-5100
p1473
aVWICKET-5099
p1474
aVWICKET-5098
p1475
aVWICKET-5097
p1476
aVWICKET-5096
p1477
aVWICKET-5095
p1478
aVWICKET-5094
p1479
aVWICKET-5093
p1480
aVWICKET-5092
p1481
aVWICKET-5091
p1482
aVWICKET-5090
p1483
aVWICKET-5089
p1484
aVWICKET-5088
p1485
aVWICKET-5087
p1486
aVWICKET-5086
p1487
aVWICKET-5085
p1488
aVWICKET-5084
p1489
aVWICKET-5083
p1490
aVWICKET-5082
p1491
aVWICKET-5081
p1492
aVWICKET-5080
p1493
aVWICKET-5079
p1494
aVWICKET-5078
p1495
aVWICKET-5077
p1496
aVWICKET-5076
p1497
aVWICKET-5075
p1498
aVWICKET-5074
p1499
aVWICKET-5073
p1500
aVWICKET-5072
p1501
aVWICKET-5071
p1502
aVWICKET-5070
p1503
aVWICKET-5069
p1504
aVWICKET-5068
p1505
aVWICKET-5067
p1506
aVWICKET-5066
p1507
aVWICKET-5065
p1508
aVWICKET-5064
p1509
aVWICKET-5063
p1510
aVWICKET-5062
p1511
aVWICKET-5061
p1512
aVWICKET-5060
p1513
aVWICKET-5059
p1514
aVWICKET-5058
p1515
aVWICKET-5057
p1516
aVWICKET-5056
p1517
aVWICKET-5055
p1518
aVWICKET-5054
p1519
aVWICKET-5053
p1520
aVWICKET-5052
p1521
aVWICKET-5051
p1522
aVWICKET-5050
p1523
aVWICKET-5049
p1524
aVWICKET-5048
p1525
aVWICKET-5047
p1526
aVWICKET-5046
p1527
aVWICKET-5045
p1528
aVWICKET-5044
p1529
aVWICKET-5043
p1530
aVWICKET-5042
p1531
aVWICKET-5041
p1532
aVWICKET-5040
p1533
aVWICKET-5039
p1534
aVWICKET-5038
p1535
aVWICKET-5037
p1536
aVWICKET-5036
p1537
aVWICKET-5035
p1538
aVWICKET-5034
p1539
aVWICKET-5033
p1540
aVWICKET-5032
p1541
aVWICKET-5031
p1542
aVWICKET-5030
p1543
aVWICKET-5029
p1544
aVWICKET-5028
p1545
aVWICKET-5027
p1546
aVWICKET-5026
p1547
aVWICKET-5025
p1548
aVWICKET-5024
p1549
aVWICKET-5023
p1550
aVWICKET-5022
p1551
aVWICKET-5021
p1552
aVWICKET-5020
p1553
aVWICKET-5019
p1554
aVWICKET-5018
p1555
aVWICKET-5017
p1556
aVWICKET-5016
p1557
aVWICKET-5015
p1558
aVWICKET-5014
p1559
aVWICKET-5013
p1560
aVWICKET-5012
p1561
aVWICKET-5011
p1562
aVWICKET-5010
p1563
aVWICKET-5009
p1564
aVWICKET-5008
p1565
aVWICKET-5007
p1566
aVWICKET-5006
p1567
aVWICKET-5005
p1568
aVWICKET-5004
p1569
aVWICKET-5003
p1570
aVWICKET-5002
p1571
aVWICKET-5001
p1572
aVWICKET-5000
p1573
aVWICKET-4999
p1574
aVWICKET-4998
p1575
aVWICKET-4997
p1576
aVWICKET-4996
p1577
aVWICKET-4995
p1578
aVWICKET-4994
p1579
aVWICKET-4993
p1580
aVWICKET-4992
p1581
aVWICKET-4991
p1582
aVWICKET-4990
p1583
aVWICKET-4989
p1584
aVWICKET-4988
p1585
aVWICKET-4987
p1586
aVWICKET-4986
p1587
aVWICKET-4985
p1588
aVWICKET-4984
p1589
aVWICKET-4983
p1590
aVWICKET-4982
p1591
aVWICKET-4981
p1592
aVWICKET-4980
p1593
aVWICKET-4979
p1594
aVWICKET-4978
p1595
aVWICKET-4977
p1596
aVWICKET-4976
p1597
aVWICKET-4975
p1598
aVWICKET-4974
p1599
aVWICKET-4973
p1600
aVWICKET-4972
p1601
aVWICKET-4971
p1602
aVWICKET-4970
p1603
aVWICKET-4969
p1604
aVWICKET-4968
p1605
aVWICKET-4967
p1606
aVWICKET-4966
p1607
aVWICKET-4965
p1608
aVWICKET-4964
p1609
aVWICKET-4963
p1610
aVWICKET-4962
p1611
aVWICKET-4961
p1612
aVWICKET-4960
p1613
aVWICKET-4959
p1614
aVWICKET-4958
p1615
aVWICKET-4957
p1616
aVWICKET-4956
p1617
aVWICKET-4955
p1618
aVWICKET-4954
p1619
aVWICKET-4953
p1620
aVWICKET-4952
p1621
aVWICKET-4951
p1622
aVWICKET-4950
p1623
aVWICKET-4949
p1624
aVWICKET-4948
p1625
aVWICKET-4947
p1626
aVWICKET-4946
p1627
aVWICKET-4945
p1628
aVWICKET-4944
p1629
aVWICKET-4943
p1630
aVWICKET-4942
p1631
aVWICKET-4941
p1632
aVWICKET-4940
p1633
aVWICKET-4939
p1634
aVWICKET-4938
p1635
aVWICKET-4937
p1636
aVWICKET-4936
p1637
aVWICKET-4935
p1638
aVWICKET-4934
p1639
aVWICKET-4933
p1640
aVWICKET-4932
p1641
aVWICKET-4931
p1642
aVWICKET-4930
p1643
aVWICKET-4929
p1644
aVWICKET-4928
p1645
aVWICKET-4927
p1646
aVWICKET-4926
p1647
aVWICKET-4925
p1648
aVWICKET-4924
p1649
aVWICKET-4923
p1650
aVWICKET-4922
p1651
aVWICKET-4921
p1652
aVWICKET-4920
p1653
aVWICKET-4919
p1654
aVWICKET-4918
p1655
aVWICKET-4917
p1656
aVWICKET-4916
p1657
aVWICKET-4915
p1658
aVWICKET-4914
p1659
aVWICKET-4913
p1660
aVWICKET-4912
p1661
aVWICKET-4911
p1662
aVWICKET-4910
p1663
aVWICKET-4909
p1664
aVWICKET-4908
p1665
aVWICKET-4907
p1666
aVWICKET-4906
p1667
aVWICKET-4905
p1668
aVWICKET-4904
p1669
aVWICKET-4903
p1670
aVWICKET-4902
p1671
aVWICKET-4901
p1672
aVWICKET-4900
p1673
aVWICKET-4899
p1674
aVWICKET-4898
p1675
aVWICKET-4897
p1676
aVWICKET-4896
p1677
aVWICKET-4895
p1678
aVWICKET-4894
p1679
aVWICKET-4893
p1680
aVWICKET-4892
p1681
aVWICKET-4891
p1682
aVWICKET-4890
p1683
aVWICKET-4889
p1684
aVWICKET-4888
p1685
aVWICKET-4887
p1686
aVWICKET-4886
p1687
aVWICKET-4885
p1688
aVWICKET-4884
p1689
aVWICKET-4883
p1690
aVWICKET-4882
p1691
aVWICKET-4881
p1692
aVWICKET-4880
p1693
aVWICKET-4879
p1694
aVWICKET-4878
p1695
aVWICKET-4877
p1696
aVWICKET-4876
p1697
aVWICKET-4875
p1698
aVWICKET-4874
p1699
aVWICKET-4873
p1700
aVWICKET-4872
p1701
aVWICKET-4871
p1702
aVWICKET-4870
p1703
aVWICKET-4869
p1704
aVWICKET-4868
p1705
aVWICKET-4867
p1706
aVWICKET-4866
p1707
aVWICKET-4865
p1708
aVWICKET-4864
p1709
aVWICKET-4863
p1710
aVWICKET-4862
p1711
aVWICKET-4861
p1712
aVWICKET-4860
p1713
aVWICKET-4859
p1714
aVWICKET-4858
p1715
aVWICKET-4857
p1716
aVWICKET-4856
p1717
aVWICKET-4855
p1718
aVWICKET-4854
p1719
aVWICKET-4853
p1720
aVWICKET-4852
p1721
aVWICKET-4851
p1722
aVWICKET-4850
p1723
aVWICKET-4849
p1724
aVWICKET-4848
p1725
aVWICKET-4847
p1726
aVWICKET-4846
p1727
aVWICKET-4845
p1728
aVWICKET-4844
p1729
aVWICKET-4843
p1730
aVWICKET-4842
p1731
aVWICKET-4841
p1732
aVWICKET-4840
p1733
aVWICKET-4839
p1734
aVWICKET-4838
p1735
aVWICKET-4837
p1736
aVWICKET-4836
p1737
aVWICKET-4835
p1738
aVWICKET-4834
p1739
aVWICKET-4833
p1740
aVWICKET-4832
p1741
aVWICKET-4831
p1742
aVWICKET-4830
p1743
aVWICKET-4829
p1744
aVWICKET-4828
p1745
aVWICKET-4827
p1746
aVWICKET-4826
p1747
aVWICKET-4825
p1748
aVWICKET-4824
p1749
aVWICKET-4823
p1750
aVWICKET-4822
p1751
aVWICKET-4821
p1752
aVWICKET-4820
p1753
aVWICKET-4819
p1754
aVWICKET-4818
p1755
aVWICKET-4817
p1756
aVWICKET-4816
p1757
aVWICKET-4815
p1758
aVWICKET-4814
p1759
aVWICKET-4813
p1760
aVWICKET-4812
p1761
aVWICKET-4811
p1762
aVWICKET-4810
p1763
aVWICKET-4809
p1764
aVWICKET-4808
p1765
aVWICKET-4807
p1766
aVWICKET-4806
p1767
aVWICKET-4805
p1768
aVWICKET-4804
p1769
aVWICKET-4803
p1770
aVWICKET-4802
p1771
aVWICKET-4801
p1772
aVWICKET-4800
p1773
aVWICKET-4799
p1774
aVWICKET-4798
p1775
aVWICKET-4797
p1776
aVWICKET-4796
p1777
aVWICKET-4795
p1778
aVWICKET-4794
p1779
aVWICKET-4793
p1780
aVWICKET-4792
p1781
aVWICKET-4791
p1782
aVWICKET-4790
p1783
aVWICKET-4789
p1784
aVWICKET-4788
p1785
aVWICKET-4787
p1786
aVWICKET-4786
p1787
aVWICKET-4785
p1788
aVWICKET-4784
p1789
aVWICKET-4781
p1790
aVWICKET-4780
p1791
aVWICKET-4779
p1792
aVWICKET-4778
p1793
aVWICKET-4777
p1794
aVWICKET-4776
p1795
aVWICKET-4775
p1796
aVWICKET-4774
p1797
aVWICKET-4773
p1798
aVWICKET-4772
p1799
aVWICKET-4771
p1800
aVWICKET-4770
p1801
aVWICKET-4769
p1802
aVWICKET-4768
p1803
aVWICKET-4767
p1804
aVWICKET-4766
p1805
aVWICKET-4765
p1806
aVWICKET-4764
p1807
aVWICKET-4763
p1808
aVWICKET-4762
p1809
aVWICKET-4761
p1810
aVWICKET-4760
p1811
aVWICKET-4759
p1812
aVWICKET-4758
p1813
aVWICKET-4757
p1814
aVWICKET-4756
p1815
aVWICKET-4755
p1816
aVWICKET-4754
p1817
aVWICKET-4753
p1818
aVWICKET-4752
p1819
aVWICKET-4751
p1820
aVWICKET-4750
p1821
aVWICKET-4749
p1822
aVWICKET-4748
p1823
aVWICKET-4747
p1824
aVWICKET-4746
p1825
aVWICKET-4745
p1826
aVWICKET-4744
p1827
aVWICKET-4743
p1828
aVWICKET-4742
p1829
aVWICKET-4741
p1830
aVWICKET-4740
p1831
aVWICKET-4739
p1832
aVWICKET-4738
p1833
aVWICKET-4737
p1834
aVWICKET-4736
p1835
aVWICKET-4735
p1836
aVWICKET-4734
p1837
aVWICKET-4733
p1838
aVWICKET-4732
p1839
aVWICKET-4731
p1840
aVWICKET-4730
p1841
aVWICKET-4729
p1842
aVWICKET-4728
p1843
aVWICKET-4727
p1844
aVWICKET-4726
p1845
aVWICKET-4725
p1846
aVWICKET-4724
p1847
aVWICKET-4723
p1848
aVWICKET-4722
p1849
aVWICKET-4721
p1850
aVWICKET-4720
p1851
aVWICKET-4719
p1852
aVWICKET-4718
p1853
aVWICKET-4717
p1854
aVWICKET-4716
p1855
aVWICKET-4715
p1856
aVWICKET-4714
p1857
aVWICKET-4713
p1858
aVWICKET-4712
p1859
aVWICKET-4711
p1860
aVWICKET-4710
p1861
aVWICKET-4709
p1862
aVWICKET-4708
p1863
aVWICKET-4707
p1864
aVWICKET-4706
p1865
aVWICKET-4705
p1866
aVWICKET-4704
p1867
aVWICKET-4703
p1868
aVWICKET-4702
p1869
aVWICKET-4701
p1870
aVWICKET-4700
p1871
aVWICKET-4699
p1872
aVWICKET-4698
p1873
aVWICKET-4697
p1874
aVWICKET-4696
p1875
aVWICKET-4695
p1876
aVWICKET-4694
p1877
aVWICKET-4693
p1878
aVWICKET-4692
p1879
aVWICKET-4691
p1880
aVWICKET-4690
p1881
aVWICKET-4689
p1882
aVWICKET-4688
p1883
aVWICKET-4687
p1884
aVWICKET-4686
p1885
aVWICKET-4685
p1886
aVWICKET-4684
p1887
aVWICKET-4683
p1888
aVWICKET-4682
p1889
aVWICKET-4681
p1890
aVWICKET-4680
p1891
aVWICKET-4679
p1892
aVWICKET-4678
p1893
aVWICKET-4677
p1894
aVWICKET-4676
p1895
aVWICKET-4675
p1896
aVWICKET-4674
p1897
aVWICKET-4673
p1898
aVWICKET-4672
p1899
aVWICKET-4671
p1900
aVWICKET-4670
p1901
aVWICKET-4669
p1902
aVWICKET-4668
p1903
aVWICKET-4667
p1904
aVWICKET-4666
p1905
aVWICKET-4665
p1906
aVWICKET-4664
p1907
aVWICKET-4663
p1908
aVWICKET-4662
p1909
aVWICKET-4661
p1910
aVWICKET-4660
p1911
aVWICKET-4659
p1912
aVWICKET-4658
p1913
aVWICKET-4657
p1914
aVWICKET-4656
p1915
aVWICKET-4655
p1916
aVWICKET-4654
p1917
aVWICKET-4653
p1918
aVWICKET-4652
p1919
aVWICKET-4651
p1920
aVWICKET-4650
p1921
aVWICKET-4649
p1922
aVWICKET-4648
p1923
aVWICKET-4647
p1924
aVWICKET-4646
p1925
aVWICKET-4645
p1926
aVWICKET-4644
p1927
aVWICKET-4643
p1928
aVWICKET-4642
p1929
aVWICKET-4641
p1930
aVWICKET-4640
p1931
aVWICKET-4639
p1932
aVWICKET-4638
p1933
aVWICKET-4637
p1934
aVWICKET-4636
p1935
aVWICKET-4635
p1936
aVWICKET-4634
p1937
aVWICKET-4633
p1938
aVWICKET-4632
p1939
aVWICKET-4631
p1940
aVWICKET-4630
p1941
aVWICKET-4629
p1942
aVWICKET-4628
p1943
aVWICKET-4627
p1944
aVWICKET-4626
p1945
aVWICKET-4625
p1946
aVWICKET-4624
p1947
aVWICKET-4623
p1948
aVWICKET-4622
p1949
aVWICKET-4621
p1950
aVWICKET-4620
p1951
aVWICKET-4619
p1952
aVWICKET-4618
p1953
aVWICKET-4617
p1954
aVWICKET-4616
p1955
aVWICKET-4615
p1956
aVWICKET-4614
p1957
aVWICKET-4613
p1958
aVWICKET-4612
p1959
aVWICKET-4611
p1960
aVWICKET-4610
p1961
aVWICKET-4609
p1962
aVWICKET-4608
p1963
aVWICKET-4607
p1964
aVWICKET-4606
p1965
aVWICKET-4605
p1966
aVWICKET-4604
p1967
aVWICKET-4603
p1968
aVWICKET-4602
p1969
aVWICKET-4601
p1970
aVWICKET-4600
p1971
aVWICKET-4599
p1972
aVWICKET-4598
p1973
aVWICKET-4597
p1974
aVWICKET-4596
p1975
aVWICKET-4595
p1976
aVWICKET-4594
p1977
aVWICKET-4593
p1978
aVWICKET-4592
p1979
aVWICKET-4591
p1980
aVWICKET-4590
p1981
aVWICKET-4589
p1982
aVWICKET-4588
p1983
aVWICKET-4587
p1984
aVWICKET-4586
p1985
aVWICKET-4585
p1986
aVWICKET-4584
p1987
aVWICKET-4583
p1988
aVWICKET-4582
p1989
aVWICKET-4581
p1990
aVWICKET-4580
p1991
aVWICKET-4579
p1992
aVWICKET-4578
p1993
aVWICKET-4577
p1994
aVWICKET-4576
p1995
aVWICKET-4575
p1996
aVWICKET-4574
p1997
aVWICKET-4573
p1998
aVWICKET-4572
p1999
aVWICKET-4571
p2000
aVWICKET-4570
p2001
aVWICKET-4569
p2002
aVWICKET-4568
p2003
aVWICKET-4567
p2004
aVWICKET-4566
p2005
aVWICKET-4565
p2006
aVWICKET-4564
p2007
aVWICKET-4563
p2008
aVWICKET-4562
p2009
aVWICKET-4561
p2010
aVWICKET-4560
p2011
aVWICKET-4559
p2012
aVWICKET-4558
p2013
aVWICKET-4557
p2014
aVWICKET-4556
p2015
aVWICKET-4555
p2016
aVWICKET-4554
p2017
aVWICKET-4553
p2018
aVWICKET-4552
p2019
aVWICKET-4551
p2020
aVWICKET-4550
p2021
aVWICKET-4549
p2022
aVWICKET-4548
p2023
aVWICKET-4547
p2024
aVWICKET-4546
p2025
aVWICKET-4545
p2026
aVWICKET-4544
p2027
aVWICKET-4543
p2028
aVWICKET-4542
p2029
aVWICKET-4541
p2030
aVWICKET-4540
p2031
aVWICKET-4539
p2032
aVWICKET-4538
p2033
aVWICKET-4537
p2034
aVWICKET-4536
p2035
aVWICKET-4535
p2036
aVWICKET-4534
p2037
aVWICKET-4533
p2038
aVWICKET-4532
p2039
aVWICKET-4531
p2040
aVWICKET-4530
p2041
aVWICKET-4529
p2042
aVWICKET-4528
p2043
aVWICKET-4527
p2044
aVWICKET-4526
p2045
aVWICKET-4525
p2046
aVWICKET-4524
p2047
aVWICKET-4523
p2048
aVWICKET-4522
p2049
aVWICKET-4521
p2050
aVWICKET-4520
p2051
aVWICKET-4519
p2052
aVWICKET-4518
p2053
aVWICKET-4517
p2054
aVWICKET-4516
p2055
aVWICKET-4515
p2056
aVWICKET-4514
p2057
aVWICKET-4513
p2058
aVWICKET-4512
p2059
aVWICKET-4511
p2060
aVWICKET-4510
p2061
aVWICKET-4509
p2062
aVWICKET-4508
p2063
aVWICKET-4507
p2064
aVWICKET-4506
p2065
aVWICKET-4505
p2066
aVWICKET-4504
p2067
aVWICKET-4503
p2068
aVWICKET-4502
p2069
aVWICKET-4501
p2070
aVWICKET-4500
p2071
aVWICKET-4499
p2072
aVWICKET-4498
p2073
aVWICKET-4497
p2074
aVWICKET-4496
p2075
aVWICKET-4495
p2076
aVWICKET-4494
p2077
aVWICKET-4493
p2078
aVWICKET-4492
p2079
aVWICKET-4491
p2080
aVWICKET-4490
p2081
aVWICKET-4489
p2082
aVWICKET-4488
p2083
aVWICKET-4487
p2084
aVWICKET-4486
p2085
aVWICKET-4485
p2086
aVWICKET-4484
p2087
aVWICKET-4483
p2088
aVWICKET-4482
p2089
aVWICKET-4481
p2090
aVWICKET-4480
p2091
aVWICKET-4479
p2092
aVWICKET-4478
p2093
aVWICKET-4477
p2094
aVWICKET-4476
p2095
aVWICKET-4475
p2096
aVWICKET-4474
p2097
aVWICKET-4473
p2098
aVWICKET-4472
p2099
aVWICKET-4471
p2100
aVWICKET-4470
p2101
aVWICKET-4469
p2102
aVWICKET-4468
p2103
aVWICKET-4467
p2104
aVWICKET-4466
p2105
aVWICKET-4465
p2106
aVWICKET-4464
p2107
aVWICKET-4463
p2108
aVWICKET-4462
p2109
aVWICKET-4461
p2110
aVWICKET-4460
p2111
aVWICKET-4459
p2112
aVWICKET-4458
p2113
aVWICKET-4457
p2114
aVWICKET-4456
p2115
aVWICKET-4455
p2116
aVWICKET-4454
p2117
aVWICKET-4453
p2118
aVWICKET-4452
p2119
aVWICKET-4451
p2120
aVWICKET-4450
p2121
aVWICKET-4449
p2122
aVWICKET-4448
p2123
aVWICKET-4447
p2124
aVWICKET-4446
p2125
aVWICKET-4445
p2126
aVWICKET-4444
p2127
aVWICKET-4443
p2128
aVWICKET-4442
p2129
aVWICKET-4441
p2130
aVWICKET-4440
p2131
aVWICKET-4439
p2132
aVWICKET-4438
p2133
aVWICKET-4437
p2134
aVWICKET-4436
p2135
aVWICKET-4435
p2136
aVWICKET-4434
p2137
aVWICKET-4433
p2138
aVWICKET-4432
p2139
aVWICKET-4431
p2140
aVWICKET-4430
p2141
aVWICKET-4429
p2142
aVWICKET-4428
p2143
aVWICKET-4427
p2144
aVWICKET-4426
p2145
aVWICKET-4425
p2146
aVWICKET-4424
p2147
aVWICKET-4423
p2148
aVWICKET-4422
p2149
aVWICKET-4421
p2150
aVWICKET-4420
p2151
aVWICKET-4419
p2152
aVWICKET-4418
p2153
aVWICKET-4417
p2154
aVWICKET-4416
p2155
aVWICKET-4415
p2156
aVWICKET-4414
p2157
aVWICKET-4413
p2158
aVWICKET-4412
p2159
aVWICKET-4411
p2160
aVWICKET-4410
p2161
aVWICKET-4409
p2162
aVWICKET-4408
p2163
aVWICKET-4407
p2164
aVWICKET-4406
p2165
aVWICKET-4405
p2166
aVWICKET-4404
p2167
aVWICKET-4403
p2168
aVWICKET-4402
p2169
aVWICKET-4401
p2170
aVWICKET-4400
p2171
aVWICKET-4399
p2172
aVWICKET-4398
p2173
aVWICKET-4397
p2174
aVWICKET-4396
p2175
aVWICKET-4395
p2176
aVWICKET-4394
p2177
aVWICKET-4393
p2178
aVWICKET-4392
p2179
aVWICKET-4391
p2180
aVWICKET-4390
p2181
aVWICKET-4389
p2182
aVWICKET-4388
p2183
aVWICKET-4387
p2184
aVWICKET-4386
p2185
aVWICKET-4385
p2186
aVWICKET-4384
p2187
aVWICKET-4383
p2188
aVWICKET-4382
p2189
aVWICKET-4381
p2190
aVWICKET-4380
p2191
aVWICKET-4379
p2192
aVWICKET-4378
p2193
aVWICKET-4377
p2194
aVWICKET-4376
p2195
aVWICKET-4375
p2196
aVWICKET-4374
p2197
aVWICKET-4373
p2198
aVWICKET-4372
p2199
aVWICKET-4371
p2200
aVWICKET-4370
p2201
aVWICKET-4369
p2202
aVWICKET-4368
p2203
aVWICKET-4367
p2204
aVWICKET-4366
p2205
aVWICKET-4365
p2206
aVWICKET-4364
p2207
aVWICKET-4363
p2208
aVWICKET-4362
p2209
aVWICKET-4361
p2210
aVWICKET-4360
p2211
aVWICKET-4359
p2212
aVWICKET-4358
p2213
aVWICKET-4357
p2214
aVWICKET-4356
p2215
aVWICKET-4355
p2216
aVWICKET-4354
p2217
aVWICKET-4353
p2218
aVWICKET-4352
p2219
aVWICKET-4351
p2220
aVWICKET-4350
p2221
aVWICKET-4349
p2222
aVWICKET-4348
p2223
aVWICKET-4347
p2224
aVWICKET-4346
p2225
aVWICKET-4345
p2226
aVWICKET-4344
p2227
aVWICKET-4343
p2228
aVWICKET-4342
p2229
aVWICKET-4341
p2230
aVWICKET-4340
p2231
aVWICKET-4339
p2232
aVWICKET-4338
p2233
aVWICKET-4337
p2234
aVWICKET-4336
p2235
aVWICKET-4335
p2236
aVWICKET-4334
p2237
aVWICKET-4333
p2238
aVWICKET-4332
p2239
aVWICKET-4331
p2240
aVWICKET-4330
p2241
aVWICKET-4329
p2242
aVWICKET-4328
p2243
aVWICKET-4327
p2244
aVWICKET-4326
p2245
aVWICKET-4325
p2246
aVWICKET-4324
p2247
aVWICKET-4323
p2248
aVWICKET-4322
p2249
aVWICKET-4321
p2250
aVWICKET-4320
p2251
aVWICKET-4319
p2252
aVWICKET-4318
p2253
aVWICKET-4317
p2254
aVWICKET-4316
p2255
aVWICKET-4315
p2256
aVWICKET-4314
p2257
aVWICKET-4313
p2258
aVWICKET-4312
p2259
aVWICKET-4311
p2260
aVWICKET-4310
p2261
aVWICKET-4309
p2262
aVWICKET-4308
p2263
aVWICKET-4307
p2264
aVWICKET-4306
p2265
aVWICKET-4305
p2266
aVWICKET-4304
p2267
aVWICKET-4303
p2268
aVWICKET-4302
p2269
aVWICKET-4301
p2270
aVWICKET-4300
p2271
aVWICKET-4299
p2272
aVWICKET-4298
p2273
aVWICKET-4297
p2274
aVWICKET-4296
p2275
aVWICKET-4295
p2276
aVWICKET-4294
p2277
aVWICKET-4293
p2278
aVWICKET-4292
p2279
aVWICKET-4291
p2280
aVWICKET-4290
p2281
aVWICKET-4289
p2282
aVWICKET-4288
p2283
aVWICKET-4287
p2284
aVWICKET-4286
p2285
aVWICKET-4285
p2286
aVWICKET-4284
p2287
aVWICKET-4283
p2288
aVWICKET-4282
p2289
aVWICKET-4281
p2290
aVWICKET-4280
p2291
aVWICKET-4279
p2292
aVWICKET-4278
p2293
aVWICKET-4277
p2294
aVWICKET-4276
p2295
aVWICKET-4275
p2296
aVWICKET-4274
p2297
aVWICKET-4273
p2298
aVWICKET-4272
p2299
aVWICKET-4271
p2300
aVWICKET-4270
p2301
aVWICKET-4269
p2302
aVWICKET-4268
p2303
aVWICKET-4267
p2304
aVWICKET-4266
p2305
aVWICKET-4265
p2306
aVWICKET-4264
p2307
aVWICKET-4263
p2308
aVWICKET-4262
p2309
aVWICKET-4261
p2310
aVWICKET-4260
p2311
aVWICKET-4259
p2312
aVWICKET-4258
p2313
aVWICKET-4257
p2314
aVWICKET-4256
p2315
aVWICKET-4255
p2316
aVWICKET-4254
p2317
aVWICKET-4253
p2318
aVWICKET-4252
p2319
aVWICKET-4251
p2320
aVWICKET-4250
p2321
aVWICKET-4249
p2322
aVWICKET-4248
p2323
aVWICKET-4247
p2324
aVWICKET-4246
p2325
aVWICKET-4245
p2326
aVWICKET-4244
p2327
aVWICKET-4243
p2328
aVWICKET-4242
p2329
aVWICKET-4241
p2330
aVWICKET-4240
p2331
aVWICKET-4239
p2332
aVWICKET-4238
p2333
aVWICKET-4237
p2334
aVWICKET-4236
p2335
aVWICKET-4235
p2336
aVWICKET-4234
p2337
aVWICKET-4233
p2338
aVWICKET-4232
p2339
aVWICKET-4231
p2340
aVWICKET-4230
p2341
aVWICKET-4229
p2342
aVWICKET-4228
p2343
aVWICKET-4227
p2344
aVWICKET-4226
p2345
aVWICKET-4225
p2346
aVWICKET-4224
p2347
aVWICKET-4223
p2348
aVWICKET-4222
p2349
aVWICKET-4221
p2350
aVWICKET-4220
p2351
aVWICKET-4219
p2352
aVWICKET-4218
p2353
aVWICKET-4217
p2354
aVWICKET-4216
p2355
aVWICKET-4215
p2356
aVWICKET-4214
p2357
aVWICKET-4213
p2358
aVWICKET-4212
p2359
aVWICKET-4211
p2360
aVWICKET-4210
p2361
aVWICKET-4209
p2362
aVWICKET-4208
p2363
aVWICKET-4207
p2364
aVWICKET-4206
p2365
aVWICKET-4205
p2366
aVWICKET-4204
p2367
aVWICKET-4203
p2368
aVWICKET-4202
p2369
aVWICKET-4201
p2370
aVWICKET-4200
p2371
aVWICKET-4199
p2372
aVWICKET-4198
p2373
aVWICKET-4197
p2374
aVWICKET-4196
p2375
aVWICKET-4195
p2376
aVWICKET-4194
p2377
aVWICKET-4193
p2378
aVWICKET-4192
p2379
aVWICKET-4191
p2380
aVWICKET-4190
p2381
aVWICKET-4189
p2382
aVWICKET-4188
p2383
aVWICKET-4187
p2384
aVWICKET-4186
p2385
aVWICKET-4185
p2386
aVWICKET-4184
p2387
aVWICKET-4183
p2388
aVWICKET-4182
p2389
aVWICKET-4181
p2390
aVWICKET-4180
p2391
aVWICKET-4179
p2392
aVWICKET-4178
p2393
aVWICKET-4177
p2394
aVWICKET-4176
p2395
aVWICKET-4175
p2396
aVWICKET-4174
p2397
aVWICKET-4173
p2398
aVWICKET-4172
p2399
aVWICKET-4171
p2400
aVWICKET-4170
p2401
aVWICKET-4169
p2402
aVWICKET-4168
p2403
aVWICKET-4167
p2404
aVWICKET-4166
p2405
aVWICKET-4165
p2406
aVWICKET-4164
p2407
aVWICKET-4163
p2408
aVWICKET-4162
p2409
aVWICKET-4161
p2410
aVWICKET-4160
p2411
aVWICKET-4159
p2412
aVWICKET-4158
p2413
aVWICKET-4157
p2414
aVWICKET-4156
p2415
aVWICKET-4155
p2416
aVWICKET-4154
p2417
aVWICKET-4153
p2418
aVWICKET-4152
p2419
aVWICKET-4151
p2420
aVWICKET-4150
p2421
aVWICKET-4149
p2422
aVWICKET-4148
p2423
aVWICKET-4147
p2424
aVWICKET-4146
p2425
aVWICKET-4145
p2426
aVWICKET-4144
p2427
aVWICKET-4143
p2428
aVWICKET-4142
p2429
aVWICKET-4141
p2430
aVWICKET-4140
p2431
aVWICKET-4139
p2432
aVWICKET-4138
p2433
aVWICKET-4137
p2434
aVWICKET-4136
p2435
aVWICKET-4135
p2436
aVWICKET-4134
p2437
aVWICKET-4133
p2438
aVWICKET-4132
p2439
aVWICKET-4131
p2440
aVWICKET-4130
p2441
aVWICKET-4129
p2442
aVWICKET-4128
p2443
aVWICKET-4127
p2444
aVWICKET-4126
p2445
aVWICKET-4125
p2446
aVWICKET-4124
p2447
aVWICKET-4123
p2448
aVWICKET-4122
p2449
aVWICKET-4121
p2450
aVWICKET-4120
p2451
aVWICKET-4119
p2452
aVWICKET-4118
p2453
aVWICKET-4117
p2454
aVWICKET-4116
p2455
aVWICKET-4115
p2456
aVWICKET-4114
p2457
aVWICKET-4113
p2458
aVWICKET-4112
p2459
aVWICKET-4111
p2460
aVWICKET-4110
p2461
aVWICKET-4109
p2462
aVWICKET-4108
p2463
aVWICKET-4107
p2464
aVWICKET-4106
p2465
aVWICKET-4105
p2466
aVWICKET-4104
p2467
aVWICKET-4103
p2468
aVWICKET-4102
p2469
aVWICKET-4101
p2470
aVWICKET-4100
p2471
aVWICKET-4099
p2472
aVWICKET-4098
p2473
aVWICKET-4097
p2474
aVWICKET-4096
p2475
aVWICKET-4095
p2476
aVWICKET-4094
p2477
aVWICKET-4093
p2478
aVWICKET-4092
p2479
aVWICKET-4091
p2480
aVWICKET-4090
p2481
aVWICKET-4089
p2482
aVWICKET-4088
p2483
aVWICKET-4087
p2484
aVWICKET-4086
p2485
aVWICKET-4085
p2486
aVWICKET-4084
p2487
aVWICKET-4083
p2488
aVWICKET-4082
p2489
aVWICKET-4081
p2490
aVWICKET-4080
p2491
aVWICKET-4079
p2492
aVWICKET-4078
p2493
aVWICKET-4077
p2494
aVWICKET-4076
p2495
aVWICKET-4075
p2496
aVWICKET-4074
p2497
aVWICKET-4073
p2498
aVWICKET-4072
p2499
aVWICKET-4071
p2500
aVWICKET-4070
p2501
aVWICKET-4069
p2502
aVWICKET-4068
p2503
aVWICKET-4067
p2504
aVWICKET-4066
p2505
aVWICKET-4065
p2506
aVWICKET-4064
p2507
aVWICKET-4063
p2508
aVWICKET-4062
p2509
aVWICKET-4061
p2510
aVWICKET-4060
p2511
aVWICKET-4059
p2512
aVWICKET-4058
p2513
aVWICKET-4057
p2514
aVWICKET-4056
p2515
aVWICKET-4055
p2516
aVWICKET-4054
p2517
aVWICKET-4053
p2518
aVWICKET-4052
p2519
aVWICKET-4051
p2520
aVWICKET-4050
p2521
aVWICKET-4049
p2522
aVWICKET-4048
p2523
aVWICKET-4047
p2524
aVWICKET-4046
p2525
aVWICKET-4045
p2526
aVWICKET-4044
p2527
aVWICKET-4043
p2528
aVWICKET-4042
p2529
aVWICKET-4041
p2530
aVWICKET-4040
p2531
aVWICKET-4039
p2532
aVWICKET-4038
p2533
aVWICKET-4037
p2534
aVWICKET-4036
p2535
aVWICKET-4035
p2536
aVWICKET-4034
p2537
aVWICKET-4033
p2538
aVWICKET-4032
p2539
aVWICKET-4031
p2540
aVWICKET-4030
p2541
aVWICKET-4029
p2542
aVWICKET-4028
p2543
aVWICKET-4027
p2544
aVWICKET-4026
p2545
aVWICKET-4025
p2546
aVWICKET-4024
p2547
aVWICKET-4023
p2548
aVWICKET-4022
p2549
aVWICKET-4021
p2550
aVWICKET-4020
p2551
aVWICKET-4019
p2552
aVWICKET-4018
p2553
aVWICKET-4017
p2554
aVWICKET-4016
p2555
aVWICKET-4015
p2556
aVWICKET-4014
p2557
aVWICKET-4013
p2558
aVWICKET-4012
p2559
aVWICKET-4011
p2560
aVWICKET-4010
p2561
aVWICKET-4009
p2562
aVWICKET-4008
p2563
aVWICKET-4007
p2564
aVWICKET-4006
p2565
aVWICKET-4005
p2566
aVWICKET-4004
p2567
aVWICKET-4003
p2568
aVWICKET-4002
p2569
aVWICKET-4001
p2570
aVWICKET-4000
p2571
aVWICKET-3999
p2572
aVWICKET-3998
p2573
aVWICKET-3997
p2574
aVWICKET-3996
p2575
aVWICKET-3995
p2576
aVWICKET-3994
p2577
aVWICKET-3993
p2578
aVWICKET-3992
p2579
aVWICKET-3991
p2580
aVWICKET-3990
p2581
aVWICKET-3989
p2582
aVWICKET-3988
p2583
aVWICKET-3987
p2584
aVWICKET-3986
p2585
aVWICKET-3985
p2586
aVWICKET-3984
p2587
aVWICKET-3983
p2588
aVWICKET-3982
p2589
aVWICKET-3981
p2590
aVWICKET-3980
p2591
aVWICKET-3979
p2592
aVWICKET-3978
p2593
aVWICKET-3977
p2594
aVWICKET-3976
p2595
aVWICKET-3975
p2596
aVWICKET-3974
p2597
aVWICKET-3973
p2598
aVWICKET-3972
p2599
aVWICKET-3971
p2600
aVWICKET-3970
p2601
aVWICKET-3969
p2602
aVWICKET-3968
p2603
aVWICKET-3967
p2604
aVWICKET-3966
p2605
aVWICKET-3965
p2606
aVWICKET-3964
p2607
aVWICKET-3963
p2608
aVWICKET-3962
p2609
aVWICKET-3961
p2610
aVWICKET-3960
p2611
aVWICKET-3959
p2612
aVWICKET-3958
p2613
aVWICKET-3957
p2614
aVWICKET-3956
p2615
aVWICKET-3955
p2616
aVWICKET-3954
p2617
aVWICKET-3953
p2618
aVWICKET-3952
p2619
aVWICKET-3951
p2620
aVWICKET-3950
p2621
aVWICKET-3949
p2622
aVWICKET-3948
p2623
aVWICKET-3947
p2624
aVWICKET-3946
p2625
aVWICKET-3945
p2626
aVWICKET-3944
p2627
aVWICKET-3943
p2628
aVWICKET-3942
p2629
aVWICKET-3941
p2630
aVWICKET-3940
p2631
aVWICKET-3939
p2632
aVWICKET-3938
p2633
aVWICKET-3937
p2634
aVWICKET-3936
p2635
aVWICKET-3935
p2636
aVWICKET-3934
p2637
aVWICKET-3933
p2638
aVWICKET-3932
p2639
aVWICKET-3931
p2640
aVWICKET-3930
p2641
aVWICKET-3929
p2642
aVWICKET-3928
p2643
aVWICKET-3927
p2644
aVWICKET-3926
p2645
aVWICKET-3925
p2646
aVWICKET-3924
p2647
aVWICKET-3923
p2648
aVWICKET-3922
p2649
aVWICKET-3921
p2650
aVWICKET-3920
p2651
aVWICKET-3919
p2652
aVWICKET-3918
p2653
aVWICKET-3917
p2654
aVWICKET-3916
p2655
aVWICKET-3915
p2656
aVWICKET-3914
p2657
aVWICKET-3913
p2658
aVWICKET-3912
p2659
aVWICKET-3911
p2660
aVWICKET-3910
p2661
aVWICKET-3909
p2662
aVWICKET-3908
p2663
aVWICKET-3907
p2664
aVWICKET-3906
p2665
aVWICKET-3905
p2666
aVWICKET-3904
p2667
aVWICKET-3903
p2668
aVWICKET-3902
p2669
aVWICKET-3901
p2670
aVWICKET-3900
p2671
aVWICKET-3899
p2672
aVWICKET-3898
p2673
aVWICKET-3897
p2674
aVWICKET-3896
p2675
aVWICKET-3895
p2676
aVWICKET-3894
p2677
aVWICKET-3893
p2678
aVWICKET-3892
p2679
aVWICKET-3891
p2680
aVWICKET-3890
p2681
aVWICKET-3889
p2682
aVWICKET-3888
p2683
aVWICKET-3887
p2684
aVWICKET-3886
p2685
aVWICKET-3885
p2686
aVWICKET-3884
p2687
aVWICKET-3883
p2688
aVWICKET-3882
p2689
aVWICKET-3881
p2690
aVWICKET-3880
p2691
aVWICKET-3879
p2692
aVWICKET-3878
p2693
aVWICKET-3877
p2694
aVWICKET-3876
p2695
aVWICKET-3875
p2696
aVWICKET-3874
p2697
aVWICKET-3873
p2698
aVWICKET-3872
p2699
aVWICKET-3871
p2700
aVWICKET-3870
p2701
aVWICKET-3869
p2702
aVWICKET-3868
p2703
aVWICKET-3867
p2704
aVWICKET-3866
p2705
aVWICKET-3865
p2706
aVWICKET-3864
p2707
aVWICKET-3863
p2708
aVWICKET-3862
p2709
aVWICKET-3861
p2710
aVWICKET-3860
p2711
aVWICKET-3859
p2712
aVWICKET-3858
p2713
aVWICKET-3857
p2714
aVWICKET-3856
p2715
aVWICKET-3855
p2716
aVWICKET-3854
p2717
aVWICKET-3853
p2718
aVWICKET-3852
p2719
aVWICKET-3851
p2720
aVWICKET-3850
p2721
aVWICKET-3849
p2722
aVWICKET-3848
p2723
aVWICKET-3847
p2724
aVWICKET-3846
p2725
aVWICKET-3845
p2726
aVWICKET-3844
p2727
aVWICKET-3843
p2728
aVWICKET-3842
p2729
aVWICKET-3841
p2730
aVWICKET-3840
p2731
aVWICKET-3839
p2732
aVWICKET-3838
p2733
aVWICKET-3837
p2734
aVWICKET-3836
p2735
aVWICKET-3835
p2736
aVWICKET-3834
p2737
aVWICKET-3833
p2738
aVWICKET-3832
p2739
aVWICKET-3831
p2740
aVWICKET-3830
p2741
aVWICKET-3829
p2742
aVWICKET-3828
p2743
aVWICKET-3827
p2744
aVWICKET-3826
p2745
aVWICKET-3825
p2746
aVWICKET-3824
p2747
aVWICKET-3823
p2748
aVWICKET-3822
p2749
aVWICKET-3821
p2750
aVWICKET-3820
p2751
aVWICKET-3819
p2752
aVWICKET-3818
p2753
aVWICKET-3817
p2754
aVWICKET-3816
p2755
aVWICKET-3815
p2756
aVWICKET-3814
p2757
aVWICKET-3813
p2758
aVWICKET-3812
p2759
aVWICKET-3811
p2760
aVWICKET-3810
p2761
aVWICKET-3809
p2762
aVWICKET-3808
p2763
aVWICKET-3807
p2764
aVWICKET-3806
p2765
aVWICKET-3805
p2766
aVWICKET-3804
p2767
aVWICKET-3803
p2768
aVWICKET-3802
p2769
aVWICKET-3801
p2770
aVWICKET-3800
p2771
aVWICKET-3799
p2772
aVWICKET-3798
p2773
aVWICKET-3797
p2774
aVWICKET-3796
p2775
aVWICKET-3795
p2776
aVWICKET-3794
p2777
aVWICKET-3793
p2778
aVWICKET-3792
p2779
aVWICKET-3791
p2780
aVWICKET-3790
p2781
aVWICKET-3789
p2782
aVWICKET-3788
p2783
aVWICKET-3787
p2784
aVWICKET-3786
p2785
aVWICKET-3785
p2786
aVWICKET-3784
p2787
aVWICKET-3783
p2788
aVWICKET-3782
p2789
aVWICKET-3781
p2790
aVWICKET-3780
p2791
aVWICKET-3779
p2792
aVWICKET-3778
p2793
aVWICKET-3777
p2794
aVWICKET-3776
p2795
aVWICKET-3775
p2796
aVWICKET-3774
p2797
aVWICKET-3773
p2798
aVWICKET-3772
p2799
aVWICKET-3771
p2800
aVWICKET-3770
p2801
aVWICKET-3769
p2802
aVWICKET-3768
p2803
aVWICKET-3767
p2804
aVWICKET-3766
p2805
aVWICKET-3765
p2806
aVWICKET-3764
p2807
aVWICKET-3763
p2808
aVWICKET-3762
p2809
aVWICKET-3761
p2810
aVWICKET-3760
p2811
aVWICKET-3759
p2812
aVWICKET-3758
p2813
aVWICKET-3757
p2814
aVWICKET-3756
p2815
aVWICKET-3755
p2816
aVWICKET-3754
p2817
aVWICKET-3753
p2818
aVWICKET-3752
p2819
aVWICKET-3751
p2820
aVWICKET-3750
p2821
aVWICKET-3749
p2822
aVWICKET-3748
p2823
aVWICKET-3747
p2824
aVWICKET-3746
p2825
aVWICKET-3745
p2826
aVWICKET-3744
p2827
aVWICKET-3743
p2828
aVWICKET-3742
p2829
aVWICKET-3741
p2830
aVWICKET-3740
p2831
aVWICKET-3739
p2832
aVWICKET-3738
p2833
aVWICKET-3737
p2834
aVWICKET-3736
p2835
aVWICKET-3735
p2836
aVWICKET-3734
p2837
aVWICKET-3733
p2838
aVWICKET-3732
p2839
aVWICKET-3731
p2840
aVWICKET-3730
p2841
aVWICKET-3729
p2842
aVWICKET-3728
p2843
aVWICKET-3727
p2844
aVWICKET-3726
p2845
aVWICKET-3725
p2846
aVWICKET-3724
p2847
aVWICKET-3723
p2848
aVWICKET-3722
p2849
aVWICKET-3721
p2850
aVWICKET-3720
p2851
aVWICKET-3719
p2852
aVWICKET-3718
p2853
aVWICKET-3717
p2854
aVWICKET-3716
p2855
aVWICKET-3715
p2856
aVWICKET-3714
p2857
aVWICKET-3713
p2858
aVWICKET-3712
p2859
aVWICKET-3711
p2860
aVWICKET-3710
p2861
aVWICKET-3709
p2862
aVWICKET-3708
p2863
aVWICKET-3707
p2864
aVWICKET-3706
p2865
aVWICKET-3705
p2866
aVWICKET-3704
p2867
aVWICKET-3703
p2868
aVWICKET-3702
p2869
aVWICKET-3701
p2870
aVWICKET-3700
p2871
aVWICKET-3699
p2872
aVWICKET-3698
p2873
aVWICKET-3697
p2874
aVWICKET-3696
p2875
aVWICKET-3695
p2876
aVWICKET-3694
p2877
aVWICKET-3693
p2878
aVWICKET-3692
p2879
aVWICKET-3691
p2880
aVWICKET-3690
p2881
aVWICKET-3689
p2882
aVWICKET-3688
p2883
aVWICKET-3687
p2884
aVWICKET-3686
p2885
aVWICKET-3685
p2886
aVWICKET-3684
p2887
aVWICKET-3683
p2888
aVWICKET-3682
p2889
aVWICKET-3681
p2890
aVWICKET-3680
p2891
aVWICKET-3679
p2892
aVWICKET-3678
p2893
aVWICKET-3677
p2894
aVWICKET-3676
p2895
aVWICKET-3675
p2896
aVWICKET-3674
p2897
aVWICKET-3673
p2898
aVWICKET-3672
p2899
aVWICKET-3671
p2900
aVWICKET-3670
p2901
aVWICKET-3669
p2902
aVWICKET-3668
p2903
aVWICKET-3667
p2904
aVWICKET-3666
p2905
aVWICKET-3665
p2906
aVWICKET-3664
p2907
aVWICKET-3663
p2908
aVWICKET-3662
p2909
aVWICKET-3661
p2910
aVWICKET-3660
p2911
aVWICKET-3659
p2912
aVWICKET-3658
p2913
aVWICKET-3657
p2914
aVWICKET-3656
p2915
aVWICKET-3655
p2916
aVWICKET-3654
p2917
aVWICKET-3653
p2918
aVWICKET-3652
p2919
aVWICKET-3651
p2920
aVWICKET-3650
p2921
aVWICKET-3649
p2922
aVWICKET-3648
p2923
aVWICKET-3647
p2924
aVWICKET-3646
p2925
aVWICKET-3645
p2926
aVWICKET-3644
p2927
aVWICKET-3643
p2928
aVWICKET-3642
p2929
aVWICKET-3641
p2930
aVWICKET-3640
p2931
aVWICKET-3639
p2932
aVWICKET-3638
p2933
aVWICKET-3637
p2934
aVWICKET-3636
p2935
aVWICKET-3635
p2936
aVWICKET-3634
p2937
aVWICKET-3633
p2938
aVWICKET-3632
p2939
aVWICKET-3631
p2940
aVWICKET-3630
p2941
aVWICKET-3629
p2942
aVWICKET-3628
p2943
aVWICKET-3627
p2944
aVWICKET-3626
p2945
aVWICKET-3625
p2946
aVWICKET-3624
p2947
aVWICKET-3623
p2948
aVWICKET-3622
p2949
aVWICKET-3621
p2950
aVWICKET-3620
p2951
aVWICKET-3619
p2952
aVWICKET-3618
p2953
aVWICKET-3617
p2954
aVWICKET-3616
p2955
aVWICKET-3615
p2956
aVWICKET-3614
p2957
aVWICKET-3613
p2958
aVWICKET-3612
p2959
aVWICKET-3611
p2960
aVWICKET-3610
p2961
aVWICKET-3609
p2962
aVWICKET-3608
p2963
aVWICKET-3607
p2964
aVWICKET-3606
p2965
aVWICKET-3605
p2966
aVWICKET-3604
p2967
aVWICKET-3603
p2968
aVWICKET-3602
p2969
aVWICKET-3601
p2970
aVWICKET-3600
p2971
aVWICKET-3599
p2972
aVWICKET-3598
p2973
aVWICKET-3597
p2974
aVWICKET-3596
p2975
aVWICKET-3595
p2976
aVWICKET-3594
p2977
aVWICKET-3593
p2978
aVWICKET-3592
p2979
aVWICKET-3591
p2980
aVWICKET-3590
p2981
aVWICKET-3589
p2982
aVWICKET-3588
p2983
aVWICKET-3587
p2984
aVWICKET-3586
p2985
aVWICKET-3585
p2986
aVWICKET-3584
p2987
aVWICKET-3583
p2988
aVWICKET-3582
p2989
aVWICKET-3581
p2990
aVWICKET-3580
p2991
aVWICKET-3579
p2992
aVWICKET-3578
p2993
aVWICKET-3577
p2994
aVWICKET-3576
p2995
aVWICKET-3575
p2996
aVWICKET-3574
p2997
aVWICKET-3573
p2998
aVWICKET-3572
p2999
aVWICKET-3571
p3000
aVWICKET-3570
p3001
aVWICKET-3569
p3002
aVWICKET-3568
p3003
aVWICKET-3567
p3004
aVWICKET-3566
p3005
aVWICKET-3565
p3006
aVWICKET-3564
p3007
aVWICKET-3563
p3008
aVWICKET-3562
p3009
aVWICKET-3561
p3010
aVWICKET-3560
p3011
aVWICKET-3559
p3012
aVWICKET-3558
p3013
aVWICKET-3557
p3014
aVWICKET-3556
p3015
aVWICKET-3555
p3016
aVWICKET-3554
p3017
aVWICKET-3553
p3018
aVWICKET-3552
p3019
aVWICKET-3551
p3020
aVWICKET-3550
p3021
aVWICKET-3549
p3022
aVWICKET-3548
p3023
aVWICKET-3547
p3024
aVWICKET-3546
p3025
aVWICKET-3545
p3026
aVWICKET-3544
p3027
aVWICKET-3543
p3028
aVWICKET-3542
p3029
aVWICKET-3541
p3030
aVWICKET-3540
p3031
aVWICKET-3539
p3032
aVWICKET-3538
p3033
aVWICKET-3537
p3034
aVWICKET-3536
p3035
aVWICKET-3535
p3036
aVWICKET-3534
p3037
aVWICKET-3533
p3038
aVWICKET-3532
p3039
aVWICKET-3531
p3040
aVWICKET-3530
p3041
aVWICKET-3529
p3042
aVWICKET-3528
p3043
aVWICKET-3527
p3044
aVWICKET-3526
p3045
aVWICKET-3525
p3046
aVWICKET-3524
p3047
aVWICKET-3523
p3048
aVWICKET-3522
p3049
aVWICKET-3521
p3050
aVWICKET-3520
p3051
aVWICKET-3519
p3052
aVWICKET-3518
p3053
aVWICKET-3517
p3054
aVWICKET-3516
p3055
aVWICKET-3515
p3056
aVWICKET-3514
p3057
aVWICKET-3513
p3058
aVWICKET-3512
p3059
aVWICKET-3511
p3060
aVWICKET-3510
p3061
aVWICKET-3509
p3062
aVWICKET-3508
p3063
aVWICKET-3507
p3064
aVWICKET-3506
p3065
aVWICKET-3505
p3066
aVWICKET-3504
p3067
aVWICKET-3503
p3068
aVWICKET-3502
p3069
aVWICKET-3501
p3070
aVWICKET-3500
p3071
aVWICKET-3499
p3072
aVWICKET-3498
p3073
aVWICKET-3497
p3074
aVWICKET-3496
p3075
aVWICKET-3495
p3076
aVWICKET-3494
p3077
aVWICKET-3493
p3078
aVWICKET-3492
p3079
aVWICKET-3491
p3080
aVWICKET-3490
p3081
aVWICKET-3489
p3082
aVWICKET-3488
p3083
aVWICKET-3487
p3084
aVWICKET-3486
p3085
aVWICKET-3485
p3086
aVWICKET-3484
p3087
aVWICKET-3483
p3088
aVWICKET-3482
p3089
aVWICKET-3481
p3090
aVWICKET-3480
p3091
aVWICKET-3479
p3092
aVWICKET-3478
p3093
aVWICKET-3477
p3094
aVWICKET-3476
p3095
aVWICKET-3475
p3096
aVWICKET-3474
p3097
aVWICKET-3473
p3098
aVWICKET-3472
p3099
aVWICKET-3471
p3100
aVWICKET-3470
p3101
aVWICKET-3469
p3102
aVWICKET-3468
p3103
aVWICKET-3467
p3104
aVWICKET-3466
p3105
aVWICKET-3465
p3106
aVWICKET-3464
p3107
aVWICKET-3463
p3108
aVWICKET-3462
p3109
aVWICKET-3461
p3110
aVWICKET-3460
p3111
aVWICKET-3459
p3112
aVWICKET-3458
p3113
aVWICKET-3457
p3114
aVWICKET-3456
p3115
aVWICKET-3455
p3116
aVWICKET-3454
p3117
aVWICKET-3453
p3118
aVWICKET-3452
p3119
aVWICKET-3451
p3120
aVWICKET-3450
p3121
aVWICKET-3449
p3122
aVWICKET-3448
p3123
aVWICKET-3447
p3124
aVWICKET-3446
p3125
aVWICKET-3445
p3126
aVWICKET-3444
p3127
aVWICKET-3443
p3128
aVWICKET-3442
p3129
aVWICKET-3441
p3130
aVWICKET-3440
p3131
aVWICKET-3439
p3132
aVWICKET-3438
p3133
aVWICKET-3437
p3134
aVWICKET-3436
p3135
aVWICKET-3435
p3136
aVWICKET-3434
p3137
aVWICKET-3433
p3138
aVWICKET-3432
p3139
aVWICKET-3431
p3140
aVWICKET-3430
p3141
aVWICKET-3429
p3142
aVWICKET-3428
p3143
aVWICKET-3427
p3144
aVWICKET-3426
p3145
aVWICKET-3425
p3146
aVWICKET-3424
p3147
aVWICKET-3423
p3148
aVWICKET-3422
p3149
aVWICKET-3421
p3150
aVWICKET-3420
p3151
aVWICKET-3419
p3152
aVWICKET-3418
p3153
aVWICKET-3417
p3154
aVWICKET-3416
p3155
aVWICKET-3415
p3156
aVWICKET-3414
p3157
aVWICKET-3413
p3158
aVWICKET-3412
p3159
aVWICKET-3411
p3160
aVWICKET-3410
p3161
aVWICKET-3409
p3162
aVWICKET-3408
p3163
aVWICKET-3407
p3164
aVWICKET-3406
p3165
aVWICKET-3405
p3166
aVWICKET-3404
p3167
aVWICKET-3403
p3168
aVWICKET-3402
p3169
aVWICKET-3401
p3170
aVWICKET-3400
p3171
aVWICKET-3399
p3172
aVWICKET-3398
p3173
aVWICKET-3397
p3174
aVWICKET-3396
p3175
aVWICKET-3395
p3176
aVWICKET-3394
p3177
aVWICKET-3393
p3178
aVWICKET-3392
p3179
aVWICKET-3391
p3180
aVWICKET-3390
p3181
aVWICKET-3389
p3182
aVWICKET-3388
p3183
aVWICKET-3387
p3184
aVWICKET-3386
p3185
aVWICKET-3385
p3186
aVWICKET-3384
p3187
aVWICKET-3383
p3188
aVWICKET-3382
p3189
aVWICKET-3381
p3190
aVWICKET-3380
p3191
aVWICKET-3379
p3192
aVWICKET-3378
p3193
aVWICKET-3377
p3194
aVWICKET-3376
p3195
aVWICKET-3375
p3196
aVWICKET-3374
p3197
aVWICKET-3373
p3198
aVWICKET-3372
p3199
aVWICKET-3371
p3200
aVWICKET-3370
p3201
aVWICKET-3369
p3202
aVWICKET-3368
p3203
aVWICKET-3367
p3204
aVWICKET-3366
p3205
aVWICKET-3365
p3206
aVWICKET-3364
p3207
aVWICKET-3363
p3208
aVWICKET-3362
p3209
aVWICKET-3361
p3210
aVWICKET-3360
p3211
aVWICKET-3359
p3212
aVWICKET-3358
p3213
aVWICKET-3357
p3214
aVWICKET-3356
p3215
aVWICKET-3355
p3216
aVWICKET-3354
p3217
aVWICKET-3353
p3218
aVWICKET-3352
p3219
aVWICKET-3351
p3220
aVWICKET-3350
p3221
aVWICKET-3349
p3222
aVWICKET-3348
p3223
aVWICKET-3347
p3224
aVWICKET-3346
p3225
aVWICKET-3345
p3226
aVWICKET-3344
p3227
aVWICKET-3343
p3228
aVWICKET-3342
p3229
aVWICKET-3341
p3230
aVWICKET-3340
p3231
aVWICKET-3339
p3232
aVWICKET-3338
p3233
aVWICKET-3337
p3234
aVWICKET-3336
p3235
aVWICKET-3335
p3236
aVWICKET-3334
p3237
aVWICKET-3333
p3238
aVWICKET-3332
p3239
aVWICKET-3331
p3240
aVWICKET-3330
p3241
aVWICKET-3329
p3242
aVWICKET-3328
p3243
aVWICKET-3327
p3244
aVWICKET-3326
p3245
aVWICKET-3325
p3246
aVWICKET-3324
p3247
aVWICKET-3323
p3248
aVWICKET-3322
p3249
aVWICKET-3321
p3250
aVWICKET-3320
p3251
aVWICKET-3319
p3252
aVWICKET-3318
p3253
aVWICKET-3317
p3254
aVWICKET-3316
p3255
aVWICKET-3315
p3256
aVWICKET-3314
p3257
aVWICKET-3313
p3258
aVWICKET-3312
p3259
aVWICKET-3311
p3260
aVWICKET-3310
p3261
aVWICKET-3309
p3262
aVWICKET-3308
p3263
aVWICKET-3307
p3264
aVWICKET-3306
p3265
aVWICKET-3305
p3266
aVWICKET-3304
p3267
aVWICKET-3303
p3268
aVWICKET-3302
p3269
aVWICKET-3301
p3270
aVWICKET-3300
p3271
aVWICKET-3299
p3272
aVWICKET-3298
p3273
aVWICKET-3297
p3274
aVWICKET-3296
p3275
aVWICKET-3295
p3276
aVWICKET-3294
p3277
aVWICKET-3293
p3278
aVWICKET-3292
p3279
aVWICKET-3291
p3280
aVWICKET-3290
p3281
aVWICKET-3289
p3282
aVWICKET-3288
p3283
aVWICKET-3287
p3284
aVWICKET-3286
p3285
aVWICKET-3285
p3286
aVWICKET-3284
p3287
aVWICKET-3283
p3288
aVWICKET-3282
p3289
aVWICKET-3281
p3290
aVWICKET-3280
p3291
aVWICKET-3279
p3292
aVWICKET-3278
p3293
aVWICKET-3277
p3294
aVWICKET-3276
p3295
aVWICKET-3275
p3296
aVWICKET-3274
p3297
aVWICKET-3273
p3298
aVWICKET-3272
p3299
aVWICKET-3271
p3300
aVWICKET-3270
p3301
aVWICKET-3269
p3302
aVWICKET-3268
p3303
aVWICKET-3267
p3304
aVWICKET-3266
p3305
aVWICKET-3265
p3306
aVWICKET-3264
p3307
aVWICKET-3263
p3308
aVWICKET-3262
p3309
aVWICKET-3261
p3310
aVWICKET-3260
p3311
aVWICKET-3259
p3312
aVWICKET-3258
p3313
aVWICKET-3257
p3314
aVWICKET-3256
p3315
aVWICKET-3255
p3316
aVWICKET-3254
p3317
aVWICKET-3253
p3318
aVWICKET-3252
p3319
aVWICKET-3251
p3320
aVWICKET-3250
p3321
aVWICKET-3249
p3322
aVWICKET-3248
p3323
aVWICKET-3247
p3324
aVWICKET-3246
p3325
aVWICKET-3245
p3326
aVWICKET-3244
p3327
aVWICKET-3243
p3328
aVWICKET-3242
p3329
aVWICKET-3241
p3330
aVWICKET-3240
p3331
aVWICKET-3239
p3332
aVWICKET-3238
p3333
aVWICKET-3237
p3334
aVWICKET-3236
p3335
aVWICKET-3235
p3336
aVWICKET-3234
p3337
aVWICKET-3233
p3338
aVWICKET-3232
p3339
aVWICKET-3231
p3340
aVWICKET-3230
p3341
aVWICKET-3229
p3342
aVWICKET-3228
p3343
aVWICKET-3227
p3344
aVWICKET-3226
p3345
aVWICKET-3225
p3346
aVWICKET-3224
p3347
aVWICKET-3223
p3348
aVWICKET-3222
p3349
aVWICKET-3221
p3350
aVWICKET-3220
p3351
aVWICKET-3219
p3352
aVWICKET-3218
p3353
aVWICKET-3217
p3354
aVWICKET-3216
p3355
aVWICKET-3215
p3356
aVWICKET-3214
p3357
aVWICKET-3213
p3358
aVWICKET-3212
p3359
aVWICKET-3211
p3360
aVWICKET-3210
p3361
aVWICKET-3209
p3362
aVWICKET-3208
p3363
aVWICKET-3207
p3364
aVWICKET-3206
p3365
aVWICKET-3205
p3366
aVWICKET-3204
p3367
aVWICKET-3203
p3368
aVWICKET-3202
p3369
aVWICKET-3201
p3370
aVWICKET-3200
p3371
aVWICKET-3199
p3372
aVWICKET-3198
p3373
aVWICKET-3197
p3374
aVWICKET-3196
p3375
aVWICKET-3195
p3376
aVWICKET-3194
p3377
aVWICKET-3193
p3378
aVWICKET-3192
p3379
aVWICKET-3191
p3380
aVWICKET-3190
p3381
aVWICKET-3189
p3382
aVWICKET-3188
p3383
aVWICKET-3187
p3384
aVWICKET-3186
p3385
aVWICKET-3185
p3386
aVWICKET-3184
p3387
aVWICKET-3183
p3388
aVWICKET-3182
p3389
aVWICKET-3181
p3390
aVWICKET-3180
p3391
aVWICKET-3179
p3392
aVWICKET-3178
p3393
aVWICKET-3177
p3394
aVWICKET-3176
p3395
aVWICKET-3175
p3396
aVWICKET-3174
p3397
aVWICKET-3173
p3398
aVWICKET-3172
p3399
aVWICKET-3171
p3400
aVWICKET-3170
p3401
aVWICKET-3169
p3402
aVWICKET-3168
p3403
aVWICKET-3167
p3404
aVWICKET-3166
p3405
aVWICKET-3165
p3406
aVWICKET-3164
p3407
aVWICKET-3163
p3408
aVWICKET-3162
p3409
aVWICKET-3161
p3410
aVWICKET-3160
p3411
aVWICKET-3159
p3412
aVWICKET-3158
p3413
aVWICKET-3157
p3414
aVWICKET-3156
p3415
aVWICKET-3155
p3416
aVWICKET-3154
p3417
aVWICKET-3153
p3418
aVWICKET-3152
p3419
aVWICKET-3151
p3420
aVWICKET-3150
p3421
aVWICKET-3149
p3422
aVWICKET-3148
p3423
aVWICKET-3147
p3424
aVWICKET-3146
p3425
aVWICKET-3145
p3426
aVWICKET-3144
p3427
aVWICKET-3143
p3428
aVWICKET-3142
p3429
aVWICKET-3141
p3430
aVWICKET-3140
p3431
aVWICKET-3139
p3432
aVWICKET-3138
p3433
aVWICKET-3137
p3434
aVWICKET-3136
p3435
aVWICKET-3135
p3436
aVWICKET-3134
p3437
aVWICKET-3133
p3438
aVWICKET-3132
p3439
aVWICKET-3131
p3440
aVWICKET-3130
p3441
aVWICKET-3129
p3442
aVWICKET-3128
p3443
aVWICKET-3127
p3444
aVWICKET-3126
p3445
aVWICKET-3125
p3446
aVWICKET-3124
p3447
aVWICKET-3123
p3448
aVWICKET-3122
p3449
aVWICKET-3121
p3450
aVWICKET-3120
p3451
aVWICKET-3119
p3452
aVWICKET-3118
p3453
aVWICKET-3117
p3454
aVWICKET-3116
p3455
aVWICKET-3115
p3456
aVWICKET-3114
p3457
aVWICKET-3113
p3458
aVWICKET-3112
p3459
aVWICKET-3111
p3460
aVWICKET-3110
p3461
aVWICKET-3109
p3462
aVWICKET-3108
p3463
aVWICKET-3107
p3464
aVWICKET-3106
p3465
aVWICKET-3105
p3466
aVWICKET-3104
p3467
aVWICKET-3103
p3468
aVWICKET-3102
p3469
aVWICKET-3101
p3470
aVWICKET-3100
p3471
aVWICKET-3099
p3472
aVWICKET-3098
p3473
aVWICKET-3097
p3474
aVWICKET-3096
p3475
aVWICKET-3095
p3476
aVWICKET-3094
p3477
aVWICKET-3093
p3478
aVWICKET-3092
p3479
aVWICKET-3091
p3480
aVWICKET-3090
p3481
aVWICKET-3089
p3482
aVWICKET-3088
p3483
aVWICKET-3087
p3484
aVWICKET-3086
p3485
aVWICKET-3085
p3486
aVWICKET-3084
p3487
aVWICKET-3083
p3488
aVWICKET-3082
p3489
aVWICKET-3081
p3490
aVWICKET-3080
p3491
aVWICKET-3079
p3492
aVWICKET-3078
p3493
aVWICKET-3077
p3494
aVWICKET-3076
p3495
aVWICKET-3075
p3496
aVWICKET-3074
p3497
aVWICKET-3073
p3498
aVWICKET-3072
p3499
aVWICKET-3071
p3500
aVWICKET-3070
p3501
aVWICKET-3069
p3502
aVWICKET-3068
p3503
aVWICKET-3067
p3504
aVWICKET-3066
p3505
aVWICKET-3065
p3506
aVWICKET-3064
p3507
aVWICKET-3063
p3508
aVWICKET-3062
p3509
aVWICKET-3061
p3510
aVWICKET-3060
p3511
aVWICKET-3059
p3512
aVWICKET-3058
p3513
aVWICKET-3057
p3514
aVWICKET-3056
p3515
aVWICKET-3055
p3516
aVWICKET-3054
p3517
aVWICKET-3053
p3518
aVWICKET-3052
p3519
aVWICKET-3051
p3520
aVWICKET-3050
p3521
aVWICKET-3049
p3522
aVWICKET-3048
p3523
aVWICKET-3047
p3524
aVWICKET-3046
p3525
aVWICKET-3045
p3526
aVWICKET-3044
p3527
aVWICKET-3043
p3528
aVWICKET-3042
p3529
aVWICKET-3041
p3530
aVWICKET-3040
p3531
aVWICKET-3039
p3532
aVWICKET-3038
p3533
aVWICKET-3037
p3534
aVWICKET-3036
p3535
aVWICKET-3035
p3536
aVWICKET-3034
p3537
aVWICKET-3033
p3538
aVWICKET-3032
p3539
aVWICKET-3031
p3540
aVWICKET-3030
p3541
aVWICKET-3029
p3542
aVWICKET-3028
p3543
aVWICKET-3027
p3544
aVWICKET-3026
p3545
aVWICKET-3025
p3546
aVWICKET-3024
p3547
aVWICKET-3023
p3548
aVWICKET-3022
p3549
aVWICKET-3021
p3550
aVWICKET-3020
p3551
aVWICKET-3019
p3552
aVWICKET-3018
p3553
aVWICKET-3017
p3554
aVWICKET-3016
p3555
aVWICKET-3015
p3556
aVWICKET-3014
p3557
aVWICKET-3013
p3558
aVWICKET-3012
p3559
aVWICKET-3011
p3560
aVWICKET-3010
p3561
aVWICKET-3009
p3562
aVWICKET-3008
p3563
aVWICKET-3007
p3564
aVWICKET-3006
p3565
aVWICKET-3005
p3566
aVWICKET-3004
p3567
aVWICKET-3003
p3568
aVWICKET-3002
p3569
aVWICKET-3001
p3570
aVWICKET-3000
p3571
aVWICKET-2999
p3572
aVWICKET-2998
p3573
aVWICKET-2997
p3574
aVWICKET-2996
p3575
aVWICKET-2995
p3576
aVWICKET-2994
p3577
aVWICKET-2993
p3578
aVWICKET-2992
p3579
aVWICKET-2991
p3580
aVWICKET-2990
p3581
aVWICKET-2989
p3582
aVWICKET-2988
p3583
aVWICKET-2987
p3584
aVWICKET-2986
p3585
aVWICKET-2985
p3586
aVWICKET-2984
p3587
aVWICKET-2983
p3588
aVWICKET-2982
p3589
aVWICKET-2981
p3590
aVWICKET-2980
p3591
aVWICKET-2979
p3592
aVWICKET-2978
p3593
aVWICKET-2977
p3594
aVWICKET-2976
p3595
aVWICKET-2975
p3596
aVWICKET-2974
p3597
aVWICKET-2973
p3598
aVWICKET-2972
p3599
aVWICKET-2971
p3600
aVWICKET-2970
p3601
aVWICKET-2969
p3602
aVWICKET-2968
p3603
aVWICKET-2967
p3604
aVWICKET-2966
p3605
aVWICKET-2965
p3606
aVWICKET-2964
p3607
aVWICKET-2963
p3608
aVWICKET-2962
p3609
aVWICKET-2961
p3610
aVWICKET-2960
p3611
aVWICKET-2959
p3612
aVWICKET-2958
p3613
aVWICKET-2957
p3614
aVWICKET-2956
p3615
aVWICKET-2955
p3616
aVWICKET-2954
p3617
aVWICKET-2953
p3618
aVWICKET-2952
p3619
aVWICKET-2951
p3620
aVWICKET-2950
p3621
aVWICKET-2949
p3622
aVWICKET-2948
p3623
aVWICKET-2947
p3624
aVWICKET-2946
p3625
aVWICKET-2945
p3626
aVWICKET-2944
p3627
aVWICKET-2943
p3628
aVWICKET-2942
p3629
aVWICKET-2941
p3630
aVWICKET-2940
p3631
aVWICKET-2939
p3632
aVWICKET-2938
p3633
aVWICKET-2937
p3634
aVWICKET-2936
p3635
aVWICKET-2935
p3636
aVWICKET-2934
p3637
aVWICKET-2933
p3638
aVWICKET-2932
p3639
aVWICKET-2931
p3640
aVWICKET-2930
p3641
aVWICKET-2929
p3642
aVWICKET-2928
p3643
aVWICKET-2927
p3644
aVWICKET-2926
p3645
aVWICKET-2925
p3646
aVWICKET-2924
p3647
aVWICKET-2923
p3648
aVWICKET-2922
p3649
aVWICKET-2921
p3650
aVWICKET-2920
p3651
aVWICKET-2919
p3652
aVWICKET-2918
p3653
aVWICKET-2917
p3654
aVWICKET-2916
p3655
aVWICKET-2915
p3656
aVWICKET-2914
p3657
aVWICKET-2913
p3658
aVWICKET-2912
p3659
aVWICKET-2911
p3660
aVWICKET-2910
p3661
aVWICKET-2909
p3662
aVWICKET-2908
p3663
aVWICKET-2907
p3664
aVWICKET-2906
p3665
aVWICKET-2905
p3666
aVWICKET-2904
p3667
aVWICKET-2903
p3668
aVWICKET-2902
p3669
aVWICKET-2901
p3670
aVWICKET-2900
p3671
aVWICKET-2899
p3672
aVWICKET-2898
p3673
aVWICKET-2897
p3674
aVWICKET-2896
p3675
aVWICKET-2895
p3676
aVWICKET-2894
p3677
aVWICKET-2893
p3678
aVWICKET-2892
p3679
aVWICKET-2891
p3680
aVWICKET-2890
p3681
aVWICKET-2889
p3682
aVWICKET-2888
p3683
aVWICKET-2887
p3684
aVWICKET-2886
p3685
aVWICKET-2885
p3686
aVWICKET-2884
p3687
aVWICKET-2883
p3688
aVWICKET-2882
p3689
aVWICKET-2881
p3690
aVWICKET-2880
p3691
aVWICKET-2879
p3692
aVWICKET-2878
p3693
aVWICKET-2877
p3694
aVWICKET-2876
p3695
aVWICKET-2875
p3696
aVWICKET-2874
p3697
aVWICKET-2873
p3698
aVWICKET-2872
p3699
aVWICKET-2871
p3700
aVWICKET-2870
p3701
aVWICKET-2869
p3702
aVWICKET-2868
p3703
aVWICKET-2867
p3704
aVWICKET-2866
p3705
aVWICKET-2865
p3706
aVWICKET-2864
p3707
aVWICKET-2863
p3708
aVWICKET-2862
p3709
aVWICKET-2861
p3710
aVWICKET-2860
p3711
aVWICKET-2859
p3712
aVWICKET-2858
p3713
aVWICKET-2857
p3714
aVWICKET-2856
p3715
aVWICKET-2855
p3716
aVWICKET-2854
p3717
aVWICKET-2853
p3718
aVWICKET-2852
p3719
aVWICKET-2851
p3720
aVWICKET-2850
p3721
aVWICKET-2849
p3722
aVWICKET-2848
p3723
aVWICKET-2847
p3724
aVWICKET-2846
p3725
aVWICKET-2845
p3726
aVWICKET-2844
p3727
aVWICKET-2843
p3728
aVWICKET-2842
p3729
aVWICKET-2841
p3730
aVWICKET-2840
p3731
aVWICKET-2839
p3732
aVWICKET-2838
p3733
aVWICKET-2837
p3734
aVWICKET-2836
p3735
aVWICKET-2835
p3736
aVWICKET-2834
p3737
aVWICKET-2833
p3738
aVWICKET-2832
p3739
aVWICKET-2831
p3740
aVWICKET-2830
p3741
aVWICKET-2829
p3742
aVWICKET-2828
p3743
aVWICKET-2827
p3744
aVWICKET-2826
p3745
aVWICKET-2825
p3746
aVWICKET-2824
p3747
aVWICKET-2823
p3748
aVWICKET-2822
p3749
aVWICKET-2821
p3750
aVWICKET-2820
p3751
aVWICKET-2819
p3752
aVWICKET-2818
p3753
aVWICKET-2817
p3754
aVWICKET-2816
p3755
aVWICKET-2815
p3756
aVWICKET-2814
p3757
aVWICKET-2813
p3758
aVWICKET-2812
p3759
aVWICKET-2811
p3760
aVWICKET-2810
p3761
aVWICKET-2809
p3762
aVWICKET-2808
p3763
aVWICKET-2807
p3764
aVWICKET-2806
p3765
aVWICKET-2805
p3766
aVWICKET-2804
p3767
aVWICKET-2803
p3768
aVWICKET-2802
p3769
aVWICKET-2801
p3770
aVWICKET-2800
p3771
aVWICKET-2799
p3772
aVWICKET-2798
p3773
aVWICKET-2797
p3774
aVWICKET-2796
p3775
aVWICKET-2795
p3776
aVWICKET-2794
p3777
aVWICKET-2793
p3778
aVWICKET-2792
p3779
aVWICKET-2791
p3780
aVWICKET-2790
p3781
aVWICKET-2789
p3782
aVWICKET-2788
p3783
aVWICKET-2787
p3784
aVWICKET-2786
p3785
aVWICKET-2785
p3786
aVWICKET-2784
p3787
aVWICKET-2783
p3788
aVWICKET-2782
p3789
aVWICKET-2781
p3790
aVWICKET-2780
p3791
aVWICKET-2779
p3792
aVWICKET-2778
p3793
aVWICKET-2777
p3794
aVWICKET-2776
p3795
aVWICKET-2775
p3796
aVWICKET-2774
p3797
aVWICKET-2773
p3798
aVWICKET-2772
p3799
aVWICKET-2771
p3800
aVWICKET-2770
p3801
aVWICKET-2769
p3802
aVWICKET-2768
p3803
aVWICKET-2767
p3804
aVWICKET-2766
p3805
aVWICKET-2765
p3806
aVWICKET-2764
p3807
aVWICKET-2763
p3808
aVWICKET-2762
p3809
aVWICKET-2761
p3810
aVWICKET-2760
p3811
aVWICKET-2759
p3812
aVWICKET-2758
p3813
aVWICKET-2757
p3814
aVWICKET-2756
p3815
aVWICKET-2755
p3816
aVWICKET-2754
p3817
aVWICKET-2753
p3818
aVWICKET-2752
p3819
aVWICKET-2751
p3820
aVWICKET-2750
p3821
aVWICKET-2749
p3822
aVWICKET-2748
p3823
aVWICKET-2747
p3824
aVWICKET-2746
p3825
aVWICKET-2745
p3826
aVWICKET-2744
p3827
aVWICKET-2743
p3828
aVWICKET-2742
p3829
aVWICKET-2741
p3830
aVWICKET-2740
p3831
aVWICKET-2739
p3832
aVWICKET-2738
p3833
aVWICKET-2737
p3834
aVWICKET-2736
p3835
aVWICKET-2735
p3836
aVWICKET-2734
p3837
aVWICKET-2733
p3838
aVWICKET-2732
p3839
aVWICKET-2731
p3840
aVWICKET-2730
p3841
aVWICKET-2729
p3842
aVWICKET-2728
p3843
aVWICKET-2727
p3844
aVWICKET-2726
p3845
aVWICKET-2725
p3846
aVWICKET-2724
p3847
aVWICKET-2723
p3848
aVWICKET-2722
p3849
aVWICKET-2721
p3850
aVWICKET-2720
p3851
aVWICKET-2719
p3852
aVWICKET-2718
p3853
aVWICKET-2717
p3854
aVWICKET-2716
p3855
aVWICKET-2715
p3856
aVWICKET-2714
p3857
aVWICKET-2713
p3858
aVWICKET-2712
p3859
aVWICKET-2711
p3860
aVWICKET-2710
p3861
aVWICKET-2709
p3862
aVWICKET-2708
p3863
aVWICKET-2707
p3864
aVWICKET-2706
p3865
aVWICKET-2705
p3866
aVWICKET-2704
p3867
aVWICKET-2703
p3868
aVWICKET-2702
p3869
aVWICKET-2701
p3870
aVWICKET-2700
p3871
aVWICKET-2699
p3872
aVWICKET-2698
p3873
aVWICKET-2697
p3874
aVWICKET-2696
p3875
aVWICKET-2695
p3876
aVWICKET-2694
p3877
aVWICKET-2693
p3878
aVWICKET-2692
p3879
aVWICKET-2691
p3880
aVWICKET-2690
p3881
aVWICKET-2689
p3882
aVWICKET-2688
p3883
aVWICKET-2687
p3884
aVWICKET-2686
p3885
aVWICKET-2685
p3886
aVWICKET-2684
p3887
aVWICKET-2683
p3888
aVWICKET-2682
p3889
aVWICKET-2681
p3890
aVWICKET-2680
p3891
aVWICKET-2679
p3892
aVWICKET-2678
p3893
aVWICKET-2677
p3894
aVWICKET-2676
p3895
aVWICKET-2675
p3896
aVWICKET-2674
p3897
aVWICKET-2673
p3898
aVWICKET-2672
p3899
aVWICKET-2671
p3900
aVWICKET-2670
p3901
aVWICKET-2669
p3902
aVWICKET-2668
p3903
aVWICKET-2667
p3904
aVWICKET-2666
p3905
aVWICKET-2665
p3906
aVWICKET-2664
p3907
aVWICKET-2663
p3908
aVWICKET-2662
p3909
aVWICKET-2661
p3910
aVWICKET-2660
p3911
aVWICKET-2659
p3912
aVWICKET-2658
p3913
aVWICKET-2657
p3914
aVWICKET-2656
p3915
aVWICKET-2655
p3916
aVWICKET-2654
p3917
aVWICKET-2653
p3918
aVWICKET-2652
p3919
aVWICKET-2651
p3920
aVWICKET-2650
p3921
aVWICKET-2649
p3922
aVWICKET-2648
p3923
aVWICKET-2647
p3924
aVWICKET-2646
p3925
aVWICKET-2645
p3926
aVWICKET-2644
p3927
aVWICKET-2643
p3928
aVWICKET-2642
p3929
aVWICKET-2641
p3930
aVWICKET-2640
p3931
aVWICKET-2639
p3932
aVWICKET-2638
p3933
aVWICKET-2637
p3934
aVWICKET-2636
p3935
aVWICKET-2635
p3936
aVWICKET-2634
p3937
aVWICKET-2633
p3938
aVWICKET-2632
p3939
aVWICKET-2631
p3940
aVWICKET-2630
p3941
aVWICKET-2629
p3942
aVWICKET-2628
p3943
aVWICKET-2627
p3944
aVWICKET-2626
p3945
aVWICKET-2625
p3946
aVWICKET-2624
p3947
aVWICKET-2623
p3948
aVWICKET-2622
p3949
aVWICKET-2621
p3950
aVWICKET-2620
p3951
aVWICKET-2619
p3952
aVWICKET-2618
p3953
aVWICKET-2617
p3954
aVWICKET-2616
p3955
aVWICKET-2615
p3956
aVWICKET-2614
p3957
aVWICKET-2613
p3958
aVWICKET-2612
p3959
aVWICKET-2611
p3960
aVWICKET-2610
p3961
aVWICKET-2609
p3962
aVWICKET-2608
p3963
aVWICKET-2607
p3964
aVWICKET-2606
p3965
aVWICKET-2605
p3966
aVWICKET-2604
p3967
aVWICKET-2603
p3968
aVWICKET-2602
p3969
aVWICKET-2601
p3970
aVWICKET-2600
p3971
aVWICKET-2599
p3972
aVWICKET-2598
p3973
aVWICKET-2597
p3974
aVWICKET-2596
p3975
aVWICKET-2595
p3976
aVWICKET-2594
p3977
aVWICKET-2593
p3978
aVWICKET-2592
p3979
aVWICKET-2591
p3980
aVWICKET-2590
p3981
aVWICKET-2589
p3982
aVWICKET-2588
p3983
aVWICKET-2587
p3984
aVWICKET-2586
p3985
aVWICKET-2585
p3986
aVWICKET-2584
p3987
aVWICKET-2583
p3988
aVWICKET-2582
p3989
aVWICKET-2581
p3990
aVWICKET-2580
p3991
aVWICKET-2579
p3992
aVWICKET-2578
p3993
aVWICKET-2577
p3994
aVWICKET-2576
p3995
aVWICKET-2575
p3996
aVWICKET-2574
p3997
aVWICKET-2573
p3998
aVWICKET-2572
p3999
aVWICKET-2571
p4000
aVWICKET-2570
p4001
aVWICKET-2569
p4002
aVWICKET-2568
p4003
aVWICKET-2567
p4004
aVWICKET-2566
p4005
aVWICKET-2565
p4006
aVWICKET-2564
p4007
aVWICKET-2563
p4008
aVWICKET-2562
p4009
aVWICKET-2561
p4010
aVWICKET-2560
p4011
aVWICKET-2559
p4012
aVWICKET-2558
p4013
aVWICKET-2557
p4014
aVWICKET-2556
p4015
aVWICKET-2555
p4016
aVWICKET-2554
p4017
aVWICKET-2553
p4018
aVWICKET-2552
p4019
aVWICKET-2551
p4020
aVWICKET-2550
p4021
aVWICKET-2549
p4022
aVWICKET-2548
p4023
aVWICKET-2547
p4024
aVWICKET-2546
p4025
aVWICKET-2545
p4026
aVWICKET-2544
p4027
aVWICKET-2543
p4028
aVWICKET-2542
p4029
aVWICKET-2541
p4030
aVWICKET-2540
p4031
aVWICKET-2539
p4032
aVWICKET-2538
p4033
aVWICKET-2537
p4034
aVWICKET-2536
p4035
aVWICKET-2535
p4036
aVWICKET-2534
p4037
aVWICKET-2533
p4038
aVWICKET-2532
p4039
aVWICKET-2531
p4040
aVWICKET-2530
p4041
aVWICKET-2529
p4042
aVWICKET-2528
p4043
aVWICKET-2527
p4044
aVWICKET-2526
p4045
aVWICKET-2525
p4046
aVWICKET-2524
p4047
aVWICKET-2523
p4048
aVWICKET-2522
p4049
aVWICKET-2521
p4050
aVWICKET-2520
p4051
aVWICKET-2519
p4052
aVWICKET-2518
p4053
aVWICKET-2517
p4054
aVWICKET-2516
p4055
aVWICKET-2515
p4056
aVWICKET-2514
p4057
aVWICKET-2513
p4058
aVWICKET-2512
p4059
aVWICKET-2511
p4060
aVWICKET-2510
p4061
aVWICKET-2509
p4062
aVWICKET-2508
p4063
aVWICKET-2507
p4064
aVWICKET-2506
p4065
aVWICKET-2505
p4066
aVWICKET-2504
p4067
aVWICKET-2503
p4068
aVWICKET-2502
p4069
aVWICKET-2501
p4070
aVWICKET-2500
p4071
aVWICKET-2499
p4072
aVWICKET-2498
p4073
aVWICKET-2497
p4074
aVWICKET-2496
p4075
aVWICKET-2495
p4076
aVWICKET-2494
p4077
aVWICKET-2493
p4078
aVWICKET-2492
p4079
aVWICKET-2491
p4080
aVWICKET-2490
p4081
aVWICKET-2489
p4082
aVWICKET-2488
p4083
aVWICKET-2487
p4084
aVWICKET-2486
p4085
aVWICKET-2485
p4086
aVWICKET-2484
p4087
aVWICKET-2483
p4088
aVWICKET-2482
p4089
aVWICKET-2481
p4090
aVWICKET-2480
p4091
aVWICKET-2479
p4092
aVWICKET-2478
p4093
aVWICKET-2477
p4094
aVWICKET-2476
p4095
aVWICKET-2475
p4096
aVWICKET-2474
p4097
aVWICKET-2473
p4098
aVWICKET-2472
p4099
aVWICKET-2471
p4100
aVWICKET-2470
p4101
aVWICKET-2469
p4102
aVWICKET-2468
p4103
aVWICKET-2467
p4104
aVWICKET-2466
p4105
aVWICKET-2465
p4106
aVWICKET-2464
p4107
aVWICKET-2463
p4108
aVWICKET-2462
p4109
aVWICKET-2461
p4110
aVWICKET-2459
p4111
aVWICKET-2458
p4112
aVWICKET-2457
p4113
aVWICKET-2456
p4114
aVWICKET-2455
p4115
aVWICKET-2454
p4116
aVWICKET-2453
p4117
aVWICKET-2452
p4118
aVWICKET-2451
p4119
aVWICKET-2450
p4120
aVWICKET-2449
p4121
aVWICKET-2448
p4122
aVWICKET-2447
p4123
aVWICKET-2446
p4124
aVWICKET-2445
p4125
aVWICKET-2444
p4126
aVWICKET-2443
p4127
aVWICKET-2442
p4128
aVWICKET-2441
p4129
aVWICKET-2440
p4130
aVWICKET-2439
p4131
aVWICKET-2438
p4132
aVWICKET-2437
p4133
aVWICKET-2436
p4134
aVWICKET-2435
p4135
aVWICKET-2434
p4136
aVWICKET-2433
p4137
aVWICKET-2432
p4138
aVWICKET-2431
p4139
aVWICKET-2430
p4140
aVWICKET-2429
p4141
aVWICKET-2428
p4142
aVWICKET-2427
p4143
aVWICKET-2426
p4144
aVWICKET-2425
p4145
aVWICKET-2424
p4146
aVWICKET-2423
p4147
aVWICKET-2422
p4148
aVWICKET-2421
p4149
aVWICKET-2420
p4150
aVWICKET-2419
p4151
aVWICKET-2418
p4152
aVWICKET-2417
p4153
aVWICKET-2416
p4154
aVWICKET-2415
p4155
aVWICKET-2414
p4156
aVWICKET-2413
p4157
aVWICKET-2412
p4158
aVWICKET-2411
p4159
aVWICKET-2410
p4160
aVWICKET-2409
p4161
aVWICKET-2408
p4162
aVWICKET-2407
p4163
aVWICKET-2406
p4164
aVWICKET-2405
p4165
aVWICKET-2404
p4166
aVWICKET-2403
p4167
aVWICKET-2402
p4168
aVWICKET-2401
p4169
aVWICKET-2400
p4170
aVWICKET-2399
p4171
aVWICKET-2398
p4172
aVWICKET-2397
p4173
aVWICKET-2396
p4174
aVWICKET-2395
p4175
aVWICKET-2394
p4176
aVWICKET-2393
p4177
aVWICKET-2392
p4178
aVWICKET-2391
p4179
aVWICKET-2390
p4180
aVWICKET-2389
p4181
aVWICKET-2388
p4182
aVWICKET-2387
p4183
aVWICKET-2386
p4184
aVWICKET-2385
p4185
aVWICKET-2384
p4186
aVWICKET-2383
p4187
aVWICKET-2382
p4188
aVWICKET-2381
p4189
aVWICKET-2380
p4190
aVWICKET-2379
p4191
aVWICKET-2378
p4192
aVWICKET-2377
p4193
aVWICKET-2376
p4194
aVWICKET-2375
p4195
aVWICKET-2374
p4196
aVWICKET-2373
p4197
aVWICKET-2372
p4198
aVWICKET-2371
p4199
aVWICKET-2370
p4200
aVWICKET-2369
p4201
aVWICKET-2368
p4202
aVWICKET-2367
p4203
aVWICKET-2366
p4204
aVWICKET-2365
p4205
aVWICKET-2364
p4206
aVWICKET-2363
p4207
aVWICKET-2362
p4208
aVWICKET-2361
p4209
aVWICKET-2360
p4210
aVWICKET-2359
p4211
aVWICKET-2358
p4212
aVWICKET-2357
p4213
aVWICKET-2356
p4214
aVWICKET-2355
p4215
aVWICKET-2354
p4216
aVWICKET-2353
p4217
aVWICKET-2352
p4218
aVWICKET-2351
p4219
aVWICKET-2350
p4220
aVWICKET-2349
p4221
aVWICKET-2348
p4222
aVWICKET-2347
p4223
aVWICKET-2346
p4224
aVWICKET-2345
p4225
aVWICKET-2344
p4226
aVWICKET-2343
p4227
aVWICKET-2342
p4228
aVWICKET-2341
p4229
aVWICKET-2340
p4230
aVWICKET-2339
p4231
aVWICKET-2338
p4232
aVWICKET-2337
p4233
aVWICKET-2336
p4234
aVWICKET-2335
p4235
aVWICKET-2334
p4236
aVWICKET-2333
p4237
aVWICKET-2332
p4238
aVWICKET-2331
p4239
aVWICKET-2330
p4240
aVWICKET-2329
p4241
aVWICKET-2328
p4242
aVWICKET-2327
p4243
aVWICKET-2326
p4244
aVWICKET-2325
p4245
aVWICKET-2324
p4246
aVWICKET-2323
p4247
aVWICKET-2322
p4248
aVWICKET-2321
p4249
aVWICKET-2320
p4250
aVWICKET-2319
p4251
aVWICKET-2318
p4252
aVWICKET-2317
p4253
aVWICKET-2316
p4254
aVWICKET-2315
p4255
aVWICKET-2314
p4256
aVWICKET-2313
p4257
aVWICKET-2312
p4258
aVWICKET-2311
p4259
aVWICKET-2310
p4260
aVWICKET-2309
p4261
aVWICKET-2308
p4262
aVWICKET-2307
p4263
aVWICKET-2306
p4264
aVWICKET-2305
p4265
aVWICKET-2304
p4266
aVWICKET-2303
p4267
aVWICKET-2302
p4268
aVWICKET-2301
p4269
aVWICKET-2300
p4270
aVWICKET-2299
p4271
aVWICKET-2298
p4272
aVWICKET-2297
p4273
aVWICKET-2296
p4274
aVWICKET-2295
p4275
aVWICKET-2294
p4276
aVWICKET-2293
p4277
aVWICKET-2292
p4278
aVWICKET-2291
p4279
aVWICKET-2290
p4280
aVWICKET-2289
p4281
aVWICKET-2288
p4282
aVWICKET-2287
p4283
aVWICKET-2286
p4284
aVWICKET-2285
p4285
aVWICKET-2284
p4286
aVWICKET-2283
p4287
aVWICKET-2282
p4288
aVWICKET-2281
p4289
aVWICKET-2280
p4290
aVWICKET-2279
p4291
aVWICKET-2278
p4292
aVWICKET-2277
p4293
aVWICKET-2276
p4294
aVWICKET-2275
p4295
aVWICKET-2274
p4296
aVWICKET-2273
p4297
aVWICKET-2272
p4298
aVWICKET-2271
p4299
aVWICKET-2270
p4300
aVWICKET-2269
p4301
aVWICKET-2268
p4302
aVWICKET-2267
p4303
aVWICKET-2266
p4304
aVWICKET-2265
p4305
aVWICKET-2264
p4306
aVWICKET-2263
p4307
aVWICKET-2262
p4308
aVWICKET-2261
p4309
aVWICKET-2260
p4310
aVWICKET-2259
p4311
aVWICKET-2258
p4312
aVWICKET-2257
p4313
aVWICKET-2256
p4314
aVWICKET-2255
p4315
aVWICKET-2254
p4316
aVWICKET-2253
p4317
aVWICKET-2252
p4318
aVWICKET-2251
p4319
aVWICKET-2250
p4320
aVWICKET-2249
p4321
aVWICKET-2248
p4322
aVWICKET-2247
p4323
aVWICKET-2246
p4324
aVWICKET-2245
p4325
aVWICKET-2244
p4326
aVWICKET-2243
p4327
aVWICKET-2242
p4328
aVWICKET-2241
p4329
aVWICKET-2240
p4330
aVWICKET-2239
p4331
aVWICKET-2238
p4332
aVWICKET-2237
p4333
aVWICKET-2236
p4334
aVWICKET-2235
p4335
aVWICKET-2234
p4336
aVWICKET-2233
p4337
aVWICKET-2232
p4338
aVWICKET-2231
p4339
aVWICKET-2230
p4340
aVWICKET-2229
p4341
aVWICKET-2228
p4342
aVWICKET-2227
p4343
aVWICKET-2226
p4344
aVWICKET-2225
p4345
aVWICKET-2224
p4346
aVWICKET-2223
p4347
aVWICKET-2222
p4348
aVWICKET-2221
p4349
aVWICKET-2220
p4350
aVWICKET-2219
p4351
aVWICKET-2218
p4352
aVWICKET-2217
p4353
aVWICKET-2216
p4354
aVWICKET-2215
p4355
aVWICKET-2214
p4356
aVWICKET-2213
p4357
aVWICKET-2212
p4358
aVWICKET-2211
p4359
aVWICKET-2210
p4360
aVWICKET-2209
p4361
aVWICKET-2208
p4362
aVWICKET-2207
p4363
aVWICKET-2206
p4364
aVWICKET-2205
p4365
aVWICKET-2204
p4366
aVWICKET-2203
p4367
aVWICKET-2202
p4368
aVWICKET-2201
p4369
aVWICKET-2200
p4370
aVWICKET-2199
p4371
aVWICKET-2198
p4372
aVWICKET-2197
p4373
aVWICKET-2196
p4374
aVWICKET-2195
p4375
aVWICKET-2194
p4376
aVWICKET-2193
p4377
aVWICKET-2192
p4378
aVWICKET-2191
p4379
aVWICKET-2190
p4380
aVWICKET-2189
p4381
aVWICKET-2188
p4382
aVWICKET-2187
p4383
aVWICKET-2186
p4384
aVWICKET-2185
p4385
aVWICKET-2184
p4386
aVWICKET-2183
p4387
aVWICKET-2182
p4388
aVWICKET-2181
p4389
aVWICKET-2180
p4390
aVWICKET-2179
p4391
aVWICKET-2178
p4392
aVWICKET-2177
p4393
aVWICKET-2176
p4394
aVWICKET-2175
p4395
aVWICKET-2174
p4396
aVWICKET-2173
p4397
aVWICKET-2172
p4398
aVWICKET-2171
p4399
aVWICKET-2170
p4400
aVWICKET-2169
p4401
aVWICKET-2168
p4402
aVWICKET-2167
p4403
aVWICKET-2166
p4404
aVWICKET-2165
p4405
aVWICKET-2164
p4406
aVWICKET-2163
p4407
aVWICKET-2162
p4408
aVWICKET-2161
p4409
aVWICKET-2160
p4410
aVWICKET-2159
p4411
aVWICKET-2158
p4412
aVWICKET-2157
p4413
aVWICKET-2156
p4414
aVWICKET-2155
p4415
aVWICKET-2154
p4416
aVWICKET-2153
p4417
aVWICKET-2152
p4418
aVWICKET-2151
p4419
aVWICKET-2150
p4420
aVWICKET-2149
p4421
aVWICKET-2148
p4422
aVWICKET-2147
p4423
aVWICKET-2146
p4424
aVWICKET-2145
p4425
aVWICKET-2144
p4426
aVWICKET-2143
p4427
aVWICKET-2142
p4428
aVWICKET-2141
p4429
aVWICKET-2140
p4430
aVWICKET-2139
p4431
aVWICKET-2138
p4432
aVWICKET-2137
p4433
aVWICKET-2136
p4434
aVWICKET-2135
p4435
aVWICKET-2134
p4436
aVWICKET-2133
p4437
aVWICKET-2132
p4438
aVWICKET-2131
p4439
aVWICKET-2130
p4440
aVWICKET-2129
p4441
aVWICKET-2128
p4442
aVWICKET-2127
p4443
aVWICKET-2126
p4444
aVWICKET-2125
p4445
aVWICKET-2124
p4446
aVWICKET-2123
p4447
aVWICKET-2122
p4448
aVWICKET-2121
p4449
aVWICKET-2120
p4450
aVWICKET-2119
p4451
aVWICKET-2118
p4452
aVWICKET-2117
p4453
aVWICKET-2116
p4454
aVWICKET-2115
p4455
aVWICKET-2114
p4456
aVWICKET-2113
p4457
aVWICKET-2112
p4458
aVWICKET-2111
p4459
aVWICKET-2110
p4460
aVWICKET-2109
p4461
aVWICKET-2108
p4462
aVWICKET-2107
p4463
aVWICKET-2106
p4464
aVWICKET-2105
p4465
aVWICKET-2104
p4466
aVWICKET-2103
p4467
aVWICKET-2102
p4468
aVWICKET-2101
p4469
aVWICKET-2100
p4470
aVWICKET-2099
p4471
aVWICKET-2098
p4472
aVWICKET-2097
p4473
aVWICKET-2096
p4474
aVWICKET-2095
p4475
aVWICKET-2094
p4476
aVWICKET-2093
p4477
aVWICKET-2092
p4478
aVWICKET-2091
p4479
aVWICKET-2090
p4480
aVWICKET-2089
p4481
aVWICKET-2088
p4482
aVWICKET-2087
p4483
aVWICKET-2086
p4484
aVWICKET-2085
p4485
aVWICKET-2084
p4486
aVWICKET-2083
p4487
aVWICKET-2082
p4488
aVWICKET-2081
p4489
aVWICKET-2080
p4490
aVWICKET-2079
p4491
aVWICKET-2078
p4492
aVWICKET-2077
p4493
aVWICKET-2076
p4494
aVWICKET-2075
p4495
aVWICKET-2074
p4496
aVWICKET-2073
p4497
aVWICKET-2072
p4498
aVWICKET-2071
p4499
aVWICKET-2070
p4500
aVWICKET-2069
p4501
aVWICKET-2068
p4502
aVWICKET-2067
p4503
aVWICKET-2066
p4504
aVWICKET-2065
p4505
aVWICKET-2064
p4506
aVWICKET-2063
p4507
aVWICKET-2062
p4508
aVWICKET-2061
p4509
aVWICKET-2060
p4510
aVWICKET-2059
p4511
aVWICKET-2058
p4512
aVWICKET-2057
p4513
aVWICKET-2056
p4514
aVWICKET-2055
p4515
aVWICKET-2054
p4516
aVWICKET-2053
p4517
aVWICKET-2052
p4518
aVWICKET-2051
p4519
aVWICKET-2050
p4520
aVWICKET-2049
p4521
aVWICKET-2048
p4522
aVWICKET-2047
p4523
aVWICKET-2046
p4524
aVWICKET-2045
p4525
aVWICKET-2044
p4526
aVWICKET-2043
p4527
aVWICKET-2042
p4528
aVWICKET-2041
p4529
aVWICKET-2040
p4530
aVWICKET-2039
p4531
aVWICKET-2038
p4532
aVWICKET-2037
p4533
aVWICKET-2036
p4534
aVWICKET-2035
p4535
aVWICKET-2034
p4536
aVWICKET-2033
p4537
aVWICKET-2032
p4538
aVWICKET-2031
p4539
aVWICKET-2030
p4540
aVWICKET-2029
p4541
aVWICKET-2028
p4542
aVWICKET-2027
p4543
aVWICKET-2026
p4544
aVWICKET-2025
p4545
aVWICKET-2024
p4546
aVWICKET-2023
p4547
aVWICKET-2022
p4548
aVWICKET-2021
p4549
aVWICKET-2020
p4550
aVWICKET-2019
p4551
aVWICKET-2018
p4552
aVWICKET-2017
p4553
aVWICKET-2016
p4554
aVWICKET-2015
p4555
aVWICKET-2014
p4556
aVWICKET-2013
p4557
aVWICKET-2012
p4558
aVWICKET-2011
p4559
aVWICKET-2010
p4560
aVWICKET-2009
p4561
aVWICKET-2008
p4562
aVWICKET-2007
p4563
aVWICKET-2006
p4564
aVWICKET-2005
p4565
aVWICKET-2004
p4566
aVWICKET-2003
p4567
aVWICKET-2002
p4568
aVWICKET-2001
p4569
aVWICKET-2000
p4570
aVWICKET-1999
p4571
aVWICKET-1998
p4572
aVWICKET-1997
p4573
aVWICKET-1996
p4574
aVWICKET-1995
p4575
aVWICKET-1994
p4576
aVWICKET-1993
p4577
aVWICKET-1992
p4578
aVWICKET-1991
p4579
aVWICKET-1990
p4580
aVWICKET-1989
p4581
aVWICKET-1988
p4582
aVWICKET-1987
p4583
aVWICKET-1986
p4584
aVWICKET-1985
p4585
aVWICKET-1984
p4586
aVWICKET-1983
p4587
aVWICKET-1982
p4588
aVWICKET-1981
p4589
aVWICKET-1980
p4590
aVWICKET-1979
p4591
aVWICKET-1978
p4592
aVWICKET-1977
p4593
aVWICKET-1976
p4594
aVWICKET-1975
p4595
aVWICKET-1974
p4596
aVWICKET-1973
p4597
aVWICKET-1972
p4598
aVWICKET-1971
p4599
aVWICKET-1970
p4600
aVWICKET-1969
p4601
aVWICKET-1968
p4602
aVWICKET-1967
p4603
aVWICKET-1966
p4604
aVWICKET-1965
p4605
aVWICKET-1964
p4606
aVWICKET-1963
p4607
aVWICKET-1962
p4608
aVWICKET-1961
p4609
aVWICKET-1960
p4610
aVWICKET-1959
p4611
aVWICKET-1958
p4612
aVWICKET-1957
p4613
aVWICKET-1956
p4614
aVWICKET-1955
p4615
aVWICKET-1954
p4616
aVWICKET-1953
p4617
aVWICKET-1952
p4618
aVWICKET-1951
p4619
aVWICKET-1950
p4620
aVWICKET-1949
p4621
aVWICKET-1948
p4622
aVWICKET-1947
p4623
aVWICKET-1946
p4624
aVWICKET-1945
p4625
aVWICKET-1944
p4626
aVWICKET-1943
p4627
aVWICKET-1942
p4628
aVWICKET-1941
p4629
aVWICKET-1940
p4630
aVWICKET-1939
p4631
aVWICKET-1938
p4632
aVWICKET-1937
p4633
aVWICKET-1936
p4634
aVWICKET-1935
p4635
aVWICKET-1934
p4636
aVWICKET-1933
p4637
aVWICKET-1932
p4638
aVWICKET-1931
p4639
aVWICKET-1930
p4640
aVWICKET-1929
p4641
aVWICKET-1928
p4642
aVWICKET-1927
p4643
aVWICKET-1926
p4644
aVWICKET-1925
p4645
aVWICKET-1924
p4646
aVWICKET-1923
p4647
aVWICKET-1922
p4648
aVWICKET-1921
p4649
aVWICKET-1920
p4650
aVWICKET-1919
p4651
aVWICKET-1918
p4652
aVWICKET-1917
p4653
aVWICKET-1916
p4654
aVWICKET-1915
p4655
aVWICKET-1914
p4656
aVWICKET-1913
p4657
aVWICKET-1912
p4658
aVWICKET-1911
p4659
aVWICKET-1910
p4660
aVWICKET-1909
p4661
aVWICKET-1908
p4662
aVWICKET-1907
p4663
aVWICKET-1906
p4664
aVWICKET-1905
p4665
aVWICKET-1904
p4666
aVWICKET-1903
p4667
aVWICKET-1902
p4668
aVWICKET-1901
p4669
aVWICKET-1900
p4670
aVWICKET-1899
p4671
aVWICKET-1898
p4672
aVWICKET-1897
p4673
aVWICKET-1896
p4674
aVWICKET-1895
p4675
aVWICKET-1894
p4676
aVWICKET-1893
p4677
aVWICKET-1892
p4678
aVWICKET-1891
p4679
aVWICKET-1890
p4680
aVWICKET-1889
p4681
aVWICKET-1888
p4682
aVWICKET-1887
p4683
aVWICKET-1886
p4684
aVWICKET-1885
p4685
aVWICKET-1884
p4686
aVWICKET-1883
p4687
aVWICKET-1882
p4688
aVWICKET-1881
p4689
aVWICKET-1880
p4690
aVWICKET-1879
p4691
aVWICKET-1878
p4692
aVWICKET-1877
p4693
aVWICKET-1876
p4694
aVWICKET-1875
p4695
aVWICKET-1874
p4696
aVWICKET-1873
p4697
aVWICKET-1872
p4698
aVWICKET-1871
p4699
aVWICKET-1870
p4700
aVWICKET-1869
p4701
aVWICKET-1868
p4702
aVWICKET-1867
p4703
aVWICKET-1866
p4704
aVWICKET-1865
p4705
aVWICKET-1864
p4706
aVWICKET-1863
p4707
aVWICKET-1862
p4708
aVWICKET-1861
p4709
aVWICKET-1860
p4710
aVWICKET-1859
p4711
aVWICKET-1858
p4712
aVWICKET-1857
p4713
aVWICKET-1856
p4714
aVWICKET-1855
p4715
aVWICKET-1854
p4716
aVWICKET-1853
p4717
aVWICKET-1852
p4718
aVWICKET-1851
p4719
aVWICKET-1850
p4720
aVWICKET-1849
p4721
aVWICKET-1848
p4722
aVWICKET-1847
p4723
aVWICKET-1846
p4724
aVWICKET-1845
p4725
aVWICKET-1844
p4726
aVWICKET-1843
p4727
aVWICKET-1842
p4728
aVWICKET-1841
p4729
aVWICKET-1840
p4730
aVWICKET-1839
p4731
aVWICKET-1838
p4732
aVWICKET-1837
p4733
aVWICKET-1836
p4734
aVWICKET-1835
p4735
aVWICKET-1834
p4736
aVWICKET-1833
p4737
aVWICKET-1832
p4738
aVWICKET-1831
p4739
aVWICKET-1830
p4740
aVWICKET-1829
p4741
aVWICKET-1828
p4742
aVWICKET-1827
p4743
aVWICKET-1826
p4744
aVWICKET-1825
p4745
aVWICKET-1824
p4746
aVWICKET-1823
p4747
aVWICKET-1822
p4748
aVWICKET-1821
p4749
aVWICKET-1820
p4750
aVWICKET-1819
p4751
aVWICKET-1818
p4752
aVWICKET-1817
p4753
aVWICKET-1816
p4754
aVWICKET-1815
p4755
aVWICKET-1814
p4756
aVWICKET-1813
p4757
aVWICKET-1812
p4758
aVWICKET-1811
p4759
aVWICKET-1810
p4760
aVWICKET-1809
p4761
aVWICKET-1808
p4762
aVWICKET-1807
p4763
aVWICKET-1806
p4764
aVWICKET-1805
p4765
aVWICKET-1804
p4766
aVWICKET-1803
p4767
aVWICKET-1802
p4768
aVWICKET-1801
p4769
aVWICKET-1800
p4770
aVWICKET-1799
p4771
aVWICKET-1798
p4772
aVWICKET-1797
p4773
aVWICKET-1796
p4774
aVWICKET-1795
p4775
aVWICKET-1794
p4776
aVWICKET-1793
p4777
aVWICKET-1792
p4778
aVWICKET-1791
p4779
aVWICKET-1790
p4780
aVWICKET-1789
p4781
aVWICKET-1788
p4782
aVWICKET-1787
p4783
aVWICKET-1786
p4784
aVWICKET-1785
p4785
aVWICKET-1784
p4786
aVWICKET-1783
p4787
aVWICKET-1782
p4788
aVWICKET-1781
p4789
aVWICKET-1780
p4790
aVWICKET-1779
p4791
aVWICKET-1778
p4792
aVWICKET-1777
p4793
aVWICKET-1776
p4794
aVWICKET-1775
p4795
aVWICKET-1774
p4796
aVWICKET-1773
p4797
aVWICKET-1772
p4798
aVWICKET-1771
p4799
aVWICKET-1770
p4800
aVWICKET-1769
p4801
aVWICKET-1768
p4802
aVWICKET-1767
p4803
aVWICKET-1766
p4804
aVWICKET-1765
p4805
aVWICKET-1764
p4806
aVWICKET-1763
p4807
aVWICKET-1762
p4808
aVWICKET-1761
p4809
aVWICKET-1760
p4810
aVWICKET-1759
p4811
aVWICKET-1758
p4812
aVWICKET-1757
p4813
aVWICKET-1756
p4814
aVWICKET-1755
p4815
aVWICKET-1754
p4816
aVWICKET-1753
p4817
aVWICKET-1752
p4818
aVWICKET-1751
p4819
aVWICKET-1750
p4820
aVWICKET-1749
p4821
aVWICKET-1748
p4822
aVWICKET-1747
p4823
aVWICKET-1746
p4824
aVWICKET-1745
p4825
aVWICKET-1744
p4826
aVWICKET-1743
p4827
aVWICKET-1742
p4828
aVWICKET-1741
p4829
aVWICKET-1740
p4830
aVWICKET-1739
p4831
aVWICKET-1738
p4832
aVWICKET-1737
p4833
aVWICKET-1736
p4834
aVWICKET-1735
p4835
aVWICKET-1734
p4836
aVWICKET-1733
p4837
aVWICKET-1732
p4838
aVWICKET-1731
p4839
aVWICKET-1730
p4840
aVWICKET-1729
p4841
aVWICKET-1728
p4842
aVWICKET-1727
p4843
aVWICKET-1726
p4844
aVWICKET-1725
p4845
aVWICKET-1724
p4846
aVWICKET-1723
p4847
aVWICKET-1722
p4848
aVWICKET-1721
p4849
aVWICKET-1720
p4850
aVWICKET-1719
p4851
aVWICKET-1718
p4852
aVWICKET-1717
p4853
aVWICKET-1716
p4854
aVWICKET-1715
p4855
aVWICKET-1714
p4856
aVWICKET-1713
p4857
aVWICKET-1712
p4858
aVWICKET-1711
p4859
aVWICKET-1710
p4860
aVWICKET-1709
p4861
aVWICKET-1708
p4862
aVWICKET-1707
p4863
aVWICKET-1706
p4864
aVWICKET-1705
p4865
aVWICKET-1704
p4866
aVWICKET-1703
p4867
aVWICKET-1702
p4868
aVWICKET-1701
p4869
aVWICKET-1700
p4870
aVWICKET-1699
p4871
aVWICKET-1698
p4872
aVWICKET-1697
p4873
aVWICKET-1696
p4874
aVWICKET-1695
p4875
aVWICKET-1694
p4876
aVWICKET-1693
p4877
aVWICKET-1692
p4878
aVWICKET-1691
p4879
aVWICKET-1690
p4880
aVWICKET-1689
p4881
aVWICKET-1688
p4882
aVWICKET-1687
p4883
aVWICKET-1686
p4884
aVWICKET-1685
p4885
aVWICKET-1684
p4886
aVWICKET-1683
p4887
aVWICKET-1682
p4888
aVWICKET-1681
p4889
aVWICKET-1680
p4890
aVWICKET-1679
p4891
aVWICKET-1678
p4892
aVWICKET-1677
p4893
aVWICKET-1676
p4894
aVWICKET-1675
p4895
aVWICKET-1674
p4896
aVWICKET-1673
p4897
aVWICKET-1672
p4898
aVWICKET-1671
p4899
aVWICKET-1670
p4900
aVWICKET-1669
p4901
aVWICKET-1668
p4902
aVWICKET-1667
p4903
aVWICKET-1666
p4904
aVWICKET-1665
p4905
aVWICKET-1664
p4906
aVWICKET-1663
p4907
aVWICKET-1662
p4908
aVWICKET-1661
p4909
aVWICKET-1660
p4910
aVWICKET-1659
p4911
aVWICKET-1658
p4912
aVWICKET-1657
p4913
aVWICKET-1656
p4914
aVWICKET-1655
p4915
aVWICKET-1654
p4916
aVWICKET-1653
p4917
aVWICKET-1652
p4918
aVWICKET-1651
p4919
aVWICKET-1650
p4920
aVWICKET-1649
p4921
aVWICKET-1648
p4922
aVWICKET-1647
p4923
aVWICKET-1646
p4924
aVWICKET-1645
p4925
aVWICKET-1644
p4926
aVWICKET-1643
p4927
aVWICKET-1642
p4928
aVWICKET-1641
p4929
aVWICKET-1640
p4930
aVWICKET-1639
p4931
aVWICKET-1638
p4932
aVWICKET-1637
p4933
aVWICKET-1636
p4934
aVWICKET-1635
p4935
aVWICKET-1634
p4936
aVWICKET-1633
p4937
aVWICKET-1632
p4938
aVWICKET-1631
p4939
aVWICKET-1630
p4940
aVWICKET-1629
p4941
aVWICKET-1628
p4942
aVWICKET-1627
p4943
aVWICKET-1626
p4944
aVWICKET-1625
p4945
aVWICKET-1624
p4946
aVWICKET-1623
p4947
aVWICKET-1622
p4948
aVWICKET-1621
p4949
aVWICKET-1620
p4950
aVWICKET-1619
p4951
aVWICKET-1618
p4952
aVWICKET-1617
p4953
aVWICKET-1616
p4954
aVWICKET-1615
p4955
aVWICKET-1614
p4956
aVWICKET-1613
p4957
aVWICKET-1612
p4958
aVWICKET-1611
p4959
aVWICKET-1610
p4960
aVWICKET-1609
p4961
aVWICKET-1608
p4962
aVWICKET-1607
p4963
aVWICKET-1606
p4964
aVWICKET-1605
p4965
aVWICKET-1604
p4966
aVWICKET-1603
p4967
aVWICKET-1602
p4968
aVWICKET-1601
p4969
aVWICKET-1600
p4970
aVWICKET-1599
p4971
aVWICKET-1598
p4972
aVWICKET-1597
p4973
aVWICKET-1596
p4974
aVWICKET-1595
p4975
aVWICKET-1594
p4976
aVWICKET-1593
p4977
aVWICKET-1592
p4978
aVWICKET-1591
p4979
aVWICKET-1590
p4980
aVWICKET-1589
p4981
aVWICKET-1588
p4982
aVWICKET-1587
p4983
aVWICKET-1586
p4984
aVWICKET-1585
p4985
aVWICKET-1584
p4986
aVWICKET-1583
p4987
aVWICKET-1582
p4988
aVWICKET-1581
p4989
aVWICKET-1580
p4990
aVWICKET-1579
p4991
aVWICKET-1578
p4992
aVWICKET-1577
p4993
aVWICKET-1576
p4994
aVWICKET-1575
p4995
aVWICKET-1574
p4996
aVWICKET-1573
p4997
aVWICKET-1572
p4998
aVWICKET-1571
p4999
aVWICKET-1570
p5000
aVWICKET-1569
p5001
aVWICKET-1568
p5002
aVWICKET-1567
p5003
aVWICKET-1566
p5004
aVWICKET-1565
p5005
aVWICKET-1564
p5006
aVWICKET-1563
p5007
aVWICKET-1562
p5008
aVWICKET-1561
p5009
aVWICKET-1560
p5010
aVWICKET-1559
p5011
aVWICKET-1558
p5012
aVWICKET-1557
p5013
aVWICKET-1556
p5014
aVWICKET-1555
p5015
aVWICKET-1554
p5016
aVWICKET-1553
p5017
aVWICKET-1552
p5018
aVWICKET-1551
p5019
aVWICKET-1550
p5020
aVWICKET-1549
p5021
aVWICKET-1548
p5022
aVWICKET-1547
p5023
aVWICKET-1546
p5024
aVWICKET-1545
p5025
aVWICKET-1544
p5026
aVWICKET-1543
p5027
aVWICKET-1542
p5028
aVWICKET-1541
p5029
aVWICKET-1540
p5030
aVWICKET-1539
p5031
aVWICKET-1538
p5032
aVWICKET-1537
p5033
aVWICKET-1536
p5034
aVWICKET-1535
p5035
aVWICKET-1534
p5036
aVWICKET-1533
p5037
aVWICKET-1532
p5038
aVWICKET-1531
p5039
aVWICKET-1530
p5040
aVWICKET-1529
p5041
aVWICKET-1528
p5042
aVWICKET-1527
p5043
aVWICKET-1526
p5044
aVWICKET-1525
p5045
aVWICKET-1524
p5046
aVWICKET-1523
p5047
aVWICKET-1522
p5048
aVWICKET-1521
p5049
aVWICKET-1520
p5050
aVWICKET-1519
p5051
aVWICKET-1518
p5052
aVWICKET-1517
p5053
aVWICKET-1516
p5054
aVWICKET-1515
p5055
aVWICKET-1514
p5056
aVWICKET-1513
p5057
aVWICKET-1512
p5058
aVWICKET-1511
p5059
aVWICKET-1510
p5060
aVWICKET-1509
p5061
aVWICKET-1508
p5062
aVWICKET-1507
p5063
aVWICKET-1506
p5064
aVWICKET-1505
p5065
aVWICKET-1504
p5066
aVWICKET-1503
p5067
aVWICKET-1502
p5068
aVWICKET-1501
p5069
aVWICKET-1500
p5070
aVWICKET-1499
p5071
aVWICKET-1498
p5072
aVWICKET-1497
p5073
aVWICKET-1496
p5074
aVWICKET-1495
p5075
aVWICKET-1494
p5076
aVWICKET-1493
p5077
aVWICKET-1492
p5078
aVWICKET-1491
p5079
aVWICKET-1490
p5080
aVWICKET-1489
p5081
aVWICKET-1488
p5082
aVWICKET-1487
p5083
aVWICKET-1486
p5084
aVWICKET-1485
p5085
aVWICKET-1484
p5086
aVWICKET-1483
p5087
aVWICKET-1482
p5088
aVWICKET-1481
p5089
aVWICKET-1480
p5090
aVWICKET-1479
p5091
aVWICKET-1478
p5092
aVWICKET-1477
p5093
aVWICKET-1476
p5094
aVWICKET-1475
p5095
aVWICKET-1474
p5096
aVWICKET-1473
p5097
aVWICKET-1472
p5098
aVWICKET-1471
p5099
aVWICKET-1470
p5100
aVWICKET-1469
p5101
aVWICKET-1468
p5102
aVWICKET-1467
p5103
aVWICKET-1466
p5104
aVWICKET-1465
p5105
aVWICKET-1464
p5106
aVWICKET-1463
p5107
aVWICKET-1462
p5108
aVWICKET-1461
p5109
aVWICKET-1460
p5110
aVWICKET-1459
p5111
aVWICKET-1458
p5112
aVWICKET-1457
p5113
aVWICKET-1456
p5114
aVWICKET-1455
p5115
aVWICKET-1454
p5116
aVWICKET-1453
p5117
aVWICKET-1452
p5118
aVWICKET-1451
p5119
aVWICKET-1450
p5120
aVWICKET-1449
p5121
aVWICKET-1448
p5122
aVWICKET-1447
p5123
aVWICKET-1446
p5124
aVWICKET-1445
p5125
aVWICKET-1444
p5126
aVWICKET-1443
p5127
aVWICKET-1442
p5128
aVWICKET-1441
p5129
aVWICKET-1440
p5130
aVWICKET-1439
p5131
aVWICKET-1438
p5132
aVWICKET-1437
p5133
aVWICKET-1436
p5134
aVWICKET-1435
p5135
aVWICKET-1434
p5136
aVWICKET-1433
p5137
aVWICKET-1432
p5138
aVWICKET-1431
p5139
aVWICKET-1430
p5140
aVWICKET-1429
p5141
aVWICKET-1428
p5142
aVWICKET-1427
p5143
aVWICKET-1426
p5144
aVWICKET-1425
p5145
aVWICKET-1424
p5146
aVWICKET-1423
p5147
aVWICKET-1422
p5148
aVWICKET-1421
p5149
aVWICKET-1420
p5150
aVWICKET-1419
p5151
aVWICKET-1418
p5152
aVWICKET-1417
p5153
aVWICKET-1416
p5154
aVWICKET-1415
p5155
aVWICKET-1414
p5156
aVWICKET-1413
p5157
aVWICKET-1412
p5158
aVWICKET-1411
p5159
aVWICKET-1410
p5160
aVWICKET-1409
p5161
aVWICKET-1408
p5162
aVWICKET-1407
p5163
aVWICKET-1406
p5164
aVWICKET-1405
p5165
aVWICKET-1404
p5166
aVWICKET-1403
p5167
aVWICKET-1402
p5168
aVWICKET-1401
p5169
aVWICKET-1400
p5170
aVWICKET-1399
p5171
aVWICKET-1398
p5172
aVWICKET-1397
p5173
aVWICKET-1396
p5174
aVWICKET-1395
p5175
aVWICKET-1394
p5176
aVWICKET-1393
p5177
aVWICKET-1392
p5178
aVWICKET-1391
p5179
aVWICKET-1390
p5180
aVWICKET-1389
p5181
aVWICKET-1388
p5182
aVWICKET-1387
p5183
aVWICKET-1386
p5184
aVWICKET-1385
p5185
aVWICKET-1384
p5186
aVWICKET-1383
p5187
aVWICKET-1382
p5188
aVWICKET-1381
p5189
aVWICKET-1380
p5190
aVWICKET-1379
p5191
aVWICKET-1378
p5192
aVWICKET-1377
p5193
aVWICKET-1376
p5194
aVWICKET-1375
p5195
aVWICKET-1374
p5196
aVWICKET-1373
p5197
aVWICKET-1372
p5198
aVWICKET-1371
p5199
aVWICKET-1370
p5200
aVWICKET-1369
p5201
aVWICKET-1368
p5202
aVWICKET-1367
p5203
aVWICKET-1366
p5204
aVWICKET-1365
p5205
aVWICKET-1364
p5206
aVWICKET-1363
p5207
aVWICKET-1362
p5208
aVWICKET-1361
p5209
aVWICKET-1360
p5210
aVWICKET-1359
p5211
aVWICKET-1358
p5212
aVWICKET-1357
p5213
aVWICKET-1356
p5214
aVWICKET-1355
p5215
aVWICKET-1354
p5216
aVWICKET-1353
p5217
aVWICKET-1352
p5218
aVWICKET-1351
p5219
aVWICKET-1350
p5220
aVWICKET-1349
p5221
aVWICKET-1348
p5222
aVWICKET-1347
p5223
aVWICKET-1346
p5224
aVWICKET-1345
p5225
aVWICKET-1344
p5226
aVWICKET-1343
p5227
aVWICKET-1342
p5228
aVWICKET-1341
p5229
aVWICKET-1340
p5230
aVWICKET-1339
p5231
aVWICKET-1338
p5232
aVWICKET-1337
p5233
aVWICKET-1336
p5234
aVWICKET-1335
p5235
aVWICKET-1334
p5236
aVWICKET-1333
p5237
aVWICKET-1332
p5238
aVWICKET-1331
p5239
aVWICKET-1330
p5240
aVWICKET-1329
p5241
aVWICKET-1328
p5242
aVWICKET-1327
p5243
aVWICKET-1326
p5244
aVWICKET-1325
p5245
aVWICKET-1324
p5246
aVWICKET-1323
p5247
aVWICKET-1322
p5248
aVWICKET-1321
p5249
aVWICKET-1320
p5250
aVWICKET-1319
p5251
aVWICKET-1318
p5252
aVWICKET-1317
p5253
aVWICKET-1316
p5254
aVWICKET-1315
p5255
aVWICKET-1314
p5256
aVWICKET-1313
p5257
aVWICKET-1312
p5258
aVWICKET-1311
p5259
aVWICKET-1310
p5260
aVWICKET-1309
p5261
aVWICKET-1308
p5262
aVWICKET-1307
p5263
aVWICKET-1306
p5264
aVWICKET-1305
p5265
aVWICKET-1304
p5266
aVWICKET-1303
p5267
aVWICKET-1302
p5268
aVWICKET-1301
p5269
aVWICKET-1300
p5270
aVWICKET-1299
p5271
aVWICKET-1298
p5272
aVWICKET-1297
p5273
aVWICKET-1296
p5274
aVWICKET-1295
p5275
aVWICKET-1294
p5276
aVWICKET-1293
p5277
aVWICKET-1292
p5278
aVWICKET-1291
p5279
aVWICKET-1290
p5280
aVWICKET-1289
p5281
aVWICKET-1288
p5282
aVWICKET-1287
p5283
aVWICKET-1286
p5284
aVWICKET-1285
p5285
aVWICKET-1284
p5286
aVWICKET-1283
p5287
aVWICKET-1282
p5288
aVWICKET-1281
p5289
aVWICKET-1280
p5290
aVWICKET-1279
p5291
aVWICKET-1278
p5292
aVWICKET-1277
p5293
aVWICKET-1276
p5294
aVWICKET-1275
p5295
aVWICKET-1274
p5296
aVWICKET-1273
p5297
aVWICKET-1272
p5298
aVWICKET-1271
p5299
aVWICKET-1270
p5300
aVWICKET-1269
p5301
aVWICKET-1268
p5302
aVWICKET-1267
p5303
aVWICKET-1266
p5304
aVWICKET-1265
p5305
aVWICKET-1264
p5306
aVWICKET-1263
p5307
aVWICKET-1262
p5308
aVWICKET-1261
p5309
aVWICKET-1260
p5310
aVWICKET-1259
p5311
aVWICKET-1258
p5312
aVWICKET-1257
p5313
aVWICKET-1256
p5314
aVWICKET-1255
p5315
aVWICKET-1254
p5316
aVWICKET-1253
p5317
aVWICKET-1252
p5318
aVWICKET-1251
p5319
aVWICKET-1250
p5320
aVWICKET-1249
p5321
aVWICKET-1248
p5322
aVWICKET-1247
p5323
aVWICKET-1246
p5324
aVWICKET-1245
p5325
aVWICKET-1244
p5326
aVWICKET-1243
p5327
aVWICKET-1242
p5328
aVWICKET-1241
p5329
aVWICKET-1240
p5330
aVWICKET-1239
p5331
aVWICKET-1238
p5332
aVWICKET-1237
p5333
aVWICKET-1236
p5334
aVWICKET-1235
p5335
aVWICKET-1234
p5336
aVWICKET-1233
p5337
aVWICKET-1232
p5338
aVWICKET-1231
p5339
aVWICKET-1230
p5340
aVWICKET-1229
p5341
aVWICKET-1228
p5342
aVWICKET-1227
p5343
aVWICKET-1226
p5344
aVWICKET-1225
p5345
aVWICKET-1224
p5346
aVWICKET-1223
p5347
aVWICKET-1222
p5348
aVWICKET-1221
p5349
aVWICKET-1220
p5350
aVWICKET-1219
p5351
aVWICKET-1218
p5352
aVWICKET-1217
p5353
aVWICKET-1216
p5354
aVWICKET-1215
p5355
aVWICKET-1214
p5356
aVWICKET-1213
p5357
aVWICKET-1212
p5358
aVWICKET-1211
p5359
aVWICKET-1210
p5360
aVWICKET-1209
p5361
aVWICKET-1208
p5362
aVWICKET-1207
p5363
aVWICKET-1206
p5364
aVWICKET-1205
p5365
aVWICKET-1204
p5366
aVWICKET-1203
p5367
aVWICKET-1202
p5368
aVWICKET-1201
p5369
aVWICKET-1200
p5370
aVWICKET-1199
p5371
aVWICKET-1198
p5372
aVWICKET-1197
p5373
aVWICKET-1196
p5374
aVWICKET-1195
p5375
aVWICKET-1194
p5376
aVWICKET-1193
p5377
aVWICKET-1192
p5378
aVWICKET-1191
p5379
aVWICKET-1190
p5380
aVWICKET-1189
p5381
aVWICKET-1188
p5382
aVWICKET-1187
p5383
aVWICKET-1186
p5384
aVWICKET-1185
p5385
aVWICKET-1184
p5386
aVWICKET-1183
p5387
aVWICKET-1182
p5388
aVWICKET-1181
p5389
aVWICKET-1180
p5390
aVWICKET-1179
p5391
aVWICKET-1178
p5392
aVWICKET-1177
p5393
aVWICKET-1176
p5394
aVWICKET-1175
p5395
aVWICKET-1174
p5396
aVWICKET-1173
p5397
aVWICKET-1172
p5398
aVWICKET-1171
p5399
aVWICKET-1170
p5400
aVWICKET-1169
p5401
aVWICKET-1168
p5402
aVWICKET-1167
p5403
aVWICKET-1166
p5404
aVWICKET-1165
p5405
aVWICKET-1164
p5406
aVWICKET-1163
p5407
aVWICKET-1162
p5408
aVWICKET-1161
p5409
aVWICKET-1160
p5410
aVWICKET-1159
p5411
aVWICKET-1158
p5412
aVWICKET-1157
p5413
aVWICKET-1156
p5414
aVWICKET-1155
p5415
aVWICKET-1154
p5416
aVWICKET-1153
p5417
aVWICKET-1152
p5418
aVWICKET-1151
p5419
aVWICKET-1150
p5420
aVWICKET-1149
p5421
aVWICKET-1148
p5422
aVWICKET-1147
p5423
aVWICKET-1146
p5424
aVWICKET-1145
p5425
aVWICKET-1144
p5426
aVWICKET-1143
p5427
aVWICKET-1142
p5428
aVWICKET-1141
p5429
aVWICKET-1140
p5430
aVWICKET-1139
p5431
aVWICKET-1138
p5432
aVWICKET-1137
p5433
aVWICKET-1136
p5434
aVWICKET-1135
p5435
aVWICKET-1134
p5436
aVWICKET-1133
p5437
aVWICKET-1132
p5438
aVWICKET-1131
p5439
aVWICKET-1130
p5440
aVWICKET-1129
p5441
aVWICKET-1128
p5442
aVWICKET-1127
p5443
aVWICKET-1126
p5444
aVWICKET-1125
p5445
aVWICKET-1124
p5446
aVWICKET-1123
p5447
aVWICKET-1122
p5448
aVWICKET-1121
p5449
aVWICKET-1120
p5450
aVWICKET-1119
p5451
aVWICKET-1118
p5452
aVWICKET-1117
p5453
aVWICKET-1116
p5454
aVWICKET-1115
p5455
aVWICKET-1114
p5456
aVWICKET-1113
p5457
aVWICKET-1112
p5458
aVWICKET-1111
p5459
aVWICKET-1110
p5460
aVWICKET-1109
p5461
aVWICKET-1108
p5462
aVWICKET-1107
p5463
aVWICKET-1106
p5464
aVWICKET-1105
p5465
aVWICKET-1104
p5466
aVWICKET-1103
p5467
aVWICKET-1102
p5468
aVWICKET-1101
p5469
aVWICKET-1100
p5470
aVWICKET-1099
p5471
aVWICKET-1098
p5472
aVWICKET-1097
p5473
aVWICKET-1096
p5474
aVWICKET-1095
p5475
aVWICKET-1094
p5476
aVWICKET-1093
p5477
aVWICKET-1092
p5478
aVWICKET-1091
p5479
aVWICKET-1090
p5480
aVWICKET-1089
p5481
aVWICKET-1088
p5482
aVWICKET-1087
p5483
aVWICKET-1086
p5484
aVWICKET-1085
p5485
aVWICKET-1084
p5486
aVWICKET-1083
p5487
aVWICKET-1082
p5488
aVWICKET-1081
p5489
aVWICKET-1080
p5490
aVWICKET-1079
p5491
aVWICKET-1078
p5492
aVWICKET-1077
p5493
aVWICKET-1076
p5494
aVWICKET-1075
p5495
aVWICKET-1074
p5496
aVWICKET-1073
p5497
aVWICKET-1072
p5498
aVWICKET-1071
p5499
aVWICKET-1070
p5500
aVWICKET-1069
p5501
aVWICKET-1068
p5502
aVWICKET-1067
p5503
aVWICKET-1066
p5504
aVWICKET-1065
p5505
aVWICKET-1064
p5506
aVWICKET-1063
p5507
aVWICKET-1062
p5508
aVWICKET-1061
p5509
aVWICKET-1060
p5510
aVWICKET-1059
p5511
aVWICKET-1058
p5512
aVWICKET-1057
p5513
aVWICKET-1056
p5514
aVWICKET-1055
p5515
aVWICKET-1054
p5516
aVWICKET-1053
p5517
aVWICKET-1052
p5518
aVWICKET-1051
p5519
aVWICKET-1050
p5520
aVWICKET-1049
p5521
aVWICKET-1048
p5522
aVWICKET-1047
p5523
aVWICKET-1046
p5524
aVWICKET-1045
p5525
aVWICKET-1044
p5526
aVWICKET-1043
p5527
aVWICKET-1042
p5528
aVWICKET-1041
p5529
aVWICKET-1040
p5530
aVWICKET-1039
p5531
aVWICKET-1038
p5532
aVWICKET-1037
p5533
aVWICKET-1036
p5534
aVWICKET-1035
p5535
aVWICKET-1034
p5536
aVWICKET-1033
p5537
aVWICKET-1032
p5538
aVWICKET-1031
p5539
aVWICKET-1030
p5540
aVWICKET-1029
p5541
aVWICKET-1028
p5542
aVWICKET-1027
p5543
aVWICKET-1026
p5544
aVWICKET-1025
p5545
aVWICKET-1024
p5546
aVWICKET-1023
p5547
aVWICKET-1022
p5548
aVWICKET-1021
p5549
aVWICKET-1020
p5550
aVWICKET-1019
p5551
aVWICKET-1018
p5552
aVWICKET-1017
p5553
aVWICKET-1016
p5554
aVWICKET-1015
p5555
aVWICKET-1014
p5556
aVWICKET-1013
p5557
aVWICKET-1012
p5558
aVWICKET-1011
p5559
aVWICKET-1010
p5560
aVWICKET-1009
p5561
aVWICKET-1008
p5562
aVWICKET-1007
p5563
aVWICKET-1006
p5564
aVWICKET-1005
p5565
aVWICKET-1004
p5566
aVWICKET-1003
p5567
aVWICKET-1002
p5568
aVWICKET-1001
p5569
aVWICKET-1000
p5570
aVWICKET-999
p5571
aVWICKET-998
p5572
aVWICKET-997
p5573
aVWICKET-996
p5574
aVWICKET-995
p5575
aVWICKET-994
p5576
aVWICKET-993
p5577
aVWICKET-992
p5578
aVWICKET-991
p5579
aVWICKET-990
p5580
aVWICKET-989
p5581
aVWICKET-988
p5582
aVWICKET-987
p5583
aVWICKET-986
p5584
aVWICKET-985
p5585
aVWICKET-984
p5586
aVWICKET-983
p5587
aVWICKET-982
p5588
aVWICKET-981
p5589
aVWICKET-980
p5590
aVWICKET-979
p5591
aVWICKET-978
p5592
aVWICKET-977
p5593
aVWICKET-976
p5594
aVWICKET-975
p5595
aVWICKET-974
p5596
aVWICKET-973
p5597
aVWICKET-972
p5598
aVWICKET-971
p5599
aVWICKET-970
p5600
aVWICKET-969
p5601
aVWICKET-968
p5602
aVWICKET-967
p5603
aVWICKET-966
p5604
aVWICKET-965
p5605
aVWICKET-964
p5606
aVWICKET-963
p5607
aVWICKET-962
p5608
aVWICKET-961
p5609
aVWICKET-960
p5610
aVWICKET-959
p5611
aVWICKET-958
p5612
aVWICKET-957
p5613
aVWICKET-956
p5614
aVWICKET-955
p5615
aVWICKET-954
p5616
aVWICKET-953
p5617
aVWICKET-952
p5618
aVWICKET-951
p5619
aVWICKET-950
p5620
aVWICKET-949
p5621
aVWICKET-948
p5622
aVWICKET-947
p5623
aVWICKET-946
p5624
aVWICKET-945
p5625
aVWICKET-944
p5626
aVWICKET-943
p5627
aVWICKET-942
p5628
aVWICKET-941
p5629
aVWICKET-940
p5630
aVWICKET-939
p5631
aVWICKET-938
p5632
aVWICKET-937
p5633
aVWICKET-936
p5634
aVWICKET-935
p5635
aVWICKET-934
p5636
aVWICKET-933
p5637
aVWICKET-932
p5638
aVWICKET-931
p5639
aVWICKET-930
p5640
aVWICKET-929
p5641
aVWICKET-928
p5642
aVWICKET-927
p5643
aVWICKET-926
p5644
aVWICKET-925
p5645
aVWICKET-924
p5646
aVWICKET-923
p5647
aVWICKET-922
p5648
aVWICKET-921
p5649
aVWICKET-920
p5650
aVWICKET-919
p5651
aVWICKET-918
p5652
aVWICKET-917
p5653
aVWICKET-916
p5654
aVWICKET-915
p5655
aVWICKET-914
p5656
aVWICKET-913
p5657
aVWICKET-912
p5658
aVWICKET-911
p5659
aVWICKET-910
p5660
aVWICKET-909
p5661
aVWICKET-908
p5662
aVWICKET-907
p5663
aVWICKET-906
p5664
aVWICKET-905
p5665
aVWICKET-904
p5666
aVWICKET-903
p5667
aVWICKET-902
p5668
aVWICKET-901
p5669
aVWICKET-900
p5670
aVWICKET-899
p5671
aVWICKET-898
p5672
aVWICKET-897
p5673
aVWICKET-896
p5674
aVWICKET-895
p5675
aVWICKET-894
p5676
aVWICKET-893
p5677
aVWICKET-892
p5678
aVWICKET-891
p5679
aVWICKET-890
p5680
aVWICKET-889
p5681
aVWICKET-888
p5682
aVWICKET-887
p5683
aVWICKET-886
p5684
aVWICKET-885
p5685
aVWICKET-884
p5686
aVWICKET-883
p5687
aVWICKET-882
p5688
aVWICKET-881
p5689
aVWICKET-880
p5690
aVWICKET-879
p5691
aVWICKET-878
p5692
aVWICKET-877
p5693
aVWICKET-876
p5694
aVWICKET-875
p5695
aVWICKET-874
p5696
aVWICKET-873
p5697
aVWICKET-872
p5698
aVWICKET-871
p5699
aVWICKET-870
p5700
aVWICKET-869
p5701
aVWICKET-868
p5702
aVWICKET-867
p5703
aVWICKET-866
p5704
aVWICKET-865
p5705
aVWICKET-864
p5706
aVWICKET-863
p5707
aVWICKET-862
p5708
aVWICKET-861
p5709
aVWICKET-860
p5710
aVWICKET-859
p5711
aVWICKET-858
p5712
aVWICKET-857
p5713
aVWICKET-856
p5714
aVWICKET-855
p5715
aVWICKET-854
p5716
aVWICKET-853
p5717
aVWICKET-852
p5718
aVWICKET-851
p5719
aVWICKET-850
p5720
aVWICKET-849
p5721
aVWICKET-848
p5722
aVWICKET-847
p5723
aVWICKET-846
p5724
aVWICKET-845
p5725
aVWICKET-844
p5726
aVWICKET-843
p5727
aVWICKET-842
p5728
aVWICKET-841
p5729
aVWICKET-840
p5730
aVWICKET-839
p5731
aVWICKET-838
p5732
aVWICKET-837
p5733
aVWICKET-836
p5734
aVWICKET-835
p5735
aVWICKET-834
p5736
aVWICKET-833
p5737
aVWICKET-832
p5738
aVWICKET-831
p5739
aVWICKET-830
p5740
aVWICKET-829
p5741
aVWICKET-828
p5742
aVWICKET-827
p5743
aVWICKET-826
p5744
aVWICKET-825
p5745
aVWICKET-824
p5746
aVWICKET-823
p5747
aVWICKET-822
p5748
aVWICKET-821
p5749
aVWICKET-820
p5750
aVWICKET-819
p5751
aVWICKET-818
p5752
aVWICKET-817
p5753
aVWICKET-816
p5754
aVWICKET-815
p5755
aVWICKET-814
p5756
aVWICKET-813
p5757
aVWICKET-812
p5758
aVWICKET-811
p5759
aVWICKET-810
p5760
aVWICKET-809
p5761
aVWICKET-808
p5762
aVWICKET-807
p5763
aVWICKET-806
p5764
aVWICKET-805
p5765
aVWICKET-804
p5766
aVWICKET-803
p5767
aVWICKET-802
p5768
aVWICKET-801
p5769
aVWICKET-800
p5770
aVWICKET-799
p5771
aVWICKET-798
p5772
aVWICKET-797
p5773
aVWICKET-796
p5774
aVWICKET-795
p5775
aVWICKET-794
p5776
aVWICKET-793
p5777
aVWICKET-792
p5778
aVWICKET-791
p5779
aVWICKET-790
p5780
aVWICKET-789
p5781
aVWICKET-788
p5782
aVWICKET-787
p5783
aVWICKET-786
p5784
aVWICKET-785
p5785
aVWICKET-784
p5786
aVWICKET-783
p5787
aVWICKET-782
p5788
aVWICKET-781
p5789
aVWICKET-780
p5790
aVWICKET-779
p5791
aVWICKET-778
p5792
aVWICKET-777
p5793
aVWICKET-776
p5794
aVWICKET-775
p5795
aVWICKET-774
p5796
aVWICKET-773
p5797
aVWICKET-772
p5798
aVWICKET-771
p5799
aVWICKET-770
p5800
aVWICKET-769
p5801
aVWICKET-768
p5802
aVWICKET-767
p5803
aVWICKET-766
p5804
aVWICKET-765
p5805
aVWICKET-764
p5806
aVWICKET-763
p5807
aVWICKET-762
p5808
aVWICKET-761
p5809
aVWICKET-760
p5810
aVWICKET-759
p5811
aVWICKET-758
p5812
aVWICKET-757
p5813
aVWICKET-756
p5814
aVWICKET-755
p5815
aVWICKET-754
p5816
aVWICKET-753
p5817
aVWICKET-752
p5818
aVWICKET-751
p5819
aVWICKET-750
p5820
aVWICKET-749
p5821
aVWICKET-748
p5822
aVWICKET-747
p5823
aVWICKET-746
p5824
aVWICKET-745
p5825
aVWICKET-744
p5826
aVWICKET-743
p5827
aVWICKET-742
p5828
aVWICKET-741
p5829
aVWICKET-740
p5830
aVWICKET-739
p5831
aVWICKET-738
p5832
aVWICKET-737
p5833
aVWICKET-736
p5834
aVWICKET-735
p5835
aVWICKET-734
p5836
aVWICKET-733
p5837
aVWICKET-732
p5838
aVWICKET-731
p5839
aVWICKET-730
p5840
aVWICKET-729
p5841
aVWICKET-728
p5842
aVWICKET-727
p5843
aVWICKET-726
p5844
aVWICKET-725
p5845
aVWICKET-724
p5846
aVWICKET-723
p5847
aVWICKET-722
p5848
aVWICKET-721
p5849
aVWICKET-720
p5850
aVWICKET-719
p5851
aVWICKET-718
p5852
aVWICKET-717
p5853
aVWICKET-716
p5854
aVWICKET-715
p5855
aVWICKET-714
p5856
aVWICKET-713
p5857
aVWICKET-712
p5858
aVWICKET-711
p5859
aVWICKET-710
p5860
aVWICKET-709
p5861
aVWICKET-708
p5862
aVWICKET-707
p5863
aVWICKET-706
p5864
aVWICKET-705
p5865
aVWICKET-704
p5866
aVWICKET-703
p5867
aVWICKET-702
p5868
aVWICKET-701
p5869
aVWICKET-700
p5870
aVWICKET-699
p5871
aVWICKET-698
p5872
aVWICKET-697
p5873
aVWICKET-696
p5874
aVWICKET-695
p5875
aVWICKET-694
p5876
aVWICKET-693
p5877
aVWICKET-692
p5878
aVWICKET-691
p5879
aVWICKET-690
p5880
aVWICKET-689
p5881
aVWICKET-688
p5882
aVWICKET-687
p5883
aVWICKET-686
p5884
aVWICKET-685
p5885
aVWICKET-684
p5886
aVWICKET-683
p5887
aVWICKET-682
p5888
aVWICKET-681
p5889
aVWICKET-680
p5890
aVWICKET-679
p5891
aVWICKET-678
p5892
aVWICKET-677
p5893
aVWICKET-676
p5894
aVWICKET-675
p5895
aVWICKET-674
p5896
aVWICKET-673
p5897
aVWICKET-672
p5898
aVWICKET-671
p5899
aVWICKET-670
p5900
aVWICKET-669
p5901
aVWICKET-668
p5902
aVWICKET-667
p5903
aVWICKET-665
p5904
aVWICKET-664
p5905
aVWICKET-663
p5906
aVWICKET-662
p5907
aVWICKET-661
p5908
aVWICKET-660
p5909
aVWICKET-659
p5910
aVWICKET-658
p5911
aVWICKET-657
p5912
aVWICKET-656
p5913
aVWICKET-655
p5914
aVWICKET-654
p5915
aVWICKET-653
p5916
aVWICKET-652
p5917
aVWICKET-651
p5918
aVWICKET-650
p5919
aVWICKET-649
p5920
aVWICKET-648
p5921
aVWICKET-647
p5922
aVWICKET-646
p5923
aVWICKET-645
p5924
aVWICKET-644
p5925
aVWICKET-643
p5926
aVWICKET-642
p5927
aVWICKET-641
p5928
aVWICKET-640
p5929
aVWICKET-639
p5930
aVWICKET-638
p5931
aVWICKET-637
p5932
aVWICKET-636
p5933
aVWICKET-635
p5934
aVWICKET-634
p5935
aVWICKET-633
p5936
aVWICKET-632
p5937
aVWICKET-631
p5938
aVWICKET-630
p5939
aVWICKET-629
p5940
aVWICKET-628
p5941
aVWICKET-627
p5942
aVWICKET-626
p5943
aVWICKET-625
p5944
aVWICKET-624
p5945
aVWICKET-623
p5946
aVWICKET-622
p5947
aVWICKET-621
p5948
aVWICKET-620
p5949
aVWICKET-619
p5950
aVWICKET-618
p5951
aVWICKET-617
p5952
aVWICKET-616
p5953
aVWICKET-615
p5954
aVWICKET-614
p5955
aVWICKET-613
p5956
aVWICKET-612
p5957
aVWICKET-611
p5958
aVWICKET-610
p5959
aVWICKET-609
p5960
aVWICKET-608
p5961
aVWICKET-607
p5962
aVWICKET-606
p5963
aVWICKET-605
p5964
aVWICKET-604
p5965
aVWICKET-603
p5966
aVWICKET-602
p5967
aVWICKET-601
p5968
aVWICKET-600
p5969
aVWICKET-599
p5970
aVWICKET-598
p5971
aVWICKET-597
p5972
aVWICKET-596
p5973
aVWICKET-595
p5974
aVWICKET-594
p5975
aVWICKET-593
p5976
aVWICKET-592
p5977
aVWICKET-591
p5978
aVWICKET-590
p5979
aVWICKET-589
p5980
aVWICKET-588
p5981
aVWICKET-587
p5982
aVWICKET-586
p5983
aVWICKET-585
p5984
aVWICKET-584
p5985
aVWICKET-583
p5986
aVWICKET-582
p5987
aVWICKET-581
p5988
aVWICKET-580
p5989
aVWICKET-579
p5990
aVWICKET-578
p5991
aVWICKET-577
p5992
aVWICKET-576
p5993
aVWICKET-575
p5994
aVWICKET-574
p5995
aVWICKET-573
p5996
aVWICKET-572
p5997
aVWICKET-571
p5998
aVWICKET-570
p5999
aVWICKET-569
p6000
aVWICKET-568
p6001
aVWICKET-567
p6002
aVWICKET-566
p6003
aVWICKET-565
p6004
aVWICKET-564
p6005
aVWICKET-563
p6006
aVWICKET-562
p6007
aVWICKET-561
p6008
aVWICKET-560
p6009
aVWICKET-559
p6010
aVWICKET-558
p6011
aVWICKET-557
p6012
aVWICKET-556
p6013
aVWICKET-555
p6014
aVWICKET-554
p6015
aVWICKET-553
p6016
aVWICKET-552
p6017
aVWICKET-551
p6018
aVWICKET-550
p6019
aVWICKET-549
p6020
aVWICKET-548
p6021
aVWICKET-547
p6022
aVWICKET-546
p6023
aVWICKET-545
p6024
aVWICKET-544
p6025
aVWICKET-543
p6026
aVWICKET-542
p6027
aVWICKET-541
p6028
aVWICKET-540
p6029
aVWICKET-539
p6030
aVWICKET-538
p6031
aVWICKET-537
p6032
aVWICKET-536
p6033
aVWICKET-535
p6034
aVWICKET-534
p6035
aVWICKET-533
p6036
aVWICKET-532
p6037
aVWICKET-531
p6038
aVWICKET-530
p6039
aVWICKET-529
p6040
aVWICKET-528
p6041
aVWICKET-527
p6042
aVWICKET-526
p6043
aVWICKET-525
p6044
aVWICKET-524
p6045
aVWICKET-523
p6046
aVWICKET-522
p6047
aVWICKET-521
p6048
aVWICKET-520
p6049
aVWICKET-519
p6050
aVWICKET-518
p6051
aVWICKET-517
p6052
aVWICKET-516
p6053
aVWICKET-515
p6054
aVWICKET-514
p6055
aVWICKET-513
p6056
aVWICKET-512
p6057
aVWICKET-511
p6058
aVWICKET-510
p6059
aVWICKET-509
p6060
aVWICKET-508
p6061
aVWICKET-507
p6062
aVWICKET-506
p6063
aVWICKET-505
p6064
aVWICKET-504
p6065
aVWICKET-503
p6066
aVWICKET-502
p6067
aVWICKET-501
p6068
aVWICKET-500
p6069
aVWICKET-499
p6070
aVWICKET-498
p6071
aVWICKET-497
p6072
aVWICKET-496
p6073
aVWICKET-495
p6074
aVWICKET-494
p6075
aVWICKET-493
p6076
aVWICKET-492
p6077
aVWICKET-491
p6078
aVWICKET-490
p6079
aVWICKET-489
p6080
aVWICKET-488
p6081
aVWICKET-487
p6082
aVWICKET-486
p6083
aVWICKET-485
p6084
aVWICKET-484
p6085
aVWICKET-483
p6086
aVWICKET-482
p6087
aVWICKET-481
p6088
aVWICKET-480
p6089
aVWICKET-479
p6090
aVWICKET-478
p6091
aVWICKET-477
p6092
aVWICKET-476
p6093
aVWICKET-475
p6094
aVWICKET-474
p6095
aVWICKET-473
p6096
aVWICKET-472
p6097
aVWICKET-471
p6098
aVWICKET-470
p6099
aVWICKET-469
p6100
aVWICKET-468
p6101
aVWICKET-467
p6102
aVWICKET-466
p6103
aVWICKET-465
p6104
aVWICKET-464
p6105
aVWICKET-463
p6106
aVWICKET-462
p6107
aVWICKET-461
p6108
aVWICKET-460
p6109
aVWICKET-459
p6110
aVWICKET-458
p6111
aVWICKET-457
p6112
aVWICKET-456
p6113
aVWICKET-455
p6114
aVWICKET-454
p6115
aVWICKET-453
p6116
aVWICKET-452
p6117
aVWICKET-451
p6118
aVWICKET-450
p6119
aVWICKET-449
p6120
aVWICKET-448
p6121
aVWICKET-447
p6122
aVWICKET-446
p6123
aVWICKET-445
p6124
aVWICKET-444
p6125
aVWICKET-443
p6126
aVWICKET-442
p6127
aVWICKET-441
p6128
aVWICKET-440
p6129
aVWICKET-439
p6130
aVWICKET-438
p6131
aVWICKET-437
p6132
aVWICKET-436
p6133
aVWICKET-435
p6134
aVWICKET-434
p6135
aVWICKET-433
p6136
aVWICKET-432
p6137
aVWICKET-431
p6138
aVWICKET-430
p6139
aVWICKET-429
p6140
aVWICKET-428
p6141
aVWICKET-427
p6142
aVWICKET-426
p6143
aVWICKET-425
p6144
aVWICKET-424
p6145
aVWICKET-423
p6146
aVWICKET-422
p6147
aVWICKET-421
p6148
aVWICKET-420
p6149
aVWICKET-419
p6150
aVWICKET-418
p6151
aVWICKET-417
p6152
aVWICKET-416
p6153
aVWICKET-415
p6154
aVWICKET-414
p6155
aVWICKET-413
p6156
aVWICKET-412
p6157
aVWICKET-411
p6158
aVWICKET-410
p6159
aVWICKET-409
p6160
aVWICKET-408
p6161
aVWICKET-407
p6162
aVWICKET-406
p6163
aVWICKET-405
p6164
aVWICKET-404
p6165
aVWICKET-403
p6166
aVWICKET-402
p6167
aVWICKET-401
p6168
aVWICKET-400
p6169
aVWICKET-399
p6170
aVWICKET-398
p6171
aVWICKET-397
p6172
aVWICKET-396
p6173
aVWICKET-395
p6174
aVWICKET-394
p6175
aVWICKET-393
p6176
aVWICKET-392
p6177
aVWICKET-391
p6178
aVWICKET-390
p6179
aVWICKET-389
p6180
aVWICKET-388
p6181
aVWICKET-387
p6182
aVWICKET-386
p6183
aVWICKET-385
p6184
aVWICKET-384
p6185
aVWICKET-383
p6186
aVWICKET-382
p6187
aVWICKET-381
p6188
aVWICKET-380
p6189
aVWICKET-379
p6190
aVWICKET-378
p6191
aVWICKET-377
p6192
aVWICKET-376
p6193
aVWICKET-375
p6194
aVWICKET-374
p6195
aVWICKET-373
p6196
aVWICKET-372
p6197
aVWICKET-371
p6198
aVWICKET-370
p6199
aVWICKET-369
p6200
aVWICKET-368
p6201
aVWICKET-367
p6202
aVWICKET-366
p6203
aVWICKET-365
p6204
aVWICKET-364
p6205
aVWICKET-363
p6206
aVWICKET-362
p6207
aVWICKET-361
p6208
aVWICKET-360
p6209
aVWICKET-359
p6210
aVWICKET-358
p6211
aVWICKET-357
p6212
aVWICKET-356
p6213
aVWICKET-355
p6214
aVWICKET-354
p6215
aVWICKET-353
p6216
aVWICKET-352
p6217
aVWICKET-351
p6218
aVWICKET-350
p6219
aVWICKET-349
p6220
aVWICKET-348
p6221
aVWICKET-347
p6222
aVWICKET-346
p6223
aVWICKET-345
p6224
aVWICKET-344
p6225
aVWICKET-343
p6226
aVWICKET-342
p6227
aVWICKET-341
p6228
aVWICKET-340
p6229
aVWICKET-339
p6230
aVWICKET-338
p6231
aVWICKET-337
p6232
aVWICKET-336
p6233
aVWICKET-335
p6234
aVWICKET-334
p6235
aVWICKET-333
p6236
aVWICKET-332
p6237
aVWICKET-331
p6238
aVWICKET-330
p6239
aVWICKET-329
p6240
aVWICKET-328
p6241
aVWICKET-327
p6242
aVWICKET-326
p6243
aVWICKET-325
p6244
aVWICKET-324
p6245
aVWICKET-323
p6246
aVWICKET-322
p6247
aVWICKET-321
p6248
aVWICKET-320
p6249
aVWICKET-319
p6250
aVWICKET-318
p6251
aVWICKET-317
p6252
aVWICKET-316
p6253
aVWICKET-315
p6254
aVWICKET-314
p6255
aVWICKET-313
p6256
aVWICKET-312
p6257
aVWICKET-311
p6258
aVWICKET-310
p6259
aVWICKET-309
p6260
aVWICKET-308
p6261
aVWICKET-307
p6262
aVWICKET-306
p6263
aVWICKET-305
p6264
aVWICKET-304
p6265
aVWICKET-303
p6266
aVWICKET-302
p6267
aVWICKET-301
p6268
aVWICKET-300
p6269
aVWICKET-299
p6270
aVWICKET-298
p6271
aVWICKET-297
p6272
aVWICKET-296
p6273
aVWICKET-295
p6274
aVWICKET-294
p6275
aVWICKET-293
p6276
aVWICKET-292
p6277
aVWICKET-291
p6278
aVWICKET-290
p6279
aVWICKET-289
p6280
aVWICKET-288
p6281
aVWICKET-287
p6282
aVWICKET-286
p6283
aVWICKET-285
p6284
aVWICKET-284
p6285
aVWICKET-283
p6286
aVWICKET-282
p6287
aVWICKET-281
p6288
aVWICKET-280
p6289
aVWICKET-279
p6290
aVWICKET-278
p6291
aVWICKET-277
p6292
aVWICKET-276
p6293
aVWICKET-275
p6294
aVWICKET-274
p6295
aVWICKET-273
p6296
aVWICKET-272
p6297
aVWICKET-271
p6298
aVWICKET-270
p6299
aVWICKET-269
p6300
aVWICKET-268
p6301
aVWICKET-267
p6302
aVWICKET-266
p6303
aVWICKET-265
p6304
aVWICKET-264
p6305
aVWICKET-263
p6306
aVWICKET-262
p6307
aVWICKET-261
p6308
aVWICKET-260
p6309
aVWICKET-259
p6310
aVWICKET-258
p6311
aVWICKET-257
p6312
aVWICKET-256
p6313
aVWICKET-255
p6314
aVWICKET-254
p6315
aVWICKET-252
p6316
aVWICKET-251
p6317
aVWICKET-250
p6318
aVWICKET-249
p6319
aVWICKET-248
p6320
aVWICKET-247
p6321
aVWICKET-246
p6322
aVWICKET-245
p6323
aVWICKET-244
p6324
aVWICKET-243
p6325
aVWICKET-242
p6326
aVWICKET-241
p6327
aVWICKET-240
p6328
aVWICKET-239
p6329
aVWICKET-238
p6330
aVWICKET-237
p6331
aVWICKET-236
p6332
aVWICKET-235
p6333
aVWICKET-234
p6334
aVWICKET-233
p6335
aVWICKET-232
p6336
aVWICKET-231
p6337
aVWICKET-230
p6338
aVWICKET-229
p6339
aVWICKET-228
p6340
aVWICKET-227
p6341
aVWICKET-226
p6342
aVWICKET-225
p6343
aVWICKET-224
p6344
aVWICKET-223
p6345
aVWICKET-222
p6346
aVWICKET-221
p6347
aVWICKET-220
p6348
aVWICKET-219
p6349
aVWICKET-218
p6350
aVWICKET-217
p6351
aVWICKET-216
p6352
aVWICKET-215
p6353
aVWICKET-214
p6354
aVWICKET-213
p6355
aVWICKET-212
p6356
aVWICKET-211
p6357
aVWICKET-210
p6358
aVWICKET-209
p6359
aVWICKET-208
p6360
aVWICKET-207
p6361
aVWICKET-206
p6362
aVWICKET-205
p6363
aVWICKET-204
p6364
aVWICKET-203
p6365
aVWICKET-202
p6366
aVWICKET-201
p6367
aVWICKET-200
p6368
aVWICKET-199
p6369
aVWICKET-198
p6370
aVWICKET-197
p6371
aVWICKET-196
p6372
aVWICKET-195
p6373
aVWICKET-194
p6374
aVWICKET-193
p6375
aVWICKET-192
p6376
aVWICKET-191
p6377
aVWICKET-190
p6378
aVWICKET-189
p6379
aVWICKET-188
p6380
aVWICKET-187
p6381
aVWICKET-186
p6382
aVWICKET-185
p6383
aVWICKET-184
p6384
aVWICKET-183
p6385
aVWICKET-182
p6386
aVWICKET-181
p6387
aVWICKET-180
p6388
aVWICKET-179
p6389
aVWICKET-178
p6390
aVWICKET-177
p6391
aVWICKET-176
p6392
aVWICKET-175
p6393
aVWICKET-174
p6394
aVWICKET-173
p6395
aVWICKET-172
p6396
aVWICKET-171
p6397
aVWICKET-170
p6398
aVWICKET-169
p6399
aVWICKET-168
p6400
aVWICKET-167
p6401
aVWICKET-166
p6402
aVWICKET-165
p6403
aVWICKET-164
p6404
aVWICKET-163
p6405
aVWICKET-162
p6406
aVWICKET-161
p6407
aVWICKET-160
p6408
aVWICKET-159
p6409
aVWICKET-158
p6410
aVWICKET-157
p6411
aVWICKET-156
p6412
aVWICKET-155
p6413
aVWICKET-154
p6414
aVWICKET-153
p6415
aVWICKET-152
p6416
aVWICKET-151
p6417
aVWICKET-150
p6418
aVWICKET-149
p6419
aVWICKET-148
p6420
aVWICKET-147
p6421
aVWICKET-146
p6422
aVWICKET-145
p6423
aVWICKET-144
p6424
aVWICKET-143
p6425
aVWICKET-142
p6426
aVWICKET-141
p6427
aVWICKET-140
p6428
aVWICKET-139
p6429
aVWICKET-138
p6430
aVWICKET-137
p6431
aVWICKET-136
p6432
aVWICKET-135
p6433
aVWICKET-134
p6434
aVWICKET-133
p6435
aVWICKET-132
p6436
aVWICKET-131
p6437
aVWICKET-130
p6438
aVWICKET-129
p6439
aVWICKET-128
p6440
aVWICKET-127
p6441
aVWICKET-126
p6442
aVWICKET-125
p6443
aVWICKET-124
p6444
aVWICKET-123
p6445
aVWICKET-122
p6446
aVWICKET-121
p6447
aVWICKET-120
p6448
aVWICKET-119
p6449
aVWICKET-118
p6450
aVWICKET-117
p6451
aVWICKET-116
p6452
aVWICKET-115
p6453
aVWICKET-114
p6454
aVWICKET-113
p6455
aVWICKET-112
p6456
aVWICKET-111
p6457
aVWICKET-110
p6458
aVWICKET-109
p6459
aVWICKET-108
p6460
aVWICKET-107
p6461
aVWICKET-106
p6462
aVWICKET-105
p6463
aVWICKET-104
p6464
aVWICKET-103
p6465
aVWICKET-102
p6466
aVWICKET-101
p6467
aVWICKET-100
p6468
aVWICKET-99
p6469
aVWICKET-98
p6470
aVWICKET-97
p6471
aVWICKET-96
p6472
aVWICKET-95
p6473
aVWICKET-94
p6474
aVWICKET-93
p6475
aVWICKET-92
p6476
aVWICKET-91
p6477
aVWICKET-90
p6478
aVWICKET-89
p6479
aVWICKET-88
p6480
aVWICKET-87
p6481
aVWICKET-86
p6482
aVWICKET-85
p6483
aVWICKET-84
p6484
aVWICKET-83
p6485
aVWICKET-82
p6486
aVWICKET-81
p6487
aVWICKET-80
p6488
aVWICKET-79
p6489
aVWICKET-78
p6490
aVWICKET-77
p6491
aVWICKET-76
p6492
aVWICKET-75
p6493
aVWICKET-74
p6494
aVWICKET-73
p6495
aVWICKET-72
p6496
aVWICKET-71
p6497
aVWICKET-70
p6498
aVWICKET-69
p6499
aVWICKET-68
p6500
aVWICKET-67
p6501
aVWICKET-66
p6502
aVWICKET-65
p6503
aVWICKET-64
p6504
aVWICKET-63
p6505
aVWICKET-62
p6506
aVWICKET-61
p6507
aVWICKET-60
p6508
aVWICKET-59
p6509
aVWICKET-58
p6510
aVWICKET-57
p6511
aVWICKET-56
p6512
aVWICKET-55
p6513
aVWICKET-54
p6514
aVWICKET-53
p6515
aVWICKET-52
p6516
aVWICKET-51
p6517
aVWICKET-50
p6518
aVWICKET-49
p6519
aVWICKET-48
p6520
aVWICKET-47
p6521
aVWICKET-46
p6522
aVWICKET-45
p6523
aVWICKET-44
p6524
aVWICKET-43
p6525
aVWICKET-42
p6526
aVWICKET-41
p6527
aVWICKET-40
p6528
aVWICKET-39
p6529
aVWICKET-38
p6530
aVWICKET-37
p6531
aVWICKET-36
p6532
aVWICKET-35
p6533
aVWICKET-34
p6534
aVWICKET-33
p6535
aVWICKET-32
p6536
aVWICKET-31
p6537
aVWICKET-30
p6538
aVWICKET-29
p6539
aVWICKET-28
p6540
aVWICKET-27
p6541
aVWICKET-26
p6542
aVWICKET-25
p6543
aVWICKET-24
p6544
aVWICKET-23
p6545
aVWICKET-22
p6546
aVWICKET-21
p6547
aVWICKET-20
p6548
aVWICKET-19
p6549
aVWICKET-18
p6550
aVWICKET-17
p6551
aVWICKET-16
p6552
aVWICKET-15
p6553
aVWICKET-14
p6554
aVWICKET-13
p6555
aVWICKET-12
p6556
aVWICKET-11
p6557
aVWICKET-10
p6558
aVWICKET-9
p6559
aVWICKET-8
p6560
aVWICKET-7
p6561
aVWICKET-6
p6562
aVWICKET-5
p6563
aVWICKET-4
p6564
aVWICKET-3
p6565
aVWICKET-2
p6566
aVWICKET-1
p6567
a.