(lp0
VWINK-441
p1
aVWINK-440
p2
aVWINK-439
p3
aVWINK-438
p4
aVWINK-437
p5
aVWINK-436
p6
aVWINK-435
p7
aVWINK-434
p8
aVWINK-433
p9
aVWINK-432
p10
aVWINK-431
p11
aVWINK-430
p12
aVWINK-429
p13
aVWINK-428
p14
aVWINK-427
p15
aVWINK-426
p16
aVWINK-425
p17
aVWINK-424
p18
aVWINK-423
p19
aVWINK-422
p20
aVWINK-421
p21
aVWINK-420
p22
aVWINK-419
p23
aVWINK-418
p24
aVWINK-417
p25
aVWINK-416
p26
aVWINK-415
p27
aVWINK-414
p28
aVWINK-413
p29
aVWINK-412
p30
aVWINK-411
p31
aVWINK-410
p32
aVWINK-409
p33
aVWINK-408
p34
aVWINK-407
p35
aVWINK-406
p36
aVWINK-405
p37
aVWINK-404
p38
aVWINK-403
p39
aVWINK-402
p40
aVWINK-401
p41
aVWINK-400
p42
aVWINK-399
p43
aVWINK-398
p44
aVWINK-397
p45
aVWINK-396
p46
aVWINK-395
p47
aVWINK-394
p48
aVWINK-393
p49
aVWINK-392
p50
aVWINK-391
p51
aVWINK-390
p52
aVWINK-389
p53
aVWINK-388
p54
aVWINK-387
p55
aVWINK-386
p56
aVWINK-385
p57
aVWINK-384
p58
aVWINK-383
p59
aVWINK-382
p60
aVWINK-381
p61
aVWINK-380
p62
aVWINK-379
p63
aVWINK-378
p64
aVWINK-377
p65
aVWINK-376
p66
aVWINK-375
p67
aVWINK-374
p68
aVWINK-373
p69
aVWINK-372
p70
aVWINK-371
p71
aVWINK-370
p72
aVWINK-369
p73
aVWINK-368
p74
aVWINK-367
p75
aVWINK-366
p76
aVWINK-365
p77
aVWINK-364
p78
aVWINK-363
p79
aVWINK-362
p80
aVWINK-361
p81
aVWINK-360
p82
aVWINK-359
p83
aVWINK-358
p84
aVWINK-357
p85
aVWINK-356
p86
aVWINK-355
p87
aVWINK-354
p88
aVWINK-353
p89
aVWINK-352
p90
aVWINK-351
p91
aVWINK-350
p92
aVWINK-349
p93
aVWINK-348
p94
aVWINK-347
p95
aVWINK-346
p96
aVWINK-345
p97
aVWINK-344
p98
aVWINK-343
p99
aVWINK-342
p100
aVWINK-341
p101
aVWINK-340
p102
aVWINK-339
p103
aVWINK-338
p104
aVWINK-337
p105
aVWINK-336
p106
aVWINK-335
p107
aVWINK-334
p108
aVWINK-333
p109
aVWINK-332
p110
aVWINK-331
p111
aVWINK-330
p112
aVWINK-329
p113
aVWINK-328
p114
aVWINK-327
p115
aVWINK-326
p116
aVWINK-325
p117
aVWINK-323
p118
aVWINK-322
p119
aVWINK-321
p120
aVWINK-320
p121
aVWINK-319
p122
aVWINK-318
p123
aVWINK-317
p124
aVWINK-316
p125
aVWINK-315
p126
aVWINK-314
p127
aVWINK-313
p128
aVWINK-312
p129
aVWINK-311
p130
aVWINK-310
p131
aVWINK-309
p132
aVWINK-308
p133
aVWINK-307
p134
aVWINK-306
p135
aVWINK-305
p136
aVWINK-304
p137
aVWINK-303
p138
aVWINK-302
p139
aVWINK-301
p140
aVWINK-300
p141
aVWINK-299
p142
aVWINK-298
p143
aVWINK-297
p144
aVWINK-296
p145
aVWINK-295
p146
aVWINK-294
p147
aVWINK-293
p148
aVWINK-292
p149
aVWINK-291
p150
aVWINK-290
p151
aVWINK-289
p152
aVWINK-288
p153
aVWINK-287
p154
aVWINK-286
p155
aVWINK-285
p156
aVWINK-284
p157
aVWINK-283
p158
aVWINK-282
p159
aVWINK-281
p160
aVWINK-280
p161
aVWINK-279
p162
aVWINK-278
p163
aVWINK-277
p164
aVWINK-276
p165
aVWINK-275
p166
aVWINK-274
p167
aVWINK-273
p168
aVWINK-272
p169
aVWINK-271
p170
aVWINK-270
p171
aVWINK-269
p172
aVWINK-268
p173
aVWINK-267
p174
aVWINK-266
p175
aVWINK-265
p176
aVWINK-264
p177
aVWINK-263
p178
aVWINK-262
p179
aVWINK-261
p180
aVWINK-260
p181
aVWINK-259
p182
aVWINK-258
p183
aVWINK-257
p184
aVWINK-256
p185
aVWINK-255
p186
aVWINK-254
p187
aVWINK-253
p188
aVWINK-252
p189
aVWINK-251
p190
aVWINK-250
p191
aVWINK-249
p192
aVWINK-248
p193
aVWINK-247
p194
aVWINK-246
p195
aVWINK-245
p196
aVWINK-244
p197
aVWINK-243
p198
aVWINK-242
p199
aVWINK-241
p200
aVWINK-240
p201
aVWINK-239
p202
aVWINK-238
p203
aVWINK-237
p204
aVWINK-236
p205
aVWINK-235
p206
aVWINK-234
p207
aVWINK-233
p208
aVWINK-232
p209
aVWINK-231
p210
aVWINK-230
p211
aVWINK-229
p212
aVWINK-228
p213
aVWINK-227
p214
aVWINK-226
p215
aVWINK-225
p216
aVWINK-224
p217
aVWINK-223
p218
aVWINK-222
p219
aVWINK-221
p220
aVWINK-220
p221
aVWINK-219
p222
aVWINK-218
p223
aVWINK-217
p224
aVWINK-216
p225
aVWINK-215
p226
aVWINK-214
p227
aVWINK-213
p228
aVWINK-212
p229
aVWINK-211
p230
aVWINK-210
p231
aVWINK-209
p232
aVWINK-208
p233
aVWINK-207
p234
aVWINK-206
p235
aVWINK-205
p236
aVWINK-204
p237
aVWINK-203
p238
aVWINK-202
p239
aVWINK-201
p240
aVWINK-200
p241
aVWINK-199
p242
aVWINK-198
p243
aVWINK-197
p244
aVWINK-196
p245
aVWINK-195
p246
aVWINK-194
p247
aVWINK-193
p248
aVWINK-192
p249
aVWINK-191
p250
aVWINK-190
p251
aVWINK-189
p252
aVWINK-188
p253
aVWINK-187
p254
aVWINK-186
p255
aVWINK-185
p256
aVWINK-184
p257
aVWINK-183
p258
aVWINK-182
p259
aVWINK-181
p260
aVWINK-180
p261
aVWINK-179
p262
aVWINK-178
p263
aVWINK-177
p264
aVWINK-176
p265
aVWINK-175
p266
aVWINK-174
p267
aVWINK-173
p268
aVWINK-172
p269
aVWINK-171
p270
aVWINK-170
p271
aVWINK-169
p272
aVWINK-168
p273
aVWINK-167
p274
aVWINK-166
p275
aVWINK-165
p276
aVWINK-164
p277
aVWINK-163
p278
aVWINK-162
p279
aVWINK-161
p280
aVWINK-160
p281
aVWINK-159
p282
aVWINK-158
p283
aVWINK-157
p284
aVWINK-156
p285
aVWINK-155
p286
aVWINK-154
p287
aVWINK-153
p288
aVWINK-152
p289
aVWINK-151
p290
aVWINK-150
p291
aVWINK-149
p292
aVWINK-148
p293
aVWINK-147
p294
aVWINK-146
p295
aVWINK-145
p296
aVWINK-144
p297
aVWINK-143
p298
aVWINK-142
p299
aVWINK-141
p300
aVWINK-140
p301
aVWINK-138
p302
aVWINK-137
p303
aVWINK-136
p304
aVWINK-135
p305
aVWINK-134
p306
aVWINK-133
p307
aVWINK-132
p308
aVWINK-131
p309
aVWINK-130
p310
aVWINK-129
p311
aVWINK-128
p312
aVWINK-127
p313
aVWINK-126
p314
aVWINK-125
p315
aVWINK-124
p316
aVWINK-123
p317
aVWINK-122
p318
aVWINK-121
p319
aVWINK-120
p320
aVWINK-119
p321
aVWINK-118
p322
aVWINK-117
p323
aVWINK-116
p324
aVWINK-115
p325
aVWINK-114
p326
aVWINK-113
p327
aVWINK-112
p328
aVWINK-111
p329
aVWINK-110
p330
aVWINK-109
p331
aVWINK-108
p332
aVWINK-107
p333
aVWINK-106
p334
aVWINK-105
p335
aVWINK-104
p336
aVWINK-103
p337
aVWINK-102
p338
aVWINK-101
p339
aVWINK-100
p340
aVWINK-99
p341
aVWINK-98
p342
aVWINK-97
p343
aVWINK-96
p344
aVWINK-95
p345
aVWINK-94
p346
aVWINK-93
p347
aVWINK-92
p348
aVWINK-91
p349
aVWINK-90
p350
aVWINK-89
p351
aVWINK-88
p352
aVWINK-87
p353
aVWINK-86
p354
aVWINK-85
p355
aVWINK-84
p356
aVWINK-83
p357
aVWINK-82
p358
aVWINK-81
p359
aVWINK-80
p360
aVWINK-79
p361
aVWINK-78
p362
aVWINK-77
p363
aVWINK-76
p364
aVWINK-75
p365
aVWINK-74
p366
aVWINK-73
p367
aVWINK-72
p368
aVWINK-71
p369
aVWINK-70
p370
aVWINK-69
p371
aVWINK-68
p372
aVWINK-67
p373
aVWINK-66
p374
aVWINK-65
p375
aVWINK-64
p376
aVWINK-63
p377
aVWINK-62
p378
aVWINK-61
p379
aVWINK-60
p380
aVWINK-59
p381
aVWINK-58
p382
aVWINK-57
p383
aVWINK-56
p384
aVWINK-55
p385
aVWINK-54
p386
aVWINK-53
p387
aVWINK-52
p388
aVWINK-51
p389
aVWINK-50
p390
aVWINK-49
p391
aVWINK-48
p392
aVWINK-47
p393
aVWINK-46
p394
aVWINK-45
p395
aVWINK-44
p396
aVWINK-43
p397
aVWINK-42
p398
aVWINK-41
p399
aVWINK-40
p400
aVWINK-39
p401
aVWINK-38
p402
aVWINK-37
p403
aVWINK-36
p404
aVWINK-35
p405
aVWINK-34
p406
aVWINK-33
p407
aVWINK-32
p408
aVWINK-31
p409
aVWINK-30
p410
aVWINK-29
p411
aVWINK-28
p412
aVWINK-27
p413
aVWINK-26
p414
aVWINK-25
p415
aVWINK-24
p416
aVWINK-23
p417
aVWINK-22
p418
aVWINK-21
p419
aVWINK-20
p420
aVWINK-19
p421
aVWINK-18
p422
aVWINK-17
p423
aVWINK-16
p424
aVWINK-15
p425
aVWINK-14
p426
aVWINK-13
p427
aVWINK-12
p428
aVWINK-11
p429
aVWINK-10
p430
aVWINK-9
p431
aVWINK-8
p432
aVWINK-7
p433
aVWINK-6
p434
aVWINK-5
p435
aVWINK-4
p436
aVWINK-3
p437
aVWINK-2
p438
aVWINK-1
p439
a.