(lp0
VWOOKIE-433
p1
aVWOOKIE-432
p2
aVWOOKIE-431
p3
aVWOOKIE-430
p4
aVWOOKIE-429
p5
aVWOOKIE-428
p6
aVWOOKIE-427
p7
aVWOOKIE-426
p8
aVWOOKIE-425
p9
aVWOOKIE-424
p10
aVWOOKIE-423
p11
aVWOOKIE-422
p12
aVWOOKIE-421
p13
aVWOOKIE-420
p14
aVWOOKIE-419
p15
aVWOOKIE-418
p16
aVWOOKIE-417
p17
aVWOOKIE-416
p18
aVWOOKIE-415
p19
aVWOOKIE-414
p20
aVWOOKIE-413
p21
aVWOOKIE-412
p22
aVWOOKIE-411
p23
aVWOOKIE-410
p24
aVWOOKIE-409
p25
aVWOOKIE-408
p26
aVWOOKIE-407
p27
aVWOOKIE-406
p28
aVWOOKIE-405
p29
aVWOOKIE-404
p30
aVWOOKIE-403
p31
aVWOOKIE-402
p32
aVWOOKIE-401
p33
aVWOOKIE-400
p34
aVWOOKIE-399
p35
aVWOOKIE-398
p36
aVWOOKIE-397
p37
aVWOOKIE-396
p38
aVWOOKIE-395
p39
aVWOOKIE-394
p40
aVWOOKIE-393
p41
aVWOOKIE-392
p42
aVWOOKIE-391
p43
aVWOOKIE-390
p44
aVWOOKIE-389
p45
aVWOOKIE-388
p46
aVWOOKIE-387
p47
aVWOOKIE-386
p48
aVWOOKIE-385
p49
aVWOOKIE-384
p50
aVWOOKIE-383
p51
aVWOOKIE-382
p52
aVWOOKIE-381
p53
aVWOOKIE-380
p54
aVWOOKIE-379
p55
aVWOOKIE-378
p56
aVWOOKIE-377
p57
aVWOOKIE-376
p58
aVWOOKIE-375
p59
aVWOOKIE-374
p60
aVWOOKIE-373
p61
aVWOOKIE-372
p62
aVWOOKIE-371
p63
aVWOOKIE-370
p64
aVWOOKIE-369
p65
aVWOOKIE-368
p66
aVWOOKIE-367
p67
aVWOOKIE-366
p68
aVWOOKIE-365
p69
aVWOOKIE-364
p70
aVWOOKIE-363
p71
aVWOOKIE-362
p72
aVWOOKIE-361
p73
aVWOOKIE-360
p74
aVWOOKIE-359
p75
aVWOOKIE-358
p76
aVWOOKIE-357
p77
aVWOOKIE-356
p78
aVWOOKIE-355
p79
aVWOOKIE-354
p80
aVWOOKIE-353
p81
aVWOOKIE-352
p82
aVWOOKIE-351
p83
aVWOOKIE-350
p84
aVWOOKIE-349
p85
aVWOOKIE-348
p86
aVWOOKIE-347
p87
aVWOOKIE-346
p88
aVWOOKIE-345
p89
aVWOOKIE-344
p90
aVWOOKIE-343
p91
aVWOOKIE-342
p92
aVWOOKIE-341
p93
aVWOOKIE-340
p94
aVWOOKIE-339
p95
aVWOOKIE-338
p96
aVWOOKIE-337
p97
aVWOOKIE-336
p98
aVWOOKIE-335
p99
aVWOOKIE-334
p100
aVWOOKIE-333
p101
aVWOOKIE-332
p102
aVWOOKIE-331
p103
aVWOOKIE-330
p104
aVWOOKIE-329
p105
aVWOOKIE-328
p106
aVWOOKIE-327
p107
aVWOOKIE-326
p108
aVWOOKIE-325
p109
aVWOOKIE-324
p110
aVWOOKIE-323
p111
aVWOOKIE-322
p112
aVWOOKIE-321
p113
aVWOOKIE-320
p114
aVWOOKIE-319
p115
aVWOOKIE-318
p116
aVWOOKIE-317
p117
aVWOOKIE-316
p118
aVWOOKIE-315
p119
aVWOOKIE-314
p120
aVWOOKIE-313
p121
aVWOOKIE-312
p122
aVWOOKIE-311
p123
aVWOOKIE-310
p124
aVWOOKIE-309
p125
aVWOOKIE-308
p126
aVWOOKIE-307
p127
aVWOOKIE-306
p128
aVWOOKIE-305
p129
aVWOOKIE-304
p130
aVWOOKIE-303
p131
aVWOOKIE-302
p132
aVWOOKIE-301
p133
aVWOOKIE-300
p134
aVWOOKIE-299
p135
aVWOOKIE-298
p136
aVWOOKIE-297
p137
aVWOOKIE-296
p138
aVWOOKIE-295
p139
aVWOOKIE-294
p140
aVWOOKIE-293
p141
aVWOOKIE-292
p142
aVWOOKIE-291
p143
aVWOOKIE-290
p144
aVWOOKIE-289
p145
aVWOOKIE-288
p146
aVWOOKIE-287
p147
aVWOOKIE-286
p148
aVWOOKIE-285
p149
aVWOOKIE-284
p150
aVWOOKIE-283
p151
aVWOOKIE-282
p152
aVWOOKIE-281
p153
aVWOOKIE-280
p154
aVWOOKIE-279
p155
aVWOOKIE-278
p156
aVWOOKIE-277
p157
aVWOOKIE-276
p158
aVWOOKIE-275
p159
aVWOOKIE-274
p160
aVWOOKIE-273
p161
aVWOOKIE-272
p162
aVWOOKIE-271
p163
aVWOOKIE-270
p164
aVWOOKIE-269
p165
aVWOOKIE-268
p166
aVWOOKIE-267
p167
aVWOOKIE-266
p168
aVWOOKIE-265
p169
aVWOOKIE-264
p170
aVWOOKIE-263
p171
aVWOOKIE-262
p172
aVWOOKIE-261
p173
aVWOOKIE-260
p174
aVWOOKIE-259
p175
aVWOOKIE-258
p176
aVWOOKIE-257
p177
aVWOOKIE-256
p178
aVWOOKIE-255
p179
aVWOOKIE-254
p180
aVWOOKIE-253
p181
aVWOOKIE-252
p182
aVWOOKIE-251
p183
aVWOOKIE-250
p184
aVWOOKIE-249
p185
aVWOOKIE-248
p186
aVWOOKIE-247
p187
aVWOOKIE-246
p188
aVWOOKIE-245
p189
aVWOOKIE-244
p190
aVWOOKIE-243
p191
aVWOOKIE-242
p192
aVWOOKIE-241
p193
aVWOOKIE-240
p194
aVWOOKIE-239
p195
aVWOOKIE-238
p196
aVWOOKIE-237
p197
aVWOOKIE-236
p198
aVWOOKIE-235
p199
aVWOOKIE-234
p200
aVWOOKIE-233
p201
aVWOOKIE-232
p202
aVWOOKIE-231
p203
aVWOOKIE-230
p204
aVWOOKIE-229
p205
aVWOOKIE-228
p206
aVWOOKIE-227
p207
aVWOOKIE-226
p208
aVWOOKIE-225
p209
aVWOOKIE-224
p210
aVWOOKIE-223
p211
aVWOOKIE-222
p212
aVWOOKIE-221
p213
aVWOOKIE-220
p214
aVWOOKIE-219
p215
aVWOOKIE-218
p216
aVWOOKIE-217
p217
aVWOOKIE-215
p218
aVWOOKIE-214
p219
aVWOOKIE-213
p220
aVWOOKIE-212
p221
aVWOOKIE-211
p222
aVWOOKIE-210
p223
aVWOOKIE-209
p224
aVWOOKIE-208
p225
aVWOOKIE-207
p226
aVWOOKIE-206
p227
aVWOOKIE-205
p228
aVWOOKIE-204
p229
aVWOOKIE-203
p230
aVWOOKIE-202
p231
aVWOOKIE-201
p232
aVWOOKIE-200
p233
aVWOOKIE-199
p234
aVWOOKIE-198
p235
aVWOOKIE-197
p236
aVWOOKIE-196
p237
aVWOOKIE-195
p238
aVWOOKIE-194
p239
aVWOOKIE-193
p240
aVWOOKIE-192
p241
aVWOOKIE-191
p242
aVWOOKIE-190
p243
aVWOOKIE-189
p244
aVWOOKIE-188
p245
aVWOOKIE-187
p246
aVWOOKIE-186
p247
aVWOOKIE-185
p248
aVWOOKIE-184
p249
aVWOOKIE-183
p250
aVWOOKIE-182
p251
aVWOOKIE-181
p252
aVWOOKIE-180
p253
aVWOOKIE-179
p254
aVWOOKIE-178
p255
aVWOOKIE-177
p256
aVWOOKIE-176
p257
aVWOOKIE-175
p258
aVWOOKIE-174
p259
aVWOOKIE-173
p260
aVWOOKIE-172
p261
aVWOOKIE-171
p262
aVWOOKIE-170
p263
aVWOOKIE-169
p264
aVWOOKIE-168
p265
aVWOOKIE-167
p266
aVWOOKIE-166
p267
aVWOOKIE-165
p268
aVWOOKIE-164
p269
aVWOOKIE-163
p270
aVWOOKIE-162
p271
aVWOOKIE-161
p272
aVWOOKIE-160
p273
aVWOOKIE-159
p274
aVWOOKIE-158
p275
aVWOOKIE-157
p276
aVWOOKIE-156
p277
aVWOOKIE-155
p278
aVWOOKIE-154
p279
aVWOOKIE-153
p280
aVWOOKIE-152
p281
aVWOOKIE-151
p282
aVWOOKIE-150
p283
aVWOOKIE-149
p284
aVWOOKIE-148
p285
aVWOOKIE-147
p286
aVWOOKIE-146
p287
aVWOOKIE-145
p288
aVWOOKIE-144
p289
aVWOOKIE-143
p290
aVWOOKIE-142
p291
aVWOOKIE-141
p292
aVWOOKIE-140
p293
aVWOOKIE-139
p294
aVWOOKIE-138
p295
aVWOOKIE-137
p296
aVWOOKIE-136
p297
aVWOOKIE-135
p298
aVWOOKIE-134
p299
aVWOOKIE-133
p300
aVWOOKIE-132
p301
aVWOOKIE-131
p302
aVWOOKIE-130
p303
aVWOOKIE-129
p304
aVWOOKIE-128
p305
aVWOOKIE-127
p306
aVWOOKIE-126
p307
aVWOOKIE-125
p308
aVWOOKIE-124
p309
aVWOOKIE-123
p310
aVWOOKIE-122
p311
aVWOOKIE-121
p312
aVWOOKIE-120
p313
aVWOOKIE-119
p314
aVWOOKIE-118
p315
aVWOOKIE-117
p316
aVWOOKIE-116
p317
aVWOOKIE-115
p318
aVWOOKIE-114
p319
aVWOOKIE-113
p320
aVWOOKIE-112
p321
aVWOOKIE-111
p322
aVWOOKIE-110
p323
aVWOOKIE-109
p324
aVWOOKIE-108
p325
aVWOOKIE-107
p326
aVWOOKIE-106
p327
aVWOOKIE-105
p328
aVWOOKIE-104
p329
aVWOOKIE-103
p330
aVWOOKIE-102
p331
aVWOOKIE-101
p332
aVWOOKIE-100
p333
aVWOOKIE-99
p334
aVWOOKIE-98
p335
aVWOOKIE-97
p336
aVWOOKIE-96
p337
aVWOOKIE-95
p338
aVWOOKIE-94
p339
aVWOOKIE-93
p340
aVWOOKIE-92
p341
aVWOOKIE-91
p342
aVWOOKIE-90
p343
aVWOOKIE-89
p344
aVWOOKIE-88
p345
aVWOOKIE-87
p346
aVWOOKIE-86
p347
aVWOOKIE-85
p348
aVWOOKIE-84
p349
aVWOOKIE-83
p350
aVWOOKIE-82
p351
aVWOOKIE-81
p352
aVWOOKIE-80
p353
aVWOOKIE-79
p354
aVWOOKIE-78
p355
aVWOOKIE-77
p356
aVWOOKIE-76
p357
aVWOOKIE-75
p358
aVWOOKIE-74
p359
aVWOOKIE-73
p360
aVWOOKIE-72
p361
aVWOOKIE-71
p362
aVWOOKIE-70
p363
aVWOOKIE-69
p364
aVWOOKIE-68
p365
aVWOOKIE-67
p366
aVWOOKIE-66
p367
aVWOOKIE-65
p368
aVWOOKIE-64
p369
aVWOOKIE-63
p370
aVWOOKIE-62
p371
aVWOOKIE-61
p372
aVWOOKIE-60
p373
aVWOOKIE-59
p374
aVWOOKIE-58
p375
aVWOOKIE-57
p376
aVWOOKIE-56
p377
aVWOOKIE-55
p378
aVWOOKIE-54
p379
aVWOOKIE-53
p380
aVWOOKIE-52
p381
aVWOOKIE-51
p382
aVWOOKIE-50
p383
aVWOOKIE-49
p384
aVWOOKIE-48
p385
aVWOOKIE-47
p386
aVWOOKIE-46
p387
aVWOOKIE-45
p388
aVWOOKIE-44
p389
aVWOOKIE-43
p390
aVWOOKIE-42
p391
aVWOOKIE-41
p392
aVWOOKIE-40
p393
aVWOOKIE-39
p394
aVWOOKIE-38
p395
aVWOOKIE-37
p396
aVWOOKIE-36
p397
aVWOOKIE-35
p398
aVWOOKIE-34
p399
aVWOOKIE-33
p400
aVWOOKIE-29
p401
aVWOOKIE-28
p402
aVWOOKIE-26
p403
aVWOOKIE-25
p404
aVWOOKIE-24
p405
aVWOOKIE-23
p406
aVWOOKIE-22
p407
aVWOOKIE-21
p408
aVWOOKIE-20
p409
aVWOOKIE-19
p410
aVWOOKIE-18
p411
aVWOOKIE-17
p412
aVWOOKIE-16
p413
aVWOOKIE-15
p414
aVWOOKIE-14
p415
aVWOOKIE-13
p416
aVWOOKIE-12
p417
aVWOOKIE-11
p418
aVWOOKIE-7
p419
aVWOOKIE-6
p420
aVWOOKIE-5
p421
aVWOOKIE-4
p422
aVWOOKIE-3
p423
aVWOOKIE-2
p424
aVWOOKIE-1
p425
a.