(lp0
VWSS-631
p1
aVWSS-630
p2
aVWSS-629
p3
aVWSS-628
p4
aVWSS-627
p5
aVWSS-626
p6
aVWSS-625
p7
aVWSS-624
p8
aVWSS-623
p9
aVWSS-622
p10
aVWSS-621
p11
aVWSS-620
p12
aVWSS-619
p13
aVWSS-618
p14
aVWSS-617
p15
aVWSS-615
p16
aVWSS-614
p17
aVWSS-613
p18
aVWSS-612
p19
aVWSS-611
p20
aVWSS-610
p21
aVWSS-609
p22
aVWSS-608
p23
aVWSS-607
p24
aVWSS-606
p25
aVWSS-605
p26
aVWSS-604
p27
aVWSS-603
p28
aVWSS-602
p29
aVWSS-601
p30
aVWSS-600
p31
aVWSS-599
p32
aVWSS-598
p33
aVWSS-597
p34
aVWSS-596
p35
aVWSS-595
p36
aVWSS-594
p37
aVWSS-593
p38
aVWSS-592
p39
aVWSS-591
p40
aVWSS-590
p41
aVWSS-589
p42
aVWSS-588
p43
aVWSS-587
p44
aVWSS-586
p45
aVWSS-585
p46
aVWSS-584
p47
aVWSS-583
p48
aVWSS-582
p49
aVWSS-581
p50
aVWSS-580
p51
aVWSS-579
p52
aVWSS-578
p53
aVWSS-577
p54
aVWSS-576
p55
aVWSS-575
p56
aVWSS-574
p57
aVWSS-573
p58
aVWSS-572
p59
aVWSS-571
p60
aVWSS-570
p61
aVWSS-569
p62
aVWSS-568
p63
aVWSS-567
p64
aVWSS-566
p65
aVWSS-565
p66
aVWSS-564
p67
aVWSS-563
p68
aVWSS-562
p69
aVWSS-561
p70
aVWSS-560
p71
aVWSS-559
p72
aVWSS-558
p73
aVWSS-557
p74
aVWSS-556
p75
aVWSS-555
p76
aVWSS-554
p77
aVWSS-553
p78
aVWSS-552
p79
aVWSS-551
p80
aVWSS-550
p81
aVWSS-549
p82
aVWSS-548
p83
aVWSS-547
p84
aVWSS-546
p85
aVWSS-545
p86
aVWSS-544
p87
aVWSS-543
p88
aVWSS-542
p89
aVWSS-541
p90
aVWSS-540
p91
aVWSS-539
p92
aVWSS-538
p93
aVWSS-537
p94
aVWSS-536
p95
aVWSS-535
p96
aVWSS-534
p97
aVWSS-533
p98
aVWSS-532
p99
aVWSS-531
p100
aVWSS-530
p101
aVWSS-529
p102
aVWSS-528
p103
aVWSS-527
p104
aVWSS-526
p105
aVWSS-525
p106
aVWSS-524
p107
aVWSS-523
p108
aVWSS-522
p109
aVWSS-521
p110
aVWSS-520
p111
aVWSS-519
p112
aVWSS-518
p113
aVWSS-517
p114
aVWSS-516
p115
aVWSS-515
p116
aVWSS-514
p117
aVWSS-513
p118
aVWSS-512
p119
aVWSS-511
p120
aVWSS-510
p121
aVWSS-509
p122
aVWSS-508
p123
aVWSS-507
p124
aVWSS-506
p125
aVWSS-505
p126
aVWSS-504
p127
aVWSS-503
p128
aVWSS-502
p129
aVWSS-501
p130
aVWSS-500
p131
aVWSS-499
p132
aVWSS-498
p133
aVWSS-497
p134
aVWSS-496
p135
aVWSS-495
p136
aVWSS-494
p137
aVWSS-493
p138
aVWSS-492
p139
aVWSS-491
p140
aVWSS-490
p141
aVWSS-489
p142
aVWSS-488
p143
aVWSS-487
p144
aVWSS-486
p145
aVWSS-485
p146
aVWSS-484
p147
aVWSS-483
p148
aVWSS-482
p149
aVWSS-481
p150
aVWSS-480
p151
aVWSS-479
p152
aVWSS-478
p153
aVWSS-477
p154
aVWSS-476
p155
aVWSS-475
p156
aVWSS-474
p157
aVWSS-473
p158
aVWSS-472
p159
aVWSS-471
p160
aVWSS-470
p161
aVWSS-469
p162
aVWSS-468
p163
aVWSS-467
p164
aVWSS-466
p165
aVWSS-465
p166
aVWSS-464
p167
aVWSS-463
p168
aVWSS-462
p169
aVWSS-461
p170
aVWSS-460
p171
aVWSS-459
p172
aVWSS-458
p173
aVWSS-457
p174
aVWSS-456
p175
aVWSS-455
p176
aVWSS-454
p177
aVWSS-453
p178
aVWSS-452
p179
aVWSS-451
p180
aVWSS-450
p181
aVWSS-449
p182
aVWSS-448
p183
aVWSS-447
p184
aVWSS-446
p185
aVWSS-445
p186
aVWSS-444
p187
aVWSS-443
p188
aVWSS-442
p189
aVWSS-441
p190
aVWSS-440
p191
aVWSS-439
p192
aVWSS-438
p193
aVWSS-437
p194
aVWSS-436
p195
aVWSS-435
p196
aVWSS-434
p197
aVWSS-433
p198
aVWSS-432
p199
aVWSS-431
p200
aVWSS-430
p201
aVWSS-429
p202
aVWSS-428
p203
aVWSS-427
p204
aVWSS-426
p205
aVWSS-425
p206
aVWSS-424
p207
aVWSS-423
p208
aVWSS-422
p209
aVWSS-421
p210
aVWSS-420
p211
aVWSS-419
p212
aVWSS-418
p213
aVWSS-417
p214
aVWSS-416
p215
aVWSS-415
p216
aVWSS-414
p217
aVWSS-413
p218
aVWSS-412
p219
aVWSS-411
p220
aVWSS-410
p221
aVWSS-409
p222
aVWSS-408
p223
aVWSS-407
p224
aVWSS-406
p225
aVWSS-405
p226
aVWSS-404
p227
aVWSS-403
p228
aVWSS-402
p229
aVWSS-401
p230
aVWSS-400
p231
aVWSS-399
p232
aVWSS-398
p233
aVWSS-396
p234
aVWSS-395
p235
aVWSS-394
p236
aVWSS-393
p237
aVWSS-392
p238
aVWSS-391
p239
aVWSS-390
p240
aVWSS-389
p241
aVWSS-388
p242
aVWSS-387
p243
aVWSS-386
p244
aVWSS-385
p245
aVWSS-384
p246
aVWSS-383
p247
aVWSS-382
p248
aVWSS-381
p249
aVWSS-380
p250
aVWSS-379
p251
aVWSS-378
p252
aVWSS-377
p253
aVWSS-376
p254
aVWSS-375
p255
aVWSS-374
p256
aVWSS-373
p257
aVWSS-372
p258
aVWSS-371
p259
aVWSS-370
p260
aVWSS-369
p261
aVWSS-368
p262
aVWSS-367
p263
aVWSS-366
p264
aVWSS-365
p265
aVWSS-364
p266
aVWSS-363
p267
aVWSS-362
p268
aVWSS-361
p269
aVWSS-360
p270
aVWSS-359
p271
aVWSS-358
p272
aVWSS-357
p273
aVWSS-356
p274
aVWSS-355
p275
aVWSS-354
p276
aVWSS-353
p277
aVWSS-352
p278
aVWSS-351
p279
aVWSS-350
p280
aVWSS-349
p281
aVWSS-348
p282
aVWSS-347
p283
aVWSS-346
p284
aVWSS-345
p285
aVWSS-344
p286
aVWSS-343
p287
aVWSS-342
p288
aVWSS-341
p289
aVWSS-340
p290
aVWSS-339
p291
aVWSS-338
p292
aVWSS-337
p293
aVWSS-336
p294
aVWSS-335
p295
aVWSS-334
p296
aVWSS-333
p297
aVWSS-332
p298
aVWSS-331
p299
aVWSS-330
p300
aVWSS-329
p301
aVWSS-328
p302
aVWSS-327
p303
aVWSS-326
p304
aVWSS-325
p305
aVWSS-324
p306
aVWSS-323
p307
aVWSS-322
p308
aVWSS-321
p309
aVWSS-320
p310
aVWSS-319
p311
aVWSS-318
p312
aVWSS-317
p313
aVWSS-316
p314
aVWSS-315
p315
aVWSS-314
p316
aVWSS-313
p317
aVWSS-312
p318
aVWSS-311
p319
aVWSS-310
p320
aVWSS-309
p321
aVWSS-308
p322
aVWSS-307
p323
aVWSS-306
p324
aVWSS-305
p325
aVWSS-304
p326
aVWSS-303
p327
aVWSS-302
p328
aVWSS-301
p329
aVWSS-300
p330
aVWSS-299
p331
aVWSS-298
p332
aVWSS-297
p333
aVWSS-296
p334
aVWSS-295
p335
aVWSS-294
p336
aVWSS-293
p337
aVWSS-292
p338
aVWSS-291
p339
aVWSS-290
p340
aVWSS-289
p341
aVWSS-288
p342
aVWSS-287
p343
aVWSS-286
p344
aVWSS-285
p345
aVWSS-284
p346
aVWSS-283
p347
aVWSS-282
p348
aVWSS-281
p349
aVWSS-280
p350
aVWSS-279
p351
aVWSS-278
p352
aVWSS-277
p353
aVWSS-276
p354
aVWSS-275
p355
aVWSS-274
p356
aVWSS-273
p357
aVWSS-272
p358
aVWSS-271
p359
aVWSS-270
p360
aVWSS-269
p361
aVWSS-268
p362
aVWSS-267
p363
aVWSS-266
p364
aVWSS-265
p365
aVWSS-264
p366
aVWSS-263
p367
aVWSS-262
p368
aVWSS-261
p369
aVWSS-260
p370
aVWSS-259
p371
aVWSS-258
p372
aVWSS-257
p373
aVWSS-256
p374
aVWSS-255
p375
aVWSS-254
p376
aVWSS-253
p377
aVWSS-252
p378
aVWSS-251
p379
aVWSS-250
p380
aVWSS-249
p381
aVWSS-248
p382
aVWSS-247
p383
aVWSS-246
p384
aVWSS-245
p385
aVWSS-244
p386
aVWSS-243
p387
aVWSS-242
p388
aVWSS-241
p389
aVWSS-240
p390
aVWSS-239
p391
aVWSS-238
p392
aVWSS-237
p393
aVWSS-236
p394
aVWSS-235
p395
aVWSS-234
p396
aVWSS-233
p397
aVWSS-232
p398
aVWSS-231
p399
aVWSS-230
p400
aVWSS-229
p401
aVWSS-228
p402
aVWSS-227
p403
aVWSS-226
p404
aVWSS-225
p405
aVWSS-224
p406
aVWSS-223
p407
aVWSS-222
p408
aVWSS-221
p409
aVWSS-220
p410
aVWSS-219
p411
aVWSS-218
p412
aVWSS-217
p413
aVWSS-216
p414
aVWSS-215
p415
aVWSS-214
p416
aVWSS-213
p417
aVWSS-212
p418
aVWSS-211
p419
aVWSS-210
p420
aVWSS-209
p421
aVWSS-208
p422
aVWSS-207
p423
aVWSS-206
p424
aVWSS-205
p425
aVWSS-204
p426
aVWSS-203
p427
aVWSS-202
p428
aVWSS-201
p429
aVWSS-200
p430
aVWSS-199
p431
aVWSS-198
p432
aVWSS-197
p433
aVWSS-196
p434
aVWSS-195
p435
aVWSS-194
p436
aVWSS-193
p437
aVWSS-192
p438
aVWSS-191
p439
aVWSS-190
p440
aVWSS-189
p441
aVWSS-188
p442
aVWSS-187
p443
aVWSS-186
p444
aVWSS-185
p445
aVWSS-184
p446
aVWSS-183
p447
aVWSS-182
p448
aVWSS-181
p449
aVWSS-180
p450
aVWSS-179
p451
aVWSS-178
p452
aVWSS-177
p453
aVWSS-176
p454
aVWSS-175
p455
aVWSS-174
p456
aVWSS-173
p457
aVWSS-172
p458
aVWSS-171
p459
aVWSS-170
p460
aVWSS-169
p461
aVWSS-168
p462
aVWSS-167
p463
aVWSS-166
p464
aVWSS-165
p465
aVWSS-164
p466
aVWSS-163
p467
aVWSS-162
p468
aVWSS-161
p469
aVWSS-160
p470
aVWSS-159
p471
aVWSS-158
p472
aVWSS-157
p473
aVWSS-156
p474
aVWSS-155
p475
aVWSS-154
p476
aVWSS-153
p477
aVWSS-152
p478
aVWSS-151
p479
aVWSS-150
p480
aVWSS-149
p481
aVWSS-148
p482
aVWSS-147
p483
aVWSS-146
p484
aVWSS-145
p485
aVWSS-144
p486
aVWSS-143
p487
aVWSS-142
p488
aVWSS-141
p489
aVWSS-140
p490
aVWSS-139
p491
aVWSS-138
p492
aVWSS-137
p493
aVWSS-136
p494
aVWSS-135
p495
aVWSS-134
p496
aVWSS-133
p497
aVWSS-132
p498
aVWSS-131
p499
aVWSS-130
p500
aVWSS-129
p501
aVWSS-128
p502
aVWSS-127
p503
aVWSS-126
p504
aVWSS-125
p505
aVWSS-124
p506
aVWSS-123
p507
aVWSS-122
p508
aVWSS-121
p509
aVWSS-120
p510
aVWSS-119
p511
aVWSS-118
p512
aVWSS-117
p513
aVWSS-116
p514
aVWSS-115
p515
aVWSS-114
p516
aVWSS-113
p517
aVWSS-112
p518
aVWSS-111
p519
aVWSS-110
p520
aVWSS-109
p521
aVWSS-108
p522
aVWSS-107
p523
aVWSS-106
p524
aVWSS-105
p525
aVWSS-104
p526
aVWSS-103
p527
aVWSS-102
p528
aVWSS-101
p529
aVWSS-100
p530
aVWSS-99
p531
aVWSS-98
p532
aVWSS-97
p533
aVWSS-96
p534
aVWSS-95
p535
aVWSS-94
p536
aVWSS-93
p537
aVWSS-92
p538
aVWSS-91
p539
aVWSS-90
p540
aVWSS-89
p541
aVWSS-88
p542
aVWSS-87
p543
aVWSS-86
p544
aVWSS-85
p545
aVWSS-84
p546
aVWSS-83
p547
aVWSS-82
p548
aVWSS-81
p549
aVWSS-80
p550
aVWSS-79
p551
aVWSS-78
p552
aVWSS-77
p553
aVWSS-76
p554
aVWSS-75
p555
aVWSS-74
p556
aVWSS-73
p557
aVWSS-72
p558
aVWSS-71
p559
aVWSS-70
p560
aVWSS-69
p561
aVWSS-68
p562
aVWSS-67
p563
aVWSS-66
p564
aVWSS-65
p565
aVWSS-64
p566
aVWSS-63
p567
aVWSS-62
p568
aVWSS-61
p569
aVWSS-60
p570
aVWSS-59
p571
aVWSS-58
p572
aVWSS-57
p573
aVWSS-56
p574
aVWSS-55
p575
aVWSS-54
p576
aVWSS-53
p577
aVWSS-52
p578
aVWSS-51
p579
aVWSS-50
p580
aVWSS-49
p581
aVWSS-48
p582
aVWSS-47
p583
aVWSS-46
p584
aVWSS-45
p585
aVWSS-44
p586
aVWSS-43
p587
aVWSS-42
p588
aVWSS-41
p589
aVWSS-40
p590
aVWSS-39
p591
aVWSS-38
p592
aVWSS-37
p593
aVWSS-36
p594
aVWSS-35
p595
aVWSS-34
p596
aVWSS-33
p597
aVWSS-32
p598
aVWSS-31
p599
aVWSS-30
p600
aVWSS-29
p601
aVWSS-28
p602
aVWSS-27
p603
aVWSS-26
p604
aVWSS-25
p605
aVWSS-24
p606
aVWSS-23
p607
aVWSS-22
p608
aVWSS-21
p609
aVWSS-20
p610
aVWSS-19
p611
aVWSS-18
p612
aVWSS-17
p613
aVWSS-16
p614
aVWSS-15
p615
aVWSS-14
p616
aVWSS-13
p617
aVWSS-12
p618
aVWSS-11
p619
aVWSS-10
p620
aVWSS-8
p621
aVWSS-7
p622
aVWSS-6
p623
aVWSS-5
p624
aVWSS-4
p625
aVWSS-3
p626
aVWSS-2
p627
aVWSS-1
p628
a.