(lp0
VXERCESJ-1698
p1
aVXERCESJ-1697
p2
aVXERCESJ-1696
p3
aVXERCESJ-1695
p4
aVXERCESJ-1694
p5
aVXERCESJ-1693
p6
aVXERCESJ-1692
p7
aVXERCESJ-1691
p8
aVXERCESJ-1690
p9
aVXERCESJ-1689
p10
aVXERCESJ-1688
p11
aVXERCESJ-1687
p12
aVXERCESJ-1686
p13
aVXERCESJ-1685
p14
aVXERCESJ-1684
p15
aVXERCESJ-1683
p16
aVXERCESJ-1682
p17
aVXERCESJ-1681
p18
aVXERCESJ-1680
p19
aVXERCESJ-1679
p20
aVXERCESJ-1678
p21
aVXERCESJ-1677
p22
aVXERCESJ-1676
p23
aVXERCESJ-1675
p24
aVXERCESJ-1674
p25
aVXERCESJ-1673
p26
aVXERCESJ-1672
p27
aVXERCESJ-1671
p28
aVXERCESJ-1670
p29
aVXERCESJ-1669
p30
aVXERCESJ-1668
p31
aVXERCESJ-1667
p32
aVXERCESJ-1666
p33
aVXERCESJ-1665
p34
aVXERCESJ-1664
p35
aVXERCESJ-1663
p36
aVXERCESJ-1662
p37
aVXERCESJ-1661
p38
aVXERCESJ-1660
p39
aVXERCESJ-1659
p40
aVXERCESJ-1658
p41
aVXERCESJ-1657
p42
aVXERCESJ-1656
p43
aVXERCESJ-1655
p44
aVXERCESJ-1654
p45
aVXERCESJ-1653
p46
aVXERCESJ-1652
p47
aVXERCESJ-1651
p48
aVXERCESJ-1650
p49
aVXERCESJ-1649
p50
aVXERCESJ-1648
p51
aVXERCESJ-1647
p52
aVXERCESJ-1646
p53
aVXERCESJ-1645
p54
aVXERCESJ-1644
p55
aVXERCESJ-1643
p56
aVXERCESJ-1642
p57
aVXERCESJ-1641
p58
aVXERCESJ-1640
p59
aVXERCESJ-1639
p60
aVXERCESJ-1638
p61
aVXERCESJ-1637
p62
aVXERCESJ-1636
p63
aVXERCESJ-1635
p64
aVXERCESJ-1634
p65
aVXERCESJ-1633
p66
aVXERCESJ-1632
p67
aVXERCESJ-1631
p68
aVXERCESJ-1630
p69
aVXERCESJ-1629
p70
aVXERCESJ-1628
p71
aVXERCESJ-1627
p72
aVXERCESJ-1626
p73
aVXERCESJ-1625
p74
aVXERCESJ-1624
p75
aVXERCESJ-1623
p76
aVXERCESJ-1622
p77
aVXERCESJ-1621
p78
aVXERCESJ-1620
p79
aVXERCESJ-1619
p80
aVXERCESJ-1618
p81
aVXERCESJ-1617
p82
aVXERCESJ-1616
p83
aVXERCESJ-1615
p84
aVXERCESJ-1614
p85
aVXERCESJ-1613
p86
aVXERCESJ-1612
p87
aVXERCESJ-1611
p88
aVXERCESJ-1610
p89
aVXERCESJ-1609
p90
aVXERCESJ-1608
p91
aVXERCESJ-1607
p92
aVXERCESJ-1606
p93
aVXERCESJ-1605
p94
aVXERCESJ-1604
p95
aVXERCESJ-1603
p96
aVXERCESJ-1602
p97
aVXERCESJ-1601
p98
aVXERCESJ-1600
p99
aVXERCESJ-1599
p100
aVXERCESJ-1598
p101
aVXERCESJ-1597
p102
aVXERCESJ-1596
p103
aVXERCESJ-1595
p104
aVXERCESJ-1594
p105
aVXERCESJ-1593
p106
aVXERCESJ-1592
p107
aVXERCESJ-1591
p108
aVXERCESJ-1590
p109
aVXERCESJ-1589
p110
aVXERCESJ-1588
p111
aVXERCESJ-1587
p112
aVXERCESJ-1586
p113
aVXERCESJ-1585
p114
aVXERCESJ-1584
p115
aVXERCESJ-1583
p116
aVXERCESJ-1582
p117
aVXERCESJ-1581
p118
aVXERCESJ-1580
p119
aVXERCESJ-1579
p120
aVXERCESJ-1578
p121
aVXERCESJ-1577
p122
aVXERCESJ-1576
p123
aVXERCESJ-1575
p124
aVXERCESJ-1574
p125
aVXERCESJ-1573
p126
aVXERCESJ-1572
p127
aVXERCESJ-1571
p128
aVXERCESJ-1570
p129
aVXERCESJ-1569
p130
aVXERCESJ-1568
p131
aVXERCESJ-1567
p132
aVXERCESJ-1566
p133
aVXERCESJ-1565
p134
aVXERCESJ-1564
p135
aVXERCESJ-1563
p136
aVXERCESJ-1562
p137
aVXERCESJ-1561
p138
aVXERCESJ-1560
p139
aVXERCESJ-1559
p140
aVXERCESJ-1558
p141
aVXERCESJ-1557
p142
aVXERCESJ-1556
p143
aVXERCESJ-1555
p144
aVXERCESJ-1554
p145
aVXERCESJ-1553
p146
aVXERCESJ-1552
p147
aVXERCESJ-1551
p148
aVXERCESJ-1550
p149
aVXERCESJ-1549
p150
aVXERCESJ-1548
p151
aVXERCESJ-1547
p152
aVXERCESJ-1546
p153
aVXERCESJ-1545
p154
aVXERCESJ-1544
p155
aVXERCESJ-1543
p156
aVXERCESJ-1542
p157
aVXERCESJ-1541
p158
aVXERCESJ-1540
p159
aVXERCESJ-1539
p160
aVXERCESJ-1538
p161
aVXERCESJ-1537
p162
aVXERCESJ-1536
p163
aVXERCESJ-1535
p164
aVXERCESJ-1534
p165
aVXERCESJ-1533
p166
aVXERCESJ-1532
p167
aVXERCESJ-1531
p168
aVXERCESJ-1530
p169
aVXERCESJ-1529
p170
aVXERCESJ-1528
p171
aVXERCESJ-1527
p172
aVXERCESJ-1526
p173
aVXERCESJ-1525
p174
aVXERCESJ-1524
p175
aVXERCESJ-1523
p176
aVXERCESJ-1522
p177
aVXERCESJ-1521
p178
aVXERCESJ-1520
p179
aVXERCESJ-1519
p180
aVXERCESJ-1518
p181
aVXERCESJ-1517
p182
aVXERCESJ-1516
p183
aVXERCESJ-1515
p184
aVXERCESJ-1514
p185
aVXERCESJ-1513
p186
aVXERCESJ-1512
p187
aVXERCESJ-1511
p188
aVXERCESJ-1510
p189
aVXERCESJ-1509
p190
aVXERCESJ-1508
p191
aVXERCESJ-1507
p192
aVXERCESJ-1506
p193
aVXERCESJ-1505
p194
aVXERCESJ-1504
p195
aVXERCESJ-1503
p196
aVXERCESJ-1502
p197
aVXERCESJ-1501
p198
aVXERCESJ-1500
p199
aVXERCESJ-1499
p200
aVXERCESJ-1498
p201
aVXERCESJ-1497
p202
aVXERCESJ-1496
p203
aVXERCESJ-1495
p204
aVXERCESJ-1494
p205
aVXERCESJ-1493
p206
aVXERCESJ-1492
p207
aVXERCESJ-1491
p208
aVXERCESJ-1489
p209
aVXERCESJ-1488
p210
aVXERCESJ-1486
p211
aVXERCESJ-1485
p212
aVXERCESJ-1484
p213
aVXERCESJ-1483
p214
aVXERCESJ-1482
p215
aVXERCESJ-1481
p216
aVXERCESJ-1480
p217
aVXERCESJ-1479
p218
aVXERCESJ-1478
p219
aVXERCESJ-1477
p220
aVXERCESJ-1476
p221
aVXERCESJ-1475
p222
aVXERCESJ-1474
p223
aVXERCESJ-1473
p224
aVXERCESJ-1472
p225
aVXERCESJ-1470
p226
aVXERCESJ-1469
p227
aVXERCESJ-1468
p228
aVXERCESJ-1467
p229
aVXERCESJ-1466
p230
aVXERCESJ-1465
p231
aVXERCESJ-1464
p232
aVXERCESJ-1463
p233
aVXERCESJ-1462
p234
aVXERCESJ-1461
p235
aVXERCESJ-1460
p236
aVXERCESJ-1459
p237
aVXERCESJ-1458
p238
aVXERCESJ-1457
p239
aVXERCESJ-1456
p240
aVXERCESJ-1455
p241
aVXERCESJ-1454
p242
aVXERCESJ-1453
p243
aVXERCESJ-1452
p244
aVXERCESJ-1451
p245
aVXERCESJ-1450
p246
aVXERCESJ-1449
p247
aVXERCESJ-1448
p248
aVXERCESJ-1447
p249
aVXERCESJ-1446
p250
aVXERCESJ-1445
p251
aVXERCESJ-1444
p252
aVXERCESJ-1443
p253
aVXERCESJ-1442
p254
aVXERCESJ-1441
p255
aVXERCESJ-1440
p256
aVXERCESJ-1439
p257
aVXERCESJ-1438
p258
aVXERCESJ-1437
p259
aVXERCESJ-1436
p260
aVXERCESJ-1435
p261
aVXERCESJ-1434
p262
aVXERCESJ-1433
p263
aVXERCESJ-1432
p264
aVXERCESJ-1431
p265
aVXERCESJ-1430
p266
aVXERCESJ-1429
p267
aVXERCESJ-1428
p268
aVXERCESJ-1427
p269
aVXERCESJ-1426
p270
aVXERCESJ-1425
p271
aVXERCESJ-1424
p272
aVXERCESJ-1423
p273
aVXERCESJ-1422
p274
aVXERCESJ-1421
p275
aVXERCESJ-1420
p276
aVXERCESJ-1419
p277
aVXERCESJ-1418
p278
aVXERCESJ-1417
p279
aVXERCESJ-1416
p280
aVXERCESJ-1415
p281
aVXERCESJ-1414
p282
aVXERCESJ-1413
p283
aVXERCESJ-1412
p284
aVXERCESJ-1411
p285
aVXERCESJ-1410
p286
aVXERCESJ-1409
p287
aVXERCESJ-1408
p288
aVXERCESJ-1407
p289
aVXERCESJ-1406
p290
aVXERCESJ-1405
p291
aVXERCESJ-1404
p292
aVXERCESJ-1403
p293
aVXERCESJ-1402
p294
aVXERCESJ-1401
p295
aVXERCESJ-1400
p296
aVXERCESJ-1399
p297
aVXERCESJ-1398
p298
aVXERCESJ-1397
p299
aVXERCESJ-1396
p300
aVXERCESJ-1395
p301
aVXERCESJ-1394
p302
aVXERCESJ-1392
p303
aVXERCESJ-1391
p304
aVXERCESJ-1390
p305
aVXERCESJ-1389
p306
aVXERCESJ-1388
p307
aVXERCESJ-1387
p308
aVXERCESJ-1386
p309
aVXERCESJ-1385
p310
aVXERCESJ-1384
p311
aVXERCESJ-1383
p312
aVXERCESJ-1382
p313
aVXERCESJ-1381
p314
aVXERCESJ-1380
p315
aVXERCESJ-1379
p316
aVXERCESJ-1378
p317
aVXERCESJ-1377
p318
aVXERCESJ-1376
p319
aVXERCESJ-1375
p320
aVXERCESJ-1374
p321
aVXERCESJ-1373
p322
aVXERCESJ-1372
p323
aVXERCESJ-1371
p324
aVXERCESJ-1370
p325
aVXERCESJ-1369
p326
aVXERCESJ-1368
p327
aVXERCESJ-1367
p328
aVXERCESJ-1366
p329
aVXERCESJ-1365
p330
aVXERCESJ-1364
p331
aVXERCESJ-1363
p332
aVXERCESJ-1362
p333
aVXERCESJ-1361
p334
aVXERCESJ-1360
p335
aVXERCESJ-1359
p336
aVXERCESJ-1358
p337
aVXERCESJ-1357
p338
aVXERCESJ-1356
p339
aVXERCESJ-1355
p340
aVXERCESJ-1354
p341
aVXERCESJ-1353
p342
aVXERCESJ-1352
p343
aVXERCESJ-1351
p344
aVXERCESJ-1350
p345
aVXERCESJ-1349
p346
aVXERCESJ-1348
p347
aVXERCESJ-1347
p348
aVXERCESJ-1346
p349
aVXERCESJ-1345
p350
aVXERCESJ-1344
p351
aVXERCESJ-1343
p352
aVXERCESJ-1342
p353
aVXERCESJ-1341
p354
aVXERCESJ-1340
p355
aVXERCESJ-1339
p356
aVXERCESJ-1338
p357
aVXERCESJ-1337
p358
aVXERCESJ-1336
p359
aVXERCESJ-1335
p360
aVXERCESJ-1334
p361
aVXERCESJ-1333
p362
aVXERCESJ-1332
p363
aVXERCESJ-1331
p364
aVXERCESJ-1330
p365
aVXERCESJ-1329
p366
aVXERCESJ-1328
p367
aVXERCESJ-1327
p368
aVXERCESJ-1326
p369
aVXERCESJ-1325
p370
aVXERCESJ-1324
p371
aVXERCESJ-1323
p372
aVXERCESJ-1322
p373
aVXERCESJ-1321
p374
aVXERCESJ-1320
p375
aVXERCESJ-1319
p376
aVXERCESJ-1318
p377
aVXERCESJ-1317
p378
aVXERCESJ-1316
p379
aVXERCESJ-1315
p380
aVXERCESJ-1314
p381
aVXERCESJ-1313
p382
aVXERCESJ-1312
p383
aVXERCESJ-1311
p384
aVXERCESJ-1310
p385
aVXERCESJ-1309
p386
aVXERCESJ-1308
p387
aVXERCESJ-1307
p388
aVXERCESJ-1306
p389
aVXERCESJ-1305
p390
aVXERCESJ-1304
p391
aVXERCESJ-1303
p392
aVXERCESJ-1302
p393
aVXERCESJ-1301
p394
aVXERCESJ-1300
p395
aVXERCESJ-1299
p396
aVXERCESJ-1298
p397
aVXERCESJ-1297
p398
aVXERCESJ-1296
p399
aVXERCESJ-1295
p400
aVXERCESJ-1294
p401
aVXERCESJ-1293
p402
aVXERCESJ-1292
p403
aVXERCESJ-1291
p404
aVXERCESJ-1290
p405
aVXERCESJ-1289
p406
aVXERCESJ-1288
p407
aVXERCESJ-1287
p408
aVXERCESJ-1286
p409
aVXERCESJ-1285
p410
aVXERCESJ-1284
p411
aVXERCESJ-1283
p412
aVXERCESJ-1282
p413
aVXERCESJ-1281
p414
aVXERCESJ-1280
p415
aVXERCESJ-1279
p416
aVXERCESJ-1278
p417
aVXERCESJ-1276
p418
aVXERCESJ-1275
p419
aVXERCESJ-1274
p420
aVXERCESJ-1273
p421
aVXERCESJ-1272
p422
aVXERCESJ-1271
p423
aVXERCESJ-1270
p424
aVXERCESJ-1269
p425
aVXERCESJ-1267
p426
aVXERCESJ-1266
p427
aVXERCESJ-1265
p428
aVXERCESJ-1264
p429
aVXERCESJ-1263
p430
aVXERCESJ-1262
p431
aVXERCESJ-1261
p432
aVXERCESJ-1260
p433
aVXERCESJ-1259
p434
aVXERCESJ-1258
p435
aVXERCESJ-1257
p436
aVXERCESJ-1256
p437
aVXERCESJ-1255
p438
aVXERCESJ-1254
p439
aVXERCESJ-1253
p440
aVXERCESJ-1252
p441
aVXERCESJ-1251
p442
aVXERCESJ-1250
p443
aVXERCESJ-1249
p444
aVXERCESJ-1248
p445
aVXERCESJ-1247
p446
aVXERCESJ-1246
p447
aVXERCESJ-1245
p448
aVXERCESJ-1244
p449
aVXERCESJ-1243
p450
aVXERCESJ-1242
p451
aVXERCESJ-1241
p452
aVXERCESJ-1240
p453
aVXERCESJ-1239
p454
aVXERCESJ-1238
p455
aVXERCESJ-1237
p456
aVXERCESJ-1236
p457
aVXERCESJ-1235
p458
aVXERCESJ-1234
p459
aVXERCESJ-1233
p460
aVXERCESJ-1232
p461
aVXERCESJ-1231
p462
aVXERCESJ-1230
p463
aVXERCESJ-1229
p464
aVXERCESJ-1228
p465
aVXERCESJ-1227
p466
aVXERCESJ-1226
p467
aVXERCESJ-1225
p468
aVXERCESJ-1224
p469
aVXERCESJ-1223
p470
aVXERCESJ-1222
p471
aVXERCESJ-1221
p472
aVXERCESJ-1220
p473
aVXERCESJ-1219
p474
aVXERCESJ-1218
p475
aVXERCESJ-1217
p476
aVXERCESJ-1216
p477
aVXERCESJ-1215
p478
aVXERCESJ-1214
p479
aVXERCESJ-1213
p480
aVXERCESJ-1212
p481
aVXERCESJ-1211
p482
aVXERCESJ-1210
p483
aVXERCESJ-1209
p484
aVXERCESJ-1208
p485
aVXERCESJ-1207
p486
aVXERCESJ-1206
p487
aVXERCESJ-1205
p488
aVXERCESJ-1204
p489
aVXERCESJ-1203
p490
aVXERCESJ-1202
p491
aVXERCESJ-1201
p492
aVXERCESJ-1200
p493
aVXERCESJ-1199
p494
aVXERCESJ-1198
p495
aVXERCESJ-1197
p496
aVXERCESJ-1196
p497
aVXERCESJ-1195
p498
aVXERCESJ-1194
p499
aVXERCESJ-1193
p500
aVXERCESJ-1192
p501
aVXERCESJ-1191
p502
aVXERCESJ-1190
p503
aVXERCESJ-1189
p504
aVXERCESJ-1188
p505
aVXERCESJ-1187
p506
aVXERCESJ-1186
p507
aVXERCESJ-1185
p508
aVXERCESJ-1184
p509
aVXERCESJ-1183
p510
aVXERCESJ-1182
p511
aVXERCESJ-1181
p512
aVXERCESJ-1180
p513
aVXERCESJ-1179
p514
aVXERCESJ-1178
p515
aVXERCESJ-1177
p516
aVXERCESJ-1176
p517
aVXERCESJ-1175
p518
aVXERCESJ-1174
p519
aVXERCESJ-1173
p520
aVXERCESJ-1172
p521
aVXERCESJ-1171
p522
aVXERCESJ-1170
p523
aVXERCESJ-1169
p524
aVXERCESJ-1168
p525
aVXERCESJ-1167
p526
aVXERCESJ-1166
p527
aVXERCESJ-1165
p528
aVXERCESJ-1164
p529
aVXERCESJ-1163
p530
aVXERCESJ-1162
p531
aVXERCESJ-1161
p532
aVXERCESJ-1160
p533
aVXERCESJ-1159
p534
aVXERCESJ-1158
p535
aVXERCESJ-1157
p536
aVXERCESJ-1156
p537
aVXERCESJ-1155
p538
aVXERCESJ-1154
p539
aVXERCESJ-1153
p540
aVXERCESJ-1152
p541
aVXERCESJ-1151
p542
aVXERCESJ-1150
p543
aVXERCESJ-1149
p544
aVXERCESJ-1148
p545
aVXERCESJ-1147
p546
aVXERCESJ-1146
p547
aVXERCESJ-1145
p548
aVXERCESJ-1144
p549
aVXERCESJ-1143
p550
aVXERCESJ-1142
p551
aVXERCESJ-1141
p552
aVXERCESJ-1140
p553
aVXERCESJ-1139
p554
aVXERCESJ-1138
p555
aVXERCESJ-1137
p556
aVXERCESJ-1136
p557
aVXERCESJ-1135
p558
aVXERCESJ-1134
p559
aVXERCESJ-1133
p560
aVXERCESJ-1132
p561
aVXERCESJ-1131
p562
aVXERCESJ-1130
p563
aVXERCESJ-1129
p564
aVXERCESJ-1128
p565
aVXERCESJ-1127
p566
aVXERCESJ-1126
p567
aVXERCESJ-1125
p568
aVXERCESJ-1124
p569
aVXERCESJ-1123
p570
aVXERCESJ-1122
p571
aVXERCESJ-1121
p572
aVXERCESJ-1120
p573
aVXERCESJ-1119
p574
aVXERCESJ-1118
p575
aVXERCESJ-1117
p576
aVXERCESJ-1116
p577
aVXERCESJ-1115
p578
aVXERCESJ-1114
p579
aVXERCESJ-1113
p580
aVXERCESJ-1112
p581
aVXERCESJ-1111
p582
aVXERCESJ-1110
p583
aVXERCESJ-1109
p584
aVXERCESJ-1108
p585
aVXERCESJ-1107
p586
aVXERCESJ-1106
p587
aVXERCESJ-1105
p588
aVXERCESJ-1104
p589
aVXERCESJ-1103
p590
aVXERCESJ-1102
p591
aVXERCESJ-1101
p592
aVXERCESJ-1100
p593
aVXERCESJ-1099
p594
aVXERCESJ-1097
p595
aVXERCESJ-1096
p596
aVXERCESJ-1095
p597
aVXERCESJ-1094
p598
aVXERCESJ-1093
p599
aVXERCESJ-1092
p600
aVXERCESJ-1091
p601
aVXERCESJ-1090
p602
aVXERCESJ-1089
p603
aVXERCESJ-1088
p604
aVXERCESJ-1087
p605
aVXERCESJ-1086
p606
aVXERCESJ-1085
p607
aVXERCESJ-1084
p608
aVXERCESJ-1083
p609
aVXERCESJ-1082
p610
aVXERCESJ-1081
p611
aVXERCESJ-1080
p612
aVXERCESJ-1079
p613
aVXERCESJ-1078
p614
aVXERCESJ-1077
p615
aVXERCESJ-1076
p616
aVXERCESJ-1075
p617
aVXERCESJ-1074
p618
aVXERCESJ-1073
p619
aVXERCESJ-1072
p620
aVXERCESJ-1071
p621
aVXERCESJ-1070
p622
aVXERCESJ-1069
p623
aVXERCESJ-1068
p624
aVXERCESJ-1067
p625
aVXERCESJ-1066
p626
aVXERCESJ-1065
p627
aVXERCESJ-1064
p628
aVXERCESJ-1063
p629
aVXERCESJ-1062
p630
aVXERCESJ-1061
p631
aVXERCESJ-1060
p632
aVXERCESJ-1059
p633
aVXERCESJ-1058
p634
aVXERCESJ-1057
p635
aVXERCESJ-1056
p636
aVXERCESJ-1055
p637
aVXERCESJ-1054
p638
aVXERCESJ-1053
p639
aVXERCESJ-1052
p640
aVXERCESJ-1051
p641
aVXERCESJ-1050
p642
aVXERCESJ-1049
p643
aVXERCESJ-1048
p644
aVXERCESJ-1047
p645
aVXERCESJ-1046
p646
aVXERCESJ-1045
p647
aVXERCESJ-1044
p648
aVXERCESJ-1043
p649
aVXERCESJ-1042
p650
aVXERCESJ-1041
p651
aVXERCESJ-1040
p652
aVXERCESJ-1039
p653
aVXERCESJ-1038
p654
aVXERCESJ-1037
p655
aVXERCESJ-1036
p656
aVXERCESJ-1035
p657
aVXERCESJ-1034
p658
aVXERCESJ-1033
p659
aVXERCESJ-1032
p660
aVXERCESJ-1031
p661
aVXERCESJ-1030
p662
aVXERCESJ-1029
p663
aVXERCESJ-1028
p664
aVXERCESJ-1027
p665
aVXERCESJ-1026
p666
aVXERCESJ-1025
p667
aVXERCESJ-1024
p668
aVXERCESJ-1023
p669
aVXERCESJ-1022
p670
aVXERCESJ-1021
p671
aVXERCESJ-1020
p672
aVXERCESJ-1019
p673
aVXERCESJ-1018
p674
aVXERCESJ-1017
p675
aVXERCESJ-1016
p676
aVXERCESJ-1015
p677
aVXERCESJ-1014
p678
aVXERCESJ-1013
p679
aVXERCESJ-1011
p680
aVXERCESJ-1010
p681
aVXERCESJ-1009
p682
aVXERCESJ-1007
p683
aVXERCESJ-1006
p684
aVXERCESJ-1005
p685
aVXERCESJ-1004
p686
aVXERCESJ-1003
p687
aVXERCESJ-1002
p688
aVXERCESJ-1001
p689
aVXERCESJ-1000
p690
aVXERCESJ-999
p691
aVXERCESJ-998
p692
aVXERCESJ-997
p693
aVXERCESJ-996
p694
aVXERCESJ-995
p695
aVXERCESJ-994
p696
aVXERCESJ-993
p697
aVXERCESJ-992
p698
aVXERCESJ-991
p699
aVXERCESJ-990
p700
aVXERCESJ-989
p701
aVXERCESJ-988
p702
aVXERCESJ-987
p703
aVXERCESJ-986
p704
aVXERCESJ-985
p705
aVXERCESJ-984
p706
aVXERCESJ-983
p707
aVXERCESJ-982
p708
aVXERCESJ-981
p709
aVXERCESJ-980
p710
aVXERCESJ-979
p711
aVXERCESJ-978
p712
aVXERCESJ-977
p713
aVXERCESJ-976
p714
aVXERCESJ-975
p715
aVXERCESJ-974
p716
aVXERCESJ-973
p717
aVXERCESJ-972
p718
aVXERCESJ-971
p719
aVXERCESJ-970
p720
aVXERCESJ-969
p721
aVXERCESJ-968
p722
aVXERCESJ-967
p723
aVXERCESJ-966
p724
aVXERCESJ-965
p725
aVXERCESJ-964
p726
aVXERCESJ-963
p727
aVXERCESJ-962
p728
aVXERCESJ-961
p729
aVXERCESJ-960
p730
aVXERCESJ-959
p731
aVXERCESJ-958
p732
aVXERCESJ-957
p733
aVXERCESJ-956
p734
aVXERCESJ-955
p735
aVXERCESJ-954
p736
aVXERCESJ-953
p737
aVXERCESJ-952
p738
aVXERCESJ-951
p739
aVXERCESJ-950
p740
aVXERCESJ-949
p741
aVXERCESJ-948
p742
aVXERCESJ-947
p743
aVXERCESJ-946
p744
aVXERCESJ-945
p745
aVXERCESJ-944
p746
aVXERCESJ-943
p747
aVXERCESJ-942
p748
aVXERCESJ-941
p749
aVXERCESJ-940
p750
aVXERCESJ-939
p751
aVXERCESJ-938
p752
aVXERCESJ-937
p753
aVXERCESJ-936
p754
aVXERCESJ-935
p755
aVXERCESJ-934
p756
aVXERCESJ-933
p757
aVXERCESJ-932
p758
aVXERCESJ-931
p759
aVXERCESJ-930
p760
aVXERCESJ-929
p761
aVXERCESJ-928
p762
aVXERCESJ-927
p763
aVXERCESJ-926
p764
aVXERCESJ-925
p765
aVXERCESJ-924
p766
aVXERCESJ-923
p767
aVXERCESJ-922
p768
aVXERCESJ-921
p769
aVXERCESJ-920
p770
aVXERCESJ-919
p771
aVXERCESJ-918
p772
aVXERCESJ-917
p773
aVXERCESJ-916
p774
aVXERCESJ-915
p775
aVXERCESJ-914
p776
aVXERCESJ-913
p777
aVXERCESJ-912
p778
aVXERCESJ-911
p779
aVXERCESJ-910
p780
aVXERCESJ-909
p781
aVXERCESJ-908
p782
aVXERCESJ-907
p783
aVXERCESJ-906
p784
aVXERCESJ-905
p785
aVXERCESJ-904
p786
aVXERCESJ-903
p787
aVXERCESJ-902
p788
aVXERCESJ-901
p789
aVXERCESJ-900
p790
aVXERCESJ-899
p791
aVXERCESJ-898
p792
aVXERCESJ-897
p793
aVXERCESJ-896
p794
aVXERCESJ-895
p795
aVXERCESJ-894
p796
aVXERCESJ-893
p797
aVXERCESJ-892
p798
aVXERCESJ-891
p799
aVXERCESJ-890
p800
aVXERCESJ-889
p801
aVXERCESJ-888
p802
aVXERCESJ-887
p803
aVXERCESJ-886
p804
aVXERCESJ-885
p805
aVXERCESJ-884
p806
aVXERCESJ-883
p807
aVXERCESJ-882
p808
aVXERCESJ-881
p809
aVXERCESJ-880
p810
aVXERCESJ-879
p811
aVXERCESJ-878
p812
aVXERCESJ-877
p813
aVXERCESJ-876
p814
aVXERCESJ-875
p815
aVXERCESJ-874
p816
aVXERCESJ-873
p817
aVXERCESJ-872
p818
aVXERCESJ-871
p819
aVXERCESJ-870
p820
aVXERCESJ-869
p821
aVXERCESJ-868
p822
aVXERCESJ-867
p823
aVXERCESJ-866
p824
aVXERCESJ-865
p825
aVXERCESJ-864
p826
aVXERCESJ-863
p827
aVXERCESJ-862
p828
aVXERCESJ-861
p829
aVXERCESJ-860
p830
aVXERCESJ-859
p831
aVXERCESJ-858
p832
aVXERCESJ-857
p833
aVXERCESJ-856
p834
aVXERCESJ-855
p835
aVXERCESJ-854
p836
aVXERCESJ-853
p837
aVXERCESJ-852
p838
aVXERCESJ-851
p839
aVXERCESJ-850
p840
aVXERCESJ-849
p841
aVXERCESJ-848
p842
aVXERCESJ-847
p843
aVXERCESJ-846
p844
aVXERCESJ-845
p845
aVXERCESJ-844
p846
aVXERCESJ-843
p847
aVXERCESJ-842
p848
aVXERCESJ-841
p849
aVXERCESJ-840
p850
aVXERCESJ-839
p851
aVXERCESJ-838
p852
aVXERCESJ-837
p853
aVXERCESJ-836
p854
aVXERCESJ-835
p855
aVXERCESJ-834
p856
aVXERCESJ-833
p857
aVXERCESJ-832
p858
aVXERCESJ-831
p859
aVXERCESJ-830
p860
aVXERCESJ-829
p861
aVXERCESJ-828
p862
aVXERCESJ-827
p863
aVXERCESJ-826
p864
aVXERCESJ-825
p865
aVXERCESJ-824
p866
aVXERCESJ-823
p867
aVXERCESJ-822
p868
aVXERCESJ-821
p869
aVXERCESJ-820
p870
aVXERCESJ-819
p871
aVXERCESJ-818
p872
aVXERCESJ-817
p873
aVXERCESJ-816
p874
aVXERCESJ-815
p875
aVXERCESJ-814
p876
aVXERCESJ-813
p877
aVXERCESJ-812
p878
aVXERCESJ-811
p879
aVXERCESJ-810
p880
aVXERCESJ-809
p881
aVXERCESJ-808
p882
aVXERCESJ-807
p883
aVXERCESJ-806
p884
aVXERCESJ-805
p885
aVXERCESJ-804
p886
aVXERCESJ-803
p887
aVXERCESJ-802
p888
aVXERCESJ-801
p889
aVXERCESJ-800
p890
aVXERCESJ-799
p891
aVXERCESJ-798
p892
aVXERCESJ-797
p893
aVXERCESJ-796
p894
aVXERCESJ-795
p895
aVXERCESJ-794
p896
aVXERCESJ-793
p897
aVXERCESJ-792
p898
aVXERCESJ-791
p899
aVXERCESJ-790
p900
aVXERCESJ-789
p901
aVXERCESJ-788
p902
aVXERCESJ-787
p903
aVXERCESJ-786
p904
aVXERCESJ-785
p905
aVXERCESJ-784
p906
aVXERCESJ-783
p907
aVXERCESJ-782
p908
aVXERCESJ-781
p909
aVXERCESJ-780
p910
aVXERCESJ-779
p911
aVXERCESJ-778
p912
aVXERCESJ-777
p913
aVXERCESJ-776
p914
aVXERCESJ-775
p915
aVXERCESJ-774
p916
aVXERCESJ-773
p917
aVXERCESJ-772
p918
aVXERCESJ-771
p919
aVXERCESJ-770
p920
aVXERCESJ-769
p921
aVXERCESJ-768
p922
aVXERCESJ-767
p923
aVXERCESJ-766
p924
aVXERCESJ-765
p925
aVXERCESJ-764
p926
aVXERCESJ-763
p927
aVXERCESJ-762
p928
aVXERCESJ-761
p929
aVXERCESJ-760
p930
aVXERCESJ-759
p931
aVXERCESJ-758
p932
aVXERCESJ-757
p933
aVXERCESJ-756
p934
aVXERCESJ-755
p935
aVXERCESJ-754
p936
aVXERCESJ-753
p937
aVXERCESJ-752
p938
aVXERCESJ-751
p939
aVXERCESJ-750
p940
aVXERCESJ-749
p941
aVXERCESJ-748
p942
aVXERCESJ-747
p943
aVXERCESJ-746
p944
aVXERCESJ-745
p945
aVXERCESJ-744
p946
aVXERCESJ-743
p947
aVXERCESJ-742
p948
aVXERCESJ-741
p949
aVXERCESJ-740
p950
aVXERCESJ-739
p951
aVXERCESJ-738
p952
aVXERCESJ-737
p953
aVXERCESJ-736
p954
aVXERCESJ-735
p955
aVXERCESJ-734
p956
aVXERCESJ-733
p957
aVXERCESJ-732
p958
aVXERCESJ-731
p959
aVXERCESJ-730
p960
aVXERCESJ-729
p961
aVXERCESJ-728
p962
aVXERCESJ-727
p963
aVXERCESJ-726
p964
aVXERCESJ-725
p965
aVXERCESJ-724
p966
aVXERCESJ-723
p967
aVXERCESJ-722
p968
aVXERCESJ-721
p969
aVXERCESJ-720
p970
aVXERCESJ-719
p971
aVXERCESJ-718
p972
aVXERCESJ-717
p973
aVXERCESJ-716
p974
aVXERCESJ-715
p975
aVXERCESJ-714
p976
aVXERCESJ-713
p977
aVXERCESJ-712
p978
aVXERCESJ-711
p979
aVXERCESJ-710
p980
aVXERCESJ-709
p981
aVXERCESJ-708
p982
aVXERCESJ-707
p983
aVXERCESJ-706
p984
aVXERCESJ-705
p985
aVXERCESJ-704
p986
aVXERCESJ-703
p987
aVXERCESJ-702
p988
aVXERCESJ-701
p989
aVXERCESJ-700
p990
aVXERCESJ-699
p991
aVXERCESJ-698
p992
aVXERCESJ-697
p993
aVXERCESJ-696
p994
aVXERCESJ-695
p995
aVXERCESJ-694
p996
aVXERCESJ-693
p997
aVXERCESJ-692
p998
aVXERCESJ-691
p999
aVXERCESJ-690
p1000
aVXERCESJ-689
p1001
aVXERCESJ-688
p1002
aVXERCESJ-687
p1003
aVXERCESJ-686
p1004
aVXERCESJ-685
p1005
aVXERCESJ-684
p1006
aVXERCESJ-683
p1007
aVXERCESJ-682
p1008
aVXERCESJ-681
p1009
aVXERCESJ-680
p1010
aVXERCESJ-679
p1011
aVXERCESJ-678
p1012
aVXERCESJ-677
p1013
aVXERCESJ-676
p1014
aVXERCESJ-675
p1015
aVXERCESJ-674
p1016
aVXERCESJ-673
p1017
aVXERCESJ-672
p1018
aVXERCESJ-671
p1019
aVXERCESJ-670
p1020
aVXERCESJ-669
p1021
aVXERCESJ-668
p1022
aVXERCESJ-667
p1023
aVXERCESJ-666
p1024
aVXERCESJ-665
p1025
aVXERCESJ-664
p1026
aVXERCESJ-663
p1027
aVXERCESJ-662
p1028
aVXERCESJ-661
p1029
aVXERCESJ-660
p1030
aVXERCESJ-659
p1031
aVXERCESJ-658
p1032
aVXERCESJ-657
p1033
aVXERCESJ-656
p1034
aVXERCESJ-655
p1035
aVXERCESJ-654
p1036
aVXERCESJ-653
p1037
aVXERCESJ-652
p1038
aVXERCESJ-651
p1039
aVXERCESJ-650
p1040
aVXERCESJ-649
p1041
aVXERCESJ-648
p1042
aVXERCESJ-647
p1043
aVXERCESJ-646
p1044
aVXERCESJ-645
p1045
aVXERCESJ-644
p1046
aVXERCESJ-643
p1047
aVXERCESJ-642
p1048
aVXERCESJ-641
p1049
aVXERCESJ-640
p1050
aVXERCESJ-639
p1051
aVXERCESJ-638
p1052
aVXERCESJ-637
p1053
aVXERCESJ-636
p1054
aVXERCESJ-635
p1055
aVXERCESJ-634
p1056
aVXERCESJ-633
p1057
aVXERCESJ-632
p1058
aVXERCESJ-631
p1059
aVXERCESJ-630
p1060
aVXERCESJ-629
p1061
aVXERCESJ-628
p1062
aVXERCESJ-627
p1063
aVXERCESJ-626
p1064
aVXERCESJ-625
p1065
aVXERCESJ-624
p1066
aVXERCESJ-623
p1067
aVXERCESJ-622
p1068
aVXERCESJ-621
p1069
aVXERCESJ-620
p1070
aVXERCESJ-619
p1071
aVXERCESJ-618
p1072
aVXERCESJ-617
p1073
aVXERCESJ-616
p1074
aVXERCESJ-615
p1075
aVXERCESJ-614
p1076
aVXERCESJ-613
p1077
aVXERCESJ-612
p1078
aVXERCESJ-611
p1079
aVXERCESJ-610
p1080
aVXERCESJ-609
p1081
aVXERCESJ-608
p1082
aVXERCESJ-607
p1083
aVXERCESJ-606
p1084
aVXERCESJ-605
p1085
aVXERCESJ-604
p1086
aVXERCESJ-603
p1087
aVXERCESJ-602
p1088
aVXERCESJ-601
p1089
aVXERCESJ-600
p1090
aVXERCESJ-599
p1091
aVXERCESJ-598
p1092
aVXERCESJ-597
p1093
aVXERCESJ-596
p1094
aVXERCESJ-595
p1095
aVXERCESJ-594
p1096
aVXERCESJ-593
p1097
aVXERCESJ-592
p1098
aVXERCESJ-591
p1099
aVXERCESJ-590
p1100
aVXERCESJ-589
p1101
aVXERCESJ-588
p1102
aVXERCESJ-587
p1103
aVXERCESJ-586
p1104
aVXERCESJ-585
p1105
aVXERCESJ-584
p1106
aVXERCESJ-583
p1107
aVXERCESJ-582
p1108
aVXERCESJ-581
p1109
aVXERCESJ-580
p1110
aVXERCESJ-579
p1111
aVXERCESJ-578
p1112
aVXERCESJ-577
p1113
aVXERCESJ-576
p1114
aVXERCESJ-575
p1115
aVXERCESJ-574
p1116
aVXERCESJ-573
p1117
aVXERCESJ-572
p1118
aVXERCESJ-571
p1119
aVXERCESJ-570
p1120
aVXERCESJ-569
p1121
aVXERCESJ-568
p1122
aVXERCESJ-567
p1123
aVXERCESJ-566
p1124
aVXERCESJ-565
p1125
aVXERCESJ-564
p1126
aVXERCESJ-563
p1127
aVXERCESJ-562
p1128
aVXERCESJ-561
p1129
aVXERCESJ-560
p1130
aVXERCESJ-559
p1131
aVXERCESJ-558
p1132
aVXERCESJ-557
p1133
aVXERCESJ-556
p1134
aVXERCESJ-555
p1135
aVXERCESJ-554
p1136
aVXERCESJ-553
p1137
aVXERCESJ-552
p1138
aVXERCESJ-551
p1139
aVXERCESJ-550
p1140
aVXERCESJ-549
p1141
aVXERCESJ-548
p1142
aVXERCESJ-547
p1143
aVXERCESJ-546
p1144
aVXERCESJ-545
p1145
aVXERCESJ-544
p1146
aVXERCESJ-543
p1147
aVXERCESJ-542
p1148
aVXERCESJ-541
p1149
aVXERCESJ-540
p1150
aVXERCESJ-539
p1151
aVXERCESJ-538
p1152
aVXERCESJ-537
p1153
aVXERCESJ-536
p1154
aVXERCESJ-535
p1155
aVXERCESJ-534
p1156
aVXERCESJ-533
p1157
aVXERCESJ-532
p1158
aVXERCESJ-531
p1159
aVXERCESJ-530
p1160
aVXERCESJ-529
p1161
aVXERCESJ-528
p1162
aVXERCESJ-527
p1163
aVXERCESJ-526
p1164
aVXERCESJ-525
p1165
aVXERCESJ-524
p1166
aVXERCESJ-523
p1167
aVXERCESJ-522
p1168
aVXERCESJ-521
p1169
aVXERCESJ-520
p1170
aVXERCESJ-519
p1171
aVXERCESJ-518
p1172
aVXERCESJ-517
p1173
aVXERCESJ-516
p1174
aVXERCESJ-515
p1175
aVXERCESJ-514
p1176
aVXERCESJ-513
p1177
aVXERCESJ-512
p1178
aVXERCESJ-511
p1179
aVXERCESJ-510
p1180
aVXERCESJ-509
p1181
aVXERCESJ-508
p1182
aVXERCESJ-507
p1183
aVXERCESJ-506
p1184
aVXERCESJ-505
p1185
aVXERCESJ-504
p1186
aVXERCESJ-503
p1187
aVXERCESJ-502
p1188
aVXERCESJ-501
p1189
aVXERCESJ-500
p1190
aVXERCESJ-499
p1191
aVXERCESJ-498
p1192
aVXERCESJ-497
p1193
aVXERCESJ-496
p1194
aVXERCESJ-495
p1195
aVXERCESJ-494
p1196
aVXERCESJ-493
p1197
aVXERCESJ-492
p1198
aVXERCESJ-491
p1199
aVXERCESJ-490
p1200
aVXERCESJ-489
p1201
aVXERCESJ-488
p1202
aVXERCESJ-487
p1203
aVXERCESJ-486
p1204
aVXERCESJ-485
p1205
aVXERCESJ-484
p1206
aVXERCESJ-483
p1207
aVXERCESJ-482
p1208
aVXERCESJ-481
p1209
aVXERCESJ-480
p1210
aVXERCESJ-479
p1211
aVXERCESJ-478
p1212
aVXERCESJ-477
p1213
aVXERCESJ-476
p1214
aVXERCESJ-475
p1215
aVXERCESJ-474
p1216
aVXERCESJ-473
p1217
aVXERCESJ-472
p1218
aVXERCESJ-471
p1219
aVXERCESJ-470
p1220
aVXERCESJ-469
p1221
aVXERCESJ-468
p1222
aVXERCESJ-467
p1223
aVXERCESJ-466
p1224
aVXERCESJ-465
p1225
aVXERCESJ-464
p1226
aVXERCESJ-463
p1227
aVXERCESJ-462
p1228
aVXERCESJ-461
p1229
aVXERCESJ-460
p1230
aVXERCESJ-459
p1231
aVXERCESJ-458
p1232
aVXERCESJ-457
p1233
aVXERCESJ-456
p1234
aVXERCESJ-455
p1235
aVXERCESJ-454
p1236
aVXERCESJ-453
p1237
aVXERCESJ-452
p1238
aVXERCESJ-451
p1239
aVXERCESJ-450
p1240
aVXERCESJ-449
p1241
aVXERCESJ-448
p1242
aVXERCESJ-447
p1243
aVXERCESJ-446
p1244
aVXERCESJ-445
p1245
aVXERCESJ-444
p1246
aVXERCESJ-443
p1247
aVXERCESJ-442
p1248
aVXERCESJ-441
p1249
aVXERCESJ-440
p1250
aVXERCESJ-439
p1251
aVXERCESJ-438
p1252
aVXERCESJ-437
p1253
aVXERCESJ-436
p1254
aVXERCESJ-435
p1255
aVXERCESJ-434
p1256
aVXERCESJ-433
p1257
aVXERCESJ-432
p1258
aVXERCESJ-431
p1259
aVXERCESJ-430
p1260
aVXERCESJ-429
p1261
aVXERCESJ-428
p1262
aVXERCESJ-427
p1263
aVXERCESJ-426
p1264
aVXERCESJ-425
p1265
aVXERCESJ-424
p1266
aVXERCESJ-423
p1267
aVXERCESJ-422
p1268
aVXERCESJ-421
p1269
aVXERCESJ-420
p1270
aVXERCESJ-419
p1271
aVXERCESJ-418
p1272
aVXERCESJ-417
p1273
aVXERCESJ-416
p1274
aVXERCESJ-415
p1275
aVXERCESJ-414
p1276
aVXERCESJ-413
p1277
aVXERCESJ-412
p1278
aVXERCESJ-411
p1279
aVXERCESJ-410
p1280
aVXERCESJ-409
p1281
aVXERCESJ-408
p1282
aVXERCESJ-407
p1283
aVXERCESJ-406
p1284
aVXERCESJ-405
p1285
aVXERCESJ-404
p1286
aVXERCESJ-403
p1287
aVXERCESJ-402
p1288
aVXERCESJ-401
p1289
aVXERCESJ-400
p1290
aVXERCESJ-399
p1291
aVXERCESJ-398
p1292
aVXERCESJ-397
p1293
aVXERCESJ-396
p1294
aVXERCESJ-395
p1295
aVXERCESJ-394
p1296
aVXERCESJ-393
p1297
aVXERCESJ-392
p1298
aVXERCESJ-391
p1299
aVXERCESJ-390
p1300
aVXERCESJ-389
p1301
aVXERCESJ-388
p1302
aVXERCESJ-387
p1303
aVXERCESJ-386
p1304
aVXERCESJ-385
p1305
aVXERCESJ-384
p1306
aVXERCESJ-383
p1307
aVXERCESJ-382
p1308
aVXERCESJ-381
p1309
aVXERCESJ-380
p1310
aVXERCESJ-379
p1311
aVXERCESJ-378
p1312
aVXERCESJ-377
p1313
aVXERCESJ-376
p1314
aVXERCESJ-375
p1315
aVXERCESJ-374
p1316
aVXERCESJ-373
p1317
aVXERCESJ-372
p1318
aVXERCESJ-371
p1319
aVXERCESJ-370
p1320
aVXERCESJ-369
p1321
aVXERCESJ-368
p1322
aVXERCESJ-367
p1323
aVXERCESJ-366
p1324
aVXERCESJ-365
p1325
aVXERCESJ-364
p1326
aVXERCESJ-363
p1327
aVXERCESJ-362
p1328
aVXERCESJ-361
p1329
aVXERCESJ-360
p1330
aVXERCESJ-359
p1331
aVXERCESJ-358
p1332
aVXERCESJ-357
p1333
aVXERCESJ-356
p1334
aVXERCESJ-355
p1335
aVXERCESJ-354
p1336
aVXERCESJ-353
p1337
aVXERCESJ-352
p1338
aVXERCESJ-351
p1339
aVXERCESJ-350
p1340
aVXERCESJ-349
p1341
aVXERCESJ-348
p1342
aVXERCESJ-347
p1343
aVXERCESJ-346
p1344
aVXERCESJ-345
p1345
aVXERCESJ-344
p1346
aVXERCESJ-343
p1347
aVXERCESJ-342
p1348
aVXERCESJ-341
p1349
aVXERCESJ-340
p1350
aVXERCESJ-339
p1351
aVXERCESJ-338
p1352
aVXERCESJ-337
p1353
aVXERCESJ-336
p1354
aVXERCESJ-335
p1355
aVXERCESJ-334
p1356
aVXERCESJ-333
p1357
aVXERCESJ-332
p1358
aVXERCESJ-331
p1359
aVXERCESJ-330
p1360
aVXERCESJ-329
p1361
aVXERCESJ-328
p1362
aVXERCESJ-327
p1363
aVXERCESJ-326
p1364
aVXERCESJ-325
p1365
aVXERCESJ-324
p1366
aVXERCESJ-323
p1367
aVXERCESJ-322
p1368
aVXERCESJ-321
p1369
aVXERCESJ-320
p1370
aVXERCESJ-319
p1371
aVXERCESJ-318
p1372
aVXERCESJ-317
p1373
aVXERCESJ-316
p1374
aVXERCESJ-315
p1375
aVXERCESJ-314
p1376
aVXERCESJ-313
p1377
aVXERCESJ-312
p1378
aVXERCESJ-311
p1379
aVXERCESJ-310
p1380
aVXERCESJ-309
p1381
aVXERCESJ-308
p1382
aVXERCESJ-307
p1383
aVXERCESJ-306
p1384
aVXERCESJ-305
p1385
aVXERCESJ-304
p1386
aVXERCESJ-303
p1387
aVXERCESJ-302
p1388
aVXERCESJ-301
p1389
aVXERCESJ-300
p1390
aVXERCESJ-299
p1391
aVXERCESJ-298
p1392
aVXERCESJ-297
p1393
aVXERCESJ-296
p1394
aVXERCESJ-295
p1395
aVXERCESJ-294
p1396
aVXERCESJ-293
p1397
aVXERCESJ-292
p1398
aVXERCESJ-291
p1399
aVXERCESJ-290
p1400
aVXERCESJ-289
p1401
aVXERCESJ-288
p1402
aVXERCESJ-287
p1403
aVXERCESJ-286
p1404
aVXERCESJ-285
p1405
aVXERCESJ-284
p1406
aVXERCESJ-283
p1407
aVXERCESJ-282
p1408
aVXERCESJ-281
p1409
aVXERCESJ-280
p1410
aVXERCESJ-279
p1411
aVXERCESJ-278
p1412
aVXERCESJ-277
p1413
aVXERCESJ-276
p1414
aVXERCESJ-275
p1415
aVXERCESJ-274
p1416
aVXERCESJ-273
p1417
aVXERCESJ-272
p1418
aVXERCESJ-271
p1419
aVXERCESJ-270
p1420
aVXERCESJ-269
p1421
aVXERCESJ-268
p1422
aVXERCESJ-267
p1423
aVXERCESJ-266
p1424
aVXERCESJ-265
p1425
aVXERCESJ-264
p1426
aVXERCESJ-263
p1427
aVXERCESJ-262
p1428
aVXERCESJ-261
p1429
aVXERCESJ-260
p1430
aVXERCESJ-259
p1431
aVXERCESJ-258
p1432
aVXERCESJ-257
p1433
aVXERCESJ-256
p1434
aVXERCESJ-255
p1435
aVXERCESJ-254
p1436
aVXERCESJ-253
p1437
aVXERCESJ-252
p1438
aVXERCESJ-251
p1439
aVXERCESJ-250
p1440
aVXERCESJ-249
p1441
aVXERCESJ-248
p1442
aVXERCESJ-247
p1443
aVXERCESJ-246
p1444
aVXERCESJ-245
p1445
aVXERCESJ-244
p1446
aVXERCESJ-243
p1447
aVXERCESJ-242
p1448
aVXERCESJ-241
p1449
aVXERCESJ-240
p1450
aVXERCESJ-239
p1451
aVXERCESJ-238
p1452
aVXERCESJ-237
p1453
aVXERCESJ-236
p1454
aVXERCESJ-235
p1455
aVXERCESJ-234
p1456
aVXERCESJ-233
p1457
aVXERCESJ-232
p1458
aVXERCESJ-231
p1459
aVXERCESJ-230
p1460
aVXERCESJ-229
p1461
aVXERCESJ-228
p1462
aVXERCESJ-227
p1463
aVXERCESJ-226
p1464
aVXERCESJ-225
p1465
aVXERCESJ-224
p1466
aVXERCESJ-223
p1467
aVXERCESJ-222
p1468
aVXERCESJ-221
p1469
aVXERCESJ-220
p1470
aVXERCESJ-219
p1471
aVXERCESJ-218
p1472
aVXERCESJ-217
p1473
aVXERCESJ-216
p1474
aVXERCESJ-215
p1475
aVXERCESJ-214
p1476
aVXERCESJ-213
p1477
aVXERCESJ-212
p1478
aVXERCESJ-211
p1479
aVXERCESJ-210
p1480
aVXERCESJ-209
p1481
aVXERCESJ-208
p1482
aVXERCESJ-207
p1483
aVXERCESJ-206
p1484
aVXERCESJ-205
p1485
aVXERCESJ-204
p1486
aVXERCESJ-203
p1487
aVXERCESJ-202
p1488
aVXERCESJ-201
p1489
aVXERCESJ-200
p1490
aVXERCESJ-199
p1491
aVXERCESJ-198
p1492
aVXERCESJ-197
p1493
aVXERCESJ-196
p1494
aVXERCESJ-195
p1495
aVXERCESJ-194
p1496
aVXERCESJ-193
p1497
aVXERCESJ-192
p1498
aVXERCESJ-191
p1499
aVXERCESJ-190
p1500
aVXERCESJ-189
p1501
aVXERCESJ-188
p1502
aVXERCESJ-187
p1503
aVXERCESJ-186
p1504
aVXERCESJ-185
p1505
aVXERCESJ-184
p1506
aVXERCESJ-183
p1507
aVXERCESJ-182
p1508
aVXERCESJ-181
p1509
aVXERCESJ-180
p1510
aVXERCESJ-179
p1511
aVXERCESJ-178
p1512
aVXERCESJ-177
p1513
aVXERCESJ-176
p1514
aVXERCESJ-175
p1515
aVXERCESJ-174
p1516
aVXERCESJ-173
p1517
aVXERCESJ-172
p1518
aVXERCESJ-171
p1519
aVXERCESJ-170
p1520
aVXERCESJ-169
p1521
aVXERCESJ-168
p1522
aVXERCESJ-167
p1523
aVXERCESJ-166
p1524
aVXERCESJ-165
p1525
aVXERCESJ-164
p1526
aVXERCESJ-163
p1527
aVXERCESJ-162
p1528
aVXERCESJ-161
p1529
aVXERCESJ-160
p1530
aVXERCESJ-159
p1531
aVXERCESJ-158
p1532
aVXERCESJ-157
p1533
aVXERCESJ-156
p1534
aVXERCESJ-155
p1535
aVXERCESJ-154
p1536
aVXERCESJ-153
p1537
aVXERCESJ-152
p1538
aVXERCESJ-151
p1539
aVXERCESJ-150
p1540
aVXERCESJ-149
p1541
aVXERCESJ-148
p1542
aVXERCESJ-147
p1543
aVXERCESJ-146
p1544
aVXERCESJ-145
p1545
aVXERCESJ-144
p1546
aVXERCESJ-143
p1547
aVXERCESJ-142
p1548
aVXERCESJ-141
p1549
aVXERCESJ-140
p1550
aVXERCESJ-139
p1551
aVXERCESJ-138
p1552
aVXERCESJ-137
p1553
aVXERCESJ-136
p1554
aVXERCESJ-135
p1555
aVXERCESJ-134
p1556
aVXERCESJ-133
p1557
aVXERCESJ-132
p1558
aVXERCESJ-131
p1559
aVXERCESJ-130
p1560
aVXERCESJ-129
p1561
aVXERCESJ-128
p1562
aVXERCESJ-127
p1563
aVXERCESJ-126
p1564
aVXERCESJ-125
p1565
aVXERCESJ-124
p1566
aVXERCESJ-123
p1567
aVXERCESJ-122
p1568
aVXERCESJ-121
p1569
aVXERCESJ-120
p1570
aVXERCESJ-119
p1571
aVXERCESJ-118
p1572
aVXERCESJ-117
p1573
aVXERCESJ-116
p1574
aVXERCESJ-115
p1575
aVXERCESJ-114
p1576
aVXERCESJ-113
p1577
aVXERCESJ-112
p1578
aVXERCESJ-111
p1579
aVXERCESJ-110
p1580
aVXERCESJ-109
p1581
aVXERCESJ-108
p1582
aVXERCESJ-107
p1583
aVXERCESJ-106
p1584
aVXERCESJ-105
p1585
aVXERCESJ-104
p1586
aVXERCESJ-103
p1587
aVXERCESJ-102
p1588
aVXERCESJ-101
p1589
aVXERCESJ-100
p1590
aVXERCESJ-99
p1591
aVXERCESJ-98
p1592
aVXERCESJ-97
p1593
aVXERCESJ-96
p1594
aVXERCESJ-95
p1595
aVXERCESJ-94
p1596
aVXERCESJ-93
p1597
aVXERCESJ-92
p1598
aVXERCESJ-91
p1599
aVXERCESJ-90
p1600
aVXERCESJ-89
p1601
aVXERCESJ-88
p1602
aVXERCESJ-87
p1603
aVXERCESJ-86
p1604
aVXERCESJ-85
p1605
aVXERCESJ-84
p1606
aVXERCESJ-83
p1607
aVXERCESJ-82
p1608
aVXERCESJ-81
p1609
aVXERCESJ-80
p1610
aVXERCESJ-79
p1611
aVXERCESJ-78
p1612
aVXERCESJ-77
p1613
aVXERCESJ-76
p1614
aVXERCESJ-75
p1615
aVXERCESJ-74
p1616
aVXERCESJ-73
p1617
aVXERCESJ-72
p1618
aVXERCESJ-71
p1619
aVXERCESJ-70
p1620
aVXERCESJ-69
p1621
aVXERCESJ-68
p1622
aVXERCESJ-67
p1623
aVXERCESJ-66
p1624
aVXERCESJ-65
p1625
aVXERCESJ-64
p1626
aVXERCESJ-63
p1627
aVXERCESJ-62
p1628
aVXERCESJ-61
p1629
aVXERCESJ-60
p1630
aVXERCESJ-59
p1631
aVXERCESJ-58
p1632
aVXERCESJ-57
p1633
aVXERCESJ-56
p1634
aVXERCESJ-55
p1635
aVXERCESJ-54
p1636
aVXERCESJ-53
p1637
aVXERCESJ-52
p1638
aVXERCESJ-51
p1639
aVXERCESJ-50
p1640
aVXERCESJ-49
p1641
aVXERCESJ-48
p1642
aVXERCESJ-47
p1643
aVXERCESJ-46
p1644
aVXERCESJ-45
p1645
aVXERCESJ-44
p1646
aVXERCESJ-43
p1647
aVXERCESJ-42
p1648
aVXERCESJ-41
p1649
aVXERCESJ-40
p1650
aVXERCESJ-39
p1651
aVXERCESJ-38
p1652
aVXERCESJ-37
p1653
aVXERCESJ-36
p1654
aVXERCESJ-35
p1655
aVXERCESJ-34
p1656
aVXERCESJ-33
p1657
aVXERCESJ-32
p1658
aVXERCESJ-31
p1659
aVXERCESJ-30
p1660
aVXERCESJ-29
p1661
aVXERCESJ-28
p1662
aVXERCESJ-27
p1663
aVXERCESJ-26
p1664
aVXERCESJ-25
p1665
aVXERCESJ-24
p1666
aVXERCESJ-23
p1667
aVXERCESJ-22
p1668
aVXERCESJ-21
p1669
aVXERCESJ-20
p1670
aVXERCESJ-19
p1671
aVXERCESJ-18
p1672
aVXERCESJ-17
p1673
aVXERCESJ-16
p1674
aVXERCESJ-15
p1675
aVXERCESJ-14
p1676
aVXERCESJ-13
p1677
aVXERCESJ-12
p1678
aVXERCESJ-11
p1679
aVXERCESJ-10
p1680
aVXERCESJ-9
p1681
aVXERCESJ-8
p1682
aVXERCESJ-7
p1683
aVXERCESJ-6
p1684
aVXERCESJ-5
p1685
aVXERCESJ-4
p1686
aVXERCESJ-3
p1687
aVXERCESJ-2
p1688
aVXERCESJ-1
p1689
a.