(lp0
VXMLBEANS-517
p1
aVXMLBEANS-516
p2
aVXMLBEANS-515
p3
aVXMLBEANS-514
p4
aVXMLBEANS-513
p5
aVXMLBEANS-512
p6
aVXMLBEANS-511
p7
aVXMLBEANS-510
p8
aVXMLBEANS-509
p9
aVXMLBEANS-508
p10
aVXMLBEANS-507
p11
aVXMLBEANS-506
p12
aVXMLBEANS-505
p13
aVXMLBEANS-504
p14
aVXMLBEANS-503
p15
aVXMLBEANS-502
p16
aVXMLBEANS-501
p17
aVXMLBEANS-500
p18
aVXMLBEANS-499
p19
aVXMLBEANS-498
p20
aVXMLBEANS-497
p21
aVXMLBEANS-496
p22
aVXMLBEANS-495
p23
aVXMLBEANS-494
p24
aVXMLBEANS-493
p25
aVXMLBEANS-492
p26
aVXMLBEANS-491
p27
aVXMLBEANS-490
p28
aVXMLBEANS-489
p29
aVXMLBEANS-488
p30
aVXMLBEANS-487
p31
aVXMLBEANS-486
p32
aVXMLBEANS-485
p33
aVXMLBEANS-484
p34
aVXMLBEANS-483
p35
aVXMLBEANS-482
p36
aVXMLBEANS-481
p37
aVXMLBEANS-480
p38
aVXMLBEANS-479
p39
aVXMLBEANS-478
p40
aVXMLBEANS-477
p41
aVXMLBEANS-476
p42
aVXMLBEANS-475
p43
aVXMLBEANS-474
p44
aVXMLBEANS-473
p45
aVXMLBEANS-472
p46
aVXMLBEANS-471
p47
aVXMLBEANS-470
p48
aVXMLBEANS-469
p49
aVXMLBEANS-468
p50
aVXMLBEANS-467
p51
aVXMLBEANS-466
p52
aVXMLBEANS-465
p53
aVXMLBEANS-464
p54
aVXMLBEANS-463
p55
aVXMLBEANS-462
p56
aVXMLBEANS-461
p57
aVXMLBEANS-460
p58
aVXMLBEANS-459
p59
aVXMLBEANS-458
p60
aVXMLBEANS-457
p61
aVXMLBEANS-456
p62
aVXMLBEANS-455
p63
aVXMLBEANS-454
p64
aVXMLBEANS-453
p65
aVXMLBEANS-452
p66
aVXMLBEANS-451
p67
aVXMLBEANS-450
p68
aVXMLBEANS-449
p69
aVXMLBEANS-448
p70
aVXMLBEANS-447
p71
aVXMLBEANS-446
p72
aVXMLBEANS-445
p73
aVXMLBEANS-444
p74
aVXMLBEANS-443
p75
aVXMLBEANS-442
p76
aVXMLBEANS-441
p77
aVXMLBEANS-440
p78
aVXMLBEANS-439
p79
aVXMLBEANS-438
p80
aVXMLBEANS-437
p81
aVXMLBEANS-436
p82
aVXMLBEANS-435
p83
aVXMLBEANS-434
p84
aVXMLBEANS-433
p85
aVXMLBEANS-432
p86
aVXMLBEANS-431
p87
aVXMLBEANS-430
p88
aVXMLBEANS-429
p89
aVXMLBEANS-428
p90
aVXMLBEANS-427
p91
aVXMLBEANS-426
p92
aVXMLBEANS-425
p93
aVXMLBEANS-424
p94
aVXMLBEANS-423
p95
aVXMLBEANS-422
p96
aVXMLBEANS-421
p97
aVXMLBEANS-420
p98
aVXMLBEANS-419
p99
aVXMLBEANS-418
p100
aVXMLBEANS-417
p101
aVXMLBEANS-416
p102
aVXMLBEANS-415
p103
aVXMLBEANS-414
p104
aVXMLBEANS-413
p105
aVXMLBEANS-412
p106
aVXMLBEANS-411
p107
aVXMLBEANS-410
p108
aVXMLBEANS-409
p109
aVXMLBEANS-408
p110
aVXMLBEANS-407
p111
aVXMLBEANS-406
p112
aVXMLBEANS-405
p113
aVXMLBEANS-404
p114
aVXMLBEANS-403
p115
aVXMLBEANS-402
p116
aVXMLBEANS-401
p117
aVXMLBEANS-400
p118
aVXMLBEANS-399
p119
aVXMLBEANS-398
p120
aVXMLBEANS-397
p121
aVXMLBEANS-396
p122
aVXMLBEANS-395
p123
aVXMLBEANS-394
p124
aVXMLBEANS-393
p125
aVXMLBEANS-392
p126
aVXMLBEANS-391
p127
aVXMLBEANS-390
p128
aVXMLBEANS-389
p129
aVXMLBEANS-388
p130
aVXMLBEANS-387
p131
aVXMLBEANS-386
p132
aVXMLBEANS-385
p133
aVXMLBEANS-384
p134
aVXMLBEANS-383
p135
aVXMLBEANS-382
p136
aVXMLBEANS-381
p137
aVXMLBEANS-380
p138
aVXMLBEANS-379
p139
aVXMLBEANS-378
p140
aVXMLBEANS-377
p141
aVXMLBEANS-376
p142
aVXMLBEANS-375
p143
aVXMLBEANS-374
p144
aVXMLBEANS-373
p145
aVXMLBEANS-372
p146
aVXMLBEANS-371
p147
aVXMLBEANS-370
p148
aVXMLBEANS-369
p149
aVXMLBEANS-368
p150
aVXMLBEANS-367
p151
aVXMLBEANS-366
p152
aVXMLBEANS-365
p153
aVXMLBEANS-364
p154
aVXMLBEANS-363
p155
aVXMLBEANS-362
p156
aVXMLBEANS-361
p157
aVXMLBEANS-360
p158
aVXMLBEANS-359
p159
aVXMLBEANS-358
p160
aVXMLBEANS-357
p161
aVXMLBEANS-356
p162
aVXMLBEANS-355
p163
aVXMLBEANS-354
p164
aVXMLBEANS-353
p165
aVXMLBEANS-352
p166
aVXMLBEANS-351
p167
aVXMLBEANS-350
p168
aVXMLBEANS-349
p169
aVXMLBEANS-348
p170
aVXMLBEANS-347
p171
aVXMLBEANS-346
p172
aVXMLBEANS-345
p173
aVXMLBEANS-344
p174
aVXMLBEANS-343
p175
aVXMLBEANS-342
p176
aVXMLBEANS-341
p177
aVXMLBEANS-340
p178
aVXMLBEANS-339
p179
aVXMLBEANS-338
p180
aVXMLBEANS-337
p181
aVXMLBEANS-336
p182
aVXMLBEANS-335
p183
aVXMLBEANS-334
p184
aVXMLBEANS-333
p185
aVXMLBEANS-332
p186
aVXMLBEANS-331
p187
aVXMLBEANS-330
p188
aVXMLBEANS-329
p189
aVXMLBEANS-328
p190
aVXMLBEANS-327
p191
aVXMLBEANS-326
p192
aVXMLBEANS-325
p193
aVXMLBEANS-324
p194
aVXMLBEANS-323
p195
aVXMLBEANS-322
p196
aVXMLBEANS-321
p197
aVXMLBEANS-320
p198
aVXMLBEANS-319
p199
aVXMLBEANS-318
p200
aVXMLBEANS-317
p201
aVXMLBEANS-316
p202
aVXMLBEANS-315
p203
aVXMLBEANS-314
p204
aVXMLBEANS-313
p205
aVXMLBEANS-312
p206
aVXMLBEANS-311
p207
aVXMLBEANS-310
p208
aVXMLBEANS-309
p209
aVXMLBEANS-308
p210
aVXMLBEANS-307
p211
aVXMLBEANS-306
p212
aVXMLBEANS-305
p213
aVXMLBEANS-304
p214
aVXMLBEANS-303
p215
aVXMLBEANS-302
p216
aVXMLBEANS-301
p217
aVXMLBEANS-300
p218
aVXMLBEANS-299
p219
aVXMLBEANS-298
p220
aVXMLBEANS-297
p221
aVXMLBEANS-296
p222
aVXMLBEANS-295
p223
aVXMLBEANS-294
p224
aVXMLBEANS-293
p225
aVXMLBEANS-292
p226
aVXMLBEANS-291
p227
aVXMLBEANS-290
p228
aVXMLBEANS-289
p229
aVXMLBEANS-288
p230
aVXMLBEANS-287
p231
aVXMLBEANS-286
p232
aVXMLBEANS-285
p233
aVXMLBEANS-284
p234
aVXMLBEANS-283
p235
aVXMLBEANS-282
p236
aVXMLBEANS-281
p237
aVXMLBEANS-280
p238
aVXMLBEANS-279
p239
aVXMLBEANS-278
p240
aVXMLBEANS-277
p241
aVXMLBEANS-276
p242
aVXMLBEANS-275
p243
aVXMLBEANS-274
p244
aVXMLBEANS-273
p245
aVXMLBEANS-272
p246
aVXMLBEANS-271
p247
aVXMLBEANS-270
p248
aVXMLBEANS-269
p249
aVXMLBEANS-268
p250
aVXMLBEANS-267
p251
aVXMLBEANS-266
p252
aVXMLBEANS-265
p253
aVXMLBEANS-264
p254
aVXMLBEANS-263
p255
aVXMLBEANS-262
p256
aVXMLBEANS-261
p257
aVXMLBEANS-260
p258
aVXMLBEANS-259
p259
aVXMLBEANS-258
p260
aVXMLBEANS-257
p261
aVXMLBEANS-256
p262
aVXMLBEANS-255
p263
aVXMLBEANS-254
p264
aVXMLBEANS-253
p265
aVXMLBEANS-252
p266
aVXMLBEANS-251
p267
aVXMLBEANS-250
p268
aVXMLBEANS-249
p269
aVXMLBEANS-248
p270
aVXMLBEANS-247
p271
aVXMLBEANS-246
p272
aVXMLBEANS-245
p273
aVXMLBEANS-244
p274
aVXMLBEANS-243
p275
aVXMLBEANS-242
p276
aVXMLBEANS-241
p277
aVXMLBEANS-240
p278
aVXMLBEANS-239
p279
aVXMLBEANS-238
p280
aVXMLBEANS-237
p281
aVXMLBEANS-236
p282
aVXMLBEANS-235
p283
aVXMLBEANS-234
p284
aVXMLBEANS-233
p285
aVXMLBEANS-232
p286
aVXMLBEANS-231
p287
aVXMLBEANS-230
p288
aVXMLBEANS-229
p289
aVXMLBEANS-228
p290
aVXMLBEANS-227
p291
aVXMLBEANS-226
p292
aVXMLBEANS-225
p293
aVXMLBEANS-224
p294
aVXMLBEANS-223
p295
aVXMLBEANS-222
p296
aVXMLBEANS-221
p297
aVXMLBEANS-220
p298
aVXMLBEANS-219
p299
aVXMLBEANS-218
p300
aVXMLBEANS-217
p301
aVXMLBEANS-216
p302
aVXMLBEANS-215
p303
aVXMLBEANS-214
p304
aVXMLBEANS-213
p305
aVXMLBEANS-212
p306
aVXMLBEANS-211
p307
aVXMLBEANS-210
p308
aVXMLBEANS-209
p309
aVXMLBEANS-208
p310
aVXMLBEANS-207
p311
aVXMLBEANS-206
p312
aVXMLBEANS-205
p313
aVXMLBEANS-204
p314
aVXMLBEANS-203
p315
aVXMLBEANS-202
p316
aVXMLBEANS-201
p317
aVXMLBEANS-200
p318
aVXMLBEANS-199
p319
aVXMLBEANS-198
p320
aVXMLBEANS-197
p321
aVXMLBEANS-196
p322
aVXMLBEANS-195
p323
aVXMLBEANS-194
p324
aVXMLBEANS-193
p325
aVXMLBEANS-192
p326
aVXMLBEANS-191
p327
aVXMLBEANS-190
p328
aVXMLBEANS-189
p329
aVXMLBEANS-188
p330
aVXMLBEANS-187
p331
aVXMLBEANS-186
p332
aVXMLBEANS-185
p333
aVXMLBEANS-184
p334
aVXMLBEANS-183
p335
aVXMLBEANS-182
p336
aVXMLBEANS-181
p337
aVXMLBEANS-180
p338
aVXMLBEANS-179
p339
aVXMLBEANS-178
p340
aVXMLBEANS-177
p341
aVXMLBEANS-176
p342
aVXMLBEANS-175
p343
aVXMLBEANS-174
p344
aVXMLBEANS-173
p345
aVXMLBEANS-172
p346
aVXMLBEANS-171
p347
aVXMLBEANS-170
p348
aVXMLBEANS-169
p349
aVXMLBEANS-168
p350
aVXMLBEANS-167
p351
aVXMLBEANS-166
p352
aVXMLBEANS-165
p353
aVXMLBEANS-164
p354
aVXMLBEANS-163
p355
aVXMLBEANS-162
p356
aVXMLBEANS-161
p357
aVXMLBEANS-160
p358
aVXMLBEANS-159
p359
aVXMLBEANS-158
p360
aVXMLBEANS-157
p361
aVXMLBEANS-156
p362
aVXMLBEANS-155
p363
aVXMLBEANS-154
p364
aVXMLBEANS-153
p365
aVXMLBEANS-152
p366
aVXMLBEANS-151
p367
aVXMLBEANS-150
p368
aVXMLBEANS-149
p369
aVXMLBEANS-148
p370
aVXMLBEANS-147
p371
aVXMLBEANS-146
p372
aVXMLBEANS-145
p373
aVXMLBEANS-144
p374
aVXMLBEANS-143
p375
aVXMLBEANS-142
p376
aVXMLBEANS-141
p377
aVXMLBEANS-140
p378
aVXMLBEANS-139
p379
aVXMLBEANS-138
p380
aVXMLBEANS-137
p381
aVXMLBEANS-136
p382
aVXMLBEANS-135
p383
aVXMLBEANS-134
p384
aVXMLBEANS-133
p385
aVXMLBEANS-132
p386
aVXMLBEANS-131
p387
aVXMLBEANS-130
p388
aVXMLBEANS-129
p389
aVXMLBEANS-128
p390
aVXMLBEANS-127
p391
aVXMLBEANS-126
p392
aVXMLBEANS-125
p393
aVXMLBEANS-124
p394
aVXMLBEANS-123
p395
aVXMLBEANS-122
p396
aVXMLBEANS-121
p397
aVXMLBEANS-120
p398
aVXMLBEANS-119
p399
aVXMLBEANS-118
p400
aVXMLBEANS-117
p401
aVXMLBEANS-116
p402
aVXMLBEANS-115
p403
aVXMLBEANS-114
p404
aVXMLBEANS-113
p405
aVXMLBEANS-112
p406
aVXMLBEANS-111
p407
aVXMLBEANS-110
p408
aVXMLBEANS-109
p409
aVXMLBEANS-108
p410
aVXMLBEANS-107
p411
aVXMLBEANS-106
p412
aVXMLBEANS-105
p413
aVXMLBEANS-104
p414
aVXMLBEANS-103
p415
aVXMLBEANS-102
p416
aVXMLBEANS-101
p417
aVXMLBEANS-100
p418
aVXMLBEANS-99
p419
aVXMLBEANS-98
p420
aVXMLBEANS-97
p421
aVXMLBEANS-96
p422
aVXMLBEANS-95
p423
aVXMLBEANS-94
p424
aVXMLBEANS-93
p425
aVXMLBEANS-92
p426
aVXMLBEANS-91
p427
aVXMLBEANS-90
p428
aVXMLBEANS-89
p429
aVXMLBEANS-88
p430
aVXMLBEANS-87
p431
aVXMLBEANS-86
p432
aVXMLBEANS-85
p433
aVXMLBEANS-84
p434
aVXMLBEANS-83
p435
aVXMLBEANS-82
p436
aVXMLBEANS-81
p437
aVXMLBEANS-80
p438
aVXMLBEANS-79
p439
aVXMLBEANS-78
p440
aVXMLBEANS-77
p441
aVXMLBEANS-76
p442
aVXMLBEANS-75
p443
aVXMLBEANS-74
p444
aVXMLBEANS-73
p445
aVXMLBEANS-72
p446
aVXMLBEANS-71
p447
aVXMLBEANS-70
p448
aVXMLBEANS-69
p449
aVXMLBEANS-68
p450
aVXMLBEANS-67
p451
aVXMLBEANS-66
p452
aVXMLBEANS-65
p453
aVXMLBEANS-64
p454
aVXMLBEANS-63
p455
aVXMLBEANS-62
p456
aVXMLBEANS-61
p457
aVXMLBEANS-60
p458
aVXMLBEANS-59
p459
aVXMLBEANS-58
p460
aVXMLBEANS-57
p461
aVXMLBEANS-56
p462
aVXMLBEANS-55
p463
aVXMLBEANS-54
p464
aVXMLBEANS-53
p465
aVXMLBEANS-52
p466
aVXMLBEANS-51
p467
aVXMLBEANS-50
p468
aVXMLBEANS-49
p469
aVXMLBEANS-48
p470
aVXMLBEANS-47
p471
aVXMLBEANS-46
p472
aVXMLBEANS-45
p473
aVXMLBEANS-44
p474
aVXMLBEANS-43
p475
aVXMLBEANS-42
p476
aVXMLBEANS-41
p477
aVXMLBEANS-40
p478
aVXMLBEANS-39
p479
aVXMLBEANS-38
p480
aVXMLBEANS-37
p481
aVXMLBEANS-36
p482
aVXMLBEANS-35
p483
aVXMLBEANS-34
p484
aVXMLBEANS-33
p485
aVXMLBEANS-32
p486
aVXMLBEANS-31
p487
aVXMLBEANS-30
p488
aVXMLBEANS-29
p489
aVXMLBEANS-28
p490
aVXMLBEANS-27
p491
aVXMLBEANS-26
p492
aVXMLBEANS-25
p493
aVXMLBEANS-24
p494
aVXMLBEANS-23
p495
aVXMLBEANS-22
p496
aVXMLBEANS-21
p497
aVXMLBEANS-20
p498
aVXMLBEANS-18
p499
aVXMLBEANS-17
p500
aVXMLBEANS-16
p501
aVXMLBEANS-15
p502
aVXMLBEANS-14
p503
aVXMLBEANS-13
p504
aVXMLBEANS-12
p505
aVXMLBEANS-11
p506
aVXMLBEANS-10
p507
aVXMLBEANS-9
p508
aVXMLBEANS-8
p509
aVXMLBEANS-7
p510
aVXMLBEANS-6
p511
aVXMLBEANS-5
p512
aVXMLBEANS-4
p513
aVXMLBEANS-3
p514
aVXMLBEANS-2
p515
aVXMLBEANS-1
p516
a.