(lp0
VZEPPELIN-3682
p1
aVZEPPELIN-3681
p2
aVZEPPELIN-3680
p3
aVZEPPELIN-3679
p4
aVZEPPELIN-3678
p5
aVZEPPELIN-3677
p6
aVZEPPELIN-3676
p7
aVZEPPELIN-3675
p8
aVZEPPELIN-3674
p9
aVZEPPELIN-3673
p10
aVZEPPELIN-3672
p11
aVZEPPELIN-3671
p12
aVZEPPELIN-3670
p13
aVZEPPELIN-3669
p14
aVZEPPELIN-3668
p15
aVZEPPELIN-3667
p16
aVZEPPELIN-3666
p17
aVZEPPELIN-3665
p18
aVZEPPELIN-3664
p19
aVZEPPELIN-3663
p20
aVZEPPELIN-3662
p21
aVZEPPELIN-3661
p22
aVZEPPELIN-3660
p23
aVZEPPELIN-3659
p24
aVZEPPELIN-3658
p25
aVZEPPELIN-3657
p26
aVZEPPELIN-3656
p27
aVZEPPELIN-3655
p28
aVZEPPELIN-3654
p29
aVZEPPELIN-3653
p30
aVZEPPELIN-3652
p31
aVZEPPELIN-3651
p32
aVZEPPELIN-3650
p33
aVZEPPELIN-3649
p34
aVZEPPELIN-3648
p35
aVZEPPELIN-3647
p36
aVZEPPELIN-3646
p37
aVZEPPELIN-3645
p38
aVZEPPELIN-3644
p39
aVZEPPELIN-3643
p40
aVZEPPELIN-3642
p41
aVZEPPELIN-3641
p42
aVZEPPELIN-3640
p43
aVZEPPELIN-3639
p44
aVZEPPELIN-3638
p45
aVZEPPELIN-3637
p46
aVZEPPELIN-3636
p47
aVZEPPELIN-3635
p48
aVZEPPELIN-3634
p49
aVZEPPELIN-3633
p50
aVZEPPELIN-3632
p51
aVZEPPELIN-3631
p52
aVZEPPELIN-3630
p53
aVZEPPELIN-3629
p54
aVZEPPELIN-3628
p55
aVZEPPELIN-3627
p56
aVZEPPELIN-3626
p57
aVZEPPELIN-3625
p58
aVZEPPELIN-3624
p59
aVZEPPELIN-3623
p60
aVZEPPELIN-3622
p61
aVZEPPELIN-3621
p62
aVZEPPELIN-3620
p63
aVZEPPELIN-3619
p64
aVZEPPELIN-3618
p65
aVZEPPELIN-3617
p66
aVZEPPELIN-3616
p67
aVZEPPELIN-3615
p68
aVZEPPELIN-3614
p69
aVZEPPELIN-3613
p70
aVZEPPELIN-3612
p71
aVZEPPELIN-3611
p72
aVZEPPELIN-3610
p73
aVZEPPELIN-3609
p74
aVZEPPELIN-3608
p75
aVZEPPELIN-3607
p76
aVZEPPELIN-3606
p77
aVZEPPELIN-3605
p78
aVZEPPELIN-3604
p79
aVZEPPELIN-3603
p80
aVZEPPELIN-3602
p81
aVZEPPELIN-3601
p82
aVZEPPELIN-3600
p83
aVZEPPELIN-3599
p84
aVZEPPELIN-3598
p85
aVZEPPELIN-3597
p86
aVZEPPELIN-3596
p87
aVZEPPELIN-3595
p88
aVZEPPELIN-3594
p89
aVZEPPELIN-3593
p90
aVZEPPELIN-3592
p91
aVZEPPELIN-3591
p92
aVZEPPELIN-3590
p93
aVZEPPELIN-3589
p94
aVZEPPELIN-3588
p95
aVZEPPELIN-3587
p96
aVZEPPELIN-3586
p97
aVZEPPELIN-3585
p98
aVZEPPELIN-3584
p99
aVZEPPELIN-3583
p100
aVZEPPELIN-3582
p101
aVZEPPELIN-3581
p102
aVZEPPELIN-3580
p103
aVZEPPELIN-3579
p104
aVZEPPELIN-3578
p105
aVZEPPELIN-3577
p106
aVZEPPELIN-3576
p107
aVZEPPELIN-3575
p108
aVZEPPELIN-3574
p109
aVZEPPELIN-3573
p110
aVZEPPELIN-3572
p111
aVZEPPELIN-3571
p112
aVZEPPELIN-3570
p113
aVZEPPELIN-3569
p114
aVZEPPELIN-3568
p115
aVZEPPELIN-3567
p116
aVZEPPELIN-3566
p117
aVZEPPELIN-3565
p118
aVZEPPELIN-3564
p119
aVZEPPELIN-3563
p120
aVZEPPELIN-3562
p121
aVZEPPELIN-3561
p122
aVZEPPELIN-3560
p123
aVZEPPELIN-3559
p124
aVZEPPELIN-3558
p125
aVZEPPELIN-3557
p126
aVZEPPELIN-3556
p127
aVZEPPELIN-3555
p128
aVZEPPELIN-3554
p129
aVZEPPELIN-3553
p130
aVZEPPELIN-3552
p131
aVZEPPELIN-3551
p132
aVZEPPELIN-3550
p133
aVZEPPELIN-3549
p134
aVZEPPELIN-3548
p135
aVZEPPELIN-3547
p136
aVZEPPELIN-3546
p137
aVZEPPELIN-3545
p138
aVZEPPELIN-3544
p139
aVZEPPELIN-3543
p140
aVZEPPELIN-3542
p141
aVZEPPELIN-3541
p142
aVZEPPELIN-3540
p143
aVZEPPELIN-3539
p144
aVZEPPELIN-3538
p145
aVZEPPELIN-3537
p146
aVZEPPELIN-3536
p147
aVZEPPELIN-3535
p148
aVZEPPELIN-3534
p149
aVZEPPELIN-3533
p150
aVZEPPELIN-3532
p151
aVZEPPELIN-3531
p152
aVZEPPELIN-3530
p153
aVZEPPELIN-3529
p154
aVZEPPELIN-3528
p155
aVZEPPELIN-3527
p156
aVZEPPELIN-3526
p157
aVZEPPELIN-3525
p158
aVZEPPELIN-3524
p159
aVZEPPELIN-3523
p160
aVZEPPELIN-3522
p161
aVZEPPELIN-3521
p162
aVZEPPELIN-3520
p163
aVZEPPELIN-3519
p164
aVZEPPELIN-3518
p165
aVZEPPELIN-3517
p166
aVZEPPELIN-3516
p167
aVZEPPELIN-3515
p168
aVZEPPELIN-3514
p169
aVZEPPELIN-3513
p170
aVZEPPELIN-3512
p171
aVZEPPELIN-3511
p172
aVZEPPELIN-3510
p173
aVZEPPELIN-3509
p174
aVZEPPELIN-3508
p175
aVZEPPELIN-3507
p176
aVZEPPELIN-3506
p177
aVZEPPELIN-3505
p178
aVZEPPELIN-3504
p179
aVZEPPELIN-3503
p180
aVZEPPELIN-3502
p181
aVZEPPELIN-3501
p182
aVZEPPELIN-3500
p183
aVZEPPELIN-3499
p184
aVZEPPELIN-3498
p185
aVZEPPELIN-3497
p186
aVZEPPELIN-3496
p187
aVZEPPELIN-3495
p188
aVZEPPELIN-3494
p189
aVZEPPELIN-3493
p190
aVZEPPELIN-3492
p191
aVZEPPELIN-3491
p192
aVZEPPELIN-3490
p193
aVZEPPELIN-3489
p194
aVZEPPELIN-3488
p195
aVZEPPELIN-3487
p196
aVZEPPELIN-3486
p197
aVZEPPELIN-3485
p198
aVZEPPELIN-3484
p199
aVZEPPELIN-3483
p200
aVZEPPELIN-3482
p201
aVZEPPELIN-3481
p202
aVZEPPELIN-3480
p203
aVZEPPELIN-3479
p204
aVZEPPELIN-3478
p205
aVZEPPELIN-3477
p206
aVZEPPELIN-3476
p207
aVZEPPELIN-3475
p208
aVZEPPELIN-3474
p209
aVZEPPELIN-3473
p210
aVZEPPELIN-3472
p211
aVZEPPELIN-3471
p212
aVZEPPELIN-3470
p213
aVZEPPELIN-3469
p214
aVZEPPELIN-3468
p215
aVZEPPELIN-3467
p216
aVZEPPELIN-3466
p217
aVZEPPELIN-3465
p218
aVZEPPELIN-3464
p219
aVZEPPELIN-3463
p220
aVZEPPELIN-3462
p221
aVZEPPELIN-3461
p222
aVZEPPELIN-3460
p223
aVZEPPELIN-3459
p224
aVZEPPELIN-3458
p225
aVZEPPELIN-3457
p226
aVZEPPELIN-3456
p227
aVZEPPELIN-3455
p228
aVZEPPELIN-3454
p229
aVZEPPELIN-3453
p230
aVZEPPELIN-3452
p231
aVZEPPELIN-3451
p232
aVZEPPELIN-3450
p233
aVZEPPELIN-3449
p234
aVZEPPELIN-3448
p235
aVZEPPELIN-3447
p236
aVZEPPELIN-3446
p237
aVZEPPELIN-3445
p238
aVZEPPELIN-3444
p239
aVZEPPELIN-3443
p240
aVZEPPELIN-3442
p241
aVZEPPELIN-3441
p242
aVZEPPELIN-3440
p243
aVZEPPELIN-3439
p244
aVZEPPELIN-3438
p245
aVZEPPELIN-3437
p246
aVZEPPELIN-3436
p247
aVZEPPELIN-3435
p248
aVZEPPELIN-3434
p249
aVZEPPELIN-3433
p250
aVZEPPELIN-3432
p251
aVZEPPELIN-3431
p252
aVZEPPELIN-3430
p253
aVZEPPELIN-3429
p254
aVZEPPELIN-3428
p255
aVZEPPELIN-3427
p256
aVZEPPELIN-3426
p257
aVZEPPELIN-3425
p258
aVZEPPELIN-3424
p259
aVZEPPELIN-3423
p260
aVZEPPELIN-3422
p261
aVZEPPELIN-3421
p262
aVZEPPELIN-3420
p263
aVZEPPELIN-3419
p264
aVZEPPELIN-3418
p265
aVZEPPELIN-3417
p266
aVZEPPELIN-3416
p267
aVZEPPELIN-3415
p268
aVZEPPELIN-3414
p269
aVZEPPELIN-3413
p270
aVZEPPELIN-3412
p271
aVZEPPELIN-3411
p272
aVZEPPELIN-3410
p273
aVZEPPELIN-3409
p274
aVZEPPELIN-3408
p275
aVZEPPELIN-3407
p276
aVZEPPELIN-3406
p277
aVZEPPELIN-3405
p278
aVZEPPELIN-3404
p279
aVZEPPELIN-3403
p280
aVZEPPELIN-3402
p281
aVZEPPELIN-3401
p282
aVZEPPELIN-3400
p283
aVZEPPELIN-3399
p284
aVZEPPELIN-3398
p285
aVZEPPELIN-3397
p286
aVZEPPELIN-3396
p287
aVZEPPELIN-3395
p288
aVZEPPELIN-3394
p289
aVZEPPELIN-3393
p290
aVZEPPELIN-3392
p291
aVZEPPELIN-3391
p292
aVZEPPELIN-3390
p293
aVZEPPELIN-3389
p294
aVZEPPELIN-3388
p295
aVZEPPELIN-3387
p296
aVZEPPELIN-3386
p297
aVZEPPELIN-3385
p298
aVZEPPELIN-3384
p299
aVZEPPELIN-3383
p300
aVZEPPELIN-3382
p301
aVZEPPELIN-3381
p302
aVZEPPELIN-3380
p303
aVZEPPELIN-3379
p304
aVZEPPELIN-3378
p305
aVZEPPELIN-3377
p306
aVZEPPELIN-3376
p307
aVZEPPELIN-3375
p308
aVZEPPELIN-3374
p309
aVZEPPELIN-3373
p310
aVZEPPELIN-3372
p311
aVZEPPELIN-3371
p312
aVZEPPELIN-3370
p313
aVZEPPELIN-3369
p314
aVZEPPELIN-3368
p315
aVZEPPELIN-3367
p316
aVZEPPELIN-3366
p317
aVZEPPELIN-3365
p318
aVZEPPELIN-3364
p319
aVZEPPELIN-3363
p320
aVZEPPELIN-3362
p321
aVZEPPELIN-3361
p322
aVZEPPELIN-3360
p323
aVZEPPELIN-3359
p324
aVZEPPELIN-3358
p325
aVZEPPELIN-3357
p326
aVZEPPELIN-3356
p327
aVZEPPELIN-3355
p328
aVZEPPELIN-3354
p329
aVZEPPELIN-3353
p330
aVZEPPELIN-3352
p331
aVZEPPELIN-3351
p332
aVZEPPELIN-3350
p333
aVZEPPELIN-3349
p334
aVZEPPELIN-3348
p335
aVZEPPELIN-3347
p336
aVZEPPELIN-3346
p337
aVZEPPELIN-3345
p338
aVZEPPELIN-3344
p339
aVZEPPELIN-3343
p340
aVZEPPELIN-3342
p341
aVZEPPELIN-3341
p342
aVZEPPELIN-3340
p343
aVZEPPELIN-3339
p344
aVZEPPELIN-3338
p345
aVZEPPELIN-3337
p346
aVZEPPELIN-3336
p347
aVZEPPELIN-3335
p348
aVZEPPELIN-3334
p349
aVZEPPELIN-3333
p350
aVZEPPELIN-3332
p351
aVZEPPELIN-3331
p352
aVZEPPELIN-3330
p353
aVZEPPELIN-3329
p354
aVZEPPELIN-3328
p355
aVZEPPELIN-3327
p356
aVZEPPELIN-3326
p357
aVZEPPELIN-3325
p358
aVZEPPELIN-3324
p359
aVZEPPELIN-3323
p360
aVZEPPELIN-3322
p361
aVZEPPELIN-3321
p362
aVZEPPELIN-3320
p363
aVZEPPELIN-3319
p364
aVZEPPELIN-3318
p365
aVZEPPELIN-3317
p366
aVZEPPELIN-3316
p367
aVZEPPELIN-3315
p368
aVZEPPELIN-3314
p369
aVZEPPELIN-3313
p370
aVZEPPELIN-3312
p371
aVZEPPELIN-3311
p372
aVZEPPELIN-3310
p373
aVZEPPELIN-3309
p374
aVZEPPELIN-3308
p375
aVZEPPELIN-3307
p376
aVZEPPELIN-3306
p377
aVZEPPELIN-3305
p378
aVZEPPELIN-3304
p379
aVZEPPELIN-3303
p380
aVZEPPELIN-3302
p381
aVZEPPELIN-3301
p382
aVZEPPELIN-3300
p383
aVZEPPELIN-3299
p384
aVZEPPELIN-3298
p385
aVZEPPELIN-3297
p386
aVZEPPELIN-3296
p387
aVZEPPELIN-3295
p388
aVZEPPELIN-3294
p389
aVZEPPELIN-3293
p390
aVZEPPELIN-3292
p391
aVZEPPELIN-3291
p392
aVZEPPELIN-3290
p393
aVZEPPELIN-3289
p394
aVZEPPELIN-3288
p395
aVZEPPELIN-3287
p396
aVZEPPELIN-3286
p397
aVZEPPELIN-3285
p398
aVZEPPELIN-3284
p399
aVZEPPELIN-3283
p400
aVZEPPELIN-3282
p401
aVZEPPELIN-3281
p402
aVZEPPELIN-3280
p403
aVZEPPELIN-3279
p404
aVZEPPELIN-3278
p405
aVZEPPELIN-3277
p406
aVZEPPELIN-3276
p407
aVZEPPELIN-3275
p408
aVZEPPELIN-3274
p409
aVZEPPELIN-3273
p410
aVZEPPELIN-3272
p411
aVZEPPELIN-3271
p412
aVZEPPELIN-3270
p413
aVZEPPELIN-3269
p414
aVZEPPELIN-3268
p415
aVZEPPELIN-3267
p416
aVZEPPELIN-3266
p417
aVZEPPELIN-3265
p418
aVZEPPELIN-3264
p419
aVZEPPELIN-3263
p420
aVZEPPELIN-3262
p421
aVZEPPELIN-3261
p422
aVZEPPELIN-3260
p423
aVZEPPELIN-3259
p424
aVZEPPELIN-3258
p425
aVZEPPELIN-3257
p426
aVZEPPELIN-3256
p427
aVZEPPELIN-3255
p428
aVZEPPELIN-3254
p429
aVZEPPELIN-3253
p430
aVZEPPELIN-3252
p431
aVZEPPELIN-3251
p432
aVZEPPELIN-3250
p433
aVZEPPELIN-3249
p434
aVZEPPELIN-3248
p435
aVZEPPELIN-3247
p436
aVZEPPELIN-3246
p437
aVZEPPELIN-3245
p438
aVZEPPELIN-3244
p439
aVZEPPELIN-3243
p440
aVZEPPELIN-3242
p441
aVZEPPELIN-3241
p442
aVZEPPELIN-3240
p443
aVZEPPELIN-3239
p444
aVZEPPELIN-3238
p445
aVZEPPELIN-3237
p446
aVZEPPELIN-3236
p447
aVZEPPELIN-3235
p448
aVZEPPELIN-3234
p449
aVZEPPELIN-3233
p450
aVZEPPELIN-3232
p451
aVZEPPELIN-3231
p452
aVZEPPELIN-3230
p453
aVZEPPELIN-3229
p454
aVZEPPELIN-3228
p455
aVZEPPELIN-3227
p456
aVZEPPELIN-3226
p457
aVZEPPELIN-3225
p458
aVZEPPELIN-3224
p459
aVZEPPELIN-3223
p460
aVZEPPELIN-3222
p461
aVZEPPELIN-3221
p462
aVZEPPELIN-3220
p463
aVZEPPELIN-3219
p464
aVZEPPELIN-3218
p465
aVZEPPELIN-3217
p466
aVZEPPELIN-3216
p467
aVZEPPELIN-3215
p468
aVZEPPELIN-3214
p469
aVZEPPELIN-3213
p470
aVZEPPELIN-3212
p471
aVZEPPELIN-3211
p472
aVZEPPELIN-3210
p473
aVZEPPELIN-3209
p474
aVZEPPELIN-3208
p475
aVZEPPELIN-3207
p476
aVZEPPELIN-3206
p477
aVZEPPELIN-3205
p478
aVZEPPELIN-3204
p479
aVZEPPELIN-3203
p480
aVZEPPELIN-3202
p481
aVZEPPELIN-3201
p482
aVZEPPELIN-3200
p483
aVZEPPELIN-3199
p484
aVZEPPELIN-3198
p485
aVZEPPELIN-3197
p486
aVZEPPELIN-3196
p487
aVZEPPELIN-3195
p488
aVZEPPELIN-3194
p489
aVZEPPELIN-3193
p490
aVZEPPELIN-3192
p491
aVZEPPELIN-3191
p492
aVZEPPELIN-3190
p493
aVZEPPELIN-3189
p494
aVZEPPELIN-3188
p495
aVZEPPELIN-3187
p496
aVZEPPELIN-3186
p497
aVZEPPELIN-3185
p498
aVZEPPELIN-3184
p499
aVZEPPELIN-3183
p500
aVZEPPELIN-3182
p501
aVZEPPELIN-3181
p502
aVZEPPELIN-3180
p503
aVZEPPELIN-3179
p504
aVZEPPELIN-3178
p505
aVZEPPELIN-3177
p506
aVZEPPELIN-3176
p507
aVZEPPELIN-3175
p508
aVZEPPELIN-3174
p509
aVZEPPELIN-3173
p510
aVZEPPELIN-3172
p511
aVZEPPELIN-3171
p512
aVZEPPELIN-3170
p513
aVZEPPELIN-3169
p514
aVZEPPELIN-3168
p515
aVZEPPELIN-3167
p516
aVZEPPELIN-3166
p517
aVZEPPELIN-3165
p518
aVZEPPELIN-3164
p519
aVZEPPELIN-3163
p520
aVZEPPELIN-3162
p521
aVZEPPELIN-3161
p522
aVZEPPELIN-3160
p523
aVZEPPELIN-3159
p524
aVZEPPELIN-3158
p525
aVZEPPELIN-3157
p526
aVZEPPELIN-3156
p527
aVZEPPELIN-3155
p528
aVZEPPELIN-3154
p529
aVZEPPELIN-3153
p530
aVZEPPELIN-3152
p531
aVZEPPELIN-3151
p532
aVZEPPELIN-3150
p533
aVZEPPELIN-3149
p534
aVZEPPELIN-3148
p535
aVZEPPELIN-3147
p536
aVZEPPELIN-3146
p537
aVZEPPELIN-3145
p538
aVZEPPELIN-3144
p539
aVZEPPELIN-3143
p540
aVZEPPELIN-3142
p541
aVZEPPELIN-3141
p542
aVZEPPELIN-3140
p543
aVZEPPELIN-3139
p544
aVZEPPELIN-3138
p545
aVZEPPELIN-3137
p546
aVZEPPELIN-3136
p547
aVZEPPELIN-3135
p548
aVZEPPELIN-3134
p549
aVZEPPELIN-3133
p550
aVZEPPELIN-3132
p551
aVZEPPELIN-3131
p552
aVZEPPELIN-3130
p553
aVZEPPELIN-3129
p554
aVZEPPELIN-3128
p555
aVZEPPELIN-3127
p556
aVZEPPELIN-3126
p557
aVZEPPELIN-3125
p558
aVZEPPELIN-3124
p559
aVZEPPELIN-3123
p560
aVZEPPELIN-3122
p561
aVZEPPELIN-3121
p562
aVZEPPELIN-3120
p563
aVZEPPELIN-3119
p564
aVZEPPELIN-3118
p565
aVZEPPELIN-3117
p566
aVZEPPELIN-3116
p567
aVZEPPELIN-3115
p568
aVZEPPELIN-3114
p569
aVZEPPELIN-3113
p570
aVZEPPELIN-3112
p571
aVZEPPELIN-3111
p572
aVZEPPELIN-3110
p573
aVZEPPELIN-3109
p574
aVZEPPELIN-3108
p575
aVZEPPELIN-3107
p576
aVZEPPELIN-3106
p577
aVZEPPELIN-3105
p578
aVZEPPELIN-3104
p579
aVZEPPELIN-3103
p580
aVZEPPELIN-3102
p581
aVZEPPELIN-3101
p582
aVZEPPELIN-3100
p583
aVZEPPELIN-3099
p584
aVZEPPELIN-3098
p585
aVZEPPELIN-3097
p586
aVZEPPELIN-3096
p587
aVZEPPELIN-3095
p588
aVZEPPELIN-3094
p589
aVZEPPELIN-3093
p590
aVZEPPELIN-3092
p591
aVZEPPELIN-3091
p592
aVZEPPELIN-3090
p593
aVZEPPELIN-3089
p594
aVZEPPELIN-3088
p595
aVZEPPELIN-3087
p596
aVZEPPELIN-3086
p597
aVZEPPELIN-3085
p598
aVZEPPELIN-3084
p599
aVZEPPELIN-3083
p600
aVZEPPELIN-3082
p601
aVZEPPELIN-3081
p602
aVZEPPELIN-3080
p603
aVZEPPELIN-3079
p604
aVZEPPELIN-3078
p605
aVZEPPELIN-3077
p606
aVZEPPELIN-3076
p607
aVZEPPELIN-3075
p608
aVZEPPELIN-3074
p609
aVZEPPELIN-3073
p610
aVZEPPELIN-3072
p611
aVZEPPELIN-3071
p612
aVZEPPELIN-3070
p613
aVZEPPELIN-3069
p614
aVZEPPELIN-3068
p615
aVZEPPELIN-3067
p616
aVZEPPELIN-3066
p617
aVZEPPELIN-3065
p618
aVZEPPELIN-3064
p619
aVZEPPELIN-3063
p620
aVZEPPELIN-3062
p621
aVZEPPELIN-3061
p622
aVZEPPELIN-3060
p623
aVZEPPELIN-3059
p624
aVZEPPELIN-3058
p625
aVZEPPELIN-3057
p626
aVZEPPELIN-3056
p627
aVZEPPELIN-3055
p628
aVZEPPELIN-3054
p629
aVZEPPELIN-3053
p630
aVZEPPELIN-3052
p631
aVZEPPELIN-3051
p632
aVZEPPELIN-3050
p633
aVZEPPELIN-3049
p634
aVZEPPELIN-3048
p635
aVZEPPELIN-3047
p636
aVZEPPELIN-3046
p637
aVZEPPELIN-3045
p638
aVZEPPELIN-3044
p639
aVZEPPELIN-3043
p640
aVZEPPELIN-3042
p641
aVZEPPELIN-3041
p642
aVZEPPELIN-3040
p643
aVZEPPELIN-3039
p644
aVZEPPELIN-3038
p645
aVZEPPELIN-3037
p646
aVZEPPELIN-3036
p647
aVZEPPELIN-3035
p648
aVZEPPELIN-3034
p649
aVZEPPELIN-3033
p650
aVZEPPELIN-3032
p651
aVZEPPELIN-3031
p652
aVZEPPELIN-3030
p653
aVZEPPELIN-3029
p654
aVZEPPELIN-3028
p655
aVZEPPELIN-3027
p656
aVZEPPELIN-3026
p657
aVZEPPELIN-3025
p658
aVZEPPELIN-3024
p659
aVZEPPELIN-3023
p660
aVZEPPELIN-3022
p661
aVZEPPELIN-3021
p662
aVZEPPELIN-3020
p663
aVZEPPELIN-3019
p664
aVZEPPELIN-3018
p665
aVZEPPELIN-3017
p666
aVZEPPELIN-3016
p667
aVZEPPELIN-3015
p668
aVZEPPELIN-3014
p669
aVZEPPELIN-3013
p670
aVZEPPELIN-3012
p671
aVZEPPELIN-3011
p672
aVZEPPELIN-3010
p673
aVZEPPELIN-3009
p674
aVZEPPELIN-3008
p675
aVZEPPELIN-3007
p676
aVZEPPELIN-3006
p677
aVZEPPELIN-3005
p678
aVZEPPELIN-3004
p679
aVZEPPELIN-3003
p680
aVZEPPELIN-3002
p681
aVZEPPELIN-3001
p682
aVZEPPELIN-3000
p683
aVZEPPELIN-2999
p684
aVZEPPELIN-2998
p685
aVZEPPELIN-2997
p686
aVZEPPELIN-2996
p687
aVZEPPELIN-2995
p688
aVZEPPELIN-2994
p689
aVZEPPELIN-2993
p690
aVZEPPELIN-2992
p691
aVZEPPELIN-2991
p692
aVZEPPELIN-2990
p693
aVZEPPELIN-2989
p694
aVZEPPELIN-2988
p695
aVZEPPELIN-2987
p696
aVZEPPELIN-2986
p697
aVZEPPELIN-2985
p698
aVZEPPELIN-2984
p699
aVZEPPELIN-2983
p700
aVZEPPELIN-2982
p701
aVZEPPELIN-2981
p702
aVZEPPELIN-2980
p703
aVZEPPELIN-2979
p704
aVZEPPELIN-2978
p705
aVZEPPELIN-2977
p706
aVZEPPELIN-2976
p707
aVZEPPELIN-2975
p708
aVZEPPELIN-2974
p709
aVZEPPELIN-2973
p710
aVZEPPELIN-2972
p711
aVZEPPELIN-2971
p712
aVZEPPELIN-2970
p713
aVZEPPELIN-2969
p714
aVZEPPELIN-2968
p715
aVZEPPELIN-2967
p716
aVZEPPELIN-2966
p717
aVZEPPELIN-2965
p718
aVZEPPELIN-2964
p719
aVZEPPELIN-2963
p720
aVZEPPELIN-2962
p721
aVZEPPELIN-2961
p722
aVZEPPELIN-2960
p723
aVZEPPELIN-2959
p724
aVZEPPELIN-2958
p725
aVZEPPELIN-2957
p726
aVZEPPELIN-2956
p727
aVZEPPELIN-2955
p728
aVZEPPELIN-2954
p729
aVZEPPELIN-2953
p730
aVZEPPELIN-2952
p731
aVZEPPELIN-2951
p732
aVZEPPELIN-2950
p733
aVZEPPELIN-2949
p734
aVZEPPELIN-2948
p735
aVZEPPELIN-2947
p736
aVZEPPELIN-2946
p737
aVZEPPELIN-2945
p738
aVZEPPELIN-2944
p739
aVZEPPELIN-2943
p740
aVZEPPELIN-2942
p741
aVZEPPELIN-2941
p742
aVZEPPELIN-2940
p743
aVZEPPELIN-2939
p744
aVZEPPELIN-2938
p745
aVZEPPELIN-2937
p746
aVZEPPELIN-2936
p747
aVZEPPELIN-2935
p748
aVZEPPELIN-2934
p749
aVZEPPELIN-2933
p750
aVZEPPELIN-2932
p751
aVZEPPELIN-2931
p752
aVZEPPELIN-2930
p753
aVZEPPELIN-2929
p754
aVZEPPELIN-2928
p755
aVZEPPELIN-2927
p756
aVZEPPELIN-2926
p757
aVZEPPELIN-2925
p758
aVZEPPELIN-2924
p759
aVZEPPELIN-2923
p760
aVZEPPELIN-2922
p761
aVZEPPELIN-2921
p762
aVZEPPELIN-2920
p763
aVZEPPELIN-2919
p764
aVZEPPELIN-2918
p765
aVZEPPELIN-2917
p766
aVZEPPELIN-2916
p767
aVZEPPELIN-2915
p768
aVZEPPELIN-2914
p769
aVZEPPELIN-2913
p770
aVZEPPELIN-2912
p771
aVZEPPELIN-2911
p772
aVZEPPELIN-2910
p773
aVZEPPELIN-2909
p774
aVZEPPELIN-2908
p775
aVZEPPELIN-2907
p776
aVZEPPELIN-2906
p777
aVZEPPELIN-2905
p778
aVZEPPELIN-2904
p779
aVZEPPELIN-2903
p780
aVZEPPELIN-2902
p781
aVZEPPELIN-2901
p782
aVZEPPELIN-2900
p783
aVZEPPELIN-2899
p784
aVZEPPELIN-2898
p785
aVZEPPELIN-2897
p786
aVZEPPELIN-2896
p787
aVZEPPELIN-2895
p788
aVZEPPELIN-2894
p789
aVZEPPELIN-2893
p790
aVZEPPELIN-2892
p791
aVZEPPELIN-2891
p792
aVZEPPELIN-2890
p793
aVZEPPELIN-2889
p794
aVZEPPELIN-2888
p795
aVZEPPELIN-2887
p796
aVZEPPELIN-2886
p797
aVZEPPELIN-2885
p798
aVZEPPELIN-2884
p799
aVZEPPELIN-2883
p800
aVZEPPELIN-2882
p801
aVZEPPELIN-2881
p802
aVZEPPELIN-2880
p803
aVZEPPELIN-2879
p804
aVZEPPELIN-2878
p805
aVZEPPELIN-2877
p806
aVZEPPELIN-2876
p807
aVZEPPELIN-2875
p808
aVZEPPELIN-2874
p809
aVZEPPELIN-2873
p810
aVZEPPELIN-2872
p811
aVZEPPELIN-2871
p812
aVZEPPELIN-2870
p813
aVZEPPELIN-2869
p814
aVZEPPELIN-2868
p815
aVZEPPELIN-2867
p816
aVZEPPELIN-2866
p817
aVZEPPELIN-2865
p818
aVZEPPELIN-2864
p819
aVZEPPELIN-2863
p820
aVZEPPELIN-2862
p821
aVZEPPELIN-2861
p822
aVZEPPELIN-2860
p823
aVZEPPELIN-2859
p824
aVZEPPELIN-2858
p825
aVZEPPELIN-2857
p826
aVZEPPELIN-2856
p827
aVZEPPELIN-2855
p828
aVZEPPELIN-2854
p829
aVZEPPELIN-2853
p830
aVZEPPELIN-2852
p831
aVZEPPELIN-2851
p832
aVZEPPELIN-2850
p833
aVZEPPELIN-2849
p834
aVZEPPELIN-2848
p835
aVZEPPELIN-2847
p836
aVZEPPELIN-2846
p837
aVZEPPELIN-2845
p838
aVZEPPELIN-2844
p839
aVZEPPELIN-2843
p840
aVZEPPELIN-2842
p841
aVZEPPELIN-2841
p842
aVZEPPELIN-2840
p843
aVZEPPELIN-2839
p844
aVZEPPELIN-2838
p845
aVZEPPELIN-2837
p846
aVZEPPELIN-2836
p847
aVZEPPELIN-2835
p848
aVZEPPELIN-2834
p849
aVZEPPELIN-2833
p850
aVZEPPELIN-2832
p851
aVZEPPELIN-2831
p852
aVZEPPELIN-2830
p853
aVZEPPELIN-2829
p854
aVZEPPELIN-2828
p855
aVZEPPELIN-2827
p856
aVZEPPELIN-2826
p857
aVZEPPELIN-2825
p858
aVZEPPELIN-2824
p859
aVZEPPELIN-2823
p860
aVZEPPELIN-2822
p861
aVZEPPELIN-2821
p862
aVZEPPELIN-2820
p863
aVZEPPELIN-2819
p864
aVZEPPELIN-2818
p865
aVZEPPELIN-2817
p866
aVZEPPELIN-2816
p867
aVZEPPELIN-2815
p868
aVZEPPELIN-2814
p869
aVZEPPELIN-2813
p870
aVZEPPELIN-2812
p871
aVZEPPELIN-2811
p872
aVZEPPELIN-2810
p873
aVZEPPELIN-2809
p874
aVZEPPELIN-2808
p875
aVZEPPELIN-2807
p876
aVZEPPELIN-2806
p877
aVZEPPELIN-2805
p878
aVZEPPELIN-2804
p879
aVZEPPELIN-2803
p880
aVZEPPELIN-2802
p881
aVZEPPELIN-2801
p882
aVZEPPELIN-2800
p883
aVZEPPELIN-2799
p884
aVZEPPELIN-2798
p885
aVZEPPELIN-2797
p886
aVZEPPELIN-2796
p887
aVZEPPELIN-2795
p888
aVZEPPELIN-2794
p889
aVZEPPELIN-2793
p890
aVZEPPELIN-2792
p891
aVZEPPELIN-2791
p892
aVZEPPELIN-2790
p893
aVZEPPELIN-2789
p894
aVZEPPELIN-2788
p895
aVZEPPELIN-2787
p896
aVZEPPELIN-2786
p897
aVZEPPELIN-2785
p898
aVZEPPELIN-2784
p899
aVZEPPELIN-2783
p900
aVZEPPELIN-2782
p901
aVZEPPELIN-2781
p902
aVZEPPELIN-2780
p903
aVZEPPELIN-2779
p904
aVZEPPELIN-2778
p905
aVZEPPELIN-2777
p906
aVZEPPELIN-2776
p907
aVZEPPELIN-2775
p908
aVZEPPELIN-2774
p909
aVZEPPELIN-2773
p910
aVZEPPELIN-2772
p911
aVZEPPELIN-2771
p912
aVZEPPELIN-2770
p913
aVZEPPELIN-2769
p914
aVZEPPELIN-2768
p915
aVZEPPELIN-2767
p916
aVZEPPELIN-2766
p917
aVZEPPELIN-2765
p918
aVZEPPELIN-2764
p919
aVZEPPELIN-2763
p920
aVZEPPELIN-2762
p921
aVZEPPELIN-2761
p922
aVZEPPELIN-2760
p923
aVZEPPELIN-2759
p924
aVZEPPELIN-2758
p925
aVZEPPELIN-2757
p926
aVZEPPELIN-2756
p927
aVZEPPELIN-2755
p928
aVZEPPELIN-2754
p929
aVZEPPELIN-2753
p930
aVZEPPELIN-2752
p931
aVZEPPELIN-2751
p932
aVZEPPELIN-2750
p933
aVZEPPELIN-2749
p934
aVZEPPELIN-2748
p935
aVZEPPELIN-2747
p936
aVZEPPELIN-2746
p937
aVZEPPELIN-2745
p938
aVZEPPELIN-2744
p939
aVZEPPELIN-2743
p940
aVZEPPELIN-2742
p941
aVZEPPELIN-2741
p942
aVZEPPELIN-2740
p943
aVZEPPELIN-2739
p944
aVZEPPELIN-2738
p945
aVZEPPELIN-2737
p946
aVZEPPELIN-2736
p947
aVZEPPELIN-2735
p948
aVZEPPELIN-2734
p949
aVZEPPELIN-2733
p950
aVZEPPELIN-2732
p951
aVZEPPELIN-2731
p952
aVZEPPELIN-2730
p953
aVZEPPELIN-2729
p954
aVZEPPELIN-2728
p955
aVZEPPELIN-2727
p956
aVZEPPELIN-2726
p957
aVZEPPELIN-2725
p958
aVZEPPELIN-2724
p959
aVZEPPELIN-2723
p960
aVZEPPELIN-2722
p961
aVZEPPELIN-2721
p962
aVZEPPELIN-2720
p963
aVZEPPELIN-2719
p964
aVZEPPELIN-2718
p965
aVZEPPELIN-2717
p966
aVZEPPELIN-2716
p967
aVZEPPELIN-2715
p968
aVZEPPELIN-2714
p969
aVZEPPELIN-2713
p970
aVZEPPELIN-2712
p971
aVZEPPELIN-2711
p972
aVZEPPELIN-2710
p973
aVZEPPELIN-2709
p974
aVZEPPELIN-2708
p975
aVZEPPELIN-2707
p976
aVZEPPELIN-2706
p977
aVZEPPELIN-2705
p978
aVZEPPELIN-2704
p979
aVZEPPELIN-2703
p980
aVZEPPELIN-2702
p981
aVZEPPELIN-2701
p982
aVZEPPELIN-2700
p983
aVZEPPELIN-2699
p984
aVZEPPELIN-2698
p985
aVZEPPELIN-2697
p986
aVZEPPELIN-2696
p987
aVZEPPELIN-2695
p988
aVZEPPELIN-2694
p989
aVZEPPELIN-2693
p990
aVZEPPELIN-2692
p991
aVZEPPELIN-2691
p992
aVZEPPELIN-2690
p993
aVZEPPELIN-2689
p994
aVZEPPELIN-2688
p995
aVZEPPELIN-2687
p996
aVZEPPELIN-2686
p997
aVZEPPELIN-2685
p998
aVZEPPELIN-2684
p999
aVZEPPELIN-2683
p1000
aVZEPPELIN-2682
p1001
aVZEPPELIN-2681
p1002
aVZEPPELIN-2680
p1003
aVZEPPELIN-2679
p1004
aVZEPPELIN-2678
p1005
aVZEPPELIN-2677
p1006
aVZEPPELIN-2676
p1007
aVZEPPELIN-2675
p1008
aVZEPPELIN-2674
p1009
aVZEPPELIN-2673
p1010
aVZEPPELIN-2672
p1011
aVZEPPELIN-2671
p1012
aVZEPPELIN-2670
p1013
aVZEPPELIN-2669
p1014
aVZEPPELIN-2668
p1015
aVZEPPELIN-2667
p1016
aVZEPPELIN-2666
p1017
aVZEPPELIN-2665
p1018
aVZEPPELIN-2664
p1019
aVZEPPELIN-2663
p1020
aVZEPPELIN-2662
p1021
aVZEPPELIN-2661
p1022
aVZEPPELIN-2660
p1023
aVZEPPELIN-2659
p1024
aVZEPPELIN-2658
p1025
aVZEPPELIN-2657
p1026
aVZEPPELIN-2656
p1027
aVZEPPELIN-2655
p1028
aVZEPPELIN-2654
p1029
aVZEPPELIN-2653
p1030
aVZEPPELIN-2652
p1031
aVZEPPELIN-2651
p1032
aVZEPPELIN-2650
p1033
aVZEPPELIN-2649
p1034
aVZEPPELIN-2648
p1035
aVZEPPELIN-2647
p1036
aVZEPPELIN-2646
p1037
aVZEPPELIN-2645
p1038
aVZEPPELIN-2644
p1039
aVZEPPELIN-2643
p1040
aVZEPPELIN-2642
p1041
aVZEPPELIN-2641
p1042
aVZEPPELIN-2640
p1043
aVZEPPELIN-2639
p1044
aVZEPPELIN-2638
p1045
aVZEPPELIN-2637
p1046
aVZEPPELIN-2636
p1047
aVZEPPELIN-2635
p1048
aVZEPPELIN-2634
p1049
aVZEPPELIN-2633
p1050
aVZEPPELIN-2632
p1051
aVZEPPELIN-2631
p1052
aVZEPPELIN-2630
p1053
aVZEPPELIN-2629
p1054
aVZEPPELIN-2628
p1055
aVZEPPELIN-2627
p1056
aVZEPPELIN-2626
p1057
aVZEPPELIN-2625
p1058
aVZEPPELIN-2624
p1059
aVZEPPELIN-2623
p1060
aVZEPPELIN-2622
p1061
aVZEPPELIN-2621
p1062
aVZEPPELIN-2620
p1063
aVZEPPELIN-2619
p1064
aVZEPPELIN-2618
p1065
aVZEPPELIN-2617
p1066
aVZEPPELIN-2616
p1067
aVZEPPELIN-2615
p1068
aVZEPPELIN-2614
p1069
aVZEPPELIN-2613
p1070
aVZEPPELIN-2612
p1071
aVZEPPELIN-2611
p1072
aVZEPPELIN-2610
p1073
aVZEPPELIN-2609
p1074
aVZEPPELIN-2608
p1075
aVZEPPELIN-2607
p1076
aVZEPPELIN-2606
p1077
aVZEPPELIN-2605
p1078
aVZEPPELIN-2604
p1079
aVZEPPELIN-2603
p1080
aVZEPPELIN-2602
p1081
aVZEPPELIN-2601
p1082
aVZEPPELIN-2600
p1083
aVZEPPELIN-2599
p1084
aVZEPPELIN-2598
p1085
aVZEPPELIN-2597
p1086
aVZEPPELIN-2596
p1087
aVZEPPELIN-2595
p1088
aVZEPPELIN-2594
p1089
aVZEPPELIN-2593
p1090
aVZEPPELIN-2592
p1091
aVZEPPELIN-2591
p1092
aVZEPPELIN-2590
p1093
aVZEPPELIN-2589
p1094
aVZEPPELIN-2588
p1095
aVZEPPELIN-2587
p1096
aVZEPPELIN-2586
p1097
aVZEPPELIN-2585
p1098
aVZEPPELIN-2584
p1099
aVZEPPELIN-2583
p1100
aVZEPPELIN-2582
p1101
aVZEPPELIN-2581
p1102
aVZEPPELIN-2580
p1103
aVZEPPELIN-2579
p1104
aVZEPPELIN-2578
p1105
aVZEPPELIN-2577
p1106
aVZEPPELIN-2576
p1107
aVZEPPELIN-2575
p1108
aVZEPPELIN-2574
p1109
aVZEPPELIN-2573
p1110
aVZEPPELIN-2572
p1111
aVZEPPELIN-2571
p1112
aVZEPPELIN-2570
p1113
aVZEPPELIN-2569
p1114
aVZEPPELIN-2568
p1115
aVZEPPELIN-2567
p1116
aVZEPPELIN-2566
p1117
aVZEPPELIN-2565
p1118
aVZEPPELIN-2564
p1119
aVZEPPELIN-2563
p1120
aVZEPPELIN-2562
p1121
aVZEPPELIN-2561
p1122
aVZEPPELIN-2560
p1123
aVZEPPELIN-2559
p1124
aVZEPPELIN-2558
p1125
aVZEPPELIN-2557
p1126
aVZEPPELIN-2556
p1127
aVZEPPELIN-2555
p1128
aVZEPPELIN-2554
p1129
aVZEPPELIN-2553
p1130
aVZEPPELIN-2552
p1131
aVZEPPELIN-2551
p1132
aVZEPPELIN-2550
p1133
aVZEPPELIN-2549
p1134
aVZEPPELIN-2548
p1135
aVZEPPELIN-2547
p1136
aVZEPPELIN-2546
p1137
aVZEPPELIN-2545
p1138
aVZEPPELIN-2544
p1139
aVZEPPELIN-2543
p1140
aVZEPPELIN-2542
p1141
aVZEPPELIN-2541
p1142
aVZEPPELIN-2540
p1143
aVZEPPELIN-2539
p1144
aVZEPPELIN-2538
p1145
aVZEPPELIN-2537
p1146
aVZEPPELIN-2536
p1147
aVZEPPELIN-2535
p1148
aVZEPPELIN-2534
p1149
aVZEPPELIN-2533
p1150
aVZEPPELIN-2532
p1151
aVZEPPELIN-2531
p1152
aVZEPPELIN-2530
p1153
aVZEPPELIN-2529
p1154
aVZEPPELIN-2528
p1155
aVZEPPELIN-2527
p1156
aVZEPPELIN-2526
p1157
aVZEPPELIN-2525
p1158
aVZEPPELIN-2524
p1159
aVZEPPELIN-2523
p1160
aVZEPPELIN-2522
p1161
aVZEPPELIN-2521
p1162
aVZEPPELIN-2520
p1163
aVZEPPELIN-2519
p1164
aVZEPPELIN-2518
p1165
aVZEPPELIN-2517
p1166
aVZEPPELIN-2516
p1167
aVZEPPELIN-2515
p1168
aVZEPPELIN-2514
p1169
aVZEPPELIN-2513
p1170
aVZEPPELIN-2512
p1171
aVZEPPELIN-2511
p1172
aVZEPPELIN-2510
p1173
aVZEPPELIN-2509
p1174
aVZEPPELIN-2508
p1175
aVZEPPELIN-2507
p1176
aVZEPPELIN-2506
p1177
aVZEPPELIN-2505
p1178
aVZEPPELIN-2504
p1179
aVZEPPELIN-2503
p1180
aVZEPPELIN-2502
p1181
aVZEPPELIN-2501
p1182
aVZEPPELIN-2500
p1183
aVZEPPELIN-2499
p1184
aVZEPPELIN-2498
p1185
aVZEPPELIN-2497
p1186
aVZEPPELIN-2496
p1187
aVZEPPELIN-2495
p1188
aVZEPPELIN-2494
p1189
aVZEPPELIN-2493
p1190
aVZEPPELIN-2492
p1191
aVZEPPELIN-2491
p1192
aVZEPPELIN-2490
p1193
aVZEPPELIN-2489
p1194
aVZEPPELIN-2488
p1195
aVZEPPELIN-2487
p1196
aVZEPPELIN-2486
p1197
aVZEPPELIN-2485
p1198
aVZEPPELIN-2484
p1199
aVZEPPELIN-2483
p1200
aVZEPPELIN-2482
p1201
aVZEPPELIN-2481
p1202
aVZEPPELIN-2480
p1203
aVZEPPELIN-2479
p1204
aVZEPPELIN-2478
p1205
aVZEPPELIN-2477
p1206
aVZEPPELIN-2476
p1207
aVZEPPELIN-2475
p1208
aVZEPPELIN-2474
p1209
aVZEPPELIN-2473
p1210
aVZEPPELIN-2472
p1211
aVZEPPELIN-2471
p1212
aVZEPPELIN-2470
p1213
aVZEPPELIN-2469
p1214
aVZEPPELIN-2468
p1215
aVZEPPELIN-2467
p1216
aVZEPPELIN-2466
p1217
aVZEPPELIN-2465
p1218
aVZEPPELIN-2464
p1219
aVZEPPELIN-2463
p1220
aVZEPPELIN-2462
p1221
aVZEPPELIN-2461
p1222
aVZEPPELIN-2460
p1223
aVZEPPELIN-2459
p1224
aVZEPPELIN-2458
p1225
aVZEPPELIN-2457
p1226
aVZEPPELIN-2456
p1227
aVZEPPELIN-2455
p1228
aVZEPPELIN-2454
p1229
aVZEPPELIN-2453
p1230
aVZEPPELIN-2452
p1231
aVZEPPELIN-2451
p1232
aVZEPPELIN-2450
p1233
aVZEPPELIN-2449
p1234
aVZEPPELIN-2448
p1235
aVZEPPELIN-2447
p1236
aVZEPPELIN-2446
p1237
aVZEPPELIN-2445
p1238
aVZEPPELIN-2444
p1239
aVZEPPELIN-2443
p1240
aVZEPPELIN-2442
p1241
aVZEPPELIN-2441
p1242
aVZEPPELIN-2440
p1243
aVZEPPELIN-2439
p1244
aVZEPPELIN-2438
p1245
aVZEPPELIN-2437
p1246
aVZEPPELIN-2436
p1247
aVZEPPELIN-2435
p1248
aVZEPPELIN-2434
p1249
aVZEPPELIN-2433
p1250
aVZEPPELIN-2432
p1251
aVZEPPELIN-2431
p1252
aVZEPPELIN-2430
p1253
aVZEPPELIN-2429
p1254
aVZEPPELIN-2428
p1255
aVZEPPELIN-2427
p1256
aVZEPPELIN-2426
p1257
aVZEPPELIN-2425
p1258
aVZEPPELIN-2424
p1259
aVZEPPELIN-2423
p1260
aVZEPPELIN-2422
p1261
aVZEPPELIN-2421
p1262
aVZEPPELIN-2420
p1263
aVZEPPELIN-2419
p1264
aVZEPPELIN-2418
p1265
aVZEPPELIN-2417
p1266
aVZEPPELIN-2416
p1267
aVZEPPELIN-2415
p1268
aVZEPPELIN-2414
p1269
aVZEPPELIN-2413
p1270
aVZEPPELIN-2412
p1271
aVZEPPELIN-2411
p1272
aVZEPPELIN-2410
p1273
aVZEPPELIN-2409
p1274
aVZEPPELIN-2408
p1275
aVZEPPELIN-2407
p1276
aVZEPPELIN-2406
p1277
aVZEPPELIN-2405
p1278
aVZEPPELIN-2404
p1279
aVZEPPELIN-2403
p1280
aVZEPPELIN-2402
p1281
aVZEPPELIN-2401
p1282
aVZEPPELIN-2400
p1283
aVZEPPELIN-2399
p1284
aVZEPPELIN-2398
p1285
aVZEPPELIN-2397
p1286
aVZEPPELIN-2396
p1287
aVZEPPELIN-2395
p1288
aVZEPPELIN-2394
p1289
aVZEPPELIN-2393
p1290
aVZEPPELIN-2392
p1291
aVZEPPELIN-2391
p1292
aVZEPPELIN-2390
p1293
aVZEPPELIN-2389
p1294
aVZEPPELIN-2388
p1295
aVZEPPELIN-2387
p1296
aVZEPPELIN-2386
p1297
aVZEPPELIN-2385
p1298
aVZEPPELIN-2384
p1299
aVZEPPELIN-2383
p1300
aVZEPPELIN-2382
p1301
aVZEPPELIN-2381
p1302
aVZEPPELIN-2380
p1303
aVZEPPELIN-2379
p1304
aVZEPPELIN-2378
p1305
aVZEPPELIN-2377
p1306
aVZEPPELIN-2376
p1307
aVZEPPELIN-2375
p1308
aVZEPPELIN-2374
p1309
aVZEPPELIN-2373
p1310
aVZEPPELIN-2372
p1311
aVZEPPELIN-2371
p1312
aVZEPPELIN-2370
p1313
aVZEPPELIN-2369
p1314
aVZEPPELIN-2368
p1315
aVZEPPELIN-2367
p1316
aVZEPPELIN-2366
p1317
aVZEPPELIN-2365
p1318
aVZEPPELIN-2364
p1319
aVZEPPELIN-2363
p1320
aVZEPPELIN-2362
p1321
aVZEPPELIN-2361
p1322
aVZEPPELIN-2360
p1323
aVZEPPELIN-2359
p1324
aVZEPPELIN-2358
p1325
aVZEPPELIN-2357
p1326
aVZEPPELIN-2356
p1327
aVZEPPELIN-2355
p1328
aVZEPPELIN-2354
p1329
aVZEPPELIN-2353
p1330
aVZEPPELIN-2352
p1331
aVZEPPELIN-2351
p1332
aVZEPPELIN-2350
p1333
aVZEPPELIN-2349
p1334
aVZEPPELIN-2348
p1335
aVZEPPELIN-2347
p1336
aVZEPPELIN-2346
p1337
aVZEPPELIN-2345
p1338
aVZEPPELIN-2344
p1339
aVZEPPELIN-2343
p1340
aVZEPPELIN-2342
p1341
aVZEPPELIN-2341
p1342
aVZEPPELIN-2340
p1343
aVZEPPELIN-2339
p1344
aVZEPPELIN-2338
p1345
aVZEPPELIN-2337
p1346
aVZEPPELIN-2336
p1347
aVZEPPELIN-2335
p1348
aVZEPPELIN-2334
p1349
aVZEPPELIN-2333
p1350
aVZEPPELIN-2332
p1351
aVZEPPELIN-2331
p1352
aVZEPPELIN-2330
p1353
aVZEPPELIN-2329
p1354
aVZEPPELIN-2328
p1355
aVZEPPELIN-2327
p1356
aVZEPPELIN-2326
p1357
aVZEPPELIN-2325
p1358
aVZEPPELIN-2324
p1359
aVZEPPELIN-2323
p1360
aVZEPPELIN-2322
p1361
aVZEPPELIN-2321
p1362
aVZEPPELIN-2320
p1363
aVZEPPELIN-2319
p1364
aVZEPPELIN-2318
p1365
aVZEPPELIN-2317
p1366
aVZEPPELIN-2316
p1367
aVZEPPELIN-2315
p1368
aVZEPPELIN-2314
p1369
aVZEPPELIN-2313
p1370
aVZEPPELIN-2312
p1371
aVZEPPELIN-2311
p1372
aVZEPPELIN-2310
p1373
aVZEPPELIN-2309
p1374
aVZEPPELIN-2308
p1375
aVZEPPELIN-2307
p1376
aVZEPPELIN-2306
p1377
aVZEPPELIN-2305
p1378
aVZEPPELIN-2304
p1379
aVZEPPELIN-2303
p1380
aVZEPPELIN-2302
p1381
aVZEPPELIN-2301
p1382
aVZEPPELIN-2300
p1383
aVZEPPELIN-2299
p1384
aVZEPPELIN-2298
p1385
aVZEPPELIN-2297
p1386
aVZEPPELIN-2296
p1387
aVZEPPELIN-2295
p1388
aVZEPPELIN-2294
p1389
aVZEPPELIN-2293
p1390
aVZEPPELIN-2292
p1391
aVZEPPELIN-2291
p1392
aVZEPPELIN-2290
p1393
aVZEPPELIN-2289
p1394
aVZEPPELIN-2288
p1395
aVZEPPELIN-2287
p1396
aVZEPPELIN-2286
p1397
aVZEPPELIN-2285
p1398
aVZEPPELIN-2284
p1399
aVZEPPELIN-2283
p1400
aVZEPPELIN-2282
p1401
aVZEPPELIN-2281
p1402
aVZEPPELIN-2280
p1403
aVZEPPELIN-2279
p1404
aVZEPPELIN-2278
p1405
aVZEPPELIN-2277
p1406
aVZEPPELIN-2276
p1407
aVZEPPELIN-2275
p1408
aVZEPPELIN-2274
p1409
aVZEPPELIN-2273
p1410
aVZEPPELIN-2272
p1411
aVZEPPELIN-2271
p1412
aVZEPPELIN-2270
p1413
aVZEPPELIN-2269
p1414
aVZEPPELIN-2268
p1415
aVZEPPELIN-2267
p1416
aVZEPPELIN-2266
p1417
aVZEPPELIN-2265
p1418
aVZEPPELIN-2264
p1419
aVZEPPELIN-2263
p1420
aVZEPPELIN-2262
p1421
aVZEPPELIN-2261
p1422
aVZEPPELIN-2260
p1423
aVZEPPELIN-2259
p1424
aVZEPPELIN-2258
p1425
aVZEPPELIN-2257
p1426
aVZEPPELIN-2256
p1427
aVZEPPELIN-2255
p1428
aVZEPPELIN-2254
p1429
aVZEPPELIN-2253
p1430
aVZEPPELIN-2252
p1431
aVZEPPELIN-2251
p1432
aVZEPPELIN-2250
p1433
aVZEPPELIN-2249
p1434
aVZEPPELIN-2248
p1435
aVZEPPELIN-2247
p1436
aVZEPPELIN-2246
p1437
aVZEPPELIN-2245
p1438
aVZEPPELIN-2244
p1439
aVZEPPELIN-2243
p1440
aVZEPPELIN-2242
p1441
aVZEPPELIN-2241
p1442
aVZEPPELIN-2240
p1443
aVZEPPELIN-2239
p1444
aVZEPPELIN-2238
p1445
aVZEPPELIN-2237
p1446
aVZEPPELIN-2236
p1447
aVZEPPELIN-2235
p1448
aVZEPPELIN-2234
p1449
aVZEPPELIN-2233
p1450
aVZEPPELIN-2232
p1451
aVZEPPELIN-2231
p1452
aVZEPPELIN-2230
p1453
aVZEPPELIN-2229
p1454
aVZEPPELIN-2228
p1455
aVZEPPELIN-2227
p1456
aVZEPPELIN-2226
p1457
aVZEPPELIN-2225
p1458
aVZEPPELIN-2224
p1459
aVZEPPELIN-2223
p1460
aVZEPPELIN-2222
p1461
aVZEPPELIN-2221
p1462
aVZEPPELIN-2220
p1463
aVZEPPELIN-2219
p1464
aVZEPPELIN-2218
p1465
aVZEPPELIN-2217
p1466
aVZEPPELIN-2216
p1467
aVZEPPELIN-2215
p1468
aVZEPPELIN-2214
p1469
aVZEPPELIN-2213
p1470
aVZEPPELIN-2212
p1471
aVZEPPELIN-2211
p1472
aVZEPPELIN-2210
p1473
aVZEPPELIN-2209
p1474
aVZEPPELIN-2208
p1475
aVZEPPELIN-2207
p1476
aVZEPPELIN-2206
p1477
aVZEPPELIN-2205
p1478
aVZEPPELIN-2204
p1479
aVZEPPELIN-2203
p1480
aVZEPPELIN-2202
p1481
aVZEPPELIN-2201
p1482
aVZEPPELIN-2200
p1483
aVZEPPELIN-2199
p1484
aVZEPPELIN-2198
p1485
aVZEPPELIN-2197
p1486
aVZEPPELIN-2196
p1487
aVZEPPELIN-2195
p1488
aVZEPPELIN-2194
p1489
aVZEPPELIN-2193
p1490
aVZEPPELIN-2192
p1491
aVZEPPELIN-2191
p1492
aVZEPPELIN-2190
p1493
aVZEPPELIN-2189
p1494
aVZEPPELIN-2188
p1495
aVZEPPELIN-2187
p1496
aVZEPPELIN-2186
p1497
aVZEPPELIN-2185
p1498
aVZEPPELIN-2184
p1499
aVZEPPELIN-2183
p1500
aVZEPPELIN-2182
p1501
aVZEPPELIN-2181
p1502
aVZEPPELIN-2180
p1503
aVZEPPELIN-2179
p1504
aVZEPPELIN-2178
p1505
aVZEPPELIN-2177
p1506
aVZEPPELIN-2176
p1507
aVZEPPELIN-2175
p1508
aVZEPPELIN-2174
p1509
aVZEPPELIN-2173
p1510
aVZEPPELIN-2172
p1511
aVZEPPELIN-2171
p1512
aVZEPPELIN-2170
p1513
aVZEPPELIN-2169
p1514
aVZEPPELIN-2168
p1515
aVZEPPELIN-2167
p1516
aVZEPPELIN-2166
p1517
aVZEPPELIN-2165
p1518
aVZEPPELIN-2164
p1519
aVZEPPELIN-2163
p1520
aVZEPPELIN-2162
p1521
aVZEPPELIN-2161
p1522
aVZEPPELIN-2160
p1523
aVZEPPELIN-2159
p1524
aVZEPPELIN-2158
p1525
aVZEPPELIN-2157
p1526
aVZEPPELIN-2156
p1527
aVZEPPELIN-2155
p1528
aVZEPPELIN-2154
p1529
aVZEPPELIN-2153
p1530
aVZEPPELIN-2152
p1531
aVZEPPELIN-2151
p1532
aVZEPPELIN-2150
p1533
aVZEPPELIN-2149
p1534
aVZEPPELIN-2148
p1535
aVZEPPELIN-2147
p1536
aVZEPPELIN-2146
p1537
aVZEPPELIN-2145
p1538
aVZEPPELIN-2144
p1539
aVZEPPELIN-2143
p1540
aVZEPPELIN-2142
p1541
aVZEPPELIN-2141
p1542
aVZEPPELIN-2140
p1543
aVZEPPELIN-2139
p1544
aVZEPPELIN-2138
p1545
aVZEPPELIN-2137
p1546
aVZEPPELIN-2136
p1547
aVZEPPELIN-2135
p1548
aVZEPPELIN-2134
p1549
aVZEPPELIN-2133
p1550
aVZEPPELIN-2132
p1551
aVZEPPELIN-2131
p1552
aVZEPPELIN-2130
p1553
aVZEPPELIN-2129
p1554
aVZEPPELIN-2128
p1555
aVZEPPELIN-2127
p1556
aVZEPPELIN-2126
p1557
aVZEPPELIN-2125
p1558
aVZEPPELIN-2124
p1559
aVZEPPELIN-2123
p1560
aVZEPPELIN-2122
p1561
aVZEPPELIN-2121
p1562
aVZEPPELIN-2120
p1563
aVZEPPELIN-2119
p1564
aVZEPPELIN-2118
p1565
aVZEPPELIN-2117
p1566
aVZEPPELIN-2116
p1567
aVZEPPELIN-2115
p1568
aVZEPPELIN-2114
p1569
aVZEPPELIN-2113
p1570
aVZEPPELIN-2112
p1571
aVZEPPELIN-2111
p1572
aVZEPPELIN-2110
p1573
aVZEPPELIN-2109
p1574
aVZEPPELIN-2108
p1575
aVZEPPELIN-2107
p1576
aVZEPPELIN-2106
p1577
aVZEPPELIN-2105
p1578
aVZEPPELIN-2104
p1579
aVZEPPELIN-2103
p1580
aVZEPPELIN-2102
p1581
aVZEPPELIN-2101
p1582
aVZEPPELIN-2100
p1583
aVZEPPELIN-2099
p1584
aVZEPPELIN-2098
p1585
aVZEPPELIN-2097
p1586
aVZEPPELIN-2096
p1587
aVZEPPELIN-2095
p1588
aVZEPPELIN-2094
p1589
aVZEPPELIN-2093
p1590
aVZEPPELIN-2092
p1591
aVZEPPELIN-2091
p1592
aVZEPPELIN-2090
p1593
aVZEPPELIN-2089
p1594
aVZEPPELIN-2088
p1595
aVZEPPELIN-2087
p1596
aVZEPPELIN-2086
p1597
aVZEPPELIN-2085
p1598
aVZEPPELIN-2084
p1599
aVZEPPELIN-2083
p1600
aVZEPPELIN-2082
p1601
aVZEPPELIN-2081
p1602
aVZEPPELIN-2080
p1603
aVZEPPELIN-2079
p1604
aVZEPPELIN-2078
p1605
aVZEPPELIN-2077
p1606
aVZEPPELIN-2076
p1607
aVZEPPELIN-2075
p1608
aVZEPPELIN-2074
p1609
aVZEPPELIN-2073
p1610
aVZEPPELIN-2072
p1611
aVZEPPELIN-2071
p1612
aVZEPPELIN-2070
p1613
aVZEPPELIN-2069
p1614
aVZEPPELIN-2068
p1615
aVZEPPELIN-2067
p1616
aVZEPPELIN-2066
p1617
aVZEPPELIN-2065
p1618
aVZEPPELIN-2064
p1619
aVZEPPELIN-2063
p1620
aVZEPPELIN-2062
p1621
aVZEPPELIN-2061
p1622
aVZEPPELIN-2060
p1623
aVZEPPELIN-2059
p1624
aVZEPPELIN-2058
p1625
aVZEPPELIN-2057
p1626
aVZEPPELIN-2056
p1627
aVZEPPELIN-2055
p1628
aVZEPPELIN-2054
p1629
aVZEPPELIN-2053
p1630
aVZEPPELIN-2052
p1631
aVZEPPELIN-2051
p1632
aVZEPPELIN-2050
p1633
aVZEPPELIN-2049
p1634
aVZEPPELIN-2048
p1635
aVZEPPELIN-2047
p1636
aVZEPPELIN-2046
p1637
aVZEPPELIN-2045
p1638
aVZEPPELIN-2044
p1639
aVZEPPELIN-2043
p1640
aVZEPPELIN-2042
p1641
aVZEPPELIN-2041
p1642
aVZEPPELIN-2040
p1643
aVZEPPELIN-2039
p1644
aVZEPPELIN-2038
p1645
aVZEPPELIN-2037
p1646
aVZEPPELIN-2036
p1647
aVZEPPELIN-2035
p1648
aVZEPPELIN-2034
p1649
aVZEPPELIN-2033
p1650
aVZEPPELIN-2032
p1651
aVZEPPELIN-2031
p1652
aVZEPPELIN-2030
p1653
aVZEPPELIN-2029
p1654
aVZEPPELIN-2028
p1655
aVZEPPELIN-2027
p1656
aVZEPPELIN-2026
p1657
aVZEPPELIN-2025
p1658
aVZEPPELIN-2024
p1659
aVZEPPELIN-2023
p1660
aVZEPPELIN-2022
p1661
aVZEPPELIN-2021
p1662
aVZEPPELIN-2020
p1663
aVZEPPELIN-2019
p1664
aVZEPPELIN-2018
p1665
aVZEPPELIN-2017
p1666
aVZEPPELIN-2016
p1667
aVZEPPELIN-2015
p1668
aVZEPPELIN-2014
p1669
aVZEPPELIN-2013
p1670
aVZEPPELIN-2012
p1671
aVZEPPELIN-2011
p1672
aVZEPPELIN-2010
p1673
aVZEPPELIN-2009
p1674
aVZEPPELIN-2008
p1675
aVZEPPELIN-2007
p1676
aVZEPPELIN-2006
p1677
aVZEPPELIN-2005
p1678
aVZEPPELIN-2004
p1679
aVZEPPELIN-2003
p1680
aVZEPPELIN-2002
p1681
aVZEPPELIN-2001
p1682
aVZEPPELIN-2000
p1683
aVZEPPELIN-1999
p1684
aVZEPPELIN-1998
p1685
aVZEPPELIN-1997
p1686
aVZEPPELIN-1996
p1687
aVZEPPELIN-1995
p1688
aVZEPPELIN-1994
p1689
aVZEPPELIN-1993
p1690
aVZEPPELIN-1992
p1691
aVZEPPELIN-1991
p1692
aVZEPPELIN-1990
p1693
aVZEPPELIN-1989
p1694
aVZEPPELIN-1988
p1695
aVZEPPELIN-1987
p1696
aVZEPPELIN-1986
p1697
aVZEPPELIN-1985
p1698
aVZEPPELIN-1984
p1699
aVZEPPELIN-1983
p1700
aVZEPPELIN-1982
p1701
aVZEPPELIN-1981
p1702
aVZEPPELIN-1980
p1703
aVZEPPELIN-1979
p1704
aVZEPPELIN-1978
p1705
aVZEPPELIN-1977
p1706
aVZEPPELIN-1976
p1707
aVZEPPELIN-1975
p1708
aVZEPPELIN-1974
p1709
aVZEPPELIN-1973
p1710
aVZEPPELIN-1972
p1711
aVZEPPELIN-1971
p1712
aVZEPPELIN-1970
p1713
aVZEPPELIN-1969
p1714
aVZEPPELIN-1968
p1715
aVZEPPELIN-1967
p1716
aVZEPPELIN-1966
p1717
aVZEPPELIN-1965
p1718
aVZEPPELIN-1964
p1719
aVZEPPELIN-1963
p1720
aVZEPPELIN-1962
p1721
aVZEPPELIN-1961
p1722
aVZEPPELIN-1960
p1723
aVZEPPELIN-1959
p1724
aVZEPPELIN-1957
p1725
aVZEPPELIN-1956
p1726
aVZEPPELIN-1955
p1727
aVZEPPELIN-1954
p1728
aVZEPPELIN-1953
p1729
aVZEPPELIN-1952
p1730
aVZEPPELIN-1951
p1731
aVZEPPELIN-1950
p1732
aVZEPPELIN-1949
p1733
aVZEPPELIN-1943
p1734
aVZEPPELIN-1942
p1735
aVZEPPELIN-1941
p1736
aVZEPPELIN-1940
p1737
aVZEPPELIN-1939
p1738
aVZEPPELIN-1938
p1739
aVZEPPELIN-1937
p1740
aVZEPPELIN-1936
p1741
aVZEPPELIN-1935
p1742
aVZEPPELIN-1934
p1743
aVZEPPELIN-1933
p1744
aVZEPPELIN-1932
p1745
aVZEPPELIN-1931
p1746
aVZEPPELIN-1930
p1747
aVZEPPELIN-1929
p1748
aVZEPPELIN-1928
p1749
aVZEPPELIN-1927
p1750
aVZEPPELIN-1926
p1751
aVZEPPELIN-1925
p1752
aVZEPPELIN-1924
p1753
aVZEPPELIN-1923
p1754
aVZEPPELIN-1922
p1755
aVZEPPELIN-1921
p1756
aVZEPPELIN-1920
p1757
aVZEPPELIN-1919
p1758
aVZEPPELIN-1918
p1759
aVZEPPELIN-1917
p1760
aVZEPPELIN-1916
p1761
aVZEPPELIN-1915
p1762
aVZEPPELIN-1914
p1763
aVZEPPELIN-1913
p1764
aVZEPPELIN-1912
p1765
aVZEPPELIN-1911
p1766
aVZEPPELIN-1910
p1767
aVZEPPELIN-1909
p1768
aVZEPPELIN-1908
p1769
aVZEPPELIN-1907
p1770
aVZEPPELIN-1906
p1771
aVZEPPELIN-1905
p1772
aVZEPPELIN-1904
p1773
aVZEPPELIN-1903
p1774
aVZEPPELIN-1902
p1775
aVZEPPELIN-1901
p1776
aVZEPPELIN-1900
p1777
aVZEPPELIN-1899
p1778
aVZEPPELIN-1898
p1779
aVZEPPELIN-1897
p1780
aVZEPPELIN-1896
p1781
aVZEPPELIN-1895
p1782
aVZEPPELIN-1894
p1783
aVZEPPELIN-1893
p1784
aVZEPPELIN-1892
p1785
aVZEPPELIN-1891
p1786
aVZEPPELIN-1890
p1787
aVZEPPELIN-1889
p1788
aVZEPPELIN-1888
p1789
aVZEPPELIN-1887
p1790
aVZEPPELIN-1886
p1791
aVZEPPELIN-1885
p1792
aVZEPPELIN-1884
p1793
aVZEPPELIN-1883
p1794
aVZEPPELIN-1882
p1795
aVZEPPELIN-1881
p1796
aVZEPPELIN-1880
p1797
aVZEPPELIN-1879
p1798
aVZEPPELIN-1878
p1799
aVZEPPELIN-1877
p1800
aVZEPPELIN-1876
p1801
aVZEPPELIN-1875
p1802
aVZEPPELIN-1874
p1803
aVZEPPELIN-1873
p1804
aVZEPPELIN-1872
p1805
aVZEPPELIN-1871
p1806
aVZEPPELIN-1870
p1807
aVZEPPELIN-1869
p1808
aVZEPPELIN-1868
p1809
aVZEPPELIN-1867
p1810
aVZEPPELIN-1866
p1811
aVZEPPELIN-1865
p1812
aVZEPPELIN-1864
p1813
aVZEPPELIN-1863
p1814
aVZEPPELIN-1862
p1815
aVZEPPELIN-1861
p1816
aVZEPPELIN-1860
p1817
aVZEPPELIN-1859
p1818
aVZEPPELIN-1858
p1819
aVZEPPELIN-1857
p1820
aVZEPPELIN-1856
p1821
aVZEPPELIN-1855
p1822
aVZEPPELIN-1854
p1823
aVZEPPELIN-1853
p1824
aVZEPPELIN-1852
p1825
aVZEPPELIN-1851
p1826
aVZEPPELIN-1850
p1827
aVZEPPELIN-1849
p1828
aVZEPPELIN-1848
p1829
aVZEPPELIN-1847
p1830
aVZEPPELIN-1846
p1831
aVZEPPELIN-1845
p1832
aVZEPPELIN-1844
p1833
aVZEPPELIN-1843
p1834
aVZEPPELIN-1842
p1835
aVZEPPELIN-1841
p1836
aVZEPPELIN-1840
p1837
aVZEPPELIN-1839
p1838
aVZEPPELIN-1838
p1839
aVZEPPELIN-1837
p1840
aVZEPPELIN-1836
p1841
aVZEPPELIN-1835
p1842
aVZEPPELIN-1834
p1843
aVZEPPELIN-1833
p1844
aVZEPPELIN-1832
p1845
aVZEPPELIN-1831
p1846
aVZEPPELIN-1830
p1847
aVZEPPELIN-1829
p1848
aVZEPPELIN-1828
p1849
aVZEPPELIN-1827
p1850
aVZEPPELIN-1826
p1851
aVZEPPELIN-1825
p1852
aVZEPPELIN-1824
p1853
aVZEPPELIN-1823
p1854
aVZEPPELIN-1822
p1855
aVZEPPELIN-1821
p1856
aVZEPPELIN-1820
p1857
aVZEPPELIN-1819
p1858
aVZEPPELIN-1818
p1859
aVZEPPELIN-1817
p1860
aVZEPPELIN-1816
p1861
aVZEPPELIN-1815
p1862
aVZEPPELIN-1814
p1863
aVZEPPELIN-1813
p1864
aVZEPPELIN-1812
p1865
aVZEPPELIN-1811
p1866
aVZEPPELIN-1810
p1867
aVZEPPELIN-1809
p1868
aVZEPPELIN-1808
p1869
aVZEPPELIN-1807
p1870
aVZEPPELIN-1806
p1871
aVZEPPELIN-1805
p1872
aVZEPPELIN-1804
p1873
aVZEPPELIN-1803
p1874
aVZEPPELIN-1802
p1875
aVZEPPELIN-1801
p1876
aVZEPPELIN-1800
p1877
aVZEPPELIN-1799
p1878
aVZEPPELIN-1798
p1879
aVZEPPELIN-1797
p1880
aVZEPPELIN-1796
p1881
aVZEPPELIN-1795
p1882
aVZEPPELIN-1794
p1883
aVZEPPELIN-1793
p1884
aVZEPPELIN-1792
p1885
aVZEPPELIN-1791
p1886
aVZEPPELIN-1790
p1887
aVZEPPELIN-1789
p1888
aVZEPPELIN-1788
p1889
aVZEPPELIN-1787
p1890
aVZEPPELIN-1786
p1891
aVZEPPELIN-1785
p1892
aVZEPPELIN-1784
p1893
aVZEPPELIN-1783
p1894
aVZEPPELIN-1782
p1895
aVZEPPELIN-1781
p1896
aVZEPPELIN-1780
p1897
aVZEPPELIN-1779
p1898
aVZEPPELIN-1778
p1899
aVZEPPELIN-1777
p1900
aVZEPPELIN-1776
p1901
aVZEPPELIN-1775
p1902
aVZEPPELIN-1774
p1903
aVZEPPELIN-1773
p1904
aVZEPPELIN-1772
p1905
aVZEPPELIN-1771
p1906
aVZEPPELIN-1770
p1907
aVZEPPELIN-1769
p1908
aVZEPPELIN-1768
p1909
aVZEPPELIN-1767
p1910
aVZEPPELIN-1766
p1911
aVZEPPELIN-1765
p1912
aVZEPPELIN-1764
p1913
aVZEPPELIN-1763
p1914
aVZEPPELIN-1762
p1915
aVZEPPELIN-1761
p1916
aVZEPPELIN-1760
p1917
aVZEPPELIN-1759
p1918
aVZEPPELIN-1758
p1919
aVZEPPELIN-1757
p1920
aVZEPPELIN-1756
p1921
aVZEPPELIN-1755
p1922
aVZEPPELIN-1754
p1923
aVZEPPELIN-1753
p1924
aVZEPPELIN-1752
p1925
aVZEPPELIN-1751
p1926
aVZEPPELIN-1750
p1927
aVZEPPELIN-1749
p1928
aVZEPPELIN-1748
p1929
aVZEPPELIN-1747
p1930
aVZEPPELIN-1746
p1931
aVZEPPELIN-1745
p1932
aVZEPPELIN-1744
p1933
aVZEPPELIN-1743
p1934
aVZEPPELIN-1742
p1935
aVZEPPELIN-1741
p1936
aVZEPPELIN-1740
p1937
aVZEPPELIN-1739
p1938
aVZEPPELIN-1738
p1939
aVZEPPELIN-1737
p1940
aVZEPPELIN-1736
p1941
aVZEPPELIN-1735
p1942
aVZEPPELIN-1734
p1943
aVZEPPELIN-1733
p1944
aVZEPPELIN-1732
p1945
aVZEPPELIN-1731
p1946
aVZEPPELIN-1730
p1947
aVZEPPELIN-1729
p1948
aVZEPPELIN-1728
p1949
aVZEPPELIN-1727
p1950
aVZEPPELIN-1726
p1951
aVZEPPELIN-1725
p1952
aVZEPPELIN-1724
p1953
aVZEPPELIN-1723
p1954
aVZEPPELIN-1722
p1955
aVZEPPELIN-1721
p1956
aVZEPPELIN-1720
p1957
aVZEPPELIN-1719
p1958
aVZEPPELIN-1718
p1959
aVZEPPELIN-1717
p1960
aVZEPPELIN-1716
p1961
aVZEPPELIN-1715
p1962
aVZEPPELIN-1714
p1963
aVZEPPELIN-1713
p1964
aVZEPPELIN-1712
p1965
aVZEPPELIN-1711
p1966
aVZEPPELIN-1710
p1967
aVZEPPELIN-1709
p1968
aVZEPPELIN-1708
p1969
aVZEPPELIN-1707
p1970
aVZEPPELIN-1706
p1971
aVZEPPELIN-1705
p1972
aVZEPPELIN-1704
p1973
aVZEPPELIN-1703
p1974
aVZEPPELIN-1702
p1975
aVZEPPELIN-1701
p1976
aVZEPPELIN-1700
p1977
aVZEPPELIN-1699
p1978
aVZEPPELIN-1698
p1979
aVZEPPELIN-1697
p1980
aVZEPPELIN-1696
p1981
aVZEPPELIN-1695
p1982
aVZEPPELIN-1694
p1983
aVZEPPELIN-1693
p1984
aVZEPPELIN-1692
p1985
aVZEPPELIN-1691
p1986
aVZEPPELIN-1690
p1987
aVZEPPELIN-1689
p1988
aVZEPPELIN-1688
p1989
aVZEPPELIN-1687
p1990
aVZEPPELIN-1686
p1991
aVZEPPELIN-1685
p1992
aVZEPPELIN-1684
p1993
aVZEPPELIN-1683
p1994
aVZEPPELIN-1682
p1995
aVZEPPELIN-1681
p1996
aVZEPPELIN-1680
p1997
aVZEPPELIN-1679
p1998
aVZEPPELIN-1678
p1999
aVZEPPELIN-1677
p2000
aVZEPPELIN-1676
p2001
aVZEPPELIN-1675
p2002
aVZEPPELIN-1674
p2003
aVZEPPELIN-1673
p2004
aVZEPPELIN-1672
p2005
aVZEPPELIN-1671
p2006
aVZEPPELIN-1670
p2007
aVZEPPELIN-1669
p2008
aVZEPPELIN-1668
p2009
aVZEPPELIN-1667
p2010
aVZEPPELIN-1666
p2011
aVZEPPELIN-1665
p2012
aVZEPPELIN-1664
p2013
aVZEPPELIN-1663
p2014
aVZEPPELIN-1662
p2015
aVZEPPELIN-1661
p2016
aVZEPPELIN-1660
p2017
aVZEPPELIN-1659
p2018
aVZEPPELIN-1658
p2019
aVZEPPELIN-1657
p2020
aVZEPPELIN-1656
p2021
aVZEPPELIN-1655
p2022
aVZEPPELIN-1654
p2023
aVZEPPELIN-1653
p2024
aVZEPPELIN-1652
p2025
aVZEPPELIN-1651
p2026
aVZEPPELIN-1650
p2027
aVZEPPELIN-1649
p2028
aVZEPPELIN-1648
p2029
aVZEPPELIN-1647
p2030
aVZEPPELIN-1646
p2031
aVZEPPELIN-1645
p2032
aVZEPPELIN-1644
p2033
aVZEPPELIN-1643
p2034
aVZEPPELIN-1642
p2035
aVZEPPELIN-1641
p2036
aVZEPPELIN-1640
p2037
aVZEPPELIN-1639
p2038
aVZEPPELIN-1638
p2039
aVZEPPELIN-1637
p2040
aVZEPPELIN-1636
p2041
aVZEPPELIN-1635
p2042
aVZEPPELIN-1634
p2043
aVZEPPELIN-1633
p2044
aVZEPPELIN-1632
p2045
aVZEPPELIN-1631
p2046
aVZEPPELIN-1630
p2047
aVZEPPELIN-1629
p2048
aVZEPPELIN-1628
p2049
aVZEPPELIN-1627
p2050
aVZEPPELIN-1626
p2051
aVZEPPELIN-1625
p2052
aVZEPPELIN-1624
p2053
aVZEPPELIN-1623
p2054
aVZEPPELIN-1622
p2055
aVZEPPELIN-1621
p2056
aVZEPPELIN-1620
p2057
aVZEPPELIN-1619
p2058
aVZEPPELIN-1618
p2059
aVZEPPELIN-1617
p2060
aVZEPPELIN-1616
p2061
aVZEPPELIN-1615
p2062
aVZEPPELIN-1614
p2063
aVZEPPELIN-1613
p2064
aVZEPPELIN-1612
p2065
aVZEPPELIN-1611
p2066
aVZEPPELIN-1610
p2067
aVZEPPELIN-1609
p2068
aVZEPPELIN-1608
p2069
aVZEPPELIN-1607
p2070
aVZEPPELIN-1606
p2071
aVZEPPELIN-1605
p2072
aVZEPPELIN-1604
p2073
aVZEPPELIN-1603
p2074
aVZEPPELIN-1602
p2075
aVZEPPELIN-1601
p2076
aVZEPPELIN-1600
p2077
aVZEPPELIN-1599
p2078
aVZEPPELIN-1598
p2079
aVZEPPELIN-1597
p2080
aVZEPPELIN-1596
p2081
aVZEPPELIN-1595
p2082
aVZEPPELIN-1594
p2083
aVZEPPELIN-1593
p2084
aVZEPPELIN-1592
p2085
aVZEPPELIN-1591
p2086
aVZEPPELIN-1590
p2087
aVZEPPELIN-1589
p2088
aVZEPPELIN-1588
p2089
aVZEPPELIN-1587
p2090
aVZEPPELIN-1586
p2091
aVZEPPELIN-1585
p2092
aVZEPPELIN-1584
p2093
aVZEPPELIN-1583
p2094
aVZEPPELIN-1582
p2095
aVZEPPELIN-1581
p2096
aVZEPPELIN-1580
p2097
aVZEPPELIN-1579
p2098
aVZEPPELIN-1578
p2099
aVZEPPELIN-1577
p2100
aVZEPPELIN-1576
p2101
aVZEPPELIN-1575
p2102
aVZEPPELIN-1574
p2103
aVZEPPELIN-1573
p2104
aVZEPPELIN-1572
p2105
aVZEPPELIN-1571
p2106
aVZEPPELIN-1570
p2107
aVZEPPELIN-1569
p2108
aVZEPPELIN-1568
p2109
aVZEPPELIN-1567
p2110
aVZEPPELIN-1566
p2111
aVZEPPELIN-1565
p2112
aVZEPPELIN-1564
p2113
aVZEPPELIN-1563
p2114
aVZEPPELIN-1562
p2115
aVZEPPELIN-1561
p2116
aVZEPPELIN-1560
p2117
aVZEPPELIN-1559
p2118
aVZEPPELIN-1558
p2119
aVZEPPELIN-1557
p2120
aVZEPPELIN-1556
p2121
aVZEPPELIN-1555
p2122
aVZEPPELIN-1554
p2123
aVZEPPELIN-1553
p2124
aVZEPPELIN-1552
p2125
aVZEPPELIN-1551
p2126
aVZEPPELIN-1550
p2127
aVZEPPELIN-1549
p2128
aVZEPPELIN-1548
p2129
aVZEPPELIN-1547
p2130
aVZEPPELIN-1546
p2131
aVZEPPELIN-1545
p2132
aVZEPPELIN-1544
p2133
aVZEPPELIN-1543
p2134
aVZEPPELIN-1542
p2135
aVZEPPELIN-1541
p2136
aVZEPPELIN-1540
p2137
aVZEPPELIN-1539
p2138
aVZEPPELIN-1538
p2139
aVZEPPELIN-1537
p2140
aVZEPPELIN-1536
p2141
aVZEPPELIN-1535
p2142
aVZEPPELIN-1534
p2143
aVZEPPELIN-1533
p2144
aVZEPPELIN-1532
p2145
aVZEPPELIN-1531
p2146
aVZEPPELIN-1530
p2147
aVZEPPELIN-1529
p2148
aVZEPPELIN-1528
p2149
aVZEPPELIN-1527
p2150
aVZEPPELIN-1526
p2151
aVZEPPELIN-1525
p2152
aVZEPPELIN-1524
p2153
aVZEPPELIN-1523
p2154
aVZEPPELIN-1522
p2155
aVZEPPELIN-1521
p2156
aVZEPPELIN-1520
p2157
aVZEPPELIN-1519
p2158
aVZEPPELIN-1518
p2159
aVZEPPELIN-1517
p2160
aVZEPPELIN-1516
p2161
aVZEPPELIN-1515
p2162
aVZEPPELIN-1514
p2163
aVZEPPELIN-1513
p2164
aVZEPPELIN-1512
p2165
aVZEPPELIN-1511
p2166
aVZEPPELIN-1510
p2167
aVZEPPELIN-1509
p2168
aVZEPPELIN-1508
p2169
aVZEPPELIN-1507
p2170
aVZEPPELIN-1506
p2171
aVZEPPELIN-1505
p2172
aVZEPPELIN-1504
p2173
aVZEPPELIN-1503
p2174
aVZEPPELIN-1502
p2175
aVZEPPELIN-1501
p2176
aVZEPPELIN-1500
p2177
aVZEPPELIN-1499
p2178
aVZEPPELIN-1498
p2179
aVZEPPELIN-1497
p2180
aVZEPPELIN-1496
p2181
aVZEPPELIN-1495
p2182
aVZEPPELIN-1494
p2183
aVZEPPELIN-1493
p2184
aVZEPPELIN-1492
p2185
aVZEPPELIN-1491
p2186
aVZEPPELIN-1490
p2187
aVZEPPELIN-1489
p2188
aVZEPPELIN-1488
p2189
aVZEPPELIN-1487
p2190
aVZEPPELIN-1486
p2191
aVZEPPELIN-1485
p2192
aVZEPPELIN-1484
p2193
aVZEPPELIN-1483
p2194
aVZEPPELIN-1482
p2195
aVZEPPELIN-1481
p2196
aVZEPPELIN-1480
p2197
aVZEPPELIN-1479
p2198
aVZEPPELIN-1478
p2199
aVZEPPELIN-1477
p2200
aVZEPPELIN-1476
p2201
aVZEPPELIN-1475
p2202
aVZEPPELIN-1474
p2203
aVZEPPELIN-1473
p2204
aVZEPPELIN-1472
p2205
aVZEPPELIN-1471
p2206
aVZEPPELIN-1470
p2207
aVZEPPELIN-1469
p2208
aVZEPPELIN-1468
p2209
aVZEPPELIN-1467
p2210
aVZEPPELIN-1466
p2211
aVZEPPELIN-1465
p2212
aVZEPPELIN-1464
p2213
aVZEPPELIN-1463
p2214
aVZEPPELIN-1462
p2215
aVZEPPELIN-1461
p2216
aVZEPPELIN-1460
p2217
aVZEPPELIN-1459
p2218
aVZEPPELIN-1458
p2219
aVZEPPELIN-1457
p2220
aVZEPPELIN-1456
p2221
aVZEPPELIN-1455
p2222
aVZEPPELIN-1454
p2223
aVZEPPELIN-1453
p2224
aVZEPPELIN-1452
p2225
aVZEPPELIN-1451
p2226
aVZEPPELIN-1450
p2227
aVZEPPELIN-1449
p2228
aVZEPPELIN-1448
p2229
aVZEPPELIN-1447
p2230
aVZEPPELIN-1446
p2231
aVZEPPELIN-1445
p2232
aVZEPPELIN-1444
p2233
aVZEPPELIN-1443
p2234
aVZEPPELIN-1442
p2235
aVZEPPELIN-1441
p2236
aVZEPPELIN-1440
p2237
aVZEPPELIN-1439
p2238
aVZEPPELIN-1438
p2239
aVZEPPELIN-1437
p2240
aVZEPPELIN-1436
p2241
aVZEPPELIN-1435
p2242
aVZEPPELIN-1434
p2243
aVZEPPELIN-1433
p2244
aVZEPPELIN-1432
p2245
aVZEPPELIN-1431
p2246
aVZEPPELIN-1430
p2247
aVZEPPELIN-1429
p2248
aVZEPPELIN-1428
p2249
aVZEPPELIN-1427
p2250
aVZEPPELIN-1426
p2251
aVZEPPELIN-1425
p2252
aVZEPPELIN-1424
p2253
aVZEPPELIN-1423
p2254
aVZEPPELIN-1422
p2255
aVZEPPELIN-1421
p2256
aVZEPPELIN-1420
p2257
aVZEPPELIN-1419
p2258
aVZEPPELIN-1418
p2259
aVZEPPELIN-1417
p2260
aVZEPPELIN-1416
p2261
aVZEPPELIN-1415
p2262
aVZEPPELIN-1414
p2263
aVZEPPELIN-1413
p2264
aVZEPPELIN-1412
p2265
aVZEPPELIN-1411
p2266
aVZEPPELIN-1410
p2267
aVZEPPELIN-1409
p2268
aVZEPPELIN-1408
p2269
aVZEPPELIN-1407
p2270
aVZEPPELIN-1406
p2271
aVZEPPELIN-1405
p2272
aVZEPPELIN-1404
p2273
aVZEPPELIN-1403
p2274
aVZEPPELIN-1402
p2275
aVZEPPELIN-1401
p2276
aVZEPPELIN-1400
p2277
aVZEPPELIN-1399
p2278
aVZEPPELIN-1398
p2279
aVZEPPELIN-1397
p2280
aVZEPPELIN-1396
p2281
aVZEPPELIN-1395
p2282
aVZEPPELIN-1394
p2283
aVZEPPELIN-1393
p2284
aVZEPPELIN-1392
p2285
aVZEPPELIN-1391
p2286
aVZEPPELIN-1390
p2287
aVZEPPELIN-1389
p2288
aVZEPPELIN-1388
p2289
aVZEPPELIN-1387
p2290
aVZEPPELIN-1386
p2291
aVZEPPELIN-1385
p2292
aVZEPPELIN-1384
p2293
aVZEPPELIN-1383
p2294
aVZEPPELIN-1382
p2295
aVZEPPELIN-1381
p2296
aVZEPPELIN-1380
p2297
aVZEPPELIN-1379
p2298
aVZEPPELIN-1378
p2299
aVZEPPELIN-1377
p2300
aVZEPPELIN-1376
p2301
aVZEPPELIN-1375
p2302
aVZEPPELIN-1374
p2303
aVZEPPELIN-1373
p2304
aVZEPPELIN-1372
p2305
aVZEPPELIN-1371
p2306
aVZEPPELIN-1370
p2307
aVZEPPELIN-1369
p2308
aVZEPPELIN-1368
p2309
aVZEPPELIN-1367
p2310
aVZEPPELIN-1366
p2311
aVZEPPELIN-1365
p2312
aVZEPPELIN-1364
p2313
aVZEPPELIN-1363
p2314
aVZEPPELIN-1362
p2315
aVZEPPELIN-1361
p2316
aVZEPPELIN-1360
p2317
aVZEPPELIN-1359
p2318
aVZEPPELIN-1358
p2319
aVZEPPELIN-1357
p2320
aVZEPPELIN-1356
p2321
aVZEPPELIN-1355
p2322
aVZEPPELIN-1354
p2323
aVZEPPELIN-1353
p2324
aVZEPPELIN-1352
p2325
aVZEPPELIN-1351
p2326
aVZEPPELIN-1350
p2327
aVZEPPELIN-1349
p2328
aVZEPPELIN-1348
p2329
aVZEPPELIN-1347
p2330
aVZEPPELIN-1346
p2331
aVZEPPELIN-1345
p2332
aVZEPPELIN-1344
p2333
aVZEPPELIN-1343
p2334
aVZEPPELIN-1342
p2335
aVZEPPELIN-1341
p2336
aVZEPPELIN-1340
p2337
aVZEPPELIN-1339
p2338
aVZEPPELIN-1338
p2339
aVZEPPELIN-1337
p2340
aVZEPPELIN-1336
p2341
aVZEPPELIN-1335
p2342
aVZEPPELIN-1334
p2343
aVZEPPELIN-1333
p2344
aVZEPPELIN-1332
p2345
aVZEPPELIN-1331
p2346
aVZEPPELIN-1330
p2347
aVZEPPELIN-1329
p2348
aVZEPPELIN-1328
p2349
aVZEPPELIN-1327
p2350
aVZEPPELIN-1326
p2351
aVZEPPELIN-1325
p2352
aVZEPPELIN-1324
p2353
aVZEPPELIN-1323
p2354
aVZEPPELIN-1322
p2355
aVZEPPELIN-1321
p2356
aVZEPPELIN-1320
p2357
aVZEPPELIN-1319
p2358
aVZEPPELIN-1318
p2359
aVZEPPELIN-1317
p2360
aVZEPPELIN-1316
p2361
aVZEPPELIN-1315
p2362
aVZEPPELIN-1314
p2363
aVZEPPELIN-1313
p2364
aVZEPPELIN-1312
p2365
aVZEPPELIN-1311
p2366
aVZEPPELIN-1310
p2367
aVZEPPELIN-1309
p2368
aVZEPPELIN-1308
p2369
aVZEPPELIN-1307
p2370
aVZEPPELIN-1306
p2371
aVZEPPELIN-1305
p2372
aVZEPPELIN-1304
p2373
aVZEPPELIN-1303
p2374
aVZEPPELIN-1302
p2375
aVZEPPELIN-1301
p2376
aVZEPPELIN-1300
p2377
aVZEPPELIN-1299
p2378
aVZEPPELIN-1298
p2379
aVZEPPELIN-1297
p2380
aVZEPPELIN-1296
p2381
aVZEPPELIN-1295
p2382
aVZEPPELIN-1294
p2383
aVZEPPELIN-1293
p2384
aVZEPPELIN-1292
p2385
aVZEPPELIN-1291
p2386
aVZEPPELIN-1290
p2387
aVZEPPELIN-1289
p2388
aVZEPPELIN-1288
p2389
aVZEPPELIN-1287
p2390
aVZEPPELIN-1286
p2391
aVZEPPELIN-1285
p2392
aVZEPPELIN-1284
p2393
aVZEPPELIN-1283
p2394
aVZEPPELIN-1282
p2395
aVZEPPELIN-1281
p2396
aVZEPPELIN-1280
p2397
aVZEPPELIN-1279
p2398
aVZEPPELIN-1278
p2399
aVZEPPELIN-1277
p2400
aVZEPPELIN-1276
p2401
aVZEPPELIN-1275
p2402
aVZEPPELIN-1274
p2403
aVZEPPELIN-1273
p2404
aVZEPPELIN-1272
p2405
aVZEPPELIN-1271
p2406
aVZEPPELIN-1270
p2407
aVZEPPELIN-1269
p2408
aVZEPPELIN-1268
p2409
aVZEPPELIN-1267
p2410
aVZEPPELIN-1266
p2411
aVZEPPELIN-1265
p2412
aVZEPPELIN-1264
p2413
aVZEPPELIN-1263
p2414
aVZEPPELIN-1262
p2415
aVZEPPELIN-1261
p2416
aVZEPPELIN-1260
p2417
aVZEPPELIN-1259
p2418
aVZEPPELIN-1258
p2419
aVZEPPELIN-1257
p2420
aVZEPPELIN-1256
p2421
aVZEPPELIN-1255
p2422
aVZEPPELIN-1254
p2423
aVZEPPELIN-1253
p2424
aVZEPPELIN-1252
p2425
aVZEPPELIN-1251
p2426
aVZEPPELIN-1250
p2427
aVZEPPELIN-1249
p2428
aVZEPPELIN-1248
p2429
aVZEPPELIN-1247
p2430
aVZEPPELIN-1246
p2431
aVZEPPELIN-1245
p2432
aVZEPPELIN-1244
p2433
aVZEPPELIN-1243
p2434
aVZEPPELIN-1242
p2435
aVZEPPELIN-1241
p2436
aVZEPPELIN-1240
p2437
aVZEPPELIN-1239
p2438
aVZEPPELIN-1238
p2439
aVZEPPELIN-1237
p2440
aVZEPPELIN-1236
p2441
aVZEPPELIN-1235
p2442
aVZEPPELIN-1234
p2443
aVZEPPELIN-1233
p2444
aVZEPPELIN-1232
p2445
aVZEPPELIN-1231
p2446
aVZEPPELIN-1230
p2447
aVZEPPELIN-1229
p2448
aVZEPPELIN-1228
p2449
aVZEPPELIN-1227
p2450
aVZEPPELIN-1226
p2451
aVZEPPELIN-1225
p2452
aVZEPPELIN-1224
p2453
aVZEPPELIN-1223
p2454
aVZEPPELIN-1222
p2455
aVZEPPELIN-1221
p2456
aVZEPPELIN-1220
p2457
aVZEPPELIN-1219
p2458
aVZEPPELIN-1218
p2459
aVZEPPELIN-1217
p2460
aVZEPPELIN-1216
p2461
aVZEPPELIN-1215
p2462
aVZEPPELIN-1214
p2463
aVZEPPELIN-1213
p2464
aVZEPPELIN-1212
p2465
aVZEPPELIN-1211
p2466
aVZEPPELIN-1210
p2467
aVZEPPELIN-1209
p2468
aVZEPPELIN-1208
p2469
aVZEPPELIN-1207
p2470
aVZEPPELIN-1206
p2471
aVZEPPELIN-1205
p2472
aVZEPPELIN-1204
p2473
aVZEPPELIN-1203
p2474
aVZEPPELIN-1202
p2475
aVZEPPELIN-1201
p2476
aVZEPPELIN-1200
p2477
aVZEPPELIN-1199
p2478
aVZEPPELIN-1198
p2479
aVZEPPELIN-1197
p2480
aVZEPPELIN-1196
p2481
aVZEPPELIN-1195
p2482
aVZEPPELIN-1194
p2483
aVZEPPELIN-1193
p2484
aVZEPPELIN-1192
p2485
aVZEPPELIN-1191
p2486
aVZEPPELIN-1190
p2487
aVZEPPELIN-1189
p2488
aVZEPPELIN-1188
p2489
aVZEPPELIN-1187
p2490
aVZEPPELIN-1186
p2491
aVZEPPELIN-1185
p2492
aVZEPPELIN-1184
p2493
aVZEPPELIN-1183
p2494
aVZEPPELIN-1182
p2495
aVZEPPELIN-1181
p2496
aVZEPPELIN-1180
p2497
aVZEPPELIN-1179
p2498
aVZEPPELIN-1178
p2499
aVZEPPELIN-1177
p2500
aVZEPPELIN-1176
p2501
aVZEPPELIN-1175
p2502
aVZEPPELIN-1174
p2503
aVZEPPELIN-1173
p2504
aVZEPPELIN-1172
p2505
aVZEPPELIN-1171
p2506
aVZEPPELIN-1170
p2507
aVZEPPELIN-1169
p2508
aVZEPPELIN-1168
p2509
aVZEPPELIN-1167
p2510
aVZEPPELIN-1166
p2511
aVZEPPELIN-1165
p2512
aVZEPPELIN-1164
p2513
aVZEPPELIN-1163
p2514
aVZEPPELIN-1162
p2515
aVZEPPELIN-1161
p2516
aVZEPPELIN-1160
p2517
aVZEPPELIN-1159
p2518
aVZEPPELIN-1158
p2519
aVZEPPELIN-1157
p2520
aVZEPPELIN-1156
p2521
aVZEPPELIN-1155
p2522
aVZEPPELIN-1154
p2523
aVZEPPELIN-1153
p2524
aVZEPPELIN-1152
p2525
aVZEPPELIN-1151
p2526
aVZEPPELIN-1150
p2527
aVZEPPELIN-1149
p2528
aVZEPPELIN-1148
p2529
aVZEPPELIN-1147
p2530
aVZEPPELIN-1146
p2531
aVZEPPELIN-1145
p2532
aVZEPPELIN-1144
p2533
aVZEPPELIN-1143
p2534
aVZEPPELIN-1142
p2535
aVZEPPELIN-1141
p2536
aVZEPPELIN-1140
p2537
aVZEPPELIN-1139
p2538
aVZEPPELIN-1138
p2539
aVZEPPELIN-1137
p2540
aVZEPPELIN-1136
p2541
aVZEPPELIN-1135
p2542
aVZEPPELIN-1134
p2543
aVZEPPELIN-1133
p2544
aVZEPPELIN-1132
p2545
aVZEPPELIN-1131
p2546
aVZEPPELIN-1130
p2547
aVZEPPELIN-1129
p2548
aVZEPPELIN-1128
p2549
aVZEPPELIN-1127
p2550
aVZEPPELIN-1126
p2551
aVZEPPELIN-1125
p2552
aVZEPPELIN-1124
p2553
aVZEPPELIN-1123
p2554
aVZEPPELIN-1122
p2555
aVZEPPELIN-1121
p2556
aVZEPPELIN-1120
p2557
aVZEPPELIN-1119
p2558
aVZEPPELIN-1118
p2559
aVZEPPELIN-1117
p2560
aVZEPPELIN-1116
p2561
aVZEPPELIN-1115
p2562
aVZEPPELIN-1114
p2563
aVZEPPELIN-1113
p2564
aVZEPPELIN-1112
p2565
aVZEPPELIN-1111
p2566
aVZEPPELIN-1110
p2567
aVZEPPELIN-1109
p2568
aVZEPPELIN-1108
p2569
aVZEPPELIN-1107
p2570
aVZEPPELIN-1106
p2571
aVZEPPELIN-1105
p2572
aVZEPPELIN-1104
p2573
aVZEPPELIN-1103
p2574
aVZEPPELIN-1102
p2575
aVZEPPELIN-1101
p2576
aVZEPPELIN-1100
p2577
aVZEPPELIN-1099
p2578
aVZEPPELIN-1098
p2579
aVZEPPELIN-1097
p2580
aVZEPPELIN-1096
p2581
aVZEPPELIN-1095
p2582
aVZEPPELIN-1094
p2583
aVZEPPELIN-1093
p2584
aVZEPPELIN-1092
p2585
aVZEPPELIN-1091
p2586
aVZEPPELIN-1090
p2587
aVZEPPELIN-1089
p2588
aVZEPPELIN-1088
p2589
aVZEPPELIN-1087
p2590
aVZEPPELIN-1086
p2591
aVZEPPELIN-1085
p2592
aVZEPPELIN-1084
p2593
aVZEPPELIN-1083
p2594
aVZEPPELIN-1082
p2595
aVZEPPELIN-1081
p2596
aVZEPPELIN-1080
p2597
aVZEPPELIN-1079
p2598
aVZEPPELIN-1078
p2599
aVZEPPELIN-1077
p2600
aVZEPPELIN-1076
p2601
aVZEPPELIN-1075
p2602
aVZEPPELIN-1074
p2603
aVZEPPELIN-1073
p2604
aVZEPPELIN-1072
p2605
aVZEPPELIN-1071
p2606
aVZEPPELIN-1070
p2607
aVZEPPELIN-1069
p2608
aVZEPPELIN-1068
p2609
aVZEPPELIN-1067
p2610
aVZEPPELIN-1066
p2611
aVZEPPELIN-1065
p2612
aVZEPPELIN-1064
p2613
aVZEPPELIN-1063
p2614
aVZEPPELIN-1062
p2615
aVZEPPELIN-1061
p2616
aVZEPPELIN-1060
p2617
aVZEPPELIN-1059
p2618
aVZEPPELIN-1058
p2619
aVZEPPELIN-1057
p2620
aVZEPPELIN-1056
p2621
aVZEPPELIN-1055
p2622
aVZEPPELIN-1054
p2623
aVZEPPELIN-1053
p2624
aVZEPPELIN-1052
p2625
aVZEPPELIN-1051
p2626
aVZEPPELIN-1050
p2627
aVZEPPELIN-1049
p2628
aVZEPPELIN-1048
p2629
aVZEPPELIN-1047
p2630
aVZEPPELIN-1046
p2631
aVZEPPELIN-1045
p2632
aVZEPPELIN-1044
p2633
aVZEPPELIN-1043
p2634
aVZEPPELIN-1042
p2635
aVZEPPELIN-1041
p2636
aVZEPPELIN-1040
p2637
aVZEPPELIN-1039
p2638
aVZEPPELIN-1038
p2639
aVZEPPELIN-1037
p2640
aVZEPPELIN-1036
p2641
aVZEPPELIN-1035
p2642
aVZEPPELIN-1034
p2643
aVZEPPELIN-1033
p2644
aVZEPPELIN-1032
p2645
aVZEPPELIN-1031
p2646
aVZEPPELIN-1030
p2647
aVZEPPELIN-1029
p2648
aVZEPPELIN-1028
p2649
aVZEPPELIN-1027
p2650
aVZEPPELIN-1026
p2651
aVZEPPELIN-1025
p2652
aVZEPPELIN-1024
p2653
aVZEPPELIN-1023
p2654
aVZEPPELIN-1022
p2655
aVZEPPELIN-1021
p2656
aVZEPPELIN-1020
p2657
aVZEPPELIN-1019
p2658
aVZEPPELIN-1018
p2659
aVZEPPELIN-1017
p2660
aVZEPPELIN-1016
p2661
aVZEPPELIN-1015
p2662
aVZEPPELIN-1014
p2663
aVZEPPELIN-1013
p2664
aVZEPPELIN-1012
p2665
aVZEPPELIN-1011
p2666
aVZEPPELIN-1010
p2667
aVZEPPELIN-1009
p2668
aVZEPPELIN-1008
p2669
aVZEPPELIN-1007
p2670
aVZEPPELIN-1006
p2671
aVZEPPELIN-1005
p2672
aVZEPPELIN-1004
p2673
aVZEPPELIN-1003
p2674
aVZEPPELIN-1002
p2675
aVZEPPELIN-1001
p2676
aVZEPPELIN-1000
p2677
aVZEPPELIN-999
p2678
aVZEPPELIN-998
p2679
aVZEPPELIN-997
p2680
aVZEPPELIN-996
p2681
aVZEPPELIN-995
p2682
aVZEPPELIN-994
p2683
aVZEPPELIN-993
p2684
aVZEPPELIN-992
p2685
aVZEPPELIN-991
p2686
aVZEPPELIN-990
p2687
aVZEPPELIN-989
p2688
aVZEPPELIN-988
p2689
aVZEPPELIN-987
p2690
aVZEPPELIN-986
p2691
aVZEPPELIN-985
p2692
aVZEPPELIN-984
p2693
aVZEPPELIN-983
p2694
aVZEPPELIN-982
p2695
aVZEPPELIN-981
p2696
aVZEPPELIN-980
p2697
aVZEPPELIN-979
p2698
aVZEPPELIN-978
p2699
aVZEPPELIN-977
p2700
aVZEPPELIN-976
p2701
aVZEPPELIN-975
p2702
aVZEPPELIN-974
p2703
aVZEPPELIN-973
p2704
aVZEPPELIN-972
p2705
aVZEPPELIN-971
p2706
aVZEPPELIN-970
p2707
aVZEPPELIN-969
p2708
aVZEPPELIN-968
p2709
aVZEPPELIN-967
p2710
aVZEPPELIN-966
p2711
aVZEPPELIN-965
p2712
aVZEPPELIN-964
p2713
aVZEPPELIN-963
p2714
aVZEPPELIN-962
p2715
aVZEPPELIN-961
p2716
aVZEPPELIN-960
p2717
aVZEPPELIN-959
p2718
aVZEPPELIN-958
p2719
aVZEPPELIN-957
p2720
aVZEPPELIN-956
p2721
aVZEPPELIN-955
p2722
aVZEPPELIN-954
p2723
aVZEPPELIN-953
p2724
aVZEPPELIN-952
p2725
aVZEPPELIN-951
p2726
aVZEPPELIN-950
p2727
aVZEPPELIN-949
p2728
aVZEPPELIN-948
p2729
aVZEPPELIN-947
p2730
aVZEPPELIN-946
p2731
aVZEPPELIN-945
p2732
aVZEPPELIN-944
p2733
aVZEPPELIN-943
p2734
aVZEPPELIN-942
p2735
aVZEPPELIN-941
p2736
aVZEPPELIN-940
p2737
aVZEPPELIN-939
p2738
aVZEPPELIN-938
p2739
aVZEPPELIN-937
p2740
aVZEPPELIN-936
p2741
aVZEPPELIN-935
p2742
aVZEPPELIN-934
p2743
aVZEPPELIN-933
p2744
aVZEPPELIN-932
p2745
aVZEPPELIN-931
p2746
aVZEPPELIN-930
p2747
aVZEPPELIN-929
p2748
aVZEPPELIN-928
p2749
aVZEPPELIN-927
p2750
aVZEPPELIN-926
p2751
aVZEPPELIN-925
p2752
aVZEPPELIN-924
p2753
aVZEPPELIN-923
p2754
aVZEPPELIN-922
p2755
aVZEPPELIN-921
p2756
aVZEPPELIN-920
p2757
aVZEPPELIN-919
p2758
aVZEPPELIN-918
p2759
aVZEPPELIN-917
p2760
aVZEPPELIN-916
p2761
aVZEPPELIN-915
p2762
aVZEPPELIN-914
p2763
aVZEPPELIN-913
p2764
aVZEPPELIN-912
p2765
aVZEPPELIN-911
p2766
aVZEPPELIN-910
p2767
aVZEPPELIN-909
p2768
aVZEPPELIN-908
p2769
aVZEPPELIN-907
p2770
aVZEPPELIN-906
p2771
aVZEPPELIN-905
p2772
aVZEPPELIN-904
p2773
aVZEPPELIN-903
p2774
aVZEPPELIN-902
p2775
aVZEPPELIN-901
p2776
aVZEPPELIN-900
p2777
aVZEPPELIN-899
p2778
aVZEPPELIN-898
p2779
aVZEPPELIN-897
p2780
aVZEPPELIN-896
p2781
aVZEPPELIN-895
p2782
aVZEPPELIN-894
p2783
aVZEPPELIN-893
p2784
aVZEPPELIN-892
p2785
aVZEPPELIN-891
p2786
aVZEPPELIN-890
p2787
aVZEPPELIN-889
p2788
aVZEPPELIN-888
p2789
aVZEPPELIN-887
p2790
aVZEPPELIN-886
p2791
aVZEPPELIN-885
p2792
aVZEPPELIN-884
p2793
aVZEPPELIN-883
p2794
aVZEPPELIN-882
p2795
aVZEPPELIN-881
p2796
aVZEPPELIN-880
p2797
aVZEPPELIN-879
p2798
aVZEPPELIN-878
p2799
aVZEPPELIN-877
p2800
aVZEPPELIN-876
p2801
aVZEPPELIN-875
p2802
aVZEPPELIN-874
p2803
aVZEPPELIN-873
p2804
aVZEPPELIN-872
p2805
aVZEPPELIN-871
p2806
aVZEPPELIN-870
p2807
aVZEPPELIN-869
p2808
aVZEPPELIN-868
p2809
aVZEPPELIN-867
p2810
aVZEPPELIN-866
p2811
aVZEPPELIN-865
p2812
aVZEPPELIN-864
p2813
aVZEPPELIN-863
p2814
aVZEPPELIN-862
p2815
aVZEPPELIN-861
p2816
aVZEPPELIN-860
p2817
aVZEPPELIN-859
p2818
aVZEPPELIN-858
p2819
aVZEPPELIN-857
p2820
aVZEPPELIN-856
p2821
aVZEPPELIN-855
p2822
aVZEPPELIN-854
p2823
aVZEPPELIN-853
p2824
aVZEPPELIN-852
p2825
aVZEPPELIN-851
p2826
aVZEPPELIN-850
p2827
aVZEPPELIN-849
p2828
aVZEPPELIN-848
p2829
aVZEPPELIN-847
p2830
aVZEPPELIN-846
p2831
aVZEPPELIN-845
p2832
aVZEPPELIN-844
p2833
aVZEPPELIN-843
p2834
aVZEPPELIN-842
p2835
aVZEPPELIN-841
p2836
aVZEPPELIN-840
p2837
aVZEPPELIN-839
p2838
aVZEPPELIN-838
p2839
aVZEPPELIN-837
p2840
aVZEPPELIN-836
p2841
aVZEPPELIN-835
p2842
aVZEPPELIN-834
p2843
aVZEPPELIN-833
p2844
aVZEPPELIN-832
p2845
aVZEPPELIN-831
p2846
aVZEPPELIN-830
p2847
aVZEPPELIN-829
p2848
aVZEPPELIN-828
p2849
aVZEPPELIN-827
p2850
aVZEPPELIN-826
p2851
aVZEPPELIN-825
p2852
aVZEPPELIN-824
p2853
aVZEPPELIN-823
p2854
aVZEPPELIN-822
p2855
aVZEPPELIN-821
p2856
aVZEPPELIN-820
p2857
aVZEPPELIN-819
p2858
aVZEPPELIN-818
p2859
aVZEPPELIN-817
p2860
aVZEPPELIN-816
p2861
aVZEPPELIN-815
p2862
aVZEPPELIN-814
p2863
aVZEPPELIN-813
p2864
aVZEPPELIN-812
p2865
aVZEPPELIN-811
p2866
aVZEPPELIN-810
p2867
aVZEPPELIN-809
p2868
aVZEPPELIN-808
p2869
aVZEPPELIN-807
p2870
aVZEPPELIN-806
p2871
aVZEPPELIN-805
p2872
aVZEPPELIN-804
p2873
aVZEPPELIN-803
p2874
aVZEPPELIN-802
p2875
aVZEPPELIN-801
p2876
aVZEPPELIN-800
p2877
aVZEPPELIN-799
p2878
aVZEPPELIN-798
p2879
aVZEPPELIN-797
p2880
aVZEPPELIN-796
p2881
aVZEPPELIN-795
p2882
aVZEPPELIN-794
p2883
aVZEPPELIN-793
p2884
aVZEPPELIN-792
p2885
aVZEPPELIN-791
p2886
aVZEPPELIN-790
p2887
aVZEPPELIN-789
p2888
aVZEPPELIN-788
p2889
aVZEPPELIN-787
p2890
aVZEPPELIN-786
p2891
aVZEPPELIN-785
p2892
aVZEPPELIN-784
p2893
aVZEPPELIN-783
p2894
aVZEPPELIN-782
p2895
aVZEPPELIN-781
p2896
aVZEPPELIN-780
p2897
aVZEPPELIN-779
p2898
aVZEPPELIN-778
p2899
aVZEPPELIN-777
p2900
aVZEPPELIN-776
p2901
aVZEPPELIN-775
p2902
aVZEPPELIN-774
p2903
aVZEPPELIN-773
p2904
aVZEPPELIN-772
p2905
aVZEPPELIN-771
p2906
aVZEPPELIN-770
p2907
aVZEPPELIN-769
p2908
aVZEPPELIN-768
p2909
aVZEPPELIN-767
p2910
aVZEPPELIN-766
p2911
aVZEPPELIN-765
p2912
aVZEPPELIN-764
p2913
aVZEPPELIN-763
p2914
aVZEPPELIN-762
p2915
aVZEPPELIN-761
p2916
aVZEPPELIN-760
p2917
aVZEPPELIN-759
p2918
aVZEPPELIN-758
p2919
aVZEPPELIN-757
p2920
aVZEPPELIN-756
p2921
aVZEPPELIN-755
p2922
aVZEPPELIN-754
p2923
aVZEPPELIN-753
p2924
aVZEPPELIN-752
p2925
aVZEPPELIN-751
p2926
aVZEPPELIN-750
p2927
aVZEPPELIN-749
p2928
aVZEPPELIN-748
p2929
aVZEPPELIN-747
p2930
aVZEPPELIN-746
p2931
aVZEPPELIN-745
p2932
aVZEPPELIN-744
p2933
aVZEPPELIN-743
p2934
aVZEPPELIN-742
p2935
aVZEPPELIN-741
p2936
aVZEPPELIN-740
p2937
aVZEPPELIN-739
p2938
aVZEPPELIN-738
p2939
aVZEPPELIN-737
p2940
aVZEPPELIN-736
p2941
aVZEPPELIN-735
p2942
aVZEPPELIN-734
p2943
aVZEPPELIN-733
p2944
aVZEPPELIN-732
p2945
aVZEPPELIN-731
p2946
aVZEPPELIN-730
p2947
aVZEPPELIN-729
p2948
aVZEPPELIN-728
p2949
aVZEPPELIN-727
p2950
aVZEPPELIN-726
p2951
aVZEPPELIN-725
p2952
aVZEPPELIN-724
p2953
aVZEPPELIN-723
p2954
aVZEPPELIN-722
p2955
aVZEPPELIN-721
p2956
aVZEPPELIN-720
p2957
aVZEPPELIN-719
p2958
aVZEPPELIN-718
p2959
aVZEPPELIN-717
p2960
aVZEPPELIN-716
p2961
aVZEPPELIN-715
p2962
aVZEPPELIN-714
p2963
aVZEPPELIN-713
p2964
aVZEPPELIN-712
p2965
aVZEPPELIN-711
p2966
aVZEPPELIN-710
p2967
aVZEPPELIN-709
p2968
aVZEPPELIN-708
p2969
aVZEPPELIN-707
p2970
aVZEPPELIN-706
p2971
aVZEPPELIN-705
p2972
aVZEPPELIN-704
p2973
aVZEPPELIN-703
p2974
aVZEPPELIN-702
p2975
aVZEPPELIN-701
p2976
aVZEPPELIN-700
p2977
aVZEPPELIN-699
p2978
aVZEPPELIN-698
p2979
aVZEPPELIN-697
p2980
aVZEPPELIN-696
p2981
aVZEPPELIN-695
p2982
aVZEPPELIN-694
p2983
aVZEPPELIN-693
p2984
aVZEPPELIN-692
p2985
aVZEPPELIN-691
p2986
aVZEPPELIN-690
p2987
aVZEPPELIN-689
p2988
aVZEPPELIN-688
p2989
aVZEPPELIN-687
p2990
aVZEPPELIN-686
p2991
aVZEPPELIN-685
p2992
aVZEPPELIN-684
p2993
aVZEPPELIN-683
p2994
aVZEPPELIN-682
p2995
aVZEPPELIN-681
p2996
aVZEPPELIN-680
p2997
aVZEPPELIN-679
p2998
aVZEPPELIN-678
p2999
aVZEPPELIN-677
p3000
aVZEPPELIN-676
p3001
aVZEPPELIN-675
p3002
aVZEPPELIN-674
p3003
aVZEPPELIN-673
p3004
aVZEPPELIN-672
p3005
aVZEPPELIN-671
p3006
aVZEPPELIN-670
p3007
aVZEPPELIN-669
p3008
aVZEPPELIN-668
p3009
aVZEPPELIN-667
p3010
aVZEPPELIN-666
p3011
aVZEPPELIN-665
p3012
aVZEPPELIN-664
p3013
aVZEPPELIN-663
p3014
aVZEPPELIN-662
p3015
aVZEPPELIN-661
p3016
aVZEPPELIN-660
p3017
aVZEPPELIN-659
p3018
aVZEPPELIN-658
p3019
aVZEPPELIN-657
p3020
aVZEPPELIN-656
p3021
aVZEPPELIN-655
p3022
aVZEPPELIN-654
p3023
aVZEPPELIN-653
p3024
aVZEPPELIN-652
p3025
aVZEPPELIN-651
p3026
aVZEPPELIN-650
p3027
aVZEPPELIN-649
p3028
aVZEPPELIN-648
p3029
aVZEPPELIN-647
p3030
aVZEPPELIN-646
p3031
aVZEPPELIN-645
p3032
aVZEPPELIN-644
p3033
aVZEPPELIN-643
p3034
aVZEPPELIN-642
p3035
aVZEPPELIN-641
p3036
aVZEPPELIN-640
p3037
aVZEPPELIN-639
p3038
aVZEPPELIN-638
p3039
aVZEPPELIN-637
p3040
aVZEPPELIN-636
p3041
aVZEPPELIN-635
p3042
aVZEPPELIN-634
p3043
aVZEPPELIN-633
p3044
aVZEPPELIN-632
p3045
aVZEPPELIN-631
p3046
aVZEPPELIN-630
p3047
aVZEPPELIN-629
p3048
aVZEPPELIN-628
p3049
aVZEPPELIN-627
p3050
aVZEPPELIN-626
p3051
aVZEPPELIN-625
p3052
aVZEPPELIN-624
p3053
aVZEPPELIN-623
p3054
aVZEPPELIN-622
p3055
aVZEPPELIN-621
p3056
aVZEPPELIN-620
p3057
aVZEPPELIN-619
p3058
aVZEPPELIN-618
p3059
aVZEPPELIN-617
p3060
aVZEPPELIN-616
p3061
aVZEPPELIN-615
p3062
aVZEPPELIN-614
p3063
aVZEPPELIN-613
p3064
aVZEPPELIN-612
p3065
aVZEPPELIN-611
p3066
aVZEPPELIN-610
p3067
aVZEPPELIN-609
p3068
aVZEPPELIN-608
p3069
aVZEPPELIN-607
p3070
aVZEPPELIN-606
p3071
aVZEPPELIN-605
p3072
aVZEPPELIN-604
p3073
aVZEPPELIN-603
p3074
aVZEPPELIN-602
p3075
aVZEPPELIN-601
p3076
aVZEPPELIN-600
p3077
aVZEPPELIN-599
p3078
aVZEPPELIN-598
p3079
aVZEPPELIN-597
p3080
aVZEPPELIN-596
p3081
aVZEPPELIN-595
p3082
aVZEPPELIN-594
p3083
aVZEPPELIN-593
p3084
aVZEPPELIN-592
p3085
aVZEPPELIN-591
p3086
aVZEPPELIN-590
p3087
aVZEPPELIN-589
p3088
aVZEPPELIN-588
p3089
aVZEPPELIN-587
p3090
aVZEPPELIN-586
p3091
aVZEPPELIN-585
p3092
aVZEPPELIN-584
p3093
aVZEPPELIN-583
p3094
aVZEPPELIN-582
p3095
aVZEPPELIN-581
p3096
aVZEPPELIN-580
p3097
aVZEPPELIN-579
p3098
aVZEPPELIN-578
p3099
aVZEPPELIN-577
p3100
aVZEPPELIN-576
p3101
aVZEPPELIN-575
p3102
aVZEPPELIN-574
p3103
aVZEPPELIN-573
p3104
aVZEPPELIN-572
p3105
aVZEPPELIN-571
p3106
aVZEPPELIN-570
p3107
aVZEPPELIN-569
p3108
aVZEPPELIN-568
p3109
aVZEPPELIN-567
p3110
aVZEPPELIN-566
p3111
aVZEPPELIN-565
p3112
aVZEPPELIN-564
p3113
aVZEPPELIN-563
p3114
aVZEPPELIN-562
p3115
aVZEPPELIN-561
p3116
aVZEPPELIN-560
p3117
aVZEPPELIN-559
p3118
aVZEPPELIN-558
p3119
aVZEPPELIN-557
p3120
aVZEPPELIN-556
p3121
aVZEPPELIN-555
p3122
aVZEPPELIN-554
p3123
aVZEPPELIN-553
p3124
aVZEPPELIN-552
p3125
aVZEPPELIN-551
p3126
aVZEPPELIN-550
p3127
aVZEPPELIN-549
p3128
aVZEPPELIN-548
p3129
aVZEPPELIN-547
p3130
aVZEPPELIN-546
p3131
aVZEPPELIN-545
p3132
aVZEPPELIN-544
p3133
aVZEPPELIN-543
p3134
aVZEPPELIN-542
p3135
aVZEPPELIN-541
p3136
aVZEPPELIN-540
p3137
aVZEPPELIN-539
p3138
aVZEPPELIN-538
p3139
aVZEPPELIN-537
p3140
aVZEPPELIN-536
p3141
aVZEPPELIN-535
p3142
aVZEPPELIN-534
p3143
aVZEPPELIN-533
p3144
aVZEPPELIN-532
p3145
aVZEPPELIN-531
p3146
aVZEPPELIN-530
p3147
aVZEPPELIN-529
p3148
aVZEPPELIN-528
p3149
aVZEPPELIN-527
p3150
aVZEPPELIN-526
p3151
aVZEPPELIN-525
p3152
aVZEPPELIN-524
p3153
aVZEPPELIN-523
p3154
aVZEPPELIN-522
p3155
aVZEPPELIN-521
p3156
aVZEPPELIN-520
p3157
aVZEPPELIN-519
p3158
aVZEPPELIN-518
p3159
aVZEPPELIN-517
p3160
aVZEPPELIN-516
p3161
aVZEPPELIN-515
p3162
aVZEPPELIN-514
p3163
aVZEPPELIN-513
p3164
aVZEPPELIN-512
p3165
aVZEPPELIN-511
p3166
aVZEPPELIN-510
p3167
aVZEPPELIN-509
p3168
aVZEPPELIN-508
p3169
aVZEPPELIN-507
p3170
aVZEPPELIN-506
p3171
aVZEPPELIN-505
p3172
aVZEPPELIN-504
p3173
aVZEPPELIN-503
p3174
aVZEPPELIN-502
p3175
aVZEPPELIN-501
p3176
aVZEPPELIN-500
p3177
aVZEPPELIN-499
p3178
aVZEPPELIN-498
p3179
aVZEPPELIN-497
p3180
aVZEPPELIN-496
p3181
aVZEPPELIN-495
p3182
aVZEPPELIN-494
p3183
aVZEPPELIN-493
p3184
aVZEPPELIN-492
p3185
aVZEPPELIN-491
p3186
aVZEPPELIN-490
p3187
aVZEPPELIN-489
p3188
aVZEPPELIN-488
p3189
aVZEPPELIN-487
p3190
aVZEPPELIN-486
p3191
aVZEPPELIN-485
p3192
aVZEPPELIN-484
p3193
aVZEPPELIN-483
p3194
aVZEPPELIN-482
p3195
aVZEPPELIN-481
p3196
aVZEPPELIN-480
p3197
aVZEPPELIN-479
p3198
aVZEPPELIN-478
p3199
aVZEPPELIN-477
p3200
aVZEPPELIN-476
p3201
aVZEPPELIN-475
p3202
aVZEPPELIN-474
p3203
aVZEPPELIN-473
p3204
aVZEPPELIN-472
p3205
aVZEPPELIN-471
p3206
aVZEPPELIN-470
p3207
aVZEPPELIN-469
p3208
aVZEPPELIN-468
p3209
aVZEPPELIN-467
p3210
aVZEPPELIN-466
p3211
aVZEPPELIN-465
p3212
aVZEPPELIN-464
p3213
aVZEPPELIN-463
p3214
aVZEPPELIN-462
p3215
aVZEPPELIN-461
p3216
aVZEPPELIN-460
p3217
aVZEPPELIN-459
p3218
aVZEPPELIN-458
p3219
aVZEPPELIN-457
p3220
aVZEPPELIN-456
p3221
aVZEPPELIN-455
p3222
aVZEPPELIN-454
p3223
aVZEPPELIN-453
p3224
aVZEPPELIN-452
p3225
aVZEPPELIN-451
p3226
aVZEPPELIN-450
p3227
aVZEPPELIN-449
p3228
aVZEPPELIN-448
p3229
aVZEPPELIN-447
p3230
aVZEPPELIN-446
p3231
aVZEPPELIN-445
p3232
aVZEPPELIN-444
p3233
aVZEPPELIN-443
p3234
aVZEPPELIN-442
p3235
aVZEPPELIN-441
p3236
aVZEPPELIN-440
p3237
aVZEPPELIN-439
p3238
aVZEPPELIN-438
p3239
aVZEPPELIN-437
p3240
aVZEPPELIN-436
p3241
aVZEPPELIN-435
p3242
aVZEPPELIN-434
p3243
aVZEPPELIN-433
p3244
aVZEPPELIN-432
p3245
aVZEPPELIN-431
p3246
aVZEPPELIN-430
p3247
aVZEPPELIN-429
p3248
aVZEPPELIN-428
p3249
aVZEPPELIN-427
p3250
aVZEPPELIN-426
p3251
aVZEPPELIN-425
p3252
aVZEPPELIN-424
p3253
aVZEPPELIN-423
p3254
aVZEPPELIN-422
p3255
aVZEPPELIN-421
p3256
aVZEPPELIN-420
p3257
aVZEPPELIN-419
p3258
aVZEPPELIN-418
p3259
aVZEPPELIN-417
p3260
aVZEPPELIN-416
p3261
aVZEPPELIN-415
p3262
aVZEPPELIN-414
p3263
aVZEPPELIN-413
p3264
aVZEPPELIN-412
p3265
aVZEPPELIN-411
p3266
aVZEPPELIN-410
p3267
aVZEPPELIN-409
p3268
aVZEPPELIN-408
p3269
aVZEPPELIN-407
p3270
aVZEPPELIN-406
p3271
aVZEPPELIN-405
p3272
aVZEPPELIN-404
p3273
aVZEPPELIN-403
p3274
aVZEPPELIN-402
p3275
aVZEPPELIN-401
p3276
aVZEPPELIN-400
p3277
aVZEPPELIN-399
p3278
aVZEPPELIN-398
p3279
aVZEPPELIN-397
p3280
aVZEPPELIN-396
p3281
aVZEPPELIN-395
p3282
aVZEPPELIN-394
p3283
aVZEPPELIN-393
p3284
aVZEPPELIN-392
p3285
aVZEPPELIN-391
p3286
aVZEPPELIN-390
p3287
aVZEPPELIN-389
p3288
aVZEPPELIN-388
p3289
aVZEPPELIN-387
p3290
aVZEPPELIN-386
p3291
aVZEPPELIN-385
p3292
aVZEPPELIN-384
p3293
aVZEPPELIN-383
p3294
aVZEPPELIN-382
p3295
aVZEPPELIN-381
p3296
aVZEPPELIN-380
p3297
aVZEPPELIN-379
p3298
aVZEPPELIN-378
p3299
aVZEPPELIN-377
p3300
aVZEPPELIN-376
p3301
aVZEPPELIN-375
p3302
aVZEPPELIN-374
p3303
aVZEPPELIN-373
p3304
aVZEPPELIN-372
p3305
aVZEPPELIN-371
p3306
aVZEPPELIN-370
p3307
aVZEPPELIN-369
p3308
aVZEPPELIN-368
p3309
aVZEPPELIN-367
p3310
aVZEPPELIN-366
p3311
aVZEPPELIN-365
p3312
aVZEPPELIN-364
p3313
aVZEPPELIN-363
p3314
aVZEPPELIN-362
p3315
aVZEPPELIN-361
p3316
aVZEPPELIN-360
p3317
aVZEPPELIN-359
p3318
aVZEPPELIN-358
p3319
aVZEPPELIN-357
p3320
aVZEPPELIN-356
p3321
aVZEPPELIN-355
p3322
aVZEPPELIN-354
p3323
aVZEPPELIN-353
p3324
aVZEPPELIN-352
p3325
aVZEPPELIN-351
p3326
aVZEPPELIN-350
p3327
aVZEPPELIN-349
p3328
aVZEPPELIN-348
p3329
aVZEPPELIN-347
p3330
aVZEPPELIN-346
p3331
aVZEPPELIN-345
p3332
aVZEPPELIN-344
p3333
aVZEPPELIN-343
p3334
aVZEPPELIN-342
p3335
aVZEPPELIN-341
p3336
aVZEPPELIN-340
p3337
aVZEPPELIN-339
p3338
aVZEPPELIN-338
p3339
aVZEPPELIN-337
p3340
aVZEPPELIN-336
p3341
aVZEPPELIN-335
p3342
aVZEPPELIN-334
p3343
aVZEPPELIN-333
p3344
aVZEPPELIN-332
p3345
aVZEPPELIN-331
p3346
aVZEPPELIN-330
p3347
aVZEPPELIN-329
p3348
aVZEPPELIN-328
p3349
aVZEPPELIN-327
p3350
aVZEPPELIN-326
p3351
aVZEPPELIN-325
p3352
aVZEPPELIN-324
p3353
aVZEPPELIN-323
p3354
aVZEPPELIN-322
p3355
aVZEPPELIN-321
p3356
aVZEPPELIN-320
p3357
aVZEPPELIN-319
p3358
aVZEPPELIN-318
p3359
aVZEPPELIN-317
p3360
aVZEPPELIN-316
p3361
aVZEPPELIN-315
p3362
aVZEPPELIN-314
p3363
aVZEPPELIN-313
p3364
aVZEPPELIN-312
p3365
aVZEPPELIN-311
p3366
aVZEPPELIN-310
p3367
aVZEPPELIN-309
p3368
aVZEPPELIN-308
p3369
aVZEPPELIN-307
p3370
aVZEPPELIN-306
p3371
aVZEPPELIN-305
p3372
aVZEPPELIN-304
p3373
aVZEPPELIN-303
p3374
aVZEPPELIN-302
p3375
aVZEPPELIN-301
p3376
aVZEPPELIN-300
p3377
aVZEPPELIN-299
p3378
aVZEPPELIN-298
p3379
aVZEPPELIN-297
p3380
aVZEPPELIN-296
p3381
aVZEPPELIN-295
p3382
aVZEPPELIN-294
p3383
aVZEPPELIN-293
p3384
aVZEPPELIN-292
p3385
aVZEPPELIN-291
p3386
aVZEPPELIN-290
p3387
aVZEPPELIN-289
p3388
aVZEPPELIN-288
p3389
aVZEPPELIN-287
p3390
aVZEPPELIN-286
p3391
aVZEPPELIN-285
p3392
aVZEPPELIN-284
p3393
aVZEPPELIN-283
p3394
aVZEPPELIN-282
p3395
aVZEPPELIN-281
p3396
aVZEPPELIN-280
p3397
aVZEPPELIN-279
p3398
aVZEPPELIN-278
p3399
aVZEPPELIN-277
p3400
aVZEPPELIN-276
p3401
aVZEPPELIN-275
p3402
aVZEPPELIN-274
p3403
aVZEPPELIN-273
p3404
aVZEPPELIN-272
p3405
aVZEPPELIN-271
p3406
aVZEPPELIN-270
p3407
aVZEPPELIN-269
p3408
aVZEPPELIN-268
p3409
aVZEPPELIN-267
p3410
aVZEPPELIN-266
p3411
aVZEPPELIN-265
p3412
aVZEPPELIN-264
p3413
aVZEPPELIN-263
p3414
aVZEPPELIN-262
p3415
aVZEPPELIN-261
p3416
aVZEPPELIN-260
p3417
aVZEPPELIN-259
p3418
aVZEPPELIN-258
p3419
aVZEPPELIN-257
p3420
aVZEPPELIN-256
p3421
aVZEPPELIN-255
p3422
aVZEPPELIN-254
p3423
aVZEPPELIN-253
p3424
aVZEPPELIN-252
p3425
aVZEPPELIN-251
p3426
aVZEPPELIN-250
p3427
aVZEPPELIN-249
p3428
aVZEPPELIN-248
p3429
aVZEPPELIN-247
p3430
aVZEPPELIN-246
p3431
aVZEPPELIN-245
p3432
aVZEPPELIN-244
p3433
aVZEPPELIN-243
p3434
aVZEPPELIN-242
p3435
aVZEPPELIN-241
p3436
aVZEPPELIN-240
p3437
aVZEPPELIN-239
p3438
aVZEPPELIN-238
p3439
aVZEPPELIN-237
p3440
aVZEPPELIN-236
p3441
aVZEPPELIN-235
p3442
aVZEPPELIN-234
p3443
aVZEPPELIN-233
p3444
aVZEPPELIN-232
p3445
aVZEPPELIN-231
p3446
aVZEPPELIN-230
p3447
aVZEPPELIN-229
p3448
aVZEPPELIN-228
p3449
aVZEPPELIN-227
p3450
aVZEPPELIN-226
p3451
aVZEPPELIN-225
p3452
aVZEPPELIN-224
p3453
aVZEPPELIN-223
p3454
aVZEPPELIN-222
p3455
aVZEPPELIN-221
p3456
aVZEPPELIN-220
p3457
aVZEPPELIN-219
p3458
aVZEPPELIN-218
p3459
aVZEPPELIN-217
p3460
aVZEPPELIN-216
p3461
aVZEPPELIN-215
p3462
aVZEPPELIN-214
p3463
aVZEPPELIN-213
p3464
aVZEPPELIN-212
p3465
aVZEPPELIN-211
p3466
aVZEPPELIN-210
p3467
aVZEPPELIN-209
p3468
aVZEPPELIN-208
p3469
aVZEPPELIN-207
p3470
aVZEPPELIN-206
p3471
aVZEPPELIN-205
p3472
aVZEPPELIN-204
p3473
aVZEPPELIN-203
p3474
aVZEPPELIN-202
p3475
aVZEPPELIN-201
p3476
aVZEPPELIN-200
p3477
aVZEPPELIN-199
p3478
aVZEPPELIN-198
p3479
aVZEPPELIN-197
p3480
aVZEPPELIN-196
p3481
aVZEPPELIN-195
p3482
aVZEPPELIN-194
p3483
aVZEPPELIN-193
p3484
aVZEPPELIN-192
p3485
aVZEPPELIN-191
p3486
aVZEPPELIN-190
p3487
aVZEPPELIN-189
p3488
aVZEPPELIN-188
p3489
aVZEPPELIN-187
p3490
aVZEPPELIN-186
p3491
aVZEPPELIN-185
p3492
aVZEPPELIN-184
p3493
aVZEPPELIN-183
p3494
aVZEPPELIN-182
p3495
aVZEPPELIN-181
p3496
aVZEPPELIN-180
p3497
aVZEPPELIN-179
p3498
aVZEPPELIN-178
p3499
aVZEPPELIN-177
p3500
aVZEPPELIN-176
p3501
aVZEPPELIN-175
p3502
aVZEPPELIN-174
p3503
aVZEPPELIN-173
p3504
aVZEPPELIN-172
p3505
aVZEPPELIN-171
p3506
aVZEPPELIN-170
p3507
aVZEPPELIN-169
p3508
aVZEPPELIN-168
p3509
aVZEPPELIN-167
p3510
aVZEPPELIN-166
p3511
aVZEPPELIN-165
p3512
aVZEPPELIN-164
p3513
aVZEPPELIN-163
p3514
aVZEPPELIN-162
p3515
aVZEPPELIN-161
p3516
aVZEPPELIN-160
p3517
aVZEPPELIN-159
p3518
aVZEPPELIN-158
p3519
aVZEPPELIN-157
p3520
aVZEPPELIN-156
p3521
aVZEPPELIN-155
p3522
aVZEPPELIN-154
p3523
aVZEPPELIN-153
p3524
aVZEPPELIN-152
p3525
aVZEPPELIN-151
p3526
aVZEPPELIN-150
p3527
aVZEPPELIN-149
p3528
aVZEPPELIN-148
p3529
aVZEPPELIN-147
p3530
aVZEPPELIN-146
p3531
aVZEPPELIN-145
p3532
aVZEPPELIN-144
p3533
aVZEPPELIN-143
p3534
aVZEPPELIN-142
p3535
aVZEPPELIN-141
p3536
aVZEPPELIN-140
p3537
aVZEPPELIN-139
p3538
aVZEPPELIN-138
p3539
aVZEPPELIN-137
p3540
aVZEPPELIN-136
p3541
aVZEPPELIN-135
p3542
aVZEPPELIN-134
p3543
aVZEPPELIN-133
p3544
aVZEPPELIN-132
p3545
aVZEPPELIN-131
p3546
aVZEPPELIN-130
p3547
aVZEPPELIN-129
p3548
aVZEPPELIN-128
p3549
aVZEPPELIN-127
p3550
aVZEPPELIN-126
p3551
aVZEPPELIN-125
p3552
aVZEPPELIN-124
p3553
aVZEPPELIN-123
p3554
aVZEPPELIN-122
p3555
aVZEPPELIN-121
p3556
aVZEPPELIN-120
p3557
aVZEPPELIN-119
p3558
aVZEPPELIN-118
p3559
aVZEPPELIN-117
p3560
aVZEPPELIN-116
p3561
aVZEPPELIN-115
p3562
aVZEPPELIN-114
p3563
aVZEPPELIN-113
p3564
aVZEPPELIN-112
p3565
aVZEPPELIN-111
p3566
aVZEPPELIN-110
p3567
aVZEPPELIN-109
p3568
aVZEPPELIN-108
p3569
aVZEPPELIN-107
p3570
aVZEPPELIN-106
p3571
aVZEPPELIN-105
p3572
aVZEPPELIN-104
p3573
aVZEPPELIN-103
p3574
aVZEPPELIN-102
p3575
aVZEPPELIN-101
p3576
aVZEPPELIN-100
p3577
aVZEPPELIN-99
p3578
aVZEPPELIN-98
p3579
aVZEPPELIN-97
p3580
aVZEPPELIN-96
p3581
aVZEPPELIN-95
p3582
aVZEPPELIN-94
p3583
aVZEPPELIN-93
p3584
aVZEPPELIN-92
p3585
aVZEPPELIN-91
p3586
aVZEPPELIN-90
p3587
aVZEPPELIN-89
p3588
aVZEPPELIN-88
p3589
aVZEPPELIN-87
p3590
aVZEPPELIN-86
p3591
aVZEPPELIN-85
p3592
aVZEPPELIN-84
p3593
aVZEPPELIN-83
p3594
aVZEPPELIN-82
p3595
aVZEPPELIN-81
p3596
aVZEPPELIN-80
p3597
aVZEPPELIN-79
p3598
aVZEPPELIN-78
p3599
aVZEPPELIN-77
p3600
aVZEPPELIN-76
p3601
aVZEPPELIN-75
p3602
aVZEPPELIN-74
p3603
aVZEPPELIN-73
p3604
aVZEPPELIN-72
p3605
aVZEPPELIN-71
p3606
aVZEPPELIN-70
p3607
aVZEPPELIN-69
p3608
aVZEPPELIN-68
p3609
aVZEPPELIN-67
p3610
aVZEPPELIN-66
p3611
aVZEPPELIN-65
p3612
aVZEPPELIN-64
p3613
aVZEPPELIN-63
p3614
aVZEPPELIN-62
p3615
aVZEPPELIN-61
p3616
aVZEPPELIN-60
p3617
aVZEPPELIN-59
p3618
aVZEPPELIN-58
p3619
aVZEPPELIN-57
p3620
aVZEPPELIN-56
p3621
aVZEPPELIN-55
p3622
aVZEPPELIN-54
p3623
aVZEPPELIN-53
p3624
aVZEPPELIN-52
p3625
aVZEPPELIN-51
p3626
aVZEPPELIN-50
p3627
aVZEPPELIN-49
p3628
aVZEPPELIN-48
p3629
aVZEPPELIN-47
p3630
aVZEPPELIN-46
p3631
aVZEPPELIN-45
p3632
aVZEPPELIN-44
p3633
aVZEPPELIN-43
p3634
aVZEPPELIN-42
p3635
aVZEPPELIN-41
p3636
aVZEPPELIN-40
p3637
aVZEPPELIN-39
p3638
aVZEPPELIN-38
p3639
aVZEPPELIN-37
p3640
aVZEPPELIN-36
p3641
aVZEPPELIN-35
p3642
aVZEPPELIN-34
p3643
aVZEPPELIN-33
p3644
aVZEPPELIN-32
p3645
aVZEPPELIN-31
p3646
aVZEPPELIN-30
p3647
aVZEPPELIN-29
p3648
aVZEPPELIN-28
p3649
aVZEPPELIN-27
p3650
aVZEPPELIN-26
p3651
aVZEPPELIN-25
p3652
aVZEPPELIN-24
p3653
aVZEPPELIN-23
p3654
aVZEPPELIN-22
p3655
aVZEPPELIN-21
p3656
aVZEPPELIN-20
p3657
aVZEPPELIN-19
p3658
aVZEPPELIN-18
p3659
aVZEPPELIN-17
p3660
aVZEPPELIN-16
p3661
aVZEPPELIN-15
p3662
aVZEPPELIN-14
p3663
aVZEPPELIN-13
p3664
aVZEPPELIN-12
p3665
aVZEPPELIN-11
p3666
aVZEPPELIN-10
p3667
aVZEPPELIN-9
p3668
aVZEPPELIN-8
p3669
aVZEPPELIN-7
p3670
aVZEPPELIN-6
p3671
aVZEPPELIN-5
p3672
aVZEPPELIN-4
p3673
aVZEPPELIN-3
p3674
aVZEPPELIN-2
p3675
aVZEPPELIN-1
p3676
a.